ARM GAS  C:\Users\srvs\AppData\Local\Temp\ccZfANit.s 			page 1


   1              		.cpu cortex-m0
   2              		.fpu softvfp
   3              		.eabi_attribute 20, 1
   4              		.eabi_attribute 21, 1
   5              		.eabi_attribute 23, 3
   6              		.eabi_attribute 24, 1
   7              		.eabi_attribute 25, 1
   8              		.eabi_attribute 26, 1
   9              		.eabi_attribute 30, 6
  10              		.eabi_attribute 18, 4
  11              		.code	16
  12              		.file	"Camera.c"
  19 0000 F6000000 		.text
  19      02005600 
  19      00000201 
  19      FB0E0D00 
  19      01010101 
  20              	.Ltext0:
  21              		.cfi_sections	.debug_frame
  22              		.comm	Blob1,16,4
  23              		.comm	Blob2,16,4
  24              		.comm	Blob3,16,4
  25              		.comm	Blob4,16,4
  26              		.comm	IRsensorAddress,1,1
  27              		.comm	IRslaveAddress,1,1
  28              		.comm	data_buf,16,4
  29              		.comm	i,4,4
  30              		.comm	s,4,4
  31              		.comm	blobcount,1,1
  32              		.section	.text.Write_2bytes,"ax",%progbits
  33              		.align	2
  34              		.global	Write_2bytes
  35              		.code	16
  36              		.thumb_func
  37              		.type	Write_2bytes, %function
  38              	Write_2bytes:
  39              	.LFB20:
  40              		.file 1 ".\\Camera.c"
   1:.\Camera.c    **** /* ========================================
   2:.\Camera.c    ****  *
   3:.\Camera.c    ****  * The following firmware was ported by Cypress Semiconductor
   4:.\Camera.c    ****  * PVision library for interaction with the Pixart sensor on a WiiMote
   5:.\Camera.c    ****  * This work was derived from Kako's excellent Japanese website
   6:.\Camera.c    ****  * http://www.kako.com/neta/2007-001/2007-001.html
   7:.\Camera.c    ****  * Steve Hobley 2009 - www.stephenhobley.com
   8:.\Camera.c    ****  * 
   9:.\Camera.c    ****  * This work is licensed under a Creative Commons Attribution 3.0 Unported License.
  10:.\Camera.c    ****  * 
  11:.\Camera.c    ****  * http://creativecommons.org/licenses/by/3.0/deed.en_US
  12:.\Camera.c    ****  * 
  13:.\Camera.c    ****  * You are free to:
ARM GAS  C:\Users\srvs\AppData\Local\Temp\ccZfANit.s 			page 2


  14:.\Camera.c    ****  * -To Share — to copy, distribute and transmit the work 
  15:.\Camera.c    ****  * -To Remix — to adapt the work 
  16:.\Camera.c    ****  * -To make commercial use of the work
  17:.\Camera.c    ****  *
  18:.\Camera.c    ****  * ========================================
  19:.\Camera.c    ****  */
  20:.\Camera.c    **** 
  21:.\Camera.c    **** /******************************************************************************
  22:.\Camera.c    **** * Includes
  23:.\Camera.c    **** ******************************************************************************/
  24:.\Camera.c    **** #include "Camera.h"
  25:.\Camera.c    **** 
  26:.\Camera.c    **** /******************************************************************************
  27:.\Camera.c    **** * Private methods
  28:.\Camera.c    **** ******************************************************************************/
  29:.\Camera.c    **** void Write_2bytes(uint8 d1, uint8 d2)
  30:.\Camera.c    **** {
  41              		.loc 1 30 0
  42              		.cfi_startproc
  43 0000 80B5     		push	{r7, lr}
  44              	.LCFI0:
  45              		.cfi_def_cfa_offset 8
  46              		.cfi_offset 7, -8
  47              		.cfi_offset 14, -4
  48 0002 84B0     		sub	sp, sp, #16
  49              	.LCFI1:
  50              		.cfi_def_cfa_offset 24
  51 0004 00AF     		add	r7, sp, #0
  52              	.LCFI2:
  53              		.cfi_def_cfa_register 7
  54 0006 0A1C     		mov	r2, r1
  55 0008 FB1D     		add	r3, r7, #7
  56 000a 011C     		add	r1, r0, #0
  57 000c 1970     		strb	r1, [r3]
  58 000e BB1D     		add	r3, r7, #6
  59 0010 1A70     		strb	r2, [r3]
  31:.\Camera.c    **** 	uint32 status = I2CM_I2C_MSTR_NO_ERROR;
  60              		.loc 1 31 0
  61 0012 0023     		mov	r3, #0
  62 0014 FB60     		str	r3, [r7, #12]
  32:.\Camera.c    **** 	
  33:.\Camera.c    **** 	status = I2CM_I2CMasterSendStart(IRslaveAddress, 0);
  63              		.loc 1 33 0
  64 0016 1E4B     		ldr	r3, .L12
  65 0018 1B78     		ldrb	r3, [r3]
  66 001a 181C     		mov	r0, r3
  67 001c 0021     		mov	r1, #0
  68 001e FFF7FEFF 		bl	I2CM_I2CMasterSendStart
  69 0022 031C     		mov	r3, r0
  70 0024 FB60     		str	r3, [r7, #12]
  34:.\Camera.c    **** 	if (status != I2CM_I2C_MSTR_NO_ERROR)
  71              		.loc 1 34 0
  72 0026 FB68     		ldr	r3, [r7, #12]
  73 0028 002B     		cmp	r3, #0
  74 002a 27D1     		bne	.L8
  75              	.L2:
  35:.\Camera.c    **** 	{return;}
ARM GAS  C:\Users\srvs\AppData\Local\Temp\ccZfANit.s 			page 3


  36:.\Camera.c    **** 	CyDelay(1);
  76              		.loc 1 36 0
  77 002c 0120     		mov	r0, #1
  78 002e FFF7FEFF 		bl	CyDelay
  37:.\Camera.c    ****     status = I2CM_I2CMasterWriteByte(d1);
  79              		.loc 1 37 0
  80 0032 FB1D     		add	r3, r7, #7
  81 0034 1B78     		ldrb	r3, [r3]
  82 0036 181C     		mov	r0, r3
  83 0038 FFF7FEFF 		bl	I2CM_I2CMasterWriteByte
  84 003c 031C     		mov	r3, r0
  85 003e FB60     		str	r3, [r7, #12]
  38:.\Camera.c    **** 	if (status != I2CM_I2C_MSTR_NO_ERROR)
  86              		.loc 1 38 0
  87 0040 FB68     		ldr	r3, [r7, #12]
  88 0042 002B     		cmp	r3, #0
  89 0044 1CD1     		bne	.L9
  90              	.L4:
  39:.\Camera.c    **** 	{return;}
  40:.\Camera.c    **** 	CyDelay(1);
  91              		.loc 1 40 0
  92 0046 0120     		mov	r0, #1
  93 0048 FFF7FEFF 		bl	CyDelay
  41:.\Camera.c    **** 	status = I2CM_I2CMasterWriteByte(d2);
  94              		.loc 1 41 0
  95 004c BB1D     		add	r3, r7, #6
  96 004e 1B78     		ldrb	r3, [r3]
  97 0050 181C     		mov	r0, r3
  98 0052 FFF7FEFF 		bl	I2CM_I2CMasterWriteByte
  99 0056 031C     		mov	r3, r0
 100 0058 FB60     		str	r3, [r7, #12]
  42:.\Camera.c    **** 	if (status != I2CM_I2C_MSTR_NO_ERROR)
 101              		.loc 1 42 0
 102 005a FB68     		ldr	r3, [r7, #12]
 103 005c 002B     		cmp	r3, #0
 104 005e 11D1     		bne	.L10
 105              	.L5:
  43:.\Camera.c    **** 	{return;}
  44:.\Camera.c    **** 	CyDelay(1);
 106              		.loc 1 44 0
 107 0060 0120     		mov	r0, #1
 108 0062 FFF7FEFF 		bl	CyDelay
  45:.\Camera.c    ****     status = I2CM_I2CMasterSendStop();
 109              		.loc 1 45 0
 110 0066 FFF7FEFF 		bl	I2CM_I2CMasterSendStop
 111 006a 031C     		mov	r3, r0
 112 006c FB60     		str	r3, [r7, #12]
  46:.\Camera.c    **** 	if (status != I2CM_I2C_MSTR_NO_ERROR)
 113              		.loc 1 46 0
 114 006e FB68     		ldr	r3, [r7, #12]
 115 0070 002B     		cmp	r3, #0
 116 0072 09D1     		bne	.L11
 117              	.L6:
  47:.\Camera.c    **** 	{return;}
  48:.\Camera.c    **** 	CyDelay(1);
 118              		.loc 1 48 0
 119 0074 0120     		mov	r0, #1
ARM GAS  C:\Users\srvs\AppData\Local\Temp\ccZfANit.s 			page 4


 120 0076 FFF7FEFF 		bl	CyDelay
 121 007a 06E0     		b	.L7
 122              	.L8:
 123              		.loc 1 35 0
 124 007c C046     		mov	r8, r8
 125 007e 04E0     		b	.L7
 126              	.L9:
 127              		.loc 1 39 0
 128 0080 C046     		mov	r8, r8
 129 0082 02E0     		b	.L7
 130              	.L10:
 131              		.loc 1 43 0
 132 0084 C046     		mov	r8, r8
 133 0086 00E0     		b	.L7
 134              	.L11:
 135              		.loc 1 47 0
 136 0088 C046     		mov	r8, r8
 137              	.L7:
  49:.\Camera.c    **** }
 138              		.loc 1 49 0
 139 008a BD46     		mov	sp, r7
 140 008c 04B0     		add	sp, sp, #16
 141              		@ sp needed for prologue
 142 008e 80BD     		pop	{r7, pc}
 143              	.L13:
 144              		.align	2
 145              	.L12:
 146 0090 00000000 		.word	IRslaveAddress
 147              		.cfi_endproc
 148              	.LFE20:
 149              		.size	Write_2bytes, .-Write_2bytes
 150              		.section	.text.Camera,"ax",%progbits
 151              		.align	2
 152              		.global	Camera
 153              		.code	16
 154              		.thumb_func
 155              		.type	Camera, %function
 156              	Camera:
 157              	.LFB21:
  50:.\Camera.c    **** 
  51:.\Camera.c    **** 
  52:.\Camera.c    **** /******************************************************************************
  53:.\Camera.c    **** * Constructor
  54:.\Camera.c    **** ******************************************************************************/
  55:.\Camera.c    **** void Camera(void)
  56:.\Camera.c    **** {
 158              		.loc 1 56 0
 159              		.cfi_startproc
 160 0000 80B5     		push	{r7, lr}
 161              	.LCFI3:
 162              		.cfi_def_cfa_offset 8
 163              		.cfi_offset 7, -8
 164              		.cfi_offset 14, -4
 165 0002 00AF     		add	r7, sp, #0
 166              	.LCFI4:
 167              		.cfi_def_cfa_register 7
  57:.\Camera.c    **** 	
ARM GAS  C:\Users\srvs\AppData\Local\Temp\ccZfANit.s 			page 5


  58:.\Camera.c    **** }
 168              		.loc 1 58 0
 169 0004 BD46     		mov	sp, r7
 170              		@ sp needed for prologue
 171 0006 80BD     		pop	{r7, pc}
 172              		.cfi_endproc
 173              	.LFE21:
 174              		.size	Camera, .-Camera
 175              		.section	.text.Camera_init,"ax",%progbits
 176              		.align	2
 177              		.global	Camera_init
 178              		.code	16
 179              		.thumb_func
 180              		.type	Camera_init, %function
 181              	Camera_init:
 182              	.LFB22:
  59:.\Camera.c    **** 
  60:.\Camera.c    **** /******************************************************************************
  61:.\Camera.c    **** * Public methods
  62:.\Camera.c    **** ******************************************************************************/
  63:.\Camera.c    **** // init the PVision sensor
  64:.\Camera.c    **** void Camera_init(void)
  65:.\Camera.c    **** {
 183              		.loc 1 65 0
 184              		.cfi_startproc
 185 0000 80B5     		push	{r7, lr}
 186              	.LCFI5:
 187              		.cfi_def_cfa_offset 8
 188              		.cfi_offset 7, -8
 189              		.cfi_offset 14, -4
 190 0002 00AF     		add	r7, sp, #0
 191              	.LCFI6:
 192              		.cfi_def_cfa_register 7
  66:.\Camera.c    ****     Blob1.number = 1;
 193              		.loc 1 66 0
 194 0004 254B     		ldr	r3, .L18
 195 0006 0122     		mov	r2, #1
 196 0008 1A73     		strb	r2, [r3, #12]
  67:.\Camera.c    **** 	Blob2.number = 2;
 197              		.loc 1 67 0
 198 000a 254B     		ldr	r3, .L18+4
 199 000c 0222     		mov	r2, #2
 200 000e 1A73     		strb	r2, [r3, #12]
  68:.\Camera.c    **** 	Blob3.number = 3;
 201              		.loc 1 68 0
 202 0010 244B     		ldr	r3, .L18+8
 203 0012 0322     		mov	r2, #3
 204 0014 1A73     		strb	r2, [r3, #12]
  69:.\Camera.c    **** 	Blob4.number = 4;
 205              		.loc 1 69 0
 206 0016 244B     		ldr	r3, .L18+12
 207 0018 0422     		mov	r2, #4
 208 001a 1A73     		strb	r2, [r3, #12]
  70:.\Camera.c    **** 	
  71:.\Camera.c    **** 	IRsensorAddress = 0xB0;
 209              		.loc 1 71 0
 210 001c 234A     		ldr	r2, .L18+16
ARM GAS  C:\Users\srvs\AppData\Local\Temp\ccZfANit.s 			page 6


 211 001e 5023     		mov	r3, #80
 212 0020 5B42     		neg	r3, r3
 213 0022 1370     		strb	r3, [r2]
  72:.\Camera.c    ****     IRslaveAddress = IRsensorAddress >> 1;			// This results in 0x21 as the address to pass to TWI
 214              		.loc 1 72 0
 215 0024 214B     		ldr	r3, .L18+16
 216 0026 1B78     		ldrb	r3, [r3]
 217 0028 5B08     		lsr	r3, r3, #1
 218 002a DAB2     		uxtb	r2, r3
 219 002c 204B     		ldr	r3, .L18+20
 220 002e 1A70     		strb	r2, [r3]
  73:.\Camera.c    **** 	
  74:.\Camera.c    **** 	I2CM_sda_SetDriveMode(I2CM_sda_DM_RES_UP);
 221              		.loc 1 74 0
 222 0030 0220     		mov	r0, #2
 223 0032 FFF7FEFF 		bl	I2CM_sda_SetDriveMode
  75:.\Camera.c    **** 	I2CM_scl_SetDriveMode(I2CM_scl_DM_RES_UP);
 224              		.loc 1 75 0
 225 0036 0220     		mov	r0, #2
 226 0038 FFF7FEFF 		bl	I2CM_scl_SetDriveMode
  76:.\Camera.c    **** 	
  77:.\Camera.c    ****     // IR sensor initialize
  78:.\Camera.c    ****     Write_2bytes(0x30,0x01); CyDelay(10);
 227              		.loc 1 78 0
 228 003c 3020     		mov	r0, #48
 229 003e 0121     		mov	r1, #1
 230 0040 FFF7FEFF 		bl	Write_2bytes
 231 0044 0A20     		mov	r0, #10
 232 0046 FFF7FEFF 		bl	CyDelay
  79:.\Camera.c    ****     Write_2bytes(0x30,0x08); CyDelay(10);
 233              		.loc 1 79 0
 234 004a 3020     		mov	r0, #48
 235 004c 0821     		mov	r1, #8
 236 004e FFF7FEFF 		bl	Write_2bytes
 237 0052 0A20     		mov	r0, #10
 238 0054 FFF7FEFF 		bl	CyDelay
  80:.\Camera.c    ****     Write_2bytes(0x06,0x90); CyDelay(10);
 239              		.loc 1 80 0
 240 0058 0620     		mov	r0, #6
 241 005a 9021     		mov	r1, #144
 242 005c FFF7FEFF 		bl	Write_2bytes
 243 0060 0A20     		mov	r0, #10
 244 0062 FFF7FEFF 		bl	CyDelay
  81:.\Camera.c    ****     Write_2bytes(0x08,0xC0); CyDelay(10);
 245              		.loc 1 81 0
 246 0066 0820     		mov	r0, #8
 247 0068 C021     		mov	r1, #192
 248 006a FFF7FEFF 		bl	Write_2bytes
 249 006e 0A20     		mov	r0, #10
 250 0070 FFF7FEFF 		bl	CyDelay
  82:.\Camera.c    ****     Write_2bytes(0x1A,0x40); CyDelay(10);
 251              		.loc 1 82 0
 252 0074 1A20     		mov	r0, #26
 253 0076 4021     		mov	r1, #64
 254 0078 FFF7FEFF 		bl	Write_2bytes
 255 007c 0A20     		mov	r0, #10
 256 007e FFF7FEFF 		bl	CyDelay
ARM GAS  C:\Users\srvs\AppData\Local\Temp\ccZfANit.s 			page 7


  83:.\Camera.c    ****     Write_2bytes(0x33,0x33); CyDelay(10);
 257              		.loc 1 83 0
 258 0082 3320     		mov	r0, #51
 259 0084 3321     		mov	r1, #51
 260 0086 FFF7FEFF 		bl	Write_2bytes
 261 008a 0A20     		mov	r0, #10
 262 008c FFF7FEFF 		bl	CyDelay
  84:.\Camera.c    ****     CyDelay(100);
 263              		.loc 1 84 0
 264 0090 6420     		mov	r0, #100
 265 0092 FFF7FEFF 		bl	CyDelay
  85:.\Camera.c    **** }
 266              		.loc 1 85 0
 267 0096 BD46     		mov	sp, r7
 268              		@ sp needed for prologue
 269 0098 80BD     		pop	{r7, pc}
 270              	.L19:
 271 009a C046     		.align	2
 272              	.L18:
 273 009c 00000000 		.word	Blob1
 274 00a0 00000000 		.word	Blob2
 275 00a4 00000000 		.word	Blob3
 276 00a8 00000000 		.word	Blob4
 277 00ac 00000000 		.word	IRsensorAddress
 278 00b0 00000000 		.word	IRslaveAddress
 279              		.cfi_endproc
 280              	.LFE22:
 281              		.size	Camera_init, .-Camera_init
 282              		.section	.text.Camera_read,"ax",%progbits
 283              		.align	2
 284              		.global	Camera_read
 285              		.code	16
 286              		.thumb_func
 287              		.type	Camera_read, %function
 288              	Camera_read:
 289              	.LFB23:
  86:.\Camera.c    **** 
  87:.\Camera.c    **** uint8 Camera_read(void)
  88:.\Camera.c    **** {
 290              		.loc 1 88 0
 291              		.cfi_startproc
 292 0000 90B5     		push	{r4, r7, lr}
 293              	.LCFI7:
 294              		.cfi_def_cfa_offset 12
 295              		.cfi_offset 4, -12
 296              		.cfi_offset 7, -8
 297              		.cfi_offset 14, -4
 298 0002 87B0     		sub	sp, sp, #28
 299              	.LCFI8:
 300              		.cfi_def_cfa_offset 40
 301 0004 00AF     		add	r7, sp, #0
 302              	.LCFI9:
 303              		.cfi_def_cfa_register 7
  89:.\Camera.c    ****     uint32 status = I2CM_I2C_MSTR_NO_ERROR;
 304              		.loc 1 89 0
 305 0006 0023     		mov	r3, #0
 306 0008 7B61     		str	r3, [r7, #20]
ARM GAS  C:\Users\srvs\AppData\Local\Temp\ccZfANit.s 			page 8


  90:.\Camera.c    **** 	uint8 rxdata[16] = {0};
 307              		.loc 1 90 0
 308 000a 3B1D     		add	r3, r7, #4
 309 000c 0022     		mov	r2, #0
 310 000e 1A60     		str	r2, [r3]
 311 0010 0433     		add	r3, r3, #4
 312 0012 0022     		mov	r2, #0
 313 0014 1A60     		str	r2, [r3]
 314 0016 0433     		add	r3, r3, #4
 315 0018 0022     		mov	r2, #0
 316 001a 1A60     		str	r2, [r3]
 317 001c 0433     		add	r3, r3, #4
 318 001e 0022     		mov	r2, #0
 319 0020 1A60     		str	r2, [r3]
 320 0022 0433     		add	r3, r3, #4
  91:.\Camera.c    **** 	
  92:.\Camera.c    **** 	I2CM_I2CMasterClearStatus();
 321              		.loc 1 92 0
 322 0024 FFF7FEFF 		bl	I2CM_I2CMasterClearStatus
  93:.\Camera.c    **** 	
  94:.\Camera.c    **** 	//IR sensor read
  95:.\Camera.c    ****     status = I2CM_I2CMasterSendStart(IRslaveAddress, 0);
 323              		.loc 1 95 0
 324 0028 A14B     		ldr	r3, .L35
 325 002a 1B78     		ldrb	r3, [r3]
 326 002c 181C     		mov	r0, r3
 327 002e 0021     		mov	r1, #0
 328 0030 FFF7FEFF 		bl	I2CM_I2CMasterSendStart
 329 0034 031C     		mov	r3, r0
 330 0036 7B61     		str	r3, [r7, #20]
  96:.\Camera.c    **** 	if (status != I2CM_I2C_MSTR_NO_ERROR)
 331              		.loc 1 96 0
 332 0038 7B69     		ldr	r3, [r7, #20]
 333 003a 002B     		cmp	r3, #0
 334 003c 01D0     		beq	.L21
  97:.\Camera.c    **** 	{return 0;}
 335              		.loc 1 97 0
 336 003e 0023     		mov	r3, #0
 337 0040 31E1     		b	.L22
 338              	.L21:
  98:.\Camera.c    **** 	
  99:.\Camera.c    ****     status = I2CM_I2CMasterWriteByte(0x36);
 339              		.loc 1 99 0
 340 0042 3620     		mov	r0, #54
 341 0044 FFF7FEFF 		bl	I2CM_I2CMasterWriteByte
 342 0048 031C     		mov	r3, r0
 343 004a 7B61     		str	r3, [r7, #20]
 100:.\Camera.c    **** 	if (status != I2CM_I2C_MSTR_NO_ERROR)
 344              		.loc 1 100 0
 345 004c 7B69     		ldr	r3, [r7, #20]
 346 004e 002B     		cmp	r3, #0
 347 0050 01D0     		beq	.L23
 101:.\Camera.c    **** 	{return 0;}
 348              		.loc 1 101 0
 349 0052 0023     		mov	r3, #0
 350 0054 27E1     		b	.L22
 351              	.L23:
ARM GAS  C:\Users\srvs\AppData\Local\Temp\ccZfANit.s 			page 9


 102:.\Camera.c    **** 	
 103:.\Camera.c    ****     status = I2CM_I2CMasterSendStop();
 352              		.loc 1 103 0
 353 0056 FFF7FEFF 		bl	I2CM_I2CMasterSendStop
 354 005a 031C     		mov	r3, r0
 355 005c 7B61     		str	r3, [r7, #20]
 104:.\Camera.c    **** 	if (status != I2CM_I2C_MSTR_NO_ERROR)
 356              		.loc 1 104 0
 357 005e 7B69     		ldr	r3, [r7, #20]
 358 0060 002B     		cmp	r3, #0
 359 0062 01D0     		beq	.L24
 105:.\Camera.c    **** 	{return 0;}
 360              		.loc 1 105 0
 361 0064 0023     		mov	r3, #0
 362 0066 1EE1     		b	.L22
 363              	.L24:
 106:.\Camera.c    **** 	
 107:.\Camera.c    **** 	CyDelayUs(10);
 364              		.loc 1 107 0
 365 0068 0A20     		mov	r0, #10
 366 006a FFF7FEFF 		bl	CyDelayUs
 108:.\Camera.c    **** 	
 109:.\Camera.c    **** 	status = I2CM_I2CMasterReadBuf(IRslaveAddress, &rxdata[0], 16, I2CM_I2C_MODE_COMPLETE_XFER);
 367              		.loc 1 109 0
 368 006e 904B     		ldr	r3, .L35
 369 0070 1B78     		ldrb	r3, [r3]
 370 0072 1A1C     		mov	r2, r3
 371 0074 3B1D     		add	r3, r7, #4
 372 0076 101C     		mov	r0, r2
 373 0078 191C     		mov	r1, r3
 374 007a 1022     		mov	r2, #16
 375 007c 0023     		mov	r3, #0
 376 007e FFF7FEFF 		bl	I2CM_I2CMasterReadBuf
 377 0082 031C     		mov	r3, r0
 378 0084 7B61     		str	r3, [r7, #20]
 110:.\Camera.c    **** 	if (status != I2CM_I2C_MSTR_NO_ERROR)
 379              		.loc 1 110 0
 380 0086 7B69     		ldr	r3, [r7, #20]
 381 0088 002B     		cmp	r3, #0
 382 008a 01D0     		beq	.L25
 111:.\Camera.c    **** 	{return 0;}
 383              		.loc 1 111 0
 384 008c 0023     		mov	r3, #0
 385 008e 0AE1     		b	.L22
 386              	.L25:
 112:.\Camera.c    **** 	
 113:.\Camera.c    **** 	while(I2CM_I2CMasterStatus() != I2CM_I2C_MSTAT_RD_CMPLT);
 387              		.loc 1 113 0
 388 0090 FFF7FEFF 		bl	I2CM_I2CMasterStatus
 389 0094 031C     		mov	r3, r0
 390 0096 012B     		cmp	r3, #1
 391 0098 FAD1     		bne	.L25
 114:.\Camera.c    **** 	
 115:.\Camera.c    ****     for (i=0; i<16; i++)
 392              		.loc 1 115 0
 393 009a 864B     		ldr	r3, .L35+4
 394 009c 0022     		mov	r2, #0
ARM GAS  C:\Users\srvs\AppData\Local\Temp\ccZfANit.s 			page 10


 395 009e 1A60     		str	r2, [r3]
 396 00a0 11E0     		b	.L26
 397              	.L27:
 116:.\Camera.c    ****     {
 117:.\Camera.c    **** 		data_buf[i]=0;
 398              		.loc 1 117 0
 399 00a2 844B     		ldr	r3, .L35+4
 400 00a4 1B68     		ldr	r3, [r3]
 401 00a6 844A     		ldr	r2, .L35+8
 402 00a8 0021     		mov	r1, #0
 403 00aa D154     		strb	r1, [r2, r3]
 118:.\Camera.c    **** 		data_buf[i] = rxdata[i];
 404              		.loc 1 118 0
 405 00ac 814B     		ldr	r3, .L35+4
 406 00ae 1A68     		ldr	r2, [r3]
 407 00b0 804B     		ldr	r3, .L35+4
 408 00b2 1B68     		ldr	r3, [r3]
 409 00b4 391D     		add	r1, r7, #4
 410 00b6 C95C     		ldrb	r1, [r1, r3]
 411 00b8 7F4B     		ldr	r3, .L35+8
 412 00ba 9954     		strb	r1, [r3, r2]
 413              		.loc 1 115 0
 414 00bc 7D4B     		ldr	r3, .L35+4
 415 00be 1B68     		ldr	r3, [r3]
 416 00c0 5A1C     		add	r2, r3, #1
 417 00c2 7C4B     		ldr	r3, .L35+4
 418 00c4 1A60     		str	r2, [r3]
 419              	.L26:
 420 00c6 7B4B     		ldr	r3, .L35+4
 421 00c8 1B68     		ldr	r3, [r3]
 422 00ca 0F2B     		cmp	r3, #15
 423 00cc E9DD     		ble	.L27
 119:.\Camera.c    ****     }
 120:.\Camera.c    **** 
 121:.\Camera.c    ****     blobcount = 0;
 424              		.loc 1 121 0
 425 00ce 7B4B     		ldr	r3, .L35+12
 426 00d0 0022     		mov	r2, #0
 427 00d2 1A70     		strb	r2, [r3]
 122:.\Camera.c    **** 
 123:.\Camera.c    ****     Blob1.X = data_buf[1];
 428              		.loc 1 123 0
 429 00d4 784B     		ldr	r3, .L35+8
 430 00d6 5B78     		ldrb	r3, [r3, #1]
 431 00d8 1A1C     		mov	r2, r3
 432 00da 794B     		ldr	r3, .L35+16
 433 00dc 1A60     		str	r2, [r3]
 124:.\Camera.c    ****     Blob1.Y = data_buf[2];
 434              		.loc 1 124 0
 435 00de 764B     		ldr	r3, .L35+8
 436 00e0 9B78     		ldrb	r3, [r3, #2]
 437 00e2 1A1C     		mov	r2, r3
 438 00e4 764B     		ldr	r3, .L35+16
 439 00e6 5A60     		str	r2, [r3, #4]
 125:.\Camera.c    ****     s   = data_buf[3];
 440              		.loc 1 125 0
 441 00e8 734B     		ldr	r3, .L35+8
ARM GAS  C:\Users\srvs\AppData\Local\Temp\ccZfANit.s 			page 11


 442 00ea DB78     		ldrb	r3, [r3, #3]
 443 00ec 1A1C     		mov	r2, r3
 444 00ee 754B     		ldr	r3, .L35+20
 445 00f0 1A60     		str	r2, [r3]
 126:.\Camera.c    ****     Blob1.X += (s & 0x30) <<4;
 446              		.loc 1 126 0
 447 00f2 734B     		ldr	r3, .L35+16
 448 00f4 1A68     		ldr	r2, [r3]
 449 00f6 734B     		ldr	r3, .L35+20
 450 00f8 1968     		ldr	r1, [r3]
 451 00fa 3023     		mov	r3, #48
 452 00fc 0B40     		and	r3, r3, r1
 453 00fe 1B01     		lsl	r3, r3, #4
 454 0100 D218     		add	r2, r2, r3
 455 0102 6F4B     		ldr	r3, .L35+16
 456 0104 1A60     		str	r2, [r3]
 127:.\Camera.c    ****     Blob1.Y += (s & 0xC0) <<2;
 457              		.loc 1 127 0
 458 0106 6E4B     		ldr	r3, .L35+16
 459 0108 5A68     		ldr	r2, [r3, #4]
 460 010a 6E4B     		ldr	r3, .L35+20
 461 010c 1968     		ldr	r1, [r3]
 462 010e C023     		mov	r3, #192
 463 0110 0B40     		and	r3, r3, r1
 464 0112 9B00     		lsl	r3, r3, #2
 465 0114 D218     		add	r2, r2, r3
 466 0116 6A4B     		ldr	r3, .L35+16
 467 0118 5A60     		str	r2, [r3, #4]
 128:.\Camera.c    ****     Blob1.Size = (s & 0x0F);
 468              		.loc 1 128 0
 469 011a 6A4B     		ldr	r3, .L35+20
 470 011c 1A68     		ldr	r2, [r3]
 471 011e 0F23     		mov	r3, #15
 472 0120 1A40     		and	r2, r2, r3
 473 0122 674B     		ldr	r3, .L35+16
 474 0124 9A60     		str	r2, [r3, #8]
 129:.\Camera.c    **** 
 130:.\Camera.c    ****     // At the moment we're using the size of the blob to determine if one is detected, either X,Y, 
 131:.\Camera.c    ****     blobcount |= (Blob1.Size < 15)? BLOB1 : 0;
 475              		.loc 1 131 0
 476 0126 664B     		ldr	r3, .L35+16
 477 0128 9B68     		ldr	r3, [r3, #8]
 478 012a 0E22     		mov	r2, #14
 479 012c D80F     		lsr	r0, r3, #31
 480 012e D117     		asr	r1, r2, #31
 481 0130 041C     		mov	r4, r0
 482 0132 9A42     		cmp	r2, r3
 483 0134 4C41     		adc	r4, r4, r1
 484 0136 221C     		mov	r2, r4
 485 0138 604B     		ldr	r3, .L35+12
 486 013a 1B78     		ldrb	r3, [r3]
 487 013c 1343     		orr	r3, r3, r2
 488 013e DBB2     		uxtb	r3, r3
 489 0140 DAB2     		uxtb	r2, r3
 490 0142 5E4B     		ldr	r3, .L35+12
 491 0144 1A70     		strb	r2, [r3]
 132:.\Camera.c    **** 
ARM GAS  C:\Users\srvs\AppData\Local\Temp\ccZfANit.s 			page 12


 133:.\Camera.c    ****     Blob2.X = data_buf[4];
 492              		.loc 1 133 0
 493 0146 5C4B     		ldr	r3, .L35+8
 494 0148 1B79     		ldrb	r3, [r3, #4]
 495 014a 1A1C     		mov	r2, r3
 496 014c 5E4B     		ldr	r3, .L35+24
 497 014e 1A60     		str	r2, [r3]
 134:.\Camera.c    ****     Blob2.Y = data_buf[5];
 498              		.loc 1 134 0
 499 0150 594B     		ldr	r3, .L35+8
 500 0152 5B79     		ldrb	r3, [r3, #5]
 501 0154 1A1C     		mov	r2, r3
 502 0156 5C4B     		ldr	r3, .L35+24
 503 0158 5A60     		str	r2, [r3, #4]
 135:.\Camera.c    ****     s   = data_buf[6];
 504              		.loc 1 135 0
 505 015a 574B     		ldr	r3, .L35+8
 506 015c 9B79     		ldrb	r3, [r3, #6]
 507 015e 1A1C     		mov	r2, r3
 508 0160 584B     		ldr	r3, .L35+20
 509 0162 1A60     		str	r2, [r3]
 136:.\Camera.c    ****     Blob2.X += (s & 0x30) <<4;
 510              		.loc 1 136 0
 511 0164 584B     		ldr	r3, .L35+24
 512 0166 1A68     		ldr	r2, [r3]
 513 0168 564B     		ldr	r3, .L35+20
 514 016a 1968     		ldr	r1, [r3]
 515 016c 3023     		mov	r3, #48
 516 016e 0B40     		and	r3, r3, r1
 517 0170 1B01     		lsl	r3, r3, #4
 518 0172 D218     		add	r2, r2, r3
 519 0174 544B     		ldr	r3, .L35+24
 520 0176 1A60     		str	r2, [r3]
 137:.\Camera.c    ****     Blob2.Y += (s & 0xC0) <<2;
 521              		.loc 1 137 0
 522 0178 534B     		ldr	r3, .L35+24
 523 017a 5A68     		ldr	r2, [r3, #4]
 524 017c 514B     		ldr	r3, .L35+20
 525 017e 1968     		ldr	r1, [r3]
 526 0180 C023     		mov	r3, #192
 527 0182 0B40     		and	r3, r3, r1
 528 0184 9B00     		lsl	r3, r3, #2
 529 0186 D218     		add	r2, r2, r3
 530 0188 4F4B     		ldr	r3, .L35+24
 531 018a 5A60     		str	r2, [r3, #4]
 138:.\Camera.c    ****     Blob2.Size = (s & 0x0F);
 532              		.loc 1 138 0
 533 018c 4D4B     		ldr	r3, .L35+20
 534 018e 1A68     		ldr	r2, [r3]
 535 0190 0F23     		mov	r3, #15
 536 0192 1A40     		and	r2, r2, r3
 537 0194 4C4B     		ldr	r3, .L35+24
 538 0196 9A60     		str	r2, [r3, #8]
 139:.\Camera.c    **** 
 140:.\Camera.c    ****     blobcount |= (Blob2.Size < 15)? BLOB2 : 0;
 539              		.loc 1 140 0
 540 0198 4B4B     		ldr	r3, .L35+24
ARM GAS  C:\Users\srvs\AppData\Local\Temp\ccZfANit.s 			page 13


 541 019a 9B68     		ldr	r3, [r3, #8]
 542 019c 0E2B     		cmp	r3, #14
 543 019e 01DC     		bgt	.L28
 544 01a0 0223     		mov	r3, #2
 545 01a2 00E0     		b	.L29
 546              	.L28:
 547 01a4 0023     		mov	r3, #0
 548              	.L29:
 549 01a6 454A     		ldr	r2, .L35+12
 550 01a8 1278     		ldrb	r2, [r2]
 551 01aa 111C     		mov	r1, r2
 552 01ac 1A1C     		add	r2, r3, #0
 553 01ae 0B1C     		add	r3, r1, #0
 554 01b0 1343     		orr	r3, r3, r2
 555 01b2 DBB2     		uxtb	r3, r3
 556 01b4 DAB2     		uxtb	r2, r3
 557 01b6 414B     		ldr	r3, .L35+12
 558 01b8 1A70     		strb	r2, [r3]
 141:.\Camera.c    **** 
 142:.\Camera.c    ****     Blob3.X = data_buf[7];
 559              		.loc 1 142 0
 560 01ba 3F4B     		ldr	r3, .L35+8
 561 01bc DB79     		ldrb	r3, [r3, #7]
 562 01be 1A1C     		mov	r2, r3
 563 01c0 424B     		ldr	r3, .L35+28
 564 01c2 1A60     		str	r2, [r3]
 143:.\Camera.c    ****     Blob3.Y = data_buf[8];
 565              		.loc 1 143 0
 566 01c4 3C4B     		ldr	r3, .L35+8
 567 01c6 1B7A     		ldrb	r3, [r3, #8]
 568 01c8 1A1C     		mov	r2, r3
 569 01ca 404B     		ldr	r3, .L35+28
 570 01cc 5A60     		str	r2, [r3, #4]
 144:.\Camera.c    ****     s   = data_buf[9];
 571              		.loc 1 144 0
 572 01ce 3A4B     		ldr	r3, .L35+8
 573 01d0 5B7A     		ldrb	r3, [r3, #9]
 574 01d2 1A1C     		mov	r2, r3
 575 01d4 3B4B     		ldr	r3, .L35+20
 576 01d6 1A60     		str	r2, [r3]
 145:.\Camera.c    ****     Blob3.X += (s & 0x30) <<4;
 577              		.loc 1 145 0
 578 01d8 3C4B     		ldr	r3, .L35+28
 579 01da 1A68     		ldr	r2, [r3]
 580 01dc 394B     		ldr	r3, .L35+20
 581 01de 1968     		ldr	r1, [r3]
 582 01e0 3023     		mov	r3, #48
 583 01e2 0B40     		and	r3, r3, r1
 584 01e4 1B01     		lsl	r3, r3, #4
 585 01e6 D218     		add	r2, r2, r3
 586 01e8 384B     		ldr	r3, .L35+28
 587 01ea 1A60     		str	r2, [r3]
 146:.\Camera.c    ****     Blob3.Y += (s & 0xC0) <<2;
 588              		.loc 1 146 0
 589 01ec 374B     		ldr	r3, .L35+28
 590 01ee 5A68     		ldr	r2, [r3, #4]
 591 01f0 344B     		ldr	r3, .L35+20
ARM GAS  C:\Users\srvs\AppData\Local\Temp\ccZfANit.s 			page 14


 592 01f2 1968     		ldr	r1, [r3]
 593 01f4 C023     		mov	r3, #192
 594 01f6 0B40     		and	r3, r3, r1
 595 01f8 9B00     		lsl	r3, r3, #2
 596 01fa D218     		add	r2, r2, r3
 597 01fc 334B     		ldr	r3, .L35+28
 598 01fe 5A60     		str	r2, [r3, #4]
 147:.\Camera.c    ****     Blob3.Size = (s & 0x0F);
 599              		.loc 1 147 0
 600 0200 304B     		ldr	r3, .L35+20
 601 0202 1A68     		ldr	r2, [r3]
 602 0204 0F23     		mov	r3, #15
 603 0206 1A40     		and	r2, r2, r3
 604 0208 304B     		ldr	r3, .L35+28
 605 020a 9A60     		str	r2, [r3, #8]
 148:.\Camera.c    **** 
 149:.\Camera.c    ****     blobcount |= (Blob3.Size < 15)? BLOB3 : 0;
 606              		.loc 1 149 0
 607 020c 2F4B     		ldr	r3, .L35+28
 608 020e 9B68     		ldr	r3, [r3, #8]
 609 0210 0E2B     		cmp	r3, #14
 610 0212 01DC     		bgt	.L30
 611 0214 0423     		mov	r3, #4
 612 0216 00E0     		b	.L31
 613              	.L30:
 614 0218 0023     		mov	r3, #0
 615              	.L31:
 616 021a 284A     		ldr	r2, .L35+12
 617 021c 1278     		ldrb	r2, [r2]
 618 021e 111C     		mov	r1, r2
 619 0220 1A1C     		add	r2, r3, #0
 620 0222 0B1C     		add	r3, r1, #0
 621 0224 1343     		orr	r3, r3, r2
 622 0226 DBB2     		uxtb	r3, r3
 623 0228 DAB2     		uxtb	r2, r3
 624 022a 244B     		ldr	r3, .L35+12
 625 022c 1A70     		strb	r2, [r3]
 150:.\Camera.c    **** 
 151:.\Camera.c    ****     Blob4.X = data_buf[10];
 626              		.loc 1 151 0
 627 022e 224B     		ldr	r3, .L35+8
 628 0230 9B7A     		ldrb	r3, [r3, #10]
 629 0232 1A1C     		mov	r2, r3
 630 0234 264B     		ldr	r3, .L35+32
 631 0236 1A60     		str	r2, [r3]
 152:.\Camera.c    ****     Blob4.Y = data_buf[11];
 632              		.loc 1 152 0
 633 0238 1F4B     		ldr	r3, .L35+8
 634 023a DB7A     		ldrb	r3, [r3, #11]
 635 023c 1A1C     		mov	r2, r3
 636 023e 244B     		ldr	r3, .L35+32
 637 0240 5A60     		str	r2, [r3, #4]
 153:.\Camera.c    ****     s   = data_buf[12];
 638              		.loc 1 153 0
 639 0242 1D4B     		ldr	r3, .L35+8
 640 0244 1B7B     		ldrb	r3, [r3, #12]
 641 0246 1A1C     		mov	r2, r3
ARM GAS  C:\Users\srvs\AppData\Local\Temp\ccZfANit.s 			page 15


 642 0248 1E4B     		ldr	r3, .L35+20
 643 024a 1A60     		str	r2, [r3]
 154:.\Camera.c    ****     Blob4.X += (s & 0x30) <<4;
 644              		.loc 1 154 0
 645 024c 204B     		ldr	r3, .L35+32
 646 024e 1A68     		ldr	r2, [r3]
 647 0250 1C4B     		ldr	r3, .L35+20
 648 0252 1968     		ldr	r1, [r3]
 649 0254 3023     		mov	r3, #48
 650 0256 0B40     		and	r3, r3, r1
 651 0258 1B01     		lsl	r3, r3, #4
 652 025a D218     		add	r2, r2, r3
 653 025c 1C4B     		ldr	r3, .L35+32
 654 025e 1A60     		str	r2, [r3]
 155:.\Camera.c    ****     Blob4.Y += (s & 0xC0) <<2;
 655              		.loc 1 155 0
 656 0260 1B4B     		ldr	r3, .L35+32
 657 0262 5A68     		ldr	r2, [r3, #4]
 658 0264 174B     		ldr	r3, .L35+20
 659 0266 1968     		ldr	r1, [r3]
 660 0268 C023     		mov	r3, #192
 661 026a 0B40     		and	r3, r3, r1
 662 026c 9B00     		lsl	r3, r3, #2
 663 026e D218     		add	r2, r2, r3
 664 0270 174B     		ldr	r3, .L35+32
 665 0272 5A60     		str	r2, [r3, #4]
 156:.\Camera.c    ****     Blob4.Size = (s & 0x0F);
 666              		.loc 1 156 0
 667 0274 134B     		ldr	r3, .L35+20
 668 0276 1A68     		ldr	r2, [r3]
 669 0278 0F23     		mov	r3, #15
 670 027a 1A40     		and	r2, r2, r3
 671 027c 144B     		ldr	r3, .L35+32
 672 027e 9A60     		str	r2, [r3, #8]
 157:.\Camera.c    **** 
 158:.\Camera.c    ****     blobcount |= (Blob4.Size < 15)? BLOB4 : 0;
 673              		.loc 1 158 0
 674 0280 134B     		ldr	r3, .L35+32
 675 0282 9B68     		ldr	r3, [r3, #8]
 676 0284 0E2B     		cmp	r3, #14
 677 0286 01DC     		bgt	.L32
 678 0288 0823     		mov	r3, #8
 679 028a 00E0     		b	.L33
 680              	.L32:
 681 028c 0023     		mov	r3, #0
 682              	.L33:
 683 028e 0B4A     		ldr	r2, .L35+12
 684 0290 1278     		ldrb	r2, [r2]
 685 0292 111C     		mov	r1, r2
 686 0294 1A1C     		add	r2, r3, #0
 687 0296 0B1C     		add	r3, r1, #0
 688 0298 1343     		orr	r3, r3, r2
 689 029a DBB2     		uxtb	r3, r3
 690 029c DAB2     		uxtb	r2, r3
 691 029e 074B     		ldr	r3, .L35+12
 692 02a0 1A70     		strb	r2, [r3]
 159:.\Camera.c    **** 
ARM GAS  C:\Users\srvs\AppData\Local\Temp\ccZfANit.s 			page 16


 160:.\Camera.c    ****     return blobcount;
 693              		.loc 1 160 0
 694 02a2 064B     		ldr	r3, .L35+12
 695 02a4 1B78     		ldrb	r3, [r3]
 696              	.L22:
 161:.\Camera.c    **** }
 697              		.loc 1 161 0
 698 02a6 181C     		mov	r0, r3
 699 02a8 BD46     		mov	sp, r7
 700 02aa 07B0     		add	sp, sp, #28
 701              		@ sp needed for prologue
 702 02ac 90BD     		pop	{r4, r7, pc}
 703              	.L36:
 704 02ae C046     		.align	2
 705              	.L35:
 706 02b0 00000000 		.word	IRslaveAddress
 707 02b4 00000000 		.word	i
 708 02b8 00000000 		.word	data_buf
 709 02bc 00000000 		.word	blobcount
 710 02c0 00000000 		.word	Blob1
 711 02c4 00000000 		.word	s
 712 02c8 00000000 		.word	Blob2
 713 02cc 00000000 		.word	Blob3
 714 02d0 00000000 		.word	Blob4
 715              		.cfi_endproc
 716              	.LFE23:
 717              		.size	Camera_read, .-Camera_read
 718              		.text
 719              	.Letext0: