ARM GAS  C:\Users\srvs\AppData\Local\Temp\cciuIGSG.s 			page 1


   1              		.cpu cortex-m0
   2              		.fpu softvfp
   3              		.eabi_attribute 20, 1
   4              		.eabi_attribute 21, 1
   5              		.eabi_attribute 23, 3
   6              		.eabi_attribute 24, 1
   7              		.eabi_attribute 25, 1
   8              		.eabi_attribute 26, 1
   9              		.eabi_attribute 30, 6
  10              		.eabi_attribute 18, 4
  11              		.code	16
  12              		.file	"CLOCK.c"
  19 0000 C1000000 		.text
  19      02005E00 
  19      00000201 
  19      FB0E0D00 
  19      01010101 
  20              	.Ltext0:
  21              		.cfi_sections	.debug_frame
  22              		.section	.text.CLOCK_Write,"ax",%progbits
  23              		.align	2
  24              		.global	CLOCK_Write
  25              		.code	16
  26              		.thumb_func
  27              		.type	CLOCK_Write, %function
  28              	CLOCK_Write:
  29              	.LFB0:
  30              		.file 1 ".\\Generated_Source\\PSoC4\\CLOCK.c"
   1:.\Generated_Source\PSoC4/CLOCK.c **** /*******************************************************************************
   2:.\Generated_Source\PSoC4/CLOCK.c **** * File Name: CLOCK.c  
   3:.\Generated_Source\PSoC4/CLOCK.c **** * Version 1.90
   4:.\Generated_Source\PSoC4/CLOCK.c **** *
   5:.\Generated_Source\PSoC4/CLOCK.c **** * Description:
   6:.\Generated_Source\PSoC4/CLOCK.c **** *  This file contains API to enable firmware control of a Pins component.
   7:.\Generated_Source\PSoC4/CLOCK.c **** *
   8:.\Generated_Source\PSoC4/CLOCK.c **** * Note:
   9:.\Generated_Source\PSoC4/CLOCK.c **** *
  10:.\Generated_Source\PSoC4/CLOCK.c **** ********************************************************************************
  11:.\Generated_Source\PSoC4/CLOCK.c **** * Copyright 2008-2012, Cypress Semiconductor Corporation.  All rights reserved.
  12:.\Generated_Source\PSoC4/CLOCK.c **** * You may use this file only in accordance with the license, terms, conditions, 
  13:.\Generated_Source\PSoC4/CLOCK.c **** * disclaimers, and limitations in the end user license agreement accompanying 
  14:.\Generated_Source\PSoC4/CLOCK.c **** * the software package with which this file was provided.
  15:.\Generated_Source\PSoC4/CLOCK.c **** *******************************************************************************/
  16:.\Generated_Source\PSoC4/CLOCK.c **** 
  17:.\Generated_Source\PSoC4/CLOCK.c **** #include "cytypes.h"
  18:.\Generated_Source\PSoC4/CLOCK.c **** #include "CLOCK.h"
  19:.\Generated_Source\PSoC4/CLOCK.c **** 
  20:.\Generated_Source\PSoC4/CLOCK.c **** #define SetP4PinDriveMode(shift, mode)  \
  21:.\Generated_Source\PSoC4/CLOCK.c ****     do { \
  22:.\Generated_Source\PSoC4/CLOCK.c ****         CLOCK_PC =   (CLOCK_PC & \
  23:.\Generated_Source\PSoC4/CLOCK.c ****                                 (uint32)(~(uint32)(CLOCK_DRIVE_MODE_IND_MASK << (CLOCK_DRIVE_MODE_B
ARM GAS  C:\Users\srvs\AppData\Local\Temp\cciuIGSG.s 			page 2


  24:.\Generated_Source\PSoC4/CLOCK.c ****                                 (uint32)((uint32)(mode) << (CLOCK_DRIVE_MODE_BITS * (shift))); \
  25:.\Generated_Source\PSoC4/CLOCK.c ****     } while (0)
  26:.\Generated_Source\PSoC4/CLOCK.c **** 
  27:.\Generated_Source\PSoC4/CLOCK.c **** 
  28:.\Generated_Source\PSoC4/CLOCK.c **** /*******************************************************************************
  29:.\Generated_Source\PSoC4/CLOCK.c **** * Function Name: CLOCK_Write
  30:.\Generated_Source\PSoC4/CLOCK.c **** ********************************************************************************
  31:.\Generated_Source\PSoC4/CLOCK.c **** *
  32:.\Generated_Source\PSoC4/CLOCK.c **** * Summary:
  33:.\Generated_Source\PSoC4/CLOCK.c **** *  Assign a new value to the digital port's data output register.  
  34:.\Generated_Source\PSoC4/CLOCK.c **** *
  35:.\Generated_Source\PSoC4/CLOCK.c **** * Parameters:  
  36:.\Generated_Source\PSoC4/CLOCK.c **** *  prtValue:  The value to be assigned to the Digital Port. 
  37:.\Generated_Source\PSoC4/CLOCK.c **** *
  38:.\Generated_Source\PSoC4/CLOCK.c **** * Return: 
  39:.\Generated_Source\PSoC4/CLOCK.c **** *  None 
  40:.\Generated_Source\PSoC4/CLOCK.c **** *  
  41:.\Generated_Source\PSoC4/CLOCK.c **** *******************************************************************************/
  42:.\Generated_Source\PSoC4/CLOCK.c **** void CLOCK_Write(uint8 value) 
  43:.\Generated_Source\PSoC4/CLOCK.c **** {
  31              		.loc 1 43 0
  32              		.cfi_startproc
  33 0000 80B5     		push	{r7, lr}
  34              	.LCFI0:
  35              		.cfi_def_cfa_offset 8
  36              		.cfi_offset 7, -8
  37              		.cfi_offset 14, -4
  38 0002 84B0     		sub	sp, sp, #16
  39              	.LCFI1:
  40              		.cfi_def_cfa_offset 24
  41 0004 00AF     		add	r7, sp, #0
  42              	.LCFI2:
  43              		.cfi_def_cfa_register 7
  44 0006 021C     		mov	r2, r0
  45 0008 FB1D     		add	r3, r7, #7
  46 000a 1A70     		strb	r2, [r3]
  44:.\Generated_Source\PSoC4/CLOCK.c ****     uint8 drVal = (uint8)(CLOCK_DR & (uint8)(~CLOCK_MASK));
  47              		.loc 1 44 0
  48 000c 0D4B     		ldr	r3, .L3
  49 000e 1B68     		ldr	r3, [r3]
  50 0010 D9B2     		uxtb	r1, r3
  51 0012 3B1C     		mov	r3, r7
  52 0014 0F33     		add	r3, r3, #15
  53 0016 7F22     		mov	r2, #127
  54 0018 0A40     		and	r2, r2, r1
  55 001a 1A70     		strb	r2, [r3]
  45:.\Generated_Source\PSoC4/CLOCK.c ****     drVal = (drVal | ((uint8)(value << CLOCK_SHIFT) & CLOCK_MASK));
  56              		.loc 1 45 0
  57 001c FB1D     		add	r3, r7, #7
  58 001e 1B78     		ldrb	r3, [r3]
  59 0020 DB01     		lsl	r3, r3, #7
  60 0022 D9B2     		uxtb	r1, r3
  61 0024 3B1C     		mov	r3, r7
  62 0026 0F33     		add	r3, r3, #15
  63 0028 3A1C     		mov	r2, r7
  64 002a 0F32     		add	r2, r2, #15
  65 002c 1278     		ldrb	r2, [r2]
ARM GAS  C:\Users\srvs\AppData\Local\Temp\cciuIGSG.s 			page 3


  66 002e 0A43     		orr	r2, r2, r1
  67 0030 1A70     		strb	r2, [r3]
  46:.\Generated_Source\PSoC4/CLOCK.c ****     CLOCK_DR = (uint32)drVal;
  68              		.loc 1 46 0
  69 0032 044B     		ldr	r3, .L3
  70 0034 3A1C     		mov	r2, r7
  71 0036 0F32     		add	r2, r2, #15
  72 0038 1278     		ldrb	r2, [r2]
  73 003a 1A60     		str	r2, [r3]
  47:.\Generated_Source\PSoC4/CLOCK.c **** }
  74              		.loc 1 47 0
  75 003c BD46     		mov	sp, r7
  76 003e 04B0     		add	sp, sp, #16
  77              		@ sp needed for prologue
  78 0040 80BD     		pop	{r7, pc}
  79              	.L4:
  80 0042 C046     		.align	2
  81              	.L3:
  82 0044 00020440 		.word	1074004480
  83              		.cfi_endproc
  84              	.LFE0:
  85              		.size	CLOCK_Write, .-CLOCK_Write
  86              		.section	.text.CLOCK_SetDriveMode,"ax",%progbits
  87              		.align	2
  88              		.global	CLOCK_SetDriveMode
  89              		.code	16
  90              		.thumb_func
  91              		.type	CLOCK_SetDriveMode, %function
  92              	CLOCK_SetDriveMode:
  93              	.LFB1:
  48:.\Generated_Source\PSoC4/CLOCK.c **** 
  49:.\Generated_Source\PSoC4/CLOCK.c **** 
  50:.\Generated_Source\PSoC4/CLOCK.c **** /*******************************************************************************
  51:.\Generated_Source\PSoC4/CLOCK.c **** * Function Name: CLOCK_SetDriveMode
  52:.\Generated_Source\PSoC4/CLOCK.c **** ********************************************************************************
  53:.\Generated_Source\PSoC4/CLOCK.c **** *
  54:.\Generated_Source\PSoC4/CLOCK.c **** * Summary:
  55:.\Generated_Source\PSoC4/CLOCK.c **** *  Change the drive mode on the pins of the port.
  56:.\Generated_Source\PSoC4/CLOCK.c **** * 
  57:.\Generated_Source\PSoC4/CLOCK.c **** * Parameters:  
  58:.\Generated_Source\PSoC4/CLOCK.c **** *  mode:  Change the pins to this drive mode.
  59:.\Generated_Source\PSoC4/CLOCK.c **** *
  60:.\Generated_Source\PSoC4/CLOCK.c **** * Return: 
  61:.\Generated_Source\PSoC4/CLOCK.c **** *  None
  62:.\Generated_Source\PSoC4/CLOCK.c **** *
  63:.\Generated_Source\PSoC4/CLOCK.c **** *******************************************************************************/
  64:.\Generated_Source\PSoC4/CLOCK.c **** void CLOCK_SetDriveMode(uint8 mode) 
  65:.\Generated_Source\PSoC4/CLOCK.c **** {
  94              		.loc 1 65 0
  95              		.cfi_startproc
  96 0000 80B5     		push	{r7, lr}
  97              	.LCFI3:
  98              		.cfi_def_cfa_offset 8
  99              		.cfi_offset 7, -8
 100              		.cfi_offset 14, -4
 101 0002 82B0     		sub	sp, sp, #8
 102              	.LCFI4:
ARM GAS  C:\Users\srvs\AppData\Local\Temp\cciuIGSG.s 			page 4


 103              		.cfi_def_cfa_offset 16
 104 0004 00AF     		add	r7, sp, #0
 105              	.LCFI5:
 106              		.cfi_def_cfa_register 7
 107 0006 021C     		mov	r2, r0
 108 0008 FB1D     		add	r3, r7, #7
 109 000a 1A70     		strb	r2, [r3]
  66:.\Generated_Source\PSoC4/CLOCK.c **** 	SetP4PinDriveMode(CLOCK__0__SHIFT, mode);
 110              		.loc 1 66 0
 111 000c 064B     		ldr	r3, .L7
 112 000e 064A     		ldr	r2, .L7
 113 0010 1168     		ldr	r1, [r2]
 114 0012 064A     		ldr	r2, .L7+4
 115 0014 1140     		and	r1, r1, r2
 116 0016 FA1D     		add	r2, r7, #7
 117 0018 1278     		ldrb	r2, [r2]
 118 001a 5205     		lsl	r2, r2, #21
 119 001c 0A43     		orr	r2, r2, r1
 120 001e 1A60     		str	r2, [r3]
  67:.\Generated_Source\PSoC4/CLOCK.c **** }
 121              		.loc 1 67 0
 122 0020 BD46     		mov	sp, r7
 123 0022 02B0     		add	sp, sp, #8
 124              		@ sp needed for prologue
 125 0024 80BD     		pop	{r7, pc}
 126              	.L8:
 127 0026 C046     		.align	2
 128              	.L7:
 129 0028 08020440 		.word	1074004488
 130 002c FFFF1FFF 		.word	-14680065
 131              		.cfi_endproc
 132              	.LFE1:
 133              		.size	CLOCK_SetDriveMode, .-CLOCK_SetDriveMode
 134              		.section	.text.CLOCK_Read,"ax",%progbits
 135              		.align	2
 136              		.global	CLOCK_Read
 137              		.code	16
 138              		.thumb_func
 139              		.type	CLOCK_Read, %function
 140              	CLOCK_Read:
 141              	.LFB2:
  68:.\Generated_Source\PSoC4/CLOCK.c **** 
  69:.\Generated_Source\PSoC4/CLOCK.c **** 
  70:.\Generated_Source\PSoC4/CLOCK.c **** /*******************************************************************************
  71:.\Generated_Source\PSoC4/CLOCK.c **** * Function Name: CLOCK_Read
  72:.\Generated_Source\PSoC4/CLOCK.c **** ********************************************************************************
  73:.\Generated_Source\PSoC4/CLOCK.c **** *
  74:.\Generated_Source\PSoC4/CLOCK.c **** * Summary:
  75:.\Generated_Source\PSoC4/CLOCK.c **** *  Read the current value on the pins of the Digital Port in right justified 
  76:.\Generated_Source\PSoC4/CLOCK.c **** *  form.
  77:.\Generated_Source\PSoC4/CLOCK.c **** *
  78:.\Generated_Source\PSoC4/CLOCK.c **** * Parameters:  
  79:.\Generated_Source\PSoC4/CLOCK.c **** *  None 
  80:.\Generated_Source\PSoC4/CLOCK.c **** *
  81:.\Generated_Source\PSoC4/CLOCK.c **** * Return: 
  82:.\Generated_Source\PSoC4/CLOCK.c **** *  Returns the current value of the Digital Port as a right justified number
  83:.\Generated_Source\PSoC4/CLOCK.c **** *  
ARM GAS  C:\Users\srvs\AppData\Local\Temp\cciuIGSG.s 			page 5


  84:.\Generated_Source\PSoC4/CLOCK.c **** * Note:
  85:.\Generated_Source\PSoC4/CLOCK.c **** *  Macro CLOCK_ReadPS calls this function. 
  86:.\Generated_Source\PSoC4/CLOCK.c **** *  
  87:.\Generated_Source\PSoC4/CLOCK.c **** *******************************************************************************/
  88:.\Generated_Source\PSoC4/CLOCK.c **** uint8 CLOCK_Read(void) 
  89:.\Generated_Source\PSoC4/CLOCK.c **** {
 142              		.loc 1 89 0
 143              		.cfi_startproc
 144 0000 80B5     		push	{r7, lr}
 145              	.LCFI6:
 146              		.cfi_def_cfa_offset 8
 147              		.cfi_offset 7, -8
 148              		.cfi_offset 14, -4
 149 0002 00AF     		add	r7, sp, #0
 150              	.LCFI7:
 151              		.cfi_def_cfa_register 7
  90:.\Generated_Source\PSoC4/CLOCK.c ****     return (uint8)((CLOCK_PS & CLOCK_MASK) >> CLOCK_SHIFT);
 152              		.loc 1 90 0
 153 0004 044B     		ldr	r3, .L11
 154 0006 1A68     		ldr	r2, [r3]
 155 0008 8023     		mov	r3, #128
 156 000a 1340     		and	r3, r3, r2
 157 000c DB09     		lsr	r3, r3, #7
 158 000e DBB2     		uxtb	r3, r3
  91:.\Generated_Source\PSoC4/CLOCK.c **** }
 159              		.loc 1 91 0
 160 0010 181C     		mov	r0, r3
 161 0012 BD46     		mov	sp, r7
 162              		@ sp needed for prologue
 163 0014 80BD     		pop	{r7, pc}
 164              	.L12:
 165 0016 C046     		.align	2
 166              	.L11:
 167 0018 04020440 		.word	1074004484
 168              		.cfi_endproc
 169              	.LFE2:
 170              		.size	CLOCK_Read, .-CLOCK_Read
 171              		.section	.text.CLOCK_ReadDataReg,"ax",%progbits
 172              		.align	2
 173              		.global	CLOCK_ReadDataReg
 174              		.code	16
 175              		.thumb_func
 176              		.type	CLOCK_ReadDataReg, %function
 177              	CLOCK_ReadDataReg:
 178              	.LFB3:
  92:.\Generated_Source\PSoC4/CLOCK.c **** 
  93:.\Generated_Source\PSoC4/CLOCK.c **** 
  94:.\Generated_Source\PSoC4/CLOCK.c **** /*******************************************************************************
  95:.\Generated_Source\PSoC4/CLOCK.c **** * Function Name: CLOCK_ReadDataReg
  96:.\Generated_Source\PSoC4/CLOCK.c **** ********************************************************************************
  97:.\Generated_Source\PSoC4/CLOCK.c **** *
  98:.\Generated_Source\PSoC4/CLOCK.c **** * Summary:
  99:.\Generated_Source\PSoC4/CLOCK.c **** *  Read the current value assigned to a Digital Port's data output register
 100:.\Generated_Source\PSoC4/CLOCK.c **** *
 101:.\Generated_Source\PSoC4/CLOCK.c **** * Parameters:  
 102:.\Generated_Source\PSoC4/CLOCK.c **** *  None 
 103:.\Generated_Source\PSoC4/CLOCK.c **** *
ARM GAS  C:\Users\srvs\AppData\Local\Temp\cciuIGSG.s 			page 6


 104:.\Generated_Source\PSoC4/CLOCK.c **** * Return: 
 105:.\Generated_Source\PSoC4/CLOCK.c **** *  Returns the current value assigned to the Digital Port's data output register
 106:.\Generated_Source\PSoC4/CLOCK.c **** *  
 107:.\Generated_Source\PSoC4/CLOCK.c **** *******************************************************************************/
 108:.\Generated_Source\PSoC4/CLOCK.c **** uint8 CLOCK_ReadDataReg(void) 
 109:.\Generated_Source\PSoC4/CLOCK.c **** {
 179              		.loc 1 109 0
 180              		.cfi_startproc
 181 0000 80B5     		push	{r7, lr}
 182              	.LCFI8:
 183              		.cfi_def_cfa_offset 8
 184              		.cfi_offset 7, -8
 185              		.cfi_offset 14, -4
 186 0002 00AF     		add	r7, sp, #0
 187              	.LCFI9:
 188              		.cfi_def_cfa_register 7
 110:.\Generated_Source\PSoC4/CLOCK.c ****     return (uint8)((CLOCK_DR & CLOCK_MASK) >> CLOCK_SHIFT);
 189              		.loc 1 110 0
 190 0004 044B     		ldr	r3, .L15
 191 0006 1A68     		ldr	r2, [r3]
 192 0008 8023     		mov	r3, #128
 193 000a 1340     		and	r3, r3, r2
 194 000c DB09     		lsr	r3, r3, #7
 195 000e DBB2     		uxtb	r3, r3
 111:.\Generated_Source\PSoC4/CLOCK.c **** }
 196              		.loc 1 111 0
 197 0010 181C     		mov	r0, r3
 198 0012 BD46     		mov	sp, r7
 199              		@ sp needed for prologue
 200 0014 80BD     		pop	{r7, pc}
 201              	.L16:
 202 0016 C046     		.align	2
 203              	.L15:
 204 0018 00020440 		.word	1074004480
 205              		.cfi_endproc
 206              	.LFE3:
 207              		.size	CLOCK_ReadDataReg, .-CLOCK_ReadDataReg
 208              		.section	.text.CLOCK_ClearInterrupt,"ax",%progbits
 209              		.align	2
 210              		.global	CLOCK_ClearInterrupt
 211              		.code	16
 212              		.thumb_func
 213              		.type	CLOCK_ClearInterrupt, %function
 214              	CLOCK_ClearInterrupt:
 215              	.LFB4:
 112:.\Generated_Source\PSoC4/CLOCK.c **** 
 113:.\Generated_Source\PSoC4/CLOCK.c **** 
 114:.\Generated_Source\PSoC4/CLOCK.c **** /* If Interrupts Are Enabled for this Pins component */ 
 115:.\Generated_Source\PSoC4/CLOCK.c **** #if defined(CLOCK_INTSTAT) 
 116:.\Generated_Source\PSoC4/CLOCK.c **** 
 117:.\Generated_Source\PSoC4/CLOCK.c ****     /*******************************************************************************
 118:.\Generated_Source\PSoC4/CLOCK.c ****     * Function Name: CLOCK_ClearInterrupt
 119:.\Generated_Source\PSoC4/CLOCK.c ****     ********************************************************************************
 120:.\Generated_Source\PSoC4/CLOCK.c ****     *
 121:.\Generated_Source\PSoC4/CLOCK.c ****     * Summary:
 122:.\Generated_Source\PSoC4/CLOCK.c ****     *  Clears any active interrupts attached to port and returns the value of the 
 123:.\Generated_Source\PSoC4/CLOCK.c ****     *  interrupt status register.
ARM GAS  C:\Users\srvs\AppData\Local\Temp\cciuIGSG.s 			page 7


 124:.\Generated_Source\PSoC4/CLOCK.c ****     *
 125:.\Generated_Source\PSoC4/CLOCK.c ****     * Parameters:  
 126:.\Generated_Source\PSoC4/CLOCK.c ****     *  None 
 127:.\Generated_Source\PSoC4/CLOCK.c ****     *
 128:.\Generated_Source\PSoC4/CLOCK.c ****     * Return: 
 129:.\Generated_Source\PSoC4/CLOCK.c ****     *  Returns the value of the interrupt status register
 130:.\Generated_Source\PSoC4/CLOCK.c ****     *  
 131:.\Generated_Source\PSoC4/CLOCK.c ****     *******************************************************************************/
 132:.\Generated_Source\PSoC4/CLOCK.c ****     uint8 CLOCK_ClearInterrupt(void) 
 133:.\Generated_Source\PSoC4/CLOCK.c ****     {
 216              		.loc 1 133 0
 217              		.cfi_startproc
 218 0000 80B5     		push	{r7, lr}
 219              	.LCFI10:
 220              		.cfi_def_cfa_offset 8
 221              		.cfi_offset 7, -8
 222              		.cfi_offset 14, -4
 223 0002 82B0     		sub	sp, sp, #8
 224              	.LCFI11:
 225              		.cfi_def_cfa_offset 16
 226 0004 00AF     		add	r7, sp, #0
 227              	.LCFI12:
 228              		.cfi_def_cfa_register 7
 134:.\Generated_Source\PSoC4/CLOCK.c **** 		uint8 maskedStatus = (uint8)(CLOCK_INTSTAT & CLOCK_MASK);
 229              		.loc 1 134 0
 230 0006 094B     		ldr	r3, .L19
 231 0008 1B68     		ldr	r3, [r3]
 232 000a DAB2     		uxtb	r2, r3
 233 000c FB1D     		add	r3, r7, #7
 234 000e 7F21     		mov	r1, #127
 235 0010 8A43     		bic	r2, r2, r1
 236 0012 1A70     		strb	r2, [r3]
 135:.\Generated_Source\PSoC4/CLOCK.c **** 		CLOCK_INTSTAT = maskedStatus;
 237              		.loc 1 135 0
 238 0014 054B     		ldr	r3, .L19
 239 0016 FA1D     		add	r2, r7, #7
 240 0018 1278     		ldrb	r2, [r2]
 241 001a 1A60     		str	r2, [r3]
 136:.\Generated_Source\PSoC4/CLOCK.c ****         return maskedStatus >> CLOCK_SHIFT;
 242              		.loc 1 136 0
 243 001c FB1D     		add	r3, r7, #7
 244 001e 1B78     		ldrb	r3, [r3]
 245 0020 DB09     		lsr	r3, r3, #7
 246 0022 DBB2     		uxtb	r3, r3
 137:.\Generated_Source\PSoC4/CLOCK.c ****     }
 247              		.loc 1 137 0
 248 0024 181C     		mov	r0, r3
 249 0026 BD46     		mov	sp, r7
 250 0028 02B0     		add	sp, sp, #8
 251              		@ sp needed for prologue
 252 002a 80BD     		pop	{r7, pc}
 253              	.L20:
 254              		.align	2
 255              	.L19:
 256 002c 10020440 		.word	1074004496
 257              		.cfi_endproc
 258              	.LFE4:
ARM GAS  C:\Users\srvs\AppData\Local\Temp\cciuIGSG.s 			page 8


 259              		.size	CLOCK_ClearInterrupt, .-CLOCK_ClearInterrupt
 260              		.text
 261              	.Letext0: