ARM GAS  C:\Users\srvs\AppData\Local\Temp\cc5vvGHT.s 			page 1


   1              		.cpu cortex-m0
   2              		.fpu softvfp
   3              		.eabi_attribute 20, 1
   4              		.eabi_attribute 21, 1
   5              		.eabi_attribute 23, 3
   6              		.eabi_attribute 24, 1
   7              		.eabi_attribute 25, 1
   8              		.eabi_attribute 26, 1
   9              		.eabi_attribute 30, 6
  10              		.eabi_attribute 18, 4
  11              		.code	16
  12              		.file	"I2CM_I2C_MASTER.c"
  13              		.section	.debug_abbrev,"",%progbits
  14              	.Ldebug_abbrev0:
  15              		.section	.debug_info,"",%progbits
  16              	.Ldebug_info0:
  17              		.section	.debug_line,"",%progbits
  18              	.Ldebug_line0:
  19 0000 4A020000 		.text
  19      02007A00 
  19      00000201 
  19      FB0E0D00 
  19      01010101 
  20              	.Ltext0:
  21              		.cfi_sections	.debug_frame
  22              		.comm	I2CM_mstrStatus,2,2
  23              		.comm	I2CM_mstrControl,1,1
  24              		.comm	I2CM_mstrRdBufPtr,4,4
  25              		.comm	I2CM_mstrRdBufSize,4,4
  26              		.comm	I2CM_mstrRdBufIndex,4,4
  27              		.comm	I2CM_mstrWrBufPtr,4,4
  28              		.comm	I2CM_mstrWrBufSize,4,4
  29              		.comm	I2CM_mstrWrBufIndex,4,4
  30              		.comm	I2CM_mstrWrBufIndexTmp,4,4
  31              		.section	.text.I2CM_I2CMasterWriteBuf,"ax",%progbits
  32              		.align	2
  33              		.global	I2CM_I2CMasterWriteBuf
  34              		.code	16
  35              		.thumb_func
  36              		.type	I2CM_I2CMasterWriteBuf, %function
  37              	I2CM_I2CMasterWriteBuf:
  38              	.LFB0:
  39              		.file 1 ".\\Generated_Source\\PSoC4\\I2CM_I2C_MASTER.c"
   1:.\Generated_Source\PSoC4/I2CM_I2C_MASTER.c **** /*******************************************************************************
   2:.\Generated_Source\PSoC4/I2CM_I2C_MASTER.c **** * File Name: I2CM_I2C_MASTER.c
   3:.\Generated_Source\PSoC4/I2CM_I2C_MASTER.c **** * Version 1.0
   4:.\Generated_Source\PSoC4/I2CM_I2C_MASTER.c **** *
   5:.\Generated_Source\PSoC4/I2CM_I2C_MASTER.c **** * Description:
   6:.\Generated_Source\PSoC4/I2CM_I2C_MASTER.c **** *  This file provides the source code to the API for the SCB Component in
   7:.\Generated_Source\PSoC4/I2CM_I2C_MASTER.c **** *  I2C Master mode.
   8:.\Generated_Source\PSoC4/I2CM_I2C_MASTER.c **** *
   9:.\Generated_Source\PSoC4/I2CM_I2C_MASTER.c **** * Note:
  10:.\Generated_Source\PSoC4/I2CM_I2C_MASTER.c **** *
  11:.\Generated_Source\PSoC4/I2CM_I2C_MASTER.c **** *******************************************************************************
  12:.\Generated_Source\PSoC4/I2CM_I2C_MASTER.c **** * Copyright 2013, Cypress Semiconductor Corporation.  All rights reserved.
  13:.\Generated_Source\PSoC4/I2CM_I2C_MASTER.c **** * You may use this file only in accordance with the license, terms, conditions,
  14:.\Generated_Source\PSoC4/I2CM_I2C_MASTER.c **** * disclaimers, and limitations in the end user license agreement accompanying
ARM GAS  C:\Users\srvs\AppData\Local\Temp\cc5vvGHT.s 			page 2


  15:.\Generated_Source\PSoC4/I2CM_I2C_MASTER.c **** * the software package with which this file was provided.
  16:.\Generated_Source\PSoC4/I2CM_I2C_MASTER.c **** *******************************************************************************/
  17:.\Generated_Source\PSoC4/I2CM_I2C_MASTER.c **** 
  18:.\Generated_Source\PSoC4/I2CM_I2C_MASTER.c **** #include "I2CM_PVT.h"
  19:.\Generated_Source\PSoC4/I2CM_I2C_MASTER.c **** #include "I2CM_I2C_PVT.h"
  20:.\Generated_Source\PSoC4/I2CM_I2C_MASTER.c **** 
  21:.\Generated_Source\PSoC4/I2CM_I2C_MASTER.c **** #if(I2CM_I2C_MASTER_CONST)
  22:.\Generated_Source\PSoC4/I2CM_I2C_MASTER.c **** 
  23:.\Generated_Source\PSoC4/I2CM_I2C_MASTER.c **** /***************************************
  24:.\Generated_Source\PSoC4/I2CM_I2C_MASTER.c **** *      I2C Master Private Vars
  25:.\Generated_Source\PSoC4/I2CM_I2C_MASTER.c **** ***************************************/
  26:.\Generated_Source\PSoC4/I2CM_I2C_MASTER.c **** 
  27:.\Generated_Source\PSoC4/I2CM_I2C_MASTER.c **** /* Master variables */
  28:.\Generated_Source\PSoC4/I2CM_I2C_MASTER.c **** volatile uint16 I2CM_mstrStatus;      /* Master Status byte  */
  29:.\Generated_Source\PSoC4/I2CM_I2C_MASTER.c **** volatile uint8  I2CM_mstrControl;     /* Master Control byte */
  30:.\Generated_Source\PSoC4/I2CM_I2C_MASTER.c **** 
  31:.\Generated_Source\PSoC4/I2CM_I2C_MASTER.c **** /* Receive buffer variables */
  32:.\Generated_Source\PSoC4/I2CM_I2C_MASTER.c **** volatile uint8 * I2CM_mstrRdBufPtr;   /* Pointer to Master Read buffer */
  33:.\Generated_Source\PSoC4/I2CM_I2C_MASTER.c **** volatile uint32  I2CM_mstrRdBufSize;  /* Master Read buffer size       */
  34:.\Generated_Source\PSoC4/I2CM_I2C_MASTER.c **** volatile uint32  I2CM_mstrRdBufIndex; /* Master Read buffer Index      */
  35:.\Generated_Source\PSoC4/I2CM_I2C_MASTER.c **** 
  36:.\Generated_Source\PSoC4/I2CM_I2C_MASTER.c **** /* Transmit buffer variables */
  37:.\Generated_Source\PSoC4/I2CM_I2C_MASTER.c **** volatile uint8 * I2CM_mstrWrBufPtr;   /* Pointer to Master Write buffer */
  38:.\Generated_Source\PSoC4/I2CM_I2C_MASTER.c **** volatile uint32  I2CM_mstrWrBufSize;  /* Master Write buffer size       */
  39:.\Generated_Source\PSoC4/I2CM_I2C_MASTER.c **** volatile uint32  I2CM_mstrWrBufIndex; /* Master Write buffer Index      */
  40:.\Generated_Source\PSoC4/I2CM_I2C_MASTER.c **** volatile uint32  I2CM_mstrWrBufIndexTmp; /* Master Write buffer Index Tmp */
  41:.\Generated_Source\PSoC4/I2CM_I2C_MASTER.c **** 
  42:.\Generated_Source\PSoC4/I2CM_I2C_MASTER.c **** 
  43:.\Generated_Source\PSoC4/I2CM_I2C_MASTER.c **** /*******************************************************************************
  44:.\Generated_Source\PSoC4/I2CM_I2C_MASTER.c **** * Function Name: I2CM_I2CMasterWriteBuf
  45:.\Generated_Source\PSoC4/I2CM_I2C_MASTER.c **** ********************************************************************************
  46:.\Generated_Source\PSoC4/I2CM_I2C_MASTER.c **** *
  47:.\Generated_Source\PSoC4/I2CM_I2C_MASTER.c **** * Summary:
  48:.\Generated_Source\PSoC4/I2CM_I2C_MASTER.c **** *  Automatically writes an entire buffer of data to a slave device. Once the
  49:.\Generated_Source\PSoC4/I2CM_I2C_MASTER.c **** *  data transfer is initiated by this function, further data transfer is handled
  50:.\Generated_Source\PSoC4/I2CM_I2C_MASTER.c **** *  by the included ISR in byte by byte mode.
  51:.\Generated_Source\PSoC4/I2CM_I2C_MASTER.c **** *
  52:.\Generated_Source\PSoC4/I2CM_I2C_MASTER.c **** * Parameters:
  53:.\Generated_Source\PSoC4/I2CM_I2C_MASTER.c **** *  slaveAddr: 7-bit slave address.
  54:.\Generated_Source\PSoC4/I2CM_I2C_MASTER.c **** *  xferData:  Pointer to buffer of data to be sent.
  55:.\Generated_Source\PSoC4/I2CM_I2C_MASTER.c **** *  cnt:       Size of buffer to send.
  56:.\Generated_Source\PSoC4/I2CM_I2C_MASTER.c **** *  mode:      Transfer mode defines: start or restart condition generation at
  57:.\Generated_Source\PSoC4/I2CM_I2C_MASTER.c **** *             begin of the transfer and complete the transfer or halt before
  58:.\Generated_Source\PSoC4/I2CM_I2C_MASTER.c **** *             generating a stop.
  59:.\Generated_Source\PSoC4/I2CM_I2C_MASTER.c **** *
  60:.\Generated_Source\PSoC4/I2CM_I2C_MASTER.c **** * Return:
  61:.\Generated_Source\PSoC4/I2CM_I2C_MASTER.c **** *  Status error - zero means no errors.
  62:.\Generated_Source\PSoC4/I2CM_I2C_MASTER.c **** *
  63:.\Generated_Source\PSoC4/I2CM_I2C_MASTER.c **** * Global variables:
  64:.\Generated_Source\PSoC4/I2CM_I2C_MASTER.c **** *  I2CM_mstrStatus  - used to store current status of I2C Master.
  65:.\Generated_Source\PSoC4/I2CM_I2C_MASTER.c **** *  I2CM_state       - used to store current state of software FSM.
  66:.\Generated_Source\PSoC4/I2CM_I2C_MASTER.c **** *  I2CM_mstrControl - used to control master end of transaction with
  67:.\Generated_Source\PSoC4/I2CM_I2C_MASTER.c **** *  or without the Stop generation.
  68:.\Generated_Source\PSoC4/I2CM_I2C_MASTER.c **** *  I2CM_mstrWrBufPtr - used to store pointer to master write buffer.
  69:.\Generated_Source\PSoC4/I2CM_I2C_MASTER.c **** *  I2CM_mstrWrBufIndex - used to current index within master write
  70:.\Generated_Source\PSoC4/I2CM_I2C_MASTER.c **** *  buffer.
  71:.\Generated_Source\PSoC4/I2CM_I2C_MASTER.c **** *  I2CM_mstrWrBufSize - used to store master write buffer size.
ARM GAS  C:\Users\srvs\AppData\Local\Temp\cc5vvGHT.s 			page 3


  72:.\Generated_Source\PSoC4/I2CM_I2C_MASTER.c **** *
  73:.\Generated_Source\PSoC4/I2CM_I2C_MASTER.c **** *******************************************************************************/
  74:.\Generated_Source\PSoC4/I2CM_I2C_MASTER.c **** uint32 I2CM_I2CMasterWriteBuf(uint32 slaveAddress, uint8 * wrData, uint32 cnt, uint32 mode)
  75:.\Generated_Source\PSoC4/I2CM_I2C_MASTER.c **** {
  40              		.loc 1 75 0
  41              		.cfi_startproc
  42 0000 80B5     		push	{r7, lr}
  43              	.LCFI0:
  44              		.cfi_def_cfa_offset 8
  45              		.cfi_offset 7, -8
  46              		.cfi_offset 14, -4
  47 0002 86B0     		sub	sp, sp, #24
  48              	.LCFI1:
  49              		.cfi_def_cfa_offset 32
  50 0004 00AF     		add	r7, sp, #0
  51              	.LCFI2:
  52              		.cfi_def_cfa_register 7
  53 0006 F860     		str	r0, [r7, #12]
  54 0008 B960     		str	r1, [r7, #8]
  55 000a 7A60     		str	r2, [r7, #4]
  56 000c 3B60     		str	r3, [r7]
  76:.\Generated_Source\PSoC4/I2CM_I2C_MASTER.c ****     uint32 errStatus;
  77:.\Generated_Source\PSoC4/I2CM_I2C_MASTER.c **** 
  78:.\Generated_Source\PSoC4/I2CM_I2C_MASTER.c ****     errStatus = I2CM_I2C_MSTR_NOT_READY;
  57              		.loc 1 78 0
  58 000e 0423     		mov	r3, #4
  59 0010 7B61     		str	r3, [r7, #20]
  79:.\Generated_Source\PSoC4/I2CM_I2C_MASTER.c **** 
  80:.\Generated_Source\PSoC4/I2CM_I2C_MASTER.c ****     if(NULL != wrData)  /* Check buffer pointer */
  60              		.loc 1 80 0
  61 0012 BB68     		ldr	r3, [r7, #8]
  62 0014 002B     		cmp	r3, #0
  63 0016 21D0     		beq	.L2
  81:.\Generated_Source\PSoC4/I2CM_I2C_MASTER.c ****     {
  82:.\Generated_Source\PSoC4/I2CM_I2C_MASTER.c ****         /* Check FSM state and bus before generate Start/ReStart condition */
  83:.\Generated_Source\PSoC4/I2CM_I2C_MASTER.c ****         if(I2CM_CHECK_I2C_FSM_IDLE)
  64              		.loc 1 83 0
  65 0018 324B     		ldr	r3, .L10
  66 001a 1B78     		ldrb	r3, [r3]
  67 001c DBB2     		uxtb	r3, r3
  68 001e 102B     		cmp	r3, #16
  69 0020 0ED1     		bne	.L3
  84:.\Generated_Source\PSoC4/I2CM_I2C_MASTER.c ****         {
  85:.\Generated_Source\PSoC4/I2CM_I2C_MASTER.c ****             I2CM_SCB_IRQ_Disable();
  70              		.loc 1 85 0
  71 0022 FFF7FEFF 		bl	I2CM_SCB_IRQ_Disable
  86:.\Generated_Source\PSoC4/I2CM_I2C_MASTER.c **** 
  87:.\Generated_Source\PSoC4/I2CM_I2C_MASTER.c ****             /* Check the bus state */
  88:.\Generated_Source\PSoC4/I2CM_I2C_MASTER.c ****             errStatus = I2CM_CHECK_I2C_STATUS(I2CM_I2C_STATUS_BUS_BUSY) ?
  72              		.loc 1 88 0
  73 0026 304B     		ldr	r3, .L10+4
  74 0028 1B68     		ldr	r3, [r3]
  75 002a 1A1C     		mov	r2, r3
  76 002c 0123     		mov	r3, #1
  77 002e 1340     		and	r3, r3, r2
  78 0030 DBB2     		uxtb	r3, r3
  79 0032 002B     		cmp	r3, #0
ARM GAS  C:\Users\srvs\AppData\Local\Temp\cc5vvGHT.s 			page 4


  80 0034 01D0     		beq	.L4
  81 0036 0823     		mov	r3, #8
  82 0038 00E0     		b	.L5
  83              	.L4:
  84 003a 0023     		mov	r3, #0
  85              	.L5:
  86 003c 7B61     		str	r3, [r7, #20]
  87 003e 0DE0     		b	.L2
  88              	.L3:
  89:.\Generated_Source\PSoC4/I2CM_I2C_MASTER.c ****                             I2CM_I2C_MSTR_BUS_BUSY : I2CM_I2C_MSTR_NO_ERROR;
  90:.\Generated_Source\PSoC4/I2CM_I2C_MASTER.c ****         }
  91:.\Generated_Source\PSoC4/I2CM_I2C_MASTER.c ****         else if(I2CM_CHECK_I2C_FSM_HALT)
  89              		.loc 1 91 0
  90 0040 284B     		ldr	r3, .L10
  91 0042 1B78     		ldrb	r3, [r3]
  92 0044 DBB2     		uxtb	r3, r3
  93 0046 602B     		cmp	r3, #96
  94 0048 08D1     		bne	.L2
  92:.\Generated_Source\PSoC4/I2CM_I2C_MASTER.c ****         {
  93:.\Generated_Source\PSoC4/I2CM_I2C_MASTER.c ****             I2CM_mstrStatus &= (uint16) ~I2CM_I2C_MSTAT_XFER_HALT;
  95              		.loc 1 93 0
  96 004a 284B     		ldr	r3, .L10+8
  97 004c 1B88     		ldrh	r3, [r3]
  98 004e 9BB2     		uxth	r3, r3
  99 0050 274A     		ldr	r2, .L10+12
 100 0052 1340     		and	r3, r3, r2
 101 0054 254A     		ldr	r2, .L10+8
 102 0056 1380     		strh	r3, [r2]
  94:.\Generated_Source\PSoC4/I2CM_I2C_MASTER.c ****                               errStatus  = I2CM_I2C_MSTR_NO_ERROR;
 103              		.loc 1 94 0
 104 0058 0023     		mov	r3, #0
 105 005a 7B61     		str	r3, [r7, #20]
 106              	.L2:
  95:.\Generated_Source\PSoC4/I2CM_I2C_MASTER.c ****         }
  96:.\Generated_Source\PSoC4/I2CM_I2C_MASTER.c ****         else
  97:.\Generated_Source\PSoC4/I2CM_I2C_MASTER.c ****         {
  98:.\Generated_Source\PSoC4/I2CM_I2C_MASTER.c ****             /* Unexpected FSM state: exit */
  99:.\Generated_Source\PSoC4/I2CM_I2C_MASTER.c ****         }
 100:.\Generated_Source\PSoC4/I2CM_I2C_MASTER.c ****     }
 101:.\Generated_Source\PSoC4/I2CM_I2C_MASTER.c **** 
 102:.\Generated_Source\PSoC4/I2CM_I2C_MASTER.c **** 
 103:.\Generated_Source\PSoC4/I2CM_I2C_MASTER.c ****     /* Check if the Master is ready to start  */
 104:.\Generated_Source\PSoC4/I2CM_I2C_MASTER.c ****     if(I2CM_I2C_MSTR_NO_ERROR == errStatus) /* No error proceed */
 107              		.loc 1 104 0
 108 005c 7B69     		ldr	r3, [r7, #20]
 109 005e 002B     		cmp	r3, #0
 110 0060 39D1     		bne	.L6
 105:.\Generated_Source\PSoC4/I2CM_I2C_MASTER.c ****     {
 106:.\Generated_Source\PSoC4/I2CM_I2C_MASTER.c ****         /* Setup write transcation */
 107:.\Generated_Source\PSoC4/I2CM_I2C_MASTER.c ****         I2CM_state = I2CM_I2C_FSM_MSTR_WR_ADDR;
 111              		.loc 1 107 0
 112 0062 204B     		ldr	r3, .L10
 113 0064 2822     		mov	r2, #40
 114 0066 1A70     		strb	r2, [r3]
 108:.\Generated_Source\PSoC4/I2CM_I2C_MASTER.c ****         I2CM_mstrWrBufIndexTmp = 0u;
 115              		.loc 1 108 0
 116 0068 224B     		ldr	r3, .L10+16
ARM GAS  C:\Users\srvs\AppData\Local\Temp\cc5vvGHT.s 			page 5


 117 006a 0022     		mov	r2, #0
 118 006c 1A60     		str	r2, [r3]
 109:.\Generated_Source\PSoC4/I2CM_I2C_MASTER.c ****         I2CM_mstrWrBufIndex    = 0u;
 119              		.loc 1 109 0
 120 006e 224B     		ldr	r3, .L10+20
 121 0070 0022     		mov	r2, #0
 122 0072 1A60     		str	r2, [r3]
 110:.\Generated_Source\PSoC4/I2CM_I2C_MASTER.c ****         I2CM_mstrWrBufSize     = cnt;
 123              		.loc 1 110 0
 124 0074 214B     		ldr	r3, .L10+24
 125 0076 7A68     		ldr	r2, [r7, #4]
 126 0078 1A60     		str	r2, [r3]
 111:.\Generated_Source\PSoC4/I2CM_I2C_MASTER.c ****         I2CM_mstrWrBufPtr      = (volatile uint8 *) wrData;
 127              		.loc 1 111 0
 128 007a BA68     		ldr	r2, [r7, #8]
 129 007c 204B     		ldr	r3, .L10+28
 130 007e 1A60     		str	r2, [r3]
 112:.\Generated_Source\PSoC4/I2CM_I2C_MASTER.c ****         I2CM_mstrControl       = (uint8) mode;
 131              		.loc 1 112 0
 132 0080 3B68     		ldr	r3, [r7]
 133 0082 DAB2     		uxtb	r2, r3
 134 0084 1F4B     		ldr	r3, .L10+32
 135 0086 1A70     		strb	r2, [r3]
 113:.\Generated_Source\PSoC4/I2CM_I2C_MASTER.c **** 
 114:.\Generated_Source\PSoC4/I2CM_I2C_MASTER.c ****         slaveAddress = I2CM_GET_I2C_8BIT_ADDRESS(slaveAddress);
 136              		.loc 1 114 0
 137 0088 FB68     		ldr	r3, [r7, #12]
 138 008a 5A00     		lsl	r2, r3, #1
 139 008c FF23     		mov	r3, #255
 140 008e 1340     		and	r3, r3, r2
 141 0090 FB60     		str	r3, [r7, #12]
 115:.\Generated_Source\PSoC4/I2CM_I2C_MASTER.c **** 
 116:.\Generated_Source\PSoC4/I2CM_I2C_MASTER.c ****         I2CM_mstrStatus &= (uint16) ~I2CM_I2C_MSTAT_WR_CMPLT;
 142              		.loc 1 116 0
 143 0092 164B     		ldr	r3, .L10+8
 144 0094 1B88     		ldrh	r3, [r3]
 145 0096 9BB2     		uxth	r3, r3
 146 0098 1B4A     		ldr	r2, .L10+36
 147 009a 1340     		and	r3, r3, r2
 148 009c 134A     		ldr	r2, .L10+8
 149 009e 1380     		strh	r3, [r2]
 117:.\Generated_Source\PSoC4/I2CM_I2C_MASTER.c **** 
 118:.\Generated_Source\PSoC4/I2CM_I2C_MASTER.c ****         I2CM_ClearMasterInterruptSource(I2CM_INTR_MASTER_ALL);
 150              		.loc 1 118 0
 151 00a0 1A4B     		ldr	r3, .L10+40
 152 00a2 1B4A     		ldr	r2, .L10+44
 153 00a4 1A60     		str	r2, [r3]
 119:.\Generated_Source\PSoC4/I2CM_I2C_MASTER.c ****         I2CM_ClearTxInterruptSource(I2CM_INTR_TX_UNDERFLOW);
 154              		.loc 1 119 0
 155 00a6 1B4B     		ldr	r3, .L10+48
 156 00a8 4022     		mov	r2, #64
 157 00aa 1A60     		str	r2, [r3]
 120:.\Generated_Source\PSoC4/I2CM_I2C_MASTER.c ****         /* The TX and RX FIFO have to be EMPTY */
 121:.\Generated_Source\PSoC4/I2CM_I2C_MASTER.c **** 
 122:.\Generated_Source\PSoC4/I2CM_I2C_MASTER.c ****         /* Generate Start or ReStart */
 123:.\Generated_Source\PSoC4/I2CM_I2C_MASTER.c ****         if(I2CM_CHECK_I2C_MODE_RESTART(mode))
 158              		.loc 1 123 0
ARM GAS  C:\Users\srvs\AppData\Local\Temp\cc5vvGHT.s 			page 6


 159 00ac 3A68     		ldr	r2, [r7]
 160 00ae 0123     		mov	r3, #1
 161 00b0 1340     		and	r3, r3, r2
 162 00b2 DBB2     		uxtb	r3, r3
 163 00b4 002B     		cmp	r3, #0
 164 00b6 05D0     		beq	.L7
 124:.\Generated_Source\PSoC4/I2CM_I2C_MASTER.c ****         {
 125:.\Generated_Source\PSoC4/I2CM_I2C_MASTER.c ****             I2CM_I2C_MASTER_GENERATE_RESTART;
 165              		.loc 1 125 0
 166 00b8 FFF7FEFF 		bl	I2CM_I2CReStartGeneration
 126:.\Generated_Source\PSoC4/I2CM_I2C_MASTER.c ****             I2CM_TX_FIFO_WR_REG = slaveAddress;
 167              		.loc 1 126 0
 168 00bc 164B     		ldr	r3, .L10+52
 169 00be FA68     		ldr	r2, [r7, #12]
 170 00c0 1A60     		str	r2, [r3]
 171 00c2 05E0     		b	.L8
 172              	.L7:
 127:.\Generated_Source\PSoC4/I2CM_I2C_MASTER.c ****         }
 128:.\Generated_Source\PSoC4/I2CM_I2C_MASTER.c ****         else
 129:.\Generated_Source\PSoC4/I2CM_I2C_MASTER.c ****         {
 130:.\Generated_Source\PSoC4/I2CM_I2C_MASTER.c ****             I2CM_TX_FIFO_WR_REG = slaveAddress;
 173              		.loc 1 130 0
 174 00c4 144B     		ldr	r3, .L10+52
 175 00c6 FA68     		ldr	r2, [r7, #12]
 176 00c8 1A60     		str	r2, [r3]
 131:.\Generated_Source\PSoC4/I2CM_I2C_MASTER.c ****             I2CM_I2C_MASTER_GENERATE_START;
 177              		.loc 1 131 0
 178 00ca 144B     		ldr	r3, .L10+56
 179 00cc 0222     		mov	r2, #2
 180 00ce 1A60     		str	r2, [r3]
 181              	.L8:
 132:.\Generated_Source\PSoC4/I2CM_I2C_MASTER.c ****         }
 133:.\Generated_Source\PSoC4/I2CM_I2C_MASTER.c **** 
 134:.\Generated_Source\PSoC4/I2CM_I2C_MASTER.c ****          /* Catch when address will be sent */
 135:.\Generated_Source\PSoC4/I2CM_I2C_MASTER.c ****         I2CM_SetTxInterruptMode(I2CM_INTR_TX_UNDERFLOW);
 182              		.loc 1 135 0
 183 00d0 134B     		ldr	r3, .L10+60
 184 00d2 4022     		mov	r2, #64
 185 00d4 1A60     		str	r2, [r3]
 186              	.L6:
 136:.\Generated_Source\PSoC4/I2CM_I2C_MASTER.c ****     }
 137:.\Generated_Source\PSoC4/I2CM_I2C_MASTER.c **** 
 138:.\Generated_Source\PSoC4/I2CM_I2C_MASTER.c ****     I2CM_SCB_IRQ_Enable();
 187              		.loc 1 138 0
 188 00d6 FFF7FEFF 		bl	I2CM_SCB_IRQ_Enable
 139:.\Generated_Source\PSoC4/I2CM_I2C_MASTER.c **** 
 140:.\Generated_Source\PSoC4/I2CM_I2C_MASTER.c ****     return(errStatus);
 189              		.loc 1 140 0
 190 00da 7B69     		ldr	r3, [r7, #20]
 141:.\Generated_Source\PSoC4/I2CM_I2C_MASTER.c **** }
 191              		.loc 1 141 0
 192 00dc 181C     		mov	r0, r3
 193 00de BD46     		mov	sp, r7
 194 00e0 06B0     		add	sp, sp, #24
 195              		@ sp needed for prologue
 196 00e2 80BD     		pop	{r7, pc}
 197              	.L11:
ARM GAS  C:\Users\srvs\AppData\Local\Temp\cc5vvGHT.s 			page 7


 198              		.align	2
 199              	.L10:
 200 00e4 00000000 		.word	I2CM_state
 201 00e8 64000740 		.word	1074200676
 202 00ec 00000000 		.word	I2CM_mstrStatus
 203 00f0 F7FF0000 		.word	65527
 204 00f4 00000000 		.word	I2CM_mstrWrBufIndexTmp
 205 00f8 00000000 		.word	I2CM_mstrWrBufIndex
 206 00fc 00000000 		.word	I2CM_mstrWrBufSize
 207 0100 00000000 		.word	I2CM_mstrWrBufPtr
 208 0104 00000000 		.word	I2CM_mstrControl
 209 0108 FDFF0000 		.word	65533
 210 010c 000F0740 		.word	1074204416
 211 0110 17030000 		.word	791
 212 0114 800F0740 		.word	1074204544
 213 0118 40020740 		.word	1074201152
 214 011c 68000740 		.word	1074200680
 215 0120 880F0740 		.word	1074204552
 216              		.cfi_endproc
 217              	.LFE0:
 218              		.size	I2CM_I2CMasterWriteBuf, .-I2CM_I2CMasterWriteBuf
 219              		.section	.text.I2CM_I2CMasterReadBuf,"ax",%progbits
 220              		.align	2
 221              		.global	I2CM_I2CMasterReadBuf
 222              		.code	16
 223              		.thumb_func
 224              		.type	I2CM_I2CMasterReadBuf, %function
 225              	I2CM_I2CMasterReadBuf:
 226              	.LFB1:
 142:.\Generated_Source\PSoC4/I2CM_I2C_MASTER.c **** 
 143:.\Generated_Source\PSoC4/I2CM_I2C_MASTER.c **** 
 144:.\Generated_Source\PSoC4/I2CM_I2C_MASTER.c **** /*******************************************************************************
 145:.\Generated_Source\PSoC4/I2CM_I2C_MASTER.c **** * Function Name: I2CM_I2CMasterReadBuf
 146:.\Generated_Source\PSoC4/I2CM_I2C_MASTER.c **** ********************************************************************************
 147:.\Generated_Source\PSoC4/I2CM_I2C_MASTER.c **** *
 148:.\Generated_Source\PSoC4/I2CM_I2C_MASTER.c **** * Summary:
 149:.\Generated_Source\PSoC4/I2CM_I2C_MASTER.c **** *  Automatically writes an entire buffer of data to a slave device. Once the
 150:.\Generated_Source\PSoC4/I2CM_I2C_MASTER.c **** *  data transfer is initiated by this function, further data transfer is handled
 151:.\Generated_Source\PSoC4/I2CM_I2C_MASTER.c **** *  by the included ISR in byte by byte mode.
 152:.\Generated_Source\PSoC4/I2CM_I2C_MASTER.c **** *
 153:.\Generated_Source\PSoC4/I2CM_I2C_MASTER.c **** * Parameters:
 154:.\Generated_Source\PSoC4/I2CM_I2C_MASTER.c **** *  slaveAddr: 7-bit slave address.
 155:.\Generated_Source\PSoC4/I2CM_I2C_MASTER.c **** *  xferData:  Pointer to buffer where to put data from slave.
 156:.\Generated_Source\PSoC4/I2CM_I2C_MASTER.c **** *  cnt:       Size of buffer to read.
 157:.\Generated_Source\PSoC4/I2CM_I2C_MASTER.c **** *  mode:      Transfer mode defines: start or restart condition generation at
 158:.\Generated_Source\PSoC4/I2CM_I2C_MASTER.c **** *             begin of the transfer and complete the transfer or halt before
 159:.\Generated_Source\PSoC4/I2CM_I2C_MASTER.c **** *             generating a stop.
 160:.\Generated_Source\PSoC4/I2CM_I2C_MASTER.c **** *
 161:.\Generated_Source\PSoC4/I2CM_I2C_MASTER.c **** * Return:
 162:.\Generated_Source\PSoC4/I2CM_I2C_MASTER.c **** *  Status error - zero means no errors.
 163:.\Generated_Source\PSoC4/I2CM_I2C_MASTER.c **** *
 164:.\Generated_Source\PSoC4/I2CM_I2C_MASTER.c **** * Global variables:
 165:.\Generated_Source\PSoC4/I2CM_I2C_MASTER.c **** *  I2CM_mstrStatus  - used to store current status of I2C Master.
 166:.\Generated_Source\PSoC4/I2CM_I2C_MASTER.c **** *  I2CM_state       - used to store current state of software FSM.
 167:.\Generated_Source\PSoC4/I2CM_I2C_MASTER.c **** *  I2CM_mstrControl - used to control master end of transaction with
 168:.\Generated_Source\PSoC4/I2CM_I2C_MASTER.c **** *  or without the Stop generation.
 169:.\Generated_Source\PSoC4/I2CM_I2C_MASTER.c **** *  I2CM_mstrRdBufPtr - used to store pointer to master write buffer.
ARM GAS  C:\Users\srvs\AppData\Local\Temp\cc5vvGHT.s 			page 8


 170:.\Generated_Source\PSoC4/I2CM_I2C_MASTER.c **** *  I2CM_mstrRdBufIndex - used to current index within master write
 171:.\Generated_Source\PSoC4/I2CM_I2C_MASTER.c **** *  buffer.
 172:.\Generated_Source\PSoC4/I2CM_I2C_MASTER.c **** *  I2CM_mstrRdBufSize - used to store master write buffer size.
 173:.\Generated_Source\PSoC4/I2CM_I2C_MASTER.c **** *
 174:.\Generated_Source\PSoC4/I2CM_I2C_MASTER.c **** *******************************************************************************/
 175:.\Generated_Source\PSoC4/I2CM_I2C_MASTER.c **** uint32 I2CM_I2CMasterReadBuf(uint32 slaveAddress, uint8 * rdData, uint32 cnt, uint32 mode)
 176:.\Generated_Source\PSoC4/I2CM_I2C_MASTER.c **** {
 227              		.loc 1 176 0
 228              		.cfi_startproc
 229 0000 80B5     		push	{r7, lr}
 230              	.LCFI3:
 231              		.cfi_def_cfa_offset 8
 232              		.cfi_offset 7, -8
 233              		.cfi_offset 14, -4
 234 0002 86B0     		sub	sp, sp, #24
 235              	.LCFI4:
 236              		.cfi_def_cfa_offset 32
 237 0004 00AF     		add	r7, sp, #0
 238              	.LCFI5:
 239              		.cfi_def_cfa_register 7
 240 0006 F860     		str	r0, [r7, #12]
 241 0008 B960     		str	r1, [r7, #8]
 242 000a 7A60     		str	r2, [r7, #4]
 243 000c 3B60     		str	r3, [r7]
 177:.\Generated_Source\PSoC4/I2CM_I2C_MASTER.c ****     uint32 errStatus;
 178:.\Generated_Source\PSoC4/I2CM_I2C_MASTER.c **** 
 179:.\Generated_Source\PSoC4/I2CM_I2C_MASTER.c ****     errStatus = I2CM_I2C_MSTR_NOT_READY;
 244              		.loc 1 179 0
 245 000e 0423     		mov	r3, #4
 246 0010 7B61     		str	r3, [r7, #20]
 180:.\Generated_Source\PSoC4/I2CM_I2C_MASTER.c **** 
 181:.\Generated_Source\PSoC4/I2CM_I2C_MASTER.c ****     if(NULL != rdData)
 247              		.loc 1 181 0
 248 0012 BB68     		ldr	r3, [r7, #8]
 249 0014 002B     		cmp	r3, #0
 250 0016 21D0     		beq	.L13
 182:.\Generated_Source\PSoC4/I2CM_I2C_MASTER.c ****     {
 183:.\Generated_Source\PSoC4/I2CM_I2C_MASTER.c ****         /* Check FSM state and bus before generate Start/ReStart condition */
 184:.\Generated_Source\PSoC4/I2CM_I2C_MASTER.c ****         if(I2CM_CHECK_I2C_FSM_IDLE)
 251              		.loc 1 184 0
 252 0018 384B     		ldr	r3, .L22
 253 001a 1B78     		ldrb	r3, [r3]
 254 001c DBB2     		uxtb	r3, r3
 255 001e 102B     		cmp	r3, #16
 256 0020 0ED1     		bne	.L14
 185:.\Generated_Source\PSoC4/I2CM_I2C_MASTER.c ****         {
 186:.\Generated_Source\PSoC4/I2CM_I2C_MASTER.c ****             I2CM_SCB_IRQ_Disable();
 257              		.loc 1 186 0
 258 0022 FFF7FEFF 		bl	I2CM_SCB_IRQ_Disable
 187:.\Generated_Source\PSoC4/I2CM_I2C_MASTER.c **** 
 188:.\Generated_Source\PSoC4/I2CM_I2C_MASTER.c ****             /* Check the bus state */
 189:.\Generated_Source\PSoC4/I2CM_I2C_MASTER.c ****             errStatus = I2CM_CHECK_I2C_STATUS(I2CM_I2C_STATUS_BUS_BUSY) ?
 259              		.loc 1 189 0
 260 0026 364B     		ldr	r3, .L22+4
 261 0028 1B68     		ldr	r3, [r3]
 262 002a 1A1C     		mov	r2, r3
 263 002c 0123     		mov	r3, #1
ARM GAS  C:\Users\srvs\AppData\Local\Temp\cc5vvGHT.s 			page 9


 264 002e 1340     		and	r3, r3, r2
 265 0030 DBB2     		uxtb	r3, r3
 266 0032 002B     		cmp	r3, #0
 267 0034 01D0     		beq	.L15
 268 0036 0823     		mov	r3, #8
 269 0038 00E0     		b	.L16
 270              	.L15:
 271 003a 0023     		mov	r3, #0
 272              	.L16:
 273 003c 7B61     		str	r3, [r7, #20]
 274 003e 0DE0     		b	.L13
 275              	.L14:
 190:.\Generated_Source\PSoC4/I2CM_I2C_MASTER.c ****                             I2CM_I2C_MSTR_BUS_BUSY : I2CM_I2C_MSTR_NO_ERROR;
 191:.\Generated_Source\PSoC4/I2CM_I2C_MASTER.c ****         }
 192:.\Generated_Source\PSoC4/I2CM_I2C_MASTER.c ****         else if(I2CM_CHECK_I2C_FSM_HALT)
 276              		.loc 1 192 0
 277 0040 2E4B     		ldr	r3, .L22
 278 0042 1B78     		ldrb	r3, [r3]
 279 0044 DBB2     		uxtb	r3, r3
 280 0046 602B     		cmp	r3, #96
 281 0048 08D1     		bne	.L13
 193:.\Generated_Source\PSoC4/I2CM_I2C_MASTER.c ****         {
 194:.\Generated_Source\PSoC4/I2CM_I2C_MASTER.c ****             I2CM_mstrStatus &= (uint16) ~I2CM_I2C_MSTAT_XFER_HALT;
 282              		.loc 1 194 0
 283 004a 2E4B     		ldr	r3, .L22+8
 284 004c 1B88     		ldrh	r3, [r3]
 285 004e 9BB2     		uxth	r3, r3
 286 0050 2D4A     		ldr	r2, .L22+12
 287 0052 1340     		and	r3, r3, r2
 288 0054 2B4A     		ldr	r2, .L22+8
 289 0056 1380     		strh	r3, [r2]
 195:.\Generated_Source\PSoC4/I2CM_I2C_MASTER.c ****                               errStatus  =  I2CM_I2C_MSTR_NO_ERROR;
 290              		.loc 1 195 0
 291 0058 0023     		mov	r3, #0
 292 005a 7B61     		str	r3, [r7, #20]
 293              	.L13:
 196:.\Generated_Source\PSoC4/I2CM_I2C_MASTER.c ****         }
 197:.\Generated_Source\PSoC4/I2CM_I2C_MASTER.c ****         else
 198:.\Generated_Source\PSoC4/I2CM_I2C_MASTER.c ****         {
 199:.\Generated_Source\PSoC4/I2CM_I2C_MASTER.c ****             /* Unexpected FSM state: exit */
 200:.\Generated_Source\PSoC4/I2CM_I2C_MASTER.c ****         }
 201:.\Generated_Source\PSoC4/I2CM_I2C_MASTER.c ****     }
 202:.\Generated_Source\PSoC4/I2CM_I2C_MASTER.c **** 
 203:.\Generated_Source\PSoC4/I2CM_I2C_MASTER.c ****     /* Check the Master ready to proceed */
 204:.\Generated_Source\PSoC4/I2CM_I2C_MASTER.c ****     if(I2CM_I2C_MSTR_NO_ERROR == errStatus) /* No error proceed */
 294              		.loc 1 204 0
 295 005c 7B69     		ldr	r3, [r7, #20]
 296 005e 002B     		cmp	r3, #0
 297 0060 44D1     		bne	.L17
 205:.\Generated_Source\PSoC4/I2CM_I2C_MASTER.c ****     {
 206:.\Generated_Source\PSoC4/I2CM_I2C_MASTER.c ****         /* Setup read transfer */
 207:.\Generated_Source\PSoC4/I2CM_I2C_MASTER.c ****         I2CM_state = I2CM_I2C_FSM_MSTR_RD_ADDR;
 298              		.loc 1 207 0
 299 0062 264B     		ldr	r3, .L22
 300 0064 2922     		mov	r2, #41
 301 0066 1A70     		strb	r2, [r3]
 208:.\Generated_Source\PSoC4/I2CM_I2C_MASTER.c ****         I2CM_mstrRdBufIndex = 0u;
ARM GAS  C:\Users\srvs\AppData\Local\Temp\cc5vvGHT.s 			page 10


 302              		.loc 1 208 0
 303 0068 284B     		ldr	r3, .L22+16
 304 006a 0022     		mov	r2, #0
 305 006c 1A60     		str	r2, [r3]
 209:.\Generated_Source\PSoC4/I2CM_I2C_MASTER.c ****         I2CM_mstrRdBufSize  = cnt;
 306              		.loc 1 209 0
 307 006e 284B     		ldr	r3, .L22+20
 308 0070 7A68     		ldr	r2, [r7, #4]
 309 0072 1A60     		str	r2, [r3]
 210:.\Generated_Source\PSoC4/I2CM_I2C_MASTER.c ****         I2CM_mstrRdBufPtr   = (volatile uint8 *) rdData;
 310              		.loc 1 210 0
 311 0074 BA68     		ldr	r2, [r7, #8]
 312 0076 274B     		ldr	r3, .L22+24
 313 0078 1A60     		str	r2, [r3]
 211:.\Generated_Source\PSoC4/I2CM_I2C_MASTER.c ****         I2CM_mstrControl    = (uint8) mode;
 314              		.loc 1 211 0
 315 007a 3B68     		ldr	r3, [r7]
 316 007c DAB2     		uxtb	r2, r3
 317 007e 264B     		ldr	r3, .L22+28
 318 0080 1A70     		strb	r2, [r3]
 212:.\Generated_Source\PSoC4/I2CM_I2C_MASTER.c **** 
 213:.\Generated_Source\PSoC4/I2CM_I2C_MASTER.c ****         slaveAddress = (I2CM_GET_I2C_8BIT_ADDRESS(slaveAddress) | I2CM_I2C_READ_FLAG);
 319              		.loc 1 213 0
 320 0082 FB68     		ldr	r3, [r7, #12]
 321 0084 5A00     		lsl	r2, r3, #1
 322 0086 FF23     		mov	r3, #255
 323 0088 1A40     		and	r2, r2, r3
 324 008a 0123     		mov	r3, #1
 325 008c 1343     		orr	r3, r3, r2
 326 008e FB60     		str	r3, [r7, #12]
 214:.\Generated_Source\PSoC4/I2CM_I2C_MASTER.c **** 
 215:.\Generated_Source\PSoC4/I2CM_I2C_MASTER.c ****         I2CM_mstrStatus &= (uint16) ~I2CM_I2C_MSTAT_RD_CMPLT;
 327              		.loc 1 215 0
 328 0090 1C4B     		ldr	r3, .L22+8
 329 0092 1B88     		ldrh	r3, [r3]
 330 0094 9BB2     		uxth	r3, r3
 331 0096 214A     		ldr	r2, .L22+32
 332 0098 1340     		and	r3, r3, r2
 333 009a 1A4A     		ldr	r2, .L22+8
 334 009c 1380     		strh	r3, [r2]
 216:.\Generated_Source\PSoC4/I2CM_I2C_MASTER.c **** 
 217:.\Generated_Source\PSoC4/I2CM_I2C_MASTER.c ****         I2CM_ClearMasterInterruptSource(I2CM_INTR_MASTER_ALL);
 335              		.loc 1 217 0
 336 009e 204B     		ldr	r3, .L22+36
 337 00a0 204A     		ldr	r2, .L22+40
 338 00a2 1A60     		str	r2, [r3]
 218:.\Generated_Source\PSoC4/I2CM_I2C_MASTER.c **** 
 219:.\Generated_Source\PSoC4/I2CM_I2C_MASTER.c ****         /* The TX and RX FIFO have to be EMPTY */
 220:.\Generated_Source\PSoC4/I2CM_I2C_MASTER.c **** 
 221:.\Generated_Source\PSoC4/I2CM_I2C_MASTER.c ****         /* Generate Start or ReStart */
 222:.\Generated_Source\PSoC4/I2CM_I2C_MASTER.c ****         if(I2CM_CHECK_I2C_MODE_RESTART(mode))
 339              		.loc 1 222 0
 340 00a4 3A68     		ldr	r2, [r7]
 341 00a6 0123     		mov	r3, #1
 342 00a8 1340     		and	r3, r3, r2
 343 00aa DBB2     		uxtb	r3, r3
 344 00ac 002B     		cmp	r3, #0
ARM GAS  C:\Users\srvs\AppData\Local\Temp\cc5vvGHT.s 			page 11


 345 00ae 05D0     		beq	.L18
 223:.\Generated_Source\PSoC4/I2CM_I2C_MASTER.c ****         {
 224:.\Generated_Source\PSoC4/I2CM_I2C_MASTER.c ****             I2CM_I2C_MASTER_GENERATE_RESTART;
 346              		.loc 1 224 0
 347 00b0 FFF7FEFF 		bl	I2CM_I2CReStartGeneration
 225:.\Generated_Source\PSoC4/I2CM_I2C_MASTER.c ****             I2CM_TX_FIFO_WR_REG = (slaveAddress);
 348              		.loc 1 225 0
 349 00b4 1C4B     		ldr	r3, .L22+44
 350 00b6 FA68     		ldr	r2, [r7, #12]
 351 00b8 1A60     		str	r2, [r3]
 352 00ba 05E0     		b	.L19
 353              	.L18:
 226:.\Generated_Source\PSoC4/I2CM_I2C_MASTER.c ****         }
 227:.\Generated_Source\PSoC4/I2CM_I2C_MASTER.c ****         else
 228:.\Generated_Source\PSoC4/I2CM_I2C_MASTER.c ****         {
 229:.\Generated_Source\PSoC4/I2CM_I2C_MASTER.c ****             I2CM_TX_FIFO_WR_REG = (slaveAddress);
 354              		.loc 1 229 0
 355 00bc 1A4B     		ldr	r3, .L22+44
 356 00be FA68     		ldr	r2, [r7, #12]
 357 00c0 1A60     		str	r2, [r3]
 230:.\Generated_Source\PSoC4/I2CM_I2C_MASTER.c ****             I2CM_I2C_MASTER_GENERATE_START;
 358              		.loc 1 230 0
 359 00c2 1A4B     		ldr	r3, .L22+48
 360 00c4 0222     		mov	r2, #2
 361 00c6 1A60     		str	r2, [r3]
 362              	.L19:
 231:.\Generated_Source\PSoC4/I2CM_I2C_MASTER.c ****         }
 232:.\Generated_Source\PSoC4/I2CM_I2C_MASTER.c **** 
 233:.\Generated_Source\PSoC4/I2CM_I2C_MASTER.c ****         /* Prepare reaing */
 234:.\Generated_Source\PSoC4/I2CM_I2C_MASTER.c ****         if(I2CM_mstrRdBufSize < I2CM_I2C_FIFO_SIZE) /* Reading byte-by-byte */
 363              		.loc 1 234 0
 364 00c8 114B     		ldr	r3, .L22+20
 365 00ca 1B68     		ldr	r3, [r3]
 366 00cc 072B     		cmp	r3, #7
 367 00ce 03D8     		bhi	.L20
 235:.\Generated_Source\PSoC4/I2CM_I2C_MASTER.c ****         {
 236:.\Generated_Source\PSoC4/I2CM_I2C_MASTER.c ****             I2CM_SetRxInterruptMode(I2CM_INTR_RX_NOT_EMPTY);
 368              		.loc 1 236 0
 369 00d0 174B     		ldr	r3, .L22+52
 370 00d2 0422     		mov	r2, #4
 371 00d4 1A60     		str	r2, [r3]
 372 00d6 09E0     		b	.L17
 373              	.L20:
 237:.\Generated_Source\PSoC4/I2CM_I2C_MASTER.c ****         }
 238:.\Generated_Source\PSoC4/I2CM_I2C_MASTER.c ****         else /* Reading use RX FIFO */
 239:.\Generated_Source\PSoC4/I2CM_I2C_MASTER.c ****         {
 240:.\Generated_Source\PSoC4/I2CM_I2C_MASTER.c ****             I2CM_ENABLE_MASTER_AUTO_DATA_ACK;
 374              		.loc 1 240 0
 375 00d8 164A     		ldr	r2, .L22+56
 376 00da 164B     		ldr	r3, .L22+56
 377 00dc 1968     		ldr	r1, [r3]
 378 00de 8023     		mov	r3, #128
 379 00e0 5B00     		lsl	r3, r3, #1
 380 00e2 0B43     		orr	r3, r3, r1
 381 00e4 1360     		str	r3, [r2]
 241:.\Generated_Source\PSoC4/I2CM_I2C_MASTER.c ****             I2CM_SetRxInterruptMode(I2CM_INTR_RX_FULL);
 382              		.loc 1 241 0
ARM GAS  C:\Users\srvs\AppData\Local\Temp\cc5vvGHT.s 			page 12


 383 00e6 124B     		ldr	r3, .L22+52
 384 00e8 0822     		mov	r2, #8
 385 00ea 1A60     		str	r2, [r3]
 386              	.L17:
 242:.\Generated_Source\PSoC4/I2CM_I2C_MASTER.c ****         }
 243:.\Generated_Source\PSoC4/I2CM_I2C_MASTER.c ****     }
 244:.\Generated_Source\PSoC4/I2CM_I2C_MASTER.c **** 
 245:.\Generated_Source\PSoC4/I2CM_I2C_MASTER.c ****     I2CM_SCB_IRQ_Enable();
 387              		.loc 1 245 0
 388 00ec FFF7FEFF 		bl	I2CM_SCB_IRQ_Enable
 246:.\Generated_Source\PSoC4/I2CM_I2C_MASTER.c **** 
 247:.\Generated_Source\PSoC4/I2CM_I2C_MASTER.c ****     return(errStatus);
 389              		.loc 1 247 0
 390 00f0 7B69     		ldr	r3, [r7, #20]
 248:.\Generated_Source\PSoC4/I2CM_I2C_MASTER.c **** }
 391              		.loc 1 248 0
 392 00f2 181C     		mov	r0, r3
 393 00f4 BD46     		mov	sp, r7
 394 00f6 06B0     		add	sp, sp, #24
 395              		@ sp needed for prologue
 396 00f8 80BD     		pop	{r7, pc}
 397              	.L23:
 398 00fa C046     		.align	2
 399              	.L22:
 400 00fc 00000000 		.word	I2CM_state
 401 0100 64000740 		.word	1074200676
 402 0104 00000000 		.word	I2CM_mstrStatus
 403 0108 F7FF0000 		.word	65527
 404 010c 00000000 		.word	I2CM_mstrRdBufIndex
 405 0110 00000000 		.word	I2CM_mstrRdBufSize
 406 0114 00000000 		.word	I2CM_mstrRdBufPtr
 407 0118 00000000 		.word	I2CM_mstrControl
 408 011c FEFF0000 		.word	65534
 409 0120 000F0740 		.word	1074204416
 410 0124 17030000 		.word	791
 411 0128 40020740 		.word	1074201152
 412 012c 68000740 		.word	1074200680
 413 0130 C80F0740 		.word	1074204616
 414 0134 60000740 		.word	1074200672
 415              		.cfi_endproc
 416              	.LFE1:
 417              		.size	I2CM_I2CMasterReadBuf, .-I2CM_I2CMasterReadBuf
 418              		.section	.text.I2CM_I2CMasterSendStart,"ax",%progbits
 419              		.align	2
 420              		.global	I2CM_I2CMasterSendStart
 421              		.code	16
 422              		.thumb_func
 423              		.type	I2CM_I2CMasterSendStart, %function
 424              	I2CM_I2CMasterSendStart:
 425              	.LFB2:
 249:.\Generated_Source\PSoC4/I2CM_I2C_MASTER.c **** 
 250:.\Generated_Source\PSoC4/I2CM_I2C_MASTER.c **** 
 251:.\Generated_Source\PSoC4/I2CM_I2C_MASTER.c **** /*******************************************************************************
 252:.\Generated_Source\PSoC4/I2CM_I2C_MASTER.c **** * Function Name: I2CM_I2CMasterSendStart
 253:.\Generated_Source\PSoC4/I2CM_I2C_MASTER.c **** ********************************************************************************
 254:.\Generated_Source\PSoC4/I2CM_I2C_MASTER.c **** *
 255:.\Generated_Source\PSoC4/I2CM_I2C_MASTER.c **** * Summary:
ARM GAS  C:\Users\srvs\AppData\Local\Temp\cc5vvGHT.s 			page 13


 256:.\Generated_Source\PSoC4/I2CM_I2C_MASTER.c **** *  Generates Start condition and sends slave address with read/write bit.
 257:.\Generated_Source\PSoC4/I2CM_I2C_MASTER.c **** *
 258:.\Generated_Source\PSoC4/I2CM_I2C_MASTER.c **** * Parameters:
 259:.\Generated_Source\PSoC4/I2CM_I2C_MASTER.c **** *  slaveAddress:  7-bit slave address.
 260:.\Generated_Source\PSoC4/I2CM_I2C_MASTER.c **** *  bitRnW:        Zero, send write command, non-zero send read command.
 261:.\Generated_Source\PSoC4/I2CM_I2C_MASTER.c **** *
 262:.\Generated_Source\PSoC4/I2CM_I2C_MASTER.c **** * Return:
 263:.\Generated_Source\PSoC4/I2CM_I2C_MASTER.c **** *  Status error - zero means no errors.
 264:.\Generated_Source\PSoC4/I2CM_I2C_MASTER.c **** *
 265:.\Generated_Source\PSoC4/I2CM_I2C_MASTER.c **** * Side Effects:
 266:.\Generated_Source\PSoC4/I2CM_I2C_MASTER.c **** *  This function is entered without a 'byte complete' bit set in the I2C_CSR
 267:.\Generated_Source\PSoC4/I2CM_I2C_MASTER.c **** *  register. It does not exit until it will be set.
 268:.\Generated_Source\PSoC4/I2CM_I2C_MASTER.c **** *
 269:.\Generated_Source\PSoC4/I2CM_I2C_MASTER.c **** * Global variables:
 270:.\Generated_Source\PSoC4/I2CM_I2C_MASTER.c **** *  I2CM_state - used to store current state of software FSM.
 271:.\Generated_Source\PSoC4/I2CM_I2C_MASTER.c **** *
 272:.\Generated_Source\PSoC4/I2CM_I2C_MASTER.c **** *******************************************************************************/
 273:.\Generated_Source\PSoC4/I2CM_I2C_MASTER.c **** uint32 I2CM_I2CMasterSendStart(uint32 slaveAddress, uint32 bitRnW)
 274:.\Generated_Source\PSoC4/I2CM_I2C_MASTER.c **** {
 426              		.loc 1 274 0
 427              		.cfi_startproc
 428 0000 80B5     		push	{r7, lr}
 429              	.LCFI6:
 430              		.cfi_def_cfa_offset 8
 431              		.cfi_offset 7, -8
 432              		.cfi_offset 14, -4
 433 0002 84B0     		sub	sp, sp, #16
 434              	.LCFI7:
 435              		.cfi_def_cfa_offset 24
 436 0004 00AF     		add	r7, sp, #0
 437              	.LCFI8:
 438              		.cfi_def_cfa_register 7
 439 0006 7860     		str	r0, [r7, #4]
 440 0008 3960     		str	r1, [r7]
 275:.\Generated_Source\PSoC4/I2CM_I2C_MASTER.c ****     uint32 errStatus;
 276:.\Generated_Source\PSoC4/I2CM_I2C_MASTER.c ****     uint8  enableInterrupts;
 277:.\Generated_Source\PSoC4/I2CM_I2C_MASTER.c ****     
 278:.\Generated_Source\PSoC4/I2CM_I2C_MASTER.c ****     errStatus        = I2CM_I2C_MSTR_NOT_READY;
 441              		.loc 1 278 0
 442 000a 0423     		mov	r3, #4
 443 000c BB60     		str	r3, [r7, #8]
 279:.\Generated_Source\PSoC4/I2CM_I2C_MASTER.c ****     enableInterrupts = 0u;
 444              		.loc 1 279 0
 445 000e 3B1C     		mov	r3, r7
 446 0010 0F33     		add	r3, r3, #15
 447 0012 0022     		mov	r2, #0
 448 0014 1A70     		strb	r2, [r3]
 280:.\Generated_Source\PSoC4/I2CM_I2C_MASTER.c ****     
 281:.\Generated_Source\PSoC4/I2CM_I2C_MASTER.c ****     /* Check FSM state before generate Start condition */
 282:.\Generated_Source\PSoC4/I2CM_I2C_MASTER.c ****     if(I2CM_CHECK_I2C_FSM_IDLE)
 449              		.loc 1 282 0
 450 0016 454B     		ldr	r3, .L35
 451 0018 1B78     		ldrb	r3, [r3]
 452 001a DBB2     		uxtb	r3, r3
 453 001c 102B     		cmp	r3, #16
 454 001e 00D0     		beq	.LCB347
 455 0020 7EE0     		b	.L25	@long jump
ARM GAS  C:\Users\srvs\AppData\Local\Temp\cc5vvGHT.s 			page 14


 456              	.LCB347:
 283:.\Generated_Source\PSoC4/I2CM_I2C_MASTER.c ****     {
 284:.\Generated_Source\PSoC4/I2CM_I2C_MASTER.c ****         /* If bus is free, generate Start condition */
 285:.\Generated_Source\PSoC4/I2CM_I2C_MASTER.c ****         if(I2CM_CHECK_I2C_STATUS(I2CM_I2C_STATUS_BUS_BUSY))
 457              		.loc 1 285 0
 458 0022 434B     		ldr	r3, .L35+4
 459 0024 1B68     		ldr	r3, [r3]
 460 0026 1A1C     		mov	r2, r3
 461 0028 0123     		mov	r3, #1
 462 002a 1340     		and	r3, r3, r2
 463 002c DBB2     		uxtb	r3, r3
 464 002e 002B     		cmp	r3, #0
 465 0030 02D0     		beq	.L26
 286:.\Generated_Source\PSoC4/I2CM_I2C_MASTER.c ****         {
 287:.\Generated_Source\PSoC4/I2CM_I2C_MASTER.c ****             errStatus = I2CM_I2C_MSTR_BUS_BUSY;
 466              		.loc 1 287 0
 467 0032 0823     		mov	r3, #8
 468 0034 BB60     		str	r3, [r7, #8]
 469 0036 73E0     		b	.L25
 470              	.L26:
 288:.\Generated_Source\PSoC4/I2CM_I2C_MASTER.c ****         }
 289:.\Generated_Source\PSoC4/I2CM_I2C_MASTER.c ****         else
 290:.\Generated_Source\PSoC4/I2CM_I2C_MASTER.c ****         {
 291:.\Generated_Source\PSoC4/I2CM_I2C_MASTER.c ****             I2CM_SCB_IRQ_Disable(); /* Disable interrupt: the manual APIs don't require it */
 471              		.loc 1 291 0
 472 0038 FFF7FEFF 		bl	I2CM_SCB_IRQ_Disable
 292:.\Generated_Source\PSoC4/I2CM_I2C_MASTER.c **** 
 293:.\Generated_Source\PSoC4/I2CM_I2C_MASTER.c ****             slaveAddress = I2CM_GET_I2C_8BIT_ADDRESS(slaveAddress);
 473              		.loc 1 293 0
 474 003c 7B68     		ldr	r3, [r7, #4]
 475 003e 5A00     		lsl	r2, r3, #1
 476 0040 FF23     		mov	r3, #255
 477 0042 1340     		and	r3, r3, r2
 478 0044 7B60     		str	r3, [r7, #4]
 294:.\Generated_Source\PSoC4/I2CM_I2C_MASTER.c **** 
 295:.\Generated_Source\PSoC4/I2CM_I2C_MASTER.c ****             if(0u == bitRnW) /* Write direction */
 479              		.loc 1 295 0
 480 0046 3B68     		ldr	r3, [r7]
 481 0048 002B     		cmp	r3, #0
 482 004a 03D1     		bne	.L27
 296:.\Generated_Source\PSoC4/I2CM_I2C_MASTER.c ****             {
 297:.\Generated_Source\PSoC4/I2CM_I2C_MASTER.c ****                 I2CM_state = I2CM_I2C_FSM_MSTR_WR_DATA;
 483              		.loc 1 297 0
 484 004c 374B     		ldr	r3, .L35
 485 004e 2422     		mov	r2, #36
 486 0050 1A70     		strb	r2, [r3]
 487 0052 06E0     		b	.L28
 488              	.L27:
 298:.\Generated_Source\PSoC4/I2CM_I2C_MASTER.c ****             }
 299:.\Generated_Source\PSoC4/I2CM_I2C_MASTER.c ****             else /* Read direction */
 300:.\Generated_Source\PSoC4/I2CM_I2C_MASTER.c ****             {
 301:.\Generated_Source\PSoC4/I2CM_I2C_MASTER.c ****                 I2CM_state = I2CM_I2C_FSM_MSTR_RD_DATA;
 489              		.loc 1 301 0
 490 0054 354B     		ldr	r3, .L35
 491 0056 2522     		mov	r2, #37
 492 0058 1A70     		strb	r2, [r3]
 302:.\Generated_Source\PSoC4/I2CM_I2C_MASTER.c ****                          slaveAddress |= I2CM_I2C_READ_FLAG;
ARM GAS  C:\Users\srvs\AppData\Local\Temp\cc5vvGHT.s 			page 15


 493              		.loc 1 302 0
 494 005a 7A68     		ldr	r2, [r7, #4]
 495 005c 0123     		mov	r3, #1
 496 005e 1343     		orr	r3, r3, r2
 497 0060 7B60     		str	r3, [r7, #4]
 498              	.L28:
 303:.\Generated_Source\PSoC4/I2CM_I2C_MASTER.c ****             }
 304:.\Generated_Source\PSoC4/I2CM_I2C_MASTER.c **** 
 305:.\Generated_Source\PSoC4/I2CM_I2C_MASTER.c ****             /* The TX and RX FIFO have to be EMPTY */
 306:.\Generated_Source\PSoC4/I2CM_I2C_MASTER.c **** 
 307:.\Generated_Source\PSoC4/I2CM_I2C_MASTER.c ****             I2CM_TX_FIFO_WR_REG = slaveAddress; /* Put address in TX FIFO */
 499              		.loc 1 307 0
 500 0062 344B     		ldr	r3, .L35+8
 501 0064 7A68     		ldr	r2, [r7, #4]
 502 0066 1A60     		str	r2, [r3]
 308:.\Generated_Source\PSoC4/I2CM_I2C_MASTER.c ****             I2CM_ClearMasterInterruptSource(I2CM_INTR_MASTER_ALL);
 503              		.loc 1 308 0
 504 0068 334B     		ldr	r3, .L35+12
 505 006a 344A     		ldr	r2, .L35+16
 506 006c 1A60     		str	r2, [r3]
 309:.\Generated_Source\PSoC4/I2CM_I2C_MASTER.c **** 
 310:.\Generated_Source\PSoC4/I2CM_I2C_MASTER.c ****             I2CM_I2C_MASTER_GENERATE_START;
 507              		.loc 1 310 0
 508 006e 344B     		ldr	r3, .L35+20
 509 0070 0222     		mov	r2, #2
 510 0072 1A60     		str	r2, [r3]
 511              	.L29:
 311:.\Generated_Source\PSoC4/I2CM_I2C_MASTER.c **** 
 312:.\Generated_Source\PSoC4/I2CM_I2C_MASTER.c **** 
 313:.\Generated_Source\PSoC4/I2CM_I2C_MASTER.c ****             while(!I2CM_CHECK_INTR_MASTER(I2CM_INTR_MASTER_I2C_ACK      |
 512              		.loc 1 313 0
 513 0074 304B     		ldr	r3, .L35+12
 514 0076 1A68     		ldr	r2, [r3]
 515 0078 324B     		ldr	r3, .L35+24
 516 007a 1340     		and	r3, r3, r2
 517 007c 002B     		cmp	r3, #0
 518 007e F9D0     		beq	.L29
 314:.\Generated_Source\PSoC4/I2CM_I2C_MASTER.c ****                                                       I2CM_INTR_MASTER_I2C_NACK     |
 315:.\Generated_Source\PSoC4/I2CM_I2C_MASTER.c ****                                                       I2CM_INTR_MASTER_I2C_ARB_LOST | 
 316:.\Generated_Source\PSoC4/I2CM_I2C_MASTER.c ****                                                       I2CM_INTR_MASTER_I2C_BUS_ERROR))
 317:.\Generated_Source\PSoC4/I2CM_I2C_MASTER.c ****             {
 318:.\Generated_Source\PSoC4/I2CM_I2C_MASTER.c ****                 /* 
 319:.\Generated_Source\PSoC4/I2CM_I2C_MASTER.c ****                 * Write: wait until address will be transfered 
 320:.\Generated_Source\PSoC4/I2CM_I2C_MASTER.c ****                 * Read : wait until address will be tranfered, the data byte is going to RX FIFO as
 321:.\Generated_Source\PSoC4/I2CM_I2C_MASTER.c ****                 */
 322:.\Generated_Source\PSoC4/I2CM_I2C_MASTER.c ****             }
 323:.\Generated_Source\PSoC4/I2CM_I2C_MASTER.c **** 
 324:.\Generated_Source\PSoC4/I2CM_I2C_MASTER.c ****             /* 
 325:.\Generated_Source\PSoC4/I2CM_I2C_MASTER.c ****             * Check results of address phase: 
 326:.\Generated_Source\PSoC4/I2CM_I2C_MASTER.c ****             *  ACK  - address was ACKed continue.
 327:.\Generated_Source\PSoC4/I2CM_I2C_MASTER.c ****             *  NACK - address was NACKed continue.
 328:.\Generated_Source\PSoC4/I2CM_I2C_MASTER.c ****             *  LOST_ARB - SDA line is not match to what master drives: 
 329:.\Generated_Source\PSoC4/I2CM_I2C_MASTER.c ****             *  lost arbitration or misplaced Start. Place: 7-bits address and RnW bit.
 330:.\Generated_Source\PSoC4/I2CM_I2C_MASTER.c ****             *  The misplaced Start is possible when SCB drives SDA 1 and it changes to 0, when SCL 
 331:.\Generated_Source\PSoC4/I2CM_I2C_MASTER.c ****             *  BUS_ERR - misplaced Start or Stop when Slave drives. Place: ACK/NACK bit.
 332:.\Generated_Source\PSoC4/I2CM_I2C_MASTER.c ****             *  The misplaced Start or Stop causes the bus idle status to get stuck to busy.
 333:.\Generated_Source\PSoC4/I2CM_I2C_MASTER.c ****             *  The misplaced Start is possible when SCB drives SCL 1 and it changes 
ARM GAS  C:\Users\srvs\AppData\Local\Temp\cc5vvGHT.s 			page 16


 334:.\Generated_Source\PSoC4/I2CM_I2C_MASTER.c ****             *  from 1 to 0 (Start) or 0 to 1 (Stop).
 335:.\Generated_Source\PSoC4/I2CM_I2C_MASTER.c ****             *  Reset SCB on either LOST_ARB or BUS_ERR as both could be caused by
 336:.\Generated_Source\PSoC4/I2CM_I2C_MASTER.c ****             *  misplaced Start event to reset bus busy.
 337:.\Generated_Source\PSoC4/I2CM_I2C_MASTER.c ****             */
 338:.\Generated_Source\PSoC4/I2CM_I2C_MASTER.c ****             if(I2CM_CHECK_INTR_MASTER(I2CM_INTR_MASTER_I2C_ACK))
 519              		.loc 1 338 0
 520 0080 2D4B     		ldr	r3, .L35+12
 521 0082 1A68     		ldr	r2, [r3]
 522 0084 0423     		mov	r3, #4
 523 0086 1340     		and	r3, r3, r2
 524 0088 002B     		cmp	r3, #0
 525 008a 02D0     		beq	.L30
 339:.\Generated_Source\PSoC4/I2CM_I2C_MASTER.c ****             {
 340:.\Generated_Source\PSoC4/I2CM_I2C_MASTER.c ****                 errStatus = I2CM_I2C_MSTR_NO_ERROR;
 526              		.loc 1 340 0
 527 008c 0023     		mov	r3, #0
 528 008e BB60     		str	r3, [r7, #8]
 529 0090 24E0     		b	.L31
 530              	.L30:
 341:.\Generated_Source\PSoC4/I2CM_I2C_MASTER.c ****             }
 342:.\Generated_Source\PSoC4/I2CM_I2C_MASTER.c ****             else if(I2CM_CHECK_INTR_MASTER(I2CM_INTR_MASTER_I2C_NACK))
 531              		.loc 1 342 0
 532 0092 294B     		ldr	r3, .L35+12
 533 0094 1A68     		ldr	r2, [r3]
 534 0096 0223     		mov	r3, #2
 535 0098 1340     		and	r3, r3, r2
 536 009a 002B     		cmp	r3, #0
 537 009c 02D0     		beq	.L32
 343:.\Generated_Source\PSoC4/I2CM_I2C_MASTER.c ****             {
 344:.\Generated_Source\PSoC4/I2CM_I2C_MASTER.c ****                 errStatus = I2CM_I2C_MSTR_ERR_LB_NAK;
 538              		.loc 1 344 0
 539 009e 0223     		mov	r3, #2
 540 00a0 BB60     		str	r3, [r7, #8]
 541 00a2 1BE0     		b	.L31
 542              	.L32:
 345:.\Generated_Source\PSoC4/I2CM_I2C_MASTER.c ****             }
 346:.\Generated_Source\PSoC4/I2CM_I2C_MASTER.c ****             else if(I2CM_CHECK_INTR_MASTER(I2CM_INTR_MASTER_I2C_ARB_LOST))
 543              		.loc 1 346 0
 544 00a4 244B     		ldr	r3, .L35+12
 545 00a6 1B68     		ldr	r3, [r3]
 546 00a8 1A1C     		mov	r2, r3
 547 00aa 0123     		mov	r3, #1
 548 00ac 1340     		and	r3, r3, r2
 549 00ae DBB2     		uxtb	r3, r3
 550 00b0 002B     		cmp	r3, #0
 551 00b2 09D0     		beq	.L33
 347:.\Generated_Source\PSoC4/I2CM_I2C_MASTER.c ****             {
 348:.\Generated_Source\PSoC4/I2CM_I2C_MASTER.c ****                 I2CM_state = I2CM_I2C_FSM_IDLE;
 552              		.loc 1 348 0
 553 00b4 1D4B     		ldr	r3, .L35
 554 00b6 1022     		mov	r2, #16
 555 00b8 1A70     		strb	r2, [r3]
 349:.\Generated_Source\PSoC4/I2CM_I2C_MASTER.c ****                              errStatus = I2CM_I2C_MSTR_ERR_ARB_LOST;
 556              		.loc 1 349 0
 557 00ba 0123     		mov	r3, #1
 558 00bc BB60     		str	r3, [r7, #8]
 350:.\Generated_Source\PSoC4/I2CM_I2C_MASTER.c ****                       enableInterrupts = I2CM_I2C_RESET_ERROR;
ARM GAS  C:\Users\srvs\AppData\Local\Temp\cc5vvGHT.s 			page 17


 559              		.loc 1 350 0
 560 00be 3B1C     		mov	r3, r7
 561 00c0 0F33     		add	r3, r3, #15
 562 00c2 0122     		mov	r2, #1
 563 00c4 1A70     		strb	r2, [r3]
 564 00c6 09E0     		b	.L31
 565              	.L33:
 351:.\Generated_Source\PSoC4/I2CM_I2C_MASTER.c ****             }
 352:.\Generated_Source\PSoC4/I2CM_I2C_MASTER.c ****             else /* I2CM_INTR_MASTER_I2C_BUS_ERROR set is else condition */
 353:.\Generated_Source\PSoC4/I2CM_I2C_MASTER.c ****             {
 354:.\Generated_Source\PSoC4/I2CM_I2C_MASTER.c ****                 I2CM_state = I2CM_I2C_FSM_IDLE;
 566              		.loc 1 354 0
 567 00c8 184B     		ldr	r3, .L35
 568 00ca 1022     		mov	r2, #16
 569 00cc 1A70     		strb	r2, [r3]
 355:.\Generated_Source\PSoC4/I2CM_I2C_MASTER.c ****                              errStatus = I2CM_I2C_MSTR_ERR_BUS_ERR;
 570              		.loc 1 355 0
 571 00ce 8023     		mov	r3, #128
 572 00d0 5B00     		lsl	r3, r3, #1
 573 00d2 BB60     		str	r3, [r7, #8]
 356:.\Generated_Source\PSoC4/I2CM_I2C_MASTER.c ****                       enableInterrupts = I2CM_I2C_RESET_ERROR;
 574              		.loc 1 356 0
 575 00d4 3B1C     		mov	r3, r7
 576 00d6 0F33     		add	r3, r3, #15
 577 00d8 0122     		mov	r2, #1
 578 00da 1A70     		strb	r2, [r3]
 579              	.L31:
 357:.\Generated_Source\PSoC4/I2CM_I2C_MASTER.c ****             }
 358:.\Generated_Source\PSoC4/I2CM_I2C_MASTER.c **** 
 359:.\Generated_Source\PSoC4/I2CM_I2C_MASTER.c ****             I2CM_ClearMasterInterruptSource(I2CM_INTR_MASTER_I2C_ACK      |
 580              		.loc 1 359 0
 581 00dc 164B     		ldr	r3, .L35+12
 582 00de 194A     		ldr	r2, .L35+24
 583 00e0 1A60     		str	r2, [r3]
 360:.\Generated_Source\PSoC4/I2CM_I2C_MASTER.c ****                                                         I2CM_INTR_MASTER_I2C_NACK     |
 361:.\Generated_Source\PSoC4/I2CM_I2C_MASTER.c ****                                                         I2CM_INTR_MASTER_I2C_ARB_LOST |
 362:.\Generated_Source\PSoC4/I2CM_I2C_MASTER.c ****                                                         I2CM_INTR_MASTER_I2C_BUS_ERROR);
 363:.\Generated_Source\PSoC4/I2CM_I2C_MASTER.c ****             
 364:.\Generated_Source\PSoC4/I2CM_I2C_MASTER.c ****             /* Reset block in case of: LOST_ARB or BUS_ERR */
 365:.\Generated_Source\PSoC4/I2CM_I2C_MASTER.c ****             if(0u != enableInterrupts)
 584              		.loc 1 365 0
 585 00e2 3B1C     		mov	r3, r7
 586 00e4 0F33     		add	r3, r3, #15
 587 00e6 1B78     		ldrb	r3, [r3]
 588 00e8 002B     		cmp	r3, #0
 589 00ea 19D0     		beq	.L25
 366:.\Generated_Source\PSoC4/I2CM_I2C_MASTER.c ****             {
 367:.\Generated_Source\PSoC4/I2CM_I2C_MASTER.c ****                 enableInterrupts = CyEnterCriticalSection();
 590              		.loc 1 367 0
 591 00ec FFF7FEFF 		bl	CyEnterCriticalSection
 592 00f0 031C     		mov	r3, r0
 593 00f2 1A1C     		mov	r2, r3
 594 00f4 3B1C     		mov	r3, r7
 595 00f6 0F33     		add	r3, r3, #15
 596 00f8 1A70     		strb	r2, [r3]
 368:.\Generated_Source\PSoC4/I2CM_I2C_MASTER.c ****                 I2CM_SCB_SW_RESET;
 597              		.loc 1 368 0
ARM GAS  C:\Users\srvs\AppData\Local\Temp\cc5vvGHT.s 			page 18


 598 00fa 134B     		ldr	r3, .L35+28
 599 00fc 124A     		ldr	r2, .L35+28
 600 00fe 1268     		ldr	r2, [r2]
 601 0100 5200     		lsl	r2, r2, #1
 602 0102 5208     		lsr	r2, r2, #1
 603 0104 1A60     		str	r2, [r3]
 604 0106 104A     		ldr	r2, .L35+28
 605 0108 0F4B     		ldr	r3, .L35+28
 606 010a 1968     		ldr	r1, [r3]
 607 010c 8023     		mov	r3, #128
 608 010e 1B06     		lsl	r3, r3, #24
 609 0110 0B43     		orr	r3, r3, r1
 610 0112 1360     		str	r3, [r2]
 369:.\Generated_Source\PSoC4/I2CM_I2C_MASTER.c ****                 CyExitCriticalSection(enableInterrupts);
 611              		.loc 1 369 0
 612 0114 3B1C     		mov	r3, r7
 613 0116 0F33     		add	r3, r3, #15
 614 0118 1B78     		ldrb	r3, [r3]
 615 011a 181C     		mov	r0, r3
 616 011c FFF7FEFF 		bl	CyExitCriticalSection
 617              	.L25:
 370:.\Generated_Source\PSoC4/I2CM_I2C_MASTER.c ****             }
 371:.\Generated_Source\PSoC4/I2CM_I2C_MASTER.c ****         }
 372:.\Generated_Source\PSoC4/I2CM_I2C_MASTER.c ****     }
 373:.\Generated_Source\PSoC4/I2CM_I2C_MASTER.c **** 
 374:.\Generated_Source\PSoC4/I2CM_I2C_MASTER.c ****     return(errStatus);
 618              		.loc 1 374 0
 619 0120 BB68     		ldr	r3, [r7, #8]
 375:.\Generated_Source\PSoC4/I2CM_I2C_MASTER.c **** }
 620              		.loc 1 375 0
 621 0122 181C     		mov	r0, r3
 622 0124 BD46     		mov	sp, r7
 623 0126 04B0     		add	sp, sp, #16
 624              		@ sp needed for prologue
 625 0128 80BD     		pop	{r7, pc}
 626              	.L36:
 627 012a C046     		.align	2
 628              	.L35:
 629 012c 00000000 		.word	I2CM_state
 630 0130 64000740 		.word	1074200676
 631 0134 40020740 		.word	1074201152
 632 0138 000F0740 		.word	1074204416
 633 013c 17030000 		.word	791
 634 0140 68000740 		.word	1074200680
 635 0144 07010000 		.word	263
 636 0148 00000740 		.word	1074200576
 637              		.cfi_endproc
 638              	.LFE2:
 639              		.size	I2CM_I2CMasterSendStart, .-I2CM_I2CMasterSendStart
 640              		.section	.text.I2CM_I2CMasterSendRestart,"ax",%progbits
 641              		.align	2
 642              		.global	I2CM_I2CMasterSendRestart
 643              		.code	16
 644              		.thumb_func
 645              		.type	I2CM_I2CMasterSendRestart, %function
 646              	I2CM_I2CMasterSendRestart:
 647              	.LFB3:
ARM GAS  C:\Users\srvs\AppData\Local\Temp\cc5vvGHT.s 			page 19


 376:.\Generated_Source\PSoC4/I2CM_I2C_MASTER.c **** 
 377:.\Generated_Source\PSoC4/I2CM_I2C_MASTER.c **** 
 378:.\Generated_Source\PSoC4/I2CM_I2C_MASTER.c **** /*******************************************************************************
 379:.\Generated_Source\PSoC4/I2CM_I2C_MASTER.c **** * Function Name: I2CM_I2CMasterSendRestart
 380:.\Generated_Source\PSoC4/I2CM_I2C_MASTER.c **** ********************************************************************************
 381:.\Generated_Source\PSoC4/I2CM_I2C_MASTER.c **** *
 382:.\Generated_Source\PSoC4/I2CM_I2C_MASTER.c **** * Summary:
 383:.\Generated_Source\PSoC4/I2CM_I2C_MASTER.c **** *  Generates ReStart condition and sends slave address with read/write bit.
 384:.\Generated_Source\PSoC4/I2CM_I2C_MASTER.c **** *
 385:.\Generated_Source\PSoC4/I2CM_I2C_MASTER.c **** * Parameters:
 386:.\Generated_Source\PSoC4/I2CM_I2C_MASTER.c **** *  slaveAddress:  7-bit slave address.
 387:.\Generated_Source\PSoC4/I2CM_I2C_MASTER.c **** *  bitRnW:        Zero, send write command, non-zero send read command.
 388:.\Generated_Source\PSoC4/I2CM_I2C_MASTER.c **** *
 389:.\Generated_Source\PSoC4/I2CM_I2C_MASTER.c **** * Return:
 390:.\Generated_Source\PSoC4/I2CM_I2C_MASTER.c **** *  Status error - zero means no errors.
 391:.\Generated_Source\PSoC4/I2CM_I2C_MASTER.c **** *
 392:.\Generated_Source\PSoC4/I2CM_I2C_MASTER.c **** * Side Effects:
 393:.\Generated_Source\PSoC4/I2CM_I2C_MASTER.c **** *  This function is entered without a 'byte complete' bit set in the I2C_CSR
 394:.\Generated_Source\PSoC4/I2CM_I2C_MASTER.c **** *  register. It does not exit until it will be set.
 395:.\Generated_Source\PSoC4/I2CM_I2C_MASTER.c **** *
 396:.\Generated_Source\PSoC4/I2CM_I2C_MASTER.c **** * Global variables:
 397:.\Generated_Source\PSoC4/I2CM_I2C_MASTER.c **** *  I2CM_state - used to store current state of software FSM.
 398:.\Generated_Source\PSoC4/I2CM_I2C_MASTER.c **** *
 399:.\Generated_Source\PSoC4/I2CM_I2C_MASTER.c **** *******************************************************************************/
 400:.\Generated_Source\PSoC4/I2CM_I2C_MASTER.c **** uint32 I2CM_I2CMasterSendRestart(uint32 slaveAddress, uint32 bitRnW)
 401:.\Generated_Source\PSoC4/I2CM_I2C_MASTER.c **** {
 648              		.loc 1 401 0
 649              		.cfi_startproc
 650 0000 80B5     		push	{r7, lr}
 651              	.LCFI9:
 652              		.cfi_def_cfa_offset 8
 653              		.cfi_offset 7, -8
 654              		.cfi_offset 14, -4
 655 0002 84B0     		sub	sp, sp, #16
 656              	.LCFI10:
 657              		.cfi_def_cfa_offset 24
 658 0004 00AF     		add	r7, sp, #0
 659              	.LCFI11:
 660              		.cfi_def_cfa_register 7
 661 0006 7860     		str	r0, [r7, #4]
 662 0008 3960     		str	r1, [r7]
 402:.\Generated_Source\PSoC4/I2CM_I2C_MASTER.c ****     uint32 errStatus;
 403:.\Generated_Source\PSoC4/I2CM_I2C_MASTER.c ****     uint8  enableInterrupts;
 404:.\Generated_Source\PSoC4/I2CM_I2C_MASTER.c **** 
 405:.\Generated_Source\PSoC4/I2CM_I2C_MASTER.c ****     errStatus        = I2CM_I2C_MSTR_NOT_READY;
 663              		.loc 1 405 0
 664 000a 0423     		mov	r3, #4
 665 000c BB60     		str	r3, [r7, #8]
 406:.\Generated_Source\PSoC4/I2CM_I2C_MASTER.c ****     enableInterrupts = 0u;
 666              		.loc 1 406 0
 667 000e 3B1C     		mov	r3, r7
 668 0010 0F33     		add	r3, r3, #15
 669 0012 0022     		mov	r2, #0
 670 0014 1A70     		strb	r2, [r3]
 407:.\Generated_Source\PSoC4/I2CM_I2C_MASTER.c **** 
 408:.\Generated_Source\PSoC4/I2CM_I2C_MASTER.c ****     /* Check FSM state before generate ReStart condition */
 409:.\Generated_Source\PSoC4/I2CM_I2C_MASTER.c ****     if(I2CM_CHECK_I2C_MASTER_ACTIVE)
ARM GAS  C:\Users\srvs\AppData\Local\Temp\cc5vvGHT.s 			page 20


 671              		.loc 1 409 0
 672 0016 434B     		ldr	r3, .L48
 673 0018 1B78     		ldrb	r3, [r3]
 674 001a DBB2     		uxtb	r3, r3
 675 001c 1A1C     		mov	r2, r3
 676 001e 2023     		mov	r3, #32
 677 0020 1340     		and	r3, r3, r2
 678 0022 002B     		cmp	r3, #0
 679 0024 00D1     		bne	.LCB540
 680 0026 78E0     		b	.L38	@long jump
 681              	.LCB540:
 410:.\Generated_Source\PSoC4/I2CM_I2C_MASTER.c ****     {
 411:.\Generated_Source\PSoC4/I2CM_I2C_MASTER.c ****         slaveAddress = I2CM_GET_I2C_8BIT_ADDRESS(slaveAddress);
 682              		.loc 1 411 0
 683 0028 7B68     		ldr	r3, [r7, #4]
 684 002a 5A00     		lsl	r2, r3, #1
 685 002c FF23     		mov	r3, #255
 686 002e 1340     		and	r3, r3, r2
 687 0030 7B60     		str	r3, [r7, #4]
 412:.\Generated_Source\PSoC4/I2CM_I2C_MASTER.c **** 
 413:.\Generated_Source\PSoC4/I2CM_I2C_MASTER.c ****         if(0u == bitRnW) /* Write direction */
 688              		.loc 1 413 0
 689 0032 3B68     		ldr	r3, [r7]
 690 0034 002B     		cmp	r3, #0
 691 0036 03D1     		bne	.L39
 414:.\Generated_Source\PSoC4/I2CM_I2C_MASTER.c ****         {
 415:.\Generated_Source\PSoC4/I2CM_I2C_MASTER.c ****             I2CM_state = I2CM_I2C_FSM_MSTR_WR_DATA;
 692              		.loc 1 415 0
 693 0038 3A4B     		ldr	r3, .L48
 694 003a 2422     		mov	r2, #36
 695 003c 1A70     		strb	r2, [r3]
 696 003e 06E0     		b	.L40
 697              	.L39:
 416:.\Generated_Source\PSoC4/I2CM_I2C_MASTER.c ****         }
 417:.\Generated_Source\PSoC4/I2CM_I2C_MASTER.c ****         else  /* Read direction */
 418:.\Generated_Source\PSoC4/I2CM_I2C_MASTER.c ****         {
 419:.\Generated_Source\PSoC4/I2CM_I2C_MASTER.c ****             I2CM_state  = I2CM_I2C_FSM_MSTR_RD_DATA;
 698              		.loc 1 419 0
 699 0040 384B     		ldr	r3, .L48
 700 0042 2522     		mov	r2, #37
 701 0044 1A70     		strb	r2, [r3]
 420:.\Generated_Source\PSoC4/I2CM_I2C_MASTER.c ****                       slaveAddress |= I2CM_I2C_READ_FLAG;
 702              		.loc 1 420 0
 703 0046 7A68     		ldr	r2, [r7, #4]
 704 0048 0123     		mov	r3, #1
 705 004a 1343     		orr	r3, r3, r2
 706 004c 7B60     		str	r3, [r7, #4]
 707              	.L40:
 421:.\Generated_Source\PSoC4/I2CM_I2C_MASTER.c ****         }
 422:.\Generated_Source\PSoC4/I2CM_I2C_MASTER.c **** 
 423:.\Generated_Source\PSoC4/I2CM_I2C_MASTER.c ****         /* The TX and RX FIFO have to be EMPTY */
 424:.\Generated_Source\PSoC4/I2CM_I2C_MASTER.c **** 
 425:.\Generated_Source\PSoC4/I2CM_I2C_MASTER.c ****         /* Clean-up interrupt status */
 426:.\Generated_Source\PSoC4/I2CM_I2C_MASTER.c ****         I2CM_ClearMasterInterruptSource(I2CM_INTR_MASTER_ALL);
 708              		.loc 1 426 0
 709 004e 364B     		ldr	r3, .L48+4
 710 0050 364A     		ldr	r2, .L48+8
ARM GAS  C:\Users\srvs\AppData\Local\Temp\cc5vvGHT.s 			page 21


 711 0052 1A60     		str	r2, [r3]
 427:.\Generated_Source\PSoC4/I2CM_I2C_MASTER.c **** 
 428:.\Generated_Source\PSoC4/I2CM_I2C_MASTER.c ****         /* 
 429:.\Generated_Source\PSoC4/I2CM_I2C_MASTER.c ****         * Generates a START - the restart should be set first and then address need to be put,
 430:.\Generated_Source\PSoC4/I2CM_I2C_MASTER.c ****         * Because on write the byte in TX FIFO treated as DATA byte. ReStart will not be generated 
 431:.\Generated_Source\PSoC4/I2CM_I2C_MASTER.c ****         */
 432:.\Generated_Source\PSoC4/I2CM_I2C_MASTER.c ****         I2CM_I2C_MASTER_GENERATE_RESTART;
 712              		.loc 1 432 0
 713 0054 FFF7FEFF 		bl	I2CM_I2CReStartGeneration
 714              	.L41:
 433:.\Generated_Source\PSoC4/I2CM_I2C_MASTER.c **** 
 434:.\Generated_Source\PSoC4/I2CM_I2C_MASTER.c ****         while(I2CM_CHECK_I2C_MASTER_CMD(I2CM_I2C_MASTER_CMD_M_START))
 715              		.loc 1 434 0
 716 0058 354B     		ldr	r3, .L48+12
 717 005a 1B68     		ldr	r3, [r3]
 718 005c 1A1C     		mov	r2, r3
 719 005e 0123     		mov	r3, #1
 720 0060 1340     		and	r3, r3, r2
 721 0062 DBB2     		uxtb	r3, r3
 722 0064 002B     		cmp	r3, #0
 723 0066 F7D1     		bne	.L41
 435:.\Generated_Source\PSoC4/I2CM_I2C_MASTER.c ****         {
 436:.\Generated_Source\PSoC4/I2CM_I2C_MASTER.c ****             /* Wait until ReStart will be generated */
 437:.\Generated_Source\PSoC4/I2CM_I2C_MASTER.c ****         }
 438:.\Generated_Source\PSoC4/I2CM_I2C_MASTER.c **** 
 439:.\Generated_Source\PSoC4/I2CM_I2C_MASTER.c ****         /* Put address into TX FIFO */
 440:.\Generated_Source\PSoC4/I2CM_I2C_MASTER.c ****         I2CM_TX_FIFO_WR_REG = slaveAddress;
 724              		.loc 1 440 0
 725 0068 324B     		ldr	r3, .L48+16
 726 006a 7A68     		ldr	r2, [r7, #4]
 727 006c 1A60     		str	r2, [r3]
 728              	.L42:
 441:.\Generated_Source\PSoC4/I2CM_I2C_MASTER.c **** 
 442:.\Generated_Source\PSoC4/I2CM_I2C_MASTER.c ****         /* Wait for the address to be transfered */
 443:.\Generated_Source\PSoC4/I2CM_I2C_MASTER.c ****         while(!I2CM_CHECK_INTR_MASTER(I2CM_INTR_MASTER_I2C_ACK      |
 729              		.loc 1 443 0
 730 006e 2E4B     		ldr	r3, .L48+4
 731 0070 1A68     		ldr	r2, [r3]
 732 0072 314B     		ldr	r3, .L48+20
 733 0074 1340     		and	r3, r3, r2
 734 0076 002B     		cmp	r3, #0
 735 0078 F9D0     		beq	.L42
 444:.\Generated_Source\PSoC4/I2CM_I2C_MASTER.c ****                                                   I2CM_INTR_MASTER_I2C_NACK     |
 445:.\Generated_Source\PSoC4/I2CM_I2C_MASTER.c ****                                                   I2CM_INTR_MASTER_I2C_ARB_LOST |
 446:.\Generated_Source\PSoC4/I2CM_I2C_MASTER.c ****                                                   I2CM_INTR_MASTER_I2C_BUS_ERROR))
 447:.\Generated_Source\PSoC4/I2CM_I2C_MASTER.c ****         {
 448:.\Generated_Source\PSoC4/I2CM_I2C_MASTER.c ****             /* Wait until address will be transfered */
 449:.\Generated_Source\PSoC4/I2CM_I2C_MASTER.c ****         }
 450:.\Generated_Source\PSoC4/I2CM_I2C_MASTER.c **** 
 451:.\Generated_Source\PSoC4/I2CM_I2C_MASTER.c ****         /* Check results of address phase: look into I2CM_I2CMasterSendStart for description */
 452:.\Generated_Source\PSoC4/I2CM_I2C_MASTER.c ****         if(I2CM_CHECK_INTR_MASTER(I2CM_INTR_MASTER_I2C_ACK))
 736              		.loc 1 452 0
 737 007a 2B4B     		ldr	r3, .L48+4
 738 007c 1A68     		ldr	r2, [r3]
 739 007e 0423     		mov	r3, #4
 740 0080 1340     		and	r3, r3, r2
 741 0082 002B     		cmp	r3, #0
ARM GAS  C:\Users\srvs\AppData\Local\Temp\cc5vvGHT.s 			page 22


 742 0084 02D0     		beq	.L43
 453:.\Generated_Source\PSoC4/I2CM_I2C_MASTER.c ****         {
 454:.\Generated_Source\PSoC4/I2CM_I2C_MASTER.c ****             errStatus = I2CM_I2C_MSTR_NO_ERROR;
 743              		.loc 1 454 0
 744 0086 0023     		mov	r3, #0
 745 0088 BB60     		str	r3, [r7, #8]
 746 008a 24E0     		b	.L44
 747              	.L43:
 455:.\Generated_Source\PSoC4/I2CM_I2C_MASTER.c ****         }
 456:.\Generated_Source\PSoC4/I2CM_I2C_MASTER.c ****         else if(I2CM_CHECK_INTR_MASTER(I2CM_INTR_MASTER_I2C_NACK))
 748              		.loc 1 456 0
 749 008c 264B     		ldr	r3, .L48+4
 750 008e 1A68     		ldr	r2, [r3]
 751 0090 0223     		mov	r3, #2
 752 0092 1340     		and	r3, r3, r2
 753 0094 002B     		cmp	r3, #0
 754 0096 02D0     		beq	.L45
 457:.\Generated_Source\PSoC4/I2CM_I2C_MASTER.c ****         {
 458:.\Generated_Source\PSoC4/I2CM_I2C_MASTER.c ****              errStatus = I2CM_I2C_MSTR_ERR_LB_NAK;
 755              		.loc 1 458 0
 756 0098 0223     		mov	r3, #2
 757 009a BB60     		str	r3, [r7, #8]
 758 009c 1BE0     		b	.L44
 759              	.L45:
 459:.\Generated_Source\PSoC4/I2CM_I2C_MASTER.c ****         }
 460:.\Generated_Source\PSoC4/I2CM_I2C_MASTER.c ****         else if(I2CM_CHECK_INTR_MASTER(I2CM_INTR_MASTER_I2C_ARB_LOST))
 760              		.loc 1 460 0
 761 009e 224B     		ldr	r3, .L48+4
 762 00a0 1B68     		ldr	r3, [r3]
 763 00a2 1A1C     		mov	r2, r3
 764 00a4 0123     		mov	r3, #1
 765 00a6 1340     		and	r3, r3, r2
 766 00a8 DBB2     		uxtb	r3, r3
 767 00aa 002B     		cmp	r3, #0
 768 00ac 09D0     		beq	.L46
 461:.\Generated_Source\PSoC4/I2CM_I2C_MASTER.c ****         {
 462:.\Generated_Source\PSoC4/I2CM_I2C_MASTER.c ****             I2CM_state = I2CM_I2C_FSM_IDLE;
 769              		.loc 1 462 0
 770 00ae 1D4B     		ldr	r3, .L48
 771 00b0 1022     		mov	r2, #16
 772 00b2 1A70     		strb	r2, [r3]
 463:.\Generated_Source\PSoC4/I2CM_I2C_MASTER.c ****                          errStatus = I2CM_I2C_MSTR_ERR_ARB_LOST;
 773              		.loc 1 463 0
 774 00b4 0123     		mov	r3, #1
 775 00b6 BB60     		str	r3, [r7, #8]
 464:.\Generated_Source\PSoC4/I2CM_I2C_MASTER.c ****                   enableInterrupts = I2CM_I2C_RESET_ERROR;
 776              		.loc 1 464 0
 777 00b8 3B1C     		mov	r3, r7
 778 00ba 0F33     		add	r3, r3, #15
 779 00bc 0122     		mov	r2, #1
 780 00be 1A70     		strb	r2, [r3]
 781 00c0 09E0     		b	.L44
 782              	.L46:
 465:.\Generated_Source\PSoC4/I2CM_I2C_MASTER.c ****         }
 466:.\Generated_Source\PSoC4/I2CM_I2C_MASTER.c ****         else /* I2CM_INTR_MASTER_I2C_BUS_ERROR set is else condition */
 467:.\Generated_Source\PSoC4/I2CM_I2C_MASTER.c ****         {
 468:.\Generated_Source\PSoC4/I2CM_I2C_MASTER.c ****             I2CM_state = I2CM_I2C_FSM_IDLE;
ARM GAS  C:\Users\srvs\AppData\Local\Temp\cc5vvGHT.s 			page 23


 783              		.loc 1 468 0
 784 00c2 184B     		ldr	r3, .L48
 785 00c4 1022     		mov	r2, #16
 786 00c6 1A70     		strb	r2, [r3]
 469:.\Generated_Source\PSoC4/I2CM_I2C_MASTER.c ****                          errStatus = I2CM_I2C_MSTR_ERR_BUS_ERR;
 787              		.loc 1 469 0
 788 00c8 8023     		mov	r3, #128
 789 00ca 5B00     		lsl	r3, r3, #1
 790 00cc BB60     		str	r3, [r7, #8]
 470:.\Generated_Source\PSoC4/I2CM_I2C_MASTER.c ****                   enableInterrupts = I2CM_I2C_RESET_ERROR;
 791              		.loc 1 470 0
 792 00ce 3B1C     		mov	r3, r7
 793 00d0 0F33     		add	r3, r3, #15
 794 00d2 0122     		mov	r2, #1
 795 00d4 1A70     		strb	r2, [r3]
 796              	.L44:
 471:.\Generated_Source\PSoC4/I2CM_I2C_MASTER.c ****         }
 472:.\Generated_Source\PSoC4/I2CM_I2C_MASTER.c **** 
 473:.\Generated_Source\PSoC4/I2CM_I2C_MASTER.c ****         I2CM_ClearMasterInterruptSource(I2CM_INTR_MASTER_I2C_ACK      |
 797              		.loc 1 473 0
 798 00d6 144B     		ldr	r3, .L48+4
 799 00d8 174A     		ldr	r2, .L48+20
 800 00da 1A60     		str	r2, [r3]
 474:.\Generated_Source\PSoC4/I2CM_I2C_MASTER.c ****                                                     I2CM_INTR_MASTER_I2C_NACK     |
 475:.\Generated_Source\PSoC4/I2CM_I2C_MASTER.c ****                                                     I2CM_INTR_MASTER_I2C_ARB_LOST |
 476:.\Generated_Source\PSoC4/I2CM_I2C_MASTER.c ****                                                     I2CM_INTR_MASTER_I2C_BUS_ERROR);
 477:.\Generated_Source\PSoC4/I2CM_I2C_MASTER.c ****         
 478:.\Generated_Source\PSoC4/I2CM_I2C_MASTER.c ****         /* Reset block in case of: LOST_ARB or BUS_ERR */
 479:.\Generated_Source\PSoC4/I2CM_I2C_MASTER.c ****         if(0u != enableInterrupts)
 801              		.loc 1 479 0
 802 00dc 3B1C     		mov	r3, r7
 803 00de 0F33     		add	r3, r3, #15
 804 00e0 1B78     		ldrb	r3, [r3]
 805 00e2 002B     		cmp	r3, #0
 806 00e4 19D0     		beq	.L38
 480:.\Generated_Source\PSoC4/I2CM_I2C_MASTER.c ****         {
 481:.\Generated_Source\PSoC4/I2CM_I2C_MASTER.c ****             enableInterrupts = CyEnterCriticalSection();
 807              		.loc 1 481 0
 808 00e6 FFF7FEFF 		bl	CyEnterCriticalSection
 809 00ea 031C     		mov	r3, r0
 810 00ec 1A1C     		mov	r2, r3
 811 00ee 3B1C     		mov	r3, r7
 812 00f0 0F33     		add	r3, r3, #15
 813 00f2 1A70     		strb	r2, [r3]
 482:.\Generated_Source\PSoC4/I2CM_I2C_MASTER.c ****             I2CM_SCB_SW_RESET;
 814              		.loc 1 482 0
 815 00f4 114B     		ldr	r3, .L48+24
 816 00f6 114A     		ldr	r2, .L48+24
 817 00f8 1268     		ldr	r2, [r2]
 818 00fa 5200     		lsl	r2, r2, #1
 819 00fc 5208     		lsr	r2, r2, #1
 820 00fe 1A60     		str	r2, [r3]
 821 0100 0E4A     		ldr	r2, .L48+24
 822 0102 0E4B     		ldr	r3, .L48+24
 823 0104 1968     		ldr	r1, [r3]
 824 0106 8023     		mov	r3, #128
 825 0108 1B06     		lsl	r3, r3, #24
ARM GAS  C:\Users\srvs\AppData\Local\Temp\cc5vvGHT.s 			page 24


 826 010a 0B43     		orr	r3, r3, r1
 827 010c 1360     		str	r3, [r2]
 483:.\Generated_Source\PSoC4/I2CM_I2C_MASTER.c ****             CyExitCriticalSection(enableInterrupts);
 828              		.loc 1 483 0
 829 010e 3B1C     		mov	r3, r7
 830 0110 0F33     		add	r3, r3, #15
 831 0112 1B78     		ldrb	r3, [r3]
 832 0114 181C     		mov	r0, r3
 833 0116 FFF7FEFF 		bl	CyExitCriticalSection
 834              	.L38:
 484:.\Generated_Source\PSoC4/I2CM_I2C_MASTER.c ****         }
 485:.\Generated_Source\PSoC4/I2CM_I2C_MASTER.c ****     }
 486:.\Generated_Source\PSoC4/I2CM_I2C_MASTER.c **** 
 487:.\Generated_Source\PSoC4/I2CM_I2C_MASTER.c ****     return(errStatus);
 835              		.loc 1 487 0
 836 011a BB68     		ldr	r3, [r7, #8]
 488:.\Generated_Source\PSoC4/I2CM_I2C_MASTER.c **** }
 837              		.loc 1 488 0
 838 011c 181C     		mov	r0, r3
 839 011e BD46     		mov	sp, r7
 840 0120 04B0     		add	sp, sp, #16
 841              		@ sp needed for prologue
 842 0122 80BD     		pop	{r7, pc}
 843              	.L49:
 844              		.align	2
 845              	.L48:
 846 0124 00000000 		.word	I2CM_state
 847 0128 000F0740 		.word	1074204416
 848 012c 17030000 		.word	791
 849 0130 68000740 		.word	1074200680
 850 0134 40020740 		.word	1074201152
 851 0138 07010000 		.word	263
 852 013c 00000740 		.word	1074200576
 853              		.cfi_endproc
 854              	.LFE3:
 855              		.size	I2CM_I2CMasterSendRestart, .-I2CM_I2CMasterSendRestart
 856              		.section	.text.I2CM_I2CMasterSendStop,"ax",%progbits
 857              		.align	2
 858              		.global	I2CM_I2CMasterSendStop
 859              		.code	16
 860              		.thumb_func
 861              		.type	I2CM_I2CMasterSendStop, %function
 862              	I2CM_I2CMasterSendStop:
 863              	.LFB4:
 489:.\Generated_Source\PSoC4/I2CM_I2C_MASTER.c **** 
 490:.\Generated_Source\PSoC4/I2CM_I2C_MASTER.c **** 
 491:.\Generated_Source\PSoC4/I2CM_I2C_MASTER.c **** /*******************************************************************************
 492:.\Generated_Source\PSoC4/I2CM_I2C_MASTER.c **** * Function Name: I2CM_I2CMasterSendStop
 493:.\Generated_Source\PSoC4/I2CM_I2C_MASTER.c **** ********************************************************************************
 494:.\Generated_Source\PSoC4/I2CM_I2C_MASTER.c **** *
 495:.\Generated_Source\PSoC4/I2CM_I2C_MASTER.c **** * Summary:
 496:.\Generated_Source\PSoC4/I2CM_I2C_MASTER.c **** *  Generates I2C Stop condition on bus. Function do nothing if Start or Restart
 497:.\Generated_Source\PSoC4/I2CM_I2C_MASTER.c **** *  condition was failed before call this function.
 498:.\Generated_Source\PSoC4/I2CM_I2C_MASTER.c **** *
 499:.\Generated_Source\PSoC4/I2CM_I2C_MASTER.c **** * Parameters:
 500:.\Generated_Source\PSoC4/I2CM_I2C_MASTER.c **** *  None
 501:.\Generated_Source\PSoC4/I2CM_I2C_MASTER.c **** *
ARM GAS  C:\Users\srvs\AppData\Local\Temp\cc5vvGHT.s 			page 25


 502:.\Generated_Source\PSoC4/I2CM_I2C_MASTER.c **** * Return:
 503:.\Generated_Source\PSoC4/I2CM_I2C_MASTER.c **** *  Status error - zero means no errors.
 504:.\Generated_Source\PSoC4/I2CM_I2C_MASTER.c **** *
 505:.\Generated_Source\PSoC4/I2CM_I2C_MASTER.c **** * Side Effects:
 506:.\Generated_Source\PSoC4/I2CM_I2C_MASTER.c **** *  The Stop generation is required to complete transaction.
 507:.\Generated_Source\PSoC4/I2CM_I2C_MASTER.c **** *  This function does not wait while Stop condition will be generated.
 508:.\Generated_Source\PSoC4/I2CM_I2C_MASTER.c **** *
 509:.\Generated_Source\PSoC4/I2CM_I2C_MASTER.c **** * Global variables:
 510:.\Generated_Source\PSoC4/I2CM_I2C_MASTER.c **** *  I2CM_state - used to store current state of software FSM.
 511:.\Generated_Source\PSoC4/I2CM_I2C_MASTER.c **** *
 512:.\Generated_Source\PSoC4/I2CM_I2C_MASTER.c **** *******************************************************************************/
 513:.\Generated_Source\PSoC4/I2CM_I2C_MASTER.c **** uint32 I2CM_I2CMasterSendStop(void)
 514:.\Generated_Source\PSoC4/I2CM_I2C_MASTER.c **** {
 864              		.loc 1 514 0
 865              		.cfi_startproc
 866 0000 80B5     		push	{r7, lr}
 867              	.LCFI12:
 868              		.cfi_def_cfa_offset 8
 869              		.cfi_offset 7, -8
 870              		.cfi_offset 14, -4
 871 0002 82B0     		sub	sp, sp, #8
 872              	.LCFI13:
 873              		.cfi_def_cfa_offset 16
 874 0004 00AF     		add	r7, sp, #0
 875              	.LCFI14:
 876              		.cfi_def_cfa_register 7
 515:.\Generated_Source\PSoC4/I2CM_I2C_MASTER.c ****     uint32 errStatus;
 516:.\Generated_Source\PSoC4/I2CM_I2C_MASTER.c ****     uint8  enableInterrupts;
 517:.\Generated_Source\PSoC4/I2CM_I2C_MASTER.c **** 
 518:.\Generated_Source\PSoC4/I2CM_I2C_MASTER.c ****     errStatus        = I2CM_I2C_MSTR_NOT_READY;
 877              		.loc 1 518 0
 878 0006 0423     		mov	r3, #4
 879 0008 3B60     		str	r3, [r7]
 519:.\Generated_Source\PSoC4/I2CM_I2C_MASTER.c ****     enableInterrupts = 0u;
 880              		.loc 1 519 0
 881 000a FB1D     		add	r3, r7, #7
 882 000c 0022     		mov	r2, #0
 883 000e 1A70     		strb	r2, [r3]
 520:.\Generated_Source\PSoC4/I2CM_I2C_MASTER.c **** 
 521:.\Generated_Source\PSoC4/I2CM_I2C_MASTER.c ****     /* Check FSM state before generate Stop condition */
 522:.\Generated_Source\PSoC4/I2CM_I2C_MASTER.c ****     if(I2CM_CHECK_I2C_MASTER_ACTIVE)
 884              		.loc 1 522 0
 885 0010 2E4B     		ldr	r3, .L60
 886 0012 1B78     		ldrb	r3, [r3]
 887 0014 DBB2     		uxtb	r3, r3
 888 0016 1A1C     		mov	r2, r3
 889 0018 2023     		mov	r3, #32
 890 001a 1340     		and	r3, r3, r2
 891 001c 002B     		cmp	r3, #0
 892 001e 4FD0     		beq	.L51
 523:.\Generated_Source\PSoC4/I2CM_I2C_MASTER.c ****     {
 524:.\Generated_Source\PSoC4/I2CM_I2C_MASTER.c ****         /*
 525:.\Generated_Source\PSoC4/I2CM_I2C_MASTER.c ****         * Write direction: generates Stop
 526:.\Generated_Source\PSoC4/I2CM_I2C_MASTER.c ****         * Read  direction: generates NACK and Stop
 527:.\Generated_Source\PSoC4/I2CM_I2C_MASTER.c ****         */
 528:.\Generated_Source\PSoC4/I2CM_I2C_MASTER.c ****         I2CM_I2C_MASTER_GENERATE_STOP;
 893              		.loc 1 528 0
ARM GAS  C:\Users\srvs\AppData\Local\Temp\cc5vvGHT.s 			page 26


 894 0020 2B4B     		ldr	r3, .L60+4
 895 0022 2C4A     		ldr	r2, .L60+8
 896 0024 1168     		ldr	r1, [r2]
 897 0026 2022     		mov	r2, #32
 898 0028 0A40     		and	r2, r2, r1
 899 002a 002A     		cmp	r2, #0
 900 002c 01D0     		beq	.L52
 901 002e 1822     		mov	r2, #24
 902 0030 00E0     		b	.L53
 903              	.L52:
 904 0032 1022     		mov	r2, #16
 905              	.L53:
 906 0034 1A60     		str	r2, [r3]
 907              	.L54:
 529:.\Generated_Source\PSoC4/I2CM_I2C_MASTER.c **** 
 530:.\Generated_Source\PSoC4/I2CM_I2C_MASTER.c ****         while(!I2CM_CHECK_INTR_MASTER(I2CM_INTR_MASTER_I2C_STOP     |
 908              		.loc 1 530 0
 909 0036 284B     		ldr	r3, .L60+12
 910 0038 1A68     		ldr	r2, [r3]
 911 003a 284B     		ldr	r3, .L60+16
 912 003c 1340     		and	r3, r3, r2
 913 003e 002B     		cmp	r3, #0
 914 0040 F9D0     		beq	.L54
 531:.\Generated_Source\PSoC4/I2CM_I2C_MASTER.c ****                                                   I2CM_INTR_MASTER_I2C_ARB_LOST |
 532:.\Generated_Source\PSoC4/I2CM_I2C_MASTER.c ****                                                   I2CM_INTR_MASTER_I2C_BUS_ERROR))
 533:.\Generated_Source\PSoC4/I2CM_I2C_MASTER.c ****         {
 534:.\Generated_Source\PSoC4/I2CM_I2C_MASTER.c ****             /* Wait until Stop will be generated */
 535:.\Generated_Source\PSoC4/I2CM_I2C_MASTER.c ****         }
 536:.\Generated_Source\PSoC4/I2CM_I2C_MASTER.c **** 
 537:.\Generated_Source\PSoC4/I2CM_I2C_MASTER.c ****         /* 
 538:.\Generated_Source\PSoC4/I2CM_I2C_MASTER.c ****         * Check what was actually generated.
 539:.\Generated_Source\PSoC4/I2CM_I2C_MASTER.c ****         *  LOST_ARB - NACK generation: the other master can drive ACK.
 540:.\Generated_Source\PSoC4/I2CM_I2C_MASTER.c ****         *           - Misplaced Start while NACK generation.
 541:.\Generated_Source\PSoC4/I2CM_I2C_MASTER.c ****         *           - Undefiend lost arbitration conditions.
 542:.\Generated_Source\PSoC4/I2CM_I2C_MASTER.c ****         *  BUS_ERR  - added just in case undefined lost arbitration.
 543:.\Generated_Source\PSoC4/I2CM_I2C_MASTER.c ****         *  Reset SCB on either LOST_ARB or BUS_ERR as both could be caused by
 544:.\Generated_Source\PSoC4/I2CM_I2C_MASTER.c ****         *  misplaced Start event to reset bus busy.
 545:.\Generated_Source\PSoC4/I2CM_I2C_MASTER.c ****         */  
 546:.\Generated_Source\PSoC4/I2CM_I2C_MASTER.c ****         if(I2CM_CHECK_INTR_MASTER(I2CM_INTR_MASTER_I2C_STOP))
 915              		.loc 1 546 0
 916 0042 254B     		ldr	r3, .L60+12
 917 0044 1A68     		ldr	r2, [r3]
 918 0046 1023     		mov	r3, #16
 919 0048 1340     		and	r3, r3, r2
 920 004a 002B     		cmp	r3, #0
 921 004c 02D0     		beq	.L55
 547:.\Generated_Source\PSoC4/I2CM_I2C_MASTER.c ****         {
 548:.\Generated_Source\PSoC4/I2CM_I2C_MASTER.c ****             errStatus = I2CM_I2C_MSTR_NO_ERROR;
 922              		.loc 1 548 0
 923 004e 0023     		mov	r3, #0
 924 0050 3B60     		str	r3, [r7]
 925 0052 13E0     		b	.L56
 926              	.L55:
 549:.\Generated_Source\PSoC4/I2CM_I2C_MASTER.c ****         }
 550:.\Generated_Source\PSoC4/I2CM_I2C_MASTER.c ****         else if(I2CM_CHECK_INTR_MASTER(I2CM_INTR_MASTER_I2C_ARB_LOST))
 927              		.loc 1 550 0
 928 0054 204B     		ldr	r3, .L60+12
ARM GAS  C:\Users\srvs\AppData\Local\Temp\cc5vvGHT.s 			page 27


 929 0056 1B68     		ldr	r3, [r3]
 930 0058 1A1C     		mov	r2, r3
 931 005a 0123     		mov	r3, #1
 932 005c 1340     		and	r3, r3, r2
 933 005e DBB2     		uxtb	r3, r3
 934 0060 002B     		cmp	r3, #0
 935 0062 05D0     		beq	.L57
 551:.\Generated_Source\PSoC4/I2CM_I2C_MASTER.c ****         {
 552:.\Generated_Source\PSoC4/I2CM_I2C_MASTER.c ****                          errStatus = I2CM_I2C_MSTR_ERR_ARB_LOST;
 936              		.loc 1 552 0
 937 0064 0123     		mov	r3, #1
 938 0066 3B60     		str	r3, [r7]
 553:.\Generated_Source\PSoC4/I2CM_I2C_MASTER.c ****                   enableInterrupts = I2CM_I2C_RESET_ERROR;
 939              		.loc 1 553 0
 940 0068 FB1D     		add	r3, r7, #7
 941 006a 0122     		mov	r2, #1
 942 006c 1A70     		strb	r2, [r3]
 943 006e 05E0     		b	.L56
 944              	.L57:
 554:.\Generated_Source\PSoC4/I2CM_I2C_MASTER.c ****         }
 555:.\Generated_Source\PSoC4/I2CM_I2C_MASTER.c ****         else /* I2CM_INTR_MASTER_I2C_BUS_ERROR set is else condition */
 556:.\Generated_Source\PSoC4/I2CM_I2C_MASTER.c ****         {
 557:.\Generated_Source\PSoC4/I2CM_I2C_MASTER.c ****                          errStatus = I2CM_I2C_MSTR_ERR_BUS_ERR;
 945              		.loc 1 557 0
 946 0070 8023     		mov	r3, #128
 947 0072 5B00     		lsl	r3, r3, #1
 948 0074 3B60     		str	r3, [r7]
 558:.\Generated_Source\PSoC4/I2CM_I2C_MASTER.c ****                   enableInterrupts = I2CM_I2C_RESET_ERROR;
 949              		.loc 1 558 0
 950 0076 FB1D     		add	r3, r7, #7
 951 0078 0122     		mov	r2, #1
 952 007a 1A70     		strb	r2, [r3]
 953              	.L56:
 559:.\Generated_Source\PSoC4/I2CM_I2C_MASTER.c ****         }
 560:.\Generated_Source\PSoC4/I2CM_I2C_MASTER.c ****         
 561:.\Generated_Source\PSoC4/I2CM_I2C_MASTER.c ****         I2CM_ClearMasterInterruptSource(I2CM_INTR_MASTER_I2C_STOP     |
 954              		.loc 1 561 0
 955 007c 164B     		ldr	r3, .L60+12
 956 007e 174A     		ldr	r2, .L60+16
 957 0080 1A60     		str	r2, [r3]
 562:.\Generated_Source\PSoC4/I2CM_I2C_MASTER.c ****                                                     I2CM_INTR_MASTER_I2C_ARB_LOST |
 563:.\Generated_Source\PSoC4/I2CM_I2C_MASTER.c ****                                                     I2CM_INTR_MASTER_I2C_BUS_ERROR);
 564:.\Generated_Source\PSoC4/I2CM_I2C_MASTER.c ****         
 565:.\Generated_Source\PSoC4/I2CM_I2C_MASTER.c ****         /* Reset block in case of: LOST_ARB or BUS_ERR */
 566:.\Generated_Source\PSoC4/I2CM_I2C_MASTER.c ****         if(0u != enableInterrupts)
 958              		.loc 1 566 0
 959 0082 FB1D     		add	r3, r7, #7
 960 0084 1B78     		ldrb	r3, [r3]
 961 0086 002B     		cmp	r3, #0
 962 0088 17D0     		beq	.L58
 567:.\Generated_Source\PSoC4/I2CM_I2C_MASTER.c ****         {
 568:.\Generated_Source\PSoC4/I2CM_I2C_MASTER.c ****             enableInterrupts = CyEnterCriticalSection();
 963              		.loc 1 568 0
 964 008a FFF7FEFF 		bl	CyEnterCriticalSection
 965 008e 031C     		mov	r3, r0
 966 0090 1A1C     		mov	r2, r3
 967 0092 FB1D     		add	r3, r7, #7
ARM GAS  C:\Users\srvs\AppData\Local\Temp\cc5vvGHT.s 			page 28


 968 0094 1A70     		strb	r2, [r3]
 569:.\Generated_Source\PSoC4/I2CM_I2C_MASTER.c ****             I2CM_SCB_SW_RESET;
 969              		.loc 1 569 0
 970 0096 124B     		ldr	r3, .L60+20
 971 0098 114A     		ldr	r2, .L60+20
 972 009a 1268     		ldr	r2, [r2]
 973 009c 5200     		lsl	r2, r2, #1
 974 009e 5208     		lsr	r2, r2, #1
 975 00a0 1A60     		str	r2, [r3]
 976 00a2 0F4A     		ldr	r2, .L60+20
 977 00a4 0E4B     		ldr	r3, .L60+20
 978 00a6 1968     		ldr	r1, [r3]
 979 00a8 8023     		mov	r3, #128
 980 00aa 1B06     		lsl	r3, r3, #24
 981 00ac 0B43     		orr	r3, r3, r1
 982 00ae 1360     		str	r3, [r2]
 570:.\Generated_Source\PSoC4/I2CM_I2C_MASTER.c ****             CyExitCriticalSection(enableInterrupts);
 983              		.loc 1 570 0
 984 00b0 FB1D     		add	r3, r7, #7
 985 00b2 1B78     		ldrb	r3, [r3]
 986 00b4 181C     		mov	r0, r3
 987 00b6 FFF7FEFF 		bl	CyExitCriticalSection
 988              	.L58:
 571:.\Generated_Source\PSoC4/I2CM_I2C_MASTER.c ****         }
 572:.\Generated_Source\PSoC4/I2CM_I2C_MASTER.c ****         
 573:.\Generated_Source\PSoC4/I2CM_I2C_MASTER.c ****         I2CM_state = I2CM_I2C_FSM_IDLE;
 989              		.loc 1 573 0
 990 00ba 044B     		ldr	r3, .L60
 991 00bc 1022     		mov	r2, #16
 992 00be 1A70     		strb	r2, [r3]
 993              	.L51:
 574:.\Generated_Source\PSoC4/I2CM_I2C_MASTER.c ****     }
 575:.\Generated_Source\PSoC4/I2CM_I2C_MASTER.c **** 
 576:.\Generated_Source\PSoC4/I2CM_I2C_MASTER.c ****     return(errStatus);
 994              		.loc 1 576 0
 995 00c0 3B68     		ldr	r3, [r7]
 577:.\Generated_Source\PSoC4/I2CM_I2C_MASTER.c **** }
 996              		.loc 1 577 0
 997 00c2 181C     		mov	r0, r3
 998 00c4 BD46     		mov	sp, r7
 999 00c6 02B0     		add	sp, sp, #8
 1000              		@ sp needed for prologue
 1001 00c8 80BD     		pop	{r7, pc}
 1002              	.L61:
 1003 00ca C046     		.align	2
 1004              	.L60:
 1005 00cc 00000000 		.word	I2CM_state
 1006 00d0 68000740 		.word	1074200680
 1007 00d4 64000740 		.word	1074200676
 1008 00d8 000F0740 		.word	1074204416
 1009 00dc 11010000 		.word	273
 1010 00e0 00000740 		.word	1074200576
 1011              		.cfi_endproc
 1012              	.LFE4:
 1013              		.size	I2CM_I2CMasterSendStop, .-I2CM_I2CMasterSendStop
 1014              		.section	.text.I2CM_I2CMasterWriteByte,"ax",%progbits
 1015              		.align	2
ARM GAS  C:\Users\srvs\AppData\Local\Temp\cc5vvGHT.s 			page 29


 1016              		.global	I2CM_I2CMasterWriteByte
 1017              		.code	16
 1018              		.thumb_func
 1019              		.type	I2CM_I2CMasterWriteByte, %function
 1020              	I2CM_I2CMasterWriteByte:
 1021              	.LFB5:
 578:.\Generated_Source\PSoC4/I2CM_I2C_MASTER.c **** 
 579:.\Generated_Source\PSoC4/I2CM_I2C_MASTER.c **** 
 580:.\Generated_Source\PSoC4/I2CM_I2C_MASTER.c **** /*******************************************************************************
 581:.\Generated_Source\PSoC4/I2CM_I2C_MASTER.c **** * Function Name: I2CM_I2CMasterWriteByte
 582:.\Generated_Source\PSoC4/I2CM_I2C_MASTER.c **** ********************************************************************************
 583:.\Generated_Source\PSoC4/I2CM_I2C_MASTER.c **** *
 584:.\Generated_Source\PSoC4/I2CM_I2C_MASTER.c **** * Summary:
 585:.\Generated_Source\PSoC4/I2CM_I2C_MASTER.c **** *  Sends one byte to a slave. A valid Start or ReStart condition must be
 586:.\Generated_Source\PSoC4/I2CM_I2C_MASTER.c **** *  generated before this call this function. Function do nothing if Start or
 587:.\Generated_Source\PSoC4/I2CM_I2C_MASTER.c **** *  Restart condition was failed before call this function.
 588:.\Generated_Source\PSoC4/I2CM_I2C_MASTER.c **** *
 589:.\Generated_Source\PSoC4/I2CM_I2C_MASTER.c **** * Parameters:
 590:.\Generated_Source\PSoC4/I2CM_I2C_MASTER.c **** *  data:  The data byte to send to the slave.
 591:.\Generated_Source\PSoC4/I2CM_I2C_MASTER.c **** *
 592:.\Generated_Source\PSoC4/I2CM_I2C_MASTER.c **** * Return:
 593:.\Generated_Source\PSoC4/I2CM_I2C_MASTER.c **** *  Status error - zero means no errors.
 594:.\Generated_Source\PSoC4/I2CM_I2C_MASTER.c **** *
 595:.\Generated_Source\PSoC4/I2CM_I2C_MASTER.c **** * Side Effects:
 596:.\Generated_Source\PSoC4/I2CM_I2C_MASTER.c **** *  This function is entered without a 'byte complete' bit set in the I2C_CSR
 597:.\Generated_Source\PSoC4/I2CM_I2C_MASTER.c **** *  register. It does not exit until it will be set.
 598:.\Generated_Source\PSoC4/I2CM_I2C_MASTER.c **** *
 599:.\Generated_Source\PSoC4/I2CM_I2C_MASTER.c **** * Global variables:
 600:.\Generated_Source\PSoC4/I2CM_I2C_MASTER.c **** *  I2CM_state - used to store current state of software FSM.
 601:.\Generated_Source\PSoC4/I2CM_I2C_MASTER.c **** *
 602:.\Generated_Source\PSoC4/I2CM_I2C_MASTER.c **** *******************************************************************************/
 603:.\Generated_Source\PSoC4/I2CM_I2C_MASTER.c **** uint32 I2CM_I2CMasterWriteByte(uint32 theByte)
 604:.\Generated_Source\PSoC4/I2CM_I2C_MASTER.c **** {
 1022              		.loc 1 604 0
 1023              		.cfi_startproc
 1024 0000 80B5     		push	{r7, lr}
 1025              	.LCFI15:
 1026              		.cfi_def_cfa_offset 8
 1027              		.cfi_offset 7, -8
 1028              		.cfi_offset 14, -4
 1029 0002 84B0     		sub	sp, sp, #16
 1030              	.LCFI16:
 1031              		.cfi_def_cfa_offset 24
 1032 0004 00AF     		add	r7, sp, #0
 1033              	.LCFI17:
 1034              		.cfi_def_cfa_register 7
 1035 0006 7860     		str	r0, [r7, #4]
 605:.\Generated_Source\PSoC4/I2CM_I2C_MASTER.c ****     uint32 errStatus;
 606:.\Generated_Source\PSoC4/I2CM_I2C_MASTER.c ****     uint8  enableInterrupts;
 607:.\Generated_Source\PSoC4/I2CM_I2C_MASTER.c **** 
 608:.\Generated_Source\PSoC4/I2CM_I2C_MASTER.c ****     errStatus        = I2CM_I2C_MSTR_NOT_READY;
 1036              		.loc 1 608 0
 1037 0008 0423     		mov	r3, #4
 1038 000a BB60     		str	r3, [r7, #8]
 609:.\Generated_Source\PSoC4/I2CM_I2C_MASTER.c ****     enableInterrupts = 0u;
 1039              		.loc 1 609 0
 1040 000c 3B1C     		mov	r3, r7
ARM GAS  C:\Users\srvs\AppData\Local\Temp\cc5vvGHT.s 			page 30


 1041 000e 0F33     		add	r3, r3, #15
 1042 0010 0022     		mov	r2, #0
 1043 0012 1A70     		strb	r2, [r3]
 610:.\Generated_Source\PSoC4/I2CM_I2C_MASTER.c **** 
 611:.\Generated_Source\PSoC4/I2CM_I2C_MASTER.c ****     /* Check FSM state before write byte */
 612:.\Generated_Source\PSoC4/I2CM_I2C_MASTER.c ****     if(I2CM_CHECK_I2C_MASTER_ACTIVE)
 1044              		.loc 1 612 0
 1045 0014 354B     		ldr	r3, .L70
 1046 0016 1B78     		ldrb	r3, [r3]
 1047 0018 DBB2     		uxtb	r3, r3
 1048 001a 1A1C     		mov	r2, r3
 1049 001c 2023     		mov	r3, #32
 1050 001e 1340     		and	r3, r3, r2
 1051 0020 002B     		cmp	r3, #0
 1052 0022 5ED0     		beq	.L63
 613:.\Generated_Source\PSoC4/I2CM_I2C_MASTER.c ****     {
 614:.\Generated_Source\PSoC4/I2CM_I2C_MASTER.c ****         I2CM_TX_FIFO_WR_REG = theByte;
 1053              		.loc 1 614 0
 1054 0024 324B     		ldr	r3, .L70+4
 1055 0026 7A68     		ldr	r2, [r7, #4]
 1056 0028 1A60     		str	r2, [r3]
 1057              	.L64:
 615:.\Generated_Source\PSoC4/I2CM_I2C_MASTER.c **** 
 616:.\Generated_Source\PSoC4/I2CM_I2C_MASTER.c ****         while(!I2CM_CHECK_INTR_MASTER(I2CM_INTR_MASTER_I2C_ACK      |
 1058              		.loc 1 616 0
 1059 002a 324B     		ldr	r3, .L70+8
 1060 002c 1A68     		ldr	r2, [r3]
 1061 002e 324B     		ldr	r3, .L70+12
 1062 0030 1340     		and	r3, r3, r2
 1063 0032 002B     		cmp	r3, #0
 1064 0034 F9D0     		beq	.L64
 617:.\Generated_Source\PSoC4/I2CM_I2C_MASTER.c ****                                                   I2CM_INTR_MASTER_I2C_NACK     |
 618:.\Generated_Source\PSoC4/I2CM_I2C_MASTER.c ****                                                   I2CM_INTR_MASTER_I2C_ARB_LOST | 
 619:.\Generated_Source\PSoC4/I2CM_I2C_MASTER.c ****                                                   I2CM_INTR_MASTER_I2C_BUS_ERROR))
 620:.\Generated_Source\PSoC4/I2CM_I2C_MASTER.c ****         {
 621:.\Generated_Source\PSoC4/I2CM_I2C_MASTER.c ****             /* Wait until byte will be transfered */
 622:.\Generated_Source\PSoC4/I2CM_I2C_MASTER.c ****         }
 623:.\Generated_Source\PSoC4/I2CM_I2C_MASTER.c **** 
 624:.\Generated_Source\PSoC4/I2CM_I2C_MASTER.c ****         /*
 625:.\Generated_Source\PSoC4/I2CM_I2C_MASTER.c ****         * Check results after byte was sent.
 626:.\Generated_Source\PSoC4/I2CM_I2C_MASTER.c ****         *  LOST_ARB - SDA line is not match to what master drives: 
 627:.\Generated_Source\PSoC4/I2CM_I2C_MASTER.c ****         *  lost arbitration or misplaced Start. Place: 8-bits of data.
 628:.\Generated_Source\PSoC4/I2CM_I2C_MASTER.c ****         *  The misplaced Start is possible when SCB drives SDA 1 and it changes to 0, when SCL is 1
 629:.\Generated_Source\PSoC4/I2CM_I2C_MASTER.c ****         *  BUS_ERR - misplaced Start or Stop when Slave drives. Place: ACK/NACK bit.
 630:.\Generated_Source\PSoC4/I2CM_I2C_MASTER.c ****         *  The misplaced Start or Stop causes the bus idle status to get stuck to busy.
 631:.\Generated_Source\PSoC4/I2CM_I2C_MASTER.c ****         *  The misplaced Start is possible when SCB drives SCL 1 and it changes 
 632:.\Generated_Source\PSoC4/I2CM_I2C_MASTER.c ****         *  from 1 to 0 (Start) or 0 to 1 (Stop).
 633:.\Generated_Source\PSoC4/I2CM_I2C_MASTER.c ****         *  Reset SCB on either LOST_ARB or BUS_ERR as both could be caused by
 634:.\Generated_Source\PSoC4/I2CM_I2C_MASTER.c ****         *  misplaced Start event to reset bus busy.
 635:.\Generated_Source\PSoC4/I2CM_I2C_MASTER.c ****         */
 636:.\Generated_Source\PSoC4/I2CM_I2C_MASTER.c ****         if(I2CM_CHECK_INTR_MASTER(I2CM_INTR_MASTER_I2C_ACK))
 1065              		.loc 1 636 0
 1066 0036 2F4B     		ldr	r3, .L70+8
 1067 0038 1A68     		ldr	r2, [r3]
 1068 003a 0423     		mov	r3, #4
 1069 003c 1340     		and	r3, r3, r2
 1070 003e 002B     		cmp	r3, #0
ARM GAS  C:\Users\srvs\AppData\Local\Temp\cc5vvGHT.s 			page 31


 1071 0040 05D0     		beq	.L65
 637:.\Generated_Source\PSoC4/I2CM_I2C_MASTER.c ****         {
 638:.\Generated_Source\PSoC4/I2CM_I2C_MASTER.c ****             I2CM_state = I2CM_I2C_FSM_MSTR_HALT;
 1072              		.loc 1 638 0
 1073 0042 2A4B     		ldr	r3, .L70
 1074 0044 6022     		mov	r2, #96
 1075 0046 1A70     		strb	r2, [r3]
 639:.\Generated_Source\PSoC4/I2CM_I2C_MASTER.c ****                          errStatus = I2CM_I2C_MSTR_NO_ERROR;
 1076              		.loc 1 639 0
 1077 0048 0023     		mov	r3, #0
 1078 004a BB60     		str	r3, [r7, #8]
 1079 004c 27E0     		b	.L66
 1080              	.L65:
 640:.\Generated_Source\PSoC4/I2CM_I2C_MASTER.c ****         }
 641:.\Generated_Source\PSoC4/I2CM_I2C_MASTER.c ****         else if(I2CM_CHECK_INTR_MASTER(I2CM_INTR_MASTER_I2C_NACK))
 1081              		.loc 1 641 0
 1082 004e 294B     		ldr	r3, .L70+8
 1083 0050 1A68     		ldr	r2, [r3]
 1084 0052 0223     		mov	r3, #2
 1085 0054 1340     		and	r3, r3, r2
 1086 0056 002B     		cmp	r3, #0
 1087 0058 05D0     		beq	.L67
 642:.\Generated_Source\PSoC4/I2CM_I2C_MASTER.c ****         {
 643:.\Generated_Source\PSoC4/I2CM_I2C_MASTER.c ****             I2CM_state = I2CM_I2C_FSM_MSTR_HALT;
 1088              		.loc 1 643 0
 1089 005a 244B     		ldr	r3, .L70
 1090 005c 6022     		mov	r2, #96
 1091 005e 1A70     		strb	r2, [r3]
 644:.\Generated_Source\PSoC4/I2CM_I2C_MASTER.c ****                          errStatus = I2CM_I2C_MSTR_ERR_LB_NAK;
 1092              		.loc 1 644 0
 1093 0060 0223     		mov	r3, #2
 1094 0062 BB60     		str	r3, [r7, #8]
 1095 0064 1BE0     		b	.L66
 1096              	.L67:
 645:.\Generated_Source\PSoC4/I2CM_I2C_MASTER.c ****         }
 646:.\Generated_Source\PSoC4/I2CM_I2C_MASTER.c ****         else if(I2CM_CHECK_INTR_MASTER(I2CM_INTR_MASTER_I2C_ARB_LOST))
 1097              		.loc 1 646 0
 1098 0066 234B     		ldr	r3, .L70+8
 1099 0068 1B68     		ldr	r3, [r3]
 1100 006a 1A1C     		mov	r2, r3
 1101 006c 0123     		mov	r3, #1
 1102 006e 1340     		and	r3, r3, r2
 1103 0070 DBB2     		uxtb	r3, r3
 1104 0072 002B     		cmp	r3, #0
 1105 0074 09D0     		beq	.L68
 647:.\Generated_Source\PSoC4/I2CM_I2C_MASTER.c ****         {
 648:.\Generated_Source\PSoC4/I2CM_I2C_MASTER.c ****             I2CM_state = I2CM_I2C_FSM_IDLE;
 1106              		.loc 1 648 0
 1107 0076 1D4B     		ldr	r3, .L70
 1108 0078 1022     		mov	r2, #16
 1109 007a 1A70     		strb	r2, [r3]
 649:.\Generated_Source\PSoC4/I2CM_I2C_MASTER.c ****                          errStatus = I2CM_I2C_MSTR_ERR_ARB_LOST;
 1110              		.loc 1 649 0
 1111 007c 0123     		mov	r3, #1
 1112 007e BB60     		str	r3, [r7, #8]
 650:.\Generated_Source\PSoC4/I2CM_I2C_MASTER.c ****                   enableInterrupts = I2CM_I2C_RESET_ERROR;
 1113              		.loc 1 650 0
ARM GAS  C:\Users\srvs\AppData\Local\Temp\cc5vvGHT.s 			page 32


 1114 0080 3B1C     		mov	r3, r7
 1115 0082 0F33     		add	r3, r3, #15
 1116 0084 0122     		mov	r2, #1
 1117 0086 1A70     		strb	r2, [r3]
 1118 0088 09E0     		b	.L66
 1119              	.L68:
 651:.\Generated_Source\PSoC4/I2CM_I2C_MASTER.c ****         }
 652:.\Generated_Source\PSoC4/I2CM_I2C_MASTER.c ****         else /* I2CM_INTR_MASTER_I2C_BUS_ERROR set is else condition */
 653:.\Generated_Source\PSoC4/I2CM_I2C_MASTER.c ****         {
 654:.\Generated_Source\PSoC4/I2CM_I2C_MASTER.c ****             I2CM_state = I2CM_I2C_FSM_IDLE;
 1120              		.loc 1 654 0
 1121 008a 184B     		ldr	r3, .L70
 1122 008c 1022     		mov	r2, #16
 1123 008e 1A70     		strb	r2, [r3]
 655:.\Generated_Source\PSoC4/I2CM_I2C_MASTER.c ****                          errStatus = I2CM_I2C_MSTR_ERR_BUS_ERR;
 1124              		.loc 1 655 0
 1125 0090 8023     		mov	r3, #128
 1126 0092 5B00     		lsl	r3, r3, #1
 1127 0094 BB60     		str	r3, [r7, #8]
 656:.\Generated_Source\PSoC4/I2CM_I2C_MASTER.c ****                   enableInterrupts = I2CM_I2C_RESET_ERROR;
 1128              		.loc 1 656 0
 1129 0096 3B1C     		mov	r3, r7
 1130 0098 0F33     		add	r3, r3, #15
 1131 009a 0122     		mov	r2, #1
 1132 009c 1A70     		strb	r2, [r3]
 1133              	.L66:
 657:.\Generated_Source\PSoC4/I2CM_I2C_MASTER.c ****         }
 658:.\Generated_Source\PSoC4/I2CM_I2C_MASTER.c **** 
 659:.\Generated_Source\PSoC4/I2CM_I2C_MASTER.c ****         I2CM_ClearMasterInterruptSource(I2CM_INTR_MASTER_I2C_ACK      |
 1134              		.loc 1 659 0
 1135 009e 154B     		ldr	r3, .L70+8
 1136 00a0 154A     		ldr	r2, .L70+12
 1137 00a2 1A60     		str	r2, [r3]
 660:.\Generated_Source\PSoC4/I2CM_I2C_MASTER.c ****                                                     I2CM_INTR_MASTER_I2C_NACK     |
 661:.\Generated_Source\PSoC4/I2CM_I2C_MASTER.c ****                                                     I2CM_INTR_MASTER_I2C_ARB_LOST |
 662:.\Generated_Source\PSoC4/I2CM_I2C_MASTER.c ****                                                     I2CM_INTR_MASTER_I2C_BUS_ERROR);
 663:.\Generated_Source\PSoC4/I2CM_I2C_MASTER.c ****         
 664:.\Generated_Source\PSoC4/I2CM_I2C_MASTER.c ****         /* Reset block in case of: LOST_ARB or BUS_ERR */
 665:.\Generated_Source\PSoC4/I2CM_I2C_MASTER.c ****         if(0u != enableInterrupts)
 1138              		.loc 1 665 0
 1139 00a4 3B1C     		mov	r3, r7
 1140 00a6 0F33     		add	r3, r3, #15
 1141 00a8 1B78     		ldrb	r3, [r3]
 1142 00aa 002B     		cmp	r3, #0
 1143 00ac 19D0     		beq	.L63
 666:.\Generated_Source\PSoC4/I2CM_I2C_MASTER.c ****         {
 667:.\Generated_Source\PSoC4/I2CM_I2C_MASTER.c ****             enableInterrupts = CyEnterCriticalSection();
 1144              		.loc 1 667 0
 1145 00ae FFF7FEFF 		bl	CyEnterCriticalSection
 1146 00b2 031C     		mov	r3, r0
 1147 00b4 1A1C     		mov	r2, r3
 1148 00b6 3B1C     		mov	r3, r7
 1149 00b8 0F33     		add	r3, r3, #15
 1150 00ba 1A70     		strb	r2, [r3]
 668:.\Generated_Source\PSoC4/I2CM_I2C_MASTER.c ****             I2CM_SCB_SW_RESET;
 1151              		.loc 1 668 0
 1152 00bc 0F4B     		ldr	r3, .L70+16
ARM GAS  C:\Users\srvs\AppData\Local\Temp\cc5vvGHT.s 			page 33


 1153 00be 0F4A     		ldr	r2, .L70+16
 1154 00c0 1268     		ldr	r2, [r2]
 1155 00c2 5200     		lsl	r2, r2, #1
 1156 00c4 5208     		lsr	r2, r2, #1
 1157 00c6 1A60     		str	r2, [r3]
 1158 00c8 0C4A     		ldr	r2, .L70+16
 1159 00ca 0C4B     		ldr	r3, .L70+16
 1160 00cc 1968     		ldr	r1, [r3]
 1161 00ce 8023     		mov	r3, #128
 1162 00d0 1B06     		lsl	r3, r3, #24
 1163 00d2 0B43     		orr	r3, r3, r1
 1164 00d4 1360     		str	r3, [r2]
 669:.\Generated_Source\PSoC4/I2CM_I2C_MASTER.c ****             CyExitCriticalSection(enableInterrupts);
 1165              		.loc 1 669 0
 1166 00d6 3B1C     		mov	r3, r7
 1167 00d8 0F33     		add	r3, r3, #15
 1168 00da 1B78     		ldrb	r3, [r3]
 1169 00dc 181C     		mov	r0, r3
 1170 00de FFF7FEFF 		bl	CyExitCriticalSection
 1171              	.L63:
 670:.\Generated_Source\PSoC4/I2CM_I2C_MASTER.c ****         }
 671:.\Generated_Source\PSoC4/I2CM_I2C_MASTER.c ****     }
 672:.\Generated_Source\PSoC4/I2CM_I2C_MASTER.c **** 
 673:.\Generated_Source\PSoC4/I2CM_I2C_MASTER.c ****     return(errStatus);
 1172              		.loc 1 673 0
 1173 00e2 BB68     		ldr	r3, [r7, #8]
 674:.\Generated_Source\PSoC4/I2CM_I2C_MASTER.c **** }
 1174              		.loc 1 674 0
 1175 00e4 181C     		mov	r0, r3
 1176 00e6 BD46     		mov	sp, r7
 1177 00e8 04B0     		add	sp, sp, #16
 1178              		@ sp needed for prologue
 1179 00ea 80BD     		pop	{r7, pc}
 1180              	.L71:
 1181              		.align	2
 1182              	.L70:
 1183 00ec 00000000 		.word	I2CM_state
 1184 00f0 40020740 		.word	1074201152
 1185 00f4 000F0740 		.word	1074204416
 1186 00f8 07010000 		.word	263
 1187 00fc 00000740 		.word	1074200576
 1188              		.cfi_endproc
 1189              	.LFE5:
 1190              		.size	I2CM_I2CMasterWriteByte, .-I2CM_I2CMasterWriteByte
 1191              		.section	.text.I2CM_I2CMasterReadByte,"ax",%progbits
 1192              		.align	2
 1193              		.global	I2CM_I2CMasterReadByte
 1194              		.code	16
 1195              		.thumb_func
 1196              		.type	I2CM_I2CMasterReadByte, %function
 1197              	I2CM_I2CMasterReadByte:
 1198              	.LFB6:
 675:.\Generated_Source\PSoC4/I2CM_I2C_MASTER.c **** 
 676:.\Generated_Source\PSoC4/I2CM_I2C_MASTER.c **** 
 677:.\Generated_Source\PSoC4/I2CM_I2C_MASTER.c **** /*******************************************************************************
 678:.\Generated_Source\PSoC4/I2CM_I2C_MASTER.c **** * Function Name: I2CM_I2CMasterReadByte
 679:.\Generated_Source\PSoC4/I2CM_I2C_MASTER.c **** ********************************************************************************
ARM GAS  C:\Users\srvs\AppData\Local\Temp\cc5vvGHT.s 			page 34


 680:.\Generated_Source\PSoC4/I2CM_I2C_MASTER.c **** *
 681:.\Generated_Source\PSoC4/I2CM_I2C_MASTER.c **** * Summary:
 682:.\Generated_Source\PSoC4/I2CM_I2C_MASTER.c **** *  Reads one byte from a slave and ACK or NACK the transfer. A valid Start or
 683:.\Generated_Source\PSoC4/I2CM_I2C_MASTER.c **** *  ReStart condition must be generated before this call this function. Function
 684:.\Generated_Source\PSoC4/I2CM_I2C_MASTER.c **** *  do nothing if Start or Restart condition was failed before call this
 685:.\Generated_Source\PSoC4/I2CM_I2C_MASTER.c **** *  function.
 686:.\Generated_Source\PSoC4/I2CM_I2C_MASTER.c **** *
 687:.\Generated_Source\PSoC4/I2CM_I2C_MASTER.c **** * Parameters:
 688:.\Generated_Source\PSoC4/I2CM_I2C_MASTER.c **** *  acknNack:  Zero, response with NACK, if non-zero response with ACK.
 689:.\Generated_Source\PSoC4/I2CM_I2C_MASTER.c **** *
 690:.\Generated_Source\PSoC4/I2CM_I2C_MASTER.c **** * Return:
 691:.\Generated_Source\PSoC4/I2CM_I2C_MASTER.c **** *  Byte read from slave.
 692:.\Generated_Source\PSoC4/I2CM_I2C_MASTER.c **** *
 693:.\Generated_Source\PSoC4/I2CM_I2C_MASTER.c **** * Side Effects:
 694:.\Generated_Source\PSoC4/I2CM_I2C_MASTER.c **** *  This function is entered without a 'byte complete' bit set in the I2C_CSR
 695:.\Generated_Source\PSoC4/I2CM_I2C_MASTER.c **** *  register. It does not exit until it will be set.
 696:.\Generated_Source\PSoC4/I2CM_I2C_MASTER.c **** *
 697:.\Generated_Source\PSoC4/I2CM_I2C_MASTER.c **** * Global variables:
 698:.\Generated_Source\PSoC4/I2CM_I2C_MASTER.c **** *  I2CM_state - used to store current state of software FSM.
 699:.\Generated_Source\PSoC4/I2CM_I2C_MASTER.c **** *
 700:.\Generated_Source\PSoC4/I2CM_I2C_MASTER.c **** *******************************************************************************/
 701:.\Generated_Source\PSoC4/I2CM_I2C_MASTER.c **** uint32 I2CM_I2CMasterReadByte(uint32 ackNack)
 702:.\Generated_Source\PSoC4/I2CM_I2C_MASTER.c **** {
 1199              		.loc 1 702 0
 1200              		.cfi_startproc
 1201 0000 80B5     		push	{r7, lr}
 1202              	.LCFI18:
 1203              		.cfi_def_cfa_offset 8
 1204              		.cfi_offset 7, -8
 1205              		.cfi_offset 14, -4
 1206 0002 84B0     		sub	sp, sp, #16
 1207              	.LCFI19:
 1208              		.cfi_def_cfa_offset 24
 1209 0004 00AF     		add	r7, sp, #0
 1210              	.LCFI20:
 1211              		.cfi_def_cfa_register 7
 1212 0006 7860     		str	r0, [r7, #4]
 703:.\Generated_Source\PSoC4/I2CM_I2C_MASTER.c ****     uint32 theByte;
 704:.\Generated_Source\PSoC4/I2CM_I2C_MASTER.c ****     uint8 enableInterrupts;
 705:.\Generated_Source\PSoC4/I2CM_I2C_MASTER.c **** 
 706:.\Generated_Source\PSoC4/I2CM_I2C_MASTER.c ****     /* Return invelid byte in case BUS_ERR was happen while receiving */
 707:.\Generated_Source\PSoC4/I2CM_I2C_MASTER.c ****     theByte = I2CM_I2C_INVALID_BYTE;
 1213              		.loc 1 707 0
 1214 0008 0123     		mov	r3, #1
 1215 000a 5B42     		neg	r3, r3
 1216 000c BB60     		str	r3, [r7, #8]
 708:.\Generated_Source\PSoC4/I2CM_I2C_MASTER.c **** 
 709:.\Generated_Source\PSoC4/I2CM_I2C_MASTER.c ****     /* Check FSM state before read byte */
 710:.\Generated_Source\PSoC4/I2CM_I2C_MASTER.c ****     if(I2CM_CHECK_I2C_MASTER_ACTIVE)
 1217              		.loc 1 710 0
 1218 000e 264B     		ldr	r3, .L80
 1219 0010 1B78     		ldrb	r3, [r3]
 1220 0012 DBB2     		uxtb	r3, r3
 1221 0014 1A1C     		mov	r2, r3
 1222 0016 2023     		mov	r3, #32
 1223 0018 1340     		and	r3, r3, r2
 1224 001a 002B     		cmp	r3, #0
ARM GAS  C:\Users\srvs\AppData\Local\Temp\cc5vvGHT.s 			page 35


 1225 001c 3FD0     		beq	.L73
 1226              	.L75:
 711:.\Generated_Source\PSoC4/I2CM_I2C_MASTER.c ****     {
 712:.\Generated_Source\PSoC4/I2CM_I2C_MASTER.c ****         while((!I2CM_CHECK_INTR_RX(I2CM_INTR_RX_NOT_EMPTY)) &&
 1227              		.loc 1 712 0
 1228 001e 234B     		ldr	r3, .L80+4
 1229 0020 1A68     		ldr	r2, [r3]
 1230 0022 0423     		mov	r3, #4
 1231 0024 1340     		and	r3, r3, r2
 1232 0026 002B     		cmp	r3, #0
 1233 0028 05D1     		bne	.L74
 713:.\Generated_Source\PSoC4/I2CM_I2C_MASTER.c ****               (!I2CM_CHECK_INTR_MASTER(I2CM_INTR_MASTER_I2C_ARB_LOST | 
 1234              		.loc 1 713 0
 1235 002a 214B     		ldr	r3, .L80+8
 1236 002c 1A68     		ldr	r2, [r3]
 1237 002e 214B     		ldr	r3, .L80+12
 1238 0030 1340     		and	r3, r3, r2
 1239              		.loc 1 712 0
 1240 0032 002B     		cmp	r3, #0
 1241 0034 F3D0     		beq	.L75
 1242              	.L74:
 714:.\Generated_Source\PSoC4/I2CM_I2C_MASTER.c ****                                                   I2CM_INTR_MASTER_I2C_BUS_ERROR)))
 715:.\Generated_Source\PSoC4/I2CM_I2C_MASTER.c ****         {
 716:.\Generated_Source\PSoC4/I2CM_I2C_MASTER.c ****             /* Wait until byte will be received */
 717:.\Generated_Source\PSoC4/I2CM_I2C_MASTER.c ****         }
 718:.\Generated_Source\PSoC4/I2CM_I2C_MASTER.c **** 
 719:.\Generated_Source\PSoC4/I2CM_I2C_MASTER.c ****         /*
 720:.\Generated_Source\PSoC4/I2CM_I2C_MASTER.c ****         * Check results after byte was sent.
 721:.\Generated_Source\PSoC4/I2CM_I2C_MASTER.c ****         *  RX_NOT_EMPTY - the one byte is succesfully received.
 722:.\Generated_Source\PSoC4/I2CM_I2C_MASTER.c ****         *  LOST_ARB - added just in case because master drives ACK only: level 0 on the bus.
 723:.\Generated_Source\PSoC4/I2CM_I2C_MASTER.c ****         *  NACK is driven by separate API.
 724:.\Generated_Source\PSoC4/I2CM_I2C_MASTER.c ****         *  BUS_ERR - misplaced Start or Stop when Slave drives. Place: 8 data bits.
 725:.\Generated_Source\PSoC4/I2CM_I2C_MASTER.c ****         *  The misplaced Start or Stop causes the bus idle status to get stuck to busy.
 726:.\Generated_Source\PSoC4/I2CM_I2C_MASTER.c ****         *  The misplaced Start is possible when SCB drives SCL 1 and it changes 
 727:.\Generated_Source\PSoC4/I2CM_I2C_MASTER.c ****         *  from 1 to 0 (Start) or 0 to 1 (Stop).
 728:.\Generated_Source\PSoC4/I2CM_I2C_MASTER.c ****         *  Reset SCB on either LOST_ARB or BUS_ERR as both could be caused by
 729:.\Generated_Source\PSoC4/I2CM_I2C_MASTER.c ****         *  misplaced Start event to reset bus busy.
 730:.\Generated_Source\PSoC4/I2CM_I2C_MASTER.c ****         */
 731:.\Generated_Source\PSoC4/I2CM_I2C_MASTER.c ****         if(I2CM_CHECK_INTR_RX(I2CM_INTR_RX_NOT_EMPTY))
 1243              		.loc 1 731 0
 1244 0036 1D4B     		ldr	r3, .L80+4
 1245 0038 1A68     		ldr	r2, [r3]
 1246 003a 0423     		mov	r3, #4
 1247 003c 1340     		and	r3, r3, r2
 1248 003e 002B     		cmp	r3, #0
 1249 0040 10D0     		beq	.L76
 732:.\Generated_Source\PSoC4/I2CM_I2C_MASTER.c ****         {
 733:.\Generated_Source\PSoC4/I2CM_I2C_MASTER.c ****             theByte = I2CM_RX_FIFO_RD_REG;
 1250              		.loc 1 733 0
 1251 0042 1D4B     		ldr	r3, .L80+16
 1252 0044 1B68     		ldr	r3, [r3]
 1253 0046 BB60     		str	r3, [r7, #8]
 734:.\Generated_Source\PSoC4/I2CM_I2C_MASTER.c **** 
 735:.\Generated_Source\PSoC4/I2CM_I2C_MASTER.c ****             I2CM_ClearRxInterruptSource(I2CM_INTR_RX_NOT_EMPTY);
 1254              		.loc 1 735 0
 1255 0048 184B     		ldr	r3, .L80+4
 1256 004a 0422     		mov	r2, #4
ARM GAS  C:\Users\srvs\AppData\Local\Temp\cc5vvGHT.s 			page 36


 1257 004c 1A60     		str	r2, [r3]
 736:.\Generated_Source\PSoC4/I2CM_I2C_MASTER.c **** 
 737:.\Generated_Source\PSoC4/I2CM_I2C_MASTER.c ****             /* 
 738:.\Generated_Source\PSoC4/I2CM_I2C_MASTER.c ****             * ACK  - generates directly by master CMD.
 739:.\Generated_Source\PSoC4/I2CM_I2C_MASTER.c ****             * NACK - does nothing. The NACK and STOP are generated by I2CM_MasterSendStop() 
 740:.\Generated_Source\PSoC4/I2CM_I2C_MASTER.c ****             */
 741:.\Generated_Source\PSoC4/I2CM_I2C_MASTER.c ****             if(0u == ackNack)  /* Do ACK */
 1258              		.loc 1 741 0
 1259 004e 7B68     		ldr	r3, [r7, #4]
 1260 0050 002B     		cmp	r3, #0
 1261 0052 03D1     		bne	.L77
 742:.\Generated_Source\PSoC4/I2CM_I2C_MASTER.c ****             {
 743:.\Generated_Source\PSoC4/I2CM_I2C_MASTER.c ****                 I2CM_I2C_MASTER_GENERATE_ACK;
 1262              		.loc 1 743 0
 1263 0054 194B     		ldr	r3, .L80+20
 1264 0056 0422     		mov	r2, #4
 1265 0058 1A60     		str	r2, [r3]
 744:.\Generated_Source\PSoC4/I2CM_I2C_MASTER.c ****             }
 745:.\Generated_Source\PSoC4/I2CM_I2C_MASTER.c ****             else /* Do nothing */
 746:.\Generated_Source\PSoC4/I2CM_I2C_MASTER.c ****             {
 747:.\Generated_Source\PSoC4/I2CM_I2C_MASTER.c ****                 I2CM_state = I2CM_I2C_FSM_MSTR_HALT;
 1266              		.loc 1 747 0
 1267 005a 20E0     		b	.L73
 1268              	.L77:
 1269 005c 124B     		ldr	r3, .L80
 1270 005e 6022     		mov	r2, #96
 1271 0060 1A70     		strb	r2, [r3]
 1272 0062 1CE0     		b	.L73
 1273              	.L76:
 748:.\Generated_Source\PSoC4/I2CM_I2C_MASTER.c ****             }
 749:.\Generated_Source\PSoC4/I2CM_I2C_MASTER.c ****         }
 750:.\Generated_Source\PSoC4/I2CM_I2C_MASTER.c ****         else
 751:.\Generated_Source\PSoC4/I2CM_I2C_MASTER.c ****         {
 752:.\Generated_Source\PSoC4/I2CM_I2C_MASTER.c ****             I2CM_ClearMasterInterruptSource(I2CM_INTR_MASTER_ALL);
 1274              		.loc 1 752 0
 1275 0064 124B     		ldr	r3, .L80+8
 1276 0066 164A     		ldr	r2, .L80+24
 1277 0068 1A60     		str	r2, [r3]
 753:.\Generated_Source\PSoC4/I2CM_I2C_MASTER.c ****         
 754:.\Generated_Source\PSoC4/I2CM_I2C_MASTER.c ****             /* Reset block in case of: LOST_ARB or BUS_ERR */
 755:.\Generated_Source\PSoC4/I2CM_I2C_MASTER.c ****             enableInterrupts = CyEnterCriticalSection();
 1278              		.loc 1 755 0
 1279 006a FFF7FEFF 		bl	CyEnterCriticalSection
 1280 006e 031C     		mov	r3, r0
 1281 0070 1A1C     		mov	r2, r3
 1282 0072 3B1C     		mov	r3, r7
 1283 0074 0F33     		add	r3, r3, #15
 1284 0076 1A70     		strb	r2, [r3]
 756:.\Generated_Source\PSoC4/I2CM_I2C_MASTER.c ****             I2CM_SCB_SW_RESET;
 1285              		.loc 1 756 0
 1286 0078 124B     		ldr	r3, .L80+28
 1287 007a 124A     		ldr	r2, .L80+28
 1288 007c 1268     		ldr	r2, [r2]
 1289 007e 5200     		lsl	r2, r2, #1
 1290 0080 5208     		lsr	r2, r2, #1
 1291 0082 1A60     		str	r2, [r3]
 1292 0084 0F4A     		ldr	r2, .L80+28
ARM GAS  C:\Users\srvs\AppData\Local\Temp\cc5vvGHT.s 			page 37


 1293 0086 0F4B     		ldr	r3, .L80+28
 1294 0088 1968     		ldr	r1, [r3]
 1295 008a 8023     		mov	r3, #128
 1296 008c 1B06     		lsl	r3, r3, #24
 1297 008e 0B43     		orr	r3, r3, r1
 1298 0090 1360     		str	r3, [r2]
 757:.\Generated_Source\PSoC4/I2CM_I2C_MASTER.c ****             CyExitCriticalSection(enableInterrupts);
 1299              		.loc 1 757 0
 1300 0092 3B1C     		mov	r3, r7
 1301 0094 0F33     		add	r3, r3, #15
 1302 0096 1B78     		ldrb	r3, [r3]
 1303 0098 181C     		mov	r0, r3
 1304 009a FFF7FEFF 		bl	CyExitCriticalSection
 1305              	.L73:
 758:.\Generated_Source\PSoC4/I2CM_I2C_MASTER.c ****         }
 759:.\Generated_Source\PSoC4/I2CM_I2C_MASTER.c ****     }
 760:.\Generated_Source\PSoC4/I2CM_I2C_MASTER.c **** 
 761:.\Generated_Source\PSoC4/I2CM_I2C_MASTER.c ****     return(theByte);
 1306              		.loc 1 761 0
 1307 009e BB68     		ldr	r3, [r7, #8]
 762:.\Generated_Source\PSoC4/I2CM_I2C_MASTER.c **** }
 1308              		.loc 1 762 0
 1309 00a0 181C     		mov	r0, r3
 1310 00a2 BD46     		mov	sp, r7
 1311 00a4 04B0     		add	sp, sp, #16
 1312              		@ sp needed for prologue
 1313 00a6 80BD     		pop	{r7, pc}
 1314              	.L81:
 1315              		.align	2
 1316              	.L80:
 1317 00a8 00000000 		.word	I2CM_state
 1318 00ac C00F0740 		.word	1074204608
 1319 00b0 000F0740 		.word	1074204416
 1320 00b4 01010000 		.word	257
 1321 00b8 40030740 		.word	1074201408
 1322 00bc 68000740 		.word	1074200680
 1323 00c0 17030000 		.word	791
 1324 00c4 00000740 		.word	1074200576
 1325              		.cfi_endproc
 1326              	.LFE6:
 1327              		.size	I2CM_I2CMasterReadByte, .-I2CM_I2CMasterReadByte
 1328              		.section	.text.I2CM_I2CMasterGetReadBufSize,"ax",%progbits
 1329              		.align	2
 1330              		.global	I2CM_I2CMasterGetReadBufSize
 1331              		.code	16
 1332              		.thumb_func
 1333              		.type	I2CM_I2CMasterGetReadBufSize, %function
 1334              	I2CM_I2CMasterGetReadBufSize:
 1335              	.LFB7:
 763:.\Generated_Source\PSoC4/I2CM_I2C_MASTER.c **** 
 764:.\Generated_Source\PSoC4/I2CM_I2C_MASTER.c **** 
 765:.\Generated_Source\PSoC4/I2CM_I2C_MASTER.c **** /*******************************************************************************
 766:.\Generated_Source\PSoC4/I2CM_I2C_MASTER.c **** * Function Name: I2CM_I2CMasterGetReadBufSize
 767:.\Generated_Source\PSoC4/I2CM_I2C_MASTER.c **** ********************************************************************************
 768:.\Generated_Source\PSoC4/I2CM_I2C_MASTER.c **** *
 769:.\Generated_Source\PSoC4/I2CM_I2C_MASTER.c **** * Summary:
 770:.\Generated_Source\PSoC4/I2CM_I2C_MASTER.c **** *  Returns the amount of bytes that has been transferred with an
ARM GAS  C:\Users\srvs\AppData\Local\Temp\cc5vvGHT.s 			page 38


 771:.\Generated_Source\PSoC4/I2CM_I2C_MASTER.c **** *  I2C_MasterReadBuf command.
 772:.\Generated_Source\PSoC4/I2CM_I2C_MASTER.c **** *
 773:.\Generated_Source\PSoC4/I2CM_I2C_MASTER.c **** * Parameters:
 774:.\Generated_Source\PSoC4/I2CM_I2C_MASTER.c **** *  None
 775:.\Generated_Source\PSoC4/I2CM_I2C_MASTER.c **** *
 776:.\Generated_Source\PSoC4/I2CM_I2C_MASTER.c **** * Return:
 777:.\Generated_Source\PSoC4/I2CM_I2C_MASTER.c **** *  Byte count of transfer. If the transfer is not yet complete, it will return
 778:.\Generated_Source\PSoC4/I2CM_I2C_MASTER.c **** *  the byte count transferred so far.
 779:.\Generated_Source\PSoC4/I2CM_I2C_MASTER.c **** *
 780:.\Generated_Source\PSoC4/I2CM_I2C_MASTER.c **** * Global variables:
 781:.\Generated_Source\PSoC4/I2CM_I2C_MASTER.c **** *  I2CM_mstrRdBufIndex - used to current index within master read
 782:.\Generated_Source\PSoC4/I2CM_I2C_MASTER.c **** *  buffer.
 783:.\Generated_Source\PSoC4/I2CM_I2C_MASTER.c **** *
 784:.\Generated_Source\PSoC4/I2CM_I2C_MASTER.c **** *******************************************************************************/
 785:.\Generated_Source\PSoC4/I2CM_I2C_MASTER.c **** uint32 I2CM_I2CMasterGetReadBufSize(void)
 786:.\Generated_Source\PSoC4/I2CM_I2C_MASTER.c **** {
 1336              		.loc 1 786 0
 1337              		.cfi_startproc
 1338 0000 80B5     		push	{r7, lr}
 1339              	.LCFI21:
 1340              		.cfi_def_cfa_offset 8
 1341              		.cfi_offset 7, -8
 1342              		.cfi_offset 14, -4
 1343 0002 00AF     		add	r7, sp, #0
 1344              	.LCFI22:
 1345              		.cfi_def_cfa_register 7
 787:.\Generated_Source\PSoC4/I2CM_I2C_MASTER.c ****     return(I2CM_mstrRdBufIndex);
 1346              		.loc 1 787 0
 1347 0004 024B     		ldr	r3, .L84
 1348 0006 1B68     		ldr	r3, [r3]
 788:.\Generated_Source\PSoC4/I2CM_I2C_MASTER.c **** }
 1349              		.loc 1 788 0
 1350 0008 181C     		mov	r0, r3
 1351 000a BD46     		mov	sp, r7
 1352              		@ sp needed for prologue
 1353 000c 80BD     		pop	{r7, pc}
 1354              	.L85:
 1355 000e C046     		.align	2
 1356              	.L84:
 1357 0010 00000000 		.word	I2CM_mstrRdBufIndex
 1358              		.cfi_endproc
 1359              	.LFE7:
 1360              		.size	I2CM_I2CMasterGetReadBufSize, .-I2CM_I2CMasterGetReadBufSize
 1361              		.section	.text.I2CM_I2CMasterGetWriteBufSize,"ax",%progbits
 1362              		.align	2
 1363              		.global	I2CM_I2CMasterGetWriteBufSize
 1364              		.code	16
 1365              		.thumb_func
 1366              		.type	I2CM_I2CMasterGetWriteBufSize, %function
 1367              	I2CM_I2CMasterGetWriteBufSize:
 1368              	.LFB8:
 789:.\Generated_Source\PSoC4/I2CM_I2C_MASTER.c **** 
 790:.\Generated_Source\PSoC4/I2CM_I2C_MASTER.c **** 
 791:.\Generated_Source\PSoC4/I2CM_I2C_MASTER.c **** /*******************************************************************************
 792:.\Generated_Source\PSoC4/I2CM_I2C_MASTER.c **** * Function Name: I2CM_I2CMasterGetWriteBufSize
 793:.\Generated_Source\PSoC4/I2CM_I2C_MASTER.c **** ********************************************************************************
 794:.\Generated_Source\PSoC4/I2CM_I2C_MASTER.c **** *
ARM GAS  C:\Users\srvs\AppData\Local\Temp\cc5vvGHT.s 			page 39


 795:.\Generated_Source\PSoC4/I2CM_I2C_MASTER.c **** * Summary:
 796:.\Generated_Source\PSoC4/I2CM_I2C_MASTER.c **** *  Returns the amount of bytes that has been transferred with an
 797:.\Generated_Source\PSoC4/I2CM_I2C_MASTER.c **** *  I2C_MasterWriteBuf command.
 798:.\Generated_Source\PSoC4/I2CM_I2C_MASTER.c **** *
 799:.\Generated_Source\PSoC4/I2CM_I2C_MASTER.c **** * Parameters:
 800:.\Generated_Source\PSoC4/I2CM_I2C_MASTER.c **** *  None
 801:.\Generated_Source\PSoC4/I2CM_I2C_MASTER.c **** *
 802:.\Generated_Source\PSoC4/I2CM_I2C_MASTER.c **** * Return:
 803:.\Generated_Source\PSoC4/I2CM_I2C_MASTER.c **** *  Byte count of transfer. If the transfer is not yet complete, it will return
 804:.\Generated_Source\PSoC4/I2CM_I2C_MASTER.c **** *  the byte count transferred so far.
 805:.\Generated_Source\PSoC4/I2CM_I2C_MASTER.c **** *
 806:.\Generated_Source\PSoC4/I2CM_I2C_MASTER.c **** * Global variables:
 807:.\Generated_Source\PSoC4/I2CM_I2C_MASTER.c **** *  I2CM_mstrWrBufIndex - used to current index within master write
 808:.\Generated_Source\PSoC4/I2CM_I2C_MASTER.c **** *  buffer.
 809:.\Generated_Source\PSoC4/I2CM_I2C_MASTER.c **** *
 810:.\Generated_Source\PSoC4/I2CM_I2C_MASTER.c **** *******************************************************************************/
 811:.\Generated_Source\PSoC4/I2CM_I2C_MASTER.c **** uint32 I2CM_I2CMasterGetWriteBufSize(void)
 812:.\Generated_Source\PSoC4/I2CM_I2C_MASTER.c **** {
 1369              		.loc 1 812 0
 1370              		.cfi_startproc
 1371 0000 80B5     		push	{r7, lr}
 1372              	.LCFI23:
 1373              		.cfi_def_cfa_offset 8
 1374              		.cfi_offset 7, -8
 1375              		.cfi_offset 14, -4
 1376 0002 00AF     		add	r7, sp, #0
 1377              	.LCFI24:
 1378              		.cfi_def_cfa_register 7
 813:.\Generated_Source\PSoC4/I2CM_I2C_MASTER.c ****     return(I2CM_mstrWrBufIndex);
 1379              		.loc 1 813 0
 1380 0004 024B     		ldr	r3, .L88
 1381 0006 1B68     		ldr	r3, [r3]
 814:.\Generated_Source\PSoC4/I2CM_I2C_MASTER.c **** }
 1382              		.loc 1 814 0
 1383 0008 181C     		mov	r0, r3
 1384 000a BD46     		mov	sp, r7
 1385              		@ sp needed for prologue
 1386 000c 80BD     		pop	{r7, pc}
 1387              	.L89:
 1388 000e C046     		.align	2
 1389              	.L88:
 1390 0010 00000000 		.word	I2CM_mstrWrBufIndex
 1391              		.cfi_endproc
 1392              	.LFE8:
 1393              		.size	I2CM_I2CMasterGetWriteBufSize, .-I2CM_I2CMasterGetWriteBufSize
 1394              		.section	.text.I2CM_I2CMasterClearReadBuf,"ax",%progbits
 1395              		.align	2
 1396              		.global	I2CM_I2CMasterClearReadBuf
 1397              		.code	16
 1398              		.thumb_func
 1399              		.type	I2CM_I2CMasterClearReadBuf, %function
 1400              	I2CM_I2CMasterClearReadBuf:
 1401              	.LFB9:
 815:.\Generated_Source\PSoC4/I2CM_I2C_MASTER.c **** 
 816:.\Generated_Source\PSoC4/I2CM_I2C_MASTER.c **** 
 817:.\Generated_Source\PSoC4/I2CM_I2C_MASTER.c **** /*******************************************************************************
 818:.\Generated_Source\PSoC4/I2CM_I2C_MASTER.c **** * Function Name: I2CM_I2CMasterClearReadBuf
ARM GAS  C:\Users\srvs\AppData\Local\Temp\cc5vvGHT.s 			page 40


 819:.\Generated_Source\PSoC4/I2CM_I2C_MASTER.c **** ********************************************************************************
 820:.\Generated_Source\PSoC4/I2CM_I2C_MASTER.c **** *
 821:.\Generated_Source\PSoC4/I2CM_I2C_MASTER.c **** * Summary:
 822:.\Generated_Source\PSoC4/I2CM_I2C_MASTER.c **** *  Resets the read buffer pointer back to the first byte in the buffer.
 823:.\Generated_Source\PSoC4/I2CM_I2C_MASTER.c **** *
 824:.\Generated_Source\PSoC4/I2CM_I2C_MASTER.c **** * Parameters:
 825:.\Generated_Source\PSoC4/I2CM_I2C_MASTER.c **** *  None
 826:.\Generated_Source\PSoC4/I2CM_I2C_MASTER.c **** *
 827:.\Generated_Source\PSoC4/I2CM_I2C_MASTER.c **** * Return:
 828:.\Generated_Source\PSoC4/I2CM_I2C_MASTER.c **** *  None
 829:.\Generated_Source\PSoC4/I2CM_I2C_MASTER.c **** *
 830:.\Generated_Source\PSoC4/I2CM_I2C_MASTER.c **** * Global variables:
 831:.\Generated_Source\PSoC4/I2CM_I2C_MASTER.c **** *  I2CM_mstrRdBufIndex - used to current index within master read
 832:.\Generated_Source\PSoC4/I2CM_I2C_MASTER.c **** *   buffer.
 833:.\Generated_Source\PSoC4/I2CM_I2C_MASTER.c **** *  I2CM_mstrStatus - used to store current status of I2C Master.
 834:.\Generated_Source\PSoC4/I2CM_I2C_MASTER.c **** *
 835:.\Generated_Source\PSoC4/I2CM_I2C_MASTER.c **** *******************************************************************************/
 836:.\Generated_Source\PSoC4/I2CM_I2C_MASTER.c **** void I2CM_I2CMasterClearReadBuf(void)
 837:.\Generated_Source\PSoC4/I2CM_I2C_MASTER.c **** {
 1402              		.loc 1 837 0
 1403              		.cfi_startproc
 1404 0000 80B5     		push	{r7, lr}
 1405              	.LCFI25:
 1406              		.cfi_def_cfa_offset 8
 1407              		.cfi_offset 7, -8
 1408              		.cfi_offset 14, -4
 1409 0002 00AF     		add	r7, sp, #0
 1410              	.LCFI26:
 1411              		.cfi_def_cfa_register 7
 838:.\Generated_Source\PSoC4/I2CM_I2C_MASTER.c ****     I2CM_mstrRdBufIndex = 0u;
 1412              		.loc 1 838 0
 1413 0004 054B     		ldr	r3, .L92
 1414 0006 0022     		mov	r2, #0
 1415 0008 1A60     		str	r2, [r3]
 839:.\Generated_Source\PSoC4/I2CM_I2C_MASTER.c ****     I2CM_mstrStatus    &= (uint16) ~I2CM_I2C_MSTAT_RD_CMPLT;
 1416              		.loc 1 839 0
 1417 000a 054B     		ldr	r3, .L92+4
 1418 000c 1B88     		ldrh	r3, [r3]
 1419 000e 9BB2     		uxth	r3, r3
 1420 0010 044A     		ldr	r2, .L92+8
 1421 0012 1340     		and	r3, r3, r2
 1422 0014 024A     		ldr	r2, .L92+4
 1423 0016 1380     		strh	r3, [r2]
 840:.\Generated_Source\PSoC4/I2CM_I2C_MASTER.c **** }
 1424              		.loc 1 840 0
 1425 0018 BD46     		mov	sp, r7
 1426              		@ sp needed for prologue
 1427 001a 80BD     		pop	{r7, pc}
 1428              	.L93:
 1429              		.align	2
 1430              	.L92:
 1431 001c 00000000 		.word	I2CM_mstrRdBufIndex
 1432 0020 00000000 		.word	I2CM_mstrStatus
 1433 0024 FEFF0000 		.word	65534
 1434              		.cfi_endproc
 1435              	.LFE9:
 1436              		.size	I2CM_I2CMasterClearReadBuf, .-I2CM_I2CMasterClearReadBuf
ARM GAS  C:\Users\srvs\AppData\Local\Temp\cc5vvGHT.s 			page 41


 1437              		.section	.text.I2CM_I2CMasterClearWriteBuf,"ax",%progbits
 1438              		.align	2
 1439              		.global	I2CM_I2CMasterClearWriteBuf
 1440              		.code	16
 1441              		.thumb_func
 1442              		.type	I2CM_I2CMasterClearWriteBuf, %function
 1443              	I2CM_I2CMasterClearWriteBuf:
 1444              	.LFB10:
 841:.\Generated_Source\PSoC4/I2CM_I2C_MASTER.c **** 
 842:.\Generated_Source\PSoC4/I2CM_I2C_MASTER.c **** 
 843:.\Generated_Source\PSoC4/I2CM_I2C_MASTER.c **** /*******************************************************************************
 844:.\Generated_Source\PSoC4/I2CM_I2C_MASTER.c **** * Function Name: I2CM_I2CMasterClearWriteBuf
 845:.\Generated_Source\PSoC4/I2CM_I2C_MASTER.c **** ********************************************************************************
 846:.\Generated_Source\PSoC4/I2CM_I2C_MASTER.c **** *
 847:.\Generated_Source\PSoC4/I2CM_I2C_MASTER.c **** * Summary:
 848:.\Generated_Source\PSoC4/I2CM_I2C_MASTER.c **** *  Resets the write buffer pointer back to the first byte in the buffer.
 849:.\Generated_Source\PSoC4/I2CM_I2C_MASTER.c **** *
 850:.\Generated_Source\PSoC4/I2CM_I2C_MASTER.c **** * Parameters:
 851:.\Generated_Source\PSoC4/I2CM_I2C_MASTER.c **** *  None
 852:.\Generated_Source\PSoC4/I2CM_I2C_MASTER.c **** *
 853:.\Generated_Source\PSoC4/I2CM_I2C_MASTER.c **** * Return:
 854:.\Generated_Source\PSoC4/I2CM_I2C_MASTER.c **** *  None
 855:.\Generated_Source\PSoC4/I2CM_I2C_MASTER.c **** *
 856:.\Generated_Source\PSoC4/I2CM_I2C_MASTER.c **** * Global variables:
 857:.\Generated_Source\PSoC4/I2CM_I2C_MASTER.c **** *  I2CM_mstrRdBufIndex - used to current index within master read
 858:.\Generated_Source\PSoC4/I2CM_I2C_MASTER.c **** *   buffer.
 859:.\Generated_Source\PSoC4/I2CM_I2C_MASTER.c **** *  I2CM_mstrStatus - used to store current status of I2C Master.
 860:.\Generated_Source\PSoC4/I2CM_I2C_MASTER.c **** *
 861:.\Generated_Source\PSoC4/I2CM_I2C_MASTER.c **** *******************************************************************************/
 862:.\Generated_Source\PSoC4/I2CM_I2C_MASTER.c **** void I2CM_I2CMasterClearWriteBuf(void)
 863:.\Generated_Source\PSoC4/I2CM_I2C_MASTER.c **** {
 1445              		.loc 1 863 0
 1446              		.cfi_startproc
 1447 0000 80B5     		push	{r7, lr}
 1448              	.LCFI27:
 1449              		.cfi_def_cfa_offset 8
 1450              		.cfi_offset 7, -8
 1451              		.cfi_offset 14, -4
 1452 0002 00AF     		add	r7, sp, #0
 1453              	.LCFI28:
 1454              		.cfi_def_cfa_register 7
 864:.\Generated_Source\PSoC4/I2CM_I2C_MASTER.c ****     I2CM_mstrWrBufIndex = 0u;
 1455              		.loc 1 864 0
 1456 0004 054B     		ldr	r3, .L96
 1457 0006 0022     		mov	r2, #0
 1458 0008 1A60     		str	r2, [r3]
 865:.\Generated_Source\PSoC4/I2CM_I2C_MASTER.c ****     I2CM_mstrStatus    &= (uint16) ~I2CM_I2C_MSTAT_WR_CMPLT;
 1459              		.loc 1 865 0
 1460 000a 054B     		ldr	r3, .L96+4
 1461 000c 1B88     		ldrh	r3, [r3]
 1462 000e 9BB2     		uxth	r3, r3
 1463 0010 044A     		ldr	r2, .L96+8
 1464 0012 1340     		and	r3, r3, r2
 1465 0014 024A     		ldr	r2, .L96+4
 1466 0016 1380     		strh	r3, [r2]
 866:.\Generated_Source\PSoC4/I2CM_I2C_MASTER.c **** }
 1467              		.loc 1 866 0
ARM GAS  C:\Users\srvs\AppData\Local\Temp\cc5vvGHT.s 			page 42


 1468 0018 BD46     		mov	sp, r7
 1469              		@ sp needed for prologue
 1470 001a 80BD     		pop	{r7, pc}
 1471              	.L97:
 1472              		.align	2
 1473              	.L96:
 1474 001c 00000000 		.word	I2CM_mstrWrBufIndex
 1475 0020 00000000 		.word	I2CM_mstrStatus
 1476 0024 FDFF0000 		.word	65533
 1477              		.cfi_endproc
 1478              	.LFE10:
 1479              		.size	I2CM_I2CMasterClearWriteBuf, .-I2CM_I2CMasterClearWriteBuf
 1480              		.section	.text.I2CM_I2CMasterStatus,"ax",%progbits
 1481              		.align	2
 1482              		.global	I2CM_I2CMasterStatus
 1483              		.code	16
 1484              		.thumb_func
 1485              		.type	I2CM_I2CMasterStatus, %function
 1486              	I2CM_I2CMasterStatus:
 1487              	.LFB11:
 867:.\Generated_Source\PSoC4/I2CM_I2C_MASTER.c **** 
 868:.\Generated_Source\PSoC4/I2CM_I2C_MASTER.c **** 
 869:.\Generated_Source\PSoC4/I2CM_I2C_MASTER.c **** /*******************************************************************************
 870:.\Generated_Source\PSoC4/I2CM_I2C_MASTER.c **** * Function Name: I2CM_I2CMasterStatus
 871:.\Generated_Source\PSoC4/I2CM_I2C_MASTER.c **** ********************************************************************************
 872:.\Generated_Source\PSoC4/I2CM_I2C_MASTER.c **** *
 873:.\Generated_Source\PSoC4/I2CM_I2C_MASTER.c **** * Summary:
 874:.\Generated_Source\PSoC4/I2CM_I2C_MASTER.c **** *  Returns the master's communication status.
 875:.\Generated_Source\PSoC4/I2CM_I2C_MASTER.c **** *
 876:.\Generated_Source\PSoC4/I2CM_I2C_MASTER.c **** * Parameters:
 877:.\Generated_Source\PSoC4/I2CM_I2C_MASTER.c **** *  None
 878:.\Generated_Source\PSoC4/I2CM_I2C_MASTER.c **** *
 879:.\Generated_Source\PSoC4/I2CM_I2C_MASTER.c **** * Return:
 880:.\Generated_Source\PSoC4/I2CM_I2C_MASTER.c **** *  Current status of I2C master.
 881:.\Generated_Source\PSoC4/I2CM_I2C_MASTER.c **** *
 882:.\Generated_Source\PSoC4/I2CM_I2C_MASTER.c **** * Global variables:
 883:.\Generated_Source\PSoC4/I2CM_I2C_MASTER.c **** *  I2CM_mstrStatus - used to store current status of I2C Master.
 884:.\Generated_Source\PSoC4/I2CM_I2C_MASTER.c **** *
 885:.\Generated_Source\PSoC4/I2CM_I2C_MASTER.c **** *******************************************************************************/
 886:.\Generated_Source\PSoC4/I2CM_I2C_MASTER.c **** uint32 I2CM_I2CMasterStatus(void)
 887:.\Generated_Source\PSoC4/I2CM_I2C_MASTER.c **** {
 1488              		.loc 1 887 0
 1489              		.cfi_startproc
 1490 0000 80B5     		push	{r7, lr}
 1491              	.LCFI29:
 1492              		.cfi_def_cfa_offset 8
 1493              		.cfi_offset 7, -8
 1494              		.cfi_offset 14, -4
 1495 0002 82B0     		sub	sp, sp, #8
 1496              	.LCFI30:
 1497              		.cfi_def_cfa_offset 16
 1498 0004 00AF     		add	r7, sp, #0
 1499              	.LCFI31:
 1500              		.cfi_def_cfa_register 7
 888:.\Generated_Source\PSoC4/I2CM_I2C_MASTER.c ****     uint32 status;
 889:.\Generated_Source\PSoC4/I2CM_I2C_MASTER.c **** 
 890:.\Generated_Source\PSoC4/I2CM_I2C_MASTER.c ****     status = (uint32) I2CM_mstrStatus;
ARM GAS  C:\Users\srvs\AppData\Local\Temp\cc5vvGHT.s 			page 43


 1501              		.loc 1 890 0
 1502 0006 0A4B     		ldr	r3, .L101
 1503 0008 1B88     		ldrh	r3, [r3]
 1504 000a 9BB2     		uxth	r3, r3
 1505 000c 7B60     		str	r3, [r7, #4]
 891:.\Generated_Source\PSoC4/I2CM_I2C_MASTER.c **** 
 892:.\Generated_Source\PSoC4/I2CM_I2C_MASTER.c ****     if(I2CM_CHECK_I2C_MASTER_ACTIVE)
 1506              		.loc 1 892 0
 1507 000e 094B     		ldr	r3, .L101+4
 1508 0010 1B78     		ldrb	r3, [r3]
 1509 0012 DBB2     		uxtb	r3, r3
 1510 0014 1A1C     		mov	r2, r3
 1511 0016 2023     		mov	r3, #32
 1512 0018 1340     		and	r3, r3, r2
 1513 001a 002B     		cmp	r3, #0
 1514 001c 03D0     		beq	.L99
 893:.\Generated_Source\PSoC4/I2CM_I2C_MASTER.c ****     {
 894:.\Generated_Source\PSoC4/I2CM_I2C_MASTER.c ****         /* Add status of master pending tranaction: MSTAT_XFER_INP */
 895:.\Generated_Source\PSoC4/I2CM_I2C_MASTER.c ****         status |= (uint32) I2CM_I2C_MSTAT_XFER_INP;
 1515              		.loc 1 895 0
 1516 001e 7A68     		ldr	r2, [r7, #4]
 1517 0020 0423     		mov	r3, #4
 1518 0022 1343     		orr	r3, r3, r2
 1519 0024 7B60     		str	r3, [r7, #4]
 1520              	.L99:
 896:.\Generated_Source\PSoC4/I2CM_I2C_MASTER.c ****     }
 897:.\Generated_Source\PSoC4/I2CM_I2C_MASTER.c **** 
 898:.\Generated_Source\PSoC4/I2CM_I2C_MASTER.c ****     return(status);
 1521              		.loc 1 898 0
 1522 0026 7B68     		ldr	r3, [r7, #4]
 899:.\Generated_Source\PSoC4/I2CM_I2C_MASTER.c **** }
 1523              		.loc 1 899 0
 1524 0028 181C     		mov	r0, r3
 1525 002a BD46     		mov	sp, r7
 1526 002c 02B0     		add	sp, sp, #8
 1527              		@ sp needed for prologue
 1528 002e 80BD     		pop	{r7, pc}
 1529              	.L102:
 1530              		.align	2
 1531              	.L101:
 1532 0030 00000000 		.word	I2CM_mstrStatus
 1533 0034 00000000 		.word	I2CM_state
 1534              		.cfi_endproc
 1535              	.LFE11:
 1536              		.size	I2CM_I2CMasterStatus, .-I2CM_I2CMasterStatus
 1537              		.section	.text.I2CM_I2CMasterClearStatus,"ax",%progbits
 1538              		.align	2
 1539              		.global	I2CM_I2CMasterClearStatus
 1540              		.code	16
 1541              		.thumb_func
 1542              		.type	I2CM_I2CMasterClearStatus, %function
 1543              	I2CM_I2CMasterClearStatus:
 1544              	.LFB12:
 900:.\Generated_Source\PSoC4/I2CM_I2C_MASTER.c **** 
 901:.\Generated_Source\PSoC4/I2CM_I2C_MASTER.c **** 
 902:.\Generated_Source\PSoC4/I2CM_I2C_MASTER.c **** /*******************************************************************************
 903:.\Generated_Source\PSoC4/I2CM_I2C_MASTER.c **** * Function Name: I2CM_I2CMasterClearStatus
ARM GAS  C:\Users\srvs\AppData\Local\Temp\cc5vvGHT.s 			page 44


 904:.\Generated_Source\PSoC4/I2CM_I2C_MASTER.c **** ********************************************************************************
 905:.\Generated_Source\PSoC4/I2CM_I2C_MASTER.c **** *
 906:.\Generated_Source\PSoC4/I2CM_I2C_MASTER.c **** * Summary:
 907:.\Generated_Source\PSoC4/I2CM_I2C_MASTER.c **** *  Clears all status flags and returns the master status.
 908:.\Generated_Source\PSoC4/I2CM_I2C_MASTER.c **** *
 909:.\Generated_Source\PSoC4/I2CM_I2C_MASTER.c **** * Parameters:
 910:.\Generated_Source\PSoC4/I2CM_I2C_MASTER.c **** *  None
 911:.\Generated_Source\PSoC4/I2CM_I2C_MASTER.c **** *
 912:.\Generated_Source\PSoC4/I2CM_I2C_MASTER.c **** * Return:
 913:.\Generated_Source\PSoC4/I2CM_I2C_MASTER.c **** *  Current status of I2C master.
 914:.\Generated_Source\PSoC4/I2CM_I2C_MASTER.c **** *
 915:.\Generated_Source\PSoC4/I2CM_I2C_MASTER.c **** * Global variables:
 916:.\Generated_Source\PSoC4/I2CM_I2C_MASTER.c **** *  I2CM_mstrStatus - used to store current status of I2C Master.
 917:.\Generated_Source\PSoC4/I2CM_I2C_MASTER.c **** *
 918:.\Generated_Source\PSoC4/I2CM_I2C_MASTER.c **** *******************************************************************************/
 919:.\Generated_Source\PSoC4/I2CM_I2C_MASTER.c **** uint32 I2CM_I2CMasterClearStatus(void)
 920:.\Generated_Source\PSoC4/I2CM_I2C_MASTER.c **** {
 1545              		.loc 1 920 0
 1546              		.cfi_startproc
 1547 0000 80B5     		push	{r7, lr}
 1548              	.LCFI32:
 1549              		.cfi_def_cfa_offset 8
 1550              		.cfi_offset 7, -8
 1551              		.cfi_offset 14, -4
 1552 0002 82B0     		sub	sp, sp, #8
 1553              	.LCFI33:
 1554              		.cfi_def_cfa_offset 16
 1555 0004 00AF     		add	r7, sp, #0
 1556              	.LCFI34:
 1557              		.cfi_def_cfa_register 7
 921:.\Generated_Source\PSoC4/I2CM_I2C_MASTER.c ****     uint32 status;
 922:.\Generated_Source\PSoC4/I2CM_I2C_MASTER.c **** 
 923:.\Generated_Source\PSoC4/I2CM_I2C_MASTER.c ****     /* Read and clear master status */
 924:.\Generated_Source\PSoC4/I2CM_I2C_MASTER.c ****     status = (uint32) I2CM_mstrStatus;
 1558              		.loc 1 924 0
 1559 0006 064B     		ldr	r3, .L105
 1560 0008 1B88     		ldrh	r3, [r3]
 1561 000a 9BB2     		uxth	r3, r3
 1562 000c 7B60     		str	r3, [r7, #4]
 925:.\Generated_Source\PSoC4/I2CM_I2C_MASTER.c ****     I2CM_mstrStatus = I2CM_I2C_MSTAT_CLEAR;
 1563              		.loc 1 925 0
 1564 000e 044B     		ldr	r3, .L105
 1565 0010 0022     		mov	r2, #0
 1566 0012 1A80     		strh	r2, [r3]
 926:.\Generated_Source\PSoC4/I2CM_I2C_MASTER.c **** 
 927:.\Generated_Source\PSoC4/I2CM_I2C_MASTER.c ****     return(status);
 1567              		.loc 1 927 0
 1568 0014 7B68     		ldr	r3, [r7, #4]
 928:.\Generated_Source\PSoC4/I2CM_I2C_MASTER.c **** }
 1569              		.loc 1 928 0
 1570 0016 181C     		mov	r0, r3
 1571 0018 BD46     		mov	sp, r7
 1572 001a 02B0     		add	sp, sp, #8
 1573              		@ sp needed for prologue
 1574 001c 80BD     		pop	{r7, pc}
 1575              	.L106:
 1576 001e C046     		.align	2
ARM GAS  C:\Users\srvs\AppData\Local\Temp\cc5vvGHT.s 			page 45


 1577              	.L105:
 1578 0020 00000000 		.word	I2CM_mstrStatus
 1579              		.cfi_endproc
 1580              	.LFE12:
 1581              		.size	I2CM_I2CMasterClearStatus, .-I2CM_I2CMasterClearStatus
 1582              		.section	.text.I2CM_I2CReStartGeneration,"ax",%progbits
 1583              		.align	2
 1584              		.global	I2CM_I2CReStartGeneration
 1585              		.code	16
 1586              		.thumb_func
 1587              		.type	I2CM_I2CReStartGeneration, %function
 1588              	I2CM_I2CReStartGeneration:
 1589              	.LFB13:
 929:.\Generated_Source\PSoC4/I2CM_I2C_MASTER.c **** 
 930:.\Generated_Source\PSoC4/I2CM_I2C_MASTER.c **** 
 931:.\Generated_Source\PSoC4/I2CM_I2C_MASTER.c **** 
 932:.\Generated_Source\PSoC4/I2CM_I2C_MASTER.c **** /*******************************************************************************
 933:.\Generated_Source\PSoC4/I2CM_I2C_MASTER.c **** * Function Name: I2CM_I2CReStartWorkaround
 934:.\Generated_Source\PSoC4/I2CM_I2C_MASTER.c **** ********************************************************************************
 935:.\Generated_Source\PSoC4/I2CM_I2C_MASTER.c **** *
 936:.\Generated_Source\PSoC4/I2CM_I2C_MASTER.c **** * Summary:
 937:.\Generated_Source\PSoC4/I2CM_I2C_MASTER.c **** *  Generates ReStart condition:
 938:.\Generated_Source\PSoC4/I2CM_I2C_MASTER.c **** *   1. write, Restart: when txfifo empty (use the INTR_TX.UNDERFLOW interrupt 
 939:.\Generated_Source\PSoC4/I2CM_I2C_MASTER.c **** *      to trigger), slave stretch SCL re-enable SCB and set I2C_M_CMD.START 
 940:.\Generated_Source\PSoC4/I2CM_I2C_MASTER.c **** *      (for SCB FSM, it is START; for external I2C bus, it is RESTART).
 941:.\Generated_Source\PSoC4/I2CM_I2C_MASTER.c **** *
 942:.\Generated_Source\PSoC4/I2CM_I2C_MASTER.c **** *   2. read, Restart: when expected data bytes received, SCL drives NACK
 943:.\Generated_Source\PSoC4/I2CM_I2C_MASTER.c **** *      use GPIO mode of the pin. The SCL remain low while block re-enable
 944:.\Generated_Source\PSoC4/I2CM_I2C_MASTER.c **** *      and set I2C_M_CMD.START. The SCL data register is chnged to 1 at the 
 945:.\Generated_Source\PSoC4/I2CM_I2C_MASTER.c **** *      end. (for SCB FSM, it is START; for external I2C bus, it is RESTART).
 946:.\Generated_Source\PSoC4/I2CM_I2C_MASTER.c **** *
 947:.\Generated_Source\PSoC4/I2CM_I2C_MASTER.c **** * Parameters:
 948:.\Generated_Source\PSoC4/I2CM_I2C_MASTER.c **** *  None
 949:.\Generated_Source\PSoC4/I2CM_I2C_MASTER.c **** *
 950:.\Generated_Source\PSoC4/I2CM_I2C_MASTER.c **** * Return:
 951:.\Generated_Source\PSoC4/I2CM_I2C_MASTER.c **** *  None
 952:.\Generated_Source\PSoC4/I2CM_I2C_MASTER.c **** *
 953:.\Generated_Source\PSoC4/I2CM_I2C_MASTER.c **** * Side Effects:
 954:.\Generated_Source\PSoC4/I2CM_I2C_MASTER.c **** *  The NACK generation by GPIO causes greater SCL period.
 955:.\Generated_Source\PSoC4/I2CM_I2C_MASTER.c **** *
 956:.\Generated_Source\PSoC4/I2CM_I2C_MASTER.c **** * Note:
 957:.\Generated_Source\PSoC4/I2CM_I2C_MASTER.c **** *  The SCB IP re-enable has no effect on master CMD_M_START.
 958:.\Generated_Source\PSoC4/I2CM_I2C_MASTER.c **** *
 959:.\Generated_Source\PSoC4/I2CM_I2C_MASTER.c **** *******************************************************************************/
 960:.\Generated_Source\PSoC4/I2CM_I2C_MASTER.c **** void I2CM_I2CReStartGeneration(void)
 961:.\Generated_Source\PSoC4/I2CM_I2C_MASTER.c **** {    
 1590              		.loc 1 961 0
 1591              		.cfi_startproc
 1592 0000 80B5     		push	{r7, lr}
 1593              	.LCFI35:
 1594              		.cfi_def_cfa_offset 8
 1595              		.cfi_offset 7, -8
 1596              		.cfi_offset 14, -4
 1597 0002 00AF     		add	r7, sp, #0
 1598              	.LCFI36:
 1599              		.cfi_def_cfa_register 7
 962:.\Generated_Source\PSoC4/I2CM_I2C_MASTER.c ****     if(I2CM_CHECK_I2C_STATUS(I2CM_I2C_STATUS_M_READ))
ARM GAS  C:\Users\srvs\AppData\Local\Temp\cc5vvGHT.s 			page 46


 1600              		.loc 1 962 0
 1601 0004 2B4B     		ldr	r3, .L111
 1602 0006 1A68     		ldr	r2, [r3]
 1603 0008 2023     		mov	r3, #32
 1604 000a 1340     		and	r3, r3, r2
 1605 000c 002B     		cmp	r3, #0
 1606 000e 38D0     		beq	.L108
 963:.\Generated_Source\PSoC4/I2CM_I2C_MASTER.c ****     {
 964:.\Generated_Source\PSoC4/I2CM_I2C_MASTER.c ****         I2CM_SET_I2C_SCL_DR(I2CM_I2C_SCL_LOW);
 1607              		.loc 1 964 0
 1608 0010 0020     		mov	r0, #0
 1609 0012 FFF7FEFF 		bl	I2CM_scl_Write
 965:.\Generated_Source\PSoC4/I2CM_I2C_MASTER.c ****         
 966:.\Generated_Source\PSoC4/I2CM_I2C_MASTER.c ****         /* Switch HSIOM to GPIO */
 967:.\Generated_Source\PSoC4/I2CM_I2C_MASTER.c ****         I2CM_SET_I2C_SCL_HSIOM_SEL(I2CM_HSIOM_GPIO_SEL);
 1610              		.loc 1 967 0
 1611 0016 284B     		ldr	r3, .L111+4
 1612 0018 274A     		ldr	r2, .L111+4
 1613 001a 1268     		ldr	r2, [r2]
 1614 001c 0F21     		mov	r1, #15
 1615 001e 8A43     		bic	r2, r2, r1
 1616 0020 1A60     		str	r2, [r3]
 968:.\Generated_Source\PSoC4/I2CM_I2C_MASTER.c ****                                        
 969:.\Generated_Source\PSoC4/I2CM_I2C_MASTER.c ****         /* Disable SCB block */
 970:.\Generated_Source\PSoC4/I2CM_I2C_MASTER.c ****         I2CM_CTRL_REG &= (uint32) ~I2CM_CTRL_ENABLED;
 1617              		.loc 1 970 0
 1618 0022 264B     		ldr	r3, .L111+8
 1619 0024 254A     		ldr	r2, .L111+8
 1620 0026 1268     		ldr	r2, [r2]
 1621 0028 5200     		lsl	r2, r2, #1
 1622 002a 5208     		lsr	r2, r2, #1
 1623 002c 1A60     		str	r2, [r3]
 971:.\Generated_Source\PSoC4/I2CM_I2C_MASTER.c ****                 
 972:.\Generated_Source\PSoC4/I2CM_I2C_MASTER.c ****         I2CM_SET_I2C_SCL_DR(I2CM_I2C_SCL_LOW);
 1624              		.loc 1 972 0
 1625 002e 0020     		mov	r0, #0
 1626 0030 FFF7FEFF 		bl	I2CM_scl_Write
 973:.\Generated_Source\PSoC4/I2CM_I2C_MASTER.c ****         CyDelayUs(I2CM_I2C_TLOW_TIME);  /* Count tHIGH */
 1627              		.loc 1 973 0
 1628 0034 0320     		mov	r0, #3
 1629 0036 FFF7FEFF 		bl	CyDelayUs
 974:.\Generated_Source\PSoC4/I2CM_I2C_MASTER.c ****         
 975:.\Generated_Source\PSoC4/I2CM_I2C_MASTER.c ****         I2CM_SET_I2C_SCL_DR(I2CM_I2C_SCL_HIGH);
 1630              		.loc 1 975 0
 1631 003a 0120     		mov	r0, #1
 1632 003c FFF7FEFF 		bl	I2CM_scl_Write
 976:.\Generated_Source\PSoC4/I2CM_I2C_MASTER.c ****         CyDelayUs(I2CM_I2C_THIGH_TIME); /* Count tHIGH */
 1633              		.loc 1 976 0
 1634 0040 0320     		mov	r0, #3
 1635 0042 FFF7FEFF 		bl	CyDelayUs
 977:.\Generated_Source\PSoC4/I2CM_I2C_MASTER.c ****         
 978:.\Generated_Source\PSoC4/I2CM_I2C_MASTER.c ****         I2CM_SET_I2C_SCL_DR(I2CM_I2C_SCL_LOW);
 1636              		.loc 1 978 0
 1637 0046 0020     		mov	r0, #0
 1638 0048 FFF7FEFF 		bl	I2CM_scl_Write
 979:.\Generated_Source\PSoC4/I2CM_I2C_MASTER.c ****         CyDelayUs(I2CM_I2C_TLOW_TIME);  /* Count tLOW */
 1639              		.loc 1 979 0
ARM GAS  C:\Users\srvs\AppData\Local\Temp\cc5vvGHT.s 			page 47


 1640 004c 0320     		mov	r0, #3
 1641 004e FFF7FEFF 		bl	CyDelayUs
 980:.\Generated_Source\PSoC4/I2CM_I2C_MASTER.c ****         
 981:.\Generated_Source\PSoC4/I2CM_I2C_MASTER.c ****         /* Enable SCB block */
 982:.\Generated_Source\PSoC4/I2CM_I2C_MASTER.c ****         I2CM_CTRL_REG |= (uint32) I2CM_CTRL_ENABLED;
 1642              		.loc 1 982 0
 1643 0052 1A4A     		ldr	r2, .L111+8
 1644 0054 194B     		ldr	r3, .L111+8
 1645 0056 1968     		ldr	r1, [r3]
 1646 0058 8023     		mov	r3, #128
 1647 005a 1B06     		lsl	r3, r3, #24
 1648 005c 0B43     		orr	r3, r3, r1
 1649 005e 1360     		str	r3, [r2]
 983:.\Generated_Source\PSoC4/I2CM_I2C_MASTER.c ****         
 984:.\Generated_Source\PSoC4/I2CM_I2C_MASTER.c ****         /* Switch HSIOM to I2C */
 985:.\Generated_Source\PSoC4/I2CM_I2C_MASTER.c ****         I2CM_SET_I2C_SCL_HSIOM_SEL(I2CM_HSIOM_I2C_SEL);
 1650              		.loc 1 985 0
 1651 0060 154B     		ldr	r3, .L111+4
 1652 0062 154A     		ldr	r2, .L111+4
 1653 0064 1268     		ldr	r2, [r2]
 1654 0066 0F21     		mov	r1, #15
 1655 0068 101C     		mov	r0, r2
 1656 006a 8843     		bic	r0, r0, r1
 1657 006c 011C     		mov	r1, r0
 1658 006e 0E22     		mov	r2, #14
 1659 0070 0A43     		orr	r2, r2, r1
 1660 0072 1A60     		str	r2, [r3]
 986:.\Generated_Source\PSoC4/I2CM_I2C_MASTER.c ****         
 987:.\Generated_Source\PSoC4/I2CM_I2C_MASTER.c ****         /* Set command for Start generation */
 988:.\Generated_Source\PSoC4/I2CM_I2C_MASTER.c ****         I2CM_I2C_MASTER_CMD_REG = I2CM_I2C_MASTER_CMD_M_START;
 1661              		.loc 1 988 0
 1662 0074 124B     		ldr	r3, .L111+12
 1663 0076 0122     		mov	r2, #1
 1664 0078 1A60     		str	r2, [r3]
 989:.\Generated_Source\PSoC4/I2CM_I2C_MASTER.c ****         
 990:.\Generated_Source\PSoC4/I2CM_I2C_MASTER.c ****         I2CM_SET_I2C_SCL_DR(I2CM_I2C_SCL_LOW);
 1665              		.loc 1 990 0
 1666 007a 0020     		mov	r0, #0
 1667 007c FFF7FEFF 		bl	I2CM_scl_Write
 1668 0080 15E0     		b	.L110
 1669              	.L108:
 991:.\Generated_Source\PSoC4/I2CM_I2C_MASTER.c ****     }
 992:.\Generated_Source\PSoC4/I2CM_I2C_MASTER.c ****     else
 993:.\Generated_Source\PSoC4/I2CM_I2C_MASTER.c ****     {
 994:.\Generated_Source\PSoC4/I2CM_I2C_MASTER.c ****         I2CM_SET_I2C_SCL_DR(I2CM_I2C_SCL_LOW);
 1670              		.loc 1 994 0
 1671 0082 0020     		mov	r0, #0
 1672 0084 FFF7FEFF 		bl	I2CM_scl_Write
 995:.\Generated_Source\PSoC4/I2CM_I2C_MASTER.c ****         
 996:.\Generated_Source\PSoC4/I2CM_I2C_MASTER.c ****         /* Re-enable SCB block: this resets part of functions */
 997:.\Generated_Source\PSoC4/I2CM_I2C_MASTER.c ****         I2CM_SCB_SW_RESET;
 1673              		.loc 1 997 0
 1674 0088 0C4B     		ldr	r3, .L111+8
 1675 008a 0C4A     		ldr	r2, .L111+8
 1676 008c 1268     		ldr	r2, [r2]
 1677 008e 5200     		lsl	r2, r2, #1
 1678 0090 5208     		lsr	r2, r2, #1
ARM GAS  C:\Users\srvs\AppData\Local\Temp\cc5vvGHT.s 			page 48


 1679 0092 1A60     		str	r2, [r3]
 1680 0094 094A     		ldr	r2, .L111+8
 1681 0096 094B     		ldr	r3, .L111+8
 1682 0098 1968     		ldr	r1, [r3]
 1683 009a 8023     		mov	r3, #128
 1684 009c 1B06     		lsl	r3, r3, #24
 1685 009e 0B43     		orr	r3, r3, r1
 1686 00a0 1360     		str	r3, [r2]
 998:.\Generated_Source\PSoC4/I2CM_I2C_MASTER.c ****        
 999:.\Generated_Source\PSoC4/I2CM_I2C_MASTER.c ****         /* Generate ReStart when bus becomes IDLE: the SCB waits in HW until IDLE. 
1000:.\Generated_Source\PSoC4/I2CM_I2C_MASTER.c ****         * The START CMD is not effected by SCB IP re-enable.
1001:.\Generated_Source\PSoC4/I2CM_I2C_MASTER.c ****         */
1002:.\Generated_Source\PSoC4/I2CM_I2C_MASTER.c ****         I2CM_I2C_MASTER_CMD_REG = I2CM_I2C_MASTER_CMD_M_START;
 1687              		.loc 1 1002 0
 1688 00a2 074B     		ldr	r3, .L111+12
 1689 00a4 0122     		mov	r2, #1
 1690 00a6 1A60     		str	r2, [r3]
1003:.\Generated_Source\PSoC4/I2CM_I2C_MASTER.c ****         
1004:.\Generated_Source\PSoC4/I2CM_I2C_MASTER.c ****         I2CM_SET_I2C_SCL_DR(I2CM_I2C_SCL_HIGH);
 1691              		.loc 1 1004 0
 1692 00a8 0120     		mov	r0, #1
 1693 00aa FFF7FEFF 		bl	I2CM_scl_Write
 1694              	.L110:
1005:.\Generated_Source\PSoC4/I2CM_I2C_MASTER.c ****     }
1006:.\Generated_Source\PSoC4/I2CM_I2C_MASTER.c **** }
 1695              		.loc 1 1006 0
 1696 00ae BD46     		mov	sp, r7
 1697              		@ sp needed for prologue
 1698 00b0 80BD     		pop	{r7, pc}
 1699              	.L112:
 1700 00b2 C046     		.align	2
 1701              	.L111:
 1702 00b4 64000740 		.word	1074200676
 1703 00b8 0C000140 		.word	1073807372
 1704 00bc 00000740 		.word	1074200576
 1705 00c0 68000740 		.word	1074200680
 1706              		.cfi_endproc
 1707              	.LFE13:
 1708              		.size	I2CM_I2CReStartGeneration, .-I2CM_I2CReStartGeneration
 1709              		.text
 1710              	.Letext0:
 1711              		.section	.debug_loc,"",%progbits
 1712              	.Ldebug_loc0:
 1713              	.LLST0:
 1714 0000 00000000 		.4byte	.LFB0
 1715 0004 02000000 		.4byte	.LCFI0
 1716 0008 0100     		.2byte	0x1
 1717 000a 5D       		.byte	0x5d
 1718 000b 02000000 		.4byte	.LCFI0
 1719 000f 04000000 		.4byte	.LCFI1
 1720 0013 0200     		.2byte	0x2
 1721 0015 7D       		.byte	0x7d
 1722 0016 08       		.sleb128 8
 1723 0017 04000000 		.4byte	.LCFI1
 1724 001b 06000000 		.4byte	.LCFI2
 1725 001f 0200     		.2byte	0x2
 1726 0021 7D       		.byte	0x7d
ARM GAS  C:\Users\srvs\AppData\Local\Temp\cc5vvGHT.s 			page 49


 1727 0022 20       		.sleb128 32
 1728 0023 06000000 		.4byte	.LCFI2
 1729 0027 24010000 		.4byte	.LFE0
 1730 002b 0200     		.2byte	0x2
 1731 002d 77       		.byte	0x77
 1732 002e 20       		.sleb128 32
 1733 002f 00000000 		.4byte	0x0
 1734 0033 00000000 		.4byte	0x0
 1735              	.LLST1:
 1736 0037 00000000 		.4byte	.LFB1
 1737 003b 02000000 		.4byte	.LCFI3
 1738 003f 0100     		.2byte	0x1
 1739 0041 5D       		.byte	0x5d
 1740 0042 02000000 		.4byte	.LCFI3
 1741 0046 04000000 		.4byte	.LCFI4
 1742 004a 0200     		.2byte	0x2
 1743 004c 7D       		.byte	0x7d
 1744 004d 08       		.sleb128 8
 1745 004e 04000000 		.4byte	.LCFI4
 1746 0052 06000000 		.4byte	.LCFI5
 1747 0056 0200     		.2byte	0x2
 1748 0058 7D       		.byte	0x7d
 1749 0059 20       		.sleb128 32
 1750 005a 06000000 		.4byte	.LCFI5
 1751 005e 38010000 		.4byte	.LFE1
 1752 0062 0200     		.2byte	0x2
 1753 0064 77       		.byte	0x77
 1754 0065 20       		.sleb128 32
 1755 0066 00000000 		.4byte	0x0
 1756 006a 00000000 		.4byte	0x0
 1757              	.LLST2:
 1758 006e 00000000 		.4byte	.LFB2
 1759 0072 02000000 		.4byte	.LCFI6
 1760 0076 0100     		.2byte	0x1
 1761 0078 5D       		.byte	0x5d
 1762 0079 02000000 		.4byte	.LCFI6
 1763 007d 04000000 		.4byte	.LCFI7
 1764 0081 0200     		.2byte	0x2
 1765 0083 7D       		.byte	0x7d
 1766 0084 08       		.sleb128 8
 1767 0085 04000000 		.4byte	.LCFI7
 1768 0089 06000000 		.4byte	.LCFI8
 1769 008d 0200     		.2byte	0x2
 1770 008f 7D       		.byte	0x7d
 1771 0090 18       		.sleb128 24
 1772 0091 06000000 		.4byte	.LCFI8
 1773 0095 4C010000 		.4byte	.LFE2
 1774 0099 0200     		.2byte	0x2
 1775 009b 77       		.byte	0x77
 1776 009c 18       		.sleb128 24
 1777 009d 00000000 		.4byte	0x0
 1778 00a1 00000000 		.4byte	0x0
 1779              	.LLST3:
 1780 00a5 00000000 		.4byte	.LFB3
 1781 00a9 02000000 		.4byte	.LCFI9
 1782 00ad 0100     		.2byte	0x1
 1783 00af 5D       		.byte	0x5d
ARM GAS  C:\Users\srvs\AppData\Local\Temp\cc5vvGHT.s 			page 50


 1784 00b0 02000000 		.4byte	.LCFI9
 1785 00b4 04000000 		.4byte	.LCFI10
 1786 00b8 0200     		.2byte	0x2
 1787 00ba 7D       		.byte	0x7d
 1788 00bb 08       		.sleb128 8
 1789 00bc 04000000 		.4byte	.LCFI10
 1790 00c0 06000000 		.4byte	.LCFI11
 1791 00c4 0200     		.2byte	0x2
 1792 00c6 7D       		.byte	0x7d
 1793 00c7 18       		.sleb128 24
 1794 00c8 06000000 		.4byte	.LCFI11
 1795 00cc 40010000 		.4byte	.LFE3
 1796 00d0 0200     		.2byte	0x2
 1797 00d2 77       		.byte	0x77
 1798 00d3 18       		.sleb128 24
 1799 00d4 00000000 		.4byte	0x0
 1800 00d8 00000000 		.4byte	0x0
 1801              	.LLST4:
 1802 00dc 00000000 		.4byte	.LFB4
 1803 00e0 02000000 		.4byte	.LCFI12
 1804 00e4 0100     		.2byte	0x1
 1805 00e6 5D       		.byte	0x5d
 1806 00e7 02000000 		.4byte	.LCFI12
 1807 00eb 04000000 		.4byte	.LCFI13
 1808 00ef 0200     		.2byte	0x2
 1809 00f1 7D       		.byte	0x7d
 1810 00f2 08       		.sleb128 8
 1811 00f3 04000000 		.4byte	.LCFI13
 1812 00f7 06000000 		.4byte	.LCFI14
 1813 00fb 0200     		.2byte	0x2
 1814 00fd 7D       		.byte	0x7d
 1815 00fe 10       		.sleb128 16
 1816 00ff 06000000 		.4byte	.LCFI14
 1817 0103 E4000000 		.4byte	.LFE4
 1818 0107 0200     		.2byte	0x2
 1819 0109 77       		.byte	0x77
 1820 010a 10       		.sleb128 16
 1821 010b 00000000 		.4byte	0x0
 1822 010f 00000000 		.4byte	0x0
 1823              	.LLST5:
 1824 0113 00000000 		.4byte	.LFB5
 1825 0117 02000000 		.4byte	.LCFI15
 1826 011b 0100     		.2byte	0x1
 1827 011d 5D       		.byte	0x5d
 1828 011e 02000000 		.4byte	.LCFI15
 1829 0122 04000000 		.4byte	.LCFI16
 1830 0126 0200     		.2byte	0x2
 1831 0128 7D       		.byte	0x7d
 1832 0129 08       		.sleb128 8
 1833 012a 04000000 		.4byte	.LCFI16
 1834 012e 06000000 		.4byte	.LCFI17
 1835 0132 0200     		.2byte	0x2
 1836 0134 7D       		.byte	0x7d
 1837 0135 18       		.sleb128 24
 1838 0136 06000000 		.4byte	.LCFI17
 1839 013a 00010000 		.4byte	.LFE5
 1840 013e 0200     		.2byte	0x2
ARM GAS  C:\Users\srvs\AppData\Local\Temp\cc5vvGHT.s 			page 51


 1841 0140 77       		.byte	0x77
 1842 0141 18       		.sleb128 24
 1843 0142 00000000 		.4byte	0x0
 1844 0146 00000000 		.4byte	0x0
 1845              	.LLST6:
 1846 014a 00000000 		.4byte	.LFB6
 1847 014e 02000000 		.4byte	.LCFI18
 1848 0152 0100     		.2byte	0x1
 1849 0154 5D       		.byte	0x5d
 1850 0155 02000000 		.4byte	.LCFI18
 1851 0159 04000000 		.4byte	.LCFI19
 1852 015d 0200     		.2byte	0x2
 1853 015f 7D       		.byte	0x7d
 1854 0160 08       		.sleb128 8
 1855 0161 04000000 		.4byte	.LCFI19
 1856 0165 06000000 		.4byte	.LCFI20
 1857 0169 0200     		.2byte	0x2
 1858 016b 7D       		.byte	0x7d
 1859 016c 18       		.sleb128 24
 1860 016d 06000000 		.4byte	.LCFI20
 1861 0171 C8000000 		.4byte	.LFE6
 1862 0175 0200     		.2byte	0x2
 1863 0177 77       		.byte	0x77
 1864 0178 18       		.sleb128 24
 1865 0179 00000000 		.4byte	0x0
 1866 017d 00000000 		.4byte	0x0
 1867              	.LLST7:
 1868 0181 00000000 		.4byte	.LFB7
 1869 0185 02000000 		.4byte	.LCFI21
 1870 0189 0100     		.2byte	0x1
 1871 018b 5D       		.byte	0x5d
 1872 018c 02000000 		.4byte	.LCFI21
 1873 0190 04000000 		.4byte	.LCFI22
 1874 0194 0200     		.2byte	0x2
 1875 0196 7D       		.byte	0x7d
 1876 0197 08       		.sleb128 8
 1877 0198 04000000 		.4byte	.LCFI22
 1878 019c 14000000 		.4byte	.LFE7
 1879 01a0 0200     		.2byte	0x2
 1880 01a2 77       		.byte	0x77
 1881 01a3 08       		.sleb128 8
 1882 01a4 00000000 		.4byte	0x0
 1883 01a8 00000000 		.4byte	0x0
 1884              	.LLST8:
 1885 01ac 00000000 		.4byte	.LFB8
 1886 01b0 02000000 		.4byte	.LCFI23
 1887 01b4 0100     		.2byte	0x1
 1888 01b6 5D       		.byte	0x5d
 1889 01b7 02000000 		.4byte	.LCFI23
 1890 01bb 04000000 		.4byte	.LCFI24
 1891 01bf 0200     		.2byte	0x2
 1892 01c1 7D       		.byte	0x7d
 1893 01c2 08       		.sleb128 8
 1894 01c3 04000000 		.4byte	.LCFI24
 1895 01c7 14000000 		.4byte	.LFE8
 1896 01cb 0200     		.2byte	0x2
 1897 01cd 77       		.byte	0x77
ARM GAS  C:\Users\srvs\AppData\Local\Temp\cc5vvGHT.s 			page 52


 1898 01ce 08       		.sleb128 8
 1899 01cf 00000000 		.4byte	0x0
 1900 01d3 00000000 		.4byte	0x0
 1901              	.LLST9:
 1902 01d7 00000000 		.4byte	.LFB9
 1903 01db 02000000 		.4byte	.LCFI25
 1904 01df 0100     		.2byte	0x1
 1905 01e1 5D       		.byte	0x5d
 1906 01e2 02000000 		.4byte	.LCFI25
 1907 01e6 04000000 		.4byte	.LCFI26
 1908 01ea 0200     		.2byte	0x2
 1909 01ec 7D       		.byte	0x7d
 1910 01ed 08       		.sleb128 8
 1911 01ee 04000000 		.4byte	.LCFI26
 1912 01f2 28000000 		.4byte	.LFE9
 1913 01f6 0200     		.2byte	0x2
 1914 01f8 77       		.byte	0x77
 1915 01f9 08       		.sleb128 8
 1916 01fa 00000000 		.4byte	0x0
 1917 01fe 00000000 		.4byte	0x0
 1918              	.LLST10:
 1919 0202 00000000 		.4byte	.LFB10
 1920 0206 02000000 		.4byte	.LCFI27
 1921 020a 0100     		.2byte	0x1
 1922 020c 5D       		.byte	0x5d
 1923 020d 02000000 		.4byte	.LCFI27
 1924 0211 04000000 		.4byte	.LCFI28
 1925 0215 0200     		.2byte	0x2
 1926 0217 7D       		.byte	0x7d
 1927 0218 08       		.sleb128 8
 1928 0219 04000000 		.4byte	.LCFI28
 1929 021d 28000000 		.4byte	.LFE10
 1930 0221 0200     		.2byte	0x2
 1931 0223 77       		.byte	0x77
 1932 0224 08       		.sleb128 8
 1933 0225 00000000 		.4byte	0x0
 1934 0229 00000000 		.4byte	0x0
 1935              	.LLST11:
 1936 022d 00000000 		.4byte	.LFB11
 1937 0231 02000000 		.4byte	.LCFI29
 1938 0235 0100     		.2byte	0x1
 1939 0237 5D       		.byte	0x5d
 1940 0238 02000000 		.4byte	.LCFI29
 1941 023c 04000000 		.4byte	.LCFI30
 1942 0240 0200     		.2byte	0x2
 1943 0242 7D       		.byte	0x7d
 1944 0243 08       		.sleb128 8
 1945 0244 04000000 		.4byte	.LCFI30
 1946 0248 06000000 		.4byte	.LCFI31
 1947 024c 0200     		.2byte	0x2
 1948 024e 7D       		.byte	0x7d
 1949 024f 10       		.sleb128 16
 1950 0250 06000000 		.4byte	.LCFI31
 1951 0254 38000000 		.4byte	.LFE11
 1952 0258 0200     		.2byte	0x2
 1953 025a 77       		.byte	0x77
 1954 025b 10       		.sleb128 16
ARM GAS  C:\Users\srvs\AppData\Local\Temp\cc5vvGHT.s 			page 53


 1955 025c 00000000 		.4byte	0x0
 1956 0260 00000000 		.4byte	0x0
 1957              	.LLST12:
 1958 0264 00000000 		.4byte	.LFB12
 1959 0268 02000000 		.4byte	.LCFI32
 1960 026c 0100     		.2byte	0x1
 1961 026e 5D       		.byte	0x5d
 1962 026f 02000000 		.4byte	.LCFI32
 1963 0273 04000000 		.4byte	.LCFI33
 1964 0277 0200     		.2byte	0x2
 1965 0279 7D       		.byte	0x7d
 1966 027a 08       		.sleb128 8
 1967 027b 04000000 		.4byte	.LCFI33
 1968 027f 06000000 		.4byte	.LCFI34
 1969 0283 0200     		.2byte	0x2
 1970 0285 7D       		.byte	0x7d
 1971 0286 10       		.sleb128 16
 1972 0287 06000000 		.4byte	.LCFI34
 1973 028b 24000000 		.4byte	.LFE12
 1974 028f 0200     		.2byte	0x2
 1975 0291 77       		.byte	0x77
 1976 0292 10       		.sleb128 16
 1977 0293 00000000 		.4byte	0x0
 1978 0297 00000000 		.4byte	0x0
 1979              	.LLST13:
 1980 029b 00000000 		.4byte	.LFB13
 1981 029f 02000000 		.4byte	.LCFI35
 1982 02a3 0100     		.2byte	0x1
 1983 02a5 5D       		.byte	0x5d
 1984 02a6 02000000 		.4byte	.LCFI35
 1985 02aa 04000000 		.4byte	.LCFI36
 1986 02ae 0200     		.2byte	0x2
 1987 02b0 7D       		.byte	0x7d
 1988 02b1 08       		.sleb128 8
 1989 02b2 04000000 		.4byte	.LCFI36
 1990 02b6 C4000000 		.4byte	.LFE13
 1991 02ba 0200     		.2byte	0x2
 1992 02bc 77       		.byte	0x77
 1993 02bd 08       		.sleb128 8
 1994 02be 00000000 		.4byte	0x0
 1995 02c2 00000000 		.4byte	0x0
 1996              		.file 2 ".\\Generated_Source\\PSoC4\\/cytypes.h"
 1997              		.file 3 ".\\Generated_Source\\PSoC4\\/I2CM_I2C_PVT.h"
 1998              		.section	.debug_info
 1999 0000 94040000 		.4byte	0x494
 2000 0004 0200     		.2byte	0x2
 2001 0006 00000000 		.4byte	.Ldebug_abbrev0
 2002 000a 04       		.byte	0x4
 2003 000b 01       		.uleb128 0x1
 2004 000c 72020000 		.4byte	.LASF49
 2005 0010 01       		.byte	0x1
 2006 0011 D0010000 		.4byte	.LASF50
 2007 0015 BB000000 		.4byte	.LASF51
 2008 0019 00000000 		.4byte	0x0
 2009 001d 00000000 		.4byte	0x0
 2010 0021 00000000 		.4byte	.Ldebug_ranges0+0x0
 2011 0025 00000000 		.4byte	.Ldebug_line0
ARM GAS  C:\Users\srvs\AppData\Local\Temp\cc5vvGHT.s 			page 54


 2012 0029 02       		.uleb128 0x2
 2013 002a 01       		.byte	0x1
 2014 002b 06       		.byte	0x6
 2015 002c 46030000 		.4byte	.LASF0
 2016 0030 02       		.uleb128 0x2
 2017 0031 01       		.byte	0x1
 2018 0032 08       		.byte	0x8
 2019 0033 6A010000 		.4byte	.LASF1
 2020 0037 02       		.uleb128 0x2
 2021 0038 02       		.byte	0x2
 2022 0039 05       		.byte	0x5
 2023 003a DC020000 		.4byte	.LASF2
 2024 003e 02       		.uleb128 0x2
 2025 003f 02       		.byte	0x2
 2026 0040 07       		.byte	0x7
 2027 0041 4B000000 		.4byte	.LASF3
 2028 0045 02       		.uleb128 0x2
 2029 0046 04       		.byte	0x4
 2030 0047 05       		.byte	0x5
 2031 0048 06030000 		.4byte	.LASF4
 2032 004c 02       		.uleb128 0x2
 2033 004d 04       		.byte	0x4
 2034 004e 07       		.byte	0x7
 2035 004f 14010000 		.4byte	.LASF5
 2036 0053 02       		.uleb128 0x2
 2037 0054 08       		.byte	0x8
 2038 0055 05       		.byte	0x5
 2039 0056 00000000 		.4byte	.LASF6
 2040 005a 02       		.uleb128 0x2
 2041 005b 08       		.byte	0x8
 2042 005c 07       		.byte	0x7
 2043 005d 38020000 		.4byte	.LASF7
 2044 0061 03       		.uleb128 0x3
 2045 0062 04       		.byte	0x4
 2046 0063 05       		.byte	0x5
 2047 0064 696E7400 		.ascii	"int\000"
 2048 0068 02       		.uleb128 0x2
 2049 0069 04       		.byte	0x4
 2050 006a 07       		.byte	0x7
 2051 006b 10020000 		.4byte	.LASF8
 2052 006f 04       		.uleb128 0x4
 2053 0070 40010000 		.4byte	.LASF9
 2054 0074 02       		.byte	0x2
 2055 0075 4C       		.byte	0x4c
 2056 0076 30000000 		.4byte	0x30
 2057 007a 04       		.uleb128 0x4
 2058 007b FB010000 		.4byte	.LASF10
 2059 007f 02       		.byte	0x2
 2060 0080 4D       		.byte	0x4d
 2061 0081 3E000000 		.4byte	0x3e
 2062 0085 04       		.uleb128 0x4
 2063 0086 09020000 		.4byte	.LASF11
 2064 008a 02       		.byte	0x2
 2065 008b 4E       		.byte	0x4e
 2066 008c 4C000000 		.4byte	0x4c
 2067 0090 02       		.uleb128 0x2
 2068 0091 04       		.byte	0x4
ARM GAS  C:\Users\srvs\AppData\Local\Temp\cc5vvGHT.s 			page 55


 2069 0092 04       		.byte	0x4
 2070 0093 B5000000 		.4byte	.LASF12
 2071 0097 02       		.uleb128 0x2
 2072 0098 08       		.byte	0x8
 2073 0099 04       		.byte	0x4
 2074 009a 8F010000 		.4byte	.LASF13
 2075 009e 02       		.uleb128 0x2
 2076 009f 01       		.byte	0x1
 2077 00a0 08       		.byte	0x8
 2078 00a1 90020000 		.4byte	.LASF14
 2079 00a5 05       		.uleb128 0x5
 2080 00a6 6F000000 		.4byte	0x6f
 2081 00aa 05       		.uleb128 0x5
 2082 00ab 7A000000 		.4byte	0x7a
 2083 00af 05       		.uleb128 0x5
 2084 00b0 85000000 		.4byte	0x85
 2085 00b4 06       		.uleb128 0x6
 2086 00b5 04       		.byte	0x4
 2087 00b6 07       		.byte	0x7
 2088 00b7 07       		.uleb128 0x7
 2089 00b8 01       		.byte	0x1
 2090 00b9 78010000 		.4byte	.LASF18
 2091 00bd 01       		.byte	0x1
 2092 00be 4A       		.byte	0x4a
 2093 00bf 01       		.byte	0x1
 2094 00c0 85000000 		.4byte	0x85
 2095 00c4 00000000 		.4byte	.LFB0
 2096 00c8 24010000 		.4byte	.LFE0
 2097 00cc 00000000 		.4byte	.LLST0
 2098 00d0 1B010000 		.4byte	0x11b
 2099 00d4 08       		.uleb128 0x8
 2100 00d5 54020000 		.4byte	.LASF15
 2101 00d9 01       		.byte	0x1
 2102 00da 4A       		.byte	0x4a
 2103 00db 85000000 		.4byte	0x85
 2104 00df 02       		.byte	0x2
 2105 00e0 91       		.byte	0x91
 2106 00e1 6C       		.sleb128 -20
 2107 00e2 08       		.uleb128 0x8
 2108 00e3 31020000 		.4byte	.LASF16
 2109 00e7 01       		.byte	0x1
 2110 00e8 4A       		.byte	0x4a
 2111 00e9 1B010000 		.4byte	0x11b
 2112 00ed 02       		.byte	0x2
 2113 00ee 91       		.byte	0x91
 2114 00ef 68       		.sleb128 -24
 2115 00f0 09       		.uleb128 0x9
 2116 00f1 636E7400 		.ascii	"cnt\000"
 2117 00f5 01       		.byte	0x1
 2118 00f6 4A       		.byte	0x4a
 2119 00f7 85000000 		.4byte	0x85
 2120 00fb 02       		.byte	0x2
 2121 00fc 91       		.byte	0x91
 2122 00fd 64       		.sleb128 -28
 2123 00fe 08       		.uleb128 0x8
 2124 00ff 4F020000 		.4byte	.LASF17
 2125 0103 01       		.byte	0x1
ARM GAS  C:\Users\srvs\AppData\Local\Temp\cc5vvGHT.s 			page 56


 2126 0104 4A       		.byte	0x4a
 2127 0105 85000000 		.4byte	0x85
 2128 0109 02       		.byte	0x2
 2129 010a 91       		.byte	0x91
 2130 010b 60       		.sleb128 -32
 2131 010c 0A       		.uleb128 0xa
 2132 010d 60010000 		.4byte	.LASF21
 2133 0111 01       		.byte	0x1
 2134 0112 4C       		.byte	0x4c
 2135 0113 85000000 		.4byte	0x85
 2136 0117 02       		.byte	0x2
 2137 0118 91       		.byte	0x91
 2138 0119 74       		.sleb128 -12
 2139 011a 00       		.byte	0x0
 2140 011b 0B       		.uleb128 0xb
 2141 011c 04       		.byte	0x4
 2142 011d 6F000000 		.4byte	0x6f
 2143 0121 07       		.uleb128 0x7
 2144 0122 01       		.byte	0x1
 2145 0123 0E000000 		.4byte	.LASF19
 2146 0127 01       		.byte	0x1
 2147 0128 AF       		.byte	0xaf
 2148 0129 01       		.byte	0x1
 2149 012a 85000000 		.4byte	0x85
 2150 012e 00000000 		.4byte	.LFB1
 2151 0132 38010000 		.4byte	.LFE1
 2152 0136 37000000 		.4byte	.LLST1
 2153 013a 85010000 		.4byte	0x185
 2154 013e 08       		.uleb128 0x8
 2155 013f 54020000 		.4byte	.LASF15
 2156 0143 01       		.byte	0x1
 2157 0144 AF       		.byte	0xaf
 2158 0145 85000000 		.4byte	0x85
 2159 0149 02       		.byte	0x2
 2160 014a 91       		.byte	0x91
 2161 014b 6C       		.sleb128 -20
 2162 014c 08       		.uleb128 0x8
 2163 014d 02020000 		.4byte	.LASF20
 2164 0151 01       		.byte	0x1
 2165 0152 AF       		.byte	0xaf
 2166 0153 1B010000 		.4byte	0x11b
 2167 0157 02       		.byte	0x2
 2168 0158 91       		.byte	0x91
 2169 0159 68       		.sleb128 -24
 2170 015a 09       		.uleb128 0x9
 2171 015b 636E7400 		.ascii	"cnt\000"
 2172 015f 01       		.byte	0x1
 2173 0160 AF       		.byte	0xaf
 2174 0161 85000000 		.4byte	0x85
 2175 0165 02       		.byte	0x2
 2176 0166 91       		.byte	0x91
 2177 0167 64       		.sleb128 -28
 2178 0168 08       		.uleb128 0x8
 2179 0169 4F020000 		.4byte	.LASF17
 2180 016d 01       		.byte	0x1
 2181 016e AF       		.byte	0xaf
 2182 016f 85000000 		.4byte	0x85
ARM GAS  C:\Users\srvs\AppData\Local\Temp\cc5vvGHT.s 			page 57


 2183 0173 02       		.byte	0x2
 2184 0174 91       		.byte	0x91
 2185 0175 60       		.sleb128 -32
 2186 0176 0A       		.uleb128 0xa
 2187 0177 60010000 		.4byte	.LASF21
 2188 017b 01       		.byte	0x1
 2189 017c B1       		.byte	0xb1
 2190 017d 85000000 		.4byte	0x85
 2191 0181 02       		.byte	0x2
 2192 0182 91       		.byte	0x91
 2193 0183 74       		.sleb128 -12
 2194 0184 00       		.byte	0x0
 2195 0185 0C       		.uleb128 0xc
 2196 0186 01       		.byte	0x1
 2197 0187 EE020000 		.4byte	.LASF22
 2198 018b 01       		.byte	0x1
 2199 018c 1101     		.2byte	0x111
 2200 018e 01       		.byte	0x1
 2201 018f 85000000 		.4byte	0x85
 2202 0193 00000000 		.4byte	.LFB2
 2203 0197 4C010000 		.4byte	.LFE2
 2204 019b 6E000000 		.4byte	.LLST2
 2205 019f E0010000 		.4byte	0x1e0
 2206 01a3 0D       		.uleb128 0xd
 2207 01a4 54020000 		.4byte	.LASF15
 2208 01a8 01       		.byte	0x1
 2209 01a9 1101     		.2byte	0x111
 2210 01ab 85000000 		.4byte	0x85
 2211 01af 02       		.byte	0x2
 2212 01b0 91       		.byte	0x91
 2213 01b1 6C       		.sleb128 -20
 2214 01b2 0D       		.uleb128 0xd
 2215 01b3 AE010000 		.4byte	.LASF23
 2216 01b7 01       		.byte	0x1
 2217 01b8 1101     		.2byte	0x111
 2218 01ba 85000000 		.4byte	0x85
 2219 01be 02       		.byte	0x2
 2220 01bf 91       		.byte	0x91
 2221 01c0 68       		.sleb128 -24
 2222 01c1 0E       		.uleb128 0xe
 2223 01c2 60010000 		.4byte	.LASF21
 2224 01c6 01       		.byte	0x1
 2225 01c7 1301     		.2byte	0x113
 2226 01c9 85000000 		.4byte	0x85
 2227 01cd 02       		.byte	0x2
 2228 01ce 91       		.byte	0x91
 2229 01cf 70       		.sleb128 -16
 2230 01d0 0E       		.uleb128 0xe
 2231 01d1 61020000 		.4byte	.LASF24
 2232 01d5 01       		.byte	0x1
 2233 01d6 1401     		.2byte	0x114
 2234 01d8 6F000000 		.4byte	0x6f
 2235 01dc 02       		.byte	0x2
 2236 01dd 91       		.byte	0x91
 2237 01de 77       		.sleb128 -9
 2238 01df 00       		.byte	0x0
 2239 01e0 0C       		.uleb128 0xc
ARM GAS  C:\Users\srvs\AppData\Local\Temp\cc5vvGHT.s 			page 58


 2240 01e1 01       		.byte	0x1
 2241 01e2 26010000 		.4byte	.LASF25
 2242 01e6 01       		.byte	0x1
 2243 01e7 9001     		.2byte	0x190
 2244 01e9 01       		.byte	0x1
 2245 01ea 85000000 		.4byte	0x85
 2246 01ee 00000000 		.4byte	.LFB3
 2247 01f2 40010000 		.4byte	.LFE3
 2248 01f6 A5000000 		.4byte	.LLST3
 2249 01fa 3B020000 		.4byte	0x23b
 2250 01fe 0D       		.uleb128 0xd
 2251 01ff 54020000 		.4byte	.LASF15
 2252 0203 01       		.byte	0x1
 2253 0204 9001     		.2byte	0x190
 2254 0206 85000000 		.4byte	0x85
 2255 020a 02       		.byte	0x2
 2256 020b 91       		.byte	0x91
 2257 020c 6C       		.sleb128 -20
 2258 020d 0D       		.uleb128 0xd
 2259 020e AE010000 		.4byte	.LASF23
 2260 0212 01       		.byte	0x1
 2261 0213 9001     		.2byte	0x190
 2262 0215 85000000 		.4byte	0x85
 2263 0219 02       		.byte	0x2
 2264 021a 91       		.byte	0x91
 2265 021b 68       		.sleb128 -24
 2266 021c 0E       		.uleb128 0xe
 2267 021d 60010000 		.4byte	.LASF21
 2268 0221 01       		.byte	0x1
 2269 0222 9201     		.2byte	0x192
 2270 0224 85000000 		.4byte	0x85
 2271 0228 02       		.byte	0x2
 2272 0229 91       		.byte	0x91
 2273 022a 70       		.sleb128 -16
 2274 022b 0E       		.uleb128 0xe
 2275 022c 61020000 		.4byte	.LASF24
 2276 0230 01       		.byte	0x1
 2277 0231 9301     		.2byte	0x193
 2278 0233 6F000000 		.4byte	0x6f
 2279 0237 02       		.byte	0x2
 2280 0238 91       		.byte	0x91
 2281 0239 77       		.sleb128 -9
 2282 023a 00       		.byte	0x0
 2283 023b 0C       		.uleb128 0xc
 2284 023c 01       		.byte	0x1
 2285 023d 7C000000 		.4byte	.LASF26
 2286 0241 01       		.byte	0x1
 2287 0242 0102     		.2byte	0x201
 2288 0244 01       		.byte	0x1
 2289 0245 85000000 		.4byte	0x85
 2290 0249 00000000 		.4byte	.LFB4
 2291 024d E4000000 		.4byte	.LFE4
 2292 0251 DC000000 		.4byte	.LLST4
 2293 0255 78020000 		.4byte	0x278
 2294 0259 0E       		.uleb128 0xe
 2295 025a 60010000 		.4byte	.LASF21
 2296 025e 01       		.byte	0x1
ARM GAS  C:\Users\srvs\AppData\Local\Temp\cc5vvGHT.s 			page 59


 2297 025f 0302     		.2byte	0x203
 2298 0261 85000000 		.4byte	0x85
 2299 0265 02       		.byte	0x2
 2300 0266 91       		.byte	0x91
 2301 0267 70       		.sleb128 -16
 2302 0268 0E       		.uleb128 0xe
 2303 0269 61020000 		.4byte	.LASF24
 2304 026d 01       		.byte	0x1
 2305 026e 0402     		.2byte	0x204
 2306 0270 6F000000 		.4byte	0x6f
 2307 0274 02       		.byte	0x2
 2308 0275 91       		.byte	0x91
 2309 0276 77       		.sleb128 -9
 2310 0277 00       		.byte	0x0
 2311 0278 0C       		.uleb128 0xc
 2312 0279 01       		.byte	0x1
 2313 027a 96010000 		.4byte	.LASF27
 2314 027e 01       		.byte	0x1
 2315 027f 5B02     		.2byte	0x25b
 2316 0281 01       		.byte	0x1
 2317 0282 85000000 		.4byte	0x85
 2318 0286 00000000 		.4byte	.LFB5
 2319 028a 00010000 		.4byte	.LFE5
 2320 028e 13010000 		.4byte	.LLST5
 2321 0292 C4020000 		.4byte	0x2c4
 2322 0296 0D       		.uleb128 0xd
 2323 0297 E6020000 		.4byte	.LASF28
 2324 029b 01       		.byte	0x1
 2325 029c 5B02     		.2byte	0x25b
 2326 029e 85000000 		.4byte	0x85
 2327 02a2 02       		.byte	0x2
 2328 02a3 91       		.byte	0x91
 2329 02a4 6C       		.sleb128 -20
 2330 02a5 0E       		.uleb128 0xe
 2331 02a6 60010000 		.4byte	.LASF21
 2332 02aa 01       		.byte	0x1
 2333 02ab 5D02     		.2byte	0x25d
 2334 02ad 85000000 		.4byte	0x85
 2335 02b1 02       		.byte	0x2
 2336 02b2 91       		.byte	0x91
 2337 02b3 70       		.sleb128 -16
 2338 02b4 0E       		.uleb128 0xe
 2339 02b5 61020000 		.4byte	.LASF24
 2340 02b9 01       		.byte	0x1
 2341 02ba 5E02     		.2byte	0x25e
 2342 02bc 6F000000 		.4byte	0x6f
 2343 02c0 02       		.byte	0x2
 2344 02c1 91       		.byte	0x91
 2345 02c2 77       		.sleb128 -9
 2346 02c3 00       		.byte	0x0
 2347 02c4 0C       		.uleb128 0xc
 2348 02c5 01       		.byte	0x1
 2349 02c6 52030000 		.4byte	.LASF29
 2350 02ca 01       		.byte	0x1
 2351 02cb BD02     		.2byte	0x2bd
 2352 02cd 01       		.byte	0x1
 2353 02ce 85000000 		.4byte	0x85
ARM GAS  C:\Users\srvs\AppData\Local\Temp\cc5vvGHT.s 			page 60


 2354 02d2 00000000 		.4byte	.LFB6
 2355 02d6 C8000000 		.4byte	.LFE6
 2356 02da 4A010000 		.4byte	.LLST6
 2357 02de 10030000 		.4byte	0x310
 2358 02e2 0D       		.uleb128 0xd
 2359 02e3 58010000 		.4byte	.LASF30
 2360 02e7 01       		.byte	0x1
 2361 02e8 BD02     		.2byte	0x2bd
 2362 02ea 85000000 		.4byte	0x85
 2363 02ee 02       		.byte	0x2
 2364 02ef 91       		.byte	0x91
 2365 02f0 6C       		.sleb128 -20
 2366 02f1 0E       		.uleb128 0xe
 2367 02f2 E6020000 		.4byte	.LASF28
 2368 02f6 01       		.byte	0x1
 2369 02f7 BF02     		.2byte	0x2bf
 2370 02f9 85000000 		.4byte	0x85
 2371 02fd 02       		.byte	0x2
 2372 02fe 91       		.byte	0x91
 2373 02ff 70       		.sleb128 -16
 2374 0300 0E       		.uleb128 0xe
 2375 0301 61020000 		.4byte	.LASF24
 2376 0305 01       		.byte	0x1
 2377 0306 C002     		.2byte	0x2c0
 2378 0308 6F000000 		.4byte	0x6f
 2379 030c 02       		.byte	0x2
 2380 030d 91       		.byte	0x91
 2381 030e 77       		.sleb128 -9
 2382 030f 00       		.byte	0x0
 2383 0310 0F       		.uleb128 0xf
 2384 0311 01       		.byte	0x1
 2385 0312 0F030000 		.4byte	.LASF31
 2386 0316 01       		.byte	0x1
 2387 0317 1103     		.2byte	0x311
 2388 0319 01       		.byte	0x1
 2389 031a 85000000 		.4byte	0x85
 2390 031e 00000000 		.4byte	.LFB7
 2391 0322 14000000 		.4byte	.LFE7
 2392 0326 81010000 		.4byte	.LLST7
 2393 032a 0F       		.uleb128 0xf
 2394 032b 01       		.byte	0x1
 2395 032c 5E000000 		.4byte	.LASF32
 2396 0330 01       		.byte	0x1
 2397 0331 2B03     		.2byte	0x32b
 2398 0333 01       		.byte	0x1
 2399 0334 85000000 		.4byte	0x85
 2400 0338 00000000 		.4byte	.LFB8
 2401 033c 14000000 		.4byte	.LFE8
 2402 0340 AC010000 		.4byte	.LLST8
 2403 0344 10       		.uleb128 0x10
 2404 0345 01       		.byte	0x1
 2405 0346 B5010000 		.4byte	.LASF33
 2406 034a 01       		.byte	0x1
 2407 034b 4403     		.2byte	0x344
 2408 034d 01       		.byte	0x1
 2409 034e 00000000 		.4byte	.LFB9
 2410 0352 28000000 		.4byte	.LFE9
ARM GAS  C:\Users\srvs\AppData\Local\Temp\cc5vvGHT.s 			page 61


 2411 0356 D7010000 		.4byte	.LLST9
 2412 035a 10       		.uleb128 0x10
 2413 035b 01       		.byte	0x1
 2414 035c 95020000 		.4byte	.LASF34
 2415 0360 01       		.byte	0x1
 2416 0361 5E03     		.2byte	0x35e
 2417 0363 01       		.byte	0x1
 2418 0364 00000000 		.4byte	.LFB10
 2419 0368 28000000 		.4byte	.LFE10
 2420 036c 02020000 		.4byte	.LLST10
 2421 0370 0C       		.uleb128 0xc
 2422 0371 01       		.byte	0x1
 2423 0372 69030000 		.4byte	.LASF35
 2424 0376 01       		.byte	0x1
 2425 0377 7603     		.2byte	0x376
 2426 0379 01       		.byte	0x1
 2427 037a 85000000 		.4byte	0x85
 2428 037e 00000000 		.4byte	.LFB11
 2429 0382 38000000 		.4byte	.LFE11
 2430 0386 2D020000 		.4byte	.LLST11
 2431 038a 9E030000 		.4byte	0x39e
 2432 038e 0E       		.uleb128 0xe
 2433 038f 9E000000 		.4byte	.LASF36
 2434 0393 01       		.byte	0x1
 2435 0394 7803     		.2byte	0x378
 2436 0396 85000000 		.4byte	0x85
 2437 039a 02       		.byte	0x2
 2438 039b 91       		.byte	0x91
 2439 039c 74       		.sleb128 -12
 2440 039d 00       		.byte	0x0
 2441 039e 0C       		.uleb128 0xc
 2442 039f 01       		.byte	0x1
 2443 03a0 C2020000 		.4byte	.LASF37
 2444 03a4 01       		.byte	0x1
 2445 03a5 9703     		.2byte	0x397
 2446 03a7 01       		.byte	0x1
 2447 03a8 85000000 		.4byte	0x85
 2448 03ac 00000000 		.4byte	.LFB12
 2449 03b0 24000000 		.4byte	.LFE12
 2450 03b4 64020000 		.4byte	.LLST12
 2451 03b8 CC030000 		.4byte	0x3cc
 2452 03bc 0E       		.uleb128 0xe
 2453 03bd 9E000000 		.4byte	.LASF36
 2454 03c1 01       		.byte	0x1
 2455 03c2 9903     		.2byte	0x399
 2456 03c4 85000000 		.4byte	0x85
 2457 03c8 02       		.byte	0x2
 2458 03c9 91       		.byte	0x91
 2459 03ca 74       		.sleb128 -12
 2460 03cb 00       		.byte	0x0
 2461 03cc 10       		.uleb128 0x10
 2462 03cd 01       		.byte	0x1
 2463 03ce 2C030000 		.4byte	.LASF38
 2464 03d2 01       		.byte	0x1
 2465 03d3 C003     		.2byte	0x3c0
 2466 03d5 01       		.byte	0x1
 2467 03d6 00000000 		.4byte	.LFB13
ARM GAS  C:\Users\srvs\AppData\Local\Temp\cc5vvGHT.s 			page 62


 2468 03da C4000000 		.4byte	.LFE13
 2469 03de 9B020000 		.4byte	.LLST13
 2470 03e2 11       		.uleb128 0x11
 2471 03e3 93000000 		.4byte	.LASF39
 2472 03e7 03       		.byte	0x3
 2473 03e8 1D       		.byte	0x1d
 2474 03e9 A5000000 		.4byte	0xa5
 2475 03ed 01       		.byte	0x1
 2476 03ee 01       		.byte	0x1
 2477 03ef 12       		.uleb128 0x12
 2478 03f0 A5000000 		.4byte	.LASF40
 2479 03f4 01       		.byte	0x1
 2480 03f5 1C       		.byte	0x1c
 2481 03f6 AA000000 		.4byte	0xaa
 2482 03fa 01       		.byte	0x1
 2483 03fb 05       		.byte	0x5
 2484 03fc 03       		.byte	0x3
 2485 03fd 00000000 		.4byte	I2CM_mstrStatus
 2486 0401 12       		.uleb128 0x12
 2487 0402 B1020000 		.4byte	.LASF41
 2488 0406 01       		.byte	0x1
 2489 0407 1D       		.byte	0x1d
 2490 0408 A5000000 		.4byte	0xa5
 2491 040c 01       		.byte	0x1
 2492 040d 05       		.byte	0x5
 2493 040e 03       		.byte	0x3
 2494 040f 00000000 		.4byte	I2CM_mstrControl
 2495 0413 12       		.uleb128 0x12
 2496 0414 46010000 		.4byte	.LASF42
 2497 0418 01       		.byte	0x1
 2498 0419 20       		.byte	0x20
 2499 041a 25040000 		.4byte	0x425
 2500 041e 01       		.byte	0x1
 2501 041f 05       		.byte	0x5
 2502 0420 03       		.byte	0x3
 2503 0421 00000000 		.4byte	I2CM_mstrRdBufPtr
 2504 0425 0B       		.uleb128 0xb
 2505 0426 04       		.byte	0x4
 2506 0427 A5000000 		.4byte	0xa5
 2507 042b 12       		.uleb128 0x12
 2508 042c 24000000 		.4byte	.LASF43
 2509 0430 01       		.byte	0x1
 2510 0431 21       		.byte	0x21
 2511 0432 AF000000 		.4byte	0xaf
 2512 0436 01       		.byte	0x1
 2513 0437 05       		.byte	0x5
 2514 0438 03       		.byte	0x3
 2515 0439 00000000 		.4byte	I2CM_mstrRdBufSize
 2516 043d 12       		.uleb128 0x12
 2517 043e 37000000 		.4byte	.LASF44
 2518 0442 01       		.byte	0x1
 2519 0443 22       		.byte	0x22
 2520 0444 AF000000 		.4byte	0xaf
 2521 0448 01       		.byte	0x1
 2522 0449 05       		.byte	0x5
 2523 044a 03       		.byte	0x3
 2524 044b 00000000 		.4byte	I2CM_mstrRdBufIndex
ARM GAS  C:\Users\srvs\AppData\Local\Temp\cc5vvGHT.s 			page 63


 2525 044f 12       		.uleb128 0x12
 2526 0450 7E020000 		.4byte	.LASF45
 2527 0454 01       		.byte	0x1
 2528 0455 25       		.byte	0x25
 2529 0456 25040000 		.4byte	0x425
 2530 045a 01       		.byte	0x1
 2531 045b 05       		.byte	0x5
 2532 045c 03       		.byte	0x3
 2533 045d 00000000 		.4byte	I2CM_mstrWrBufPtr
 2534 0461 12       		.uleb128 0x12
 2535 0462 01010000 		.4byte	.LASF46
 2536 0466 01       		.byte	0x1
 2537 0467 26       		.byte	0x26
 2538 0468 AF000000 		.4byte	0xaf
 2539 046c 01       		.byte	0x1
 2540 046d 05       		.byte	0x5
 2541 046e 03       		.byte	0x3
 2542 046f 00000000 		.4byte	I2CM_mstrWrBufSize
 2543 0473 12       		.uleb128 0x12
 2544 0474 1D020000 		.4byte	.LASF47
 2545 0478 01       		.byte	0x1
 2546 0479 27       		.byte	0x27
 2547 047a AF000000 		.4byte	0xaf
 2548 047e 01       		.byte	0x1
 2549 047f 05       		.byte	0x5
 2550 0480 03       		.byte	0x3
 2551 0481 00000000 		.4byte	I2CM_mstrWrBufIndex
 2552 0485 12       		.uleb128 0x12
 2553 0486 7E030000 		.4byte	.LASF48
 2554 048a 01       		.byte	0x1
 2555 048b 28       		.byte	0x28
 2556 048c AF000000 		.4byte	0xaf
 2557 0490 01       		.byte	0x1
 2558 0491 05       		.byte	0x5
 2559 0492 03       		.byte	0x3
 2560 0493 00000000 		.4byte	I2CM_mstrWrBufIndexTmp
 2561 0497 00       		.byte	0x0
 2562              		.section	.debug_abbrev
 2563 0000 01       		.uleb128 0x1
 2564 0001 11       		.uleb128 0x11
 2565 0002 01       		.byte	0x1
 2566 0003 25       		.uleb128 0x25
 2567 0004 0E       		.uleb128 0xe
 2568 0005 13       		.uleb128 0x13
 2569 0006 0B       		.uleb128 0xb
 2570 0007 03       		.uleb128 0x3
 2571 0008 0E       		.uleb128 0xe
 2572 0009 1B       		.uleb128 0x1b
 2573 000a 0E       		.uleb128 0xe
 2574 000b 11       		.uleb128 0x11
 2575 000c 01       		.uleb128 0x1
 2576 000d 52       		.uleb128 0x52
 2577 000e 01       		.uleb128 0x1
 2578 000f 55       		.uleb128 0x55
 2579 0010 06       		.uleb128 0x6
 2580 0011 10       		.uleb128 0x10
 2581 0012 06       		.uleb128 0x6
ARM GAS  C:\Users\srvs\AppData\Local\Temp\cc5vvGHT.s 			page 64


 2582 0013 00       		.byte	0x0
 2583 0014 00       		.byte	0x0
 2584 0015 02       		.uleb128 0x2
 2585 0016 24       		.uleb128 0x24
 2586 0017 00       		.byte	0x0
 2587 0018 0B       		.uleb128 0xb
 2588 0019 0B       		.uleb128 0xb
 2589 001a 3E       		.uleb128 0x3e
 2590 001b 0B       		.uleb128 0xb
 2591 001c 03       		.uleb128 0x3
 2592 001d 0E       		.uleb128 0xe
 2593 001e 00       		.byte	0x0
 2594 001f 00       		.byte	0x0
 2595 0020 03       		.uleb128 0x3
 2596 0021 24       		.uleb128 0x24
 2597 0022 00       		.byte	0x0
 2598 0023 0B       		.uleb128 0xb
 2599 0024 0B       		.uleb128 0xb
 2600 0025 3E       		.uleb128 0x3e
 2601 0026 0B       		.uleb128 0xb
 2602 0027 03       		.uleb128 0x3
 2603 0028 08       		.uleb128 0x8
 2604 0029 00       		.byte	0x0
 2605 002a 00       		.byte	0x0
 2606 002b 04       		.uleb128 0x4
 2607 002c 16       		.uleb128 0x16
 2608 002d 00       		.byte	0x0
 2609 002e 03       		.uleb128 0x3
 2610 002f 0E       		.uleb128 0xe
 2611 0030 3A       		.uleb128 0x3a
 2612 0031 0B       		.uleb128 0xb
 2613 0032 3B       		.uleb128 0x3b
 2614 0033 0B       		.uleb128 0xb
 2615 0034 49       		.uleb128 0x49
 2616 0035 13       		.uleb128 0x13
 2617 0036 00       		.byte	0x0
 2618 0037 00       		.byte	0x0
 2619 0038 05       		.uleb128 0x5
 2620 0039 35       		.uleb128 0x35
 2621 003a 00       		.byte	0x0
 2622 003b 49       		.uleb128 0x49
 2623 003c 13       		.uleb128 0x13
 2624 003d 00       		.byte	0x0
 2625 003e 00       		.byte	0x0
 2626 003f 06       		.uleb128 0x6
 2627 0040 24       		.uleb128 0x24
 2628 0041 00       		.byte	0x0
 2629 0042 0B       		.uleb128 0xb
 2630 0043 0B       		.uleb128 0xb
 2631 0044 3E       		.uleb128 0x3e
 2632 0045 0B       		.uleb128 0xb
 2633 0046 00       		.byte	0x0
 2634 0047 00       		.byte	0x0
 2635 0048 07       		.uleb128 0x7
 2636 0049 2E       		.uleb128 0x2e
 2637 004a 01       		.byte	0x1
 2638 004b 3F       		.uleb128 0x3f
ARM GAS  C:\Users\srvs\AppData\Local\Temp\cc5vvGHT.s 			page 65


 2639 004c 0C       		.uleb128 0xc
 2640 004d 03       		.uleb128 0x3
 2641 004e 0E       		.uleb128 0xe
 2642 004f 3A       		.uleb128 0x3a
 2643 0050 0B       		.uleb128 0xb
 2644 0051 3B       		.uleb128 0x3b
 2645 0052 0B       		.uleb128 0xb
 2646 0053 27       		.uleb128 0x27
 2647 0054 0C       		.uleb128 0xc
 2648 0055 49       		.uleb128 0x49
 2649 0056 13       		.uleb128 0x13
 2650 0057 11       		.uleb128 0x11
 2651 0058 01       		.uleb128 0x1
 2652 0059 12       		.uleb128 0x12
 2653 005a 01       		.uleb128 0x1
 2654 005b 40       		.uleb128 0x40
 2655 005c 06       		.uleb128 0x6
 2656 005d 01       		.uleb128 0x1
 2657 005e 13       		.uleb128 0x13
 2658 005f 00       		.byte	0x0
 2659 0060 00       		.byte	0x0
 2660 0061 08       		.uleb128 0x8
 2661 0062 05       		.uleb128 0x5
 2662 0063 00       		.byte	0x0
 2663 0064 03       		.uleb128 0x3
 2664 0065 0E       		.uleb128 0xe
 2665 0066 3A       		.uleb128 0x3a
 2666 0067 0B       		.uleb128 0xb
 2667 0068 3B       		.uleb128 0x3b
 2668 0069 0B       		.uleb128 0xb
 2669 006a 49       		.uleb128 0x49
 2670 006b 13       		.uleb128 0x13
 2671 006c 02       		.uleb128 0x2
 2672 006d 0A       		.uleb128 0xa
 2673 006e 00       		.byte	0x0
 2674 006f 00       		.byte	0x0
 2675 0070 09       		.uleb128 0x9
 2676 0071 05       		.uleb128 0x5
 2677 0072 00       		.byte	0x0
 2678 0073 03       		.uleb128 0x3
 2679 0074 08       		.uleb128 0x8
 2680 0075 3A       		.uleb128 0x3a
 2681 0076 0B       		.uleb128 0xb
 2682 0077 3B       		.uleb128 0x3b
 2683 0078 0B       		.uleb128 0xb
 2684 0079 49       		.uleb128 0x49
 2685 007a 13       		.uleb128 0x13
 2686 007b 02       		.uleb128 0x2
 2687 007c 0A       		.uleb128 0xa
 2688 007d 00       		.byte	0x0
 2689 007e 00       		.byte	0x0
 2690 007f 0A       		.uleb128 0xa
 2691 0080 34       		.uleb128 0x34
 2692 0081 00       		.byte	0x0
 2693 0082 03       		.uleb128 0x3
 2694 0083 0E       		.uleb128 0xe
 2695 0084 3A       		.uleb128 0x3a
ARM GAS  C:\Users\srvs\AppData\Local\Temp\cc5vvGHT.s 			page 66


 2696 0085 0B       		.uleb128 0xb
 2697 0086 3B       		.uleb128 0x3b
 2698 0087 0B       		.uleb128 0xb
 2699 0088 49       		.uleb128 0x49
 2700 0089 13       		.uleb128 0x13
 2701 008a 02       		.uleb128 0x2
 2702 008b 0A       		.uleb128 0xa
 2703 008c 00       		.byte	0x0
 2704 008d 00       		.byte	0x0
 2705 008e 0B       		.uleb128 0xb
 2706 008f 0F       		.uleb128 0xf
 2707 0090 00       		.byte	0x0
 2708 0091 0B       		.uleb128 0xb
 2709 0092 0B       		.uleb128 0xb
 2710 0093 49       		.uleb128 0x49
 2711 0094 13       		.uleb128 0x13
 2712 0095 00       		.byte	0x0
 2713 0096 00       		.byte	0x0
 2714 0097 0C       		.uleb128 0xc
 2715 0098 2E       		.uleb128 0x2e
 2716 0099 01       		.byte	0x1
 2717 009a 3F       		.uleb128 0x3f
 2718 009b 0C       		.uleb128 0xc
 2719 009c 03       		.uleb128 0x3
 2720 009d 0E       		.uleb128 0xe
 2721 009e 3A       		.uleb128 0x3a
 2722 009f 0B       		.uleb128 0xb
 2723 00a0 3B       		.uleb128 0x3b
 2724 00a1 05       		.uleb128 0x5
 2725 00a2 27       		.uleb128 0x27
 2726 00a3 0C       		.uleb128 0xc
 2727 00a4 49       		.uleb128 0x49
 2728 00a5 13       		.uleb128 0x13
 2729 00a6 11       		.uleb128 0x11
 2730 00a7 01       		.uleb128 0x1
 2731 00a8 12       		.uleb128 0x12
 2732 00a9 01       		.uleb128 0x1
 2733 00aa 40       		.uleb128 0x40
 2734 00ab 06       		.uleb128 0x6
 2735 00ac 01       		.uleb128 0x1
 2736 00ad 13       		.uleb128 0x13
 2737 00ae 00       		.byte	0x0
 2738 00af 00       		.byte	0x0
 2739 00b0 0D       		.uleb128 0xd
 2740 00b1 05       		.uleb128 0x5
 2741 00b2 00       		.byte	0x0
 2742 00b3 03       		.uleb128 0x3
 2743 00b4 0E       		.uleb128 0xe
 2744 00b5 3A       		.uleb128 0x3a
 2745 00b6 0B       		.uleb128 0xb
 2746 00b7 3B       		.uleb128 0x3b
 2747 00b8 05       		.uleb128 0x5
 2748 00b9 49       		.uleb128 0x49
 2749 00ba 13       		.uleb128 0x13
 2750 00bb 02       		.uleb128 0x2
 2751 00bc 0A       		.uleb128 0xa
 2752 00bd 00       		.byte	0x0
ARM GAS  C:\Users\srvs\AppData\Local\Temp\cc5vvGHT.s 			page 67


 2753 00be 00       		.byte	0x0
 2754 00bf 0E       		.uleb128 0xe
 2755 00c0 34       		.uleb128 0x34
 2756 00c1 00       		.byte	0x0
 2757 00c2 03       		.uleb128 0x3
 2758 00c3 0E       		.uleb128 0xe
 2759 00c4 3A       		.uleb128 0x3a
 2760 00c5 0B       		.uleb128 0xb
 2761 00c6 3B       		.uleb128 0x3b
 2762 00c7 05       		.uleb128 0x5
 2763 00c8 49       		.uleb128 0x49
 2764 00c9 13       		.uleb128 0x13
 2765 00ca 02       		.uleb128 0x2
 2766 00cb 0A       		.uleb128 0xa
 2767 00cc 00       		.byte	0x0
 2768 00cd 00       		.byte	0x0
 2769 00ce 0F       		.uleb128 0xf
 2770 00cf 2E       		.uleb128 0x2e
 2771 00d0 00       		.byte	0x0
 2772 00d1 3F       		.uleb128 0x3f
 2773 00d2 0C       		.uleb128 0xc
 2774 00d3 03       		.uleb128 0x3
 2775 00d4 0E       		.uleb128 0xe
 2776 00d5 3A       		.uleb128 0x3a
 2777 00d6 0B       		.uleb128 0xb
 2778 00d7 3B       		.uleb128 0x3b
 2779 00d8 05       		.uleb128 0x5
 2780 00d9 27       		.uleb128 0x27
 2781 00da 0C       		.uleb128 0xc
 2782 00db 49       		.uleb128 0x49
 2783 00dc 13       		.uleb128 0x13
 2784 00dd 11       		.uleb128 0x11
 2785 00de 01       		.uleb128 0x1
 2786 00df 12       		.uleb128 0x12
 2787 00e0 01       		.uleb128 0x1
 2788 00e1 40       		.uleb128 0x40
 2789 00e2 06       		.uleb128 0x6
 2790 00e3 00       		.byte	0x0
 2791 00e4 00       		.byte	0x0
 2792 00e5 10       		.uleb128 0x10
 2793 00e6 2E       		.uleb128 0x2e
 2794 00e7 00       		.byte	0x0
 2795 00e8 3F       		.uleb128 0x3f
 2796 00e9 0C       		.uleb128 0xc
 2797 00ea 03       		.uleb128 0x3
 2798 00eb 0E       		.uleb128 0xe
 2799 00ec 3A       		.uleb128 0x3a
 2800 00ed 0B       		.uleb128 0xb
 2801 00ee 3B       		.uleb128 0x3b
 2802 00ef 05       		.uleb128 0x5
 2803 00f0 27       		.uleb128 0x27
 2804 00f1 0C       		.uleb128 0xc
 2805 00f2 11       		.uleb128 0x11
 2806 00f3 01       		.uleb128 0x1
 2807 00f4 12       		.uleb128 0x12
 2808 00f5 01       		.uleb128 0x1
 2809 00f6 40       		.uleb128 0x40
ARM GAS  C:\Users\srvs\AppData\Local\Temp\cc5vvGHT.s 			page 68


 2810 00f7 06       		.uleb128 0x6
 2811 00f8 00       		.byte	0x0
 2812 00f9 00       		.byte	0x0
 2813 00fa 11       		.uleb128 0x11
 2814 00fb 34       		.uleb128 0x34
 2815 00fc 00       		.byte	0x0
 2816 00fd 03       		.uleb128 0x3
 2817 00fe 0E       		.uleb128 0xe
 2818 00ff 3A       		.uleb128 0x3a
 2819 0100 0B       		.uleb128 0xb
 2820 0101 3B       		.uleb128 0x3b
 2821 0102 0B       		.uleb128 0xb
 2822 0103 49       		.uleb128 0x49
 2823 0104 13       		.uleb128 0x13
 2824 0105 3F       		.uleb128 0x3f
 2825 0106 0C       		.uleb128 0xc
 2826 0107 3C       		.uleb128 0x3c
 2827 0108 0C       		.uleb128 0xc
 2828 0109 00       		.byte	0x0
 2829 010a 00       		.byte	0x0
 2830 010b 12       		.uleb128 0x12
 2831 010c 34       		.uleb128 0x34
 2832 010d 00       		.byte	0x0
 2833 010e 03       		.uleb128 0x3
 2834 010f 0E       		.uleb128 0xe
 2835 0110 3A       		.uleb128 0x3a
 2836 0111 0B       		.uleb128 0xb
 2837 0112 3B       		.uleb128 0x3b
 2838 0113 0B       		.uleb128 0xb
 2839 0114 49       		.uleb128 0x49
 2840 0115 13       		.uleb128 0x13
 2841 0116 3F       		.uleb128 0x3f
 2842 0117 0C       		.uleb128 0xc
 2843 0118 02       		.uleb128 0x2
 2844 0119 0A       		.uleb128 0xa
 2845 011a 00       		.byte	0x0
 2846 011b 00       		.byte	0x0
 2847 011c 00       		.byte	0x0
 2848              		.section	.debug_pubnames,"",%progbits
 2849 0000 74020000 		.4byte	0x274
 2850 0004 0200     		.2byte	0x2
 2851 0006 00000000 		.4byte	.Ldebug_info0
 2852 000a 98040000 		.4byte	0x498
 2853 000e B7000000 		.4byte	0xb7
 2854 0012 4932434D 		.ascii	"I2CM_I2CMasterWriteBuf\000"
 2854      5F493243 
 2854      4D617374 
 2854      65725772 
 2854      69746542 
 2855 0029 21010000 		.4byte	0x121
 2856 002d 4932434D 		.ascii	"I2CM_I2CMasterReadBuf\000"
 2856      5F493243 
 2856      4D617374 
 2856      65725265 
 2856      61644275 
 2857 0043 85010000 		.4byte	0x185
 2858 0047 4932434D 		.ascii	"I2CM_I2CMasterSendStart\000"
ARM GAS  C:\Users\srvs\AppData\Local\Temp\cc5vvGHT.s 			page 69


 2858      5F493243 
 2858      4D617374 
 2858      65725365 
 2858      6E645374 
 2859 005f E0010000 		.4byte	0x1e0
 2860 0063 4932434D 		.ascii	"I2CM_I2CMasterSendRestart\000"
 2860      5F493243 
 2860      4D617374 
 2860      65725365 
 2860      6E645265 
 2861 007d 3B020000 		.4byte	0x23b
 2862 0081 4932434D 		.ascii	"I2CM_I2CMasterSendStop\000"
 2862      5F493243 
 2862      4D617374 
 2862      65725365 
 2862      6E645374 
 2863 0098 78020000 		.4byte	0x278
 2864 009c 4932434D 		.ascii	"I2CM_I2CMasterWriteByte\000"
 2864      5F493243 
 2864      4D617374 
 2864      65725772 
 2864      69746542 
 2865 00b4 C4020000 		.4byte	0x2c4
 2866 00b8 4932434D 		.ascii	"I2CM_I2CMasterReadByte\000"
 2866      5F493243 
 2866      4D617374 
 2866      65725265 
 2866      61644279 
 2867 00cf 10030000 		.4byte	0x310
 2868 00d3 4932434D 		.ascii	"I2CM_I2CMasterGetReadBufSize\000"
 2868      5F493243 
 2868      4D617374 
 2868      65724765 
 2868      74526561 
 2869 00f0 2A030000 		.4byte	0x32a
 2870 00f4 4932434D 		.ascii	"I2CM_I2CMasterGetWriteBufSize\000"
 2870      5F493243 
 2870      4D617374 
 2870      65724765 
 2870      74577269 
 2871 0112 44030000 		.4byte	0x344
 2872 0116 4932434D 		.ascii	"I2CM_I2CMasterClearReadBuf\000"
 2872      5F493243 
 2872      4D617374 
 2872      6572436C 
 2872      65617252 
 2873 0131 5A030000 		.4byte	0x35a
 2874 0135 4932434D 		.ascii	"I2CM_I2CMasterClearWriteBuf\000"
 2874      5F493243 
 2874      4D617374 
 2874      6572436C 
 2874      65617257 
 2875 0151 70030000 		.4byte	0x370
 2876 0155 4932434D 		.ascii	"I2CM_I2CMasterStatus\000"
 2876      5F493243 
 2876      4D617374 
 2876      65725374 
ARM GAS  C:\Users\srvs\AppData\Local\Temp\cc5vvGHT.s 			page 70


 2876      61747573 
 2877 016a 9E030000 		.4byte	0x39e
 2878 016e 4932434D 		.ascii	"I2CM_I2CMasterClearStatus\000"
 2878      5F493243 
 2878      4D617374 
 2878      6572436C 
 2878      65617253 
 2879 0188 CC030000 		.4byte	0x3cc
 2880 018c 4932434D 		.ascii	"I2CM_I2CReStartGeneration\000"
 2880      5F493243 
 2880      52655374 
 2880      61727447 
 2880      656E6572 
 2881 01a6 EF030000 		.4byte	0x3ef
 2882 01aa 4932434D 		.ascii	"I2CM_mstrStatus\000"
 2882      5F6D7374 
 2882      72537461 
 2882      74757300 
 2883 01ba 01040000 		.4byte	0x401
 2884 01be 4932434D 		.ascii	"I2CM_mstrControl\000"
 2884      5F6D7374 
 2884      72436F6E 
 2884      74726F6C 
 2884      00
 2885 01cf 13040000 		.4byte	0x413
 2886 01d3 4932434D 		.ascii	"I2CM_mstrRdBufPtr\000"
 2886      5F6D7374 
 2886      72526442 
 2886      75665074 
 2886      7200
 2887 01e5 2B040000 		.4byte	0x42b
 2888 01e9 4932434D 		.ascii	"I2CM_mstrRdBufSize\000"
 2888      5F6D7374 
 2888      72526442 
 2888      75665369 
 2888      7A6500
 2889 01fc 3D040000 		.4byte	0x43d
 2890 0200 4932434D 		.ascii	"I2CM_mstrRdBufIndex\000"
 2890      5F6D7374 
 2890      72526442 
 2890      7566496E 
 2890      64657800 
 2891 0214 4F040000 		.4byte	0x44f
 2892 0218 4932434D 		.ascii	"I2CM_mstrWrBufPtr\000"
 2892      5F6D7374 
 2892      72577242 
 2892      75665074 
 2892      7200
 2893 022a 61040000 		.4byte	0x461
 2894 022e 4932434D 		.ascii	"I2CM_mstrWrBufSize\000"
 2894      5F6D7374 
 2894      72577242 
 2894      75665369 
 2894      7A6500
 2895 0241 73040000 		.4byte	0x473
 2896 0245 4932434D 		.ascii	"I2CM_mstrWrBufIndex\000"
 2896      5F6D7374 
ARM GAS  C:\Users\srvs\AppData\Local\Temp\cc5vvGHT.s 			page 71


 2896      72577242 
 2896      7566496E 
 2896      64657800 
 2897 0259 85040000 		.4byte	0x485
 2898 025d 4932434D 		.ascii	"I2CM_mstrWrBufIndexTmp\000"
 2898      5F6D7374 
 2898      72577242 
 2898      7566496E 
 2898      64657854 
 2899 0274 00000000 		.4byte	0x0
 2900              		.section	.debug_aranges,"",%progbits
 2901 0000 84000000 		.4byte	0x84
 2902 0004 0200     		.2byte	0x2
 2903 0006 00000000 		.4byte	.Ldebug_info0
 2904 000a 04       		.byte	0x4
 2905 000b 00       		.byte	0x0
 2906 000c 0000     		.2byte	0x0
 2907 000e 0000     		.2byte	0x0
 2908 0010 00000000 		.4byte	.LFB0
 2909 0014 24010000 		.4byte	.LFE0-.LFB0
 2910 0018 00000000 		.4byte	.LFB1
 2911 001c 38010000 		.4byte	.LFE1-.LFB1
 2912 0020 00000000 		.4byte	.LFB2
 2913 0024 4C010000 		.4byte	.LFE2-.LFB2
 2914 0028 00000000 		.4byte	.LFB3
 2915 002c 40010000 		.4byte	.LFE3-.LFB3
 2916 0030 00000000 		.4byte	.LFB4
 2917 0034 E4000000 		.4byte	.LFE4-.LFB4
 2918 0038 00000000 		.4byte	.LFB5
 2919 003c 00010000 		.4byte	.LFE5-.LFB5
 2920 0040 00000000 		.4byte	.LFB6
 2921 0044 C8000000 		.4byte	.LFE6-.LFB6
 2922 0048 00000000 		.4byte	.LFB7
 2923 004c 14000000 		.4byte	.LFE7-.LFB7
 2924 0050 00000000 		.4byte	.LFB8
 2925 0054 14000000 		.4byte	.LFE8-.LFB8
 2926 0058 00000000 		.4byte	.LFB9
 2927 005c 28000000 		.4byte	.LFE9-.LFB9
 2928 0060 00000000 		.4byte	.LFB10
 2929 0064 28000000 		.4byte	.LFE10-.LFB10
 2930 0068 00000000 		.4byte	.LFB11
 2931 006c 38000000 		.4byte	.LFE11-.LFB11
 2932 0070 00000000 		.4byte	.LFB12
 2933 0074 24000000 		.4byte	.LFE12-.LFB12
 2934 0078 00000000 		.4byte	.LFB13
 2935 007c C4000000 		.4byte	.LFE13-.LFB13
 2936 0080 00000000 		.4byte	0x0
 2937 0084 00000000 		.4byte	0x0
 2938              		.section	.debug_ranges,"",%progbits
 2939              	.Ldebug_ranges0:
 2940 0000 00000000 		.4byte	.Ltext0
 2941 0004 00000000 		.4byte	.Letext0
 2942 0008 00000000 		.4byte	.LFB0
 2943 000c 24010000 		.4byte	.LFE0
 2944 0010 00000000 		.4byte	.LFB1
 2945 0014 38010000 		.4byte	.LFE1
 2946 0018 00000000 		.4byte	.LFB2
ARM GAS  C:\Users\srvs\AppData\Local\Temp\cc5vvGHT.s 			page 72


 2947 001c 4C010000 		.4byte	.LFE2
 2948 0020 00000000 		.4byte	.LFB3
 2949 0024 40010000 		.4byte	.LFE3
 2950 0028 00000000 		.4byte	.LFB4
 2951 002c E4000000 		.4byte	.LFE4
 2952 0030 00000000 		.4byte	.LFB5
 2953 0034 00010000 		.4byte	.LFE5
 2954 0038 00000000 		.4byte	.LFB6
 2955 003c C8000000 		.4byte	.LFE6
 2956 0040 00000000 		.4byte	.LFB7
 2957 0044 14000000 		.4byte	.LFE7
 2958 0048 00000000 		.4byte	.LFB8
 2959 004c 14000000 		.4byte	.LFE8
 2960 0050 00000000 		.4byte	.LFB9
 2961 0054 28000000 		.4byte	.LFE9
 2962 0058 00000000 		.4byte	.LFB10
 2963 005c 28000000 		.4byte	.LFE10
 2964 0060 00000000 		.4byte	.LFB11
 2965 0064 38000000 		.4byte	.LFE11
 2966 0068 00000000 		.4byte	.LFB12
 2967 006c 24000000 		.4byte	.LFE12
 2968 0070 00000000 		.4byte	.LFB13
 2969 0074 C4000000 		.4byte	.LFE13
 2970 0078 00000000 		.4byte	0x0
 2971 007c 00000000 		.4byte	0x0
 2972              		.section	.debug_str,"MS",%progbits,1
 2973              	.LASF6:
 2974 0000 6C6F6E67 		.ascii	"long long int\000"
 2974      206C6F6E 
 2974      6720696E 
 2974      7400
 2975              	.LASF19:
 2976 000e 4932434D 		.ascii	"I2CM_I2CMasterReadBuf\000"
 2976      5F493243 
 2976      4D617374 
 2976      65725265 
 2976      61644275 
 2977              	.LASF43:
 2978 0024 4932434D 		.ascii	"I2CM_mstrRdBufSize\000"
 2978      5F6D7374 
 2978      72526442 
 2978      75665369 
 2978      7A6500
 2979              	.LASF44:
 2980 0037 4932434D 		.ascii	"I2CM_mstrRdBufIndex\000"
 2980      5F6D7374 
 2980      72526442 
 2980      7566496E 
 2980      64657800 
 2981              	.LASF3:
 2982 004b 73686F72 		.ascii	"short unsigned int\000"
 2982      7420756E 
 2982      7369676E 
 2982      65642069 
 2982      6E7400
 2983              	.LASF32:
 2984 005e 4932434D 		.ascii	"I2CM_I2CMasterGetWriteBufSize\000"
ARM GAS  C:\Users\srvs\AppData\Local\Temp\cc5vvGHT.s 			page 73


 2984      5F493243 
 2984      4D617374 
 2984      65724765 
 2984      74577269 
 2985              	.LASF26:
 2986 007c 4932434D 		.ascii	"I2CM_I2CMasterSendStop\000"
 2986      5F493243 
 2986      4D617374 
 2986      65725365 
 2986      6E645374 
 2987              	.LASF39:
 2988 0093 4932434D 		.ascii	"I2CM_state\000"
 2988      5F737461 
 2988      746500
 2989              	.LASF36:
 2990 009e 73746174 		.ascii	"status\000"
 2990      757300
 2991              	.LASF40:
 2992 00a5 4932434D 		.ascii	"I2CM_mstrStatus\000"
 2992      5F6D7374 
 2992      72537461 
 2992      74757300 
 2993              	.LASF12:
 2994 00b5 666C6F61 		.ascii	"float\000"
 2994      7400
 2995              	.LASF51:
 2996 00bb 433A5C6D 		.ascii	"C:\\myProjects\\Hobby\\100_day_100_projects\\Mine\\"
 2996      7950726F 
 2996      6A656374 
 2996      735C486F 
 2996      6262795C 
 2997 00e9 50536F43 		.ascii	"PSoC_Eye\\PSoC_Eye.cydsn\000"
 2997      5F457965 
 2997      5C50536F 
 2997      435F4579 
 2997      652E6379 
 2998              	.LASF46:
 2999 0101 4932434D 		.ascii	"I2CM_mstrWrBufSize\000"
 2999      5F6D7374 
 2999      72577242 
 2999      75665369 
 2999      7A6500
 3000              	.LASF5:
 3001 0114 6C6F6E67 		.ascii	"long unsigned int\000"
 3001      20756E73 
 3001      69676E65 
 3001      6420696E 
 3001      7400
 3002              	.LASF25:
 3003 0126 4932434D 		.ascii	"I2CM_I2CMasterSendRestart\000"
 3003      5F493243 
 3003      4D617374 
 3003      65725365 
 3003      6E645265 
 3004              	.LASF9:
 3005 0140 75696E74 		.ascii	"uint8\000"
 3005      3800
ARM GAS  C:\Users\srvs\AppData\Local\Temp\cc5vvGHT.s 			page 74


 3006              	.LASF42:
 3007 0146 4932434D 		.ascii	"I2CM_mstrRdBufPtr\000"
 3007      5F6D7374 
 3007      72526442 
 3007      75665074 
 3007      7200
 3008              	.LASF30:
 3009 0158 61636B4E 		.ascii	"ackNack\000"
 3009      61636B00 
 3010              	.LASF21:
 3011 0160 65727253 		.ascii	"errStatus\000"
 3011      74617475 
 3011      7300
 3012              	.LASF1:
 3013 016a 756E7369 		.ascii	"unsigned char\000"
 3013      676E6564 
 3013      20636861 
 3013      7200
 3014              	.LASF18:
 3015 0178 4932434D 		.ascii	"I2CM_I2CMasterWriteBuf\000"
 3015      5F493243 
 3015      4D617374 
 3015      65725772 
 3015      69746542 
 3016              	.LASF13:
 3017 018f 646F7562 		.ascii	"double\000"
 3017      6C6500
 3018              	.LASF27:
 3019 0196 4932434D 		.ascii	"I2CM_I2CMasterWriteByte\000"
 3019      5F493243 
 3019      4D617374 
 3019      65725772 
 3019      69746542 
 3020              	.LASF23:
 3021 01ae 62697452 		.ascii	"bitRnW\000"
 3021      6E5700
 3022              	.LASF33:
 3023 01b5 4932434D 		.ascii	"I2CM_I2CMasterClearReadBuf\000"
 3023      5F493243 
 3023      4D617374 
 3023      6572436C 
 3023      65617252 
 3024              	.LASF50:
 3025 01d0 2E5C4765 		.ascii	".\\Generated_Source\\PSoC4\\I2CM_I2C_MASTER.c\000"
 3025      6E657261 
 3025      7465645F 
 3025      536F7572 
 3025      63655C50 
 3026              	.LASF10:
 3027 01fb 75696E74 		.ascii	"uint16\000"
 3027      313600
 3028              	.LASF20:
 3029 0202 72644461 		.ascii	"rdData\000"
 3029      746100
 3030              	.LASF11:
 3031 0209 75696E74 		.ascii	"uint32\000"
 3031      333200
ARM GAS  C:\Users\srvs\AppData\Local\Temp\cc5vvGHT.s 			page 75


 3032              	.LASF8:
 3033 0210 756E7369 		.ascii	"unsigned int\000"
 3033      676E6564 
 3033      20696E74 
 3033      00
 3034              	.LASF47:
 3035 021d 4932434D 		.ascii	"I2CM_mstrWrBufIndex\000"
 3035      5F6D7374 
 3035      72577242 
 3035      7566496E 
 3035      64657800 
 3036              	.LASF16:
 3037 0231 77724461 		.ascii	"wrData\000"
 3037      746100
 3038              	.LASF7:
 3039 0238 6C6F6E67 		.ascii	"long long unsigned int\000"
 3039      206C6F6E 
 3039      6720756E 
 3039      7369676E 
 3039      65642069 
 3040              	.LASF17:
 3041 024f 6D6F6465 		.ascii	"mode\000"
 3041      00
 3042              	.LASF15:
 3043 0254 736C6176 		.ascii	"slaveAddress\000"
 3043      65416464 
 3043      72657373 
 3043      00
 3044              	.LASF24:
 3045 0261 656E6162 		.ascii	"enableInterrupts\000"
 3045      6C65496E 
 3045      74657272 
 3045      75707473 
 3045      00
 3046              	.LASF49:
 3047 0272 474E5520 		.ascii	"GNU C 4.4.1\000"
 3047      4320342E 
 3047      342E3100 
 3048              	.LASF45:
 3049 027e 4932434D 		.ascii	"I2CM_mstrWrBufPtr\000"
 3049      5F6D7374 
 3049      72577242 
 3049      75665074 
 3049      7200
 3050              	.LASF14:
 3051 0290 63686172 		.ascii	"char\000"
 3051      00
 3052              	.LASF34:
 3053 0295 4932434D 		.ascii	"I2CM_I2CMasterClearWriteBuf\000"
 3053      5F493243 
 3053      4D617374 
 3053      6572436C 
 3053      65617257 
 3054              	.LASF41:
 3055 02b1 4932434D 		.ascii	"I2CM_mstrControl\000"
 3055      5F6D7374 
 3055      72436F6E 
ARM GAS  C:\Users\srvs\AppData\Local\Temp\cc5vvGHT.s 			page 76


 3055      74726F6C 
 3055      00
 3056              	.LASF37:
 3057 02c2 4932434D 		.ascii	"I2CM_I2CMasterClearStatus\000"
 3057      5F493243 
 3057      4D617374 
 3057      6572436C 
 3057      65617253 
 3058              	.LASF2:
 3059 02dc 73686F72 		.ascii	"short int\000"
 3059      7420696E 
 3059      7400
 3060              	.LASF28:
 3061 02e6 74686542 		.ascii	"theByte\000"
 3061      79746500 
 3062              	.LASF22:
 3063 02ee 4932434D 		.ascii	"I2CM_I2CMasterSendStart\000"
 3063      5F493243 
 3063      4D617374 
 3063      65725365 
 3063      6E645374 
 3064              	.LASF4:
 3065 0306 6C6F6E67 		.ascii	"long int\000"
 3065      20696E74 
 3065      00
 3066              	.LASF31:
 3067 030f 4932434D 		.ascii	"I2CM_I2CMasterGetReadBufSize\000"
 3067      5F493243 
 3067      4D617374 
 3067      65724765 
 3067      74526561 
 3068              	.LASF38:
 3069 032c 4932434D 		.ascii	"I2CM_I2CReStartGeneration\000"
 3069      5F493243 
 3069      52655374 
 3069      61727447 
 3069      656E6572 
 3070              	.LASF0:
 3071 0346 7369676E 		.ascii	"signed char\000"
 3071      65642063 
 3071      68617200 
 3072              	.LASF29:
 3073 0352 4932434D 		.ascii	"I2CM_I2CMasterReadByte\000"
 3073      5F493243 
 3073      4D617374 
 3073      65725265 
 3073      61644279 
 3074              	.LASF35:
 3075 0369 4932434D 		.ascii	"I2CM_I2CMasterStatus\000"
 3075      5F493243 
 3075      4D617374 
 3075      65725374 
 3075      61747573 
 3076              	.LASF48:
 3077 037e 4932434D 		.ascii	"I2CM_mstrWrBufIndexTmp\000"
 3077      5F6D7374 
 3077      72577242 
ARM GAS  C:\Users\srvs\AppData\Local\Temp\cc5vvGHT.s 			page 77


 3077      7566496E 
 3077      64657854 
 3078              		.ident	"GCC: (Sourcery G++ Lite 2010q1-188) 4.4.1"
