ARM GAS  C:\Users\srvs\AppData\Local\Temp\ccbjXe8z.s 			page 1


   1              		.cpu cortex-m0
   2              		.fpu softvfp
   3              		.eabi_attribute 20, 1
   4              		.eabi_attribute 21, 1
   5              		.eabi_attribute 23, 3
   6              		.eabi_attribute 24, 1
   7              		.eabi_attribute 25, 1
   8              		.eabi_attribute 26, 1
   9              		.eabi_attribute 30, 6
  10              		.eabi_attribute 18, 4
  11              		.code	16
  12              		.file	"I2CM_I2C.c"
  19 0000 D5000000 		.text
  19      02007300 
  19      00000201 
  19      FB0E0D00 
  19      01010101 
  20              	.Ltext0:
  21              		.cfi_sections	.debug_frame
  22              		.comm	I2CM_state,1,1
  23              		.section	.text.I2CM_I2CInit,"ax",%progbits
  24              		.align	2
  25              		.global	I2CM_I2CInit
  26              		.code	16
  27              		.thumb_func
  28              		.type	I2CM_I2CInit, %function
  29              	I2CM_I2CInit:
  30              	.LFB0:
  31              		.file 1 ".\\Generated_Source\\PSoC4\\I2CM_I2C.c"
   1:.\Generated_Source\PSoC4/I2CM_I2C.c **** /*******************************************************************************
   2:.\Generated_Source\PSoC4/I2CM_I2C.c **** * File Name: I2CM_I2C.c
   3:.\Generated_Source\PSoC4/I2CM_I2C.c **** * Version 1.0
   4:.\Generated_Source\PSoC4/I2CM_I2C.c **** *
   5:.\Generated_Source\PSoC4/I2CM_I2C.c **** * Description:
   6:.\Generated_Source\PSoC4/I2CM_I2C.c **** *  This file provides the source code to the API for the SCB Component in
   7:.\Generated_Source\PSoC4/I2CM_I2C.c **** *  I2C mode.
   8:.\Generated_Source\PSoC4/I2CM_I2C.c **** *
   9:.\Generated_Source\PSoC4/I2CM_I2C.c **** * Note:
  10:.\Generated_Source\PSoC4/I2CM_I2C.c **** *
  11:.\Generated_Source\PSoC4/I2CM_I2C.c **** *******************************************************************************
  12:.\Generated_Source\PSoC4/I2CM_I2C.c **** * Copyright 2013, Cypress Semiconductor Corporation.  All rights reserved.
  13:.\Generated_Source\PSoC4/I2CM_I2C.c **** * You may use this file only in accordance with the license, terms, conditions,
  14:.\Generated_Source\PSoC4/I2CM_I2C.c **** * disclaimers, and limitations in the end user license agreement accompanying
  15:.\Generated_Source\PSoC4/I2CM_I2C.c **** * the software package with which this file was provided.
  16:.\Generated_Source\PSoC4/I2CM_I2C.c **** *******************************************************************************/
  17:.\Generated_Source\PSoC4/I2CM_I2C.c **** 
  18:.\Generated_Source\PSoC4/I2CM_I2C.c **** #include "I2CM_PVT.h"
  19:.\Generated_Source\PSoC4/I2CM_I2C.c **** #include "I2CM_I2C_PVT.h"
  20:.\Generated_Source\PSoC4/I2CM_I2C.c **** 
  21:.\Generated_Source\PSoC4/I2CM_I2C.c **** 
  22:.\Generated_Source\PSoC4/I2CM_I2C.c **** /***************************************
ARM GAS  C:\Users\srvs\AppData\Local\Temp\ccbjXe8z.s 			page 2


  23:.\Generated_Source\PSoC4/I2CM_I2C.c **** *      I2C Private Vars
  24:.\Generated_Source\PSoC4/I2CM_I2C.c **** ***************************************/
  25:.\Generated_Source\PSoC4/I2CM_I2C.c **** 
  26:.\Generated_Source\PSoC4/I2CM_I2C.c **** volatile uint8 I2CM_state;  /* Current state of I2C FSM */
  27:.\Generated_Source\PSoC4/I2CM_I2C.c **** 
  28:.\Generated_Source\PSoC4/I2CM_I2C.c **** 
  29:.\Generated_Source\PSoC4/I2CM_I2C.c **** #if(I2CM_SCB_MODE_UNCONFIG_CONST_CFG)
  30:.\Generated_Source\PSoC4/I2CM_I2C.c **** 
  31:.\Generated_Source\PSoC4/I2CM_I2C.c ****     /***************************************
  32:.\Generated_Source\PSoC4/I2CM_I2C.c ****     *  Config Structure Initialization
  33:.\Generated_Source\PSoC4/I2CM_I2C.c ****     ***************************************/
  34:.\Generated_Source\PSoC4/I2CM_I2C.c **** 
  35:.\Generated_Source\PSoC4/I2CM_I2C.c ****     /* Constant configuration of I2C */
  36:.\Generated_Source\PSoC4/I2CM_I2C.c ****     const I2CM_I2C_INIT_STRUCT I2CM_configI2C =
  37:.\Generated_Source\PSoC4/I2CM_I2C.c ****     {
  38:.\Generated_Source\PSoC4/I2CM_I2C.c ****         I2CM_I2C_MODE,
  39:.\Generated_Source\PSoC4/I2CM_I2C.c ****         I2CM_I2C_OVS_FACTOR_LOW,
  40:.\Generated_Source\PSoC4/I2CM_I2C.c ****         I2CM_I2C_OVS_FACTOR_HIGH,
  41:.\Generated_Source\PSoC4/I2CM_I2C.c ****         I2CM_I2C_MEDIAN_FILTER_ENABLE,
  42:.\Generated_Source\PSoC4/I2CM_I2C.c ****         I2CM_I2C_SLAVE_ADDRESS,
  43:.\Generated_Source\PSoC4/I2CM_I2C.c ****         I2CM_I2C_SLAVE_ADDRESS_MASK,
  44:.\Generated_Source\PSoC4/I2CM_I2C.c ****         I2CM_I2C_ACCEPT_ADDRESS,
  45:.\Generated_Source\PSoC4/I2CM_I2C.c ****         I2CM_I2C_WAKE_ENABLE
  46:.\Generated_Source\PSoC4/I2CM_I2C.c ****     };
  47:.\Generated_Source\PSoC4/I2CM_I2C.c **** 
  48:.\Generated_Source\PSoC4/I2CM_I2C.c ****     /*******************************************************************************
  49:.\Generated_Source\PSoC4/I2CM_I2C.c ****     * Function Name: I2CM_I2CInit
  50:.\Generated_Source\PSoC4/I2CM_I2C.c ****     ********************************************************************************
  51:.\Generated_Source\PSoC4/I2CM_I2C.c ****     *
  52:.\Generated_Source\PSoC4/I2CM_I2C.c ****     * Summary:
  53:.\Generated_Source\PSoC4/I2CM_I2C.c ****     *  Configures the SCB for I2C operation.
  54:.\Generated_Source\PSoC4/I2CM_I2C.c ****     *
  55:.\Generated_Source\PSoC4/I2CM_I2C.c ****     * Parameters:
  56:.\Generated_Source\PSoC4/I2CM_I2C.c ****     *  config:  Pointer to a structure that contains the following ordered list of
  57:.\Generated_Source\PSoC4/I2CM_I2C.c ****     *           fields. These fields match the selections available in the
  58:.\Generated_Source\PSoC4/I2CM_I2C.c ****     *           customizer.
  59:.\Generated_Source\PSoC4/I2CM_I2C.c ****     *
  60:.\Generated_Source\PSoC4/I2CM_I2C.c ****     * Return:
  61:.\Generated_Source\PSoC4/I2CM_I2C.c ****     *  None
  62:.\Generated_Source\PSoC4/I2CM_I2C.c ****     *
  63:.\Generated_Source\PSoC4/I2CM_I2C.c ****     *******************************************************************************/
  64:.\Generated_Source\PSoC4/I2CM_I2C.c ****     void I2CM_I2CInit(const I2CM_I2C_INIT_STRUCT *config)
  65:.\Generated_Source\PSoC4/I2CM_I2C.c ****     {
  66:.\Generated_Source\PSoC4/I2CM_I2C.c ****         if(NULL == config)
  67:.\Generated_Source\PSoC4/I2CM_I2C.c ****         {
  68:.\Generated_Source\PSoC4/I2CM_I2C.c ****             CYASSERT(0u != 0u); /* Halt execution due bad fucntion parameter */
  69:.\Generated_Source\PSoC4/I2CM_I2C.c ****         }
  70:.\Generated_Source\PSoC4/I2CM_I2C.c ****         else
  71:.\Generated_Source\PSoC4/I2CM_I2C.c ****         {
  72:.\Generated_Source\PSoC4/I2CM_I2C.c ****             /* Configure pins */
  73:.\Generated_Source\PSoC4/I2CM_I2C.c ****             I2CM_SetPins(I2CM_SCB_MODE_I2C, I2CM_DUMMY_PARAM, 
  74:.\Generated_Source\PSoC4/I2CM_I2C.c ****                                                                     I2CM_DUMMY_PARAM);
  75:.\Generated_Source\PSoC4/I2CM_I2C.c **** 
  76:.\Generated_Source\PSoC4/I2CM_I2C.c ****             /* Store internal configuration */
  77:.\Generated_Source\PSoC4/I2CM_I2C.c ****             I2CM_scbMode       = (uint8) I2CM_SCB_MODE_I2C;
  78:.\Generated_Source\PSoC4/I2CM_I2C.c ****             I2CM_scbEnableWake = (uint8) config->enableWake;
  79:.\Generated_Source\PSoC4/I2CM_I2C.c **** 
ARM GAS  C:\Users\srvs\AppData\Local\Temp\ccbjXe8z.s 			page 3


  80:.\Generated_Source\PSoC4/I2CM_I2C.c ****             I2CM_mode          = (uint8) config->mode;
  81:.\Generated_Source\PSoC4/I2CM_I2C.c ****             I2CM_acceptAddr    = (uint8) config->acceptAddr;
  82:.\Generated_Source\PSoC4/I2CM_I2C.c **** 
  83:.\Generated_Source\PSoC4/I2CM_I2C.c ****             /* Configure I2C interface */
  84:.\Generated_Source\PSoC4/I2CM_I2C.c ****             I2CM_CTRL_REG     = I2CM_GET_CTRL_ADDR_ACCEPT(config->acceptAddr) |
  85:.\Generated_Source\PSoC4/I2CM_I2C.c ****                                             I2CM_GET_CTRL_EC_AM_MODE (config->enableWake);
  86:.\Generated_Source\PSoC4/I2CM_I2C.c **** 
  87:.\Generated_Source\PSoC4/I2CM_I2C.c ****             I2CM_I2C_CTRL_REG = I2CM_GET_I2C_CTRL_HIGH_PHASE_OVS(config->oversampleHigh) |
  88:.\Generated_Source\PSoC4/I2CM_I2C.c ****                                             I2CM_GET_I2C_CTRL_LOW_PHASE_OVS (config->oversampleLow)
  89:.\Generated_Source\PSoC4/I2CM_I2C.c ****                                             I2CM_GET_I2C_CTRL_SL_MSTR_MODE  (config->mode)         
  90:.\Generated_Source\PSoC4/I2CM_I2C.c ****                                             I2CM_I2C_CTRL;
  91:.\Generated_Source\PSoC4/I2CM_I2C.c **** 
  92:.\Generated_Source\PSoC4/I2CM_I2C.c ****             /* Adjust SDA filter settigns */
  93:.\Generated_Source\PSoC4/I2CM_I2C.c ****             I2CM_SET_I2C_CFG_SDA_FILT_TRIM(I2CM_EC_AM_I2C_CFG_SDA_FILT_TRIM);
  94:.\Generated_Source\PSoC4/I2CM_I2C.c **** 
  95:.\Generated_Source\PSoC4/I2CM_I2C.c **** 
  96:.\Generated_Source\PSoC4/I2CM_I2C.c ****             /* Configure RX direction */
  97:.\Generated_Source\PSoC4/I2CM_I2C.c ****             I2CM_RX_CTRL_REG      = I2CM_GET_RX_CTRL_MEDIAN(config->enableMedianFilter) |
  98:.\Generated_Source\PSoC4/I2CM_I2C.c ****                                                 I2CM_I2C_RX_CTRL;
  99:.\Generated_Source\PSoC4/I2CM_I2C.c ****             I2CM_RX_FIFO_CTRL_REG = I2CM_CLEAR_REG;
 100:.\Generated_Source\PSoC4/I2CM_I2C.c **** 
 101:.\Generated_Source\PSoC4/I2CM_I2C.c ****             /* Set default address and mask */
 102:.\Generated_Source\PSoC4/I2CM_I2C.c ****             I2CM_RX_MATCH_REG    = ((I2CM_I2C_SLAVE) ?
 103:.\Generated_Source\PSoC4/I2CM_I2C.c ****                                                 (I2CM_GET_I2C_8BIT_ADDRESS(config->slaveAddr) |
 104:.\Generated_Source\PSoC4/I2CM_I2C.c ****                                                  I2CM_GET_RX_MATCH_MASK(config->slaveAddrMask)) :
 105:.\Generated_Source\PSoC4/I2CM_I2C.c ****                                                 (I2CM_CLEAR_REG));
 106:.\Generated_Source\PSoC4/I2CM_I2C.c **** 
 107:.\Generated_Source\PSoC4/I2CM_I2C.c **** 
 108:.\Generated_Source\PSoC4/I2CM_I2C.c ****             /* Configure TX direction */
 109:.\Generated_Source\PSoC4/I2CM_I2C.c ****             I2CM_TX_CTRL_REG      = I2CM_I2C_TX_CTRL;
 110:.\Generated_Source\PSoC4/I2CM_I2C.c ****             I2CM_TX_FIFO_CTRL_REG = I2CM_CLEAR_REG;
 111:.\Generated_Source\PSoC4/I2CM_I2C.c **** 
 112:.\Generated_Source\PSoC4/I2CM_I2C.c ****             /* Configure interrupt sources */
 113:.\Generated_Source\PSoC4/I2CM_I2C.c ****             I2CM_INTR_I2C_EC_MASK_REG = I2CM_NO_INTR_SOURCES;
 114:.\Generated_Source\PSoC4/I2CM_I2C.c ****             I2CM_INTR_SPI_EC_MASK_REG = I2CM_NO_INTR_SOURCES;
 115:.\Generated_Source\PSoC4/I2CM_I2C.c ****             I2CM_INTR_RX_MASK_REG     = I2CM_NO_INTR_SOURCES;
 116:.\Generated_Source\PSoC4/I2CM_I2C.c ****             I2CM_INTR_TX_MASK_REG     = I2CM_NO_INTR_SOURCES;
 117:.\Generated_Source\PSoC4/I2CM_I2C.c **** 
 118:.\Generated_Source\PSoC4/I2CM_I2C.c ****             I2CM_INTR_SLAVE_MASK_REG  = ((I2CM_I2C_SLAVE) ?
 119:.\Generated_Source\PSoC4/I2CM_I2C.c ****                                                      (I2CM_I2C_INTR_SLAVE_MASK) :
 120:.\Generated_Source\PSoC4/I2CM_I2C.c ****                                                      (I2CM_CLEAR_REG));
 121:.\Generated_Source\PSoC4/I2CM_I2C.c **** 
 122:.\Generated_Source\PSoC4/I2CM_I2C.c ****             I2CM_INTR_MASTER_MASK_REG = ((I2CM_I2C_MASTER) ?
 123:.\Generated_Source\PSoC4/I2CM_I2C.c ****                                                      (I2CM_I2C_INTR_MASTER_MASK) :
 124:.\Generated_Source\PSoC4/I2CM_I2C.c ****                                                      (I2CM_CLEAR_REG));
 125:.\Generated_Source\PSoC4/I2CM_I2C.c **** 
 126:.\Generated_Source\PSoC4/I2CM_I2C.c ****             /* Configure interrupt with I2C handler and enabled it */
 127:.\Generated_Source\PSoC4/I2CM_I2C.c ****             I2CM_SCB_IRQ_StartEx(&I2CM_I2C_ISR);
 128:.\Generated_Source\PSoC4/I2CM_I2C.c **** 
 129:.\Generated_Source\PSoC4/I2CM_I2C.c **** 
 130:.\Generated_Source\PSoC4/I2CM_I2C.c ****             /* Configure global variables */
 131:.\Generated_Source\PSoC4/I2CM_I2C.c ****             I2CM_state = I2CM_I2C_FSM_IDLE;
 132:.\Generated_Source\PSoC4/I2CM_I2C.c **** 
 133:.\Generated_Source\PSoC4/I2CM_I2C.c ****             /* Internal slave variable */
 134:.\Generated_Source\PSoC4/I2CM_I2C.c ****             I2CM_slStatus        = 0u;
 135:.\Generated_Source\PSoC4/I2CM_I2C.c ****             I2CM_slRdBufIndex    = 0u;
 136:.\Generated_Source\PSoC4/I2CM_I2C.c ****             I2CM_slWrBufIndex    = 0u;
ARM GAS  C:\Users\srvs\AppData\Local\Temp\ccbjXe8z.s 			page 4


 137:.\Generated_Source\PSoC4/I2CM_I2C.c ****             I2CM_slOverFlowCount = 0u;
 138:.\Generated_Source\PSoC4/I2CM_I2C.c **** 
 139:.\Generated_Source\PSoC4/I2CM_I2C.c ****             /* Internal master variable */
 140:.\Generated_Source\PSoC4/I2CM_I2C.c ****             I2CM_mstrStatus     = 0u;
 141:.\Generated_Source\PSoC4/I2CM_I2C.c ****             I2CM_mstrRdBufIndex = 0u;
 142:.\Generated_Source\PSoC4/I2CM_I2C.c ****             I2CM_mstrWrBufIndex = 0u;
 143:.\Generated_Source\PSoC4/I2CM_I2C.c ****         }
 144:.\Generated_Source\PSoC4/I2CM_I2C.c ****     }
 145:.\Generated_Source\PSoC4/I2CM_I2C.c **** 
 146:.\Generated_Source\PSoC4/I2CM_I2C.c **** #else
 147:.\Generated_Source\PSoC4/I2CM_I2C.c **** 
 148:.\Generated_Source\PSoC4/I2CM_I2C.c ****     /*******************************************************************************
 149:.\Generated_Source\PSoC4/I2CM_I2C.c ****     * Function Name: I2CM_I2CInit
 150:.\Generated_Source\PSoC4/I2CM_I2C.c ****     ********************************************************************************
 151:.\Generated_Source\PSoC4/I2CM_I2C.c ****     *
 152:.\Generated_Source\PSoC4/I2CM_I2C.c ****     * Summary:
 153:.\Generated_Source\PSoC4/I2CM_I2C.c ****     *  Configures the SCB for I2C operation.
 154:.\Generated_Source\PSoC4/I2CM_I2C.c ****     *
 155:.\Generated_Source\PSoC4/I2CM_I2C.c ****     * Parameters:
 156:.\Generated_Source\PSoC4/I2CM_I2C.c ****     *  None
 157:.\Generated_Source\PSoC4/I2CM_I2C.c ****     *
 158:.\Generated_Source\PSoC4/I2CM_I2C.c ****     * Return:
 159:.\Generated_Source\PSoC4/I2CM_I2C.c ****     *  None
 160:.\Generated_Source\PSoC4/I2CM_I2C.c ****     *
 161:.\Generated_Source\PSoC4/I2CM_I2C.c ****     *******************************************************************************/
 162:.\Generated_Source\PSoC4/I2CM_I2C.c ****     void I2CM_I2CInit(void)
 163:.\Generated_Source\PSoC4/I2CM_I2C.c ****     {
  32              		.loc 1 163 0
  33              		.cfi_startproc
  34 0000 80B5     		push	{r7, lr}
  35              	.LCFI0:
  36              		.cfi_def_cfa_offset 8
  37              		.cfi_offset 7, -8
  38              		.cfi_offset 14, -4
  39 0002 00AF     		add	r7, sp, #0
  40              	.LCFI1:
  41              		.cfi_def_cfa_register 7
 164:.\Generated_Source\PSoC4/I2CM_I2C.c ****         /* Configure I2C interface */
 165:.\Generated_Source\PSoC4/I2CM_I2C.c ****         I2CM_CTRL_REG     = I2CM_I2C_DEFAULT_CTRL;
  42              		.loc 1 165 0
  43 0004 1F4B     		ldr	r3, .L3
  44 0006 0022     		mov	r2, #0
  45 0008 1A60     		str	r2, [r3]
 166:.\Generated_Source\PSoC4/I2CM_I2C.c ****         I2CM_I2C_CTRL_REG = I2CM_I2C_DEFAULT_I2C_CTRL;
  46              		.loc 1 166 0
  47 000a 1F4B     		ldr	r3, .L3+4
  48 000c 1F4A     		ldr	r2, .L3+8
  49 000e 1A60     		str	r2, [r3]
 167:.\Generated_Source\PSoC4/I2CM_I2C.c **** 
 168:.\Generated_Source\PSoC4/I2CM_I2C.c ****         /* Adjust SDA filter settigns */
 169:.\Generated_Source\PSoC4/I2CM_I2C.c ****         I2CM_SET_I2C_CFG_SDA_FILT_TRIM(I2CM_EC_AM_I2C_CFG_SDA_FILT_TRIM);
  50              		.loc 1 169 0
  51 0010 1F4B     		ldr	r3, .L3+12
  52 0012 1F4A     		ldr	r2, .L3+12
  53 0014 1168     		ldr	r1, [r2]
  54 0016 0C22     		mov	r2, #12
  55 0018 0A43     		orr	r2, r2, r1
ARM GAS  C:\Users\srvs\AppData\Local\Temp\ccbjXe8z.s 			page 5


  56 001a 1A60     		str	r2, [r3]
 170:.\Generated_Source\PSoC4/I2CM_I2C.c **** 
 171:.\Generated_Source\PSoC4/I2CM_I2C.c ****         /* Configure RX direction */
 172:.\Generated_Source\PSoC4/I2CM_I2C.c ****         I2CM_RX_CTRL_REG      = I2CM_I2C_DEFAULT_RX_CTRL;
  57              		.loc 1 172 0
  58 001c 1D4B     		ldr	r3, .L3+16
  59 001e 1E4A     		ldr	r2, .L3+20
  60 0020 1A60     		str	r2, [r3]
 173:.\Generated_Source\PSoC4/I2CM_I2C.c ****         I2CM_RX_FIFO_CTRL_REG = I2CM_I2C_DEFAULT_RX_FIFO_CTRL;
  61              		.loc 1 173 0
  62 0022 1E4B     		ldr	r3, .L3+24
  63 0024 0022     		mov	r2, #0
  64 0026 1A60     		str	r2, [r3]
 174:.\Generated_Source\PSoC4/I2CM_I2C.c **** 
 175:.\Generated_Source\PSoC4/I2CM_I2C.c ****         /* Set default address and mask */
 176:.\Generated_Source\PSoC4/I2CM_I2C.c ****         I2CM_RX_MATCH_REG     = I2CM_I2C_DEFAULT_RX_MATCH;
  65              		.loc 1 176 0
  66 0028 1D4B     		ldr	r3, .L3+28
  67 002a 0022     		mov	r2, #0
  68 002c 1A60     		str	r2, [r3]
 177:.\Generated_Source\PSoC4/I2CM_I2C.c **** 
 178:.\Generated_Source\PSoC4/I2CM_I2C.c ****         /* Configure TX direction */
 179:.\Generated_Source\PSoC4/I2CM_I2C.c ****         I2CM_TX_CTRL_REG      = I2CM_I2C_DEFAULT_TX_CTRL;
  69              		.loc 1 179 0
  70 002e 1D4B     		ldr	r3, .L3+32
  71 0030 1D4A     		ldr	r2, .L3+36
  72 0032 1A60     		str	r2, [r3]
 180:.\Generated_Source\PSoC4/I2CM_I2C.c ****         I2CM_TX_FIFO_CTRL_REG = I2CM_I2C_DEFAULT_TX_FIFO_CTRL;
  73              		.loc 1 180 0
  74 0034 1D4B     		ldr	r3, .L3+40
  75 0036 0022     		mov	r2, #0
  76 0038 1A60     		str	r2, [r3]
 181:.\Generated_Source\PSoC4/I2CM_I2C.c **** 
 182:.\Generated_Source\PSoC4/I2CM_I2C.c ****         /* Configure interrupt sources */
 183:.\Generated_Source\PSoC4/I2CM_I2C.c ****         I2CM_INTR_I2C_EC_MASK_REG = I2CM_I2C_DEFAULT_INTR_I2C_EC_MASK;
  77              		.loc 1 183 0
  78 003a 1D4B     		ldr	r3, .L3+44
  79 003c 0022     		mov	r2, #0
  80 003e 1A60     		str	r2, [r3]
 184:.\Generated_Source\PSoC4/I2CM_I2C.c ****         I2CM_INTR_SPI_EC_MASK_REG = I2CM_I2C_DEFAULT_INTR_SPI_EC_MASK;
  81              		.loc 1 184 0
  82 0040 1C4B     		ldr	r3, .L3+48
  83 0042 0022     		mov	r2, #0
  84 0044 1A60     		str	r2, [r3]
 185:.\Generated_Source\PSoC4/I2CM_I2C.c ****         I2CM_INTR_SLAVE_MASK_REG  = I2CM_I2C_DEFAULT_INTR_SLAVE_MASK;
  85              		.loc 1 185 0
  86 0046 1C4B     		ldr	r3, .L3+52
  87 0048 0022     		mov	r2, #0
  88 004a 1A60     		str	r2, [r3]
 186:.\Generated_Source\PSoC4/I2CM_I2C.c ****         I2CM_INTR_MASTER_MASK_REG = I2CM_I2C_DEFAULT_INTR_MASTER_MASK;
  89              		.loc 1 186 0
  90 004c 1B4B     		ldr	r3, .L3+56
  91 004e 1C4A     		ldr	r2, .L3+60
  92 0050 1A60     		str	r2, [r3]
 187:.\Generated_Source\PSoC4/I2CM_I2C.c ****         I2CM_INTR_RX_MASK_REG     = I2CM_I2C_DEFAULT_INTR_RX_MASK;
  93              		.loc 1 187 0
  94 0052 1C4B     		ldr	r3, .L3+64
ARM GAS  C:\Users\srvs\AppData\Local\Temp\ccbjXe8z.s 			page 6


  95 0054 0022     		mov	r2, #0
  96 0056 1A60     		str	r2, [r3]
 188:.\Generated_Source\PSoC4/I2CM_I2C.c ****         I2CM_INTR_TX_MASK_REG     = I2CM_I2C_DEFAULT_INTR_TX_MASK;
  97              		.loc 1 188 0
  98 0058 1B4B     		ldr	r3, .L3+68
  99 005a 0022     		mov	r2, #0
 100 005c 1A60     		str	r2, [r3]
 189:.\Generated_Source\PSoC4/I2CM_I2C.c **** 
 190:.\Generated_Source\PSoC4/I2CM_I2C.c ****         /* Configure interrupt with I2C handler and enabled it */
 191:.\Generated_Source\PSoC4/I2CM_I2C.c ****         I2CM_SCB_IRQ_StartEx(&I2CM_I2C_ISR);
 101              		.loc 1 191 0
 102 005e 1B4B     		ldr	r3, .L3+72
 103 0060 181C     		mov	r0, r3
 104 0062 FFF7FEFF 		bl	I2CM_SCB_IRQ_StartEx
 192:.\Generated_Source\PSoC4/I2CM_I2C.c **** 
 193:.\Generated_Source\PSoC4/I2CM_I2C.c **** 
 194:.\Generated_Source\PSoC4/I2CM_I2C.c ****         /* Configure global variables */
 195:.\Generated_Source\PSoC4/I2CM_I2C.c ****         I2CM_state = I2CM_I2C_FSM_IDLE;
 105              		.loc 1 195 0
 106 0066 1A4B     		ldr	r3, .L3+76
 107 0068 1022     		mov	r2, #16
 108 006a 1A70     		strb	r2, [r3]
 196:.\Generated_Source\PSoC4/I2CM_I2C.c **** 
 197:.\Generated_Source\PSoC4/I2CM_I2C.c ****         #if(I2CM_I2C_SLAVE)
 198:.\Generated_Source\PSoC4/I2CM_I2C.c ****             /* Internal slave variable */
 199:.\Generated_Source\PSoC4/I2CM_I2C.c ****             I2CM_slStatus        = 0u;
 200:.\Generated_Source\PSoC4/I2CM_I2C.c ****             I2CM_slRdBufIndex    = 0u;
 201:.\Generated_Source\PSoC4/I2CM_I2C.c ****             I2CM_slWrBufIndex    = 0u;
 202:.\Generated_Source\PSoC4/I2CM_I2C.c ****             I2CM_slOverFlowCount = 0u;
 203:.\Generated_Source\PSoC4/I2CM_I2C.c ****         #endif /* (I2CM_I2C_SLAVE) */
 204:.\Generated_Source\PSoC4/I2CM_I2C.c **** 
 205:.\Generated_Source\PSoC4/I2CM_I2C.c ****         #if(I2CM_I2C_MASTER)
 206:.\Generated_Source\PSoC4/I2CM_I2C.c ****         /* Internal master variable */
 207:.\Generated_Source\PSoC4/I2CM_I2C.c ****             I2CM_mstrStatus     = 0u;
 109              		.loc 1 207 0
 110 006c 194B     		ldr	r3, .L3+80
 111 006e 0022     		mov	r2, #0
 112 0070 1A80     		strh	r2, [r3]
 208:.\Generated_Source\PSoC4/I2CM_I2C.c ****             I2CM_mstrRdBufIndex = 0u;
 113              		.loc 1 208 0
 114 0072 194B     		ldr	r3, .L3+84
 115 0074 0022     		mov	r2, #0
 116 0076 1A60     		str	r2, [r3]
 209:.\Generated_Source\PSoC4/I2CM_I2C.c ****             I2CM_mstrWrBufIndex = 0u;
 117              		.loc 1 209 0
 118 0078 184B     		ldr	r3, .L3+88
 119 007a 0022     		mov	r2, #0
 120 007c 1A60     		str	r2, [r3]
 210:.\Generated_Source\PSoC4/I2CM_I2C.c ****         #endif /* (I2CM_I2C_MASTER) */
 211:.\Generated_Source\PSoC4/I2CM_I2C.c ****     }
 121              		.loc 1 211 0
 122 007e BD46     		mov	sp, r7
 123              		@ sp needed for prologue
 124 0080 80BD     		pop	{r7, pc}
 125              	.L4:
 126 0082 C046     		.align	2
 127              	.L3:
ARM GAS  C:\Users\srvs\AppData\Local\Temp\ccbjXe8z.s 			page 7


 128 0084 00000740 		.word	1074200576
 129 0088 60000740 		.word	1074200672
 130 008c 77080080 		.word	-2147481481
 131 0090 70000740 		.word	1074200688
 132 0094 00030740 		.word	1074201344
 133 0098 07030080 		.word	-2147482873
 134 009c 04030740 		.word	1074201348
 135 00a0 10030740 		.word	1074201360
 136 00a4 00020740 		.word	1074201088
 137 00a8 07010080 		.word	-2147483385
 138 00ac 04020740 		.word	1074201092
 139 00b0 880E0740 		.word	1074204296
 140 00b4 C80E0740 		.word	1074204360
 141 00b8 480F0740 		.word	1074204488
 142 00bc 080F0740 		.word	1074204424
 143 00c0 13010000 		.word	275
 144 00c4 C80F0740 		.word	1074204616
 145 00c8 880F0740 		.word	1074204552
 146 00cc 00000000 		.word	I2CM_I2C_ISR
 147 00d0 00000000 		.word	I2CM_state
 148 00d4 00000000 		.word	I2CM_mstrStatus
 149 00d8 00000000 		.word	I2CM_mstrRdBufIndex
 150 00dc 00000000 		.word	I2CM_mstrWrBufIndex
 151              		.cfi_endproc
 152              	.LFE0:
 153              		.size	I2CM_I2CInit, .-I2CM_I2CInit
 154              		.section	.text.I2CM_I2CStop,"ax",%progbits
 155              		.align	2
 156              		.global	I2CM_I2CStop
 157              		.code	16
 158              		.thumb_func
 159              		.type	I2CM_I2CStop, %function
 160              	I2CM_I2CStop:
 161              	.LFB1:
 212:.\Generated_Source\PSoC4/I2CM_I2C.c **** #endif /* (I2CM_SCB_MODE_UNCONFIG_CONST_CFG) */
 213:.\Generated_Source\PSoC4/I2CM_I2C.c **** 
 214:.\Generated_Source\PSoC4/I2CM_I2C.c **** 
 215:.\Generated_Source\PSoC4/I2CM_I2C.c **** /*******************************************************************************
 216:.\Generated_Source\PSoC4/I2CM_I2C.c **** * Function Name: I2CM_I2CStop
 217:.\Generated_Source\PSoC4/I2CM_I2C.c **** ********************************************************************************
 218:.\Generated_Source\PSoC4/I2CM_I2C.c **** *
 219:.\Generated_Source\PSoC4/I2CM_I2C.c **** * Summary:
 220:.\Generated_Source\PSoC4/I2CM_I2C.c **** *  Initializes I2C registers with initial values provided from customizer.
 221:.\Generated_Source\PSoC4/I2CM_I2C.c **** *
 222:.\Generated_Source\PSoC4/I2CM_I2C.c **** * Parameters:
 223:.\Generated_Source\PSoC4/I2CM_I2C.c **** *  None
 224:.\Generated_Source\PSoC4/I2CM_I2C.c **** *
 225:.\Generated_Source\PSoC4/I2CM_I2C.c **** * Return:
 226:.\Generated_Source\PSoC4/I2CM_I2C.c **** *  None
 227:.\Generated_Source\PSoC4/I2CM_I2C.c **** *
 228:.\Generated_Source\PSoC4/I2CM_I2C.c **** * Global variables:
 229:.\Generated_Source\PSoC4/I2CM_I2C.c **** *
 230:.\Generated_Source\PSoC4/I2CM_I2C.c **** *
 231:.\Generated_Source\PSoC4/I2CM_I2C.c **** *******************************************************************************/
 232:.\Generated_Source\PSoC4/I2CM_I2C.c **** void I2CM_I2CStop(void)
 233:.\Generated_Source\PSoC4/I2CM_I2C.c **** {
 162              		.loc 1 233 0
ARM GAS  C:\Users\srvs\AppData\Local\Temp\ccbjXe8z.s 			page 8


 163              		.cfi_startproc
 164 0000 80B5     		push	{r7, lr}
 165              	.LCFI2:
 166              		.cfi_def_cfa_offset 8
 167              		.cfi_offset 7, -8
 168              		.cfi_offset 14, -4
 169 0002 00AF     		add	r7, sp, #0
 170              	.LCFI3:
 171              		.cfi_def_cfa_register 7
 234:.\Generated_Source\PSoC4/I2CM_I2C.c ****     I2CM_state = I2CM_I2C_FSM_IDLE;
 172              		.loc 1 234 0
 173 0004 024B     		ldr	r3, .L7
 174 0006 1022     		mov	r2, #16
 175 0008 1A70     		strb	r2, [r3]
 235:.\Generated_Source\PSoC4/I2CM_I2C.c **** }
 176              		.loc 1 235 0
 177 000a BD46     		mov	sp, r7
 178              		@ sp needed for prologue
 179 000c 80BD     		pop	{r7, pc}
 180              	.L8:
 181 000e C046     		.align	2
 182              	.L7:
 183 0010 00000000 		.word	I2CM_state
 184              		.cfi_endproc
 185              	.LFE1:
 186              		.size	I2CM_I2CStop, .-I2CM_I2CStop
 187              		.section	.text.I2CM_I2CSaveConfig,"ax",%progbits
 188              		.align	2
 189              		.global	I2CM_I2CSaveConfig
 190              		.code	16
 191              		.thumb_func
 192              		.type	I2CM_I2CSaveConfig, %function
 193              	I2CM_I2CSaveConfig:
 194              	.LFB2:
 236:.\Generated_Source\PSoC4/I2CM_I2C.c **** 
 237:.\Generated_Source\PSoC4/I2CM_I2C.c **** 
 238:.\Generated_Source\PSoC4/I2CM_I2C.c **** /*******************************************************************************
 239:.\Generated_Source\PSoC4/I2CM_I2C.c **** * Function Name: I2CM_I2CSaveConfig
 240:.\Generated_Source\PSoC4/I2CM_I2C.c **** ********************************************************************************
 241:.\Generated_Source\PSoC4/I2CM_I2C.c **** *
 242:.\Generated_Source\PSoC4/I2CM_I2C.c **** * Summary:
 243:.\Generated_Source\PSoC4/I2CM_I2C.c **** *  Wakeup disabled: does nothing.
 244:.\Generated_Source\PSoC4/I2CM_I2C.c **** *  Wakeup  enabled: clears SCB_backup.enableState and enables
 245:.\Generated_Source\PSoC4/I2CM_I2C.c **** *  SCB_INTR_I2C_EC_WAKE_UP interrupt used for wakeup. This interrupt source
 246:.\Generated_Source\PSoC4/I2CM_I2C.c **** *  tracks in active mode therefore it does not require to be cleared.
 247:.\Generated_Source\PSoC4/I2CM_I2C.c **** *
 248:.\Generated_Source\PSoC4/I2CM_I2C.c **** * Parameters:
 249:.\Generated_Source\PSoC4/I2CM_I2C.c **** *  None
 250:.\Generated_Source\PSoC4/I2CM_I2C.c **** *
 251:.\Generated_Source\PSoC4/I2CM_I2C.c **** * Return:
 252:.\Generated_Source\PSoC4/I2CM_I2C.c **** *  None
 253:.\Generated_Source\PSoC4/I2CM_I2C.c **** *
 254:.\Generated_Source\PSoC4/I2CM_I2C.c **** *******************************************************************************/
 255:.\Generated_Source\PSoC4/I2CM_I2C.c **** void I2CM_I2CSaveConfig(void)
 256:.\Generated_Source\PSoC4/I2CM_I2C.c **** {
 195              		.loc 1 256 0
 196              		.cfi_startproc
ARM GAS  C:\Users\srvs\AppData\Local\Temp\ccbjXe8z.s 			page 9


 197 0000 80B5     		push	{r7, lr}
 198              	.LCFI4:
 199              		.cfi_def_cfa_offset 8
 200              		.cfi_offset 7, -8
 201              		.cfi_offset 14, -4
 202 0002 00AF     		add	r7, sp, #0
 203              	.LCFI5:
 204              		.cfi_def_cfa_register 7
 257:.\Generated_Source\PSoC4/I2CM_I2C.c ****     #if(I2CM_CHECK_I2C_WAKE_ENABLE)
 258:.\Generated_Source\PSoC4/I2CM_I2C.c ****     {
 259:.\Generated_Source\PSoC4/I2CM_I2C.c ****         I2CM_backup.enableState = 0u; /* Keep SCB enabled */
 260:.\Generated_Source\PSoC4/I2CM_I2C.c **** 
 261:.\Generated_Source\PSoC4/I2CM_I2C.c ****         /* Enable interrupt to wakeup the device */
 262:.\Generated_Source\PSoC4/I2CM_I2C.c ****         I2CM_SetI2CExtClkInterruptMode(I2CM_INTR_I2C_EC_WAKE_UP);
 263:.\Generated_Source\PSoC4/I2CM_I2C.c ****     }
 264:.\Generated_Source\PSoC4/I2CM_I2C.c ****     #endif
 265:.\Generated_Source\PSoC4/I2CM_I2C.c **** }
 205              		.loc 1 265 0
 206 0004 BD46     		mov	sp, r7
 207              		@ sp needed for prologue
 208 0006 80BD     		pop	{r7, pc}
 209              		.cfi_endproc
 210              	.LFE2:
 211              		.size	I2CM_I2CSaveConfig, .-I2CM_I2CSaveConfig
 212              		.section	.text.I2CM_I2CRestoreConfig,"ax",%progbits
 213              		.align	2
 214              		.global	I2CM_I2CRestoreConfig
 215              		.code	16
 216              		.thumb_func
 217              		.type	I2CM_I2CRestoreConfig, %function
 218              	I2CM_I2CRestoreConfig:
 219              	.LFB3:
 266:.\Generated_Source\PSoC4/I2CM_I2C.c **** 
 267:.\Generated_Source\PSoC4/I2CM_I2C.c **** 
 268:.\Generated_Source\PSoC4/I2CM_I2C.c **** /*******************************************************************************
 269:.\Generated_Source\PSoC4/I2CM_I2C.c **** * Function Name: I2CM_I2CRestoreConfig
 270:.\Generated_Source\PSoC4/I2CM_I2C.c **** ********************************************************************************
 271:.\Generated_Source\PSoC4/I2CM_I2C.c **** *
 272:.\Generated_Source\PSoC4/I2CM_I2C.c **** * Summary:
 273:.\Generated_Source\PSoC4/I2CM_I2C.c **** *  Does nothing.
 274:.\Generated_Source\PSoC4/I2CM_I2C.c **** *
 275:.\Generated_Source\PSoC4/I2CM_I2C.c **** * Parameters:
 276:.\Generated_Source\PSoC4/I2CM_I2C.c **** *  None
 277:.\Generated_Source\PSoC4/I2CM_I2C.c **** *
 278:.\Generated_Source\PSoC4/I2CM_I2C.c **** * Return:
 279:.\Generated_Source\PSoC4/I2CM_I2C.c **** *  None
 280:.\Generated_Source\PSoC4/I2CM_I2C.c **** *
 281:.\Generated_Source\PSoC4/I2CM_I2C.c **** *******************************************************************************/
 282:.\Generated_Source\PSoC4/I2CM_I2C.c **** void I2CM_I2CRestoreConfig(void)
 283:.\Generated_Source\PSoC4/I2CM_I2C.c **** {
 220              		.loc 1 283 0
 221              		.cfi_startproc
 222 0000 80B5     		push	{r7, lr}
 223              	.LCFI6:
 224              		.cfi_def_cfa_offset 8
 225              		.cfi_offset 7, -8
 226              		.cfi_offset 14, -4
ARM GAS  C:\Users\srvs\AppData\Local\Temp\ccbjXe8z.s 			page 10


 227 0002 00AF     		add	r7, sp, #0
 228              	.LCFI7:
 229              		.cfi_def_cfa_register 7
 284:.\Generated_Source\PSoC4/I2CM_I2C.c ****     /* Does nothing: as wake is masked-off in the interrupt */
 285:.\Generated_Source\PSoC4/I2CM_I2C.c **** }
 230              		.loc 1 285 0
 231 0004 BD46     		mov	sp, r7
 232              		@ sp needed for prologue
 233 0006 80BD     		pop	{r7, pc}
 234              		.cfi_endproc
 235              	.LFE3:
 236              		.size	I2CM_I2CRestoreConfig, .-I2CM_I2CRestoreConfig
 237              		.text
 238              	.Letext0: