ARM GAS  C:\Users\srvs\AppData\Local\Temp\cctSUBnk.s 			page 1


   1              		.cpu cortex-m0
   2              		.fpu softvfp
   3              		.eabi_attribute 20, 1
   4              		.eabi_attribute 21, 1
   5              		.eabi_attribute 23, 3
   6              		.eabi_attribute 24, 1
   7              		.eabi_attribute 25, 1
   8              		.eabi_attribute 26, 1
   9              		.eabi_attribute 30, 6
  10              		.eabi_attribute 18, 4
  11              		.code	16
  12              		.file	"I2CM_SCB_IRQ.c"
  19 0000 60010000 		.text
  19      02006400 
  19      00000201 
  19      FB0E0D00 
  19      01010101 
  20              	.Ltext0:
  21              		.cfi_sections	.debug_frame
  22              		.section	.text.I2CM_SCB_IRQ_Start,"ax",%progbits
  23              		.align	2
  24              		.global	I2CM_SCB_IRQ_Start
  25              		.code	16
  26              		.thumb_func
  27              		.type	I2CM_SCB_IRQ_Start, %function
  28              	I2CM_SCB_IRQ_Start:
  29              	.LFB0:
  30              		.file 1 ".\\Generated_Source\\PSoC4\\I2CM_SCB_IRQ.c"
   1:.\Generated_Source\PSoC4/I2CM_SCB_IRQ.c **** /*******************************************************************************
   2:.\Generated_Source\PSoC4/I2CM_SCB_IRQ.c **** * File Name: I2CM_SCB_IRQ.c  
   3:.\Generated_Source\PSoC4/I2CM_SCB_IRQ.c **** * Version 1.70
   4:.\Generated_Source\PSoC4/I2CM_SCB_IRQ.c **** *
   5:.\Generated_Source\PSoC4/I2CM_SCB_IRQ.c **** *  Description:
   6:.\Generated_Source\PSoC4/I2CM_SCB_IRQ.c **** *   API for controlling the state of an interrupt.
   7:.\Generated_Source\PSoC4/I2CM_SCB_IRQ.c **** *
   8:.\Generated_Source\PSoC4/I2CM_SCB_IRQ.c **** *
   9:.\Generated_Source\PSoC4/I2CM_SCB_IRQ.c **** *  Note:
  10:.\Generated_Source\PSoC4/I2CM_SCB_IRQ.c **** *
  11:.\Generated_Source\PSoC4/I2CM_SCB_IRQ.c **** ********************************************************************************
  12:.\Generated_Source\PSoC4/I2CM_SCB_IRQ.c **** * Copyright 2008-2012, Cypress Semiconductor Corporation.  All rights reserved.
  13:.\Generated_Source\PSoC4/I2CM_SCB_IRQ.c **** * You may use this file only in accordance with the license, terms, conditions, 
  14:.\Generated_Source\PSoC4/I2CM_SCB_IRQ.c **** * disclaimers, and limitations in the end user license agreement accompanying 
  15:.\Generated_Source\PSoC4/I2CM_SCB_IRQ.c **** * the software package with which this file was provided.
  16:.\Generated_Source\PSoC4/I2CM_SCB_IRQ.c **** *******************************************************************************/
  17:.\Generated_Source\PSoC4/I2CM_SCB_IRQ.c **** 
  18:.\Generated_Source\PSoC4/I2CM_SCB_IRQ.c **** 
  19:.\Generated_Source\PSoC4/I2CM_SCB_IRQ.c **** #include <CYDEVICE_TRM.H>
  20:.\Generated_Source\PSoC4/I2CM_SCB_IRQ.c **** #include <CYLIB.H>
  21:.\Generated_Source\PSoC4/I2CM_SCB_IRQ.c **** #include <I2CM_SCB_IRQ.H>
  22:.\Generated_Source\PSoC4/I2CM_SCB_IRQ.c **** 
  23:.\Generated_Source\PSoC4/I2CM_SCB_IRQ.c **** #if !defined(I2CM_SCB_IRQ__REMOVED) /* Check for removal by optimization */
ARM GAS  C:\Users\srvs\AppData\Local\Temp\cctSUBnk.s 			page 2


  24:.\Generated_Source\PSoC4/I2CM_SCB_IRQ.c **** 
  25:.\Generated_Source\PSoC4/I2CM_SCB_IRQ.c **** /*******************************************************************************
  26:.\Generated_Source\PSoC4/I2CM_SCB_IRQ.c **** *  Place your includes, defines and code here 
  27:.\Generated_Source\PSoC4/I2CM_SCB_IRQ.c **** ********************************************************************************/
  28:.\Generated_Source\PSoC4/I2CM_SCB_IRQ.c **** /* `#START I2CM_SCB_IRQ_intc` */
  29:.\Generated_Source\PSoC4/I2CM_SCB_IRQ.c **** 
  30:.\Generated_Source\PSoC4/I2CM_SCB_IRQ.c **** /* `#END` */
  31:.\Generated_Source\PSoC4/I2CM_SCB_IRQ.c **** 
  32:.\Generated_Source\PSoC4/I2CM_SCB_IRQ.c **** extern cyisraddress CyRamVectors[CYINT_IRQ_BASE + CY_NUM_INTERRUPTS];
  33:.\Generated_Source\PSoC4/I2CM_SCB_IRQ.c **** 
  34:.\Generated_Source\PSoC4/I2CM_SCB_IRQ.c **** /* Declared in startup, used to set unused interrupts to. */
  35:.\Generated_Source\PSoC4/I2CM_SCB_IRQ.c **** CY_ISR_PROTO(IntDefaultHandler);
  36:.\Generated_Source\PSoC4/I2CM_SCB_IRQ.c **** 
  37:.\Generated_Source\PSoC4/I2CM_SCB_IRQ.c **** 
  38:.\Generated_Source\PSoC4/I2CM_SCB_IRQ.c **** /*******************************************************************************
  39:.\Generated_Source\PSoC4/I2CM_SCB_IRQ.c **** * Function Name: I2CM_SCB_IRQ_Start
  40:.\Generated_Source\PSoC4/I2CM_SCB_IRQ.c **** ********************************************************************************
  41:.\Generated_Source\PSoC4/I2CM_SCB_IRQ.c **** *
  42:.\Generated_Source\PSoC4/I2CM_SCB_IRQ.c **** * Summary:
  43:.\Generated_Source\PSoC4/I2CM_SCB_IRQ.c **** *  Set up the interrupt and enable it.
  44:.\Generated_Source\PSoC4/I2CM_SCB_IRQ.c **** *
  45:.\Generated_Source\PSoC4/I2CM_SCB_IRQ.c **** * Parameters:  
  46:.\Generated_Source\PSoC4/I2CM_SCB_IRQ.c **** *   None
  47:.\Generated_Source\PSoC4/I2CM_SCB_IRQ.c **** *
  48:.\Generated_Source\PSoC4/I2CM_SCB_IRQ.c **** * Return:
  49:.\Generated_Source\PSoC4/I2CM_SCB_IRQ.c **** *   None
  50:.\Generated_Source\PSoC4/I2CM_SCB_IRQ.c **** *
  51:.\Generated_Source\PSoC4/I2CM_SCB_IRQ.c **** *******************************************************************************/
  52:.\Generated_Source\PSoC4/I2CM_SCB_IRQ.c **** void I2CM_SCB_IRQ_Start(void)
  53:.\Generated_Source\PSoC4/I2CM_SCB_IRQ.c **** {
  31              		.loc 1 53 0
  32              		.cfi_startproc
  33 0000 80B5     		push	{r7, lr}
  34              	.LCFI0:
  35              		.cfi_def_cfa_offset 8
  36              		.cfi_offset 7, -8
  37              		.cfi_offset 14, -4
  38 0002 00AF     		add	r7, sp, #0
  39              	.LCFI1:
  40              		.cfi_def_cfa_register 7
  54:.\Generated_Source\PSoC4/I2CM_SCB_IRQ.c ****     /* For all we know the interrupt is active. */
  55:.\Generated_Source\PSoC4/I2CM_SCB_IRQ.c ****     I2CM_SCB_IRQ_Disable();
  41              		.loc 1 55 0
  42 0004 FFF7FEFF 		bl	I2CM_SCB_IRQ_Disable
  56:.\Generated_Source\PSoC4/I2CM_SCB_IRQ.c **** 
  57:.\Generated_Source\PSoC4/I2CM_SCB_IRQ.c ****     /* Set the ISR to point to the I2CM_SCB_IRQ Interrupt. */
  58:.\Generated_Source\PSoC4/I2CM_SCB_IRQ.c ****     I2CM_SCB_IRQ_SetVector(&I2CM_SCB_IRQ_Interrupt);
  43              		.loc 1 58 0
  44 0008 054B     		ldr	r3, .L3
  45 000a 181C     		mov	r0, r3
  46 000c FFF7FEFF 		bl	I2CM_SCB_IRQ_SetVector
  59:.\Generated_Source\PSoC4/I2CM_SCB_IRQ.c **** 
  60:.\Generated_Source\PSoC4/I2CM_SCB_IRQ.c ****     /* Set the priority. */
  61:.\Generated_Source\PSoC4/I2CM_SCB_IRQ.c ****     I2CM_SCB_IRQ_SetPriority((uint8)I2CM_SCB_IRQ_INTC_PRIOR_NUMBER);
  47              		.loc 1 61 0
  48 0010 0320     		mov	r0, #3
  49 0012 FFF7FEFF 		bl	I2CM_SCB_IRQ_SetPriority
ARM GAS  C:\Users\srvs\AppData\Local\Temp\cctSUBnk.s 			page 3


  62:.\Generated_Source\PSoC4/I2CM_SCB_IRQ.c **** 
  63:.\Generated_Source\PSoC4/I2CM_SCB_IRQ.c ****     /* Enable it. */
  64:.\Generated_Source\PSoC4/I2CM_SCB_IRQ.c ****     I2CM_SCB_IRQ_Enable();
  50              		.loc 1 64 0
  51 0016 FFF7FEFF 		bl	I2CM_SCB_IRQ_Enable
  65:.\Generated_Source\PSoC4/I2CM_SCB_IRQ.c **** }
  52              		.loc 1 65 0
  53 001a BD46     		mov	sp, r7
  54              		@ sp needed for prologue
  55 001c 80BD     		pop	{r7, pc}
  56              	.L4:
  57 001e C046     		.align	2
  58              	.L3:
  59 0020 00000000 		.word	I2CM_SCB_IRQ_Interrupt
  60              		.cfi_endproc
  61              	.LFE0:
  62              		.size	I2CM_SCB_IRQ_Start, .-I2CM_SCB_IRQ_Start
  63              		.section	.text.I2CM_SCB_IRQ_StartEx,"ax",%progbits
  64              		.align	2
  65              		.global	I2CM_SCB_IRQ_StartEx
  66              		.code	16
  67              		.thumb_func
  68              		.type	I2CM_SCB_IRQ_StartEx, %function
  69              	I2CM_SCB_IRQ_StartEx:
  70              	.LFB1:
  66:.\Generated_Source\PSoC4/I2CM_SCB_IRQ.c **** 
  67:.\Generated_Source\PSoC4/I2CM_SCB_IRQ.c **** 
  68:.\Generated_Source\PSoC4/I2CM_SCB_IRQ.c **** /*******************************************************************************
  69:.\Generated_Source\PSoC4/I2CM_SCB_IRQ.c **** * Function Name: I2CM_SCB_IRQ_StartEx
  70:.\Generated_Source\PSoC4/I2CM_SCB_IRQ.c **** ********************************************************************************
  71:.\Generated_Source\PSoC4/I2CM_SCB_IRQ.c **** *
  72:.\Generated_Source\PSoC4/I2CM_SCB_IRQ.c **** * Summary:
  73:.\Generated_Source\PSoC4/I2CM_SCB_IRQ.c **** *  Set up the interrupt and enable it.
  74:.\Generated_Source\PSoC4/I2CM_SCB_IRQ.c **** *
  75:.\Generated_Source\PSoC4/I2CM_SCB_IRQ.c **** * Parameters:  
  76:.\Generated_Source\PSoC4/I2CM_SCB_IRQ.c **** *   address: Address of the ISR to set in the interrupt vector table.
  77:.\Generated_Source\PSoC4/I2CM_SCB_IRQ.c **** *
  78:.\Generated_Source\PSoC4/I2CM_SCB_IRQ.c **** * Return:
  79:.\Generated_Source\PSoC4/I2CM_SCB_IRQ.c **** *   None
  80:.\Generated_Source\PSoC4/I2CM_SCB_IRQ.c **** *
  81:.\Generated_Source\PSoC4/I2CM_SCB_IRQ.c **** *******************************************************************************/
  82:.\Generated_Source\PSoC4/I2CM_SCB_IRQ.c **** void I2CM_SCB_IRQ_StartEx(cyisraddress address)
  83:.\Generated_Source\PSoC4/I2CM_SCB_IRQ.c **** {
  71              		.loc 1 83 0
  72              		.cfi_startproc
  73 0000 80B5     		push	{r7, lr}
  74              	.LCFI2:
  75              		.cfi_def_cfa_offset 8
  76              		.cfi_offset 7, -8
  77              		.cfi_offset 14, -4
  78 0002 82B0     		sub	sp, sp, #8
  79              	.LCFI3:
  80              		.cfi_def_cfa_offset 16
  81 0004 00AF     		add	r7, sp, #0
  82              	.LCFI4:
  83              		.cfi_def_cfa_register 7
  84 0006 7860     		str	r0, [r7, #4]
ARM GAS  C:\Users\srvs\AppData\Local\Temp\cctSUBnk.s 			page 4


  84:.\Generated_Source\PSoC4/I2CM_SCB_IRQ.c ****     /* For all we know the interrupt is active. */
  85:.\Generated_Source\PSoC4/I2CM_SCB_IRQ.c ****     I2CM_SCB_IRQ_Disable();
  85              		.loc 1 85 0
  86 0008 FFF7FEFF 		bl	I2CM_SCB_IRQ_Disable
  86:.\Generated_Source\PSoC4/I2CM_SCB_IRQ.c **** 
  87:.\Generated_Source\PSoC4/I2CM_SCB_IRQ.c ****     /* Set the ISR to point to the I2CM_SCB_IRQ Interrupt. */
  88:.\Generated_Source\PSoC4/I2CM_SCB_IRQ.c ****     I2CM_SCB_IRQ_SetVector(address);
  87              		.loc 1 88 0
  88 000c 7B68     		ldr	r3, [r7, #4]
  89 000e 181C     		mov	r0, r3
  90 0010 FFF7FEFF 		bl	I2CM_SCB_IRQ_SetVector
  89:.\Generated_Source\PSoC4/I2CM_SCB_IRQ.c **** 
  90:.\Generated_Source\PSoC4/I2CM_SCB_IRQ.c ****     /* Set the priority. */
  91:.\Generated_Source\PSoC4/I2CM_SCB_IRQ.c ****     I2CM_SCB_IRQ_SetPriority((uint8)I2CM_SCB_IRQ_INTC_PRIOR_NUMBER);
  91              		.loc 1 91 0
  92 0014 0320     		mov	r0, #3
  93 0016 FFF7FEFF 		bl	I2CM_SCB_IRQ_SetPriority
  92:.\Generated_Source\PSoC4/I2CM_SCB_IRQ.c **** 
  93:.\Generated_Source\PSoC4/I2CM_SCB_IRQ.c ****     /* Enable it. */
  94:.\Generated_Source\PSoC4/I2CM_SCB_IRQ.c ****     I2CM_SCB_IRQ_Enable();
  94              		.loc 1 94 0
  95 001a FFF7FEFF 		bl	I2CM_SCB_IRQ_Enable
  95:.\Generated_Source\PSoC4/I2CM_SCB_IRQ.c **** }
  96              		.loc 1 95 0
  97 001e BD46     		mov	sp, r7
  98 0020 02B0     		add	sp, sp, #8
  99              		@ sp needed for prologue
 100 0022 80BD     		pop	{r7, pc}
 101              		.cfi_endproc
 102              	.LFE1:
 103              		.size	I2CM_SCB_IRQ_StartEx, .-I2CM_SCB_IRQ_StartEx
 104              		.section	.text.I2CM_SCB_IRQ_Stop,"ax",%progbits
 105              		.align	2
 106              		.global	I2CM_SCB_IRQ_Stop
 107              		.code	16
 108              		.thumb_func
 109              		.type	I2CM_SCB_IRQ_Stop, %function
 110              	I2CM_SCB_IRQ_Stop:
 111              	.LFB2:
  96:.\Generated_Source\PSoC4/I2CM_SCB_IRQ.c **** 
  97:.\Generated_Source\PSoC4/I2CM_SCB_IRQ.c **** 
  98:.\Generated_Source\PSoC4/I2CM_SCB_IRQ.c **** /*******************************************************************************
  99:.\Generated_Source\PSoC4/I2CM_SCB_IRQ.c **** * Function Name: I2CM_SCB_IRQ_Stop
 100:.\Generated_Source\PSoC4/I2CM_SCB_IRQ.c **** ********************************************************************************
 101:.\Generated_Source\PSoC4/I2CM_SCB_IRQ.c **** *
 102:.\Generated_Source\PSoC4/I2CM_SCB_IRQ.c **** * Summary:
 103:.\Generated_Source\PSoC4/I2CM_SCB_IRQ.c **** *   Disables and removes the interrupt.
 104:.\Generated_Source\PSoC4/I2CM_SCB_IRQ.c **** *
 105:.\Generated_Source\PSoC4/I2CM_SCB_IRQ.c **** * Parameters:  
 106:.\Generated_Source\PSoC4/I2CM_SCB_IRQ.c **** *
 107:.\Generated_Source\PSoC4/I2CM_SCB_IRQ.c **** * Return:
 108:.\Generated_Source\PSoC4/I2CM_SCB_IRQ.c **** *   None
 109:.\Generated_Source\PSoC4/I2CM_SCB_IRQ.c **** *
 110:.\Generated_Source\PSoC4/I2CM_SCB_IRQ.c **** *******************************************************************************/
 111:.\Generated_Source\PSoC4/I2CM_SCB_IRQ.c **** void I2CM_SCB_IRQ_Stop(void)
 112:.\Generated_Source\PSoC4/I2CM_SCB_IRQ.c **** {
 112              		.loc 1 112 0
ARM GAS  C:\Users\srvs\AppData\Local\Temp\cctSUBnk.s 			page 5


 113              		.cfi_startproc
 114 0000 80B5     		push	{r7, lr}
 115              	.LCFI5:
 116              		.cfi_def_cfa_offset 8
 117              		.cfi_offset 7, -8
 118              		.cfi_offset 14, -4
 119 0002 00AF     		add	r7, sp, #0
 120              	.LCFI6:
 121              		.cfi_def_cfa_register 7
 113:.\Generated_Source\PSoC4/I2CM_SCB_IRQ.c ****     /* Disable this interrupt. */
 114:.\Generated_Source\PSoC4/I2CM_SCB_IRQ.c ****     I2CM_SCB_IRQ_Disable();
 122              		.loc 1 114 0
 123 0004 FFF7FEFF 		bl	I2CM_SCB_IRQ_Disable
 115:.\Generated_Source\PSoC4/I2CM_SCB_IRQ.c **** 
 116:.\Generated_Source\PSoC4/I2CM_SCB_IRQ.c ****     /* Set the ISR to point to the passive one. */
 117:.\Generated_Source\PSoC4/I2CM_SCB_IRQ.c ****     I2CM_SCB_IRQ_SetVector(&IntDefaultHandler);
 124              		.loc 1 117 0
 125 0008 024B     		ldr	r3, .L9
 126 000a 181C     		mov	r0, r3
 127 000c FFF7FEFF 		bl	I2CM_SCB_IRQ_SetVector
 118:.\Generated_Source\PSoC4/I2CM_SCB_IRQ.c **** }
 128              		.loc 1 118 0
 129 0010 BD46     		mov	sp, r7
 130              		@ sp needed for prologue
 131 0012 80BD     		pop	{r7, pc}
 132              	.L10:
 133              		.align	2
 134              	.L9:
 135 0014 00000000 		.word	IntDefaultHandler
 136              		.cfi_endproc
 137              	.LFE2:
 138              		.size	I2CM_SCB_IRQ_Stop, .-I2CM_SCB_IRQ_Stop
 139              		.section	.text.I2CM_SCB_IRQ_Interrupt,"ax",%progbits
 140              		.align	2
 141              		.global	I2CM_SCB_IRQ_Interrupt
 142              		.code	16
 143              		.thumb_func
 144              		.type	I2CM_SCB_IRQ_Interrupt, %function
 145              	I2CM_SCB_IRQ_Interrupt:
 146              	.LFB3:
 119:.\Generated_Source\PSoC4/I2CM_SCB_IRQ.c **** 
 120:.\Generated_Source\PSoC4/I2CM_SCB_IRQ.c **** 
 121:.\Generated_Source\PSoC4/I2CM_SCB_IRQ.c **** /*******************************************************************************
 122:.\Generated_Source\PSoC4/I2CM_SCB_IRQ.c **** * Function Name: I2CM_SCB_IRQ_Interrupt
 123:.\Generated_Source\PSoC4/I2CM_SCB_IRQ.c **** ********************************************************************************
 124:.\Generated_Source\PSoC4/I2CM_SCB_IRQ.c **** *
 125:.\Generated_Source\PSoC4/I2CM_SCB_IRQ.c **** * Summary:
 126:.\Generated_Source\PSoC4/I2CM_SCB_IRQ.c **** *   The default Interrupt Service Routine for I2CM_SCB_IRQ.
 127:.\Generated_Source\PSoC4/I2CM_SCB_IRQ.c **** *
 128:.\Generated_Source\PSoC4/I2CM_SCB_IRQ.c **** *   Add custom code between the coments to keep the next version of this file
 129:.\Generated_Source\PSoC4/I2CM_SCB_IRQ.c **** *   from over writting your code.
 130:.\Generated_Source\PSoC4/I2CM_SCB_IRQ.c **** *
 131:.\Generated_Source\PSoC4/I2CM_SCB_IRQ.c **** * Parameters:  
 132:.\Generated_Source\PSoC4/I2CM_SCB_IRQ.c **** *   None
 133:.\Generated_Source\PSoC4/I2CM_SCB_IRQ.c **** *
 134:.\Generated_Source\PSoC4/I2CM_SCB_IRQ.c **** * Return:
 135:.\Generated_Source\PSoC4/I2CM_SCB_IRQ.c **** *   None
ARM GAS  C:\Users\srvs\AppData\Local\Temp\cctSUBnk.s 			page 6


 136:.\Generated_Source\PSoC4/I2CM_SCB_IRQ.c **** *
 137:.\Generated_Source\PSoC4/I2CM_SCB_IRQ.c **** *******************************************************************************/
 138:.\Generated_Source\PSoC4/I2CM_SCB_IRQ.c **** CY_ISR(I2CM_SCB_IRQ_Interrupt)
 139:.\Generated_Source\PSoC4/I2CM_SCB_IRQ.c **** {
 147              		.loc 1 139 0
 148              		.cfi_startproc
 149 0000 80B5     		push	{r7, lr}
 150              	.LCFI7:
 151              		.cfi_def_cfa_offset 8
 152              		.cfi_offset 7, -8
 153              		.cfi_offset 14, -4
 154 0002 00AF     		add	r7, sp, #0
 155              	.LCFI8:
 156              		.cfi_def_cfa_register 7
 140:.\Generated_Source\PSoC4/I2CM_SCB_IRQ.c ****     /*  Place your Interrupt code here. */
 141:.\Generated_Source\PSoC4/I2CM_SCB_IRQ.c ****     /* `#START I2CM_SCB_IRQ_Interrupt` */
 142:.\Generated_Source\PSoC4/I2CM_SCB_IRQ.c **** 
 143:.\Generated_Source\PSoC4/I2CM_SCB_IRQ.c ****     /* `#END` */
 144:.\Generated_Source\PSoC4/I2CM_SCB_IRQ.c **** }
 157              		.loc 1 144 0
 158 0004 BD46     		mov	sp, r7
 159              		@ sp needed for prologue
 160 0006 80BD     		pop	{r7, pc}
 161              		.cfi_endproc
 162              	.LFE3:
 163              		.size	I2CM_SCB_IRQ_Interrupt, .-I2CM_SCB_IRQ_Interrupt
 164              		.section	.text.I2CM_SCB_IRQ_SetVector,"ax",%progbits
 165              		.align	2
 166              		.global	I2CM_SCB_IRQ_SetVector
 167              		.code	16
 168              		.thumb_func
 169              		.type	I2CM_SCB_IRQ_SetVector, %function
 170              	I2CM_SCB_IRQ_SetVector:
 171              	.LFB4:
 145:.\Generated_Source\PSoC4/I2CM_SCB_IRQ.c **** 
 146:.\Generated_Source\PSoC4/I2CM_SCB_IRQ.c **** 
 147:.\Generated_Source\PSoC4/I2CM_SCB_IRQ.c **** /*******************************************************************************
 148:.\Generated_Source\PSoC4/I2CM_SCB_IRQ.c **** * Function Name: I2CM_SCB_IRQ_SetVector
 149:.\Generated_Source\PSoC4/I2CM_SCB_IRQ.c **** ********************************************************************************
 150:.\Generated_Source\PSoC4/I2CM_SCB_IRQ.c **** *
 151:.\Generated_Source\PSoC4/I2CM_SCB_IRQ.c **** * Summary:
 152:.\Generated_Source\PSoC4/I2CM_SCB_IRQ.c **** *   Change the ISR vector for the Interrupt. Note calling I2CM_SCB_IRQ_Start
 153:.\Generated_Source\PSoC4/I2CM_SCB_IRQ.c **** *   will override any effect this method would have had. To set the vector 
 154:.\Generated_Source\PSoC4/I2CM_SCB_IRQ.c **** *   before the component has been started use I2CM_SCB_IRQ_StartEx instead.
 155:.\Generated_Source\PSoC4/I2CM_SCB_IRQ.c **** *
 156:.\Generated_Source\PSoC4/I2CM_SCB_IRQ.c **** * Parameters:
 157:.\Generated_Source\PSoC4/I2CM_SCB_IRQ.c **** *   address: Address of the ISR to set in the interrupt vector table.
 158:.\Generated_Source\PSoC4/I2CM_SCB_IRQ.c **** *
 159:.\Generated_Source\PSoC4/I2CM_SCB_IRQ.c **** * Return:
 160:.\Generated_Source\PSoC4/I2CM_SCB_IRQ.c **** *   None
 161:.\Generated_Source\PSoC4/I2CM_SCB_IRQ.c **** *
 162:.\Generated_Source\PSoC4/I2CM_SCB_IRQ.c **** *******************************************************************************/
 163:.\Generated_Source\PSoC4/I2CM_SCB_IRQ.c **** void I2CM_SCB_IRQ_SetVector(cyisraddress address)
 164:.\Generated_Source\PSoC4/I2CM_SCB_IRQ.c **** {
 172              		.loc 1 164 0
 173              		.cfi_startproc
 174 0000 80B5     		push	{r7, lr}
ARM GAS  C:\Users\srvs\AppData\Local\Temp\cctSUBnk.s 			page 7


 175              	.LCFI9:
 176              		.cfi_def_cfa_offset 8
 177              		.cfi_offset 7, -8
 178              		.cfi_offset 14, -4
 179 0002 82B0     		sub	sp, sp, #8
 180              	.LCFI10:
 181              		.cfi_def_cfa_offset 16
 182 0004 00AF     		add	r7, sp, #0
 183              	.LCFI11:
 184              		.cfi_def_cfa_register 7
 185 0006 7860     		str	r0, [r7, #4]
 165:.\Generated_Source\PSoC4/I2CM_SCB_IRQ.c ****     CyRamVectors[CYINT_IRQ_BASE + I2CM_SCB_IRQ__INTC_NUMBER] = address;
 186              		.loc 1 165 0
 187 0008 024B     		ldr	r3, .L15
 188 000a 7A68     		ldr	r2, [r7, #4]
 189 000c DA66     		str	r2, [r3, #108]
 166:.\Generated_Source\PSoC4/I2CM_SCB_IRQ.c **** }
 190              		.loc 1 166 0
 191 000e BD46     		mov	sp, r7
 192 0010 02B0     		add	sp, sp, #8
 193              		@ sp needed for prologue
 194 0012 80BD     		pop	{r7, pc}
 195              	.L16:
 196              		.align	2
 197              	.L15:
 198 0014 00000000 		.word	CyRamVectors
 199              		.cfi_endproc
 200              	.LFE4:
 201              		.size	I2CM_SCB_IRQ_SetVector, .-I2CM_SCB_IRQ_SetVector
 202              		.section	.text.I2CM_SCB_IRQ_GetVector,"ax",%progbits
 203              		.align	2
 204              		.global	I2CM_SCB_IRQ_GetVector
 205              		.code	16
 206              		.thumb_func
 207              		.type	I2CM_SCB_IRQ_GetVector, %function
 208              	I2CM_SCB_IRQ_GetVector:
 209              	.LFB5:
 167:.\Generated_Source\PSoC4/I2CM_SCB_IRQ.c **** 
 168:.\Generated_Source\PSoC4/I2CM_SCB_IRQ.c **** 
 169:.\Generated_Source\PSoC4/I2CM_SCB_IRQ.c **** /*******************************************************************************
 170:.\Generated_Source\PSoC4/I2CM_SCB_IRQ.c **** * Function Name: I2CM_SCB_IRQ_GetVector
 171:.\Generated_Source\PSoC4/I2CM_SCB_IRQ.c **** ********************************************************************************
 172:.\Generated_Source\PSoC4/I2CM_SCB_IRQ.c **** *
 173:.\Generated_Source\PSoC4/I2CM_SCB_IRQ.c **** * Summary:
 174:.\Generated_Source\PSoC4/I2CM_SCB_IRQ.c **** *   Gets the "address" of the current ISR vector for the Interrupt.
 175:.\Generated_Source\PSoC4/I2CM_SCB_IRQ.c **** *
 176:.\Generated_Source\PSoC4/I2CM_SCB_IRQ.c **** * Parameters:
 177:.\Generated_Source\PSoC4/I2CM_SCB_IRQ.c **** *   None
 178:.\Generated_Source\PSoC4/I2CM_SCB_IRQ.c **** *
 179:.\Generated_Source\PSoC4/I2CM_SCB_IRQ.c **** * Return:
 180:.\Generated_Source\PSoC4/I2CM_SCB_IRQ.c **** *   Address of the ISR in the interrupt vector table.
 181:.\Generated_Source\PSoC4/I2CM_SCB_IRQ.c **** *
 182:.\Generated_Source\PSoC4/I2CM_SCB_IRQ.c **** *******************************************************************************/
 183:.\Generated_Source\PSoC4/I2CM_SCB_IRQ.c **** cyisraddress I2CM_SCB_IRQ_GetVector(void)
 184:.\Generated_Source\PSoC4/I2CM_SCB_IRQ.c **** {
 210              		.loc 1 184 0
 211              		.cfi_startproc
ARM GAS  C:\Users\srvs\AppData\Local\Temp\cctSUBnk.s 			page 8


 212 0000 80B5     		push	{r7, lr}
 213              	.LCFI12:
 214              		.cfi_def_cfa_offset 8
 215              		.cfi_offset 7, -8
 216              		.cfi_offset 14, -4
 217 0002 00AF     		add	r7, sp, #0
 218              	.LCFI13:
 219              		.cfi_def_cfa_register 7
 185:.\Generated_Source\PSoC4/I2CM_SCB_IRQ.c ****     return CyRamVectors[CYINT_IRQ_BASE + I2CM_SCB_IRQ__INTC_NUMBER];
 220              		.loc 1 185 0
 221 0004 024B     		ldr	r3, .L19
 222 0006 DB6E     		ldr	r3, [r3, #108]
 186:.\Generated_Source\PSoC4/I2CM_SCB_IRQ.c **** }
 223              		.loc 1 186 0
 224 0008 181C     		mov	r0, r3
 225 000a BD46     		mov	sp, r7
 226              		@ sp needed for prologue
 227 000c 80BD     		pop	{r7, pc}
 228              	.L20:
 229 000e C046     		.align	2
 230              	.L19:
 231 0010 00000000 		.word	CyRamVectors
 232              		.cfi_endproc
 233              	.LFE5:
 234              		.size	I2CM_SCB_IRQ_GetVector, .-I2CM_SCB_IRQ_GetVector
 235              		.section	.text.I2CM_SCB_IRQ_SetPriority,"ax",%progbits
 236              		.align	2
 237              		.global	I2CM_SCB_IRQ_SetPriority
 238              		.code	16
 239              		.thumb_func
 240              		.type	I2CM_SCB_IRQ_SetPriority, %function
 241              	I2CM_SCB_IRQ_SetPriority:
 242              	.LFB6:
 187:.\Generated_Source\PSoC4/I2CM_SCB_IRQ.c **** 
 188:.\Generated_Source\PSoC4/I2CM_SCB_IRQ.c **** 
 189:.\Generated_Source\PSoC4/I2CM_SCB_IRQ.c **** /*******************************************************************************
 190:.\Generated_Source\PSoC4/I2CM_SCB_IRQ.c **** * Function Name: I2CM_SCB_IRQ_SetPriority
 191:.\Generated_Source\PSoC4/I2CM_SCB_IRQ.c **** ********************************************************************************
 192:.\Generated_Source\PSoC4/I2CM_SCB_IRQ.c **** *
 193:.\Generated_Source\PSoC4/I2CM_SCB_IRQ.c **** * Summary:
 194:.\Generated_Source\PSoC4/I2CM_SCB_IRQ.c **** *   Sets the Priority of the Interrupt. Note calling I2CM_SCB_IRQ_Start
 195:.\Generated_Source\PSoC4/I2CM_SCB_IRQ.c **** *   or I2CM_SCB_IRQ_StartEx will override any effect this method would 
 196:.\Generated_Source\PSoC4/I2CM_SCB_IRQ.c **** *   have had. This method should only be called after I2CM_SCB_IRQ_Start or 
 197:.\Generated_Source\PSoC4/I2CM_SCB_IRQ.c **** *   I2CM_SCB_IRQ_StartEx has been called. To set the initial
 198:.\Generated_Source\PSoC4/I2CM_SCB_IRQ.c **** *   priority for the component use the cydwr file in the tool.
 199:.\Generated_Source\PSoC4/I2CM_SCB_IRQ.c **** *
 200:.\Generated_Source\PSoC4/I2CM_SCB_IRQ.c **** * Parameters:
 201:.\Generated_Source\PSoC4/I2CM_SCB_IRQ.c **** *   priority: Priority of the interrupt. 0 - 3, 0 being the highest.
 202:.\Generated_Source\PSoC4/I2CM_SCB_IRQ.c **** *
 203:.\Generated_Source\PSoC4/I2CM_SCB_IRQ.c **** * Return:
 204:.\Generated_Source\PSoC4/I2CM_SCB_IRQ.c **** *   None
 205:.\Generated_Source\PSoC4/I2CM_SCB_IRQ.c **** *
 206:.\Generated_Source\PSoC4/I2CM_SCB_IRQ.c **** *******************************************************************************/
 207:.\Generated_Source\PSoC4/I2CM_SCB_IRQ.c **** void I2CM_SCB_IRQ_SetPriority(uint8 priority)
 208:.\Generated_Source\PSoC4/I2CM_SCB_IRQ.c **** {
 243              		.loc 1 208 0
 244              		.cfi_startproc
ARM GAS  C:\Users\srvs\AppData\Local\Temp\cctSUBnk.s 			page 9


 245 0000 90B5     		push	{r4, r7, lr}
 246              	.LCFI14:
 247              		.cfi_def_cfa_offset 12
 248              		.cfi_offset 4, -12
 249              		.cfi_offset 7, -8
 250              		.cfi_offset 14, -4
 251 0002 85B0     		sub	sp, sp, #20
 252              	.LCFI15:
 253              		.cfi_def_cfa_offset 32
 254 0004 00AF     		add	r7, sp, #0
 255              	.LCFI16:
 256              		.cfi_def_cfa_register 7
 257 0006 021C     		mov	r2, r0
 258 0008 FB1D     		add	r3, r7, #7
 259 000a 1A70     		strb	r2, [r3]
 209:.\Generated_Source\PSoC4/I2CM_SCB_IRQ.c **** 	uint8 interruptState;
 210:.\Generated_Source\PSoC4/I2CM_SCB_IRQ.c ****     uint32 priorityOffset = ((I2CM_SCB_IRQ__INTC_NUMBER % 4u) * 8u) + 6u;
 260              		.loc 1 210 0
 261 000c 1E23     		mov	r3, #30
 262 000e FB60     		str	r3, [r7, #12]
 211:.\Generated_Source\PSoC4/I2CM_SCB_IRQ.c ****     
 212:.\Generated_Source\PSoC4/I2CM_SCB_IRQ.c **** 	interruptState = CyEnterCriticalSection();
 263              		.loc 1 212 0
 264 0010 FFF7FEFF 		bl	CyEnterCriticalSection
 265 0014 031C     		mov	r3, r0
 266 0016 1A1C     		mov	r2, r3
 267 0018 3B1C     		mov	r3, r7
 268 001a 0B33     		add	r3, r3, #11
 269 001c 1A70     		strb	r2, [r3]
 213:.\Generated_Source\PSoC4/I2CM_SCB_IRQ.c ****     *I2CM_SCB_IRQ_INTC_PRIOR = (*I2CM_SCB_IRQ_INTC_PRIOR & (uint32)(~I2CM_SCB_IRQ__INTC_PRIOR_MASK)
 270              		.loc 1 213 0
 271 001e 0B4B     		ldr	r3, .L23
 272 0020 0A4A     		ldr	r2, .L23
 273 0022 1268     		ldr	r2, [r2]
 274 0024 9200     		lsl	r2, r2, #2
 275 0026 9108     		lsr	r1, r2, #2
 214:.\Generated_Source\PSoC4/I2CM_SCB_IRQ.c ****                                     ((uint32)priority << priorityOffset);
 276              		.loc 1 214 0
 277 0028 FA1D     		add	r2, r7, #7
 278 002a 1078     		ldrb	r0, [r2]
 279 002c FA68     		ldr	r2, [r7, #12]
 280 002e 041C     		mov	r4, r0
 281 0030 9440     		lsl	r4, r4, r2
 282 0032 221C     		mov	r2, r4
 283              		.loc 1 213 0
 284 0034 0A43     		orr	r2, r2, r1
 285 0036 1A60     		str	r2, [r3]
 215:.\Generated_Source\PSoC4/I2CM_SCB_IRQ.c **** 	CyExitCriticalSection(interruptState);
 286              		.loc 1 215 0
 287 0038 3B1C     		mov	r3, r7
 288 003a 0B33     		add	r3, r3, #11
 289 003c 1B78     		ldrb	r3, [r3]
 290 003e 181C     		mov	r0, r3
 291 0040 FFF7FEFF 		bl	CyExitCriticalSection
 216:.\Generated_Source\PSoC4/I2CM_SCB_IRQ.c **** }
 292              		.loc 1 216 0
 293 0044 BD46     		mov	sp, r7
ARM GAS  C:\Users\srvs\AppData\Local\Temp\cctSUBnk.s 			page 10


 294 0046 05B0     		add	sp, sp, #20
 295              		@ sp needed for prologue
 296 0048 90BD     		pop	{r4, r7, pc}
 297              	.L24:
 298 004a C046     		.align	2
 299              	.L23:
 300 004c 08E400E0 		.word	-536812536
 301              		.cfi_endproc
 302              	.LFE6:
 303              		.size	I2CM_SCB_IRQ_SetPriority, .-I2CM_SCB_IRQ_SetPriority
 304              		.section	.text.I2CM_SCB_IRQ_GetPriority,"ax",%progbits
 305              		.align	2
 306              		.global	I2CM_SCB_IRQ_GetPriority
 307              		.code	16
 308              		.thumb_func
 309              		.type	I2CM_SCB_IRQ_GetPriority, %function
 310              	I2CM_SCB_IRQ_GetPriority:
 311              	.LFB7:
 217:.\Generated_Source\PSoC4/I2CM_SCB_IRQ.c **** 
 218:.\Generated_Source\PSoC4/I2CM_SCB_IRQ.c **** 
 219:.\Generated_Source\PSoC4/I2CM_SCB_IRQ.c **** /*******************************************************************************
 220:.\Generated_Source\PSoC4/I2CM_SCB_IRQ.c **** * Function Name: I2CM_SCB_IRQ_GetPriority
 221:.\Generated_Source\PSoC4/I2CM_SCB_IRQ.c **** ********************************************************************************
 222:.\Generated_Source\PSoC4/I2CM_SCB_IRQ.c **** *
 223:.\Generated_Source\PSoC4/I2CM_SCB_IRQ.c **** * Summary:
 224:.\Generated_Source\PSoC4/I2CM_SCB_IRQ.c **** *   Gets the Priority of the Interrupt.
 225:.\Generated_Source\PSoC4/I2CM_SCB_IRQ.c **** *
 226:.\Generated_Source\PSoC4/I2CM_SCB_IRQ.c **** * Parameters:
 227:.\Generated_Source\PSoC4/I2CM_SCB_IRQ.c **** *   None
 228:.\Generated_Source\PSoC4/I2CM_SCB_IRQ.c **** *
 229:.\Generated_Source\PSoC4/I2CM_SCB_IRQ.c **** * Return:
 230:.\Generated_Source\PSoC4/I2CM_SCB_IRQ.c **** *   Priority of the interrupt. 0 - 3, 0 being the highest.
 231:.\Generated_Source\PSoC4/I2CM_SCB_IRQ.c **** *
 232:.\Generated_Source\PSoC4/I2CM_SCB_IRQ.c **** *******************************************************************************/
 233:.\Generated_Source\PSoC4/I2CM_SCB_IRQ.c **** uint8 I2CM_SCB_IRQ_GetPriority(void)
 234:.\Generated_Source\PSoC4/I2CM_SCB_IRQ.c **** {
 312              		.loc 1 234 0
 313              		.cfi_startproc
 314 0000 80B5     		push	{r7, lr}
 315              	.LCFI17:
 316              		.cfi_def_cfa_offset 8
 317              		.cfi_offset 7, -8
 318              		.cfi_offset 14, -4
 319 0002 82B0     		sub	sp, sp, #8
 320              	.LCFI18:
 321              		.cfi_def_cfa_offset 16
 322 0004 00AF     		add	r7, sp, #0
 323              	.LCFI19:
 324              		.cfi_def_cfa_register 7
 235:.\Generated_Source\PSoC4/I2CM_SCB_IRQ.c ****     uint32 priority;
 236:.\Generated_Source\PSoC4/I2CM_SCB_IRQ.c **** 	uint32 priorityOffset = ((I2CM_SCB_IRQ__INTC_NUMBER % 4u) * 8u) + 6u;
 325              		.loc 1 236 0
 326 0006 1E23     		mov	r3, #30
 327 0008 7B60     		str	r3, [r7, #4]
 237:.\Generated_Source\PSoC4/I2CM_SCB_IRQ.c **** 
 238:.\Generated_Source\PSoC4/I2CM_SCB_IRQ.c ****     priority = (*I2CM_SCB_IRQ_INTC_PRIOR & I2CM_SCB_IRQ__INTC_PRIOR_MASK) >> priorityOffset;
 328              		.loc 1 238 0
ARM GAS  C:\Users\srvs\AppData\Local\Temp\cctSUBnk.s 			page 11


 329 000a 074B     		ldr	r3, .L27
 330 000c 1B68     		ldr	r3, [r3]
 331 000e 9B0F     		lsr	r3, r3, #30
 332 0010 9A07     		lsl	r2, r3, #30
 333 0012 7B68     		ldr	r3, [r7, #4]
 334 0014 111C     		mov	r1, r2
 335 0016 D940     		lsr	r1, r1, r3
 336 0018 0B1C     		mov	r3, r1
 337 001a 3B60     		str	r3, [r7]
 239:.\Generated_Source\PSoC4/I2CM_SCB_IRQ.c **** 
 240:.\Generated_Source\PSoC4/I2CM_SCB_IRQ.c ****     return (uint8)priority;
 338              		.loc 1 240 0
 339 001c 3B68     		ldr	r3, [r7]
 340 001e DBB2     		uxtb	r3, r3
 241:.\Generated_Source\PSoC4/I2CM_SCB_IRQ.c **** }
 341              		.loc 1 241 0
 342 0020 181C     		mov	r0, r3
 343 0022 BD46     		mov	sp, r7
 344 0024 02B0     		add	sp, sp, #8
 345              		@ sp needed for prologue
 346 0026 80BD     		pop	{r7, pc}
 347              	.L28:
 348              		.align	2
 349              	.L27:
 350 0028 08E400E0 		.word	-536812536
 351              		.cfi_endproc
 352              	.LFE7:
 353              		.size	I2CM_SCB_IRQ_GetPriority, .-I2CM_SCB_IRQ_GetPriority
 354              		.section	.text.I2CM_SCB_IRQ_Enable,"ax",%progbits
 355              		.align	2
 356              		.global	I2CM_SCB_IRQ_Enable
 357              		.code	16
 358              		.thumb_func
 359              		.type	I2CM_SCB_IRQ_Enable, %function
 360              	I2CM_SCB_IRQ_Enable:
 361              	.LFB8:
 242:.\Generated_Source\PSoC4/I2CM_SCB_IRQ.c **** 
 243:.\Generated_Source\PSoC4/I2CM_SCB_IRQ.c **** 
 244:.\Generated_Source\PSoC4/I2CM_SCB_IRQ.c **** /*******************************************************************************
 245:.\Generated_Source\PSoC4/I2CM_SCB_IRQ.c **** * Function Name: I2CM_SCB_IRQ_Enable
 246:.\Generated_Source\PSoC4/I2CM_SCB_IRQ.c **** ********************************************************************************
 247:.\Generated_Source\PSoC4/I2CM_SCB_IRQ.c **** *
 248:.\Generated_Source\PSoC4/I2CM_SCB_IRQ.c **** * Summary:
 249:.\Generated_Source\PSoC4/I2CM_SCB_IRQ.c **** *   Enables the interrupt.
 250:.\Generated_Source\PSoC4/I2CM_SCB_IRQ.c **** *
 251:.\Generated_Source\PSoC4/I2CM_SCB_IRQ.c **** * Parameters:
 252:.\Generated_Source\PSoC4/I2CM_SCB_IRQ.c **** *   None
 253:.\Generated_Source\PSoC4/I2CM_SCB_IRQ.c **** *
 254:.\Generated_Source\PSoC4/I2CM_SCB_IRQ.c **** * Return:
 255:.\Generated_Source\PSoC4/I2CM_SCB_IRQ.c **** *   None
 256:.\Generated_Source\PSoC4/I2CM_SCB_IRQ.c **** *
 257:.\Generated_Source\PSoC4/I2CM_SCB_IRQ.c **** *******************************************************************************/
 258:.\Generated_Source\PSoC4/I2CM_SCB_IRQ.c **** void I2CM_SCB_IRQ_Enable(void)
 259:.\Generated_Source\PSoC4/I2CM_SCB_IRQ.c **** {
 362              		.loc 1 259 0
 363              		.cfi_startproc
 364 0000 80B5     		push	{r7, lr}
ARM GAS  C:\Users\srvs\AppData\Local\Temp\cctSUBnk.s 			page 12


 365              	.LCFI20:
 366              		.cfi_def_cfa_offset 8
 367              		.cfi_offset 7, -8
 368              		.cfi_offset 14, -4
 369 0002 00AF     		add	r7, sp, #0
 370              	.LCFI21:
 371              		.cfi_def_cfa_register 7
 260:.\Generated_Source\PSoC4/I2CM_SCB_IRQ.c ****     /* Enable the general interrupt. */
 261:.\Generated_Source\PSoC4/I2CM_SCB_IRQ.c ****     *I2CM_SCB_IRQ_INTC_SET_EN = I2CM_SCB_IRQ__INTC_MASK;
 372              		.loc 1 261 0
 373 0004 024A     		ldr	r2, .L31
 374 0006 8023     		mov	r3, #128
 375 0008 1B01     		lsl	r3, r3, #4
 376 000a 1360     		str	r3, [r2]
 262:.\Generated_Source\PSoC4/I2CM_SCB_IRQ.c **** }
 377              		.loc 1 262 0
 378 000c BD46     		mov	sp, r7
 379              		@ sp needed for prologue
 380 000e 80BD     		pop	{r7, pc}
 381              	.L32:
 382              		.align	2
 383              	.L31:
 384 0010 00E100E0 		.word	-536813312
 385              		.cfi_endproc
 386              	.LFE8:
 387              		.size	I2CM_SCB_IRQ_Enable, .-I2CM_SCB_IRQ_Enable
 388              		.section	.text.I2CM_SCB_IRQ_GetState,"ax",%progbits
 389              		.align	2
 390              		.global	I2CM_SCB_IRQ_GetState
 391              		.code	16
 392              		.thumb_func
 393              		.type	I2CM_SCB_IRQ_GetState, %function
 394              	I2CM_SCB_IRQ_GetState:
 395              	.LFB9:
 263:.\Generated_Source\PSoC4/I2CM_SCB_IRQ.c **** 
 264:.\Generated_Source\PSoC4/I2CM_SCB_IRQ.c **** 
 265:.\Generated_Source\PSoC4/I2CM_SCB_IRQ.c **** /*******************************************************************************
 266:.\Generated_Source\PSoC4/I2CM_SCB_IRQ.c **** * Function Name: I2CM_SCB_IRQ_GetState
 267:.\Generated_Source\PSoC4/I2CM_SCB_IRQ.c **** ********************************************************************************
 268:.\Generated_Source\PSoC4/I2CM_SCB_IRQ.c **** *
 269:.\Generated_Source\PSoC4/I2CM_SCB_IRQ.c **** * Summary:
 270:.\Generated_Source\PSoC4/I2CM_SCB_IRQ.c **** *   Gets the state (enabled, disabled) of the Interrupt.
 271:.\Generated_Source\PSoC4/I2CM_SCB_IRQ.c **** *
 272:.\Generated_Source\PSoC4/I2CM_SCB_IRQ.c **** * Parameters:
 273:.\Generated_Source\PSoC4/I2CM_SCB_IRQ.c **** *   None
 274:.\Generated_Source\PSoC4/I2CM_SCB_IRQ.c **** *
 275:.\Generated_Source\PSoC4/I2CM_SCB_IRQ.c **** * Return:
 276:.\Generated_Source\PSoC4/I2CM_SCB_IRQ.c **** *   1 if enabled, 0 if disabled.
 277:.\Generated_Source\PSoC4/I2CM_SCB_IRQ.c **** *
 278:.\Generated_Source\PSoC4/I2CM_SCB_IRQ.c **** *******************************************************************************/
 279:.\Generated_Source\PSoC4/I2CM_SCB_IRQ.c **** uint8 I2CM_SCB_IRQ_GetState(void)
 280:.\Generated_Source\PSoC4/I2CM_SCB_IRQ.c **** {
 396              		.loc 1 280 0
 397              		.cfi_startproc
 398 0000 80B5     		push	{r7, lr}
 399              	.LCFI22:
 400              		.cfi_def_cfa_offset 8
ARM GAS  C:\Users\srvs\AppData\Local\Temp\cctSUBnk.s 			page 13


 401              		.cfi_offset 7, -8
 402              		.cfi_offset 14, -4
 403 0002 00AF     		add	r7, sp, #0
 404              	.LCFI23:
 405              		.cfi_def_cfa_register 7
 281:.\Generated_Source\PSoC4/I2CM_SCB_IRQ.c ****     /* Get the state of the general interrupt. */
 282:.\Generated_Source\PSoC4/I2CM_SCB_IRQ.c ****     return ((*I2CM_SCB_IRQ_INTC_SET_EN & (uint32)I2CM_SCB_IRQ__INTC_MASK) != 0u) ? 1u:0u;
 406              		.loc 1 282 0
 407 0004 064B     		ldr	r3, .L37
 408 0006 1A68     		ldr	r2, [r3]
 409 0008 8023     		mov	r3, #128
 410 000a 1B01     		lsl	r3, r3, #4
 411 000c 1340     		and	r3, r3, r2
 412 000e 002B     		cmp	r3, #0
 413 0010 01D0     		beq	.L34
 414 0012 0123     		mov	r3, #1
 415 0014 00E0     		b	.L35
 416              	.L34:
 417 0016 0023     		mov	r3, #0
 418              	.L35:
 283:.\Generated_Source\PSoC4/I2CM_SCB_IRQ.c **** }
 419              		.loc 1 283 0
 420 0018 181C     		mov	r0, r3
 421 001a BD46     		mov	sp, r7
 422              		@ sp needed for prologue
 423 001c 80BD     		pop	{r7, pc}
 424              	.L38:
 425 001e C046     		.align	2
 426              	.L37:
 427 0020 00E100E0 		.word	-536813312
 428              		.cfi_endproc
 429              	.LFE9:
 430              		.size	I2CM_SCB_IRQ_GetState, .-I2CM_SCB_IRQ_GetState
 431              		.section	.text.I2CM_SCB_IRQ_Disable,"ax",%progbits
 432              		.align	2
 433              		.global	I2CM_SCB_IRQ_Disable
 434              		.code	16
 435              		.thumb_func
 436              		.type	I2CM_SCB_IRQ_Disable, %function
 437              	I2CM_SCB_IRQ_Disable:
 438              	.LFB10:
 284:.\Generated_Source\PSoC4/I2CM_SCB_IRQ.c **** 
 285:.\Generated_Source\PSoC4/I2CM_SCB_IRQ.c **** 
 286:.\Generated_Source\PSoC4/I2CM_SCB_IRQ.c **** /*******************************************************************************
 287:.\Generated_Source\PSoC4/I2CM_SCB_IRQ.c **** * Function Name: I2CM_SCB_IRQ_Disable
 288:.\Generated_Source\PSoC4/I2CM_SCB_IRQ.c **** ********************************************************************************
 289:.\Generated_Source\PSoC4/I2CM_SCB_IRQ.c **** *
 290:.\Generated_Source\PSoC4/I2CM_SCB_IRQ.c **** * Summary:
 291:.\Generated_Source\PSoC4/I2CM_SCB_IRQ.c **** *   Disables the Interrupt.
 292:.\Generated_Source\PSoC4/I2CM_SCB_IRQ.c **** *
 293:.\Generated_Source\PSoC4/I2CM_SCB_IRQ.c **** * Parameters:
 294:.\Generated_Source\PSoC4/I2CM_SCB_IRQ.c **** *   None
 295:.\Generated_Source\PSoC4/I2CM_SCB_IRQ.c **** *
 296:.\Generated_Source\PSoC4/I2CM_SCB_IRQ.c **** * Return:
 297:.\Generated_Source\PSoC4/I2CM_SCB_IRQ.c **** *   None
 298:.\Generated_Source\PSoC4/I2CM_SCB_IRQ.c **** *
 299:.\Generated_Source\PSoC4/I2CM_SCB_IRQ.c **** *******************************************************************************/
ARM GAS  C:\Users\srvs\AppData\Local\Temp\cctSUBnk.s 			page 14


 300:.\Generated_Source\PSoC4/I2CM_SCB_IRQ.c **** void I2CM_SCB_IRQ_Disable(void)
 301:.\Generated_Source\PSoC4/I2CM_SCB_IRQ.c **** {
 439              		.loc 1 301 0
 440              		.cfi_startproc
 441 0000 80B5     		push	{r7, lr}
 442              	.LCFI24:
 443              		.cfi_def_cfa_offset 8
 444              		.cfi_offset 7, -8
 445              		.cfi_offset 14, -4
 446 0002 00AF     		add	r7, sp, #0
 447              	.LCFI25:
 448              		.cfi_def_cfa_register 7
 302:.\Generated_Source\PSoC4/I2CM_SCB_IRQ.c ****     /* Disable the general interrupt. */
 303:.\Generated_Source\PSoC4/I2CM_SCB_IRQ.c ****     *I2CM_SCB_IRQ_INTC_CLR_EN = I2CM_SCB_IRQ__INTC_MASK;
 449              		.loc 1 303 0
 450 0004 024A     		ldr	r2, .L41
 451 0006 8023     		mov	r3, #128
 452 0008 1B01     		lsl	r3, r3, #4
 453 000a 1360     		str	r3, [r2]
 304:.\Generated_Source\PSoC4/I2CM_SCB_IRQ.c **** }
 454              		.loc 1 304 0
 455 000c BD46     		mov	sp, r7
 456              		@ sp needed for prologue
 457 000e 80BD     		pop	{r7, pc}
 458              	.L42:
 459              		.align	2
 460              	.L41:
 461 0010 80E100E0 		.word	-536813184
 462              		.cfi_endproc
 463              	.LFE10:
 464              		.size	I2CM_SCB_IRQ_Disable, .-I2CM_SCB_IRQ_Disable
 465              		.section	.text.I2CM_SCB_IRQ_SetPending,"ax",%progbits
 466              		.align	2
 467              		.global	I2CM_SCB_IRQ_SetPending
 468              		.code	16
 469              		.thumb_func
 470              		.type	I2CM_SCB_IRQ_SetPending, %function
 471              	I2CM_SCB_IRQ_SetPending:
 472              	.LFB11:
 305:.\Generated_Source\PSoC4/I2CM_SCB_IRQ.c **** 
 306:.\Generated_Source\PSoC4/I2CM_SCB_IRQ.c **** 
 307:.\Generated_Source\PSoC4/I2CM_SCB_IRQ.c **** /*******************************************************************************
 308:.\Generated_Source\PSoC4/I2CM_SCB_IRQ.c **** * Function Name: I2CM_SCB_IRQ_SetPending
 309:.\Generated_Source\PSoC4/I2CM_SCB_IRQ.c **** ********************************************************************************
 310:.\Generated_Source\PSoC4/I2CM_SCB_IRQ.c **** *
 311:.\Generated_Source\PSoC4/I2CM_SCB_IRQ.c **** * Summary:
 312:.\Generated_Source\PSoC4/I2CM_SCB_IRQ.c **** *   Causes the Interrupt to enter the pending state, a software method of
 313:.\Generated_Source\PSoC4/I2CM_SCB_IRQ.c **** *   generating the interrupt.
 314:.\Generated_Source\PSoC4/I2CM_SCB_IRQ.c **** *
 315:.\Generated_Source\PSoC4/I2CM_SCB_IRQ.c **** * Parameters:
 316:.\Generated_Source\PSoC4/I2CM_SCB_IRQ.c **** *   None
 317:.\Generated_Source\PSoC4/I2CM_SCB_IRQ.c **** *
 318:.\Generated_Source\PSoC4/I2CM_SCB_IRQ.c **** * Return:
 319:.\Generated_Source\PSoC4/I2CM_SCB_IRQ.c **** *   None
 320:.\Generated_Source\PSoC4/I2CM_SCB_IRQ.c **** *
 321:.\Generated_Source\PSoC4/I2CM_SCB_IRQ.c **** *******************************************************************************/
 322:.\Generated_Source\PSoC4/I2CM_SCB_IRQ.c **** void I2CM_SCB_IRQ_SetPending(void)
ARM GAS  C:\Users\srvs\AppData\Local\Temp\cctSUBnk.s 			page 15


 323:.\Generated_Source\PSoC4/I2CM_SCB_IRQ.c **** {
 473              		.loc 1 323 0
 474              		.cfi_startproc
 475 0000 80B5     		push	{r7, lr}
 476              	.LCFI26:
 477              		.cfi_def_cfa_offset 8
 478              		.cfi_offset 7, -8
 479              		.cfi_offset 14, -4
 480 0002 00AF     		add	r7, sp, #0
 481              	.LCFI27:
 482              		.cfi_def_cfa_register 7
 324:.\Generated_Source\PSoC4/I2CM_SCB_IRQ.c ****     *I2CM_SCB_IRQ_INTC_SET_PD = I2CM_SCB_IRQ__INTC_MASK;
 483              		.loc 1 324 0
 484 0004 024A     		ldr	r2, .L45
 485 0006 8023     		mov	r3, #128
 486 0008 1B01     		lsl	r3, r3, #4
 487 000a 1360     		str	r3, [r2]
 325:.\Generated_Source\PSoC4/I2CM_SCB_IRQ.c **** }
 488              		.loc 1 325 0
 489 000c BD46     		mov	sp, r7
 490              		@ sp needed for prologue
 491 000e 80BD     		pop	{r7, pc}
 492              	.L46:
 493              		.align	2
 494              	.L45:
 495 0010 00E200E0 		.word	-536813056
 496              		.cfi_endproc
 497              	.LFE11:
 498              		.size	I2CM_SCB_IRQ_SetPending, .-I2CM_SCB_IRQ_SetPending
 499              		.section	.text.I2CM_SCB_IRQ_ClearPending,"ax",%progbits
 500              		.align	2
 501              		.global	I2CM_SCB_IRQ_ClearPending
 502              		.code	16
 503              		.thumb_func
 504              		.type	I2CM_SCB_IRQ_ClearPending, %function
 505              	I2CM_SCB_IRQ_ClearPending:
 506              	.LFB12:
 326:.\Generated_Source\PSoC4/I2CM_SCB_IRQ.c **** 
 327:.\Generated_Source\PSoC4/I2CM_SCB_IRQ.c **** 
 328:.\Generated_Source\PSoC4/I2CM_SCB_IRQ.c **** /*******************************************************************************
 329:.\Generated_Source\PSoC4/I2CM_SCB_IRQ.c **** * Function Name: I2CM_SCB_IRQ_ClearPending
 330:.\Generated_Source\PSoC4/I2CM_SCB_IRQ.c **** ********************************************************************************
 331:.\Generated_Source\PSoC4/I2CM_SCB_IRQ.c **** *
 332:.\Generated_Source\PSoC4/I2CM_SCB_IRQ.c **** * Summary:
 333:.\Generated_Source\PSoC4/I2CM_SCB_IRQ.c **** *   Clears a pending interrupt.
 334:.\Generated_Source\PSoC4/I2CM_SCB_IRQ.c **** *
 335:.\Generated_Source\PSoC4/I2CM_SCB_IRQ.c **** * Parameters:
 336:.\Generated_Source\PSoC4/I2CM_SCB_IRQ.c **** *   None
 337:.\Generated_Source\PSoC4/I2CM_SCB_IRQ.c **** *
 338:.\Generated_Source\PSoC4/I2CM_SCB_IRQ.c **** * Return:
 339:.\Generated_Source\PSoC4/I2CM_SCB_IRQ.c **** *   None
 340:.\Generated_Source\PSoC4/I2CM_SCB_IRQ.c **** *
 341:.\Generated_Source\PSoC4/I2CM_SCB_IRQ.c **** *******************************************************************************/
 342:.\Generated_Source\PSoC4/I2CM_SCB_IRQ.c **** void I2CM_SCB_IRQ_ClearPending(void)
 343:.\Generated_Source\PSoC4/I2CM_SCB_IRQ.c **** {
 507              		.loc 1 343 0
 508              		.cfi_startproc
ARM GAS  C:\Users\srvs\AppData\Local\Temp\cctSUBnk.s 			page 16


 509 0000 80B5     		push	{r7, lr}
 510              	.LCFI28:
 511              		.cfi_def_cfa_offset 8
 512              		.cfi_offset 7, -8
 513              		.cfi_offset 14, -4
 514 0002 00AF     		add	r7, sp, #0
 515              	.LCFI29:
 516              		.cfi_def_cfa_register 7
 344:.\Generated_Source\PSoC4/I2CM_SCB_IRQ.c ****     *I2CM_SCB_IRQ_INTC_CLR_PD = I2CM_SCB_IRQ__INTC_MASK;
 517              		.loc 1 344 0
 518 0004 024A     		ldr	r2, .L49
 519 0006 8023     		mov	r3, #128
 520 0008 1B01     		lsl	r3, r3, #4
 521 000a 1360     		str	r3, [r2]
 345:.\Generated_Source\PSoC4/I2CM_SCB_IRQ.c **** }
 522              		.loc 1 345 0
 523 000c BD46     		mov	sp, r7
 524              		@ sp needed for prologue
 525 000e 80BD     		pop	{r7, pc}
 526              	.L50:
 527              		.align	2
 528              	.L49:
 529 0010 80E200E0 		.word	-536812928
 530              		.cfi_endproc
 531              	.LFE12:
 532              		.size	I2CM_SCB_IRQ_ClearPending, .-I2CM_SCB_IRQ_ClearPending
 533              		.text
 534              	.Letext0: