ARM GAS  C:\Users\srvs\AppData\Local\Temp\ccP7lwem.s 			page 1


   1              		.cpu cortex-m0
   2              		.fpu softvfp
   3              		.eabi_attribute 20, 1
   4              		.eabi_attribute 21, 1
   5              		.eabi_attribute 23, 3
   6              		.eabi_attribute 24, 1
   7              		.eabi_attribute 25, 1
   8              		.eabi_attribute 26, 1
   9              		.eabi_attribute 30, 6
  10              		.eabi_attribute 18, 4
  11              		.code	16
  12              		.file	"I2CM.c"
  19 0000 D8000000 		.text
  19      02005D00 
  19      00000201 
  19      FB0E0D00 
  19      01010101 
  20              	.Ltext0:
  21              		.cfi_sections	.debug_frame
  22              		.global	I2CM_initVar
  23              		.bss
  24              		.type	I2CM_initVar, %object
  25              		.size	I2CM_initVar, 1
  26              	I2CM_initVar:
  27 0000 00       		.space	1
  28              		.global	I2CM_customIntrHandler
  29 0001 000000   		.align	2
  30              		.type	I2CM_customIntrHandler, %object
  31              		.size	I2CM_customIntrHandler, 4
  32              	I2CM_customIntrHandler:
  33 0004 00000000 		.space	4
  34              		.section	.text.I2CM_Init,"ax",%progbits
  35              		.align	2
  36              		.global	I2CM_Init
  37              		.code	16
  38              		.thumb_func
  39              		.type	I2CM_Init, %function
  40              	I2CM_Init:
  41              	.LFB0:
  42              		.file 1 ".\\Generated_Source\\PSoC4\\I2CM.c"
   1:.\Generated_Source\PSoC4/I2CM.c **** /*******************************************************************************
   2:.\Generated_Source\PSoC4/I2CM.c **** * File Name: I2CM.c
   3:.\Generated_Source\PSoC4/I2CM.c **** * Version 1.0
   4:.\Generated_Source\PSoC4/I2CM.c **** *
   5:.\Generated_Source\PSoC4/I2CM.c **** * Description:
   6:.\Generated_Source\PSoC4/I2CM.c **** *  This file provides the source code to the API for the SCB Component.
   7:.\Generated_Source\PSoC4/I2CM.c **** *
   8:.\Generated_Source\PSoC4/I2CM.c **** * Note:
   9:.\Generated_Source\PSoC4/I2CM.c **** *
  10:.\Generated_Source\PSoC4/I2CM.c **** *******************************************************************************
  11:.\Generated_Source\PSoC4/I2CM.c **** * Copyright 2013, Cypress Semiconductor Corporation.  All rights reserved.
ARM GAS  C:\Users\srvs\AppData\Local\Temp\ccP7lwem.s 			page 2


  12:.\Generated_Source\PSoC4/I2CM.c **** * You may use this file only in accordance with the license, terms, conditions,
  13:.\Generated_Source\PSoC4/I2CM.c **** * disclaimers, and limitations in the end user license agreement accompanying
  14:.\Generated_Source\PSoC4/I2CM.c **** * the software package with which this file was provided.
  15:.\Generated_Source\PSoC4/I2CM.c **** *******************************************************************************/
  16:.\Generated_Source\PSoC4/I2CM.c **** 
  17:.\Generated_Source\PSoC4/I2CM.c **** #include "I2CM_PVT.h"
  18:.\Generated_Source\PSoC4/I2CM.c **** 
  19:.\Generated_Source\PSoC4/I2CM.c **** #if(I2CM_SCB_MODE_I2C_INC)
  20:.\Generated_Source\PSoC4/I2CM.c ****     #include "I2CM_I2C_PVT.h"
  21:.\Generated_Source\PSoC4/I2CM.c **** #endif /* (I2CM_SCB_MODE_I2C_INC) */
  22:.\Generated_Source\PSoC4/I2CM.c **** 
  23:.\Generated_Source\PSoC4/I2CM.c **** #if(I2CM_SCB_MODE_SPI_INC || I2CM_SCB_MODE_UART_INC)
  24:.\Generated_Source\PSoC4/I2CM.c ****     #include "I2CM_SPI_UART_PVT.h"
  25:.\Generated_Source\PSoC4/I2CM.c **** #endif /* (I2CM_SCB_MODE_SPI_INC || I2CM_SCB_MODE_UART_INC) */
  26:.\Generated_Source\PSoC4/I2CM.c **** 
  27:.\Generated_Source\PSoC4/I2CM.c **** 
  28:.\Generated_Source\PSoC4/I2CM.c **** /**********************************
  29:.\Generated_Source\PSoC4/I2CM.c **** *    Run Time Configuration Vars
  30:.\Generated_Source\PSoC4/I2CM.c **** **********************************/
  31:.\Generated_Source\PSoC4/I2CM.c **** 
  32:.\Generated_Source\PSoC4/I2CM.c **** /* Stores internal component configuration for unconfigured mode */
  33:.\Generated_Source\PSoC4/I2CM.c **** #if(I2CM_SCB_MODE_UNCONFIG_CONST_CFG)
  34:.\Generated_Source\PSoC4/I2CM.c ****     /* Common config vars */
  35:.\Generated_Source\PSoC4/I2CM.c ****     volatile uint8 I2CM_scbMode = I2CM_SCB_MODE_UNCONFIG;
  36:.\Generated_Source\PSoC4/I2CM.c ****     volatile uint8 I2CM_scbEnableWake;
  37:.\Generated_Source\PSoC4/I2CM.c **** 
  38:.\Generated_Source\PSoC4/I2CM.c ****     /* I2C config vars */
  39:.\Generated_Source\PSoC4/I2CM.c ****     volatile uint8 I2CM_mode;
  40:.\Generated_Source\PSoC4/I2CM.c ****     volatile uint8 I2CM_acceptAddr;
  41:.\Generated_Source\PSoC4/I2CM.c **** 
  42:.\Generated_Source\PSoC4/I2CM.c ****     /* SPI/UART config vars */
  43:.\Generated_Source\PSoC4/I2CM.c ****     volatile uint8 * I2CM_rxBuffer;
  44:.\Generated_Source\PSoC4/I2CM.c ****     volatile uint8   I2CM_rxDataBits;
  45:.\Generated_Source\PSoC4/I2CM.c ****     volatile uint32  I2CM_rxBufferSize;
  46:.\Generated_Source\PSoC4/I2CM.c **** 
  47:.\Generated_Source\PSoC4/I2CM.c ****     volatile uint8 * I2CM_txBuffer;
  48:.\Generated_Source\PSoC4/I2CM.c ****     volatile uint8   I2CM_txDataBits;
  49:.\Generated_Source\PSoC4/I2CM.c ****     volatile uint32  I2CM_txBufferSize;
  50:.\Generated_Source\PSoC4/I2CM.c **** 
  51:.\Generated_Source\PSoC4/I2CM.c **** #endif /* (I2CM_SCB_MODE_UNCONFIG_CONST_CFG) */
  52:.\Generated_Source\PSoC4/I2CM.c **** 
  53:.\Generated_Source\PSoC4/I2CM.c **** 
  54:.\Generated_Source\PSoC4/I2CM.c **** /**********************************
  55:.\Generated_Source\PSoC4/I2CM.c **** *     Common SCB Vars
  56:.\Generated_Source\PSoC4/I2CM.c **** **********************************/
  57:.\Generated_Source\PSoC4/I2CM.c **** 
  58:.\Generated_Source\PSoC4/I2CM.c **** uint8 I2CM_initVar = 0u;
  59:.\Generated_Source\PSoC4/I2CM.c **** cyisraddress I2CM_customIntrHandler = NULL;
  60:.\Generated_Source\PSoC4/I2CM.c **** 
  61:.\Generated_Source\PSoC4/I2CM.c **** 
  62:.\Generated_Source\PSoC4/I2CM.c **** /***************************************
  63:.\Generated_Source\PSoC4/I2CM.c **** *    Private Function Prototypes
  64:.\Generated_Source\PSoC4/I2CM.c **** ***************************************/
  65:.\Generated_Source\PSoC4/I2CM.c **** 
  66:.\Generated_Source\PSoC4/I2CM.c **** static void I2CM_ScbModeStop(void);
  67:.\Generated_Source\PSoC4/I2CM.c **** 
  68:.\Generated_Source\PSoC4/I2CM.c **** 
ARM GAS  C:\Users\srvs\AppData\Local\Temp\ccP7lwem.s 			page 3


  69:.\Generated_Source\PSoC4/I2CM.c **** /*******************************************************************************
  70:.\Generated_Source\PSoC4/I2CM.c **** * Function Name: I2CM_Init
  71:.\Generated_Source\PSoC4/I2CM.c **** ********************************************************************************
  72:.\Generated_Source\PSoC4/I2CM.c **** *
  73:.\Generated_Source\PSoC4/I2CM.c **** * Summary:
  74:.\Generated_Source\PSoC4/I2CM.c **** *  Initializes SCB component to operate in one of selected configurations:
  75:.\Generated_Source\PSoC4/I2CM.c **** *  I2C, SPI, UART, EZI2C or EZSPI.
  76:.\Generated_Source\PSoC4/I2CM.c **** *  This function does not do any initialization when configuration is set to
  77:.\Generated_Source\PSoC4/I2CM.c **** *  Unconfigured SCB.
  78:.\Generated_Source\PSoC4/I2CM.c **** *
  79:.\Generated_Source\PSoC4/I2CM.c **** * Parameters:
  80:.\Generated_Source\PSoC4/I2CM.c **** *  None
  81:.\Generated_Source\PSoC4/I2CM.c **** *
  82:.\Generated_Source\PSoC4/I2CM.c **** * Return:
  83:.\Generated_Source\PSoC4/I2CM.c **** *  None
  84:.\Generated_Source\PSoC4/I2CM.c **** *
  85:.\Generated_Source\PSoC4/I2CM.c **** *******************************************************************************/
  86:.\Generated_Source\PSoC4/I2CM.c **** void I2CM_Init(void)
  87:.\Generated_Source\PSoC4/I2CM.c **** {
  43              		.loc 1 87 0
  44              		.cfi_startproc
  45 0000 80B5     		push	{r7, lr}
  46              	.LCFI0:
  47              		.cfi_def_cfa_offset 8
  48              		.cfi_offset 7, -8
  49              		.cfi_offset 14, -4
  50 0002 00AF     		add	r7, sp, #0
  51              	.LCFI1:
  52              		.cfi_def_cfa_register 7
  88:.\Generated_Source\PSoC4/I2CM.c ****     #if(I2CM_SCB_MODE_UNCONFIG_CONST_CFG)
  89:.\Generated_Source\PSoC4/I2CM.c ****         if(I2CM_SCB_MODE_UNCONFIG_RUNTM_CFG)
  90:.\Generated_Source\PSoC4/I2CM.c ****         {
  91:.\Generated_Source\PSoC4/I2CM.c ****             I2CM_initVar = 0u; /* Clear init var */
  92:.\Generated_Source\PSoC4/I2CM.c ****         }
  93:.\Generated_Source\PSoC4/I2CM.c ****         else
  94:.\Generated_Source\PSoC4/I2CM.c ****         {
  95:.\Generated_Source\PSoC4/I2CM.c ****             /* Initialization was done before call */
  96:.\Generated_Source\PSoC4/I2CM.c ****         }
  97:.\Generated_Source\PSoC4/I2CM.c **** 
  98:.\Generated_Source\PSoC4/I2CM.c ****     #elif(I2CM_SCB_MODE_I2C_CONST_CFG)
  99:.\Generated_Source\PSoC4/I2CM.c ****         I2CM_I2CInit();
  53              		.loc 1 99 0
  54 0004 FFF7FEFF 		bl	I2CM_I2CInit
 100:.\Generated_Source\PSoC4/I2CM.c **** 
 101:.\Generated_Source\PSoC4/I2CM.c ****     #elif(I2CM_SCB_MODE_SPI_CONST_CFG)
 102:.\Generated_Source\PSoC4/I2CM.c ****         I2CM_SpiInit();
 103:.\Generated_Source\PSoC4/I2CM.c **** 
 104:.\Generated_Source\PSoC4/I2CM.c ****     #elif(I2CM_SCB_MODE_UART_CONST_CFG)
 105:.\Generated_Source\PSoC4/I2CM.c ****         I2CM_UartInit();
 106:.\Generated_Source\PSoC4/I2CM.c **** 
 107:.\Generated_Source\PSoC4/I2CM.c ****     #else
 108:.\Generated_Source\PSoC4/I2CM.c **** 
 109:.\Generated_Source\PSoC4/I2CM.c ****     #endif /* (I2CM_SCB_MODE_UNCONFIG_CONST_CFG) */
 110:.\Generated_Source\PSoC4/I2CM.c **** }
  55              		.loc 1 110 0
  56 0008 BD46     		mov	sp, r7
  57              		@ sp needed for prologue
ARM GAS  C:\Users\srvs\AppData\Local\Temp\ccP7lwem.s 			page 4


  58 000a 80BD     		pop	{r7, pc}
  59              		.cfi_endproc
  60              	.LFE0:
  61              		.size	I2CM_Init, .-I2CM_Init
  62              		.section	.text.I2CM_Enable,"ax",%progbits
  63              		.align	2
  64              		.global	I2CM_Enable
  65              		.code	16
  66              		.thumb_func
  67              		.type	I2CM_Enable, %function
  68              	I2CM_Enable:
  69              	.LFB1:
 111:.\Generated_Source\PSoC4/I2CM.c **** 
 112:.\Generated_Source\PSoC4/I2CM.c **** 
 113:.\Generated_Source\PSoC4/I2CM.c **** /*******************************************************************************
 114:.\Generated_Source\PSoC4/I2CM.c **** * Function Name: I2CM_Enable
 115:.\Generated_Source\PSoC4/I2CM.c **** ********************************************************************************
 116:.\Generated_Source\PSoC4/I2CM.c **** *
 117:.\Generated_Source\PSoC4/I2CM.c **** * Summary:
 118:.\Generated_Source\PSoC4/I2CM.c **** *  Enables SCB component operation.
 119:.\Generated_Source\PSoC4/I2CM.c **** *  The SCB configuration should be not changed when the component is enabled.
 120:.\Generated_Source\PSoC4/I2CM.c **** *  Any configuration changes should be made after disabling the component.
 121:.\Generated_Source\PSoC4/I2CM.c **** *
 122:.\Generated_Source\PSoC4/I2CM.c **** * Parameters:
 123:.\Generated_Source\PSoC4/I2CM.c **** *  None
 124:.\Generated_Source\PSoC4/I2CM.c **** *
 125:.\Generated_Source\PSoC4/I2CM.c **** * Return:
 126:.\Generated_Source\PSoC4/I2CM.c **** *  None
 127:.\Generated_Source\PSoC4/I2CM.c **** *
 128:.\Generated_Source\PSoC4/I2CM.c **** *******************************************************************************/
 129:.\Generated_Source\PSoC4/I2CM.c **** void I2CM_Enable(void)
 130:.\Generated_Source\PSoC4/I2CM.c **** {
  70              		.loc 1 130 0
  71              		.cfi_startproc
  72 0000 80B5     		push	{r7, lr}
  73              	.LCFI2:
  74              		.cfi_def_cfa_offset 8
  75              		.cfi_offset 7, -8
  76              		.cfi_offset 14, -4
  77 0002 00AF     		add	r7, sp, #0
  78              	.LCFI3:
  79              		.cfi_def_cfa_register 7
 131:.\Generated_Source\PSoC4/I2CM.c ****     #if(I2CM_SCB_MODE_UNCONFIG_CONST_CFG)
 132:.\Generated_Source\PSoC4/I2CM.c ****         if(!I2CM_SCB_MODE_UNCONFIG_RUNTM_CFG)
 133:.\Generated_Source\PSoC4/I2CM.c ****         {
 134:.\Generated_Source\PSoC4/I2CM.c ****             /* Enable SCB block, only if already configured */
 135:.\Generated_Source\PSoC4/I2CM.c ****             I2CM_CTRL_REG |= I2CM_CTRL_ENABLED;
 136:.\Generated_Source\PSoC4/I2CM.c ****         }
 137:.\Generated_Source\PSoC4/I2CM.c ****     #else
 138:.\Generated_Source\PSoC4/I2CM.c ****         I2CM_CTRL_REG |= I2CM_CTRL_ENABLED; /* Enable SCB block */
  80              		.loc 1 138 0
  81 0004 044A     		ldr	r2, .L5
  82 0006 044B     		ldr	r3, .L5
  83 0008 1968     		ldr	r1, [r3]
  84 000a 8023     		mov	r3, #128
  85 000c 1B06     		lsl	r3, r3, #24
  86 000e 0B43     		orr	r3, r3, r1
ARM GAS  C:\Users\srvs\AppData\Local\Temp\ccP7lwem.s 			page 5


  87 0010 1360     		str	r3, [r2]
 139:.\Generated_Source\PSoC4/I2CM.c ****     #endif /* (I2CM_SCB_MODE_UNCONFIG_CONST_CFG) */
 140:.\Generated_Source\PSoC4/I2CM.c **** }
  88              		.loc 1 140 0
  89 0012 BD46     		mov	sp, r7
  90              		@ sp needed for prologue
  91 0014 80BD     		pop	{r7, pc}
  92              	.L6:
  93 0016 C046     		.align	2
  94              	.L5:
  95 0018 00000740 		.word	1074200576
  96              		.cfi_endproc
  97              	.LFE1:
  98              		.size	I2CM_Enable, .-I2CM_Enable
  99              		.section	.text.I2CM_Start,"ax",%progbits
 100              		.align	2
 101              		.global	I2CM_Start
 102              		.code	16
 103              		.thumb_func
 104              		.type	I2CM_Start, %function
 105              	I2CM_Start:
 106              	.LFB2:
 141:.\Generated_Source\PSoC4/I2CM.c **** 
 142:.\Generated_Source\PSoC4/I2CM.c **** 
 143:.\Generated_Source\PSoC4/I2CM.c **** /*******************************************************************************
 144:.\Generated_Source\PSoC4/I2CM.c **** * Function Name: I2CM_Start
 145:.\Generated_Source\PSoC4/I2CM.c **** ********************************************************************************
 146:.\Generated_Source\PSoC4/I2CM.c **** *
 147:.\Generated_Source\PSoC4/I2CM.c **** * Summary:
 148:.\Generated_Source\PSoC4/I2CM.c **** *  Invokes SCB_Init() and SCB_Enable().
 149:.\Generated_Source\PSoC4/I2CM.c **** *  After this function call the component is enabled and ready for operation.
 150:.\Generated_Source\PSoC4/I2CM.c **** *
 151:.\Generated_Source\PSoC4/I2CM.c **** * Parameters:
 152:.\Generated_Source\PSoC4/I2CM.c **** *  None
 153:.\Generated_Source\PSoC4/I2CM.c **** *
 154:.\Generated_Source\PSoC4/I2CM.c **** * Return:
 155:.\Generated_Source\PSoC4/I2CM.c **** *  None
 156:.\Generated_Source\PSoC4/I2CM.c **** *
 157:.\Generated_Source\PSoC4/I2CM.c **** * Global variables:
 158:.\Generated_Source\PSoC4/I2CM.c **** *  I2CM_initVar - used to check initial configuration, modified
 159:.\Generated_Source\PSoC4/I2CM.c **** *  on first function call.
 160:.\Generated_Source\PSoC4/I2CM.c **** *
 161:.\Generated_Source\PSoC4/I2CM.c **** *******************************************************************************/
 162:.\Generated_Source\PSoC4/I2CM.c **** void I2CM_Start(void)
 163:.\Generated_Source\PSoC4/I2CM.c **** {
 107              		.loc 1 163 0
 108              		.cfi_startproc
 109 0000 80B5     		push	{r7, lr}
 110              	.LCFI4:
 111              		.cfi_def_cfa_offset 8
 112              		.cfi_offset 7, -8
 113              		.cfi_offset 14, -4
 114 0002 00AF     		add	r7, sp, #0
 115              	.LCFI5:
 116              		.cfi_def_cfa_register 7
 164:.\Generated_Source\PSoC4/I2CM.c ****     if(0u == I2CM_initVar)
 117              		.loc 1 164 0
ARM GAS  C:\Users\srvs\AppData\Local\Temp\ccP7lwem.s 			page 6


 118 0004 064B     		ldr	r3, .L10
 119 0006 1B78     		ldrb	r3, [r3]
 120 0008 002B     		cmp	r3, #0
 121 000a 04D1     		bne	.L8
 165:.\Generated_Source\PSoC4/I2CM.c ****     {
 166:.\Generated_Source\PSoC4/I2CM.c ****         I2CM_initVar = 1u; /* Component was initialized */
 122              		.loc 1 166 0
 123 000c 044B     		ldr	r3, .L10
 124 000e 0122     		mov	r2, #1
 125 0010 1A70     		strb	r2, [r3]
 167:.\Generated_Source\PSoC4/I2CM.c ****         I2CM_Init();       /* Initialize component      */
 126              		.loc 1 167 0
 127 0012 FFF7FEFF 		bl	I2CM_Init
 128              	.L8:
 168:.\Generated_Source\PSoC4/I2CM.c ****     }
 169:.\Generated_Source\PSoC4/I2CM.c **** 
 170:.\Generated_Source\PSoC4/I2CM.c ****     I2CM_Enable();
 129              		.loc 1 170 0
 130 0016 FFF7FEFF 		bl	I2CM_Enable
 171:.\Generated_Source\PSoC4/I2CM.c **** }
 131              		.loc 1 171 0
 132 001a BD46     		mov	sp, r7
 133              		@ sp needed for prologue
 134 001c 80BD     		pop	{r7, pc}
 135              	.L11:
 136 001e C046     		.align	2
 137              	.L10:
 138 0020 00000000 		.word	I2CM_initVar
 139              		.cfi_endproc
 140              	.LFE2:
 141              		.size	I2CM_Start, .-I2CM_Start
 142              		.section	.text.I2CM_Stop,"ax",%progbits
 143              		.align	2
 144              		.global	I2CM_Stop
 145              		.code	16
 146              		.thumb_func
 147              		.type	I2CM_Stop, %function
 148              	I2CM_Stop:
 149              	.LFB3:
 172:.\Generated_Source\PSoC4/I2CM.c **** 
 173:.\Generated_Source\PSoC4/I2CM.c **** 
 174:.\Generated_Source\PSoC4/I2CM.c **** /*******************************************************************************
 175:.\Generated_Source\PSoC4/I2CM.c **** * Function Name: I2CM_Stop
 176:.\Generated_Source\PSoC4/I2CM.c **** ********************************************************************************
 177:.\Generated_Source\PSoC4/I2CM.c **** *
 178:.\Generated_Source\PSoC4/I2CM.c **** * Summary:
 179:.\Generated_Source\PSoC4/I2CM.c **** *  Disables the SCB component.
 180:.\Generated_Source\PSoC4/I2CM.c **** *
 181:.\Generated_Source\PSoC4/I2CM.c **** * Parameters:
 182:.\Generated_Source\PSoC4/I2CM.c **** *  None
 183:.\Generated_Source\PSoC4/I2CM.c **** *
 184:.\Generated_Source\PSoC4/I2CM.c **** * Return:
 185:.\Generated_Source\PSoC4/I2CM.c **** *  None
 186:.\Generated_Source\PSoC4/I2CM.c **** *
 187:.\Generated_Source\PSoC4/I2CM.c **** *******************************************************************************/
 188:.\Generated_Source\PSoC4/I2CM.c **** void I2CM_Stop(void)
 189:.\Generated_Source\PSoC4/I2CM.c **** {
ARM GAS  C:\Users\srvs\AppData\Local\Temp\ccP7lwem.s 			page 7


 150              		.loc 1 189 0
 151              		.cfi_startproc
 152 0000 80B5     		push	{r7, lr}
 153              	.LCFI6:
 154              		.cfi_def_cfa_offset 8
 155              		.cfi_offset 7, -8
 156              		.cfi_offset 14, -4
 157 0002 00AF     		add	r7, sp, #0
 158              	.LCFI7:
 159              		.cfi_def_cfa_register 7
 190:.\Generated_Source\PSoC4/I2CM.c ****     I2CM_CTRL_REG &= (uint32) ~I2CM_CTRL_ENABLED;  /* Disable SCB block */
 160              		.loc 1 190 0
 161 0004 054B     		ldr	r3, .L14
 162 0006 054A     		ldr	r2, .L14
 163 0008 1268     		ldr	r2, [r2]
 164 000a 5200     		lsl	r2, r2, #1
 165 000c 5208     		lsr	r2, r2, #1
 166 000e 1A60     		str	r2, [r3]
 191:.\Generated_Source\PSoC4/I2CM.c **** 
 192:.\Generated_Source\PSoC4/I2CM.c ****     #if(I2CM_SCB_IRQ_INTERNAL)
 193:.\Generated_Source\PSoC4/I2CM.c ****         I2CM_SCB_IRQ_ClearPending(); /* Clear pending interrupt */
 167              		.loc 1 193 0
 168 0010 FFF7FEFF 		bl	I2CM_SCB_IRQ_ClearPending
 194:.\Generated_Source\PSoC4/I2CM.c ****     #endif /* (I2CM_SCB_IRQ_INTERNAL) */
 195:.\Generated_Source\PSoC4/I2CM.c **** 
 196:.\Generated_Source\PSoC4/I2CM.c ****     I2CM_ScbModeStop(); /* Calls scbMode specific Stop function */
 169              		.loc 1 196 0
 170 0014 FFF7FEFF 		bl	I2CM_ScbModeStop
 197:.\Generated_Source\PSoC4/I2CM.c **** }
 171              		.loc 1 197 0
 172 0018 BD46     		mov	sp, r7
 173              		@ sp needed for prologue
 174 001a 80BD     		pop	{r7, pc}
 175              	.L15:
 176              		.align	2
 177              	.L14:
 178 001c 00000740 		.word	1074200576
 179              		.cfi_endproc
 180              	.LFE3:
 181              		.size	I2CM_Stop, .-I2CM_Stop
 182              		.section	.text.I2CM_SetCustomInterruptHandler,"ax",%progbits
 183              		.align	2
 184              		.global	I2CM_SetCustomInterruptHandler
 185              		.code	16
 186              		.thumb_func
 187              		.type	I2CM_SetCustomInterruptHandler, %function
 188              	I2CM_SetCustomInterruptHandler:
 189              	.LFB4:
 198:.\Generated_Source\PSoC4/I2CM.c **** 
 199:.\Generated_Source\PSoC4/I2CM.c **** 
 200:.\Generated_Source\PSoC4/I2CM.c **** /*******************************************************************************
 201:.\Generated_Source\PSoC4/I2CM.c **** * Function Name: I2CM_SetCustomInterruptHandler
 202:.\Generated_Source\PSoC4/I2CM.c **** ********************************************************************************
 203:.\Generated_Source\PSoC4/I2CM.c **** *
 204:.\Generated_Source\PSoC4/I2CM.c **** * Summary:
 205:.\Generated_Source\PSoC4/I2CM.c **** *  Registers a function to be called by the internal interrupt handler.
 206:.\Generated_Source\PSoC4/I2CM.c **** *  First the function that is registered is called, then the internal interrupt
ARM GAS  C:\Users\srvs\AppData\Local\Temp\ccP7lwem.s 			page 8


 207:.\Generated_Source\PSoC4/I2CM.c **** *  handler performs any operations such as software buffer management functions
 208:.\Generated_Source\PSoC4/I2CM.c **** *  before the interrupt returns.  It is user's responsibility to not break the
 209:.\Generated_Source\PSoC4/I2CM.c **** *  software buffer operations. Only one custom handler is supported, which is
 210:.\Generated_Source\PSoC4/I2CM.c **** *  the function provided by the most recent call.
 211:.\Generated_Source\PSoC4/I2CM.c **** *  At initialization time no custom handler is registered.
 212:.\Generated_Source\PSoC4/I2CM.c **** *
 213:.\Generated_Source\PSoC4/I2CM.c **** * Parameters:
 214:.\Generated_Source\PSoC4/I2CM.c **** *  func: Pointer to the function to register.
 215:.\Generated_Source\PSoC4/I2CM.c **** *        The value NULL indicates to remove the current custom interrupt
 216:.\Generated_Source\PSoC4/I2CM.c **** *        handler.
 217:.\Generated_Source\PSoC4/I2CM.c **** *
 218:.\Generated_Source\PSoC4/I2CM.c **** * Return:
 219:.\Generated_Source\PSoC4/I2CM.c **** *  None
 220:.\Generated_Source\PSoC4/I2CM.c **** *
 221:.\Generated_Source\PSoC4/I2CM.c **** *******************************************************************************/
 222:.\Generated_Source\PSoC4/I2CM.c **** void I2CM_SetCustomInterruptHandler(cyisraddress func)
 223:.\Generated_Source\PSoC4/I2CM.c **** {
 190              		.loc 1 223 0
 191              		.cfi_startproc
 192 0000 80B5     		push	{r7, lr}
 193              	.LCFI8:
 194              		.cfi_def_cfa_offset 8
 195              		.cfi_offset 7, -8
 196              		.cfi_offset 14, -4
 197 0002 82B0     		sub	sp, sp, #8
 198              	.LCFI9:
 199              		.cfi_def_cfa_offset 16
 200 0004 00AF     		add	r7, sp, #0
 201              	.LCFI10:
 202              		.cfi_def_cfa_register 7
 203 0006 7860     		str	r0, [r7, #4]
 224:.\Generated_Source\PSoC4/I2CM.c ****     I2CM_customIntrHandler = func; /* Register interrupt handler */
 204              		.loc 1 224 0
 205 0008 024B     		ldr	r3, .L18
 206 000a 7A68     		ldr	r2, [r7, #4]
 207 000c 1A60     		str	r2, [r3]
 225:.\Generated_Source\PSoC4/I2CM.c **** }
 208              		.loc 1 225 0
 209 000e BD46     		mov	sp, r7
 210 0010 02B0     		add	sp, sp, #8
 211              		@ sp needed for prologue
 212 0012 80BD     		pop	{r7, pc}
 213              	.L19:
 214              		.align	2
 215              	.L18:
 216 0014 00000000 		.word	I2CM_customIntrHandler
 217              		.cfi_endproc
 218              	.LFE4:
 219              		.size	I2CM_SetCustomInterruptHandler, .-I2CM_SetCustomInterruptHandler
 220              		.section	.text.I2CM_ScbModeStop,"ax",%progbits
 221              		.align	2
 222              		.code	16
 223              		.thumb_func
 224              		.type	I2CM_ScbModeStop, %function
 225              	I2CM_ScbModeStop:
 226              	.LFB5:
 226:.\Generated_Source\PSoC4/I2CM.c **** 
ARM GAS  C:\Users\srvs\AppData\Local\Temp\ccP7lwem.s 			page 9


 227:.\Generated_Source\PSoC4/I2CM.c **** 
 228:.\Generated_Source\PSoC4/I2CM.c **** /*******************************************************************************
 229:.\Generated_Source\PSoC4/I2CM.c **** * Function Name: I2CM_ScbModeStop
 230:.\Generated_Source\PSoC4/I2CM.c **** ********************************************************************************
 231:.\Generated_Source\PSoC4/I2CM.c **** *
 232:.\Generated_Source\PSoC4/I2CM.c **** * Summary:
 233:.\Generated_Source\PSoC4/I2CM.c **** *  Calls Stop function for specific operation mode.
 234:.\Generated_Source\PSoC4/I2CM.c **** *
 235:.\Generated_Source\PSoC4/I2CM.c **** * Parameters:
 236:.\Generated_Source\PSoC4/I2CM.c **** *  None
 237:.\Generated_Source\PSoC4/I2CM.c **** *
 238:.\Generated_Source\PSoC4/I2CM.c **** * Return:
 239:.\Generated_Source\PSoC4/I2CM.c **** *  None
 240:.\Generated_Source\PSoC4/I2CM.c **** *
 241:.\Generated_Source\PSoC4/I2CM.c **** *******************************************************************************/
 242:.\Generated_Source\PSoC4/I2CM.c **** static void I2CM_ScbModeStop(void)
 243:.\Generated_Source\PSoC4/I2CM.c **** {
 227              		.loc 1 243 0
 228              		.cfi_startproc
 229 0000 80B5     		push	{r7, lr}
 230              	.LCFI11:
 231              		.cfi_def_cfa_offset 8
 232              		.cfi_offset 7, -8
 233              		.cfi_offset 14, -4
 234 0002 00AF     		add	r7, sp, #0
 235              	.LCFI12:
 236              		.cfi_def_cfa_register 7
 244:.\Generated_Source\PSoC4/I2CM.c ****     #if(I2CM_SCB_MODE_UNCONFIG_CONST_CFG)
 245:.\Generated_Source\PSoC4/I2CM.c ****         if(I2CM_SCB_MODE_I2C_RUNTM_CFG)
 246:.\Generated_Source\PSoC4/I2CM.c ****         {
 247:.\Generated_Source\PSoC4/I2CM.c ****             I2CM_I2CStop();
 248:.\Generated_Source\PSoC4/I2CM.c ****         }
 249:.\Generated_Source\PSoC4/I2CM.c ****     #elif(I2CM_SCB_MODE_I2C_CONST_CFG)
 250:.\Generated_Source\PSoC4/I2CM.c ****         I2CM_I2CStop();
 237              		.loc 1 250 0
 238 0004 FFF7FEFF 		bl	I2CM_I2CStop
 251:.\Generated_Source\PSoC4/I2CM.c ****     #else
 252:.\Generated_Source\PSoC4/I2CM.c **** 
 253:.\Generated_Source\PSoC4/I2CM.c ****     #endif /* (I2CM_SCB_MODE_UNCONFIG_CONST_CFG) */
 254:.\Generated_Source\PSoC4/I2CM.c **** }
 239              		.loc 1 254 0
 240 0008 BD46     		mov	sp, r7
 241              		@ sp needed for prologue
 242 000a 80BD     		pop	{r7, pc}
 243              		.cfi_endproc
 244              	.LFE5:
 245              		.size	I2CM_ScbModeStop, .-I2CM_ScbModeStop
 246              		.text
 247              	.Letext0: