ARM GAS  C:\Users\srvs\AppData\Local\Temp\ccHcwV6c.s 			page 1


   1              		.cpu cortex-m0
   2              		.fpu softvfp
   3              		.eabi_attribute 20, 1
   4              		.eabi_attribute 21, 1
   5              		.eabi_attribute 23, 3
   6              		.eabi_attribute 24, 1
   7              		.eabi_attribute 25, 1
   8              		.eabi_attribute 26, 1
   9              		.eabi_attribute 30, 6
  10              		.eabi_attribute 18, 4
  11              		.code	16
  12              		.file	"main.c"
  19 0000 CF000000 		.text
  19      02005400 
  19      00000201 
  19      FB0E0D00 
  19      01010101 
  20              	.Ltext0:
  21              		.cfi_sections	.debug_frame
  22              		.comm	Blob1,16,4
  23              		.comm	Blob2,16,4
  24              		.comm	Blob3,16,4
  25              		.comm	Blob4,16,4
  26              		.comm	IRsensorAddress,1,1
  27              		.comm	IRslaveAddress,1,1
  28              		.comm	data_buf,16,4
  29              		.comm	i,4,4
  30              		.comm	s,4,4
  31              		.comm	blobcount,1,1
  32              		.global	new_pan
  33              		.data
  34              		.align	1
  35              		.type	new_pan, %object
  36              		.size	new_pan, 2
  37              	new_pan:
  38 0000 5000     		.short	80
  39              		.global	new_tilt
  40              		.align	1
  41              		.type	new_tilt, %object
  42              		.size	new_tilt, 2
  43              	new_tilt:
  44 0002 5000     		.short	80
  45              		.section	.text.Initialize,"ax",%progbits
  46              		.align	2
  47              		.global	Initialize
  48              		.code	16
  49              		.thumb_func
  50              		.type	Initialize, %function
  51              	Initialize:
  52              	.LFB20:
  53              		.file 1 ".\\main.c"
ARM GAS  C:\Users\srvs\AppData\Local\Temp\ccHcwV6c.s 			page 2


   1:.\main.c      **** /* ========================================
   2:.\main.c      ****  *
   3:.\main.c      ****  * The following firmware was developed by Cypress Semiconductor
   4:.\main.c      ****  * This work is licensed under a Creative Commons Attribution 3.0 Unported License.
   5:.\main.c      ****  * 
   6:.\main.c      ****  * http://creativecommons.org/licenses/by/3.0/deed.en_US
   7:.\main.c      ****  * 
   8:.\main.c      ****  * You are free to:
   9:.\main.c      ****  * -To Share — to copy, distribute and transmit the work 
  10:.\main.c      ****  * -To Remix — to adapt the work 
  11:.\main.c      ****  * -To make commercial use of the work
  12:.\main.c      ****  *
  13:.\main.c      ****  * ========================================
  14:.\main.c      ****  */
  15:.\main.c      **** 
  16:.\main.c      **** #include <device.h>
  17:.\main.c      **** #include "Camera.h"
  18:.\main.c      **** #include "stdlib.h"
  19:.\main.c      **** 
  20:.\main.c      **** // Global Pan and Tilt Variables. Default value is calculated for center of Servo.
  21:.\main.c      **** uint16 new_pan = 80, new_tilt = 80;
  22:.\main.c      **** 
  23:.\main.c      **** // Initialize Hardware
  24:.\main.c      **** void Initialize(void)
  25:.\main.c      **** {
  54              		.loc 1 25 0
  55              		.cfi_startproc
  56 0000 80B5     		push	{r7, lr}
  57              	.LCFI0:
  58              		.cfi_def_cfa_offset 8
  59              		.cfi_offset 7, -8
  60              		.cfi_offset 14, -4
  61 0002 00AF     		add	r7, sp, #0
  62              	.LCFI1:
  63              		.cfi_def_cfa_register 7
  26:.\main.c      **** 	RESET_Write(0);
  64              		.loc 1 26 0
  65 0004 0020     		mov	r0, #0
  66 0006 FFF7FEFF 		bl	RESET_Write
  27:.\main.c      **** 	CyDelay(100);
  67              		.loc 1 27 0
  68 000a 6420     		mov	r0, #100
  69 000c FFF7FEFF 		bl	CyDelay
  28:.\main.c      **** 	RESET_Write(1);
  70              		.loc 1 28 0
  71 0010 0120     		mov	r0, #1
  72 0012 FFF7FEFF 		bl	RESET_Write
  29:.\main.c      **** 	CyDelay(100);
  73              		.loc 1 29 0
  74 0016 6420     		mov	r0, #100
  75 0018 FFF7FEFF 		bl	CyDelay
  30:.\main.c      **** 	
  31:.\main.c      **** 	PAN_Start();
  76              		.loc 1 31 0
  77 001c FFF7FEFF 		bl	PAN_Start
  32:.\main.c      **** 	TILT_Start();
  78              		.loc 1 32 0
ARM GAS  C:\Users\srvs\AppData\Local\Temp\ccHcwV6c.s 			page 3


  79 0020 FFF7FEFF 		bl	TILT_Start
  33:.\main.c      **** 	
  34:.\main.c      **** 	PAN_WriteCompare(new_pan);
  80              		.loc 1 34 0
  81 0024 0A4B     		ldr	r3, .L3
  82 0026 1B88     		ldrh	r3, [r3]
  83 0028 181C     		mov	r0, r3
  84 002a FFF7FEFF 		bl	PAN_WriteCompare
  35:.\main.c      **** 	TILT_WriteCompare(new_tilt);
  85              		.loc 1 35 0
  86 002e 094B     		ldr	r3, .L3+4
  87 0030 1B88     		ldrh	r3, [r3]
  88 0032 181C     		mov	r0, r3
  89 0034 FFF7FEFF 		bl	TILT_WriteCompare
  36:.\main.c      **** 	
  37:.\main.c      **** 	I2CM_Start();
  90              		.loc 1 37 0
  91 0038 FFF7FEFF 		bl	I2CM_Start
  38:.\main.c      **** 	Camera_init();
  92              		.loc 1 38 0
  93 003c FFF7FEFF 		bl	Camera_init
  39:.\main.c      **** 	
  40:.\main.c      **** 	CyDelay(1000);
  94              		.loc 1 40 0
  95 0040 FA23     		mov	r3, #250
  96 0042 9B00     		lsl	r3, r3, #2
  97 0044 181C     		mov	r0, r3
  98 0046 FFF7FEFF 		bl	CyDelay
  41:.\main.c      **** }
  99              		.loc 1 41 0
 100 004a BD46     		mov	sp, r7
 101              		@ sp needed for prologue
 102 004c 80BD     		pop	{r7, pc}
 103              	.L4:
 104 004e C046     		.align	2
 105              	.L3:
 106 0050 00000000 		.word	new_pan
 107 0054 00000000 		.word	new_tilt
 108              		.cfi_endproc
 109              	.LFE20:
 110              		.size	Initialize, .-Initialize
 111              		.global	__aeabi_idiv
 112              		.section	.text.MoveEye,"ax",%progbits
 113              		.align	2
 114              		.global	MoveEye
 115              		.code	16
 116              		.thumb_func
 117              		.type	MoveEye, %function
 118              	MoveEye:
 119              	.LFB21:
  42:.\main.c      **** 
  43:.\main.c      **** // Read the current x, y values from the Camera, calculate distance to move and turn the Servo moto
  44:.\main.c      **** // Faster response to align with target.
  45:.\main.c      **** void MoveEye(uint16 x, uint16 y)
  46:.\main.c      **** {
 120              		.loc 1 46 0
 121              		.cfi_startproc
ARM GAS  C:\Users\srvs\AppData\Local\Temp\ccHcwV6c.s 			page 4


 122 0000 90B5     		push	{r4, r7, lr}
 123              	.LCFI2:
 124              		.cfi_def_cfa_offset 12
 125              		.cfi_offset 4, -12
 126              		.cfi_offset 7, -8
 127              		.cfi_offset 14, -4
 128 0002 83B0     		sub	sp, sp, #12
 129              	.LCFI3:
 130              		.cfi_def_cfa_offset 24
 131 0004 00AF     		add	r7, sp, #0
 132              	.LCFI4:
 133              		.cfi_def_cfa_register 7
 134 0006 0A1C     		mov	r2, r1
 135 0008 BB1D     		add	r3, r7, #6
 136 000a 011C     		add	r1, r0, #0
 137 000c 1980     		strh	r1, [r3]
 138 000e 3B1D     		add	r3, r7, #4
 139 0010 1A80     		strh	r2, [r3]
  47:.\main.c      **** 	// Above or below the center line?
  48:.\main.c      **** 	if (x < 512)
 140              		.loc 1 48 0
 141 0012 BB1D     		add	r3, r7, #6
 142 0014 1A88     		ldrh	r2, [r3]
 143 0016 334B     		ldr	r3, .L13
 144 0018 9A42     		cmp	r2, r3
 145 001a 13D8     		bhi	.L6
  49:.\main.c      **** 	{
  50:.\main.c      **** 		new_tilt = new_tilt - (abs(512 - x)/128); 	//128
 146              		.loc 1 50 0
 147 001c 324B     		ldr	r3, .L13+4
 148 001e 1A88     		ldrh	r2, [r3]
 149 0020 BB1D     		add	r3, r7, #6
 150 0022 1988     		ldrh	r1, [r3]
 151 0024 8023     		mov	r3, #128
 152 0026 9B00     		lsl	r3, r3, #2
 153 0028 5B1A     		sub	r3, r3, r1
 154 002a D917     		asr	r1, r3, #31
 155 002c 5B18     		add	r3, r3, r1
 156 002e 4B40     		eor	r3, r3, r1
 157 0030 002B     		cmp	r3, #0
 158 0032 00DA     		bge	.L7
 159 0034 7F33     		add	r3, r3, #127
 160              	.L7:
 161 0036 DB11     		asr	r3, r3, #7
 162 0038 9BB2     		uxth	r3, r3
 163 003a D31A     		sub	r3, r2, r3
 164 003c 9AB2     		uxth	r2, r3
 165 003e 2A4B     		ldr	r3, .L13+4
 166 0040 1A80     		strh	r2, [r3]
 167 0042 11E0     		b	.L8
 168              	.L6:
  51:.\main.c      **** 	}
  52:.\main.c      **** 	else
  53:.\main.c      **** 	{
  54:.\main.c      **** 		new_tilt = new_tilt + (abs(x - 512)/128); 	//128
 169              		.loc 1 54 0
 170 0044 BB1D     		add	r3, r7, #6
ARM GAS  C:\Users\srvs\AppData\Local\Temp\ccHcwV6c.s 			page 5


 171 0046 1B88     		ldrh	r3, [r3]
 172 0048 284A     		ldr	r2, .L13+8
 173 004a 9B18     		add	r3, r3, r2
 174 004c D917     		asr	r1, r3, #31
 175 004e 5B18     		add	r3, r3, r1
 176 0050 4B40     		eor	r3, r3, r1
 177 0052 002B     		cmp	r3, #0
 178 0054 00DA     		bge	.L9
 179 0056 7F33     		add	r3, r3, #127
 180              	.L9:
 181 0058 DB11     		asr	r3, r3, #7
 182 005a 9AB2     		uxth	r2, r3
 183 005c 224B     		ldr	r3, .L13+4
 184 005e 1B88     		ldrh	r3, [r3]
 185 0060 D318     		add	r3, r2, r3
 186 0062 9AB2     		uxth	r2, r3
 187 0064 204B     		ldr	r3, .L13+4
 188 0066 1A80     		strh	r2, [r3]
 189              	.L8:
  55:.\main.c      **** 	}
  56:.\main.c      **** 	TILT_WriteCompare(new_tilt);					// Tilt the servo
 190              		.loc 1 56 0
 191 0068 1F4B     		ldr	r3, .L13+4
 192 006a 1B88     		ldrh	r3, [r3]
 193 006c 181C     		mov	r0, r3
 194 006e FFF7FEFF 		bl	TILT_WriteCompare
  57:.\main.c      **** 	
  58:.\main.c      **** 	// Left or right of the center line?
  59:.\main.c      **** 	if (y < 384)
 195              		.loc 1 59 0
 196 0072 3B1D     		add	r3, r7, #4
 197 0074 1A88     		ldrh	r2, [r3]
 198 0076 1E4B     		ldr	r3, .L13+12
 199 0078 9A42     		cmp	r2, r3
 200 007a 14D8     		bhi	.L10
  60:.\main.c      **** 	{
  61:.\main.c      **** 		new_pan = new_pan + (abs(384 - y)/96); 		//96
 201              		.loc 1 61 0
 202 007c 3B1D     		add	r3, r7, #4
 203 007e 1A88     		ldrh	r2, [r3]
 204 0080 C023     		mov	r3, #192
 205 0082 5B00     		lsl	r3, r3, #1
 206 0084 9B1A     		sub	r3, r3, r2
 207 0086 DA17     		asr	r2, r3, #31
 208 0088 9B18     		add	r3, r3, r2
 209 008a 5340     		eor	r3, r3, r2
 210 008c 181C     		mov	r0, r3
 211 008e 6021     		mov	r1, #96
 212 0090 FFF7FEFF 		bl	__aeabi_idiv
 213 0094 031C     		mov	r3, r0
 214 0096 9AB2     		uxth	r2, r3
 215 0098 164B     		ldr	r3, .L13+16
 216 009a 1B88     		ldrh	r3, [r3]
 217 009c D318     		add	r3, r2, r3
 218 009e 9AB2     		uxth	r2, r3
 219 00a0 144B     		ldr	r3, .L13+16
 220 00a2 1A80     		strh	r2, [r3]
ARM GAS  C:\Users\srvs\AppData\Local\Temp\ccHcwV6c.s 			page 6


 221 00a4 12E0     		b	.L11
 222              	.L10:
  62:.\main.c      **** 	}
  63:.\main.c      **** 	else
  64:.\main.c      **** 	{
  65:.\main.c      **** 		new_pan = new_pan - (abs(y - 384)/96); 		//96
 223              		.loc 1 65 0
 224 00a6 134B     		ldr	r3, .L13+16
 225 00a8 1C88     		ldrh	r4, [r3]
 226 00aa 3B1D     		add	r3, r7, #4
 227 00ac 1B88     		ldrh	r3, [r3]
 228 00ae 813B     		sub	r3, r3, #129
 229 00b0 FF3B     		sub	r3, r3, #255
 230 00b2 D917     		asr	r1, r3, #31
 231 00b4 5B18     		add	r3, r3, r1
 232 00b6 4B40     		eor	r3, r3, r1
 233 00b8 181C     		mov	r0, r3
 234 00ba 6021     		mov	r1, #96
 235 00bc FFF7FEFF 		bl	__aeabi_idiv
 236 00c0 031C     		mov	r3, r0
 237 00c2 9BB2     		uxth	r3, r3
 238 00c4 E31A     		sub	r3, r4, r3
 239 00c6 9AB2     		uxth	r2, r3
 240 00c8 0A4B     		ldr	r3, .L13+16
 241 00ca 1A80     		strh	r2, [r3]
 242              	.L11:
  66:.\main.c      **** 	}
  67:.\main.c      **** 	PAN_WriteCompare(new_pan);						// Pan the servo
 243              		.loc 1 67 0
 244 00cc 094B     		ldr	r3, .L13+16
 245 00ce 1B88     		ldrh	r3, [r3]
 246 00d0 181C     		mov	r0, r3
 247 00d2 FFF7FEFF 		bl	PAN_WriteCompare
  68:.\main.c      **** 	CyDelay(13);									// Delay for motors to settle in new location. Different for different motors
 248              		.loc 1 68 0
 249 00d6 0D20     		mov	r0, #13
 250 00d8 FFF7FEFF 		bl	CyDelay
  69:.\main.c      **** }
 251              		.loc 1 69 0
 252 00dc BD46     		mov	sp, r7
 253 00de 03B0     		add	sp, sp, #12
 254              		@ sp needed for prologue
 255 00e0 90BD     		pop	{r4, r7, pc}
 256              	.L14:
 257 00e2 C046     		.align	2
 258              	.L13:
 259 00e4 FF010000 		.word	511
 260 00e8 00000000 		.word	new_tilt
 261 00ec 00FEFFFF 		.word	-512
 262 00f0 7F010000 		.word	383
 263 00f4 00000000 		.word	new_pan
 264              		.cfi_endproc
 265              	.LFE21:
 266              		.size	MoveEye, .-MoveEye
 267              		.section	.text.MoveAlong,"ax",%progbits
 268              		.align	2
 269              		.global	MoveAlong
ARM GAS  C:\Users\srvs\AppData\Local\Temp\ccHcwV6c.s 			page 7


 270              		.code	16
 271              		.thumb_func
 272              		.type	MoveAlong, %function
 273              	MoveAlong:
 274              	.LFB22:
  70:.\main.c      **** 
  71:.\main.c      **** // Another implementation with fixed steps.
  72:.\main.c      **** // Lower response to align with target.
  73:.\main.c      **** void MoveAlong(uint16 x, uint16 y)
  74:.\main.c      **** {
 275              		.loc 1 74 0
 276              		.cfi_startproc
 277 0000 80B5     		push	{r7, lr}
 278              	.LCFI5:
 279              		.cfi_def_cfa_offset 8
 280              		.cfi_offset 7, -8
 281              		.cfi_offset 14, -4
 282 0002 82B0     		sub	sp, sp, #8
 283              	.LCFI6:
 284              		.cfi_def_cfa_offset 16
 285 0004 00AF     		add	r7, sp, #0
 286              	.LCFI7:
 287              		.cfi_def_cfa_register 7
 288 0006 0A1C     		mov	r2, r1
 289 0008 BB1D     		add	r3, r7, #6
 290 000a 011C     		add	r1, r0, #0
 291 000c 1980     		strh	r1, [r3]
 292 000e 3B1D     		add	r3, r7, #4
 293 0010 1A80     		strh	r2, [r3]
  75:.\main.c      **** 	static uint16 prev_x = 0, prev_y = 0;
  76:.\main.c      **** 	
  77:.\main.c      **** 	if (abs(x - prev_x) >= 120)
 294              		.loc 1 77 0
 295 0012 BB1D     		add	r3, r7, #6
 296 0014 1A88     		ldrh	r2, [r3]
 297 0016 264B     		ldr	r3, .L23
 298 0018 1B88     		ldrh	r3, [r3]
 299 001a D31A     		sub	r3, r2, r3
 300 001c DA17     		asr	r2, r3, #31
 301 001e 9B18     		add	r3, r3, r2
 302 0020 5340     		eor	r3, r3, r2
 303 0022 772B     		cmp	r3, #119
 304 0024 1BDD     		ble	.L16
  78:.\main.c      **** 	{
  79:.\main.c      **** 		if (x < prev_x)
 305              		.loc 1 79 0
 306 0026 224B     		ldr	r3, .L23
 307 0028 1B88     		ldrh	r3, [r3]
 308 002a BA1D     		add	r2, r7, #6
 309 002c 1288     		ldrh	r2, [r2]
 310 002e 9A42     		cmp	r2, r3
 311 0030 06D2     		bcs	.L17
  80:.\main.c      **** 		{new_pan = new_pan - 6;}
 312              		.loc 1 80 0
 313 0032 204B     		ldr	r3, .L23+4
 314 0034 1B88     		ldrh	r3, [r3]
 315 0036 063B     		sub	r3, r3, #6
ARM GAS  C:\Users\srvs\AppData\Local\Temp\ccHcwV6c.s 			page 8


 316 0038 9AB2     		uxth	r2, r3
 317 003a 1E4B     		ldr	r3, .L23+4
 318 003c 1A80     		strh	r2, [r3]
 319 003e 05E0     		b	.L18
 320              	.L17:
  81:.\main.c      **** 		else
  82:.\main.c      **** 		{new_pan = new_pan + 6;}
 321              		.loc 1 82 0
 322 0040 1C4B     		ldr	r3, .L23+4
 323 0042 1B88     		ldrh	r3, [r3]
 324 0044 0633     		add	r3, r3, #6
 325 0046 9AB2     		uxth	r2, r3
 326 0048 1A4B     		ldr	r3, .L23+4
 327 004a 1A80     		strh	r2, [r3]
 328              	.L18:
  83:.\main.c      **** 		prev_x = x;
 329              		.loc 1 83 0
 330 004c 184B     		ldr	r3, .L23
 331 004e BA1D     		add	r2, r7, #6
 332 0050 1288     		ldrh	r2, [r2]
 333 0052 1A80     		strh	r2, [r3]
  84:.\main.c      **** 		TILT_WriteCompare(new_pan);
 334              		.loc 1 84 0
 335 0054 174B     		ldr	r3, .L23+4
 336 0056 1B88     		ldrh	r3, [r3]
 337 0058 181C     		mov	r0, r3
 338 005a FFF7FEFF 		bl	TILT_WriteCompare
 339              	.L16:
  85:.\main.c      **** 	}
  86:.\main.c      **** 	
  87:.\main.c      **** 	if (abs(y - prev_y) >= 80)
 340              		.loc 1 87 0
 341 005e 3B1D     		add	r3, r7, #4
 342 0060 1A88     		ldrh	r2, [r3]
 343 0062 154B     		ldr	r3, .L23+8
 344 0064 1B88     		ldrh	r3, [r3]
 345 0066 D31A     		sub	r3, r2, r3
 346 0068 DA17     		asr	r2, r3, #31
 347 006a 9B18     		add	r3, r3, r2
 348 006c 5340     		eor	r3, r3, r2
 349 006e 4F2B     		cmp	r3, #79
 350 0070 1BDD     		ble	.L22
  88:.\main.c      **** 	{
  89:.\main.c      **** 		if (y < prev_y)
 351              		.loc 1 89 0
 352 0072 114B     		ldr	r3, .L23+8
 353 0074 1B88     		ldrh	r3, [r3]
 354 0076 3A1D     		add	r2, r7, #4
 355 0078 1288     		ldrh	r2, [r2]
 356 007a 9A42     		cmp	r2, r3
 357 007c 06D2     		bcs	.L20
  90:.\main.c      **** 		{new_tilt = new_tilt + 4;}
 358              		.loc 1 90 0
 359 007e 0F4B     		ldr	r3, .L23+12
 360 0080 1B88     		ldrh	r3, [r3]
 361 0082 0433     		add	r3, r3, #4
 362 0084 9AB2     		uxth	r2, r3
ARM GAS  C:\Users\srvs\AppData\Local\Temp\ccHcwV6c.s 			page 9


 363 0086 0D4B     		ldr	r3, .L23+12
 364 0088 1A80     		strh	r2, [r3]
 365 008a 05E0     		b	.L21
 366              	.L20:
  91:.\main.c      **** 		else
  92:.\main.c      **** 		{new_tilt = new_tilt - 4;}
 367              		.loc 1 92 0
 368 008c 0B4B     		ldr	r3, .L23+12
 369 008e 1B88     		ldrh	r3, [r3]
 370 0090 043B     		sub	r3, r3, #4
 371 0092 9AB2     		uxth	r2, r3
 372 0094 094B     		ldr	r3, .L23+12
 373 0096 1A80     		strh	r2, [r3]
 374              	.L21:
  93:.\main.c      **** 		prev_y = y;
 375              		.loc 1 93 0
 376 0098 074B     		ldr	r3, .L23+8
 377 009a 3A1D     		add	r2, r7, #4
 378 009c 1288     		ldrh	r2, [r2]
 379 009e 1A80     		strh	r2, [r3]
  94:.\main.c      **** 		PAN_WriteCompare(new_tilt);
 380              		.loc 1 94 0
 381 00a0 064B     		ldr	r3, .L23+12
 382 00a2 1B88     		ldrh	r3, [r3]
 383 00a4 181C     		mov	r0, r3
 384 00a6 FFF7FEFF 		bl	PAN_WriteCompare
 385              	.L22:
  95:.\main.c      **** 	}
  96:.\main.c      **** }
 386              		.loc 1 96 0
 387 00aa BD46     		mov	sp, r7
 388 00ac 02B0     		add	sp, sp, #8
 389              		@ sp needed for prologue
 390 00ae 80BD     		pop	{r7, pc}
 391              	.L24:
 392              		.align	2
 393              	.L23:
 394 00b0 00000000 		.word	prev_x.2872
 395 00b4 00000000 		.word	new_pan
 396 00b8 02000000 		.word	prev_y.2873
 397 00bc 00000000 		.word	new_tilt
 398              		.cfi_endproc
 399              	.LFE22:
 400              		.size	MoveAlong, .-MoveAlong
 401              		.section	.text.main,"ax",%progbits
 402              		.align	2
 403              		.global	main
 404              		.code	16
 405              		.thumb_func
 406              		.type	main, %function
 407              	main:
 408              	.LFB23:
  97:.\main.c      **** 
  98:.\main.c      **** // The main
  99:.\main.c      **** void main()
 100:.\main.c      **** {
 409              		.loc 1 100 0
ARM GAS  C:\Users\srvs\AppData\Local\Temp\ccHcwV6c.s 			page 10


 410              		.cfi_startproc
 411 0000 80B5     		push	{r7, lr}
 412              	.LCFI8:
 413              		.cfi_def_cfa_offset 8
 414              		.cfi_offset 7, -8
 415              		.cfi_offset 14, -4
 416 0002 82B0     		sub	sp, sp, #8
 417              	.LCFI9:
 418              		.cfi_def_cfa_offset 16
 419 0004 00AF     		add	r7, sp, #0
 420              	.LCFI10:
 421              		.cfi_def_cfa_register 7
 101:.\main.c      ****     uint16 cnt = 0;
 422              		.loc 1 101 0
 423 0006 3B1C     		mov	r3, r7
 424 0008 0022     		mov	r2, #0
 425 000a 1A80     		strh	r2, [r3]
 102:.\main.c      **** 	uint8 blobs = 0;
 426              		.loc 1 102 0
 427 000c FB1C     		add	r3, r7, #3
 428 000e 0022     		mov	r2, #0
 429 0010 1A70     		strb	r2, [r3]
 103:.\main.c      **** 	uint16 x = 0, y = 0;
 430              		.loc 1 103 0
 431 0012 3B1D     		add	r3, r7, #4
 432 0014 0022     		mov	r2, #0
 433 0016 1A80     		strh	r2, [r3]
 434 0018 BB1D     		add	r3, r7, #6
 435 001a 0022     		mov	r2, #0
 436 001c 1A80     		strh	r2, [r3]
 104:.\main.c      **** 	
 105:.\main.c      **** 	
 106:.\main.c      **** 	CyGlobalIntEnable;					// Enable all global interrupts
 437              		.loc 1 106 0
 438              	@ 106 ".\main.c" 1
 439 001e 62B6     		CPSIE   i
 440              	@ 0 "" 2
 107:.\main.c      **** 	
 108:.\main.c      **** 	Initialize();						// Initialize all Hardware
 441              		.loc 1 108 0
 442              		.code	16
 443 0020 FFF7FEFF 		bl	Initialize
 444 0024 00E0     		b	.L27
 445              	.L29:
 109:.\main.c      **** 	
 110:.\main.c      **** 	while(1)
 111:.\main.c      **** 	{
 112:.\main.c      **** 		blobs = Camera_read();
 113:.\main.c      **** 		if (blobs & BLOB1)				// Camera can track 4 targets simultaneously. We are interested only in one
 114:.\main.c      **** 		{
 115:.\main.c      **** 			x = Blob1.X;				// Get current x, y for the target
 116:.\main.c      **** 			y = Blob1.Y;
 117:.\main.c      **** 			
 118:.\main.c      **** 			MoveEye(x, y);				// Move the camera to bring target in center of field of vision
 119:.\main.c      **** 		}
 120:.\main.c      **** 	}
 446              		.loc 1 120 0
ARM GAS  C:\Users\srvs\AppData\Local\Temp\ccHcwV6c.s 			page 11


 447 0026 C046     		mov	r8, r8
 448              	.L27:
 449              		.loc 1 112 0
 450 0028 FFF7FEFF 		bl	Camera_read
 451 002c 031C     		mov	r3, r0
 452 002e 1A1C     		mov	r2, r3
 453 0030 FB1C     		add	r3, r7, #3
 454 0032 1A70     		strb	r2, [r3]
 455              		.loc 1 113 0
 456 0034 FB1C     		add	r3, r7, #3
 457 0036 1A78     		ldrb	r2, [r3]
 458 0038 0123     		mov	r3, #1
 459 003a 1340     		and	r3, r3, r2
 460 003c DBB2     		uxtb	r3, r3
 461 003e 002B     		cmp	r3, #0
 462 0040 F1D0     		beq	.L29
 463              		.loc 1 115 0
 464 0042 084B     		ldr	r3, .L30
 465 0044 1A68     		ldr	r2, [r3]
 466 0046 3B1D     		add	r3, r7, #4
 467 0048 1A80     		strh	r2, [r3]
 468              		.loc 1 116 0
 469 004a 064B     		ldr	r3, .L30
 470 004c 5A68     		ldr	r2, [r3, #4]
 471 004e BB1D     		add	r3, r7, #6
 472 0050 1A80     		strh	r2, [r3]
 473              		.loc 1 118 0
 474 0052 3B1D     		add	r3, r7, #4
 475 0054 1A88     		ldrh	r2, [r3]
 476 0056 BB1D     		add	r3, r7, #6
 477 0058 1B88     		ldrh	r3, [r3]
 478 005a 101C     		mov	r0, r2
 479 005c 191C     		mov	r1, r3
 480 005e FFF7FEFF 		bl	MoveEye
 481              		.loc 1 120 0
 482 0062 E1E7     		b	.L27
 483              	.L31:
 484              		.align	2
 485              	.L30:
 486 0064 00000000 		.word	Blob1
 487              		.cfi_endproc
 488              	.LFE23:
 489              		.size	main, .-main
 490              		.bss
 491              		.align	1
 492              	prev_x.2872:
 493 0000 0000     		.space	2
 494              		.align	1
 495              	prev_y.2873:
 496 0002 0000     		.space	2
 497              		.text
 498              	.Letext0: