ARM GAS  C:\Users\mitchell\AppData\Local\Temp\ccepAJff.s 			page 1


   1              		.syntax unified
   2              		.cpu cortex-m3
   3              		.fpu softvfp
   4              		.eabi_attribute 20, 1
   5              		.eabi_attribute 21, 1
   6              		.eabi_attribute 23, 3
   7              		.eabi_attribute 24, 1
   8              		.eabi_attribute 25, 1
   9              		.eabi_attribute 26, 1
  10              		.eabi_attribute 30, 1
  11              		.eabi_attribute 34, 1
  12              		.eabi_attribute 18, 4
  13              		.thumb
  14              		.file	"SERVO_PWM_PM.c"
  15              		.text
  16              	.Ltext0:
  17              		.cfi_sections	.debug_frame
  18              		.section	.text.SERVO_PWM_SaveConfig,"ax",%progbits
  19              		.align	2
  20              		.global	SERVO_PWM_SaveConfig
  21              		.thumb
  22              		.thumb_func
  23              		.type	SERVO_PWM_SaveConfig, %function
  24              	SERVO_PWM_SaveConfig:
  25              	.LFB0:
  26              		.file 1 ".\\Generated_Source\\PSoC5\\SERVO_PWM_PM.c"
   1:.\Generated_Source\PSoC5/SERVO_PWM_PM.c **** /*******************************************************************************
   2:.\Generated_Source\PSoC5/SERVO_PWM_PM.c **** * File Name: SERVO_PWM_PM.c
   3:.\Generated_Source\PSoC5/SERVO_PWM_PM.c **** * Version 3.30
   4:.\Generated_Source\PSoC5/SERVO_PWM_PM.c **** *
   5:.\Generated_Source\PSoC5/SERVO_PWM_PM.c **** * Description:
   6:.\Generated_Source\PSoC5/SERVO_PWM_PM.c **** *  This file provides the power management source code to API for the
   7:.\Generated_Source\PSoC5/SERVO_PWM_PM.c **** *  PWM.
   8:.\Generated_Source\PSoC5/SERVO_PWM_PM.c **** *
   9:.\Generated_Source\PSoC5/SERVO_PWM_PM.c **** * Note:
  10:.\Generated_Source\PSoC5/SERVO_PWM_PM.c **** *
  11:.\Generated_Source\PSoC5/SERVO_PWM_PM.c **** ********************************************************************************
  12:.\Generated_Source\PSoC5/SERVO_PWM_PM.c **** * Copyright 2008-2014, Cypress Semiconductor Corporation.  All rights reserved.
  13:.\Generated_Source\PSoC5/SERVO_PWM_PM.c **** * You may use this file only in accordance with the license, terms, conditions,
  14:.\Generated_Source\PSoC5/SERVO_PWM_PM.c **** * disclaimers, and limitations in the end user license agreement accompanying
  15:.\Generated_Source\PSoC5/SERVO_PWM_PM.c **** * the software package with which this file was provided.
  16:.\Generated_Source\PSoC5/SERVO_PWM_PM.c **** *******************************************************************************/
  17:.\Generated_Source\PSoC5/SERVO_PWM_PM.c **** 
  18:.\Generated_Source\PSoC5/SERVO_PWM_PM.c **** #include "SERVO_PWM.h"
  19:.\Generated_Source\PSoC5/SERVO_PWM_PM.c **** 
  20:.\Generated_Source\PSoC5/SERVO_PWM_PM.c **** static SERVO_PWM_backupStruct SERVO_PWM_backup;
  21:.\Generated_Source\PSoC5/SERVO_PWM_PM.c **** 
  22:.\Generated_Source\PSoC5/SERVO_PWM_PM.c **** 
  23:.\Generated_Source\PSoC5/SERVO_PWM_PM.c **** /*******************************************************************************
  24:.\Generated_Source\PSoC5/SERVO_PWM_PM.c **** * Function Name: SERVO_PWM_SaveConfig
  25:.\Generated_Source\PSoC5/SERVO_PWM_PM.c **** ********************************************************************************
  26:.\Generated_Source\PSoC5/SERVO_PWM_PM.c **** *
  27:.\Generated_Source\PSoC5/SERVO_PWM_PM.c **** * Summary:
  28:.\Generated_Source\PSoC5/SERVO_PWM_PM.c **** *  Saves the current user configuration of the component.
  29:.\Generated_Source\PSoC5/SERVO_PWM_PM.c **** *
  30:.\Generated_Source\PSoC5/SERVO_PWM_PM.c **** * Parameters:
  31:.\Generated_Source\PSoC5/SERVO_PWM_PM.c **** *  None
ARM GAS  C:\Users\mitchell\AppData\Local\Temp\ccepAJff.s 			page 2


  32:.\Generated_Source\PSoC5/SERVO_PWM_PM.c **** *
  33:.\Generated_Source\PSoC5/SERVO_PWM_PM.c **** * Return:
  34:.\Generated_Source\PSoC5/SERVO_PWM_PM.c **** *  None
  35:.\Generated_Source\PSoC5/SERVO_PWM_PM.c **** *
  36:.\Generated_Source\PSoC5/SERVO_PWM_PM.c **** * Global variables:
  37:.\Generated_Source\PSoC5/SERVO_PWM_PM.c **** *  SERVO_PWM_backup:  Variables of this global structure are modified to
  38:.\Generated_Source\PSoC5/SERVO_PWM_PM.c **** *  store the values of non retention configuration registers when Sleep() API is
  39:.\Generated_Source\PSoC5/SERVO_PWM_PM.c **** *  called.
  40:.\Generated_Source\PSoC5/SERVO_PWM_PM.c **** *
  41:.\Generated_Source\PSoC5/SERVO_PWM_PM.c **** *******************************************************************************/
  42:.\Generated_Source\PSoC5/SERVO_PWM_PM.c **** void SERVO_PWM_SaveConfig(void) 
  43:.\Generated_Source\PSoC5/SERVO_PWM_PM.c **** {
  27              		.loc 1 43 0
  28              		.cfi_startproc
  29              		@ args = 0, pretend = 0, frame = 0
  30              		@ frame_needed = 0, uses_anonymous_args = 0
  31 0000 10B5     		push	{r4, lr}
  32              		.cfi_def_cfa_offset 8
  33              		.cfi_offset 4, -8
  34              		.cfi_offset 14, -4
  44:.\Generated_Source\PSoC5/SERVO_PWM_PM.c **** 
  45:.\Generated_Source\PSoC5/SERVO_PWM_PM.c ****     #if(!SERVO_PWM_UsingFixedFunction)
  46:.\Generated_Source\PSoC5/SERVO_PWM_PM.c ****         #if(!SERVO_PWM_PWMModeIsCenterAligned)
  47:.\Generated_Source\PSoC5/SERVO_PWM_PM.c ****             SERVO_PWM_backup.PWMPeriod = SERVO_PWM_ReadPeriod();
  48:.\Generated_Source\PSoC5/SERVO_PWM_PM.c ****         #endif /* (!SERVO_PWM_PWMModeIsCenterAligned) */
  49:.\Generated_Source\PSoC5/SERVO_PWM_PM.c ****         SERVO_PWM_backup.PWMUdb = SERVO_PWM_ReadCounter();
  35              		.loc 1 49 0
  36 0002 FFF7FEFF 		bl	SERVO_PWM_ReadCounter
  37              	.LVL0:
  38 0006 044C     		ldr	r4, .L2
  39 0008 6070     		strb	r0, [r4, #1]
  50:.\Generated_Source\PSoC5/SERVO_PWM_PM.c ****         #if (SERVO_PWM_UseStatus)
  51:.\Generated_Source\PSoC5/SERVO_PWM_PM.c ****             SERVO_PWM_backup.InterruptMaskValue = SERVO_PWM_STATUS_MASK;
  40              		.loc 1 51 0
  41 000a 044B     		ldr	r3, .L2+4
  42 000c 1B78     		ldrb	r3, [r3]	@ zero_extendqisi2
  43 000e A370     		strb	r3, [r4, #2]
  52:.\Generated_Source\PSoC5/SERVO_PWM_PM.c ****         #endif /* (SERVO_PWM_UseStatus) */
  53:.\Generated_Source\PSoC5/SERVO_PWM_PM.c **** 
  54:.\Generated_Source\PSoC5/SERVO_PWM_PM.c ****         #if(SERVO_PWM_DeadBandMode == SERVO_PWM__B_PWM__DBM_256_CLOCKS || \
  55:.\Generated_Source\PSoC5/SERVO_PWM_PM.c ****             SERVO_PWM_DeadBandMode == SERVO_PWM__B_PWM__DBM_2_4_CLOCKS)
  56:.\Generated_Source\PSoC5/SERVO_PWM_PM.c ****             SERVO_PWM_backup.PWMdeadBandValue = SERVO_PWM_ReadDeadTime();
  57:.\Generated_Source\PSoC5/SERVO_PWM_PM.c ****         #endif /*  deadband count is either 2-4 clocks or 256 clocks */
  58:.\Generated_Source\PSoC5/SERVO_PWM_PM.c **** 
  59:.\Generated_Source\PSoC5/SERVO_PWM_PM.c ****         #if(SERVO_PWM_KillModeMinTime)
  60:.\Generated_Source\PSoC5/SERVO_PWM_PM.c ****              SERVO_PWM_backup.PWMKillCounterPeriod = SERVO_PWM_ReadKillTime();
  61:.\Generated_Source\PSoC5/SERVO_PWM_PM.c ****         #endif /* (SERVO_PWM_KillModeMinTime) */
  62:.\Generated_Source\PSoC5/SERVO_PWM_PM.c **** 
  63:.\Generated_Source\PSoC5/SERVO_PWM_PM.c ****         #if(SERVO_PWM_UseControl)
  64:.\Generated_Source\PSoC5/SERVO_PWM_PM.c ****             SERVO_PWM_backup.PWMControlRegister = SERVO_PWM_ReadControlRegister();
  44              		.loc 1 64 0
  45 0010 FFF7FEFF 		bl	SERVO_PWM_ReadControlRegister
  46              	.LVL1:
  47 0014 E070     		strb	r0, [r4, #3]
  48 0016 10BD     		pop	{r4, pc}
  49              	.L3:
  50              		.align	2
ARM GAS  C:\Users\mitchell\AppData\Local\Temp\ccepAJff.s 			page 3


  51              	.L2:
  52 0018 00000000 		.word	.LANCHOR0
  53 001c 81640040 		.word	1073767553
  54              		.cfi_endproc
  55              	.LFE0:
  56              		.size	SERVO_PWM_SaveConfig, .-SERVO_PWM_SaveConfig
  57              		.section	.text.SERVO_PWM_RestoreConfig,"ax",%progbits
  58              		.align	2
  59              		.global	SERVO_PWM_RestoreConfig
  60              		.thumb
  61              		.thumb_func
  62              		.type	SERVO_PWM_RestoreConfig, %function
  63              	SERVO_PWM_RestoreConfig:
  64              	.LFB1:
  65:.\Generated_Source\PSoC5/SERVO_PWM_PM.c ****         #endif /* (SERVO_PWM_UseControl) */
  66:.\Generated_Source\PSoC5/SERVO_PWM_PM.c ****     #endif  /* (!SERVO_PWM_UsingFixedFunction) */
  67:.\Generated_Source\PSoC5/SERVO_PWM_PM.c **** }
  68:.\Generated_Source\PSoC5/SERVO_PWM_PM.c **** 
  69:.\Generated_Source\PSoC5/SERVO_PWM_PM.c **** 
  70:.\Generated_Source\PSoC5/SERVO_PWM_PM.c **** /*******************************************************************************
  71:.\Generated_Source\PSoC5/SERVO_PWM_PM.c **** * Function Name: SERVO_PWM_RestoreConfig
  72:.\Generated_Source\PSoC5/SERVO_PWM_PM.c **** ********************************************************************************
  73:.\Generated_Source\PSoC5/SERVO_PWM_PM.c **** *
  74:.\Generated_Source\PSoC5/SERVO_PWM_PM.c **** * Summary:
  75:.\Generated_Source\PSoC5/SERVO_PWM_PM.c **** *  Restores the current user configuration of the component.
  76:.\Generated_Source\PSoC5/SERVO_PWM_PM.c **** *
  77:.\Generated_Source\PSoC5/SERVO_PWM_PM.c **** * Parameters:
  78:.\Generated_Source\PSoC5/SERVO_PWM_PM.c **** *  None
  79:.\Generated_Source\PSoC5/SERVO_PWM_PM.c **** *
  80:.\Generated_Source\PSoC5/SERVO_PWM_PM.c **** * Return:
  81:.\Generated_Source\PSoC5/SERVO_PWM_PM.c **** *  None
  82:.\Generated_Source\PSoC5/SERVO_PWM_PM.c **** *
  83:.\Generated_Source\PSoC5/SERVO_PWM_PM.c **** * Global variables:
  84:.\Generated_Source\PSoC5/SERVO_PWM_PM.c **** *  SERVO_PWM_backup:  Variables of this global structure are used to
  85:.\Generated_Source\PSoC5/SERVO_PWM_PM.c **** *  restore the values of non retention registers on wakeup from sleep mode.
  86:.\Generated_Source\PSoC5/SERVO_PWM_PM.c **** *
  87:.\Generated_Source\PSoC5/SERVO_PWM_PM.c **** *******************************************************************************/
  88:.\Generated_Source\PSoC5/SERVO_PWM_PM.c **** void SERVO_PWM_RestoreConfig(void) 
  89:.\Generated_Source\PSoC5/SERVO_PWM_PM.c **** {
  65              		.loc 1 89 0
  66              		.cfi_startproc
  67              		@ args = 0, pretend = 0, frame = 0
  68              		@ frame_needed = 0, uses_anonymous_args = 0
  69 0000 10B5     		push	{r4, lr}
  70              		.cfi_def_cfa_offset 8
  71              		.cfi_offset 4, -8
  72              		.cfi_offset 14, -4
  90:.\Generated_Source\PSoC5/SERVO_PWM_PM.c ****         #if(!SERVO_PWM_UsingFixedFunction)
  91:.\Generated_Source\PSoC5/SERVO_PWM_PM.c ****             #if(!SERVO_PWM_PWMModeIsCenterAligned)
  92:.\Generated_Source\PSoC5/SERVO_PWM_PM.c ****                 SERVO_PWM_WritePeriod(SERVO_PWM_backup.PWMPeriod);
  93:.\Generated_Source\PSoC5/SERVO_PWM_PM.c ****             #endif /* (!SERVO_PWM_PWMModeIsCenterAligned) */
  94:.\Generated_Source\PSoC5/SERVO_PWM_PM.c **** 
  95:.\Generated_Source\PSoC5/SERVO_PWM_PM.c ****             SERVO_PWM_WriteCounter(SERVO_PWM_backup.PWMUdb);
  73              		.loc 1 95 0
  74 0002 054C     		ldr	r4, .L5
  75 0004 6078     		ldrb	r0, [r4, #1]	@ zero_extendqisi2
  76 0006 FFF7FEFF 		bl	SERVO_PWM_WriteCounter
ARM GAS  C:\Users\mitchell\AppData\Local\Temp\ccepAJff.s 			page 4


  77              	.LVL2:
  96:.\Generated_Source\PSoC5/SERVO_PWM_PM.c **** 
  97:.\Generated_Source\PSoC5/SERVO_PWM_PM.c ****             #if (SERVO_PWM_UseStatus)
  98:.\Generated_Source\PSoC5/SERVO_PWM_PM.c ****                 SERVO_PWM_STATUS_MASK = SERVO_PWM_backup.InterruptMaskValue;
  78              		.loc 1 98 0
  79 000a A278     		ldrb	r2, [r4, #2]	@ zero_extendqisi2
  80 000c 034B     		ldr	r3, .L5+4
  81 000e 1A70     		strb	r2, [r3]
  99:.\Generated_Source\PSoC5/SERVO_PWM_PM.c ****             #endif /* (SERVO_PWM_UseStatus) */
 100:.\Generated_Source\PSoC5/SERVO_PWM_PM.c **** 
 101:.\Generated_Source\PSoC5/SERVO_PWM_PM.c ****             #if(SERVO_PWM_DeadBandMode == SERVO_PWM__B_PWM__DBM_256_CLOCKS || \
 102:.\Generated_Source\PSoC5/SERVO_PWM_PM.c ****                 SERVO_PWM_DeadBandMode == SERVO_PWM__B_PWM__DBM_2_4_CLOCKS)
 103:.\Generated_Source\PSoC5/SERVO_PWM_PM.c ****                 SERVO_PWM_WriteDeadTime(SERVO_PWM_backup.PWMdeadBandValue);
 104:.\Generated_Source\PSoC5/SERVO_PWM_PM.c ****             #endif /* deadband count is either 2-4 clocks or 256 clocks */
 105:.\Generated_Source\PSoC5/SERVO_PWM_PM.c **** 
 106:.\Generated_Source\PSoC5/SERVO_PWM_PM.c ****             #if(SERVO_PWM_KillModeMinTime)
 107:.\Generated_Source\PSoC5/SERVO_PWM_PM.c ****                 SERVO_PWM_WriteKillTime(SERVO_PWM_backup.PWMKillCounterPeriod);
 108:.\Generated_Source\PSoC5/SERVO_PWM_PM.c ****             #endif /* (SERVO_PWM_KillModeMinTime) */
 109:.\Generated_Source\PSoC5/SERVO_PWM_PM.c **** 
 110:.\Generated_Source\PSoC5/SERVO_PWM_PM.c ****             #if(SERVO_PWM_UseControl)
 111:.\Generated_Source\PSoC5/SERVO_PWM_PM.c ****                 SERVO_PWM_WriteControlRegister(SERVO_PWM_backup.PWMControlRegister);
  82              		.loc 1 111 0
  83 0010 E078     		ldrb	r0, [r4, #3]	@ zero_extendqisi2
  84 0012 FFF7FEFF 		bl	SERVO_PWM_WriteControlRegister
  85              	.LVL3:
  86 0016 10BD     		pop	{r4, pc}
  87              	.L6:
  88              		.align	2
  89              	.L5:
  90 0018 00000000 		.word	.LANCHOR0
  91 001c 81640040 		.word	1073767553
  92              		.cfi_endproc
  93              	.LFE1:
  94              		.size	SERVO_PWM_RestoreConfig, .-SERVO_PWM_RestoreConfig
  95              		.section	.text.SERVO_PWM_Sleep,"ax",%progbits
  96              		.align	2
  97              		.global	SERVO_PWM_Sleep
  98              		.thumb
  99              		.thumb_func
 100              		.type	SERVO_PWM_Sleep, %function
 101              	SERVO_PWM_Sleep:
 102              	.LFB2:
 112:.\Generated_Source\PSoC5/SERVO_PWM_PM.c ****             #endif /* (SERVO_PWM_UseControl) */
 113:.\Generated_Source\PSoC5/SERVO_PWM_PM.c ****         #endif  /* (!SERVO_PWM_UsingFixedFunction) */
 114:.\Generated_Source\PSoC5/SERVO_PWM_PM.c ****     }
 115:.\Generated_Source\PSoC5/SERVO_PWM_PM.c **** 
 116:.\Generated_Source\PSoC5/SERVO_PWM_PM.c **** 
 117:.\Generated_Source\PSoC5/SERVO_PWM_PM.c **** /*******************************************************************************
 118:.\Generated_Source\PSoC5/SERVO_PWM_PM.c **** * Function Name: SERVO_PWM_Sleep
 119:.\Generated_Source\PSoC5/SERVO_PWM_PM.c **** ********************************************************************************
 120:.\Generated_Source\PSoC5/SERVO_PWM_PM.c **** *
 121:.\Generated_Source\PSoC5/SERVO_PWM_PM.c **** * Summary:
 122:.\Generated_Source\PSoC5/SERVO_PWM_PM.c **** *  Disables block's operation and saves the user configuration. Should be called
 123:.\Generated_Source\PSoC5/SERVO_PWM_PM.c **** *  just prior to entering sleep.
 124:.\Generated_Source\PSoC5/SERVO_PWM_PM.c **** *
 125:.\Generated_Source\PSoC5/SERVO_PWM_PM.c **** * Parameters:
 126:.\Generated_Source\PSoC5/SERVO_PWM_PM.c **** *  None
ARM GAS  C:\Users\mitchell\AppData\Local\Temp\ccepAJff.s 			page 5


 127:.\Generated_Source\PSoC5/SERVO_PWM_PM.c **** *
 128:.\Generated_Source\PSoC5/SERVO_PWM_PM.c **** * Return:
 129:.\Generated_Source\PSoC5/SERVO_PWM_PM.c **** *  None
 130:.\Generated_Source\PSoC5/SERVO_PWM_PM.c **** *
 131:.\Generated_Source\PSoC5/SERVO_PWM_PM.c **** * Global variables:
 132:.\Generated_Source\PSoC5/SERVO_PWM_PM.c **** *  SERVO_PWM_backup.PWMEnableState:  Is modified depending on the enable
 133:.\Generated_Source\PSoC5/SERVO_PWM_PM.c **** *  state of the block before entering sleep mode.
 134:.\Generated_Source\PSoC5/SERVO_PWM_PM.c **** *
 135:.\Generated_Source\PSoC5/SERVO_PWM_PM.c **** *******************************************************************************/
 136:.\Generated_Source\PSoC5/SERVO_PWM_PM.c **** void SERVO_PWM_Sleep(void) 
 137:.\Generated_Source\PSoC5/SERVO_PWM_PM.c **** {
 103              		.loc 1 137 0
 104              		.cfi_startproc
 105              		@ args = 0, pretend = 0, frame = 0
 106              		@ frame_needed = 0, uses_anonymous_args = 0
 107 0000 08B5     		push	{r3, lr}
 108              		.cfi_def_cfa_offset 8
 109              		.cfi_offset 3, -8
 110              		.cfi_offset 14, -4
 138:.\Generated_Source\PSoC5/SERVO_PWM_PM.c ****     #if(SERVO_PWM_UseControl)
 139:.\Generated_Source\PSoC5/SERVO_PWM_PM.c ****         if(SERVO_PWM_CTRL_ENABLE == (SERVO_PWM_CONTROL & SERVO_PWM_CTRL_ENABLE))
 111              		.loc 1 139 0
 112 0002 084B     		ldr	r3, .L10
 113 0004 1B78     		ldrb	r3, [r3]	@ zero_extendqisi2
 114 0006 13F0800F 		tst	r3, #128
 115 000a 03D0     		beq	.L8
 140:.\Generated_Source\PSoC5/SERVO_PWM_PM.c ****         {
 141:.\Generated_Source\PSoC5/SERVO_PWM_PM.c ****             /*Component is enabled */
 142:.\Generated_Source\PSoC5/SERVO_PWM_PM.c ****             SERVO_PWM_backup.PWMEnableState = 1u;
 116              		.loc 1 142 0
 117 000c 0122     		movs	r2, #1
 118 000e 064B     		ldr	r3, .L10+4
 119 0010 1A70     		strb	r2, [r3]
 120 0012 02E0     		b	.L9
 121              	.L8:
 143:.\Generated_Source\PSoC5/SERVO_PWM_PM.c ****         }
 144:.\Generated_Source\PSoC5/SERVO_PWM_PM.c ****         else
 145:.\Generated_Source\PSoC5/SERVO_PWM_PM.c ****         {
 146:.\Generated_Source\PSoC5/SERVO_PWM_PM.c ****             /* Component is disabled */
 147:.\Generated_Source\PSoC5/SERVO_PWM_PM.c ****             SERVO_PWM_backup.PWMEnableState = 0u;
 122              		.loc 1 147 0
 123 0014 0022     		movs	r2, #0
 124 0016 044B     		ldr	r3, .L10+4
 125 0018 1A70     		strb	r2, [r3]
 126              	.L9:
 148:.\Generated_Source\PSoC5/SERVO_PWM_PM.c ****         }
 149:.\Generated_Source\PSoC5/SERVO_PWM_PM.c ****     #endif /* (SERVO_PWM_UseControl) */
 150:.\Generated_Source\PSoC5/SERVO_PWM_PM.c **** 
 151:.\Generated_Source\PSoC5/SERVO_PWM_PM.c ****     /* Stop component */
 152:.\Generated_Source\PSoC5/SERVO_PWM_PM.c ****     SERVO_PWM_Stop();
 127              		.loc 1 152 0
 128 001a FFF7FEFF 		bl	SERVO_PWM_Stop
 129              	.LVL4:
 153:.\Generated_Source\PSoC5/SERVO_PWM_PM.c **** 
 154:.\Generated_Source\PSoC5/SERVO_PWM_PM.c ****     /* Save registers configuration */
 155:.\Generated_Source\PSoC5/SERVO_PWM_PM.c ****     SERVO_PWM_SaveConfig();
 130              		.loc 1 155 0
ARM GAS  C:\Users\mitchell\AppData\Local\Temp\ccepAJff.s 			page 6


 131 001e FFF7FEFF 		bl	SERVO_PWM_SaveConfig
 132              	.LVL5:
 133 0022 08BD     		pop	{r3, pc}
 134              	.L11:
 135              		.align	2
 136              	.L10:
 137 0024 71640040 		.word	1073767537
 138 0028 00000000 		.word	.LANCHOR0
 139              		.cfi_endproc
 140              	.LFE2:
 141              		.size	SERVO_PWM_Sleep, .-SERVO_PWM_Sleep
 142              		.section	.text.SERVO_PWM_Wakeup,"ax",%progbits
 143              		.align	2
 144              		.global	SERVO_PWM_Wakeup
 145              		.thumb
 146              		.thumb_func
 147              		.type	SERVO_PWM_Wakeup, %function
 148              	SERVO_PWM_Wakeup:
 149              	.LFB3:
 156:.\Generated_Source\PSoC5/SERVO_PWM_PM.c **** }
 157:.\Generated_Source\PSoC5/SERVO_PWM_PM.c **** 
 158:.\Generated_Source\PSoC5/SERVO_PWM_PM.c **** 
 159:.\Generated_Source\PSoC5/SERVO_PWM_PM.c **** /*******************************************************************************
 160:.\Generated_Source\PSoC5/SERVO_PWM_PM.c **** * Function Name: SERVO_PWM_Wakeup
 161:.\Generated_Source\PSoC5/SERVO_PWM_PM.c **** ********************************************************************************
 162:.\Generated_Source\PSoC5/SERVO_PWM_PM.c **** *
 163:.\Generated_Source\PSoC5/SERVO_PWM_PM.c **** * Summary:
 164:.\Generated_Source\PSoC5/SERVO_PWM_PM.c **** *  Restores and enables the user configuration. Should be called just after
 165:.\Generated_Source\PSoC5/SERVO_PWM_PM.c **** *  awaking from sleep.
 166:.\Generated_Source\PSoC5/SERVO_PWM_PM.c **** *
 167:.\Generated_Source\PSoC5/SERVO_PWM_PM.c **** * Parameters:
 168:.\Generated_Source\PSoC5/SERVO_PWM_PM.c **** *  None
 169:.\Generated_Source\PSoC5/SERVO_PWM_PM.c **** *
 170:.\Generated_Source\PSoC5/SERVO_PWM_PM.c **** * Return:
 171:.\Generated_Source\PSoC5/SERVO_PWM_PM.c **** *  None
 172:.\Generated_Source\PSoC5/SERVO_PWM_PM.c **** *
 173:.\Generated_Source\PSoC5/SERVO_PWM_PM.c **** * Global variables:
 174:.\Generated_Source\PSoC5/SERVO_PWM_PM.c **** *  SERVO_PWM_backup.pwmEnable:  Is used to restore the enable state of
 175:.\Generated_Source\PSoC5/SERVO_PWM_PM.c **** *  block on wakeup from sleep mode.
 176:.\Generated_Source\PSoC5/SERVO_PWM_PM.c **** *
 177:.\Generated_Source\PSoC5/SERVO_PWM_PM.c **** *******************************************************************************/
 178:.\Generated_Source\PSoC5/SERVO_PWM_PM.c **** void SERVO_PWM_Wakeup(void) 
 179:.\Generated_Source\PSoC5/SERVO_PWM_PM.c **** {
 150              		.loc 1 179 0
 151              		.cfi_startproc
 152              		@ args = 0, pretend = 0, frame = 0
 153              		@ frame_needed = 0, uses_anonymous_args = 0
 154 0000 08B5     		push	{r3, lr}
 155              		.cfi_def_cfa_offset 8
 156              		.cfi_offset 3, -8
 157              		.cfi_offset 14, -4
 180:.\Generated_Source\PSoC5/SERVO_PWM_PM.c ****      /* Restore registers values */
 181:.\Generated_Source\PSoC5/SERVO_PWM_PM.c ****     SERVO_PWM_RestoreConfig();
 158              		.loc 1 181 0
 159 0002 FFF7FEFF 		bl	SERVO_PWM_RestoreConfig
 160              	.LVL6:
 182:.\Generated_Source\PSoC5/SERVO_PWM_PM.c **** 
ARM GAS  C:\Users\mitchell\AppData\Local\Temp\ccepAJff.s 			page 7


 183:.\Generated_Source\PSoC5/SERVO_PWM_PM.c ****     if(SERVO_PWM_backup.PWMEnableState != 0u)
 161              		.loc 1 183 0
 162 0006 034B     		ldr	r3, .L14
 163 0008 1B78     		ldrb	r3, [r3]	@ zero_extendqisi2
 164 000a 0BB1     		cbz	r3, .L12
 184:.\Generated_Source\PSoC5/SERVO_PWM_PM.c ****     {
 185:.\Generated_Source\PSoC5/SERVO_PWM_PM.c ****         /* Enable component's operation */
 186:.\Generated_Source\PSoC5/SERVO_PWM_PM.c ****         SERVO_PWM_Enable();
 165              		.loc 1 186 0
 166 000c FFF7FEFF 		bl	SERVO_PWM_Enable
 167              	.LVL7:
 168              	.L12:
 169 0010 08BD     		pop	{r3, pc}
 170              	.L15:
 171 0012 00BF     		.align	2
 172              	.L14:
 173 0014 00000000 		.word	.LANCHOR0
 174              		.cfi_endproc
 175              	.LFE3:
 176              		.size	SERVO_PWM_Wakeup, .-SERVO_PWM_Wakeup
 177              		.bss
 178              		.align	2
 179              		.set	.LANCHOR0,. + 0
 180              		.type	SERVO_PWM_backup, %object
 181              		.size	SERVO_PWM_backup, 4
 182              	SERVO_PWM_backup:
 183 0000 00000000 		.space	4
 184              		.text
 185              	.Letext0:
 186              		.file 2 ".\\Generated_Source\\PSoC5\\cytypes.h"
 187              		.file 3 ".\\Generated_Source\\PSoC5\\SERVO_PWM.h"