ARM GAS  C:\Users\mitchell\AppData\Local\Temp\ccMSmGqj.s 			page 1


   1              		.syntax unified
   2              		.cpu cortex-m3
   3              		.fpu softvfp
   4              		.eabi_attribute 20, 1
   5              		.eabi_attribute 21, 1
   6              		.eabi_attribute 23, 3
   7              		.eabi_attribute 24, 1
   8              		.eabi_attribute 25, 1
   9              		.eabi_attribute 26, 1
  10              		.eabi_attribute 30, 1
  11              		.eabi_attribute 34, 1
  12              		.eabi_attribute 18, 4
  13              		.thumb
  14              		.file	"signal_processing.c"
  15              		.text
  16              	.Ltext0:
  17              		.cfi_sections	.debug_frame
  18              		.global	__aeabi_ui2f
  19              		.global	__aeabi_fdiv
  20              		.section	.text.convertToPercent,"ax",%progbits
  21              		.align	2
  22              		.global	convertToPercent
  23              		.thumb
  24              		.thumb_func
  25              		.type	convertToPercent, %function
  26              	convertToPercent:
  27              	.LFB0:
  28              		.file 1 ".\\signal_processing.c"
   1:.\signal_processing.c ****  /* ========================================
   2:.\signal_processing.c ****     A collection of functions that do the brunt
   3:.\signal_processing.c ****     of the I/O processing and calculation work
   4:.\signal_processing.c ****     needed for the E-Throttle.
   5:.\signal_processing.c **** 
   6:.\signal_processing.c ****     Author: Mitchell Mellone (mellom3@rpi.edu)
   7:.\signal_processing.c ****     Date Created: 12/28/15
   8:.\signal_processing.c ****     Most Recent Modification: 12/28/15
   9:.\signal_processing.c ****     Version 0.1.0
  10:.\signal_processing.c **** 
  11:.\signal_processing.c ****     Copyright (c) 2015 Rensselaer Motorsport
  12:.\signal_processing.c ****     Distributed under the MIT License.
  13:.\signal_processing.c ****     See "LICENSE" for more information.
  14:.\signal_processing.c ****  * ========================================
  15:.\signal_processing.c **** */
  16:.\signal_processing.c **** 
  17:.\signal_processing.c **** #include "signal_processing.h"
  18:.\signal_processing.c **** #include "error.h"
  19:.\signal_processing.c **** 
  20:.\signal_processing.c **** /*
  21:.\signal_processing.c **** parameters: count - The current count returned by
  22:.\signal_processing.c ****                    an ADC
  23:.\signal_processing.c ****             type - The type of sensor
  24:.\signal_processing.c **** return: A percentage of the maximum possible count
  25:.\signal_processing.c ****         If the type is not defined it will return 0.0
  26:.\signal_processing.c **** */
  27:.\signal_processing.c **** float convertToPercent(uint16 count, sensor type) {
  29              		.loc 1 27 0
  30              		.cfi_startproc
ARM GAS  C:\Users\mitchell\AppData\Local\Temp\ccMSmGqj.s 			page 2


  31              		@ args = 0, pretend = 0, frame = 0
  32              		@ frame_needed = 0, uses_anonymous_args = 0
  33              	.LVL0:
  34 0000 08B5     		push	{r3, lr}
  35              		.cfi_def_cfa_offset 8
  36              		.cfi_offset 3, -8
  37              		.cfi_offset 14, -4
  28:.\signal_processing.c ****     float percent;
  29:.\signal_processing.c ****     switch (type) {
  38              		.loc 1 29 0
  39 0002 11B1     		cbz	r1, .L3
  40 0004 0129     		cmp	r1, #1
  41 0006 06D0     		beq	.L4
  42 0008 0BE0     		b	.L6
  43              	.L3:
  30:.\signal_processing.c ****         case TPS:
  31:.\signal_processing.c ****             percent = (float) count / MAX_TPS_COUNT;
  44              		.loc 1 31 0
  45 000a FFF7FEFF 		bl	__aeabi_ui2f
  46              	.LVL1:
  47 000e 0649     		ldr	r1, .L7
  48 0010 FFF7FEFF 		bl	__aeabi_fdiv
  49              	.LVL2:
  32:.\signal_processing.c ****             break;
  50              		.loc 1 32 0
  51 0014 08BD     		pop	{r3, pc}
  52              	.LVL3:
  53              	.L4:
  33:.\signal_processing.c ****         case APPS:
  34:.\signal_processing.c ****             percent = (float) count / MAX_APPS_COUNT;
  54              		.loc 1 34 0
  55 0016 FFF7FEFF 		bl	__aeabi_ui2f
  56              	.LVL4:
  57 001a 0349     		ldr	r1, .L7
  58 001c FFF7FEFF 		bl	__aeabi_fdiv
  59              	.LVL5:
  35:.\signal_processing.c ****             break;
  60              		.loc 1 35 0
  61 0020 08BD     		pop	{r3, pc}
  62              	.LVL6:
  63              	.L6:
  36:.\signal_processing.c ****         default:
  37:.\signal_processing.c ****             percent = 0.0;
  64              		.loc 1 37 0
  65 0022 0020     		movs	r0, #0
  66              	.LVL7:
  38:.\signal_processing.c ****     }
  39:.\signal_processing.c ****     return percent;
  40:.\signal_processing.c **** }
  67              		.loc 1 40 0
  68 0024 08BD     		pop	{r3, pc}
  69              	.L8:
  70 0026 00BF     		.align	2
  71              	.L7:
  72 0028 0000C843 		.word	1137180672
  73              		.cfi_endproc
  74              	.LFE0:
ARM GAS  C:\Users\mitchell\AppData\Local\Temp\ccMSmGqj.s 			page 3


  75              		.size	convertToPercent, .-convertToPercent
  76              		.global	__aeabi_fadd
  77              		.global	__aeabi_fmul
  78              		.section	.text.average,"ax",%progbits
  79              		.align	2
  80              		.global	average
  81              		.thumb
  82              		.thumb_func
  83              		.type	average, %function
  84              	average:
  85              	.LFB1:
  41:.\signal_processing.c **** 
  42:.\signal_processing.c **** /*
  43:.\signal_processing.c **** parameters: s0 - Percent that sensor 0 is open
  44:.\signal_processing.c ****             s1 - Percent that sensor 1 is open
  45:.\signal_processing.c **** effect: Checks for implausibility, then averages 
  46:.\signal_processing.c ****         the values
  47:.\signal_processing.c **** return: ERROR if there is an implausibility,
  48:.\signal_processing.c ****         The average of the sensors otherwise
  49:.\signal_processing.c **** */
  50:.\signal_processing.c **** float average(float s0, float s1) {
  86              		.loc 1 50 0
  87              		.cfi_startproc
  88              		@ args = 0, pretend = 0, frame = 0
  89              		@ frame_needed = 0, uses_anonymous_args = 0
  90              	.LVL8:
  91 0000 38B5     		push	{r3, r4, r5, lr}
  92              		.cfi_def_cfa_offset 16
  93              		.cfi_offset 3, -16
  94              		.cfi_offset 4, -12
  95              		.cfi_offset 5, -8
  96              		.cfi_offset 14, -4
  97 0002 0546     		mov	r5, r0
  98 0004 0C46     		mov	r4, r1
  51:.\signal_processing.c ****     if(localImplausibility(s0, s1) == ERROR) {
  99              		.loc 1 51 0
 100 0006 FFF7FEFF 		bl	localImplausibility
 101              	.LVL9:
 102 000a B0F1FF3F 		cmp	r0, #-1
 103 000e 08D0     		beq	.L11
  52:.\signal_processing.c ****         return ERROR;
  53:.\signal_processing.c ****     }
  54:.\signal_processing.c ****     return ((s0 + s1) / 2.0);
 104              		.loc 1 54 0
 105 0010 2846     		mov	r0, r5
 106 0012 2146     		mov	r1, r4
 107 0014 FFF7FEFF 		bl	__aeabi_fadd
 108              	.LVL10:
 109 0018 4FF07C51 		mov	r1, #1056964608
 110 001c FFF7FEFF 		bl	__aeabi_fmul
 111              	.LVL11:
 112 0020 38BD     		pop	{r3, r4, r5, pc}
 113              	.LVL12:
 114              	.L11:
  52:.\signal_processing.c ****         return ERROR;
 115              		.loc 1 52 0
 116 0022 0148     		ldr	r0, .L12
ARM GAS  C:\Users\mitchell\AppData\Local\Temp\ccMSmGqj.s 			page 4


  55:.\signal_processing.c **** }
 117              		.loc 1 55 0
 118 0024 38BD     		pop	{r3, r4, r5, pc}
 119              	.LVL13:
 120              	.L13:
 121 0026 00BF     		.align	2
 122              	.L12:
 123 0028 000080BF 		.word	-1082130432
 124              		.cfi_endproc
 125              	.LFE1:
 126              		.size	average, .-average
 127              		.section	.text.nextThrottlePosition,"ax",%progbits
 128              		.align	2
 129              		.global	nextThrottlePosition
 130              		.thumb
 131              		.thumb_func
 132              		.type	nextThrottlePosition, %function
 133              	nextThrottlePosition:
 134              	.LFB2:
  56:.\signal_processing.c **** 
  57:.\signal_processing.c **** /*
  58:.\signal_processing.c **** parameters: tpsPos - The current throttle percentage
  59:.\signal_processing.c ****             appsPos - The requested throttle percentage
  60:.\signal_processing.c **** effect: Checks for implausability between the tps and apps
  61:.\signal_processing.c ****         signals, and then calculates the next position of
  62:.\signal_processing.c ****         the throttle actuator.
  63:.\signal_processing.c **** return: ERROR if there is an implausibility, the next
  64:.\signal_processing.c ****         desired servo position otherwise.
  65:.\signal_processing.c **** */
  66:.\signal_processing.c **** 
  67:.\signal_processing.c **** float nextThrottlePosition(float requested_pos, float current_pos) {
 135              		.loc 1 67 0
 136              		.cfi_startproc
 137              		@ args = 0, pretend = 0, frame = 0
 138              		@ frame_needed = 0, uses_anonymous_args = 0
 139              		@ link register save eliminated.
 140              	.LVL14:
  68:.\signal_processing.c ****     return 0.0;
  69:.\signal_processing.c **** }
 141              		.loc 1 69 0
 142 0000 0020     		movs	r0, #0
 143              	.LVL15:
 144 0002 7047     		bx	lr
 145              		.cfi_endproc
 146              	.LFE2:
 147              		.size	nextThrottlePosition, .-nextThrottlePosition
 148              		.text
 149              	.Letext0:
 150              		.file 2 "Generated_Source\\PSoC5/cytypes.h"
 151              		.file 3 ".\\signal_processing.h"
 152              		.file 4 ".\\error.h"