ARM GAS  C:\Users\mitchell\AppData\Local\Temp\ccejfoB5.s 			page 1


   1              		.syntax unified
   2              		.cpu cortex-m3
   3              		.fpu softvfp
   4              		.eabi_attribute 20, 1
   5              		.eabi_attribute 21, 1
   6              		.eabi_attribute 23, 3
   7              		.eabi_attribute 24, 1
   8              		.eabi_attribute 25, 1
   9              		.eabi_attribute 26, 1
  10              		.eabi_attribute 30, 1
  11              		.eabi_attribute 34, 1
  12              		.eabi_attribute 18, 4
  13              		.thumb
  14              		.file	"TPS_ADC_SAR.c"
  15              		.text
  16              	.Ltext0:
  17              		.cfi_sections	.debug_frame
  18              		.section	.text.TPS_ADC_SAR_CalcGain,"ax",%progbits
  19              		.align	2
  20              		.thumb
  21              		.thumb_func
  22              		.type	TPS_ADC_SAR_CalcGain, %function
  23              	TPS_ADC_SAR_CalcGain:
  24              	.LFB12:
  25              		.file 1 ".\\Generated_Source\\PSoC5\\TPS_ADC_SAR.c"
   1:.\Generated_Source\PSoC5/TPS_ADC_SAR.c **** /*******************************************************************************
   2:.\Generated_Source\PSoC5/TPS_ADC_SAR.c **** * File Name: TPS_ADC_SAR.c
   3:.\Generated_Source\PSoC5/TPS_ADC_SAR.c **** * Version 3.0
   4:.\Generated_Source\PSoC5/TPS_ADC_SAR.c **** *
   5:.\Generated_Source\PSoC5/TPS_ADC_SAR.c **** * Description:
   6:.\Generated_Source\PSoC5/TPS_ADC_SAR.c **** *  This file provides the source code to the API for the Successive
   7:.\Generated_Source\PSoC5/TPS_ADC_SAR.c **** *  approximation ADC Component.
   8:.\Generated_Source\PSoC5/TPS_ADC_SAR.c **** *
   9:.\Generated_Source\PSoC5/TPS_ADC_SAR.c **** * Note:
  10:.\Generated_Source\PSoC5/TPS_ADC_SAR.c **** *
  11:.\Generated_Source\PSoC5/TPS_ADC_SAR.c **** ********************************************************************************
  12:.\Generated_Source\PSoC5/TPS_ADC_SAR.c **** * Copyright 2008-2015, Cypress Semiconductor Corporation.  All rights reserved.
  13:.\Generated_Source\PSoC5/TPS_ADC_SAR.c **** * You may use this file only in accordance with the license, terms, conditions,
  14:.\Generated_Source\PSoC5/TPS_ADC_SAR.c **** * disclaimers, and limitations in the end user license agreement accompanying
  15:.\Generated_Source\PSoC5/TPS_ADC_SAR.c **** * the software package with which this file was provided.
  16:.\Generated_Source\PSoC5/TPS_ADC_SAR.c **** *******************************************************************************/
  17:.\Generated_Source\PSoC5/TPS_ADC_SAR.c **** 
  18:.\Generated_Source\PSoC5/TPS_ADC_SAR.c **** #include "CyLib.h"
  19:.\Generated_Source\PSoC5/TPS_ADC_SAR.c **** #include "TPS_ADC_SAR.h"
  20:.\Generated_Source\PSoC5/TPS_ADC_SAR.c **** 
  21:.\Generated_Source\PSoC5/TPS_ADC_SAR.c **** #if(TPS_ADC_SAR_DEFAULT_INTERNAL_CLK)
  22:.\Generated_Source\PSoC5/TPS_ADC_SAR.c ****     #include "TPS_ADC_SAR_theACLK.h"
  23:.\Generated_Source\PSoC5/TPS_ADC_SAR.c **** #endif /* End TPS_ADC_SAR_DEFAULT_INTERNAL_CLK */
  24:.\Generated_Source\PSoC5/TPS_ADC_SAR.c **** 
  25:.\Generated_Source\PSoC5/TPS_ADC_SAR.c **** 
  26:.\Generated_Source\PSoC5/TPS_ADC_SAR.c **** /***************************************
  27:.\Generated_Source\PSoC5/TPS_ADC_SAR.c **** * Forward function references
  28:.\Generated_Source\PSoC5/TPS_ADC_SAR.c **** ***************************************/
  29:.\Generated_Source\PSoC5/TPS_ADC_SAR.c **** static void TPS_ADC_SAR_CalcGain(uint8 resolution);
  30:.\Generated_Source\PSoC5/TPS_ADC_SAR.c **** 
  31:.\Generated_Source\PSoC5/TPS_ADC_SAR.c **** 
  32:.\Generated_Source\PSoC5/TPS_ADC_SAR.c **** /***************************************
ARM GAS  C:\Users\mitchell\AppData\Local\Temp\ccejfoB5.s 			page 2


  33:.\Generated_Source\PSoC5/TPS_ADC_SAR.c **** * Global data allocation
  34:.\Generated_Source\PSoC5/TPS_ADC_SAR.c **** ***************************************/
  35:.\Generated_Source\PSoC5/TPS_ADC_SAR.c **** uint8 TPS_ADC_SAR_initVar = 0u;
  36:.\Generated_Source\PSoC5/TPS_ADC_SAR.c **** volatile int16 TPS_ADC_SAR_offset;
  37:.\Generated_Source\PSoC5/TPS_ADC_SAR.c **** volatile int16 TPS_ADC_SAR_countsPerVolt;     /* Obsolete Gain compensation */
  38:.\Generated_Source\PSoC5/TPS_ADC_SAR.c **** volatile int32 TPS_ADC_SAR_countsPer10Volt;   /* Gain compensation */
  39:.\Generated_Source\PSoC5/TPS_ADC_SAR.c **** volatile int16 TPS_ADC_SAR_shift;
  40:.\Generated_Source\PSoC5/TPS_ADC_SAR.c **** 
  41:.\Generated_Source\PSoC5/TPS_ADC_SAR.c **** 
  42:.\Generated_Source\PSoC5/TPS_ADC_SAR.c **** /*******************************************************************************
  43:.\Generated_Source\PSoC5/TPS_ADC_SAR.c **** * Function Name: TPS_ADC_SAR_Start
  44:.\Generated_Source\PSoC5/TPS_ADC_SAR.c **** ********************************************************************************
  45:.\Generated_Source\PSoC5/TPS_ADC_SAR.c **** *
  46:.\Generated_Source\PSoC5/TPS_ADC_SAR.c **** * Summary:
  47:.\Generated_Source\PSoC5/TPS_ADC_SAR.c **** *  This is the preferred method to begin component operation.
  48:.\Generated_Source\PSoC5/TPS_ADC_SAR.c **** *  TPS_ADC_SAR_Start() sets the initVar variable, calls the
  49:.\Generated_Source\PSoC5/TPS_ADC_SAR.c **** *  TPS_ADC_SAR_Init() function, and then calls the
  50:.\Generated_Source\PSoC5/TPS_ADC_SAR.c **** *  TPS_ADC_SAR_Enable() function.
  51:.\Generated_Source\PSoC5/TPS_ADC_SAR.c **** *
  52:.\Generated_Source\PSoC5/TPS_ADC_SAR.c **** * Parameters:
  53:.\Generated_Source\PSoC5/TPS_ADC_SAR.c **** *  None.
  54:.\Generated_Source\PSoC5/TPS_ADC_SAR.c **** *
  55:.\Generated_Source\PSoC5/TPS_ADC_SAR.c **** * Return:
  56:.\Generated_Source\PSoC5/TPS_ADC_SAR.c **** *  None.
  57:.\Generated_Source\PSoC5/TPS_ADC_SAR.c **** *
  58:.\Generated_Source\PSoC5/TPS_ADC_SAR.c **** * Global variables:
  59:.\Generated_Source\PSoC5/TPS_ADC_SAR.c **** *  The TPS_ADC_SAR_initVar variable is used to indicate when/if initial
  60:.\Generated_Source\PSoC5/TPS_ADC_SAR.c **** *  configuration of this component has happened. The variable is initialized to
  61:.\Generated_Source\PSoC5/TPS_ADC_SAR.c **** *  zero and set to 1 the first time ADC_Start() is called. This allows for
  62:.\Generated_Source\PSoC5/TPS_ADC_SAR.c **** *  component Re-Start without re-initialization in all subsequent calls to the
  63:.\Generated_Source\PSoC5/TPS_ADC_SAR.c **** *  TPS_ADC_SAR_Start() routine.
  64:.\Generated_Source\PSoC5/TPS_ADC_SAR.c **** *  If re-initialization of the component is required the variable should be set
  65:.\Generated_Source\PSoC5/TPS_ADC_SAR.c **** *  to zero before call of TPS_ADC_SAR_Start() routine, or the user may call
  66:.\Generated_Source\PSoC5/TPS_ADC_SAR.c **** *  TPS_ADC_SAR_Init() and TPS_ADC_SAR_Enable() as done in the
  67:.\Generated_Source\PSoC5/TPS_ADC_SAR.c **** *  TPS_ADC_SAR_Start() routine.
  68:.\Generated_Source\PSoC5/TPS_ADC_SAR.c **** *
  69:.\Generated_Source\PSoC5/TPS_ADC_SAR.c **** * Side Effect:
  70:.\Generated_Source\PSoC5/TPS_ADC_SAR.c **** *  If the initVar variable is already set, this function only calls the
  71:.\Generated_Source\PSoC5/TPS_ADC_SAR.c **** *  TPS_ADC_SAR_Enable() function.
  72:.\Generated_Source\PSoC5/TPS_ADC_SAR.c **** *
  73:.\Generated_Source\PSoC5/TPS_ADC_SAR.c **** *******************************************************************************/
  74:.\Generated_Source\PSoC5/TPS_ADC_SAR.c **** void TPS_ADC_SAR_Start(void)
  75:.\Generated_Source\PSoC5/TPS_ADC_SAR.c **** {
  76:.\Generated_Source\PSoC5/TPS_ADC_SAR.c **** 
  77:.\Generated_Source\PSoC5/TPS_ADC_SAR.c ****     /* If not Initialized then initialize all required hardware and software */
  78:.\Generated_Source\PSoC5/TPS_ADC_SAR.c ****     if(TPS_ADC_SAR_initVar == 0u)
  79:.\Generated_Source\PSoC5/TPS_ADC_SAR.c ****     {
  80:.\Generated_Source\PSoC5/TPS_ADC_SAR.c ****         TPS_ADC_SAR_Init();
  81:.\Generated_Source\PSoC5/TPS_ADC_SAR.c ****         TPS_ADC_SAR_initVar = 1u;
  82:.\Generated_Source\PSoC5/TPS_ADC_SAR.c ****     }
  83:.\Generated_Source\PSoC5/TPS_ADC_SAR.c ****     TPS_ADC_SAR_Enable();
  84:.\Generated_Source\PSoC5/TPS_ADC_SAR.c **** }
  85:.\Generated_Source\PSoC5/TPS_ADC_SAR.c **** 
  86:.\Generated_Source\PSoC5/TPS_ADC_SAR.c **** 
  87:.\Generated_Source\PSoC5/TPS_ADC_SAR.c **** /*******************************************************************************
  88:.\Generated_Source\PSoC5/TPS_ADC_SAR.c **** * Function Name: TPS_ADC_SAR_Init
  89:.\Generated_Source\PSoC5/TPS_ADC_SAR.c **** ********************************************************************************
ARM GAS  C:\Users\mitchell\AppData\Local\Temp\ccejfoB5.s 			page 3


  90:.\Generated_Source\PSoC5/TPS_ADC_SAR.c **** *
  91:.\Generated_Source\PSoC5/TPS_ADC_SAR.c **** * Summary:
  92:.\Generated_Source\PSoC5/TPS_ADC_SAR.c **** *  Initialize component's parameters to the parameters set by user in the
  93:.\Generated_Source\PSoC5/TPS_ADC_SAR.c **** *  customizer of the component placed onto schematic. Usually called in
  94:.\Generated_Source\PSoC5/TPS_ADC_SAR.c **** *  TPS_ADC_SAR_Start().
  95:.\Generated_Source\PSoC5/TPS_ADC_SAR.c **** *
  96:.\Generated_Source\PSoC5/TPS_ADC_SAR.c **** * Parameters:
  97:.\Generated_Source\PSoC5/TPS_ADC_SAR.c **** *  None.
  98:.\Generated_Source\PSoC5/TPS_ADC_SAR.c **** *
  99:.\Generated_Source\PSoC5/TPS_ADC_SAR.c **** * Return:
 100:.\Generated_Source\PSoC5/TPS_ADC_SAR.c **** *  None.
 101:.\Generated_Source\PSoC5/TPS_ADC_SAR.c **** *
 102:.\Generated_Source\PSoC5/TPS_ADC_SAR.c **** * Global variables:
 103:.\Generated_Source\PSoC5/TPS_ADC_SAR.c **** *  The TPS_ADC_SAR_offset variable is initialized to 0.
 104:.\Generated_Source\PSoC5/TPS_ADC_SAR.c **** *
 105:.\Generated_Source\PSoC5/TPS_ADC_SAR.c **** *******************************************************************************/
 106:.\Generated_Source\PSoC5/TPS_ADC_SAR.c **** void TPS_ADC_SAR_Init(void)
 107:.\Generated_Source\PSoC5/TPS_ADC_SAR.c **** {
 108:.\Generated_Source\PSoC5/TPS_ADC_SAR.c **** 
 109:.\Generated_Source\PSoC5/TPS_ADC_SAR.c ****     /* This is only valid if there is an internal clock */
 110:.\Generated_Source\PSoC5/TPS_ADC_SAR.c ****     #if(TPS_ADC_SAR_DEFAULT_INTERNAL_CLK)
 111:.\Generated_Source\PSoC5/TPS_ADC_SAR.c ****         TPS_ADC_SAR_theACLK_SetMode(CYCLK_DUTY);
 112:.\Generated_Source\PSoC5/TPS_ADC_SAR.c ****     #endif /* End TPS_ADC_SAR_DEFAULT_INTERNAL_CLK */
 113:.\Generated_Source\PSoC5/TPS_ADC_SAR.c **** 
 114:.\Generated_Source\PSoC5/TPS_ADC_SAR.c ****     #if(TPS_ADC_SAR_IRQ_REMOVE == 0u)
 115:.\Generated_Source\PSoC5/TPS_ADC_SAR.c ****         /* Start and set interrupt vector */
 116:.\Generated_Source\PSoC5/TPS_ADC_SAR.c ****         CyIntSetPriority(TPS_ADC_SAR_INTC_NUMBER, TPS_ADC_SAR_INTC_PRIOR_NUMBER);
 117:.\Generated_Source\PSoC5/TPS_ADC_SAR.c ****         (void)CyIntSetVector(TPS_ADC_SAR_INTC_NUMBER, &TPS_ADC_SAR_ISR);
 118:.\Generated_Source\PSoC5/TPS_ADC_SAR.c ****     #endif   /* End TPS_ADC_SAR_IRQ_REMOVE */
 119:.\Generated_Source\PSoC5/TPS_ADC_SAR.c **** 
 120:.\Generated_Source\PSoC5/TPS_ADC_SAR.c ****     /* Enable IRQ mode*/
 121:.\Generated_Source\PSoC5/TPS_ADC_SAR.c ****     TPS_ADC_SAR_SAR_CSR1_REG |= TPS_ADC_SAR_SAR_IRQ_MASK_EN | TPS_ADC_SAR_SAR_IRQ_MODE_EDGE;
 122:.\Generated_Source\PSoC5/TPS_ADC_SAR.c **** 
 123:.\Generated_Source\PSoC5/TPS_ADC_SAR.c ****     /*Set SAR ADC resolution ADC */
 124:.\Generated_Source\PSoC5/TPS_ADC_SAR.c ****     TPS_ADC_SAR_SetResolution(TPS_ADC_SAR_DEFAULT_RESOLUTION);
 125:.\Generated_Source\PSoC5/TPS_ADC_SAR.c ****     TPS_ADC_SAR_offset = 0;
 126:.\Generated_Source\PSoC5/TPS_ADC_SAR.c **** }
 127:.\Generated_Source\PSoC5/TPS_ADC_SAR.c **** 
 128:.\Generated_Source\PSoC5/TPS_ADC_SAR.c **** 
 129:.\Generated_Source\PSoC5/TPS_ADC_SAR.c **** /*******************************************************************************
 130:.\Generated_Source\PSoC5/TPS_ADC_SAR.c **** * Function Name: TPS_ADC_SAR_Enable
 131:.\Generated_Source\PSoC5/TPS_ADC_SAR.c **** ********************************************************************************
 132:.\Generated_Source\PSoC5/TPS_ADC_SAR.c **** *
 133:.\Generated_Source\PSoC5/TPS_ADC_SAR.c **** * Summary:
 134:.\Generated_Source\PSoC5/TPS_ADC_SAR.c **** *  Enables the reference, clock and power for SAR ADC.
 135:.\Generated_Source\PSoC5/TPS_ADC_SAR.c **** *
 136:.\Generated_Source\PSoC5/TPS_ADC_SAR.c **** * Parameters:
 137:.\Generated_Source\PSoC5/TPS_ADC_SAR.c **** *  None.
 138:.\Generated_Source\PSoC5/TPS_ADC_SAR.c **** *
 139:.\Generated_Source\PSoC5/TPS_ADC_SAR.c **** * Return:
 140:.\Generated_Source\PSoC5/TPS_ADC_SAR.c **** *  None.
 141:.\Generated_Source\PSoC5/TPS_ADC_SAR.c **** *
 142:.\Generated_Source\PSoC5/TPS_ADC_SAR.c **** *******************************************************************************/
 143:.\Generated_Source\PSoC5/TPS_ADC_SAR.c **** void TPS_ADC_SAR_Enable(void)
 144:.\Generated_Source\PSoC5/TPS_ADC_SAR.c **** {
 145:.\Generated_Source\PSoC5/TPS_ADC_SAR.c ****     uint8 tmpReg;
 146:.\Generated_Source\PSoC5/TPS_ADC_SAR.c ****     uint8 enableInterrupts;
ARM GAS  C:\Users\mitchell\AppData\Local\Temp\ccejfoB5.s 			page 4


 147:.\Generated_Source\PSoC5/TPS_ADC_SAR.c ****     enableInterrupts = CyEnterCriticalSection();
 148:.\Generated_Source\PSoC5/TPS_ADC_SAR.c **** 
 149:.\Generated_Source\PSoC5/TPS_ADC_SAR.c ****     /* Enable the SAR ADC block in Active Power Mode */
 150:.\Generated_Source\PSoC5/TPS_ADC_SAR.c ****     TPS_ADC_SAR_PWRMGR_SAR_REG |= TPS_ADC_SAR_ACT_PWR_SAR_EN;
 151:.\Generated_Source\PSoC5/TPS_ADC_SAR.c **** 
 152:.\Generated_Source\PSoC5/TPS_ADC_SAR.c ****      /* Enable the SAR ADC in Standby Power Mode*/
 153:.\Generated_Source\PSoC5/TPS_ADC_SAR.c ****     TPS_ADC_SAR_STBY_PWRMGR_SAR_REG |= TPS_ADC_SAR_STBY_PWR_SAR_EN;
 154:.\Generated_Source\PSoC5/TPS_ADC_SAR.c **** 
 155:.\Generated_Source\PSoC5/TPS_ADC_SAR.c ****     /* This is only valid if there is an internal clock */
 156:.\Generated_Source\PSoC5/TPS_ADC_SAR.c ****     #if(TPS_ADC_SAR_DEFAULT_INTERNAL_CLK)
 157:.\Generated_Source\PSoC5/TPS_ADC_SAR.c ****         TPS_ADC_SAR_PWRMGR_CLK_REG |= TPS_ADC_SAR_ACT_PWR_CLK_EN;
 158:.\Generated_Source\PSoC5/TPS_ADC_SAR.c ****         TPS_ADC_SAR_STBY_PWRMGR_CLK_REG |= TPS_ADC_SAR_STBY_PWR_CLK_EN;
 159:.\Generated_Source\PSoC5/TPS_ADC_SAR.c ****     #endif /* End TPS_ADC_SAR_DEFAULT_INTERNAL_CLK */
 160:.\Generated_Source\PSoC5/TPS_ADC_SAR.c **** 
 161:.\Generated_Source\PSoC5/TPS_ADC_SAR.c ****     /* Enable VCM buffer and Enable Int Ref Amp */
 162:.\Generated_Source\PSoC5/TPS_ADC_SAR.c ****     tmpReg = TPS_ADC_SAR_SAR_CSR3_REG;
 163:.\Generated_Source\PSoC5/TPS_ADC_SAR.c ****     tmpReg |= TPS_ADC_SAR_SAR_EN_BUF_VCM_EN;
 164:.\Generated_Source\PSoC5/TPS_ADC_SAR.c ****     /* PD_BUF_VREF is OFF in External reference or Vdda reference mode */
 165:.\Generated_Source\PSoC5/TPS_ADC_SAR.c ****     #if((TPS_ADC_SAR_DEFAULT_REFERENCE == TPS_ADC_SAR__EXT_REF) || \
 166:.\Generated_Source\PSoC5/TPS_ADC_SAR.c ****         (TPS_ADC_SAR_DEFAULT_RANGE == TPS_ADC_SAR__VNEG_VDDA_DIFF))
 167:.\Generated_Source\PSoC5/TPS_ADC_SAR.c ****         tmpReg &= (uint8)~TPS_ADC_SAR_SAR_EN_BUF_VREF_EN;
 168:.\Generated_Source\PSoC5/TPS_ADC_SAR.c ****     #else /* In INTREF or INTREF Bypassed this buffer is ON */
 169:.\Generated_Source\PSoC5/TPS_ADC_SAR.c ****         tmpReg |= TPS_ADC_SAR_SAR_EN_BUF_VREF_EN;
 170:.\Generated_Source\PSoC5/TPS_ADC_SAR.c ****     #endif /* TPS_ADC_SAR_DEFAULT_REFERENCE == TPS_ADC_SAR__EXT_REF */
 171:.\Generated_Source\PSoC5/TPS_ADC_SAR.c ****     TPS_ADC_SAR_SAR_CSR3_REG = tmpReg;
 172:.\Generated_Source\PSoC5/TPS_ADC_SAR.c **** 
 173:.\Generated_Source\PSoC5/TPS_ADC_SAR.c ****     /* Set reference for ADC */
 174:.\Generated_Source\PSoC5/TPS_ADC_SAR.c ****     #if(TPS_ADC_SAR_DEFAULT_RANGE == TPS_ADC_SAR__VNEG_VDDA_DIFF)
 175:.\Generated_Source\PSoC5/TPS_ADC_SAR.c ****         #if(TPS_ADC_SAR_DEFAULT_REFERENCE == TPS_ADC_SAR__EXT_REF)
 176:.\Generated_Source\PSoC5/TPS_ADC_SAR.c ****             TPS_ADC_SAR_SAR_CSR6_REG = TPS_ADC_SAR_INT_BYPASS_EXT_VREF; /* S2 */
 177:.\Generated_Source\PSoC5/TPS_ADC_SAR.c ****         #else /* Internal Vdda reference or obsolete bypass mode */
 178:.\Generated_Source\PSoC5/TPS_ADC_SAR.c ****             TPS_ADC_SAR_SAR_CSR6_REG = TPS_ADC_SAR_VDDA_VREF;           /* S7 */
 179:.\Generated_Source\PSoC5/TPS_ADC_SAR.c ****         #endif /* TPS_ADC_SAR_DEFAULT_REFERENCE == TPS_ADC_SAR__EXT_REF */
 180:.\Generated_Source\PSoC5/TPS_ADC_SAR.c ****     #else  /* Reference goes through internal buffer */
 181:.\Generated_Source\PSoC5/TPS_ADC_SAR.c ****         #if(TPS_ADC_SAR_DEFAULT_REFERENCE == TPS_ADC_SAR__INT_REF_NOT_BYPASSED)
 182:.\Generated_Source\PSoC5/TPS_ADC_SAR.c ****             TPS_ADC_SAR_SAR_CSR6_REG = TPS_ADC_SAR_INT_VREF;            /* S3 + S4 */
 183:.\Generated_Source\PSoC5/TPS_ADC_SAR.c ****         #else /* INTREF Bypassed of External */
 184:.\Generated_Source\PSoC5/TPS_ADC_SAR.c ****             TPS_ADC_SAR_SAR_CSR6_REG = TPS_ADC_SAR_INT_BYPASS_EXT_VREF; /* S2 */
 185:.\Generated_Source\PSoC5/TPS_ADC_SAR.c ****         #endif /* TPS_ADC_SAR_DEFAULT_REFERENCE == TPS_ADC_SAR__INT_REF_NOT_BYPASSED */
 186:.\Generated_Source\PSoC5/TPS_ADC_SAR.c ****     #endif /* VNEG_VDDA_DIFF */
 187:.\Generated_Source\PSoC5/TPS_ADC_SAR.c **** 
 188:.\Generated_Source\PSoC5/TPS_ADC_SAR.c ****     /* Low non-overlap delay for sampling clock signals (for 1MSPS) */
 189:.\Generated_Source\PSoC5/TPS_ADC_SAR.c ****     #if(TPS_ADC_SAR_HIGH_POWER_PULSE == 0u) /* MinPulseWidth <= 50 ns */
 190:.\Generated_Source\PSoC5/TPS_ADC_SAR.c ****         TPS_ADC_SAR_SAR_CSR5_REG &= (uint8)~TPS_ADC_SAR_SAR_DLY_INC;
 191:.\Generated_Source\PSoC5/TPS_ADC_SAR.c ****     #else /* Set High non-overlap delay for sampling clock signals (for <500KSPS)*/
 192:.\Generated_Source\PSoC5/TPS_ADC_SAR.c ****         TPS_ADC_SAR_SAR_CSR5_REG |= TPS_ADC_SAR_SAR_DLY_INC;
 193:.\Generated_Source\PSoC5/TPS_ADC_SAR.c ****     #endif /* TPS_ADC_SAR_HIGH_POWER_PULSE == 0u */
 194:.\Generated_Source\PSoC5/TPS_ADC_SAR.c **** 
 195:.\Generated_Source\PSoC5/TPS_ADC_SAR.c ****     /* Increase comparator latch enable delay by 20%, 
 196:.\Generated_Source\PSoC5/TPS_ADC_SAR.c ****     *  Increase comparator bias current by 30% without impacting delaysDelay 
 197:.\Generated_Source\PSoC5/TPS_ADC_SAR.c ****     *  Default for 1MSPS) 
 198:.\Generated_Source\PSoC5/TPS_ADC_SAR.c ****     */
 199:.\Generated_Source\PSoC5/TPS_ADC_SAR.c ****     #if(TPS_ADC_SAR_HIGH_POWER_PULSE == 0u)    /* MinPulseWidth <= 50 ns */
 200:.\Generated_Source\PSoC5/TPS_ADC_SAR.c ****         TPS_ADC_SAR_SAR_CSR5_REG |= TPS_ADC_SAR_SAR_SEL_CSEL_DFT_CHAR;
 201:.\Generated_Source\PSoC5/TPS_ADC_SAR.c ****     #else /* for <500ksps */
 202:.\Generated_Source\PSoC5/TPS_ADC_SAR.c ****         TPS_ADC_SAR_SAR_CSR5_REG &= (uint8)~TPS_ADC_SAR_SAR_SEL_CSEL_DFT_CHAR;
 203:.\Generated_Source\PSoC5/TPS_ADC_SAR.c ****     #endif /* TPS_ADC_SAR_HIGH_POWER_PULSE == 0u */
ARM GAS  C:\Users\mitchell\AppData\Local\Temp\ccejfoB5.s 			page 5


 204:.\Generated_Source\PSoC5/TPS_ADC_SAR.c **** 
 205:.\Generated_Source\PSoC5/TPS_ADC_SAR.c ****     /* Set default power and other configurations for control register 0 in multiple lines */
 206:.\Generated_Source\PSoC5/TPS_ADC_SAR.c ****     TPS_ADC_SAR_SAR_CSR0_REG = (uint8)((uint8)TPS_ADC_SAR_DEFAULT_POWER << TPS_ADC_SAR_SAR_POWER_SH
 207:.\Generated_Source\PSoC5/TPS_ADC_SAR.c ****     /* SAR_HIZ_CLEAR:   Should not be used for LP */
 208:.\Generated_Source\PSoC5/TPS_ADC_SAR.c ****     #if ((CY_PSOC5LP) || (TPS_ADC_SAR_DEFAULT_REFERENCE != TPS_ADC_SAR__EXT_REF))
 209:.\Generated_Source\PSoC5/TPS_ADC_SAR.c ****         | TPS_ADC_SAR_SAR_HIZ_CLEAR
 210:.\Generated_Source\PSoC5/TPS_ADC_SAR.c ****     #endif /* SAR_HIZ_CLEAR */
 211:.\Generated_Source\PSoC5/TPS_ADC_SAR.c ****     /*Set Convertion mode */
 212:.\Generated_Source\PSoC5/TPS_ADC_SAR.c ****     #if(TPS_ADC_SAR_DEFAULT_CONV_MODE != TPS_ADC_SAR__FREE_RUNNING)      /* If triggered mode */
 213:.\Generated_Source\PSoC5/TPS_ADC_SAR.c ****         | TPS_ADC_SAR_SAR_MX_SOF_UDB           /* source: UDB */
 214:.\Generated_Source\PSoC5/TPS_ADC_SAR.c ****         | TPS_ADC_SAR_SAR_SOF_MODE_EDGE        /* Set edge-sensitive sof source */
 215:.\Generated_Source\PSoC5/TPS_ADC_SAR.c ****     #endif /* TPS_ADC_SAR_DEFAULT_CONV_MODE */
 216:.\Generated_Source\PSoC5/TPS_ADC_SAR.c ****     ; /* end of multiple line initialization */
 217:.\Generated_Source\PSoC5/TPS_ADC_SAR.c **** 
 218:.\Generated_Source\PSoC5/TPS_ADC_SAR.c ****     TPS_ADC_SAR_SAR_TR0_REG = TPS_ADC_SAR_SAR_CAP_TRIM_2;
 219:.\Generated_Source\PSoC5/TPS_ADC_SAR.c **** 
 220:.\Generated_Source\PSoC5/TPS_ADC_SAR.c ****     /* Enable clock for SAR ADC*/
 221:.\Generated_Source\PSoC5/TPS_ADC_SAR.c ****     TPS_ADC_SAR_SAR_CLK_REG |= TPS_ADC_SAR_SAR_MX_CLK_EN;
 222:.\Generated_Source\PSoC5/TPS_ADC_SAR.c **** 
 223:.\Generated_Source\PSoC5/TPS_ADC_SAR.c ****     CyDelayUs(10u); /* The block is ready to use 10 us after the enable signal is set high. */
 224:.\Generated_Source\PSoC5/TPS_ADC_SAR.c **** 
 225:.\Generated_Source\PSoC5/TPS_ADC_SAR.c ****     #if(TPS_ADC_SAR_IRQ_REMOVE == 0u)
 226:.\Generated_Source\PSoC5/TPS_ADC_SAR.c ****         /* Clear a pending interrupt */
 227:.\Generated_Source\PSoC5/TPS_ADC_SAR.c ****         CyIntClearPending(TPS_ADC_SAR_INTC_NUMBER);
 228:.\Generated_Source\PSoC5/TPS_ADC_SAR.c ****     #endif   /* End TPS_ADC_SAR_IRQ_REMOVE */
 229:.\Generated_Source\PSoC5/TPS_ADC_SAR.c **** 
 230:.\Generated_Source\PSoC5/TPS_ADC_SAR.c ****     CyExitCriticalSection(enableInterrupts);
 231:.\Generated_Source\PSoC5/TPS_ADC_SAR.c **** }
 232:.\Generated_Source\PSoC5/TPS_ADC_SAR.c **** 
 233:.\Generated_Source\PSoC5/TPS_ADC_SAR.c **** 
 234:.\Generated_Source\PSoC5/TPS_ADC_SAR.c **** /*******************************************************************************
 235:.\Generated_Source\PSoC5/TPS_ADC_SAR.c **** * Function Name: TPS_ADC_SAR_Stop
 236:.\Generated_Source\PSoC5/TPS_ADC_SAR.c **** ********************************************************************************
 237:.\Generated_Source\PSoC5/TPS_ADC_SAR.c **** *
 238:.\Generated_Source\PSoC5/TPS_ADC_SAR.c **** * Summary:
 239:.\Generated_Source\PSoC5/TPS_ADC_SAR.c **** *  Stops ADC conversions and puts the ADC into its lowest power mode.
 240:.\Generated_Source\PSoC5/TPS_ADC_SAR.c **** *
 241:.\Generated_Source\PSoC5/TPS_ADC_SAR.c **** * Parameters:
 242:.\Generated_Source\PSoC5/TPS_ADC_SAR.c **** *  None.
 243:.\Generated_Source\PSoC5/TPS_ADC_SAR.c **** *
 244:.\Generated_Source\PSoC5/TPS_ADC_SAR.c **** * Return:
 245:.\Generated_Source\PSoC5/TPS_ADC_SAR.c **** *  None.
 246:.\Generated_Source\PSoC5/TPS_ADC_SAR.c **** *
 247:.\Generated_Source\PSoC5/TPS_ADC_SAR.c **** *******************************************************************************/
 248:.\Generated_Source\PSoC5/TPS_ADC_SAR.c **** void TPS_ADC_SAR_Stop(void)
 249:.\Generated_Source\PSoC5/TPS_ADC_SAR.c **** {
 250:.\Generated_Source\PSoC5/TPS_ADC_SAR.c ****     uint8 enableInterrupts;
 251:.\Generated_Source\PSoC5/TPS_ADC_SAR.c ****     enableInterrupts = CyEnterCriticalSection();
 252:.\Generated_Source\PSoC5/TPS_ADC_SAR.c **** 
 253:.\Generated_Source\PSoC5/TPS_ADC_SAR.c ****     /* Stop all conversions */
 254:.\Generated_Source\PSoC5/TPS_ADC_SAR.c ****     TPS_ADC_SAR_SAR_CSR0_REG &= (uint8)~TPS_ADC_SAR_SAR_SOF_START_CONV;
 255:.\Generated_Source\PSoC5/TPS_ADC_SAR.c ****     /* Disable the SAR ADC block in Active Power Mode */
 256:.\Generated_Source\PSoC5/TPS_ADC_SAR.c ****     TPS_ADC_SAR_PWRMGR_SAR_REG &= (uint8)~TPS_ADC_SAR_ACT_PWR_SAR_EN;
 257:.\Generated_Source\PSoC5/TPS_ADC_SAR.c ****     /* Disable the SAR ADC in Standby Power Mode */
 258:.\Generated_Source\PSoC5/TPS_ADC_SAR.c ****     TPS_ADC_SAR_STBY_PWRMGR_SAR_REG &= (uint8)~TPS_ADC_SAR_STBY_PWR_SAR_EN;
 259:.\Generated_Source\PSoC5/TPS_ADC_SAR.c **** 
 260:.\Generated_Source\PSoC5/TPS_ADC_SAR.c ****     /* This is only valid if there is an internal clock */
ARM GAS  C:\Users\mitchell\AppData\Local\Temp\ccejfoB5.s 			page 6


 261:.\Generated_Source\PSoC5/TPS_ADC_SAR.c ****     #if(TPS_ADC_SAR_DEFAULT_INTERNAL_CLK)
 262:.\Generated_Source\PSoC5/TPS_ADC_SAR.c ****         TPS_ADC_SAR_PWRMGR_CLK_REG &= (uint8)~TPS_ADC_SAR_ACT_PWR_CLK_EN;
 263:.\Generated_Source\PSoC5/TPS_ADC_SAR.c ****         TPS_ADC_SAR_STBY_PWRMGR_CLK_REG &= (uint8)~TPS_ADC_SAR_STBY_PWR_CLK_EN;
 264:.\Generated_Source\PSoC5/TPS_ADC_SAR.c ****     #endif /* End TPS_ADC_SAR_DEFAULT_INTERNAL_CLK */
 265:.\Generated_Source\PSoC5/TPS_ADC_SAR.c **** 
 266:.\Generated_Source\PSoC5/TPS_ADC_SAR.c ****     CyExitCriticalSection(enableInterrupts);
 267:.\Generated_Source\PSoC5/TPS_ADC_SAR.c **** 
 268:.\Generated_Source\PSoC5/TPS_ADC_SAR.c **** }
 269:.\Generated_Source\PSoC5/TPS_ADC_SAR.c **** 
 270:.\Generated_Source\PSoC5/TPS_ADC_SAR.c **** 
 271:.\Generated_Source\PSoC5/TPS_ADC_SAR.c **** /*******************************************************************************
 272:.\Generated_Source\PSoC5/TPS_ADC_SAR.c **** * Function Name: TPS_ADC_SAR_SetPower
 273:.\Generated_Source\PSoC5/TPS_ADC_SAR.c **** ********************************************************************************
 274:.\Generated_Source\PSoC5/TPS_ADC_SAR.c **** *
 275:.\Generated_Source\PSoC5/TPS_ADC_SAR.c **** * Summary:
 276:.\Generated_Source\PSoC5/TPS_ADC_SAR.c **** *  Sets the operational power of the ADC. You should use the higher power
 277:.\Generated_Source\PSoC5/TPS_ADC_SAR.c **** *  settings with faster clock speeds.
 278:.\Generated_Source\PSoC5/TPS_ADC_SAR.c **** *
 279:.\Generated_Source\PSoC5/TPS_ADC_SAR.c **** * Parameters:
 280:.\Generated_Source\PSoC5/TPS_ADC_SAR.c **** *  power:  Power setting for ADC
 281:.\Generated_Source\PSoC5/TPS_ADC_SAR.c **** *  0 ->    Normal
 282:.\Generated_Source\PSoC5/TPS_ADC_SAR.c **** *  1 ->    Medium power
 283:.\Generated_Source\PSoC5/TPS_ADC_SAR.c **** *  2 ->    1.25 power
 284:.\Generated_Source\PSoC5/TPS_ADC_SAR.c **** *  3 ->    Minimum power.
 285:.\Generated_Source\PSoC5/TPS_ADC_SAR.c **** *
 286:.\Generated_Source\PSoC5/TPS_ADC_SAR.c **** * Return:
 287:.\Generated_Source\PSoC5/TPS_ADC_SAR.c **** *  None.
 288:.\Generated_Source\PSoC5/TPS_ADC_SAR.c **** *
 289:.\Generated_Source\PSoC5/TPS_ADC_SAR.c **** *******************************************************************************/
 290:.\Generated_Source\PSoC5/TPS_ADC_SAR.c **** void TPS_ADC_SAR_SetPower(uint8 power)
 291:.\Generated_Source\PSoC5/TPS_ADC_SAR.c **** {
 292:.\Generated_Source\PSoC5/TPS_ADC_SAR.c ****     uint8 tmpReg;
 293:.\Generated_Source\PSoC5/TPS_ADC_SAR.c **** 
 294:.\Generated_Source\PSoC5/TPS_ADC_SAR.c ****     /* mask off invalid power settings */
 295:.\Generated_Source\PSoC5/TPS_ADC_SAR.c ****     power &= TPS_ADC_SAR_SAR_API_POWER_MASK;
 296:.\Generated_Source\PSoC5/TPS_ADC_SAR.c **** 
 297:.\Generated_Source\PSoC5/TPS_ADC_SAR.c ****     /* Set Power parameter  */
 298:.\Generated_Source\PSoC5/TPS_ADC_SAR.c ****     tmpReg = TPS_ADC_SAR_SAR_CSR0_REG & (uint8)~TPS_ADC_SAR_SAR_POWER_MASK;
 299:.\Generated_Source\PSoC5/TPS_ADC_SAR.c ****     tmpReg |= (uint8)(power << TPS_ADC_SAR_SAR_POWER_SHIFT);
 300:.\Generated_Source\PSoC5/TPS_ADC_SAR.c ****     TPS_ADC_SAR_SAR_CSR0_REG = tmpReg;
 301:.\Generated_Source\PSoC5/TPS_ADC_SAR.c **** }
 302:.\Generated_Source\PSoC5/TPS_ADC_SAR.c **** 
 303:.\Generated_Source\PSoC5/TPS_ADC_SAR.c **** 
 304:.\Generated_Source\PSoC5/TPS_ADC_SAR.c **** /*******************************************************************************
 305:.\Generated_Source\PSoC5/TPS_ADC_SAR.c **** * Function Name: TPS_ADC_SAR_SetResolution
 306:.\Generated_Source\PSoC5/TPS_ADC_SAR.c **** ********************************************************************************
 307:.\Generated_Source\PSoC5/TPS_ADC_SAR.c **** *
 308:.\Generated_Source\PSoC5/TPS_ADC_SAR.c **** * Summary:
 309:.\Generated_Source\PSoC5/TPS_ADC_SAR.c **** *  Sets the Relution of the SAR.
 310:.\Generated_Source\PSoC5/TPS_ADC_SAR.c **** *
 311:.\Generated_Source\PSoC5/TPS_ADC_SAR.c **** * Parameters:
 312:.\Generated_Source\PSoC5/TPS_ADC_SAR.c **** *  resolution:
 313:.\Generated_Source\PSoC5/TPS_ADC_SAR.c **** *  12 ->    RES12
 314:.\Generated_Source\PSoC5/TPS_ADC_SAR.c **** *  10 ->    RES10
 315:.\Generated_Source\PSoC5/TPS_ADC_SAR.c **** *  8  ->    RES8
 316:.\Generated_Source\PSoC5/TPS_ADC_SAR.c **** *
 317:.\Generated_Source\PSoC5/TPS_ADC_SAR.c **** * Return:
ARM GAS  C:\Users\mitchell\AppData\Local\Temp\ccejfoB5.s 			page 7


 318:.\Generated_Source\PSoC5/TPS_ADC_SAR.c **** *  None.
 319:.\Generated_Source\PSoC5/TPS_ADC_SAR.c **** *
 320:.\Generated_Source\PSoC5/TPS_ADC_SAR.c **** * Side Effects:
 321:.\Generated_Source\PSoC5/TPS_ADC_SAR.c **** *  The ADC resolution cannot be changed during a conversion cycle. The
 322:.\Generated_Source\PSoC5/TPS_ADC_SAR.c **** *  recommended best practice is to stop conversions with
 323:.\Generated_Source\PSoC5/TPS_ADC_SAR.c **** *  ADC_StopConvert(), change the resolution, then restart the
 324:.\Generated_Source\PSoC5/TPS_ADC_SAR.c **** *  conversions with ADC_StartConvert().
 325:.\Generated_Source\PSoC5/TPS_ADC_SAR.c **** *  If you decide not to stop conversions before calling this API, you
 326:.\Generated_Source\PSoC5/TPS_ADC_SAR.c **** *  should use ADC_IsEndConversion() to wait until conversion is complete
 327:.\Generated_Source\PSoC5/TPS_ADC_SAR.c **** *  before changing the resolution.
 328:.\Generated_Source\PSoC5/TPS_ADC_SAR.c **** *  If you call ADC_SetResolution() during a conversion, the resolution will
 329:.\Generated_Source\PSoC5/TPS_ADC_SAR.c **** *  not be changed until the current conversion is complete. Data will not be
 330:.\Generated_Source\PSoC5/TPS_ADC_SAR.c **** *  available in the new resolution for another 6 + "New Resolution(in bits)"
 331:.\Generated_Source\PSoC5/TPS_ADC_SAR.c **** *  clock cycles.
 332:.\Generated_Source\PSoC5/TPS_ADC_SAR.c **** *  You may need add a delay of this number of clock cycles after
 333:.\Generated_Source\PSoC5/TPS_ADC_SAR.c **** *  ADC_SetResolution() is called before data is valid again.
 334:.\Generated_Source\PSoC5/TPS_ADC_SAR.c **** *  Affects ADC_CountsTo_Volts(), ADC_CountsTo_mVolts(), and
 335:.\Generated_Source\PSoC5/TPS_ADC_SAR.c **** *  ADC_CountsTo_uVolts() by calculating the correct conversion between ADC
 336:.\Generated_Source\PSoC5/TPS_ADC_SAR.c **** *  counts and the applied input voltage. Calculation depends on resolution,
 337:.\Generated_Source\PSoC5/TPS_ADC_SAR.c **** *  input range, and voltage reference.
 338:.\Generated_Source\PSoC5/TPS_ADC_SAR.c **** *
 339:.\Generated_Source\PSoC5/TPS_ADC_SAR.c **** *******************************************************************************/
 340:.\Generated_Source\PSoC5/TPS_ADC_SAR.c **** void TPS_ADC_SAR_SetResolution(uint8 resolution)
 341:.\Generated_Source\PSoC5/TPS_ADC_SAR.c **** {
 342:.\Generated_Source\PSoC5/TPS_ADC_SAR.c ****     uint8 tmpReg;
 343:.\Generated_Source\PSoC5/TPS_ADC_SAR.c **** 
 344:.\Generated_Source\PSoC5/TPS_ADC_SAR.c ****     /* Set SAR ADC resolution and sample width: 18 conversion cycles at 12bits + 1 gap */
 345:.\Generated_Source\PSoC5/TPS_ADC_SAR.c ****     switch (resolution)
 346:.\Generated_Source\PSoC5/TPS_ADC_SAR.c ****     {
 347:.\Generated_Source\PSoC5/TPS_ADC_SAR.c ****         case (uint8)TPS_ADC_SAR__BITS_12:
 348:.\Generated_Source\PSoC5/TPS_ADC_SAR.c ****             tmpReg = TPS_ADC_SAR_SAR_RESOLUTION_12BIT | TPS_ADC_SAR_SAR_SAMPLE_WIDTH;
 349:.\Generated_Source\PSoC5/TPS_ADC_SAR.c ****             break;
 350:.\Generated_Source\PSoC5/TPS_ADC_SAR.c ****         case (uint8)TPS_ADC_SAR__BITS_10:
 351:.\Generated_Source\PSoC5/TPS_ADC_SAR.c ****             tmpReg = TPS_ADC_SAR_SAR_RESOLUTION_10BIT | TPS_ADC_SAR_SAR_SAMPLE_WIDTH;
 352:.\Generated_Source\PSoC5/TPS_ADC_SAR.c ****             break;
 353:.\Generated_Source\PSoC5/TPS_ADC_SAR.c ****         case (uint8)TPS_ADC_SAR__BITS_8:
 354:.\Generated_Source\PSoC5/TPS_ADC_SAR.c ****             tmpReg = TPS_ADC_SAR_SAR_RESOLUTION_8BIT | TPS_ADC_SAR_SAR_SAMPLE_WIDTH;
 355:.\Generated_Source\PSoC5/TPS_ADC_SAR.c ****             break;
 356:.\Generated_Source\PSoC5/TPS_ADC_SAR.c ****         default:
 357:.\Generated_Source\PSoC5/TPS_ADC_SAR.c ****             tmpReg = TPS_ADC_SAR_SAR_RESOLUTION_12BIT | TPS_ADC_SAR_SAR_SAMPLE_WIDTH;
 358:.\Generated_Source\PSoC5/TPS_ADC_SAR.c ****             /* Halt CPU in debug mode if resolution is out of valid range */
 359:.\Generated_Source\PSoC5/TPS_ADC_SAR.c ****             CYASSERT(0u != 0u);
 360:.\Generated_Source\PSoC5/TPS_ADC_SAR.c ****             break;
 361:.\Generated_Source\PSoC5/TPS_ADC_SAR.c ****     }
 362:.\Generated_Source\PSoC5/TPS_ADC_SAR.c ****     TPS_ADC_SAR_SAR_CSR2_REG = tmpReg;
 363:.\Generated_Source\PSoC5/TPS_ADC_SAR.c **** 
 364:.\Generated_Source\PSoC5/TPS_ADC_SAR.c ****      /* Calculate gain for convert counts to volts */
 365:.\Generated_Source\PSoC5/TPS_ADC_SAR.c ****     TPS_ADC_SAR_CalcGain(resolution);
 366:.\Generated_Source\PSoC5/TPS_ADC_SAR.c **** }
 367:.\Generated_Source\PSoC5/TPS_ADC_SAR.c **** 
 368:.\Generated_Source\PSoC5/TPS_ADC_SAR.c **** 
 369:.\Generated_Source\PSoC5/TPS_ADC_SAR.c **** #if(TPS_ADC_SAR_DEFAULT_CONV_MODE != TPS_ADC_SAR__HARDWARE_TRIGGER)
 370:.\Generated_Source\PSoC5/TPS_ADC_SAR.c **** 
 371:.\Generated_Source\PSoC5/TPS_ADC_SAR.c **** 
 372:.\Generated_Source\PSoC5/TPS_ADC_SAR.c ****     /*******************************************************************************
 373:.\Generated_Source\PSoC5/TPS_ADC_SAR.c ****     * Function Name: TPS_ADC_SAR_StartConvert
 374:.\Generated_Source\PSoC5/TPS_ADC_SAR.c ****     ********************************************************************************
ARM GAS  C:\Users\mitchell\AppData\Local\Temp\ccejfoB5.s 			page 8


 375:.\Generated_Source\PSoC5/TPS_ADC_SAR.c ****     *
 376:.\Generated_Source\PSoC5/TPS_ADC_SAR.c ****     * Summary:
 377:.\Generated_Source\PSoC5/TPS_ADC_SAR.c ****     *  Forces the ADC to initiate a conversion. In free-running mode, the ADC runs
 378:.\Generated_Source\PSoC5/TPS_ADC_SAR.c ****     *  continuously. In software trigger mode, the function also acts as a software
 379:.\Generated_Source\PSoC5/TPS_ADC_SAR.c ****     *  version of the SOC and every conversion must be triggered by
 380:.\Generated_Source\PSoC5/TPS_ADC_SAR.c ****     *  TPS_ADC_SAR_StartConvert(). This function is not available when the
 381:.\Generated_Source\PSoC5/TPS_ADC_SAR.c ****     *  Hardware Trigger sample mode is selected.
 382:.\Generated_Source\PSoC5/TPS_ADC_SAR.c ****     *
 383:.\Generated_Source\PSoC5/TPS_ADC_SAR.c ****     * Parameters:
 384:.\Generated_Source\PSoC5/TPS_ADC_SAR.c ****     *  None.
 385:.\Generated_Source\PSoC5/TPS_ADC_SAR.c ****     *
 386:.\Generated_Source\PSoC5/TPS_ADC_SAR.c ****     * Return:
 387:.\Generated_Source\PSoC5/TPS_ADC_SAR.c ****     *  None.
 388:.\Generated_Source\PSoC5/TPS_ADC_SAR.c ****     *
 389:.\Generated_Source\PSoC5/TPS_ADC_SAR.c ****     * Theory:
 390:.\Generated_Source\PSoC5/TPS_ADC_SAR.c ****     *  Forces the ADC to initiate a conversion. In Free Running mode, the ADC will
 391:.\Generated_Source\PSoC5/TPS_ADC_SAR.c ****     *  run continuously. In a software trigger mode the function also acts as a
 392:.\Generated_Source\PSoC5/TPS_ADC_SAR.c ****     *  software version of the SOC. Here every conversion has to be triggered by
 393:.\Generated_Source\PSoC5/TPS_ADC_SAR.c ****     *  the routine. This writes into the SOC bit in SAR_CTRL reg.
 394:.\Generated_Source\PSoC5/TPS_ADC_SAR.c ****     *
 395:.\Generated_Source\PSoC5/TPS_ADC_SAR.c ****     * Side Effects:
 396:.\Generated_Source\PSoC5/TPS_ADC_SAR.c ****     *  In a software trigger mode the function switches source for SOF from the
 397:.\Generated_Source\PSoC5/TPS_ADC_SAR.c ****     *  external pin to the internal SOF generation. Application should not call
 398:.\Generated_Source\PSoC5/TPS_ADC_SAR.c ****     *  StartConvert if external source used for SOF.
 399:.\Generated_Source\PSoC5/TPS_ADC_SAR.c ****     *
 400:.\Generated_Source\PSoC5/TPS_ADC_SAR.c ****     *******************************************************************************/
 401:.\Generated_Source\PSoC5/TPS_ADC_SAR.c ****     void TPS_ADC_SAR_StartConvert(void)
 402:.\Generated_Source\PSoC5/TPS_ADC_SAR.c ****     {
 403:.\Generated_Source\PSoC5/TPS_ADC_SAR.c ****         #if(TPS_ADC_SAR_DEFAULT_CONV_MODE != TPS_ADC_SAR__FREE_RUNNING)  /* If software triggered m
 404:.\Generated_Source\PSoC5/TPS_ADC_SAR.c ****             TPS_ADC_SAR_SAR_CSR0_REG &= (uint8)~TPS_ADC_SAR_SAR_MX_SOF_UDB;   /* source: SOF bit */
 405:.\Generated_Source\PSoC5/TPS_ADC_SAR.c ****         #endif /* End TPS_ADC_SAR_DEFAULT_CONV_MODE */
 406:.\Generated_Source\PSoC5/TPS_ADC_SAR.c **** 
 407:.\Generated_Source\PSoC5/TPS_ADC_SAR.c ****         /* Start the conversion */
 408:.\Generated_Source\PSoC5/TPS_ADC_SAR.c ****         TPS_ADC_SAR_SAR_CSR0_REG |= TPS_ADC_SAR_SAR_SOF_START_CONV;
 409:.\Generated_Source\PSoC5/TPS_ADC_SAR.c ****     }
 410:.\Generated_Source\PSoC5/TPS_ADC_SAR.c **** 
 411:.\Generated_Source\PSoC5/TPS_ADC_SAR.c **** 
 412:.\Generated_Source\PSoC5/TPS_ADC_SAR.c ****     /*******************************************************************************
 413:.\Generated_Source\PSoC5/TPS_ADC_SAR.c ****     * Function Name: TPS_ADC_SAR_StopConvert
 414:.\Generated_Source\PSoC5/TPS_ADC_SAR.c ****     ********************************************************************************
 415:.\Generated_Source\PSoC5/TPS_ADC_SAR.c ****     *
 416:.\Generated_Source\PSoC5/TPS_ADC_SAR.c ****     * Summary:
 417:.\Generated_Source\PSoC5/TPS_ADC_SAR.c ****     *  Forces the ADC to stop conversions. If a conversion is currently executing,
 418:.\Generated_Source\PSoC5/TPS_ADC_SAR.c ****     *  that conversion will complete, but no further conversions will occur. This
 419:.\Generated_Source\PSoC5/TPS_ADC_SAR.c ****     *  function is not available when the Hardware Trigger sample mode is selected.
 420:.\Generated_Source\PSoC5/TPS_ADC_SAR.c ****     *
 421:.\Generated_Source\PSoC5/TPS_ADC_SAR.c ****     * Parameters:
 422:.\Generated_Source\PSoC5/TPS_ADC_SAR.c ****     *  None.
 423:.\Generated_Source\PSoC5/TPS_ADC_SAR.c ****     *
 424:.\Generated_Source\PSoC5/TPS_ADC_SAR.c ****     * Return:
 425:.\Generated_Source\PSoC5/TPS_ADC_SAR.c ****     *  None.
 426:.\Generated_Source\PSoC5/TPS_ADC_SAR.c ****     *
 427:.\Generated_Source\PSoC5/TPS_ADC_SAR.c ****     * Theory:
 428:.\Generated_Source\PSoC5/TPS_ADC_SAR.c ****     *  Stops ADC conversion in Free Running mode.
 429:.\Generated_Source\PSoC5/TPS_ADC_SAR.c ****     *
 430:.\Generated_Source\PSoC5/TPS_ADC_SAR.c ****     * Side Effects:
 431:.\Generated_Source\PSoC5/TPS_ADC_SAR.c ****     *  In Software Trigger sample mode, this function sets a software version of the
ARM GAS  C:\Users\mitchell\AppData\Local\Temp\ccejfoB5.s 			page 9


 432:.\Generated_Source\PSoC5/TPS_ADC_SAR.c ****     *  SOC to low level and switches the SOC source to hardware SOC input.
 433:.\Generated_Source\PSoC5/TPS_ADC_SAR.c ****     *
 434:.\Generated_Source\PSoC5/TPS_ADC_SAR.c ****     *******************************************************************************/
 435:.\Generated_Source\PSoC5/TPS_ADC_SAR.c ****     void TPS_ADC_SAR_StopConvert(void)
 436:.\Generated_Source\PSoC5/TPS_ADC_SAR.c ****     {
 437:.\Generated_Source\PSoC5/TPS_ADC_SAR.c ****         /* Stop all conversions */
 438:.\Generated_Source\PSoC5/TPS_ADC_SAR.c ****         TPS_ADC_SAR_SAR_CSR0_REG &= (uint8)~TPS_ADC_SAR_SAR_SOF_START_CONV;
 439:.\Generated_Source\PSoC5/TPS_ADC_SAR.c **** 
 440:.\Generated_Source\PSoC5/TPS_ADC_SAR.c ****         #if(TPS_ADC_SAR_DEFAULT_CONV_MODE != TPS_ADC_SAR__FREE_RUNNING)  /* If software triggered m
 441:.\Generated_Source\PSoC5/TPS_ADC_SAR.c ****             /* Return source to UDB for hardware SOF signal */
 442:.\Generated_Source\PSoC5/TPS_ADC_SAR.c ****             TPS_ADC_SAR_SAR_CSR0_REG |= TPS_ADC_SAR_SAR_MX_SOF_UDB;    /* source: UDB */
 443:.\Generated_Source\PSoC5/TPS_ADC_SAR.c ****         #endif /* End TPS_ADC_SAR_DEFAULT_CONV_MODE */
 444:.\Generated_Source\PSoC5/TPS_ADC_SAR.c **** 
 445:.\Generated_Source\PSoC5/TPS_ADC_SAR.c ****     }
 446:.\Generated_Source\PSoC5/TPS_ADC_SAR.c **** 
 447:.\Generated_Source\PSoC5/TPS_ADC_SAR.c **** #endif /* End TPS_ADC_SAR_DEFAULT_CONV_MODE != TPS_ADC_SAR__HARDWARE_TRIGGER */
 448:.\Generated_Source\PSoC5/TPS_ADC_SAR.c **** 
 449:.\Generated_Source\PSoC5/TPS_ADC_SAR.c **** 
 450:.\Generated_Source\PSoC5/TPS_ADC_SAR.c **** /*******************************************************************************
 451:.\Generated_Source\PSoC5/TPS_ADC_SAR.c **** * Function Name: TPS_ADC_SAR_IsEndConversion
 452:.\Generated_Source\PSoC5/TPS_ADC_SAR.c **** ********************************************************************************
 453:.\Generated_Source\PSoC5/TPS_ADC_SAR.c **** *
 454:.\Generated_Source\PSoC5/TPS_ADC_SAR.c **** * Summary:
 455:.\Generated_Source\PSoC5/TPS_ADC_SAR.c **** *  Immediately returns the status of the conversion or does not return
 456:.\Generated_Source\PSoC5/TPS_ADC_SAR.c **** *  (blocking) until the conversion completes, depending on the retMode
 457:.\Generated_Source\PSoC5/TPS_ADC_SAR.c **** *  parameter.
 458:.\Generated_Source\PSoC5/TPS_ADC_SAR.c **** *
 459:.\Generated_Source\PSoC5/TPS_ADC_SAR.c **** * Parameters:
 460:.\Generated_Source\PSoC5/TPS_ADC_SAR.c **** *  retMode:  Check conversion return mode.
 461:.\Generated_Source\PSoC5/TPS_ADC_SAR.c **** *   TPS_ADC_SAR_RETURN_STATUS: Immediately returns the status. If the
 462:.\Generated_Source\PSoC5/TPS_ADC_SAR.c **** *     value returned is zero, the conversion is not complete, and this function
 463:.\Generated_Source\PSoC5/TPS_ADC_SAR.c **** *     should be retried until a nonzero result is returned.
 464:.\Generated_Source\PSoC5/TPS_ADC_SAR.c **** *   TPS_ADC_SAR_WAIT_FOR_RESULT: Does not return a result until the ADC
 465:.\Generated_Source\PSoC5/TPS_ADC_SAR.c **** *     conversion is complete.
 466:.\Generated_Source\PSoC5/TPS_ADC_SAR.c **** *
 467:.\Generated_Source\PSoC5/TPS_ADC_SAR.c **** * Return:
 468:.\Generated_Source\PSoC5/TPS_ADC_SAR.c **** *  (uint8)  0 =>  The ADC is still calculating the last result.
 469:.\Generated_Source\PSoC5/TPS_ADC_SAR.c **** *           1 =>  The last conversion is complete.
 470:.\Generated_Source\PSoC5/TPS_ADC_SAR.c **** *
 471:.\Generated_Source\PSoC5/TPS_ADC_SAR.c **** * Side Effects:
 472:.\Generated_Source\PSoC5/TPS_ADC_SAR.c **** *  This function reads the end of conversion status, which is cleared on read.
 473:.\Generated_Source\PSoC5/TPS_ADC_SAR.c **** *
 474:.\Generated_Source\PSoC5/TPS_ADC_SAR.c **** *******************************************************************************/
 475:.\Generated_Source\PSoC5/TPS_ADC_SAR.c **** uint8 TPS_ADC_SAR_IsEndConversion(uint8 retMode)
 476:.\Generated_Source\PSoC5/TPS_ADC_SAR.c **** {
 477:.\Generated_Source\PSoC5/TPS_ADC_SAR.c ****     uint8 status;
 478:.\Generated_Source\PSoC5/TPS_ADC_SAR.c **** 
 479:.\Generated_Source\PSoC5/TPS_ADC_SAR.c ****     do
 480:.\Generated_Source\PSoC5/TPS_ADC_SAR.c ****     {
 481:.\Generated_Source\PSoC5/TPS_ADC_SAR.c ****         status = TPS_ADC_SAR_SAR_CSR1_REG & TPS_ADC_SAR_SAR_EOF_1;
 482:.\Generated_Source\PSoC5/TPS_ADC_SAR.c ****     } while ((status != TPS_ADC_SAR_SAR_EOF_1) && (retMode == TPS_ADC_SAR_WAIT_FOR_RESULT));
 483:.\Generated_Source\PSoC5/TPS_ADC_SAR.c ****     /* If convertion complete, wait until EOF bit released */
 484:.\Generated_Source\PSoC5/TPS_ADC_SAR.c ****     if(status == TPS_ADC_SAR_SAR_EOF_1)
 485:.\Generated_Source\PSoC5/TPS_ADC_SAR.c ****     {
 486:.\Generated_Source\PSoC5/TPS_ADC_SAR.c ****         /* wait one ADC clock to let the EOC status bit release */
 487:.\Generated_Source\PSoC5/TPS_ADC_SAR.c ****         CyDelayUs(1u);
 488:.\Generated_Source\PSoC5/TPS_ADC_SAR.c ****         /* Do the unconditional read operation of the CSR1 register to make sure the EOC bit has be
ARM GAS  C:\Users\mitchell\AppData\Local\Temp\ccejfoB5.s 			page 10


 489:.\Generated_Source\PSoC5/TPS_ADC_SAR.c ****         CY_GET_REG8(TPS_ADC_SAR_SAR_CSR1_PTR);
 490:.\Generated_Source\PSoC5/TPS_ADC_SAR.c ****     }
 491:.\Generated_Source\PSoC5/TPS_ADC_SAR.c **** 
 492:.\Generated_Source\PSoC5/TPS_ADC_SAR.c ****     return(status);
 493:.\Generated_Source\PSoC5/TPS_ADC_SAR.c **** }
 494:.\Generated_Source\PSoC5/TPS_ADC_SAR.c **** 
 495:.\Generated_Source\PSoC5/TPS_ADC_SAR.c **** 
 496:.\Generated_Source\PSoC5/TPS_ADC_SAR.c **** /*******************************************************************************
 497:.\Generated_Source\PSoC5/TPS_ADC_SAR.c **** * Function Name: TPS_ADC_SAR_GetResult8
 498:.\Generated_Source\PSoC5/TPS_ADC_SAR.c **** ********************************************************************************
 499:.\Generated_Source\PSoC5/TPS_ADC_SAR.c **** *
 500:.\Generated_Source\PSoC5/TPS_ADC_SAR.c **** * Summary:
 501:.\Generated_Source\PSoC5/TPS_ADC_SAR.c **** *  Returns the result of an 8-bit conversion. If the resolution is set greater
 502:.\Generated_Source\PSoC5/TPS_ADC_SAR.c **** *  than 8 bits, the function returns the LSB of the result.
 503:.\Generated_Source\PSoC5/TPS_ADC_SAR.c **** *  TPS_ADC_SAR_IsEndConversion() should be called to verify that the data
 504:.\Generated_Source\PSoC5/TPS_ADC_SAR.c **** *   sample is ready.
 505:.\Generated_Source\PSoC5/TPS_ADC_SAR.c **** *
 506:.\Generated_Source\PSoC5/TPS_ADC_SAR.c **** * Parameters:
 507:.\Generated_Source\PSoC5/TPS_ADC_SAR.c **** *  None.
 508:.\Generated_Source\PSoC5/TPS_ADC_SAR.c **** *
 509:.\Generated_Source\PSoC5/TPS_ADC_SAR.c **** * Return:
 510:.\Generated_Source\PSoC5/TPS_ADC_SAR.c **** *  The LSB of the last ADC conversion.
 511:.\Generated_Source\PSoC5/TPS_ADC_SAR.c **** *
 512:.\Generated_Source\PSoC5/TPS_ADC_SAR.c **** * Global Variables:
 513:.\Generated_Source\PSoC5/TPS_ADC_SAR.c **** *  TPS_ADC_SAR_shift - used to convert the ADC counts to the 2s
 514:.\Generated_Source\PSoC5/TPS_ADC_SAR.c **** *  compliment form.
 515:.\Generated_Source\PSoC5/TPS_ADC_SAR.c **** *
 516:.\Generated_Source\PSoC5/TPS_ADC_SAR.c **** * Side Effects:
 517:.\Generated_Source\PSoC5/TPS_ADC_SAR.c **** *  Converts the ADC counts to the 2s complement form.
 518:.\Generated_Source\PSoC5/TPS_ADC_SAR.c **** *
 519:.\Generated_Source\PSoC5/TPS_ADC_SAR.c **** *******************************************************************************/
 520:.\Generated_Source\PSoC5/TPS_ADC_SAR.c **** int8 TPS_ADC_SAR_GetResult8( void )
 521:.\Generated_Source\PSoC5/TPS_ADC_SAR.c **** {
 522:.\Generated_Source\PSoC5/TPS_ADC_SAR.c ****     return( (int8)TPS_ADC_SAR_SAR_WRK0_REG - (int8)TPS_ADC_SAR_shift);
 523:.\Generated_Source\PSoC5/TPS_ADC_SAR.c **** }
 524:.\Generated_Source\PSoC5/TPS_ADC_SAR.c **** 
 525:.\Generated_Source\PSoC5/TPS_ADC_SAR.c **** 
 526:.\Generated_Source\PSoC5/TPS_ADC_SAR.c **** /*******************************************************************************
 527:.\Generated_Source\PSoC5/TPS_ADC_SAR.c **** * Function Name: TPS_ADC_SAR_GetResult16
 528:.\Generated_Source\PSoC5/TPS_ADC_SAR.c **** ********************************************************************************
 529:.\Generated_Source\PSoC5/TPS_ADC_SAR.c **** *
 530:.\Generated_Source\PSoC5/TPS_ADC_SAR.c **** * Summary:
 531:.\Generated_Source\PSoC5/TPS_ADC_SAR.c **** *  Returns a 16-bit result for a conversion with a result that has a resolution
 532:.\Generated_Source\PSoC5/TPS_ADC_SAR.c **** *  of 8 to 12 bits.
 533:.\Generated_Source\PSoC5/TPS_ADC_SAR.c **** *  TPS_ADC_SAR_IsEndConversion() should be called to verify that the data
 534:.\Generated_Source\PSoC5/TPS_ADC_SAR.c **** *   sample is ready
 535:.\Generated_Source\PSoC5/TPS_ADC_SAR.c **** *
 536:.\Generated_Source\PSoC5/TPS_ADC_SAR.c **** * Parameters:
 537:.\Generated_Source\PSoC5/TPS_ADC_SAR.c **** *  None.
 538:.\Generated_Source\PSoC5/TPS_ADC_SAR.c **** *
 539:.\Generated_Source\PSoC5/TPS_ADC_SAR.c **** * Return:
 540:.\Generated_Source\PSoC5/TPS_ADC_SAR.c **** *  The 16-bit result of the last ADC conversion
 541:.\Generated_Source\PSoC5/TPS_ADC_SAR.c **** *
 542:.\Generated_Source\PSoC5/TPS_ADC_SAR.c **** * Global Variables:
 543:.\Generated_Source\PSoC5/TPS_ADC_SAR.c **** *  TPS_ADC_SAR_shift - used to convert the ADC counts to the 2s
 544:.\Generated_Source\PSoC5/TPS_ADC_SAR.c **** *  compliment form.
 545:.\Generated_Source\PSoC5/TPS_ADC_SAR.c **** *
ARM GAS  C:\Users\mitchell\AppData\Local\Temp\ccejfoB5.s 			page 11


 546:.\Generated_Source\PSoC5/TPS_ADC_SAR.c **** * Side Effects:
 547:.\Generated_Source\PSoC5/TPS_ADC_SAR.c **** *  Converts the ADC counts to the 2s complement form.
 548:.\Generated_Source\PSoC5/TPS_ADC_SAR.c **** *
 549:.\Generated_Source\PSoC5/TPS_ADC_SAR.c **** *******************************************************************************/
 550:.\Generated_Source\PSoC5/TPS_ADC_SAR.c **** int16 TPS_ADC_SAR_GetResult16( void )
 551:.\Generated_Source\PSoC5/TPS_ADC_SAR.c **** {
 552:.\Generated_Source\PSoC5/TPS_ADC_SAR.c ****     uint16 res;
 553:.\Generated_Source\PSoC5/TPS_ADC_SAR.c **** 
 554:.\Generated_Source\PSoC5/TPS_ADC_SAR.c ****     res = CY_GET_REG16(TPS_ADC_SAR_SAR_WRK_PTR);
 555:.\Generated_Source\PSoC5/TPS_ADC_SAR.c **** 
 556:.\Generated_Source\PSoC5/TPS_ADC_SAR.c ****     return( (int16)res - TPS_ADC_SAR_shift );
 557:.\Generated_Source\PSoC5/TPS_ADC_SAR.c **** }
 558:.\Generated_Source\PSoC5/TPS_ADC_SAR.c **** 
 559:.\Generated_Source\PSoC5/TPS_ADC_SAR.c **** 
 560:.\Generated_Source\PSoC5/TPS_ADC_SAR.c **** /*******************************************************************************
 561:.\Generated_Source\PSoC5/TPS_ADC_SAR.c **** * Function Name: TPS_ADC_SAR_SetOffset
 562:.\Generated_Source\PSoC5/TPS_ADC_SAR.c **** ********************************************************************************
 563:.\Generated_Source\PSoC5/TPS_ADC_SAR.c **** *
 564:.\Generated_Source\PSoC5/TPS_ADC_SAR.c **** * Summary:
 565:.\Generated_Source\PSoC5/TPS_ADC_SAR.c **** *  Sets the ADC offset, which is used by TPS_ADC_SAR_CountsTo_Volts(),
 566:.\Generated_Source\PSoC5/TPS_ADC_SAR.c **** *  TPS_ADC_SAR_CountsTo_mVolts(), and TPS_ADC_SAR_CountsTo_uVolts()
 567:.\Generated_Source\PSoC5/TPS_ADC_SAR.c **** *  to subtract the offset from the given reading before calculating the voltage
 568:.\Generated_Source\PSoC5/TPS_ADC_SAR.c **** *  conversion.
 569:.\Generated_Source\PSoC5/TPS_ADC_SAR.c **** *
 570:.\Generated_Source\PSoC5/TPS_ADC_SAR.c **** * Parameters:
 571:.\Generated_Source\PSoC5/TPS_ADC_SAR.c **** *  int16: This value is measured when the inputs are shorted or connected to
 572:.\Generated_Source\PSoC5/TPS_ADC_SAR.c ****    the same input voltage.
 573:.\Generated_Source\PSoC5/TPS_ADC_SAR.c **** *
 574:.\Generated_Source\PSoC5/TPS_ADC_SAR.c **** * Return:
 575:.\Generated_Source\PSoC5/TPS_ADC_SAR.c **** *  None.
 576:.\Generated_Source\PSoC5/TPS_ADC_SAR.c **** *
 577:.\Generated_Source\PSoC5/TPS_ADC_SAR.c **** * Global Variables:
 578:.\Generated_Source\PSoC5/TPS_ADC_SAR.c **** *  The TPS_ADC_SAR_offset variable modified. This variable is used for
 579:.\Generated_Source\PSoC5/TPS_ADC_SAR.c **** *  offset calibration purpose.
 580:.\Generated_Source\PSoC5/TPS_ADC_SAR.c **** *  Affects the TPS_ADC_SAR_CountsTo_Volts,
 581:.\Generated_Source\PSoC5/TPS_ADC_SAR.c **** *  TPS_ADC_SAR_CountsTo_mVolts, TPS_ADC_SAR_CountsTo_uVolts functions
 582:.\Generated_Source\PSoC5/TPS_ADC_SAR.c **** *  by subtracting the given offset.
 583:.\Generated_Source\PSoC5/TPS_ADC_SAR.c **** *
 584:.\Generated_Source\PSoC5/TPS_ADC_SAR.c **** *******************************************************************************/
 585:.\Generated_Source\PSoC5/TPS_ADC_SAR.c **** void TPS_ADC_SAR_SetOffset(int16 offset)
 586:.\Generated_Source\PSoC5/TPS_ADC_SAR.c **** {
 587:.\Generated_Source\PSoC5/TPS_ADC_SAR.c ****     TPS_ADC_SAR_offset = offset;
 588:.\Generated_Source\PSoC5/TPS_ADC_SAR.c **** }
 589:.\Generated_Source\PSoC5/TPS_ADC_SAR.c **** 
 590:.\Generated_Source\PSoC5/TPS_ADC_SAR.c **** 
 591:.\Generated_Source\PSoC5/TPS_ADC_SAR.c **** /*******************************************************************************
 592:.\Generated_Source\PSoC5/TPS_ADC_SAR.c **** * Function Name: TPS_ADC_SAR_CalcGain
 593:.\Generated_Source\PSoC5/TPS_ADC_SAR.c **** ********************************************************************************
 594:.\Generated_Source\PSoC5/TPS_ADC_SAR.c **** *
 595:.\Generated_Source\PSoC5/TPS_ADC_SAR.c **** * Summary:
 596:.\Generated_Source\PSoC5/TPS_ADC_SAR.c **** *  This function calculates the ADC gain in counts per 10 volt.
 597:.\Generated_Source\PSoC5/TPS_ADC_SAR.c **** *
 598:.\Generated_Source\PSoC5/TPS_ADC_SAR.c **** * Parameters:
 599:.\Generated_Source\PSoC5/TPS_ADC_SAR.c **** *  uint8: resolution
 600:.\Generated_Source\PSoC5/TPS_ADC_SAR.c **** *
 601:.\Generated_Source\PSoC5/TPS_ADC_SAR.c **** * Return:
 602:.\Generated_Source\PSoC5/TPS_ADC_SAR.c **** *  None.
ARM GAS  C:\Users\mitchell\AppData\Local\Temp\ccejfoB5.s 			page 12


 603:.\Generated_Source\PSoC5/TPS_ADC_SAR.c **** *
 604:.\Generated_Source\PSoC5/TPS_ADC_SAR.c **** * Global Variables:
 605:.\Generated_Source\PSoC5/TPS_ADC_SAR.c **** *  TPS_ADC_SAR_shift variable initialized. This variable is used to
 606:.\Generated_Source\PSoC5/TPS_ADC_SAR.c **** *  convert the ADC counts to the 2s compliment form.
 607:.\Generated_Source\PSoC5/TPS_ADC_SAR.c **** *  TPS_ADC_SAR_countsPer10Volt variable initialized. This variable is used
 608:.\Generated_Source\PSoC5/TPS_ADC_SAR.c **** *  for gain calibration purpose.
 609:.\Generated_Source\PSoC5/TPS_ADC_SAR.c **** *
 610:.\Generated_Source\PSoC5/TPS_ADC_SAR.c **** *******************************************************************************/
 611:.\Generated_Source\PSoC5/TPS_ADC_SAR.c **** static void TPS_ADC_SAR_CalcGain( uint8 resolution )
 612:.\Generated_Source\PSoC5/TPS_ADC_SAR.c **** {
  26              		.loc 1 612 0
  27              		.cfi_startproc
  28              		@ args = 0, pretend = 0, frame = 0
  29              		@ frame_needed = 0, uses_anonymous_args = 0
  30              	.LVL0:
  31 0000 08B5     		push	{r3, lr}
  32              		.cfi_def_cfa_offset 8
  33              		.cfi_offset 3, -8
  34              		.cfi_offset 14, -4
 613:.\Generated_Source\PSoC5/TPS_ADC_SAR.c ****     int32 counts;
 614:.\Generated_Source\PSoC5/TPS_ADC_SAR.c ****     #if(!((TPS_ADC_SAR_DEFAULT_RANGE == TPS_ADC_SAR__VSS_TO_VREF) || \
 615:.\Generated_Source\PSoC5/TPS_ADC_SAR.c ****          (TPS_ADC_SAR_DEFAULT_RANGE == TPS_ADC_SAR__VSSA_TO_VDDA) || \
 616:.\Generated_Source\PSoC5/TPS_ADC_SAR.c ****          (TPS_ADC_SAR_DEFAULT_RANGE == TPS_ADC_SAR__VSSA_TO_VDAC)) )
 617:.\Generated_Source\PSoC5/TPS_ADC_SAR.c ****         uint16 diff_zero;
 618:.\Generated_Source\PSoC5/TPS_ADC_SAR.c ****     #endif /* End TPS_ADC_SAR_DEFAULT_RANGE */
 619:.\Generated_Source\PSoC5/TPS_ADC_SAR.c **** 
 620:.\Generated_Source\PSoC5/TPS_ADC_SAR.c ****     switch (resolution)
  35              		.loc 1 620 0
  36 0002 0A28     		cmp	r0, #10
  37 0004 0FD0     		beq	.L7
  38 0006 0C28     		cmp	r0, #12
  39 0008 02D0     		beq	.L4
  40 000a 0828     		cmp	r0, #8
  41 000c 06D1     		bne	.L8
  42 000e 02E0     		b	.L5
  43              	.L4:
 621:.\Generated_Source\PSoC5/TPS_ADC_SAR.c ****     {
 622:.\Generated_Source\PSoC5/TPS_ADC_SAR.c ****         case (uint8)TPS_ADC_SAR__BITS_12:
 623:.\Generated_Source\PSoC5/TPS_ADC_SAR.c ****             counts = (int32)TPS_ADC_SAR_SAR_WRK_MAX_12BIT;
  44              		.loc 1 623 0
  45 0010 4FF48053 		mov	r3, #4096
  46 0014 09E0     		b	.L3
  47              	.L5:
  48              	.LVL1:
 624:.\Generated_Source\PSoC5/TPS_ADC_SAR.c ****             #if(!((TPS_ADC_SAR_DEFAULT_RANGE == TPS_ADC_SAR__VSS_TO_VREF) || \
 625:.\Generated_Source\PSoC5/TPS_ADC_SAR.c ****                  (TPS_ADC_SAR_DEFAULT_RANGE == TPS_ADC_SAR__VSSA_TO_VDDA) || \
 626:.\Generated_Source\PSoC5/TPS_ADC_SAR.c ****                  (TPS_ADC_SAR_DEFAULT_RANGE == TPS_ADC_SAR__VSSA_TO_VDAC)) )
 627:.\Generated_Source\PSoC5/TPS_ADC_SAR.c ****                 diff_zero = TPS_ADC_SAR_SAR_DIFF_SHIFT;
 628:.\Generated_Source\PSoC5/TPS_ADC_SAR.c ****             #endif /* End TPS_ADC_SAR_DEFAULT_RANGE */
 629:.\Generated_Source\PSoC5/TPS_ADC_SAR.c ****             break;
 630:.\Generated_Source\PSoC5/TPS_ADC_SAR.c ****         case (uint8)TPS_ADC_SAR__BITS_10:
 631:.\Generated_Source\PSoC5/TPS_ADC_SAR.c ****             counts = (int32)TPS_ADC_SAR_SAR_WRK_MAX_10BIT;
 632:.\Generated_Source\PSoC5/TPS_ADC_SAR.c ****             #if(!((TPS_ADC_SAR_DEFAULT_RANGE == TPS_ADC_SAR__VSS_TO_VREF) || \
 633:.\Generated_Source\PSoC5/TPS_ADC_SAR.c ****                  (TPS_ADC_SAR_DEFAULT_RANGE == TPS_ADC_SAR__VSSA_TO_VDDA) || \
 634:.\Generated_Source\PSoC5/TPS_ADC_SAR.c ****                  (TPS_ADC_SAR_DEFAULT_RANGE == TPS_ADC_SAR__VSSA_TO_VDAC)) )
 635:.\Generated_Source\PSoC5/TPS_ADC_SAR.c ****                 diff_zero = TPS_ADC_SAR_SAR_DIFF_SHIFT >> 2u;
 636:.\Generated_Source\PSoC5/TPS_ADC_SAR.c ****             #endif /* End TPS_ADC_SAR_DEFAULT_RANGE */
ARM GAS  C:\Users\mitchell\AppData\Local\Temp\ccejfoB5.s 			page 13


 637:.\Generated_Source\PSoC5/TPS_ADC_SAR.c ****             break;
 638:.\Generated_Source\PSoC5/TPS_ADC_SAR.c ****         case (uint8)TPS_ADC_SAR__BITS_8:
 639:.\Generated_Source\PSoC5/TPS_ADC_SAR.c ****             counts = (int32)TPS_ADC_SAR_SAR_WRK_MAX_8BIT;
  49              		.loc 1 639 0
  50 0016 4FF48073 		mov	r3, #256
 640:.\Generated_Source\PSoC5/TPS_ADC_SAR.c ****             #if(!((TPS_ADC_SAR_DEFAULT_RANGE == TPS_ADC_SAR__VSS_TO_VREF) || \
 641:.\Generated_Source\PSoC5/TPS_ADC_SAR.c ****                  (TPS_ADC_SAR_DEFAULT_RANGE == TPS_ADC_SAR__VSSA_TO_VDDA) || \
 642:.\Generated_Source\PSoC5/TPS_ADC_SAR.c ****                  (TPS_ADC_SAR_DEFAULT_RANGE == TPS_ADC_SAR__VSSA_TO_VDAC)) )
 643:.\Generated_Source\PSoC5/TPS_ADC_SAR.c ****                 diff_zero = TPS_ADC_SAR_SAR_DIFF_SHIFT >> 4u;
 644:.\Generated_Source\PSoC5/TPS_ADC_SAR.c ****             #endif /* End TPS_ADC_SAR_DEFAULT_RANGE */
 645:.\Generated_Source\PSoC5/TPS_ADC_SAR.c ****             break;
  51              		.loc 1 645 0
  52 001a 06E0     		b	.L3
  53              	.LVL2:
  54              	.L8:
 646:.\Generated_Source\PSoC5/TPS_ADC_SAR.c ****         default: /* Halt CPU in debug mode if resolution is out of valid range */
 647:.\Generated_Source\PSoC5/TPS_ADC_SAR.c ****             counts = 0;
 648:.\Generated_Source\PSoC5/TPS_ADC_SAR.c ****             #if(!((TPS_ADC_SAR_DEFAULT_RANGE == TPS_ADC_SAR__VSS_TO_VREF) || \
 649:.\Generated_Source\PSoC5/TPS_ADC_SAR.c ****                  (TPS_ADC_SAR_DEFAULT_RANGE == TPS_ADC_SAR__VSSA_TO_VDDA) || \
 650:.\Generated_Source\PSoC5/TPS_ADC_SAR.c ****                  (TPS_ADC_SAR_DEFAULT_RANGE == TPS_ADC_SAR__VSSA_TO_VDAC)) )
 651:.\Generated_Source\PSoC5/TPS_ADC_SAR.c ****                 diff_zero = 0u;
 652:.\Generated_Source\PSoC5/TPS_ADC_SAR.c ****             #endif /* End TPS_ADC_SAR_DEFAULT_RANGE */
 653:.\Generated_Source\PSoC5/TPS_ADC_SAR.c ****             CYASSERT(0u != 0u);
  55              		.loc 1 653 0
  56 001c 0020     		movs	r0, #0
  57              	.LVL3:
  58 001e FFF7FEFF 		bl	CyHalt
  59              	.LVL4:
 647:.\Generated_Source\PSoC5/TPS_ADC_SAR.c ****             counts = 0;
  60              		.loc 1 647 0
  61 0022 0023     		movs	r3, #0
  62 0024 01E0     		b	.L3
  63              	.LVL5:
  64              	.L7:
 631:.\Generated_Source\PSoC5/TPS_ADC_SAR.c ****             counts = (int32)TPS_ADC_SAR_SAR_WRK_MAX_10BIT;
  65              		.loc 1 631 0
  66 0026 4FF48063 		mov	r3, #1024
  67              	.LVL6:
  68              	.L3:
 654:.\Generated_Source\PSoC5/TPS_ADC_SAR.c ****             break;
 655:.\Generated_Source\PSoC5/TPS_ADC_SAR.c ****     }
 656:.\Generated_Source\PSoC5/TPS_ADC_SAR.c ****     TPS_ADC_SAR_countsPerVolt = 0; /* Clear obsolete variable */
  69              		.loc 1 656 0
  70 002a 0021     		movs	r1, #0
  71 002c 084A     		ldr	r2, .L9
  72 002e 1180     		strh	r1, [r2]	@ movhi
 657:.\Generated_Source\PSoC5/TPS_ADC_SAR.c ****     /* Calculate gain in counts per 10 volts with rounding */
 658:.\Generated_Source\PSoC5/TPS_ADC_SAR.c ****     TPS_ADC_SAR_countsPer10Volt = (((counts * TPS_ADC_SAR_10MV_COUNTS) +
  73              		.loc 1 658 0
  74 0030 42F21072 		movw	r2, #10000
  75 0034 02FB03F3 		mul	r3, r2, r3
  76              	.LVL7:
 659:.\Generated_Source\PSoC5/TPS_ADC_SAR.c ****                         TPS_ADC_SAR_DEFAULT_REF_VOLTAGE_MV) / (TPS_ADC_SAR_DEFAULT_REF_VOLTAGE_MV *
  77              		.loc 1 659 0
  78 0038 13F58063 		adds	r3, r3, #1024
  79 003c 01D5     		bpl	.L6
  80 003e 03F2FF73 		addw	r3, r3, #2047
ARM GAS  C:\Users\mitchell\AppData\Local\Temp\ccejfoB5.s 			page 14


  81              	.L6:
  82 0042 DB12     		asrs	r3, r3, #11
 658:.\Generated_Source\PSoC5/TPS_ADC_SAR.c ****     TPS_ADC_SAR_countsPer10Volt = (((counts * TPS_ADC_SAR_10MV_COUNTS) +
  83              		.loc 1 658 0
  84 0044 034A     		ldr	r2, .L9+4
  85 0046 1360     		str	r3, [r2]
 660:.\Generated_Source\PSoC5/TPS_ADC_SAR.c **** 
 661:.\Generated_Source\PSoC5/TPS_ADC_SAR.c ****     #if( (TPS_ADC_SAR_DEFAULT_RANGE == TPS_ADC_SAR__VSS_TO_VREF) || \
 662:.\Generated_Source\PSoC5/TPS_ADC_SAR.c ****          (TPS_ADC_SAR_DEFAULT_RANGE == TPS_ADC_SAR__VSSA_TO_VDDA) || \
 663:.\Generated_Source\PSoC5/TPS_ADC_SAR.c ****          (TPS_ADC_SAR_DEFAULT_RANGE == TPS_ADC_SAR__VSSA_TO_VDAC) )
 664:.\Generated_Source\PSoC5/TPS_ADC_SAR.c ****         TPS_ADC_SAR_shift = 0;
  86              		.loc 1 664 0
  87 0048 0022     		movs	r2, #0
  88 004a 034B     		ldr	r3, .L9+8
  89 004c 1A80     		strh	r2, [r3]	@ movhi
  90 004e 08BD     		pop	{r3, pc}
  91              	.L10:
  92              		.align	2
  93              	.L9:
  94 0050 00000000 		.word	TPS_ADC_SAR_countsPerVolt
  95 0054 00000000 		.word	TPS_ADC_SAR_countsPer10Volt
  96 0058 00000000 		.word	TPS_ADC_SAR_shift
  97              		.cfi_endproc
  98              	.LFE12:
  99              		.size	TPS_ADC_SAR_CalcGain, .-TPS_ADC_SAR_CalcGain
 100              		.section	.text.TPS_ADC_SAR_Enable,"ax",%progbits
 101              		.align	2
 102              		.global	TPS_ADC_SAR_Enable
 103              		.thumb
 104              		.thumb_func
 105              		.type	TPS_ADC_SAR_Enable, %function
 106              	TPS_ADC_SAR_Enable:
 107              	.LFB2:
 144:.\Generated_Source\PSoC5/TPS_ADC_SAR.c **** {
 108              		.loc 1 144 0
 109              		.cfi_startproc
 110              		@ args = 0, pretend = 0, frame = 0
 111              		@ frame_needed = 0, uses_anonymous_args = 0
 112 0000 10B5     		push	{r4, lr}
 113              		.cfi_def_cfa_offset 8
 114              		.cfi_offset 4, -8
 115              		.cfi_offset 14, -4
 147:.\Generated_Source\PSoC5/TPS_ADC_SAR.c ****     enableInterrupts = CyEnterCriticalSection();
 116              		.loc 1 147 0
 117 0002 FFF7FEFF 		bl	CyEnterCriticalSection
 118              	.LVL8:
 119 0006 0446     		mov	r4, r0
 120              	.LVL9:
 150:.\Generated_Source\PSoC5/TPS_ADC_SAR.c ****     TPS_ADC_SAR_PWRMGR_SAR_REG |= TPS_ADC_SAR_ACT_PWR_SAR_EN;
 121              		.loc 1 150 0
 122 0008 194B     		ldr	r3, .L12
 123 000a 1A78     		ldrb	r2, [r3]	@ zero_extendqisi2
 124 000c 42F00202 		orr	r2, r2, #2
 125 0010 1A70     		strb	r2, [r3]
 153:.\Generated_Source\PSoC5/TPS_ADC_SAR.c ****     TPS_ADC_SAR_STBY_PWRMGR_SAR_REG |= TPS_ADC_SAR_STBY_PWR_SAR_EN;
 126              		.loc 1 153 0
 127 0012 1033     		adds	r3, r3, #16
ARM GAS  C:\Users\mitchell\AppData\Local\Temp\ccejfoB5.s 			page 15


 128 0014 1A78     		ldrb	r2, [r3]	@ zero_extendqisi2
 129 0016 42F00202 		orr	r2, r2, #2
 130 001a 1A70     		strb	r2, [r3]
 162:.\Generated_Source\PSoC5/TPS_ADC_SAR.c ****     tmpReg = TPS_ADC_SAR_SAR_CSR3_REG;
 131              		.loc 1 162 0
 132 001c 03F5AA53 		add	r3, r3, #5440
 133 0020 1033     		adds	r3, r3, #16
 134 0022 1A78     		ldrb	r2, [r3]	@ zero_extendqisi2
 135              	.LVL10:
 169:.\Generated_Source\PSoC5/TPS_ADC_SAR.c ****         tmpReg |= TPS_ADC_SAR_SAR_EN_BUF_VREF_EN;
 136              		.loc 1 169 0
 137 0024 42F00302 		orr	r2, r2, #3
 138              	.LVL11:
 171:.\Generated_Source\PSoC5/TPS_ADC_SAR.c ****     TPS_ADC_SAR_SAR_CSR3_REG = tmpReg;
 139              		.loc 1 171 0
 140 0028 1A70     		strb	r2, [r3]
 182:.\Generated_Source\PSoC5/TPS_ADC_SAR.c ****             TPS_ADC_SAR_SAR_CSR6_REG = TPS_ADC_SAR_INT_VREF;            /* S3 + S4 */
 141              		.loc 1 182 0
 142 002a 1822     		movs	r2, #24
 143              	.LVL12:
 144 002c 0333     		adds	r3, r3, #3
 145 002e 1A70     		strb	r2, [r3]
 192:.\Generated_Source\PSoC5/TPS_ADC_SAR.c ****         TPS_ADC_SAR_SAR_CSR5_REG |= TPS_ADC_SAR_SAR_DLY_INC;
 146              		.loc 1 192 0
 147 0030 013B     		subs	r3, r3, #1
 148 0032 1A78     		ldrb	r2, [r3]	@ zero_extendqisi2
 149 0034 42F04002 		orr	r2, r2, #64
 150 0038 1A70     		strb	r2, [r3]
 202:.\Generated_Source\PSoC5/TPS_ADC_SAR.c ****         TPS_ADC_SAR_SAR_CSR5_REG &= (uint8)~TPS_ADC_SAR_SAR_SEL_CSEL_DFT_CHAR;
 151              		.loc 1 202 0
 152 003a 1A78     		ldrb	r2, [r3]	@ zero_extendqisi2
 153 003c 02F0FC02 		and	r2, r2, #252
 154 0040 1A70     		strb	r2, [r3]
 206:.\Generated_Source\PSoC5/TPS_ADC_SAR.c ****     TPS_ADC_SAR_SAR_CSR0_REG = (uint8)((uint8)TPS_ADC_SAR_DEFAULT_POWER << TPS_ADC_SAR_SAR_POWER_SH
 155              		.loc 1 206 0
 156 0042 C822     		movs	r2, #200
 157 0044 053B     		subs	r3, r3, #5
 158 0046 1A70     		strb	r2, [r3]
 218:.\Generated_Source\PSoC5/TPS_ADC_SAR.c ****     TPS_ADC_SAR_SAR_TR0_REG = TPS_ADC_SAR_SAR_CAP_TRIM_2;
 159              		.loc 1 218 0
 160 0048 0222     		movs	r2, #2
 161 004a A3F59753 		sub	r3, r3, #4832
 162 004e 123B     		subs	r3, r3, #18
 163 0050 1A70     		strb	r2, [r3]
 221:.\Generated_Source\PSoC5/TPS_ADC_SAR.c ****     TPS_ADC_SAR_SAR_CLK_REG |= TPS_ADC_SAR_SAR_MX_CLK_EN;
 164              		.loc 1 221 0
 165 0052 03F5A853 		add	r3, r3, #5376
 166 0056 1933     		adds	r3, r3, #25
 167 0058 1A78     		ldrb	r2, [r3]	@ zero_extendqisi2
 168 005a 42F00802 		orr	r2, r2, #8
 169 005e 1A70     		strb	r2, [r3]
 223:.\Generated_Source\PSoC5/TPS_ADC_SAR.c ****     CyDelayUs(10u); /* The block is ready to use 10 us after the enable signal is set high. */
 170              		.loc 1 223 0
 171 0060 0A20     		movs	r0, #10
 172              	.LVL13:
 173 0062 FFF7FEFF 		bl	CyDelayUs
 174              	.LVL14:
ARM GAS  C:\Users\mitchell\AppData\Local\Temp\ccejfoB5.s 			page 16


 230:.\Generated_Source\PSoC5/TPS_ADC_SAR.c ****     CyExitCriticalSection(enableInterrupts);
 175              		.loc 1 230 0
 176 0066 2046     		mov	r0, r4
 177 0068 FFF7FEFF 		bl	CyExitCriticalSection
 178              	.LVL15:
 179 006c 10BD     		pop	{r4, pc}
 180              	.LVL16:
 181              	.L13:
 182 006e 00BF     		.align	2
 183              	.L12:
 184 0070 AB430040 		.word	1073759147
 185              		.cfi_endproc
 186              	.LFE2:
 187              		.size	TPS_ADC_SAR_Enable, .-TPS_ADC_SAR_Enable
 188              		.section	.text.TPS_ADC_SAR_Stop,"ax",%progbits
 189              		.align	2
 190              		.global	TPS_ADC_SAR_Stop
 191              		.thumb
 192              		.thumb_func
 193              		.type	TPS_ADC_SAR_Stop, %function
 194              	TPS_ADC_SAR_Stop:
 195              	.LFB3:
 249:.\Generated_Source\PSoC5/TPS_ADC_SAR.c **** {
 196              		.loc 1 249 0
 197              		.cfi_startproc
 198              		@ args = 0, pretend = 0, frame = 0
 199              		@ frame_needed = 0, uses_anonymous_args = 0
 200 0000 08B5     		push	{r3, lr}
 201              		.cfi_def_cfa_offset 8
 202              		.cfi_offset 3, -8
 203              		.cfi_offset 14, -4
 251:.\Generated_Source\PSoC5/TPS_ADC_SAR.c ****     enableInterrupts = CyEnterCriticalSection();
 204              		.loc 1 251 0
 205 0002 FFF7FEFF 		bl	CyEnterCriticalSection
 206              	.LVL17:
 254:.\Generated_Source\PSoC5/TPS_ADC_SAR.c ****     TPS_ADC_SAR_SAR_CSR0_REG &= (uint8)~TPS_ADC_SAR_SAR_SOF_START_CONV;
 207              		.loc 1 254 0
 208 0006 0A4B     		ldr	r3, .L15
 209 0008 1A78     		ldrb	r2, [r3]	@ zero_extendqisi2
 210 000a 02F0FE02 		and	r2, r2, #254
 211 000e 1A70     		strb	r2, [r3]
 256:.\Generated_Source\PSoC5/TPS_ADC_SAR.c ****     TPS_ADC_SAR_PWRMGR_SAR_REG &= (uint8)~TPS_ADC_SAR_ACT_PWR_SAR_EN;
 212              		.loc 1 256 0
 213 0010 A3F5AA53 		sub	r3, r3, #5440
 214 0014 1D3B     		subs	r3, r3, #29
 215 0016 1A78     		ldrb	r2, [r3]	@ zero_extendqisi2
 216 0018 02F0FD02 		and	r2, r2, #253
 217 001c 1A70     		strb	r2, [r3]
 258:.\Generated_Source\PSoC5/TPS_ADC_SAR.c ****     TPS_ADC_SAR_STBY_PWRMGR_SAR_REG &= (uint8)~TPS_ADC_SAR_STBY_PWR_SAR_EN;
 218              		.loc 1 258 0
 219 001e 1033     		adds	r3, r3, #16
 220 0020 1A78     		ldrb	r2, [r3]	@ zero_extendqisi2
 221 0022 02F0FD02 		and	r2, r2, #253
 222 0026 1A70     		strb	r2, [r3]
 266:.\Generated_Source\PSoC5/TPS_ADC_SAR.c ****     CyExitCriticalSection(enableInterrupts);
 223              		.loc 1 266 0
 224 0028 FFF7FEFF 		bl	CyExitCriticalSection
ARM GAS  C:\Users\mitchell\AppData\Local\Temp\ccejfoB5.s 			page 17


 225              	.LVL18:
 226 002c 08BD     		pop	{r3, pc}
 227              	.L16:
 228 002e 00BF     		.align	2
 229              	.L15:
 230 0030 08590040 		.word	1073764616
 231              		.cfi_endproc
 232              	.LFE3:
 233              		.size	TPS_ADC_SAR_Stop, .-TPS_ADC_SAR_Stop
 234              		.section	.text.TPS_ADC_SAR_SetPower,"ax",%progbits
 235              		.align	2
 236              		.global	TPS_ADC_SAR_SetPower
 237              		.thumb
 238              		.thumb_func
 239              		.type	TPS_ADC_SAR_SetPower, %function
 240              	TPS_ADC_SAR_SetPower:
 241              	.LFB4:
 291:.\Generated_Source\PSoC5/TPS_ADC_SAR.c **** {
 242              		.loc 1 291 0
 243              		.cfi_startproc
 244              		@ args = 0, pretend = 0, frame = 0
 245              		@ frame_needed = 0, uses_anonymous_args = 0
 246              		@ link register save eliminated.
 247              	.LVL19:
 295:.\Generated_Source\PSoC5/TPS_ADC_SAR.c ****     power &= TPS_ADC_SAR_SAR_API_POWER_MASK;
 248              		.loc 1 295 0
 249 0000 00F00300 		and	r0, r0, #3
 250              	.LVL20:
 298:.\Generated_Source\PSoC5/TPS_ADC_SAR.c ****     tmpReg = TPS_ADC_SAR_SAR_CSR0_REG & (uint8)~TPS_ADC_SAR_SAR_POWER_MASK;
 251              		.loc 1 298 0
 252 0004 034B     		ldr	r3, .L18
 253 0006 1A78     		ldrb	r2, [r3]	@ zero_extendqisi2
 254 0008 02F03F02 		and	r2, r2, #63
 255              	.LVL21:
 299:.\Generated_Source\PSoC5/TPS_ADC_SAR.c ****     tmpReg |= (uint8)(power << TPS_ADC_SAR_SAR_POWER_SHIFT);
 256              		.loc 1 299 0
 257 000c 42EA8010 		orr	r0, r2, r0, lsl #6
 258              	.LVL22:
 300:.\Generated_Source\PSoC5/TPS_ADC_SAR.c ****     TPS_ADC_SAR_SAR_CSR0_REG = tmpReg;
 259              		.loc 1 300 0
 260 0010 1870     		strb	r0, [r3]
 261 0012 7047     		bx	lr
 262              	.L19:
 263              		.align	2
 264              	.L18:
 265 0014 08590040 		.word	1073764616
 266              		.cfi_endproc
 267              	.LFE4:
 268              		.size	TPS_ADC_SAR_SetPower, .-TPS_ADC_SAR_SetPower
 269              		.section	.text.TPS_ADC_SAR_SetResolution,"ax",%progbits
 270              		.align	2
 271              		.global	TPS_ADC_SAR_SetResolution
 272              		.thumb
 273              		.thumb_func
 274              		.type	TPS_ADC_SAR_SetResolution, %function
 275              	TPS_ADC_SAR_SetResolution:
 276              	.LFB5:
ARM GAS  C:\Users\mitchell\AppData\Local\Temp\ccejfoB5.s 			page 18


 341:.\Generated_Source\PSoC5/TPS_ADC_SAR.c **** {
 277              		.loc 1 341 0
 278              		.cfi_startproc
 279              		@ args = 0, pretend = 0, frame = 0
 280              		@ frame_needed = 0, uses_anonymous_args = 0
 281              	.LVL23:
 282 0000 10B5     		push	{r4, lr}
 283              		.cfi_def_cfa_offset 8
 284              		.cfi_offset 4, -8
 285              		.cfi_offset 14, -4
 286 0002 0446     		mov	r4, r0
 345:.\Generated_Source\PSoC5/TPS_ADC_SAR.c ****     switch (resolution)
 287              		.loc 1 345 0
 288 0004 0A28     		cmp	r0, #10
 289 0006 0DD0     		beq	.L25
 290 0008 0C28     		cmp	r0, #12
 291 000a 02D0     		beq	.L23
 292 000c 0828     		cmp	r0, #8
 293 000e 04D1     		bne	.L26
 294 0010 01E0     		b	.L24
 295              	.L23:
 348:.\Generated_Source\PSoC5/TPS_ADC_SAR.c ****             tmpReg = TPS_ADC_SAR_SAR_RESOLUTION_12BIT | TPS_ADC_SAR_SAR_SAMPLE_WIDTH;
 296              		.loc 1 348 0
 297 0012 C222     		movs	r2, #194
 298 0014 07E0     		b	.L22
 299              	.L24:
 300              	.LVL24:
 354:.\Generated_Source\PSoC5/TPS_ADC_SAR.c ****             tmpReg = TPS_ADC_SAR_SAR_RESOLUTION_8BIT | TPS_ADC_SAR_SAR_SAMPLE_WIDTH;
 301              		.loc 1 354 0
 302 0016 4222     		movs	r2, #66
 355:.\Generated_Source\PSoC5/TPS_ADC_SAR.c ****             break;
 303              		.loc 1 355 0
 304 0018 05E0     		b	.L22
 305              	.LVL25:
 306              	.L26:
 359:.\Generated_Source\PSoC5/TPS_ADC_SAR.c ****             CYASSERT(0u != 0u);
 307              		.loc 1 359 0
 308 001a 0020     		movs	r0, #0
 309              	.LVL26:
 310 001c FFF7FEFF 		bl	CyHalt
 311              	.LVL27:
 357:.\Generated_Source\PSoC5/TPS_ADC_SAR.c ****             tmpReg = TPS_ADC_SAR_SAR_RESOLUTION_12BIT | TPS_ADC_SAR_SAR_SAMPLE_WIDTH;
 312              		.loc 1 357 0
 313 0020 C222     		movs	r2, #194
 314 0022 00E0     		b	.L22
 315              	.LVL28:
 316              	.L25:
 351:.\Generated_Source\PSoC5/TPS_ADC_SAR.c ****             tmpReg = TPS_ADC_SAR_SAR_RESOLUTION_10BIT | TPS_ADC_SAR_SAR_SAMPLE_WIDTH;
 317              		.loc 1 351 0
 318 0024 8222     		movs	r2, #130
 319              	.LVL29:
 320              	.L22:
 362:.\Generated_Source\PSoC5/TPS_ADC_SAR.c ****     TPS_ADC_SAR_SAR_CSR2_REG = tmpReg;
 321              		.loc 1 362 0
 322 0026 034B     		ldr	r3, .L27
 323 0028 1A70     		strb	r2, [r3]
 365:.\Generated_Source\PSoC5/TPS_ADC_SAR.c ****     TPS_ADC_SAR_CalcGain(resolution);
ARM GAS  C:\Users\mitchell\AppData\Local\Temp\ccejfoB5.s 			page 19


 324              		.loc 1 365 0
 325 002a 2046     		mov	r0, r4
 326 002c FFF7FEFF 		bl	TPS_ADC_SAR_CalcGain
 327              	.LVL30:
 328 0030 10BD     		pop	{r4, pc}
 329              	.L28:
 330 0032 00BF     		.align	2
 331              	.L27:
 332 0034 0A590040 		.word	1073764618
 333              		.cfi_endproc
 334              	.LFE5:
 335              		.size	TPS_ADC_SAR_SetResolution, .-TPS_ADC_SAR_SetResolution
 336              		.section	.text.TPS_ADC_SAR_Init,"ax",%progbits
 337              		.align	2
 338              		.global	TPS_ADC_SAR_Init
 339              		.thumb
 340              		.thumb_func
 341              		.type	TPS_ADC_SAR_Init, %function
 342              	TPS_ADC_SAR_Init:
 343              	.LFB1:
 107:.\Generated_Source\PSoC5/TPS_ADC_SAR.c **** {
 344              		.loc 1 107 0
 345              		.cfi_startproc
 346              		@ args = 0, pretend = 0, frame = 0
 347              		@ frame_needed = 0, uses_anonymous_args = 0
 348 0000 08B5     		push	{r3, lr}
 349              		.cfi_def_cfa_offset 8
 350              		.cfi_offset 3, -8
 351              		.cfi_offset 14, -4
 121:.\Generated_Source\PSoC5/TPS_ADC_SAR.c ****     TPS_ADC_SAR_SAR_CSR1_REG |= TPS_ADC_SAR_SAR_IRQ_MASK_EN | TPS_ADC_SAR_SAR_IRQ_MODE_EDGE;
 352              		.loc 1 121 0
 353 0002 064B     		ldr	r3, .L30
 354 0004 1A78     		ldrb	r2, [r3]	@ zero_extendqisi2
 355 0006 42F00602 		orr	r2, r2, #6
 356 000a 1A70     		strb	r2, [r3]
 124:.\Generated_Source\PSoC5/TPS_ADC_SAR.c ****     TPS_ADC_SAR_SetResolution(TPS_ADC_SAR_DEFAULT_RESOLUTION);
 357              		.loc 1 124 0
 358 000c 0C20     		movs	r0, #12
 359 000e FFF7FEFF 		bl	TPS_ADC_SAR_SetResolution
 360              	.LVL31:
 125:.\Generated_Source\PSoC5/TPS_ADC_SAR.c ****     TPS_ADC_SAR_offset = 0;
 361              		.loc 1 125 0
 362 0012 0022     		movs	r2, #0
 363 0014 024B     		ldr	r3, .L30+4
 364 0016 1A80     		strh	r2, [r3]	@ movhi
 365 0018 08BD     		pop	{r3, pc}
 366              	.L31:
 367 001a 00BF     		.align	2
 368              	.L30:
 369 001c 09590040 		.word	1073764617
 370 0020 00000000 		.word	TPS_ADC_SAR_offset
 371              		.cfi_endproc
 372              	.LFE1:
 373              		.size	TPS_ADC_SAR_Init, .-TPS_ADC_SAR_Init
 374              		.section	.text.TPS_ADC_SAR_Start,"ax",%progbits
 375              		.align	2
 376              		.global	TPS_ADC_SAR_Start
ARM GAS  C:\Users\mitchell\AppData\Local\Temp\ccejfoB5.s 			page 20


 377              		.thumb
 378              		.thumb_func
 379              		.type	TPS_ADC_SAR_Start, %function
 380              	TPS_ADC_SAR_Start:
 381              	.LFB0:
  75:.\Generated_Source\PSoC5/TPS_ADC_SAR.c **** {
 382              		.loc 1 75 0
 383              		.cfi_startproc
 384              		@ args = 0, pretend = 0, frame = 0
 385              		@ frame_needed = 0, uses_anonymous_args = 0
 386 0000 08B5     		push	{r3, lr}
 387              		.cfi_def_cfa_offset 8
 388              		.cfi_offset 3, -8
 389              		.cfi_offset 14, -4
  78:.\Generated_Source\PSoC5/TPS_ADC_SAR.c ****     if(TPS_ADC_SAR_initVar == 0u)
 390              		.loc 1 78 0
 391 0002 054B     		ldr	r3, .L34
 392 0004 1B78     		ldrb	r3, [r3]	@ zero_extendqisi2
 393 0006 23B9     		cbnz	r3, .L33
  80:.\Generated_Source\PSoC5/TPS_ADC_SAR.c ****         TPS_ADC_SAR_Init();
 394              		.loc 1 80 0
 395 0008 FFF7FEFF 		bl	TPS_ADC_SAR_Init
 396              	.LVL32:
  81:.\Generated_Source\PSoC5/TPS_ADC_SAR.c ****         TPS_ADC_SAR_initVar = 1u;
 397              		.loc 1 81 0
 398 000c 0122     		movs	r2, #1
 399 000e 024B     		ldr	r3, .L34
 400 0010 1A70     		strb	r2, [r3]
 401              	.L33:
  83:.\Generated_Source\PSoC5/TPS_ADC_SAR.c ****     TPS_ADC_SAR_Enable();
 402              		.loc 1 83 0
 403 0012 FFF7FEFF 		bl	TPS_ADC_SAR_Enable
 404              	.LVL33:
 405 0016 08BD     		pop	{r3, pc}
 406              	.L35:
 407              		.align	2
 408              	.L34:
 409 0018 00000000 		.word	.LANCHOR0
 410              		.cfi_endproc
 411              	.LFE0:
 412              		.size	TPS_ADC_SAR_Start, .-TPS_ADC_SAR_Start
 413              		.section	.text.TPS_ADC_SAR_StartConvert,"ax",%progbits
 414              		.align	2
 415              		.global	TPS_ADC_SAR_StartConvert
 416              		.thumb
 417              		.thumb_func
 418              		.type	TPS_ADC_SAR_StartConvert, %function
 419              	TPS_ADC_SAR_StartConvert:
 420              	.LFB6:
 402:.\Generated_Source\PSoC5/TPS_ADC_SAR.c ****     {
 421              		.loc 1 402 0
 422              		.cfi_startproc
 423              		@ args = 0, pretend = 0, frame = 0
 424              		@ frame_needed = 0, uses_anonymous_args = 0
 425              		@ link register save eliminated.
 408:.\Generated_Source\PSoC5/TPS_ADC_SAR.c ****         TPS_ADC_SAR_SAR_CSR0_REG |= TPS_ADC_SAR_SAR_SOF_START_CONV;
 426              		.loc 1 408 0
ARM GAS  C:\Users\mitchell\AppData\Local\Temp\ccejfoB5.s 			page 21


 427 0000 024B     		ldr	r3, .L37
 428 0002 1A78     		ldrb	r2, [r3]	@ zero_extendqisi2
 429 0004 42F00102 		orr	r2, r2, #1
 430 0008 1A70     		strb	r2, [r3]
 431 000a 7047     		bx	lr
 432              	.L38:
 433              		.align	2
 434              	.L37:
 435 000c 08590040 		.word	1073764616
 436              		.cfi_endproc
 437              	.LFE6:
 438              		.size	TPS_ADC_SAR_StartConvert, .-TPS_ADC_SAR_StartConvert
 439              		.section	.text.TPS_ADC_SAR_StopConvert,"ax",%progbits
 440              		.align	2
 441              		.global	TPS_ADC_SAR_StopConvert
 442              		.thumb
 443              		.thumb_func
 444              		.type	TPS_ADC_SAR_StopConvert, %function
 445              	TPS_ADC_SAR_StopConvert:
 446              	.LFB7:
 436:.\Generated_Source\PSoC5/TPS_ADC_SAR.c ****     {
 447              		.loc 1 436 0
 448              		.cfi_startproc
 449              		@ args = 0, pretend = 0, frame = 0
 450              		@ frame_needed = 0, uses_anonymous_args = 0
 451              		@ link register save eliminated.
 438:.\Generated_Source\PSoC5/TPS_ADC_SAR.c ****         TPS_ADC_SAR_SAR_CSR0_REG &= (uint8)~TPS_ADC_SAR_SAR_SOF_START_CONV;
 452              		.loc 1 438 0
 453 0000 024B     		ldr	r3, .L40
 454 0002 1A78     		ldrb	r2, [r3]	@ zero_extendqisi2
 455 0004 02F0FE02 		and	r2, r2, #254
 456 0008 1A70     		strb	r2, [r3]
 457 000a 7047     		bx	lr
 458              	.L41:
 459              		.align	2
 460              	.L40:
 461 000c 08590040 		.word	1073764616
 462              		.cfi_endproc
 463              	.LFE7:
 464              		.size	TPS_ADC_SAR_StopConvert, .-TPS_ADC_SAR_StopConvert
 465              		.section	.text.TPS_ADC_SAR_IsEndConversion,"ax",%progbits
 466              		.align	2
 467              		.global	TPS_ADC_SAR_IsEndConversion
 468              		.thumb
 469              		.thumb_func
 470              		.type	TPS_ADC_SAR_IsEndConversion, %function
 471              	TPS_ADC_SAR_IsEndConversion:
 472              	.LFB8:
 476:.\Generated_Source\PSoC5/TPS_ADC_SAR.c **** {
 473              		.loc 1 476 0
 474              		.cfi_startproc
 475              		@ args = 0, pretend = 0, frame = 0
 476              		@ frame_needed = 0, uses_anonymous_args = 0
 477              	.LVL34:
 478 0000 10B5     		push	{r4, lr}
 479              		.cfi_def_cfa_offset 8
 480              		.cfi_offset 4, -8
ARM GAS  C:\Users\mitchell\AppData\Local\Temp\ccejfoB5.s 			page 22


 481              		.cfi_offset 14, -4
 481:.\Generated_Source\PSoC5/TPS_ADC_SAR.c ****         status = TPS_ADC_SAR_SAR_CSR1_REG & TPS_ADC_SAR_SAR_EOF_1;
 482              		.loc 1 481 0
 483 0002 074A     		ldr	r2, .L47
 484              	.L44:
 481:.\Generated_Source\PSoC5/TPS_ADC_SAR.c ****         status = TPS_ADC_SAR_SAR_CSR1_REG & TPS_ADC_SAR_SAR_EOF_1;
 485              		.loc 1 481 0 is_stmt 0 discriminator 1
 486 0004 1378     		ldrb	r3, [r2]	@ zero_extendqisi2
 487              	.LVL35:
 482:.\Generated_Source\PSoC5/TPS_ADC_SAR.c ****     } while ((status != TPS_ADC_SAR_SAR_EOF_1) && (retMode == TPS_ADC_SAR_WAIT_FOR_RESULT));
 488              		.loc 1 482 0 is_stmt 1 discriminator 1
 489 0006 13F00104 		ands	r4, r3, #1
 490 000a 01D1     		bne	.L43
 491 000c 0028     		cmp	r0, #0
 492 000e F9D0     		beq	.L44
 493              	.L43:
 484:.\Generated_Source\PSoC5/TPS_ADC_SAR.c ****     if(status == TPS_ADC_SAR_SAR_EOF_1)
 494              		.loc 1 484 0
 495 0010 24B1     		cbz	r4, .L45
 487:.\Generated_Source\PSoC5/TPS_ADC_SAR.c ****         CyDelayUs(1u);
 496              		.loc 1 487 0
 497 0012 0120     		movs	r0, #1
 498              	.LVL36:
 499 0014 FFF7FEFF 		bl	CyDelayUs
 500              	.LVL37:
 489:.\Generated_Source\PSoC5/TPS_ADC_SAR.c ****         CY_GET_REG8(TPS_ADC_SAR_SAR_CSR1_PTR);
 501              		.loc 1 489 0
 502 0018 014B     		ldr	r3, .L47
 503 001a 1B78     		ldrb	r3, [r3]	@ zero_extendqisi2
 504              	.L45:
 493:.\Generated_Source\PSoC5/TPS_ADC_SAR.c **** }
 505              		.loc 1 493 0
 506 001c 2046     		mov	r0, r4
 507 001e 10BD     		pop	{r4, pc}
 508              	.L48:
 509              		.align	2
 510              	.L47:
 511 0020 09590040 		.word	1073764617
 512              		.cfi_endproc
 513              	.LFE8:
 514              		.size	TPS_ADC_SAR_IsEndConversion, .-TPS_ADC_SAR_IsEndConversion
 515              		.section	.text.TPS_ADC_SAR_GetResult8,"ax",%progbits
 516              		.align	2
 517              		.global	TPS_ADC_SAR_GetResult8
 518              		.thumb
 519              		.thumb_func
 520              		.type	TPS_ADC_SAR_GetResult8, %function
 521              	TPS_ADC_SAR_GetResult8:
 522              	.LFB9:
 521:.\Generated_Source\PSoC5/TPS_ADC_SAR.c **** {
 523              		.loc 1 521 0
 524              		.cfi_startproc
 525              		@ args = 0, pretend = 0, frame = 0
 526              		@ frame_needed = 0, uses_anonymous_args = 0
 527              		@ link register save eliminated.
 522:.\Generated_Source\PSoC5/TPS_ADC_SAR.c ****     return( (int8)TPS_ADC_SAR_SAR_WRK0_REG - (int8)TPS_ADC_SAR_shift);
 528              		.loc 1 522 0
ARM GAS  C:\Users\mitchell\AppData\Local\Temp\ccejfoB5.s 			page 23


 529 0000 034B     		ldr	r3, .L50
 530 0002 1878     		ldrb	r0, [r3]	@ zero_extendqisi2
 531 0004 034B     		ldr	r3, .L50+4
 532 0006 1B88     		ldrh	r3, [r3]
 533 0008 C01A     		subs	r0, r0, r3
 523:.\Generated_Source\PSoC5/TPS_ADC_SAR.c **** }
 534              		.loc 1 523 0
 535 000a 40B2     		sxtb	r0, r0
 536 000c 7047     		bx	lr
 537              	.L51:
 538 000e 00BF     		.align	2
 539              	.L50:
 540 0010 A25B0040 		.word	1073765282
 541 0014 00000000 		.word	TPS_ADC_SAR_shift
 542              		.cfi_endproc
 543              	.LFE9:
 544              		.size	TPS_ADC_SAR_GetResult8, .-TPS_ADC_SAR_GetResult8
 545              		.section	.text.TPS_ADC_SAR_GetResult16,"ax",%progbits
 546              		.align	2
 547              		.global	TPS_ADC_SAR_GetResult16
 548              		.thumb
 549              		.thumb_func
 550              		.type	TPS_ADC_SAR_GetResult16, %function
 551              	TPS_ADC_SAR_GetResult16:
 552              	.LFB10:
 551:.\Generated_Source\PSoC5/TPS_ADC_SAR.c **** {
 553              		.loc 1 551 0
 554              		.cfi_startproc
 555              		@ args = 0, pretend = 0, frame = 0
 556              		@ frame_needed = 0, uses_anonymous_args = 0
 557              		@ link register save eliminated.
 554:.\Generated_Source\PSoC5/TPS_ADC_SAR.c ****     res = CY_GET_REG16(TPS_ADC_SAR_SAR_WRK_PTR);
 558              		.loc 1 554 0
 559 0000 034B     		ldr	r3, .L53
 560 0002 1888     		ldrh	r0, [r3]
 561              	.LVL38:
 556:.\Generated_Source\PSoC5/TPS_ADC_SAR.c ****     return( (int16)res - TPS_ADC_SAR_shift );
 562              		.loc 1 556 0
 563 0004 034B     		ldr	r3, .L53+4
 564 0006 1B88     		ldrh	r3, [r3]
 565 0008 C01A     		subs	r0, r0, r3
 566              	.LVL39:
 557:.\Generated_Source\PSoC5/TPS_ADC_SAR.c **** }
 567              		.loc 1 557 0
 568 000a 00B2     		sxth	r0, r0
 569 000c 7047     		bx	lr
 570              	.L54:
 571 000e 00BF     		.align	2
 572              	.L53:
 573 0010 A25B0040 		.word	1073765282
 574 0014 00000000 		.word	TPS_ADC_SAR_shift
 575              		.cfi_endproc
 576              	.LFE10:
 577              		.size	TPS_ADC_SAR_GetResult16, .-TPS_ADC_SAR_GetResult16
 578              		.section	.text.TPS_ADC_SAR_SetOffset,"ax",%progbits
 579              		.align	2
 580              		.global	TPS_ADC_SAR_SetOffset
ARM GAS  C:\Users\mitchell\AppData\Local\Temp\ccejfoB5.s 			page 24


 581              		.thumb
 582              		.thumb_func
 583              		.type	TPS_ADC_SAR_SetOffset, %function
 584              	TPS_ADC_SAR_SetOffset:
 585              	.LFB11:
 586:.\Generated_Source\PSoC5/TPS_ADC_SAR.c **** {
 586              		.loc 1 586 0
 587              		.cfi_startproc
 588              		@ args = 0, pretend = 0, frame = 0
 589              		@ frame_needed = 0, uses_anonymous_args = 0
 590              		@ link register save eliminated.
 591              	.LVL40:
 587:.\Generated_Source\PSoC5/TPS_ADC_SAR.c ****     TPS_ADC_SAR_offset = offset;
 592              		.loc 1 587 0
 593 0000 014B     		ldr	r3, .L56
 594 0002 1880     		strh	r0, [r3]	@ movhi
 595 0004 7047     		bx	lr
 596              	.L57:
 597 0006 00BF     		.align	2
 598              	.L56:
 599 0008 00000000 		.word	TPS_ADC_SAR_offset
 600              		.cfi_endproc
 601              	.LFE11:
 602              		.size	TPS_ADC_SAR_SetOffset, .-TPS_ADC_SAR_SetOffset
 603              		.section	.text.TPS_ADC_SAR_SetGain,"ax",%progbits
 604              		.align	2
 605              		.global	TPS_ADC_SAR_SetGain
 606              		.thumb
 607              		.thumb_func
 608              		.type	TPS_ADC_SAR_SetGain, %function
 609              	TPS_ADC_SAR_SetGain:
 610              	.LFB13:
 665:.\Generated_Source\PSoC5/TPS_ADC_SAR.c ****     #else
 666:.\Generated_Source\PSoC5/TPS_ADC_SAR.c ****         TPS_ADC_SAR_shift = diff_zero;
 667:.\Generated_Source\PSoC5/TPS_ADC_SAR.c ****     #endif /* End TPS_ADC_SAR_DEFAULT_RANGE */
 668:.\Generated_Source\PSoC5/TPS_ADC_SAR.c **** }
 669:.\Generated_Source\PSoC5/TPS_ADC_SAR.c **** 
 670:.\Generated_Source\PSoC5/TPS_ADC_SAR.c **** 
 671:.\Generated_Source\PSoC5/TPS_ADC_SAR.c **** /*******************************************************************************
 672:.\Generated_Source\PSoC5/TPS_ADC_SAR.c **** * Function Name: TPS_ADC_SAR_SetGain
 673:.\Generated_Source\PSoC5/TPS_ADC_SAR.c **** ********************************************************************************
 674:.\Generated_Source\PSoC5/TPS_ADC_SAR.c **** *
 675:.\Generated_Source\PSoC5/TPS_ADC_SAR.c **** * Summary:
 676:.\Generated_Source\PSoC5/TPS_ADC_SAR.c **** *  Sets the ADC gain in counts per volt for the voltage conversion functions
 677:.\Generated_Source\PSoC5/TPS_ADC_SAR.c **** *  that follow. This value is set by default by the reference and input range
 678:.\Generated_Source\PSoC5/TPS_ADC_SAR.c **** *  settings. It should only be used to further calibrate the ADC with a known
 679:.\Generated_Source\PSoC5/TPS_ADC_SAR.c **** *  input or if the ADC is using an external reference.
 680:.\Generated_Source\PSoC5/TPS_ADC_SAR.c **** *
 681:.\Generated_Source\PSoC5/TPS_ADC_SAR.c **** * Parameters:
 682:.\Generated_Source\PSoC5/TPS_ADC_SAR.c **** *  int16 adcGain counts per volt
 683:.\Generated_Source\PSoC5/TPS_ADC_SAR.c **** *
 684:.\Generated_Source\PSoC5/TPS_ADC_SAR.c **** * Return:
 685:.\Generated_Source\PSoC5/TPS_ADC_SAR.c **** *  None.
 686:.\Generated_Source\PSoC5/TPS_ADC_SAR.c **** *
 687:.\Generated_Source\PSoC5/TPS_ADC_SAR.c **** * Global Variables:
 688:.\Generated_Source\PSoC5/TPS_ADC_SAR.c **** *  TPS_ADC_SAR_countsPer10Volt variable modified. This variable is used
 689:.\Generated_Source\PSoC5/TPS_ADC_SAR.c **** *  for gain calibration purpose.
ARM GAS  C:\Users\mitchell\AppData\Local\Temp\ccejfoB5.s 			page 25


 690:.\Generated_Source\PSoC5/TPS_ADC_SAR.c **** *
 691:.\Generated_Source\PSoC5/TPS_ADC_SAR.c **** *******************************************************************************/
 692:.\Generated_Source\PSoC5/TPS_ADC_SAR.c **** void TPS_ADC_SAR_SetGain(int16 adcGain)
 693:.\Generated_Source\PSoC5/TPS_ADC_SAR.c **** {
 611              		.loc 1 693 0
 612              		.cfi_startproc
 613              		@ args = 0, pretend = 0, frame = 0
 614              		@ frame_needed = 0, uses_anonymous_args = 0
 615              		@ link register save eliminated.
 616              	.LVL41:
 694:.\Generated_Source\PSoC5/TPS_ADC_SAR.c ****     TPS_ADC_SAR_countsPer10Volt = (int32)adcGain * 10;
 617              		.loc 1 694 0
 618 0000 00EB8000 		add	r0, r0, r0, lsl #2
 619              	.LVL42:
 620 0004 4000     		lsls	r0, r0, #1
 621 0006 014B     		ldr	r3, .L59
 622 0008 1860     		str	r0, [r3]
 623 000a 7047     		bx	lr
 624              	.L60:
 625              		.align	2
 626              	.L59:
 627 000c 00000000 		.word	TPS_ADC_SAR_countsPer10Volt
 628              		.cfi_endproc
 629              	.LFE13:
 630              		.size	TPS_ADC_SAR_SetGain, .-TPS_ADC_SAR_SetGain
 631              		.section	.text.TPS_ADC_SAR_SetScaledGain,"ax",%progbits
 632              		.align	2
 633              		.global	TPS_ADC_SAR_SetScaledGain
 634              		.thumb
 635              		.thumb_func
 636              		.type	TPS_ADC_SAR_SetScaledGain, %function
 637              	TPS_ADC_SAR_SetScaledGain:
 638              	.LFB14:
 695:.\Generated_Source\PSoC5/TPS_ADC_SAR.c **** }
 696:.\Generated_Source\PSoC5/TPS_ADC_SAR.c **** 
 697:.\Generated_Source\PSoC5/TPS_ADC_SAR.c **** 
 698:.\Generated_Source\PSoC5/TPS_ADC_SAR.c **** /*******************************************************************************
 699:.\Generated_Source\PSoC5/TPS_ADC_SAR.c **** * Function Name: TPS_ADC_SAR_SetScaledGain
 700:.\Generated_Source\PSoC5/TPS_ADC_SAR.c **** ********************************************************************************
 701:.\Generated_Source\PSoC5/TPS_ADC_SAR.c **** *
 702:.\Generated_Source\PSoC5/TPS_ADC_SAR.c **** * Summary:
 703:.\Generated_Source\PSoC5/TPS_ADC_SAR.c **** *  Sets the ADC gain in counts per 10 volt for the voltage conversion functions
 704:.\Generated_Source\PSoC5/TPS_ADC_SAR.c **** *  that follow. This value is set by default by the reference and input range
 705:.\Generated_Source\PSoC5/TPS_ADC_SAR.c **** *  settings. It should only be used to further calibrate the ADC with a known
 706:.\Generated_Source\PSoC5/TPS_ADC_SAR.c **** *  input or if the ADC is using an external reference.
 707:.\Generated_Source\PSoC5/TPS_ADC_SAR.c **** *
 708:.\Generated_Source\PSoC5/TPS_ADC_SAR.c **** * Parameters:
 709:.\Generated_Source\PSoC5/TPS_ADC_SAR.c **** *  int32 adcGain  counts per 10 volt
 710:.\Generated_Source\PSoC5/TPS_ADC_SAR.c **** *
 711:.\Generated_Source\PSoC5/TPS_ADC_SAR.c **** * Return:
 712:.\Generated_Source\PSoC5/TPS_ADC_SAR.c **** *  None.
 713:.\Generated_Source\PSoC5/TPS_ADC_SAR.c **** *
 714:.\Generated_Source\PSoC5/TPS_ADC_SAR.c **** * Global Variables:
 715:.\Generated_Source\PSoC5/TPS_ADC_SAR.c **** *  TPS_ADC_SAR_countsPer10Volt variable modified. This variable is used
 716:.\Generated_Source\PSoC5/TPS_ADC_SAR.c **** *  for gain calibration purpose.
 717:.\Generated_Source\PSoC5/TPS_ADC_SAR.c **** *
 718:.\Generated_Source\PSoC5/TPS_ADC_SAR.c **** *******************************************************************************/
ARM GAS  C:\Users\mitchell\AppData\Local\Temp\ccejfoB5.s 			page 26


 719:.\Generated_Source\PSoC5/TPS_ADC_SAR.c **** void TPS_ADC_SAR_SetScaledGain(int32 adcGain)
 720:.\Generated_Source\PSoC5/TPS_ADC_SAR.c **** {
 639              		.loc 1 720 0
 640              		.cfi_startproc
 641              		@ args = 0, pretend = 0, frame = 0
 642              		@ frame_needed = 0, uses_anonymous_args = 0
 643              		@ link register save eliminated.
 644              	.LVL43:
 721:.\Generated_Source\PSoC5/TPS_ADC_SAR.c ****     TPS_ADC_SAR_countsPer10Volt = adcGain;
 645              		.loc 1 721 0
 646 0000 014B     		ldr	r3, .L62
 647 0002 1860     		str	r0, [r3]
 648 0004 7047     		bx	lr
 649              	.L63:
 650 0006 00BF     		.align	2
 651              	.L62:
 652 0008 00000000 		.word	TPS_ADC_SAR_countsPer10Volt
 653              		.cfi_endproc
 654              	.LFE14:
 655              		.size	TPS_ADC_SAR_SetScaledGain, .-TPS_ADC_SAR_SetScaledGain
 656              		.section	.text.TPS_ADC_SAR_CountsTo_mVolts,"ax",%progbits
 657              		.align	2
 658              		.global	TPS_ADC_SAR_CountsTo_mVolts
 659              		.thumb
 660              		.thumb_func
 661              		.type	TPS_ADC_SAR_CountsTo_mVolts, %function
 662              	TPS_ADC_SAR_CountsTo_mVolts:
 663              	.LFB15:
 722:.\Generated_Source\PSoC5/TPS_ADC_SAR.c **** }
 723:.\Generated_Source\PSoC5/TPS_ADC_SAR.c **** 
 724:.\Generated_Source\PSoC5/TPS_ADC_SAR.c **** 
 725:.\Generated_Source\PSoC5/TPS_ADC_SAR.c **** /*******************************************************************************
 726:.\Generated_Source\PSoC5/TPS_ADC_SAR.c **** * Function Name: TPS_ADC_SAR_CountsTo_mVolts
 727:.\Generated_Source\PSoC5/TPS_ADC_SAR.c **** ********************************************************************************
 728:.\Generated_Source\PSoC5/TPS_ADC_SAR.c **** *
 729:.\Generated_Source\PSoC5/TPS_ADC_SAR.c **** * Summary:
 730:.\Generated_Source\PSoC5/TPS_ADC_SAR.c **** *  Converts the ADC output to millivolts as a 16-bit integer.
 731:.\Generated_Source\PSoC5/TPS_ADC_SAR.c **** *
 732:.\Generated_Source\PSoC5/TPS_ADC_SAR.c **** * Parameters:
 733:.\Generated_Source\PSoC5/TPS_ADC_SAR.c **** *  int16 adcCounts:  Result from the ADC conversion
 734:.\Generated_Source\PSoC5/TPS_ADC_SAR.c **** *
 735:.\Generated_Source\PSoC5/TPS_ADC_SAR.c **** * Return:
 736:.\Generated_Source\PSoC5/TPS_ADC_SAR.c **** *  int16 Result in mVolts
 737:.\Generated_Source\PSoC5/TPS_ADC_SAR.c **** *
 738:.\Generated_Source\PSoC5/TPS_ADC_SAR.c **** * Global Variables:
 739:.\Generated_Source\PSoC5/TPS_ADC_SAR.c **** *  TPS_ADC_SAR_offset variable used.
 740:.\Generated_Source\PSoC5/TPS_ADC_SAR.c **** *  TPS_ADC_SAR_countsPer10Volt variable used.
 741:.\Generated_Source\PSoC5/TPS_ADC_SAR.c **** *
 742:.\Generated_Source\PSoC5/TPS_ADC_SAR.c **** *******************************************************************************/
 743:.\Generated_Source\PSoC5/TPS_ADC_SAR.c **** int16 TPS_ADC_SAR_CountsTo_mVolts(int16 adcCounts)
 744:.\Generated_Source\PSoC5/TPS_ADC_SAR.c **** {
 664              		.loc 1 744 0
 665              		.cfi_startproc
 666              		@ args = 0, pretend = 0, frame = 0
 667              		@ frame_needed = 0, uses_anonymous_args = 0
 668              		@ link register save eliminated.
 669              	.LVL44:
ARM GAS  C:\Users\mitchell\AppData\Local\Temp\ccejfoB5.s 			page 27


 745:.\Generated_Source\PSoC5/TPS_ADC_SAR.c ****     int16 mVolts;
 746:.\Generated_Source\PSoC5/TPS_ADC_SAR.c ****     int32 countsPer10Volt;
 747:.\Generated_Source\PSoC5/TPS_ADC_SAR.c **** 
 748:.\Generated_Source\PSoC5/TPS_ADC_SAR.c ****     if(TPS_ADC_SAR_countsPerVolt != 0)
 670              		.loc 1 748 0
 671 0000 114B     		ldr	r3, .L69
 672 0002 1B88     		ldrh	r3, [r3]
 673 0004 9BB2     		uxth	r3, r3
 674 0006 33B1     		cbz	r3, .L65
 749:.\Generated_Source\PSoC5/TPS_ADC_SAR.c ****     {   /* Support obsolete method */
 750:.\Generated_Source\PSoC5/TPS_ADC_SAR.c ****         countsPer10Volt = (int32)TPS_ADC_SAR_countsPerVolt * 10;
 675              		.loc 1 750 0
 676 0008 0F4B     		ldr	r3, .L69
 677 000a 1B88     		ldrh	r3, [r3]
 678 000c 1BB2     		sxth	r3, r3
 679 000e 03EB8303 		add	r3, r3, r3, lsl #2
 680 0012 5B00     		lsls	r3, r3, #1
 681              	.LVL45:
 682 0014 01E0     		b	.L66
 683              	.LVL46:
 684              	.L65:
 751:.\Generated_Source\PSoC5/TPS_ADC_SAR.c ****     }
 752:.\Generated_Source\PSoC5/TPS_ADC_SAR.c ****     else
 753:.\Generated_Source\PSoC5/TPS_ADC_SAR.c ****     {
 754:.\Generated_Source\PSoC5/TPS_ADC_SAR.c ****         countsPer10Volt = TPS_ADC_SAR_countsPer10Volt;
 685              		.loc 1 754 0
 686 0016 0D4B     		ldr	r3, .L69+4
 687 0018 1B68     		ldr	r3, [r3]
 688              	.LVL47:
 689              	.L66:
 755:.\Generated_Source\PSoC5/TPS_ADC_SAR.c ****     }
 756:.\Generated_Source\PSoC5/TPS_ADC_SAR.c **** 
 757:.\Generated_Source\PSoC5/TPS_ADC_SAR.c ****     /* Subtract ADC offset */
 758:.\Generated_Source\PSoC5/TPS_ADC_SAR.c ****     adcCounts -= TPS_ADC_SAR_offset;
 690              		.loc 1 758 0
 691 001a 0D4A     		ldr	r2, .L69+8
 692 001c 1288     		ldrh	r2, [r2]
 693 001e 801A     		subs	r0, r0, r2
 694              	.LVL48:
 695 0020 00B2     		sxth	r0, r0
 696              	.LVL49:
 759:.\Generated_Source\PSoC5/TPS_ADC_SAR.c ****     /* Convert to millivolts with rounding */
 760:.\Generated_Source\PSoC5/TPS_ADC_SAR.c ****     mVolts = (int16)( (( (int32)adcCounts * TPS_ADC_SAR_10MV_COUNTS ) + ( (adcCounts > 0) ?
 697              		.loc 1 760 0
 698 0022 42F21071 		movw	r1, #10000
 699 0026 01FB00F1 		mul	r1, r1, r0
 761:.\Generated_Source\PSoC5/TPS_ADC_SAR.c ****                        (countsPer10Volt / 2) : (-(countsPer10Volt / 2)) )) / countsPer10Volt);
 700              		.loc 1 761 0
 701 002a 0028     		cmp	r0, #0
 702 002c 03DD     		ble	.L67
 703              		.loc 1 761 0 is_stmt 0 discriminator 1
 704 002e 03EBD372 		add	r2, r3, r3, lsr #31
 705 0032 5210     		asrs	r2, r2, #1
 706 0034 03E0     		b	.L68
 707              	.L67:
 708              		.loc 1 761 0 discriminator 2
 709 0036 03EBD372 		add	r2, r3, r3, lsr #31
ARM GAS  C:\Users\mitchell\AppData\Local\Temp\ccejfoB5.s 			page 28


 710 003a 5210     		asrs	r2, r2, #1
 711 003c 5242     		negs	r2, r2
 712              	.L68:
 760:.\Generated_Source\PSoC5/TPS_ADC_SAR.c ****     mVolts = (int16)( (( (int32)adcCounts * TPS_ADC_SAR_10MV_COUNTS ) + ( (adcCounts > 0) ?
 713              		.loc 1 760 0 is_stmt 1
 714 003e 0A44     		add	r2, r2, r1
 715              		.loc 1 761 0
 716 0040 92FBF3F0 		sdiv	r0, r2, r3
 717              	.LVL50:
 762:.\Generated_Source\PSoC5/TPS_ADC_SAR.c **** 
 763:.\Generated_Source\PSoC5/TPS_ADC_SAR.c ****     return( mVolts );
 764:.\Generated_Source\PSoC5/TPS_ADC_SAR.c **** }
 718              		.loc 1 764 0
 719 0044 00B2     		sxth	r0, r0
 720              	.LVL51:
 721 0046 7047     		bx	lr
 722              	.L70:
 723              		.align	2
 724              	.L69:
 725 0048 00000000 		.word	TPS_ADC_SAR_countsPerVolt
 726 004c 00000000 		.word	TPS_ADC_SAR_countsPer10Volt
 727 0050 00000000 		.word	TPS_ADC_SAR_offset
 728              		.cfi_endproc
 729              	.LFE15:
 730              		.size	TPS_ADC_SAR_CountsTo_mVolts, .-TPS_ADC_SAR_CountsTo_mVolts
 731              		.global	__aeabi_ldivmod
 732              		.section	.text.TPS_ADC_SAR_CountsTo_uVolts,"ax",%progbits
 733              		.align	2
 734              		.global	TPS_ADC_SAR_CountsTo_uVolts
 735              		.thumb
 736              		.thumb_func
 737              		.type	TPS_ADC_SAR_CountsTo_uVolts, %function
 738              	TPS_ADC_SAR_CountsTo_uVolts:
 739              	.LFB16:
 765:.\Generated_Source\PSoC5/TPS_ADC_SAR.c **** 
 766:.\Generated_Source\PSoC5/TPS_ADC_SAR.c **** 
 767:.\Generated_Source\PSoC5/TPS_ADC_SAR.c **** /*******************************************************************************
 768:.\Generated_Source\PSoC5/TPS_ADC_SAR.c **** * Function Name: TPS_ADC_SAR_CountsTo_uVolts
 769:.\Generated_Source\PSoC5/TPS_ADC_SAR.c **** ********************************************************************************
 770:.\Generated_Source\PSoC5/TPS_ADC_SAR.c **** *
 771:.\Generated_Source\PSoC5/TPS_ADC_SAR.c **** * Summary:
 772:.\Generated_Source\PSoC5/TPS_ADC_SAR.c **** *  Converts the ADC output to microvolts as a 32-bit integer.
 773:.\Generated_Source\PSoC5/TPS_ADC_SAR.c **** *
 774:.\Generated_Source\PSoC5/TPS_ADC_SAR.c **** * Parameters:
 775:.\Generated_Source\PSoC5/TPS_ADC_SAR.c **** *  int16 adcCounts: Result from the ADC conversion
 776:.\Generated_Source\PSoC5/TPS_ADC_SAR.c **** *
 777:.\Generated_Source\PSoC5/TPS_ADC_SAR.c **** * Return:
 778:.\Generated_Source\PSoC5/TPS_ADC_SAR.c **** *  int32 Result in micro Volts
 779:.\Generated_Source\PSoC5/TPS_ADC_SAR.c **** *
 780:.\Generated_Source\PSoC5/TPS_ADC_SAR.c **** * Global Variables:
 781:.\Generated_Source\PSoC5/TPS_ADC_SAR.c **** *  TPS_ADC_SAR_offset variable used.
 782:.\Generated_Source\PSoC5/TPS_ADC_SAR.c **** *  TPS_ADC_SAR_countsPer10Volt used to convert ADC counts to uVolts.
 783:.\Generated_Source\PSoC5/TPS_ADC_SAR.c **** *
 784:.\Generated_Source\PSoC5/TPS_ADC_SAR.c **** *******************************************************************************/
 785:.\Generated_Source\PSoC5/TPS_ADC_SAR.c **** int32 TPS_ADC_SAR_CountsTo_uVolts(int16 adcCounts)
 786:.\Generated_Source\PSoC5/TPS_ADC_SAR.c **** {
 740              		.loc 1 786 0
ARM GAS  C:\Users\mitchell\AppData\Local\Temp\ccejfoB5.s 			page 29


 741              		.cfi_startproc
 742              		@ args = 0, pretend = 0, frame = 0
 743              		@ frame_needed = 0, uses_anonymous_args = 0
 744              	.LVL52:
 745 0000 38B5     		push	{r3, r4, r5, lr}
 746              		.cfi_def_cfa_offset 16
 747              		.cfi_offset 3, -16
 748              		.cfi_offset 4, -12
 749              		.cfi_offset 5, -8
 750              		.cfi_offset 14, -4
 787:.\Generated_Source\PSoC5/TPS_ADC_SAR.c **** 
 788:.\Generated_Source\PSoC5/TPS_ADC_SAR.c ****     int64 uVolts;
 789:.\Generated_Source\PSoC5/TPS_ADC_SAR.c ****     int32 countsPer10Volt;
 790:.\Generated_Source\PSoC5/TPS_ADC_SAR.c **** 
 791:.\Generated_Source\PSoC5/TPS_ADC_SAR.c ****     if(TPS_ADC_SAR_countsPerVolt != 0)
 751              		.loc 1 791 0
 752 0002 0D4B     		ldr	r3, .L74
 753 0004 1B88     		ldrh	r3, [r3]
 754 0006 9BB2     		uxth	r3, r3
 755 0008 33B1     		cbz	r3, .L72
 792:.\Generated_Source\PSoC5/TPS_ADC_SAR.c ****     {   /* Support obsolete method */
 793:.\Generated_Source\PSoC5/TPS_ADC_SAR.c ****         countsPer10Volt = (int32)TPS_ADC_SAR_countsPerVolt * 10;
 756              		.loc 1 793 0
 757 000a 0B4B     		ldr	r3, .L74
 758 000c 1A88     		ldrh	r2, [r3]
 759 000e 12B2     		sxth	r2, r2
 760 0010 02EB8202 		add	r2, r2, r2, lsl #2
 761 0014 5200     		lsls	r2, r2, #1
 762              	.LVL53:
 763 0016 01E0     		b	.L73
 764              	.LVL54:
 765              	.L72:
 794:.\Generated_Source\PSoC5/TPS_ADC_SAR.c ****     }
 795:.\Generated_Source\PSoC5/TPS_ADC_SAR.c ****     else
 796:.\Generated_Source\PSoC5/TPS_ADC_SAR.c ****     {
 797:.\Generated_Source\PSoC5/TPS_ADC_SAR.c ****         countsPer10Volt = TPS_ADC_SAR_countsPer10Volt;
 766              		.loc 1 797 0
 767 0018 084B     		ldr	r3, .L74+4
 768 001a 1A68     		ldr	r2, [r3]
 769              	.LVL55:
 770              	.L73:
 798:.\Generated_Source\PSoC5/TPS_ADC_SAR.c ****     }
 799:.\Generated_Source\PSoC5/TPS_ADC_SAR.c **** 
 800:.\Generated_Source\PSoC5/TPS_ADC_SAR.c ****     /* Subtract ADC offset */
 801:.\Generated_Source\PSoC5/TPS_ADC_SAR.c ****     adcCounts -= TPS_ADC_SAR_offset;
 771              		.loc 1 801 0
 772 001c 084B     		ldr	r3, .L74+8
 773 001e 1B88     		ldrh	r3, [r3]
 774              	.LVL56:
 802:.\Generated_Source\PSoC5/TPS_ADC_SAR.c ****     /* To convert adcCounts to microVolts it is required to be multiplied
 803:.\Generated_Source\PSoC5/TPS_ADC_SAR.c ****     *  on 10 million and later divide on gain in counts per 10V.
 804:.\Generated_Source\PSoC5/TPS_ADC_SAR.c ****     */
 805:.\Generated_Source\PSoC5/TPS_ADC_SAR.c ****     uVolts = (( (int64)adcCounts * TPS_ADC_SAR_10UV_COUNTS ) / countsPer10Volt);
 775              		.loc 1 805 0
 776 0020 C41A     		subs	r4, r0, r3
 777 0022 24B2     		sxth	r4, r4
 778 0024 E517     		asrs	r5, r4, #31
ARM GAS  C:\Users\mitchell\AppData\Local\Temp\ccejfoB5.s 			page 30


 779 0026 074B     		ldr	r3, .L74+12
 780              	.LVL57:
 781 0028 A4FB0301 		umull	r0, r1, r4, r3
 782 002c 03FB0511 		mla	r1, r3, r5, r1
 783 0030 D317     		asrs	r3, r2, #31
 784 0032 FFF7FEFF 		bl	__aeabi_ldivmod
 785              	.LVL58:
 806:.\Generated_Source\PSoC5/TPS_ADC_SAR.c **** 
 807:.\Generated_Source\PSoC5/TPS_ADC_SAR.c ****     return( uVolts );
 808:.\Generated_Source\PSoC5/TPS_ADC_SAR.c **** }
 786              		.loc 1 808 0
 787 0036 38BD     		pop	{r3, r4, r5, pc}
 788              	.L75:
 789              		.align	2
 790              	.L74:
 791 0038 00000000 		.word	TPS_ADC_SAR_countsPerVolt
 792 003c 00000000 		.word	TPS_ADC_SAR_countsPer10Volt
 793 0040 00000000 		.word	TPS_ADC_SAR_offset
 794 0044 80969800 		.word	10000000
 795              		.cfi_endproc
 796              	.LFE16:
 797              		.size	TPS_ADC_SAR_CountsTo_uVolts, .-TPS_ADC_SAR_CountsTo_uVolts
 798              		.global	__aeabi_i2f
 799              		.global	__aeabi_fmul
 800              		.global	__aeabi_fdiv
 801              		.section	.text.TPS_ADC_SAR_CountsTo_Volts,"ax",%progbits
 802              		.align	2
 803              		.global	TPS_ADC_SAR_CountsTo_Volts
 804              		.thumb
 805              		.thumb_func
 806              		.type	TPS_ADC_SAR_CountsTo_Volts, %function
 807              	TPS_ADC_SAR_CountsTo_Volts:
 808              	.LFB17:
 809:.\Generated_Source\PSoC5/TPS_ADC_SAR.c **** 
 810:.\Generated_Source\PSoC5/TPS_ADC_SAR.c **** 
 811:.\Generated_Source\PSoC5/TPS_ADC_SAR.c **** /*******************************************************************************
 812:.\Generated_Source\PSoC5/TPS_ADC_SAR.c **** * Function Name: TPS_ADC_SAR_CountsTo_Volts
 813:.\Generated_Source\PSoC5/TPS_ADC_SAR.c **** ********************************************************************************
 814:.\Generated_Source\PSoC5/TPS_ADC_SAR.c **** *
 815:.\Generated_Source\PSoC5/TPS_ADC_SAR.c **** * Summary:
 816:.\Generated_Source\PSoC5/TPS_ADC_SAR.c **** *  Converts the ADC output to volts as a floating-point number.
 817:.\Generated_Source\PSoC5/TPS_ADC_SAR.c **** *
 818:.\Generated_Source\PSoC5/TPS_ADC_SAR.c **** * Parameters:
 819:.\Generated_Source\PSoC5/TPS_ADC_SAR.c **** *  int16 adcCounts: Result from the ADC conversion
 820:.\Generated_Source\PSoC5/TPS_ADC_SAR.c **** *
 821:.\Generated_Source\PSoC5/TPS_ADC_SAR.c **** * Return:
 822:.\Generated_Source\PSoC5/TPS_ADC_SAR.c **** *  float Result in Volts
 823:.\Generated_Source\PSoC5/TPS_ADC_SAR.c **** *
 824:.\Generated_Source\PSoC5/TPS_ADC_SAR.c **** * Global Variables:
 825:.\Generated_Source\PSoC5/TPS_ADC_SAR.c **** *  TPS_ADC_SAR_offset variable used.
 826:.\Generated_Source\PSoC5/TPS_ADC_SAR.c **** *  TPS_ADC_SAR_countsPer10Volt used to convert ADC counts to Volts.
 827:.\Generated_Source\PSoC5/TPS_ADC_SAR.c **** *
 828:.\Generated_Source\PSoC5/TPS_ADC_SAR.c **** *******************************************************************************/
 829:.\Generated_Source\PSoC5/TPS_ADC_SAR.c **** float32 TPS_ADC_SAR_CountsTo_Volts(int16 adcCounts)
 830:.\Generated_Source\PSoC5/TPS_ADC_SAR.c **** {
 809              		.loc 1 830 0
 810              		.cfi_startproc
ARM GAS  C:\Users\mitchell\AppData\Local\Temp\ccejfoB5.s 			page 31


 811              		@ args = 0, pretend = 0, frame = 0
 812              		@ frame_needed = 0, uses_anonymous_args = 0
 813              	.LVL59:
 814 0000 38B5     		push	{r3, r4, r5, lr}
 815              		.cfi_def_cfa_offset 16
 816              		.cfi_offset 3, -16
 817              		.cfi_offset 4, -12
 818              		.cfi_offset 5, -8
 819              		.cfi_offset 14, -4
 831:.\Generated_Source\PSoC5/TPS_ADC_SAR.c ****     float32 volts;
 832:.\Generated_Source\PSoC5/TPS_ADC_SAR.c ****     int32 countsPer10Volt;
 833:.\Generated_Source\PSoC5/TPS_ADC_SAR.c **** 
 834:.\Generated_Source\PSoC5/TPS_ADC_SAR.c ****     if(TPS_ADC_SAR_countsPerVolt != 0)
 820              		.loc 1 834 0
 821 0002 0F4B     		ldr	r3, .L79
 822 0004 1B88     		ldrh	r3, [r3]
 823 0006 9BB2     		uxth	r3, r3
 824 0008 33B1     		cbz	r3, .L77
 835:.\Generated_Source\PSoC5/TPS_ADC_SAR.c ****     {   /* Support obsolete method */
 836:.\Generated_Source\PSoC5/TPS_ADC_SAR.c ****         countsPer10Volt = (int32)TPS_ADC_SAR_countsPerVolt * 10;
 825              		.loc 1 836 0
 826 000a 0D4B     		ldr	r3, .L79
 827 000c 1D88     		ldrh	r5, [r3]
 828 000e 2DB2     		sxth	r5, r5
 829 0010 05EB8505 		add	r5, r5, r5, lsl #2
 830 0014 6D00     		lsls	r5, r5, #1
 831              	.LVL60:
 832 0016 01E0     		b	.L78
 833              	.LVL61:
 834              	.L77:
 837:.\Generated_Source\PSoC5/TPS_ADC_SAR.c ****     }
 838:.\Generated_Source\PSoC5/TPS_ADC_SAR.c ****     else
 839:.\Generated_Source\PSoC5/TPS_ADC_SAR.c ****     {
 840:.\Generated_Source\PSoC5/TPS_ADC_SAR.c ****         countsPer10Volt = TPS_ADC_SAR_countsPer10Volt;
 835              		.loc 1 840 0
 836 0018 0A4B     		ldr	r3, .L79+4
 837 001a 1D68     		ldr	r5, [r3]
 838              	.LVL62:
 839              	.L78:
 841:.\Generated_Source\PSoC5/TPS_ADC_SAR.c ****     }
 842:.\Generated_Source\PSoC5/TPS_ADC_SAR.c **** 
 843:.\Generated_Source\PSoC5/TPS_ADC_SAR.c ****     /* Subtract ADC offset */
 844:.\Generated_Source\PSoC5/TPS_ADC_SAR.c ****     adcCounts -= TPS_ADC_SAR_offset;
 840              		.loc 1 844 0
 841 001c 0A4B     		ldr	r3, .L79+8
 842 001e 1B88     		ldrh	r3, [r3]
 843 0020 C01A     		subs	r0, r0, r3
 844              	.LVL63:
 845:.\Generated_Source\PSoC5/TPS_ADC_SAR.c **** 
 846:.\Generated_Source\PSoC5/TPS_ADC_SAR.c ****     volts = ((float32)adcCounts * TPS_ADC_SAR_10V_COUNTS) / (float32)countsPer10Volt;
 845              		.loc 1 846 0
 846 0022 00B2     		sxth	r0, r0
 847              	.LVL64:
 848 0024 FFF7FEFF 		bl	__aeabi_i2f
 849              	.LVL65:
 850 0028 0849     		ldr	r1, .L79+12
 851 002a FFF7FEFF 		bl	__aeabi_fmul
ARM GAS  C:\Users\mitchell\AppData\Local\Temp\ccejfoB5.s 			page 32


 852              	.LVL66:
 853 002e 0446     		mov	r4, r0
 854 0030 2846     		mov	r0, r5
 855 0032 FFF7FEFF 		bl	__aeabi_i2f
 856              	.LVL67:
 857 0036 0146     		mov	r1, r0
 858 0038 2046     		mov	r0, r4
 859 003a FFF7FEFF 		bl	__aeabi_fdiv
 860              	.LVL68:
 847:.\Generated_Source\PSoC5/TPS_ADC_SAR.c **** 
 848:.\Generated_Source\PSoC5/TPS_ADC_SAR.c ****     return( volts );
 849:.\Generated_Source\PSoC5/TPS_ADC_SAR.c **** }
 861              		.loc 1 849 0
 862 003e 38BD     		pop	{r3, r4, r5, pc}
 863              	.LVL69:
 864              	.L80:
 865              		.align	2
 866              	.L79:
 867 0040 00000000 		.word	TPS_ADC_SAR_countsPerVolt
 868 0044 00000000 		.word	TPS_ADC_SAR_countsPer10Volt
 869 0048 00000000 		.word	TPS_ADC_SAR_offset
 870 004c 00002041 		.word	1092616192
 871              		.cfi_endproc
 872              	.LFE17:
 873              		.size	TPS_ADC_SAR_CountsTo_Volts, .-TPS_ADC_SAR_CountsTo_Volts
 874              		.comm	TPS_ADC_SAR_shift,2,2
 875              		.comm	TPS_ADC_SAR_countsPer10Volt,4,4
 876              		.comm	TPS_ADC_SAR_countsPerVolt,2,2
 877              		.comm	TPS_ADC_SAR_offset,2,2
 878              		.global	TPS_ADC_SAR_initVar
 879              		.bss
 880              		.set	.LANCHOR0,. + 0
 881              		.type	TPS_ADC_SAR_initVar, %object
 882              		.size	TPS_ADC_SAR_initVar, 1
 883              	TPS_ADC_SAR_initVar:
 884 0000 00       		.space	1
 885              		.text
 886              	.Letext0:
 887              		.file 2 ".\\Generated_Source\\PSoC5\\cytypes.h"
 888              		.file 3 ".\\Generated_Source\\PSoC5\\CyLib.h"