ARM GAS  C:\Users\maxk\AppData\Local\Temp\cctop37m.s 			page 1


   1              		.cpu cortex-m0
   2              		.fpu softvfp
   3              		.eabi_attribute 20, 1
   4              		.eabi_attribute 21, 1
   5              		.eabi_attribute 23, 3
   6              		.eabi_attribute 24, 1
   7              		.eabi_attribute 25, 1
   8              		.eabi_attribute 26, 1
   9              		.eabi_attribute 30, 6
  10              		.eabi_attribute 18, 4
  11              		.code	16
  12              		.file	"cyfitter_cfg.c"
  19 0000 A3010000 		.text
  19      0200F000 
  19      00000201 
  19      FB0E0D00 
  19      01010101 
  20              	.Ltext0:
  21              		.cfi_sections	.debug_frame
  22              		.section	.text.CYMEMZERO,"ax",%progbits
  23              		.align	2
  24              		.code	16
  25              		.thumb_func
  26              		.type	CYMEMZERO, %function
  27              	CYMEMZERO:
  28              	.LFB0:
  29              		.file 1 ".\\Generated_Source\\PSoC4\\cyfitter_cfg.c"
   1:.\Generated_Source\PSoC4/cyfitter_cfg.c **** /*******************************************************************************
   2:.\Generated_Source\PSoC4/cyfitter_cfg.c **** * FILENAME: cyfitter_cfg.c
   3:.\Generated_Source\PSoC4/cyfitter_cfg.c **** * PSoC Creator 2.2 Service Pack 1
   4:.\Generated_Source\PSoC4/cyfitter_cfg.c **** *
   5:.\Generated_Source\PSoC4/cyfitter_cfg.c **** * Description:
   6:.\Generated_Source\PSoC4/cyfitter_cfg.c **** * This file is automatically generated by PSoC Creator with device 
   7:.\Generated_Source\PSoC4/cyfitter_cfg.c **** * initialization code.  Except for the user defined sections in
   8:.\Generated_Source\PSoC4/cyfitter_cfg.c **** * CyClockStartupError(), this file should not be modified.
   9:.\Generated_Source\PSoC4/cyfitter_cfg.c **** *
  10:.\Generated_Source\PSoC4/cyfitter_cfg.c **** ********************************************************************************
  11:.\Generated_Source\PSoC4/cyfitter_cfg.c **** * Copyright 2013, Cypress Semiconductor Corporation.  All rights reserved.
  12:.\Generated_Source\PSoC4/cyfitter_cfg.c **** * You may use this file only in accordance with the license, terms, conditions, 
  13:.\Generated_Source\PSoC4/cyfitter_cfg.c **** * disclaimers, and limitations in the end user license agreement accompanying 
  14:.\Generated_Source\PSoC4/cyfitter_cfg.c **** * the software package with which this file was provided.
  15:.\Generated_Source\PSoC4/cyfitter_cfg.c **** ********************************************************************************/
  16:.\Generated_Source\PSoC4/cyfitter_cfg.c **** 
  17:.\Generated_Source\PSoC4/cyfitter_cfg.c **** #include <string.h>
  18:.\Generated_Source\PSoC4/cyfitter_cfg.c **** #include <cytypes.h>
  19:.\Generated_Source\PSoC4/cyfitter_cfg.c **** #include <cydevice_trm.h>
  20:.\Generated_Source\PSoC4/cyfitter_cfg.c **** #include <cyfitter.h>
  21:.\Generated_Source\PSoC4/cyfitter_cfg.c **** #include <CyLib.h>
  22:.\Generated_Source\PSoC4/cyfitter_cfg.c **** #include <cyfitter_cfg.h>
  23:.\Generated_Source\PSoC4/cyfitter_cfg.c **** 
  24:.\Generated_Source\PSoC4/cyfitter_cfg.c **** /* Clock startup error codes                                                   */
ARM GAS  C:\Users\maxk\AppData\Local\Temp\cctop37m.s 			page 2


  25:.\Generated_Source\PSoC4/cyfitter_cfg.c **** #define CYCLOCKSTART_NO_ERROR    0u
  26:.\Generated_Source\PSoC4/cyfitter_cfg.c **** #define CYCLOCKSTART_XTAL_ERROR  1u
  27:.\Generated_Source\PSoC4/cyfitter_cfg.c **** #define CYCLOCKSTART_32KHZ_ERROR 2u
  28:.\Generated_Source\PSoC4/cyfitter_cfg.c **** #define CYCLOCKSTART_PLL_ERROR   3u
  29:.\Generated_Source\PSoC4/cyfitter_cfg.c **** 
  30:.\Generated_Source\PSoC4/cyfitter_cfg.c **** #ifdef CY_NEED_CYCLOCKSTARTUPERROR
  31:.\Generated_Source\PSoC4/cyfitter_cfg.c **** /*******************************************************************************
  32:.\Generated_Source\PSoC4/cyfitter_cfg.c **** * Function Name: CyClockStartupError
  33:.\Generated_Source\PSoC4/cyfitter_cfg.c **** ********************************************************************************
  34:.\Generated_Source\PSoC4/cyfitter_cfg.c **** * Summary:
  35:.\Generated_Source\PSoC4/cyfitter_cfg.c **** *  If an error is encountered during clock configuration (crystal startup error,
  36:.\Generated_Source\PSoC4/cyfitter_cfg.c **** *  PLL lock error, etc.), the system will end up here.  Unless reimplemented by
  37:.\Generated_Source\PSoC4/cyfitter_cfg.c **** *  the customer, this function will stop in an infinite loop.
  38:.\Generated_Source\PSoC4/cyfitter_cfg.c **** *
  39:.\Generated_Source\PSoC4/cyfitter_cfg.c **** * Parameters:
  40:.\Generated_Source\PSoC4/cyfitter_cfg.c **** *   void
  41:.\Generated_Source\PSoC4/cyfitter_cfg.c **** *
  42:.\Generated_Source\PSoC4/cyfitter_cfg.c **** * Return:
  43:.\Generated_Source\PSoC4/cyfitter_cfg.c **** *   void
  44:.\Generated_Source\PSoC4/cyfitter_cfg.c **** *
  45:.\Generated_Source\PSoC4/cyfitter_cfg.c **** *******************************************************************************/
  46:.\Generated_Source\PSoC4/cyfitter_cfg.c **** #if defined(__GNUC__) || defined(__ARMCC_VERSION)
  47:.\Generated_Source\PSoC4/cyfitter_cfg.c **** __attribute__ ((unused))
  48:.\Generated_Source\PSoC4/cyfitter_cfg.c **** #endif
  49:.\Generated_Source\PSoC4/cyfitter_cfg.c **** static void CyClockStartupError(uint8 errorCode);
  50:.\Generated_Source\PSoC4/cyfitter_cfg.c **** #if defined(__GNUC__) || defined(__ARMCC_VERSION)
  51:.\Generated_Source\PSoC4/cyfitter_cfg.c **** __attribute__ ((unused))
  52:.\Generated_Source\PSoC4/cyfitter_cfg.c **** #endif
  53:.\Generated_Source\PSoC4/cyfitter_cfg.c **** static void CyClockStartupError(uint8 errorCode)
  54:.\Generated_Source\PSoC4/cyfitter_cfg.c **** {
  55:.\Generated_Source\PSoC4/cyfitter_cfg.c ****     /* To remove the compiler warning if errorCode not used.                */
  56:.\Generated_Source\PSoC4/cyfitter_cfg.c ****     errorCode = errorCode;
  57:.\Generated_Source\PSoC4/cyfitter_cfg.c **** 
  58:.\Generated_Source\PSoC4/cyfitter_cfg.c ****     /* `#START CyClockStartupError` */
  59:.\Generated_Source\PSoC4/cyfitter_cfg.c **** 
  60:.\Generated_Source\PSoC4/cyfitter_cfg.c ****     /* If we have a clock startup error (bad MHz crystal, PLL lock, etc.),  */
  61:.\Generated_Source\PSoC4/cyfitter_cfg.c ****     /* we will end up here to allow the customer to implement something to  */
  62:.\Generated_Source\PSoC4/cyfitter_cfg.c ****     /* deal with the clock condition.                                       */
  63:.\Generated_Source\PSoC4/cyfitter_cfg.c **** 
  64:.\Generated_Source\PSoC4/cyfitter_cfg.c ****     /* `#END` */
  65:.\Generated_Source\PSoC4/cyfitter_cfg.c **** 
  66:.\Generated_Source\PSoC4/cyfitter_cfg.c ****     /* If nothing else, stop here since the clocks have not started         */
  67:.\Generated_Source\PSoC4/cyfitter_cfg.c ****     /* correctly.                                                           */
  68:.\Generated_Source\PSoC4/cyfitter_cfg.c ****     while(1) {}
  69:.\Generated_Source\PSoC4/cyfitter_cfg.c **** }
  70:.\Generated_Source\PSoC4/cyfitter_cfg.c **** #endif
  71:.\Generated_Source\PSoC4/cyfitter_cfg.c **** 
  72:.\Generated_Source\PSoC4/cyfitter_cfg.c **** 
  73:.\Generated_Source\PSoC4/cyfitter_cfg.c **** #if defined(__GNUC__) || defined(__ARMCC_VERSION)
  74:.\Generated_Source\PSoC4/cyfitter_cfg.c **** 	#define CYPACKED __attribute__ ((packed))
  75:.\Generated_Source\PSoC4/cyfitter_cfg.c **** 	#define CYALIGNED __attribute__ ((aligned))
  76:.\Generated_Source\PSoC4/cyfitter_cfg.c **** 	
  77:.\Generated_Source\PSoC4/cyfitter_cfg.c **** 	#if defined(__ARMCC_VERSION)
  78:.\Generated_Source\PSoC4/cyfitter_cfg.c **** 		#define CY_CFG_MEMORY_BARRIER() __memory_changed()
  79:.\Generated_Source\PSoC4/cyfitter_cfg.c **** 	#else
  80:.\Generated_Source\PSoC4/cyfitter_cfg.c **** 		#define CY_CFG_MEMORY_BARRIER() __sync_synchronize()
  81:.\Generated_Source\PSoC4/cyfitter_cfg.c **** 	#endif
ARM GAS  C:\Users\maxk\AppData\Local\Temp\cctop37m.s 			page 3


  82:.\Generated_Source\PSoC4/cyfitter_cfg.c **** 	
  83:.\Generated_Source\PSoC4/cyfitter_cfg.c **** 
  84:.\Generated_Source\PSoC4/cyfitter_cfg.c **** 	__attribute__ ((unused))
  85:.\Generated_Source\PSoC4/cyfitter_cfg.c **** 	static void CYMEMZERO(void *s, size_t n);
  86:.\Generated_Source\PSoC4/cyfitter_cfg.c **** 	__attribute__ ((unused))
  87:.\Generated_Source\PSoC4/cyfitter_cfg.c **** 	static void CYMEMZERO(void *s, size_t n)
  88:.\Generated_Source\PSoC4/cyfitter_cfg.c **** 	{
  30              		.loc 1 88 0
  31              		.cfi_startproc
  32 0000 80B5     		push	{r7, lr}
  33              	.LCFI0:
  34              		.cfi_def_cfa_offset 8
  35              		.cfi_offset 7, -8
  36              		.cfi_offset 14, -4
  37 0002 82B0     		sub	sp, sp, #8
  38              	.LCFI1:
  39              		.cfi_def_cfa_offset 16
  40 0004 00AF     		add	r7, sp, #0
  41              	.LCFI2:
  42              		.cfi_def_cfa_register 7
  43 0006 7860     		str	r0, [r7, #4]
  44 0008 3960     		str	r1, [r7]
  89:.\Generated_Source\PSoC4/cyfitter_cfg.c **** 		(void)memset(s, 0, n);
  45              		.loc 1 89 0
  46 000a 7A68     		ldr	r2, [r7, #4]
  47 000c 3B68     		ldr	r3, [r7]
  48 000e 101C     		mov	r0, r2
  49 0010 0021     		mov	r1, #0
  50 0012 1A1C     		mov	r2, r3
  51 0014 FFF7FEFF 		bl	memset
  90:.\Generated_Source\PSoC4/cyfitter_cfg.c **** 	}
  52              		.loc 1 90 0
  53 0018 BD46     		mov	sp, r7
  54 001a 02B0     		add	sp, sp, #8
  55              		@ sp needed for prologue
  56 001c 80BD     		pop	{r7, pc}
  57              		.cfi_endproc
  58              	.LFE0:
  59              		.size	CYMEMZERO, .-CYMEMZERO
  60 001e C046     		.section	.text.CYCONFIGCPY,"ax",%progbits
  61              		.align	2
  62              		.code	16
  63              		.thumb_func
  64              		.type	CYCONFIGCPY, %function
  65              	CYCONFIGCPY:
  66              	.LFB1:
  91:.\Generated_Source\PSoC4/cyfitter_cfg.c **** 	__attribute__ ((unused))
  92:.\Generated_Source\PSoC4/cyfitter_cfg.c **** 	static void CYCONFIGCPY(void *dest, const void *src, size_t n);
  93:.\Generated_Source\PSoC4/cyfitter_cfg.c **** 	__attribute__ ((unused))
  94:.\Generated_Source\PSoC4/cyfitter_cfg.c **** 	static void CYCONFIGCPY(void *dest, const void *src, size_t n)
  95:.\Generated_Source\PSoC4/cyfitter_cfg.c **** 	{
  67              		.loc 1 95 0
  68              		.cfi_startproc
  69 0000 80B5     		push	{r7, lr}
  70              	.LCFI3:
  71              		.cfi_def_cfa_offset 8
  72              		.cfi_offset 7, -8
ARM GAS  C:\Users\maxk\AppData\Local\Temp\cctop37m.s 			page 4


  73              		.cfi_offset 14, -4
  74 0002 84B0     		sub	sp, sp, #16
  75              	.LCFI4:
  76              		.cfi_def_cfa_offset 24
  77 0004 00AF     		add	r7, sp, #0
  78              	.LCFI5:
  79              		.cfi_def_cfa_register 7
  80 0006 F860     		str	r0, [r7, #12]
  81 0008 B960     		str	r1, [r7, #8]
  82 000a 7A60     		str	r2, [r7, #4]
  96:.\Generated_Source\PSoC4/cyfitter_cfg.c **** 		(void)memcpy(dest, src, n);
  83              		.loc 1 96 0
  84 000c F968     		ldr	r1, [r7, #12]
  85 000e BA68     		ldr	r2, [r7, #8]
  86 0010 7B68     		ldr	r3, [r7, #4]
  87 0012 081C     		mov	r0, r1
  88 0014 111C     		mov	r1, r2
  89 0016 1A1C     		mov	r2, r3
  90 0018 FFF7FEFF 		bl	memcpy
  97:.\Generated_Source\PSoC4/cyfitter_cfg.c **** 	}
  91              		.loc 1 97 0
  92 001c BD46     		mov	sp, r7
  93 001e 04B0     		add	sp, sp, #16
  94              		@ sp needed for prologue
  95 0020 80BD     		pop	{r7, pc}
  96              		.cfi_endproc
  97              	.LFE1:
  98              		.size	CYCONFIGCPY, .-CYCONFIGCPY
  99 0022 C046     		.section	.text.CYCONFIGCPYCODE,"ax",%progbits
 100              		.align	2
 101              		.code	16
 102              		.thumb_func
 103              		.type	CYCONFIGCPYCODE, %function
 104              	CYCONFIGCPYCODE:
 105              	.LFB2:
  98:.\Generated_Source\PSoC4/cyfitter_cfg.c **** 	__attribute__ ((unused))
  99:.\Generated_Source\PSoC4/cyfitter_cfg.c **** 	static void CYCONFIGCPYCODE(void *dest, const void *src, size_t n);
 100:.\Generated_Source\PSoC4/cyfitter_cfg.c **** 	__attribute__ ((unused))
 101:.\Generated_Source\PSoC4/cyfitter_cfg.c **** 	static void CYCONFIGCPYCODE(void *dest, const void *src, size_t n)
 102:.\Generated_Source\PSoC4/cyfitter_cfg.c **** 	{
 106              		.loc 1 102 0
 107              		.cfi_startproc
 108 0000 80B5     		push	{r7, lr}
 109              	.LCFI6:
 110              		.cfi_def_cfa_offset 8
 111              		.cfi_offset 7, -8
 112              		.cfi_offset 14, -4
 113 0002 84B0     		sub	sp, sp, #16
 114              	.LCFI7:
 115              		.cfi_def_cfa_offset 24
 116 0004 00AF     		add	r7, sp, #0
 117              	.LCFI8:
 118              		.cfi_def_cfa_register 7
 119 0006 F860     		str	r0, [r7, #12]
 120 0008 B960     		str	r1, [r7, #8]
 121 000a 7A60     		str	r2, [r7, #4]
 103:.\Generated_Source\PSoC4/cyfitter_cfg.c **** 		(void)memcpy(dest, src, n);
ARM GAS  C:\Users\maxk\AppData\Local\Temp\cctop37m.s 			page 5


 122              		.loc 1 103 0
 123 000c F968     		ldr	r1, [r7, #12]
 124 000e BA68     		ldr	r2, [r7, #8]
 125 0010 7B68     		ldr	r3, [r7, #4]
 126 0012 081C     		mov	r0, r1
 127 0014 111C     		mov	r1, r2
 128 0016 1A1C     		mov	r2, r3
 129 0018 FFF7FEFF 		bl	memcpy
 104:.\Generated_Source\PSoC4/cyfitter_cfg.c **** 	}
 130              		.loc 1 104 0
 131 001c BD46     		mov	sp, r7
 132 001e 04B0     		add	sp, sp, #16
 133              		@ sp needed for prologue
 134 0020 80BD     		pop	{r7, pc}
 135              		.cfi_endproc
 136              	.LFE2:
 137              		.size	CYCONFIGCPYCODE, .-CYCONFIGCPYCODE
 138 0022 C046     		.section	.text.cfg_write_bytes32,"ax",%progbits
 139              		.align	2
 140              		.code	16
 141              		.thumb_func
 142              		.type	cfg_write_bytes32, %function
 143              	cfg_write_bytes32:
 144              	.LFB3:
 105:.\Generated_Source\PSoC4/cyfitter_cfg.c **** #else
 106:.\Generated_Source\PSoC4/cyfitter_cfg.c **** 	#error Unsupported toolchain
 107:.\Generated_Source\PSoC4/cyfitter_cfg.c **** #endif
 108:.\Generated_Source\PSoC4/cyfitter_cfg.c **** 
 109:.\Generated_Source\PSoC4/cyfitter_cfg.c **** #define CY_CFG_BASE_ADDR_COUNT 3u
 110:.\Generated_Source\PSoC4/cyfitter_cfg.c **** typedef struct
 111:.\Generated_Source\PSoC4/cyfitter_cfg.c **** {
 112:.\Generated_Source\PSoC4/cyfitter_cfg.c **** 	uint8 offset;
 113:.\Generated_Source\PSoC4/cyfitter_cfg.c **** 	uint8 value;
 114:.\Generated_Source\PSoC4/cyfitter_cfg.c **** } CYPACKED cy_cfg_addrvalue_t;
 115:.\Generated_Source\PSoC4/cyfitter_cfg.c **** 
 116:.\Generated_Source\PSoC4/cyfitter_cfg.c **** 
 117:.\Generated_Source\PSoC4/cyfitter_cfg.c **** 
 118:.\Generated_Source\PSoC4/cyfitter_cfg.c **** /*******************************************************************************
 119:.\Generated_Source\PSoC4/cyfitter_cfg.c **** * Function Name: cfg_write_bytes32
 120:.\Generated_Source\PSoC4/cyfitter_cfg.c **** ********************************************************************************
 121:.\Generated_Source\PSoC4/cyfitter_cfg.c **** * Summary:
 122:.\Generated_Source\PSoC4/cyfitter_cfg.c **** *  This function is used for setting up the chip configuration areas that
 123:.\Generated_Source\PSoC4/cyfitter_cfg.c **** *  contain relatively sparse data.
 124:.\Generated_Source\PSoC4/cyfitter_cfg.c **** *
 125:.\Generated_Source\PSoC4/cyfitter_cfg.c **** * Parameters:
 126:.\Generated_Source\PSoC4/cyfitter_cfg.c **** *   void
 127:.\Generated_Source\PSoC4/cyfitter_cfg.c **** *
 128:.\Generated_Source\PSoC4/cyfitter_cfg.c **** * Return:
 129:.\Generated_Source\PSoC4/cyfitter_cfg.c **** *   void
 130:.\Generated_Source\PSoC4/cyfitter_cfg.c **** *
 131:.\Generated_Source\PSoC4/cyfitter_cfg.c **** *******************************************************************************/
 132:.\Generated_Source\PSoC4/cyfitter_cfg.c **** static void cfg_write_bytes32(const uint32 addr_table[], const cy_cfg_addrvalue_t data_table[]);
 133:.\Generated_Source\PSoC4/cyfitter_cfg.c **** static void cfg_write_bytes32(const uint32 addr_table[], const cy_cfg_addrvalue_t data_table[])
 134:.\Generated_Source\PSoC4/cyfitter_cfg.c **** {
 145              		.loc 1 134 0
 146              		.cfi_startproc
 147 0000 80B5     		push	{r7, lr}
ARM GAS  C:\Users\maxk\AppData\Local\Temp\cctop37m.s 			page 6


 148              	.LCFI9:
 149              		.cfi_def_cfa_offset 8
 150              		.cfi_offset 7, -8
 151              		.cfi_offset 14, -4
 152 0002 86B0     		sub	sp, sp, #24
 153              	.LCFI10:
 154              		.cfi_def_cfa_offset 32
 155 0004 00AF     		add	r7, sp, #0
 156              	.LCFI11:
 157              		.cfi_def_cfa_register 7
 158 0006 7860     		str	r0, [r7, #4]
 159 0008 3960     		str	r1, [r7]
 135:.\Generated_Source\PSoC4/cyfitter_cfg.c **** 	/* For 32-bit little-endian architectures */
 136:.\Generated_Source\PSoC4/cyfitter_cfg.c **** 	uint32 i, j = 0u;
 160              		.loc 1 136 0
 161 000a 0023     		mov	r3, #0
 162 000c FB60     		str	r3, [r7, #12]
 137:.\Generated_Source\PSoC4/cyfitter_cfg.c **** 	for (i = 0u; i < CY_CFG_BASE_ADDR_COUNT; i++)
 163              		.loc 1 137 0
 164 000e 0023     		mov	r3, #0
 165 0010 BB60     		str	r3, [r7, #8]
 166 0012 2EE0     		b	.L8
 167              	.L11:
 168              	.LBB2:
 138:.\Generated_Source\PSoC4/cyfitter_cfg.c **** 	{
 139:.\Generated_Source\PSoC4/cyfitter_cfg.c **** 		uint32 baseAddr = addr_table[i];
 169              		.loc 1 139 0
 170 0014 BB68     		ldr	r3, [r7, #8]
 171 0016 9A00     		lsl	r2, r3, #2
 172 0018 7B68     		ldr	r3, [r7, #4]
 173 001a D318     		add	r3, r2, r3
 174 001c 1B68     		ldr	r3, [r3]
 175 001e 3B61     		str	r3, [r7, #16]
 140:.\Generated_Source\PSoC4/cyfitter_cfg.c **** 		uint8 count = (uint8)baseAddr;
 176              		.loc 1 140 0
 177 0020 3B1C     		mov	r3, r7
 178 0022 1733     		add	r3, r3, #23
 179 0024 3A69     		ldr	r2, [r7, #16]
 180 0026 1A70     		strb	r2, [r3]
 141:.\Generated_Source\PSoC4/cyfitter_cfg.c **** 		baseAddr &= 0xFFFFFF00u;
 181              		.loc 1 141 0
 182 0028 3B69     		ldr	r3, [r7, #16]
 183 002a FF22     		mov	r2, #255
 184 002c 9343     		bic	r3, r3, r2
 185 002e 3B61     		str	r3, [r7, #16]
 142:.\Generated_Source\PSoC4/cyfitter_cfg.c **** 		while (count != 0u)
 186              		.loc 1 142 0
 187 0030 17E0     		b	.L9
 188              	.L10:
 143:.\Generated_Source\PSoC4/cyfitter_cfg.c **** 		{
 144:.\Generated_Source\PSoC4/cyfitter_cfg.c **** 			CY_SET_XTND_REG8((void CYFAR *)(baseAddr + data_table[j].offset), data_table[j].value);
 189              		.loc 1 144 0
 190 0032 FB68     		ldr	r3, [r7, #12]
 191 0034 5A00     		lsl	r2, r3, #1
 192 0036 3B68     		ldr	r3, [r7]
 193 0038 D318     		add	r3, r2, r3
 194 003a 1B78     		ldrb	r3, [r3]
ARM GAS  C:\Users\maxk\AppData\Local\Temp\cctop37m.s 			page 7


 195 003c 1A1C     		mov	r2, r3
 196 003e 3B69     		ldr	r3, [r7, #16]
 197 0040 D318     		add	r3, r2, r3
 198 0042 FA68     		ldr	r2, [r7, #12]
 199 0044 5100     		lsl	r1, r2, #1
 200 0046 3A68     		ldr	r2, [r7]
 201 0048 8A18     		add	r2, r1, r2
 202 004a 5278     		ldrb	r2, [r2, #1]
 203 004c 1A70     		strb	r2, [r3]
 145:.\Generated_Source\PSoC4/cyfitter_cfg.c **** 			j++;
 204              		.loc 1 145 0
 205 004e FB68     		ldr	r3, [r7, #12]
 206 0050 0133     		add	r3, r3, #1
 207 0052 FB60     		str	r3, [r7, #12]
 146:.\Generated_Source\PSoC4/cyfitter_cfg.c **** 			count--;
 208              		.loc 1 146 0
 209 0054 3B1C     		mov	r3, r7
 210 0056 1733     		add	r3, r3, #23
 211 0058 3A1C     		mov	r2, r7
 212 005a 1732     		add	r2, r2, #23
 213 005c 1278     		ldrb	r2, [r2]
 214 005e 013A     		sub	r2, r2, #1
 215 0060 1A70     		strb	r2, [r3]
 216              	.L9:
 217              		.loc 1 142 0
 218 0062 3B1C     		mov	r3, r7
 219 0064 1733     		add	r3, r3, #23
 220 0066 1B78     		ldrb	r3, [r3]
 221 0068 002B     		cmp	r3, #0
 222 006a E2D1     		bne	.L10
 223              	.LBE2:
 224              		.loc 1 137 0
 225 006c BB68     		ldr	r3, [r7, #8]
 226 006e 0133     		add	r3, r3, #1
 227 0070 BB60     		str	r3, [r7, #8]
 228              	.L8:
 229 0072 BB68     		ldr	r3, [r7, #8]
 230 0074 022B     		cmp	r3, #2
 231 0076 CDD9     		bls	.L11
 147:.\Generated_Source\PSoC4/cyfitter_cfg.c **** 		}
 148:.\Generated_Source\PSoC4/cyfitter_cfg.c **** 	}
 149:.\Generated_Source\PSoC4/cyfitter_cfg.c **** }
 232              		.loc 1 149 0
 233 0078 BD46     		mov	sp, r7
 234 007a 06B0     		add	sp, sp, #24
 235              		@ sp needed for prologue
 236 007c 80BD     		pop	{r7, pc}
 237              		.cfi_endproc
 238              	.LFE3:
 239              		.size	cfg_write_bytes32, .-cfg_write_bytes32
 240              		.section	.psocinit,"ax",%progbits
 241              		.align	2
 242              		.code	16
 243              		.thumb_func
 244              		.type	SetIMOBGTrims, %function
 245              	SetIMOBGTrims:
 246              	.LFB4:
ARM GAS  C:\Users\maxk\AppData\Local\Temp\cctop37m.s 			page 8


 150:.\Generated_Source\PSoC4/cyfitter_cfg.c **** 
 151:.\Generated_Source\PSoC4/cyfitter_cfg.c **** /*******************************************************************************
 152:.\Generated_Source\PSoC4/cyfitter_cfg.c **** * Function Name: SetIMOBGTrims
 153:.\Generated_Source\PSoC4/cyfitter_cfg.c **** ********************************************************************************
 154:.\Generated_Source\PSoC4/cyfitter_cfg.c **** *
 155:.\Generated_Source\PSoC4/cyfitter_cfg.c **** * Summary:
 156:.\Generated_Source\PSoC4/cyfitter_cfg.c **** *   Performs the configuration of the bandgap trim for the IMO based on the given
 157:.\Generated_Source\PSoC4/cyfitter_cfg.c **** *   expected frequency of the IMO. 
 158:.\Generated_Source\PSoC4/cyfitter_cfg.c **** *
 159:.\Generated_Source\PSoC4/cyfitter_cfg.c **** * Parameters:
 160:.\Generated_Source\PSoC4/cyfitter_cfg.c **** *   imoFreq: Frequency for operation of the IMO.
 161:.\Generated_Source\PSoC4/cyfitter_cfg.c **** *
 162:.\Generated_Source\PSoC4/cyfitter_cfg.c **** * Return:
 163:.\Generated_Source\PSoC4/cyfitter_cfg.c **** *   void
 164:.\Generated_Source\PSoC4/cyfitter_cfg.c **** *
 165:.\Generated_Source\PSoC4/cyfitter_cfg.c **** *******************************************************************************/
 166:.\Generated_Source\PSoC4/cyfitter_cfg.c **** static void SetIMOBGTrims(uint8 imoFreq);
 167:.\Generated_Source\PSoC4/cyfitter_cfg.c **** __attribute__ ((section(".psocinit")))
 168:.\Generated_Source\PSoC4/cyfitter_cfg.c **** static void SetIMOBGTrims(uint8 imoFreq)
 169:.\Generated_Source\PSoC4/cyfitter_cfg.c **** {
 247              		.loc 1 169 0
 248              		.cfi_startproc
 249 0000 80B5     		push	{r7, lr}
 250              	.LCFI12:
 251              		.cfi_def_cfa_offset 8
 252              		.cfi_offset 7, -8
 253              		.cfi_offset 14, -4
 254 0002 84B0     		sub	sp, sp, #16
 255              	.LCFI13:
 256              		.cfi_def_cfa_offset 24
 257 0004 00AF     		add	r7, sp, #0
 258              	.LCFI14:
 259              		.cfi_def_cfa_register 7
 260 0006 021C     		mov	r2, r0
 261 0008 FB1D     		add	r3, r7, #7
 262 000a 1A70     		strb	r2, [r3]
 170:.\Generated_Source\PSoC4/cyfitter_cfg.c **** 	typedef struct {
 171:.\Generated_Source\PSoC4/cyfitter_cfg.c **** 		uint8 freq;
 172:.\Generated_Source\PSoC4/cyfitter_cfg.c **** 		uint8 absolute;
 173:.\Generated_Source\PSoC4/cyfitter_cfg.c **** 		uint8 tmpco;
 174:.\Generated_Source\PSoC4/cyfitter_cfg.c **** 	} CYPACKED imo_trim_entry_t;
 175:.\Generated_Source\PSoC4/cyfitter_cfg.c **** 
 176:.\Generated_Source\PSoC4/cyfitter_cfg.c **** 	typedef struct {
 177:.\Generated_Source\PSoC4/cyfitter_cfg.c **** 		imo_trim_entry_t entries[4];
 178:.\Generated_Source\PSoC4/cyfitter_cfg.c **** 	} CYPACKED imo_trim_table_t;
 179:.\Generated_Source\PSoC4/cyfitter_cfg.c **** 
 180:.\Generated_Source\PSoC4/cyfitter_cfg.c **** 	static const imo_trim_table_t *imo_trim_table = (const imo_trim_table_t *)CYREG_SFLASH_IMO_MAXF0;
 181:.\Generated_Source\PSoC4/cyfitter_cfg.c **** 	static const uint32 IMO_TRIM_FREQ_TABLE_ENTRIES = sizeof(imo_trim_table->entries)/sizeof(imo_trim_
 182:.\Generated_Source\PSoC4/cyfitter_cfg.c **** 
 183:.\Generated_Source\PSoC4/cyfitter_cfg.c **** 	int32 imoTrimIndex;
 184:.\Generated_Source\PSoC4/cyfitter_cfg.c **** 	uint8 setAbs;
 185:.\Generated_Source\PSoC4/cyfitter_cfg.c **** 	uint8 setTmpCo;
 186:.\Generated_Source\PSoC4/cyfitter_cfg.c **** 
 187:.\Generated_Source\PSoC4/cyfitter_cfg.c **** 	/* Traverse the SFLASH IMO frequency-dependent bandgap trim table to
 188:.\Generated_Source\PSoC4/cyfitter_cfg.c **** 	 * locate the appropriate value to trim the IMO bandgap based on freq. */
 189:.\Generated_Source\PSoC4/cyfitter_cfg.c **** 	setAbs = CY_GET_REG8((const void *)CYREG_SFLASH_IMO_ABS4);
 263              		.loc 1 189 0
ARM GAS  C:\Users\maxk\AppData\Local\Temp\cctop37m.s 			page 9


 264 000c 224A     		ldr	r2, .L18
 265 000e 3B1C     		mov	r3, r7
 266 0010 0E33     		add	r3, r3, #14
 267 0012 1278     		ldrb	r2, [r2]
 268 0014 1A70     		strb	r2, [r3]
 190:.\Generated_Source\PSoC4/cyfitter_cfg.c **** 	setTmpCo = CY_GET_REG8((const void *)CYREG_SFLASH_IMO_TMPCO4);
 269              		.loc 1 190 0
 270 0016 214A     		ldr	r2, .L18+4
 271 0018 3B1C     		mov	r3, r7
 272 001a 0F33     		add	r3, r3, #15
 273 001c 1278     		ldrb	r2, [r2]
 274 001e 1A70     		strb	r2, [r3]
 191:.\Generated_Source\PSoC4/cyfitter_cfg.c **** 	for (imoTrimIndex = ((int32)IMO_TRIM_FREQ_TABLE_ENTRIES)-1;
 275              		.loc 1 191 0
 276 0020 1F4B     		ldr	r3, .L18+8
 277 0022 1B68     		ldr	r3, [r3]
 278 0024 013B     		sub	r3, r3, #1
 279 0026 BB60     		str	r3, [r7, #8]
 280 0028 1AE0     		b	.L14
 281              	.L16:
 192:.\Generated_Source\PSoC4/cyfitter_cfg.c **** 	     (imoTrimIndex >= 0) && (imoFreq <= imo_trim_table->entries[imoTrimIndex].freq);
 193:.\Generated_Source\PSoC4/cyfitter_cfg.c **** 	     imoTrimIndex--)
 194:.\Generated_Source\PSoC4/cyfitter_cfg.c **** 	{
 195:.\Generated_Source\PSoC4/cyfitter_cfg.c **** 		setAbs = imo_trim_table->entries[imoTrimIndex].absolute;
 282              		.loc 1 195 0
 283 002a 1E4B     		ldr	r3, .L18+12
 284 002c 1868     		ldr	r0, [r3]
 285 002e BA68     		ldr	r2, [r7, #8]
 286 0030 391C     		mov	r1, r7
 287 0032 0E31     		add	r1, r1, #14
 288 0034 131C     		mov	r3, r2
 289 0036 5B00     		lsl	r3, r3, #1
 290 0038 9B18     		add	r3, r3, r2
 291 003a 1B18     		add	r3, r3, r0
 292 003c 0133     		add	r3, r3, #1
 293 003e 1B78     		ldrb	r3, [r3]
 294 0040 0B70     		strb	r3, [r1]
 196:.\Generated_Source\PSoC4/cyfitter_cfg.c **** 		setTmpCo = imo_trim_table->entries[imoTrimIndex].tmpco;
 295              		.loc 1 196 0
 296 0042 184B     		ldr	r3, .L18+12
 297 0044 1868     		ldr	r0, [r3]
 298 0046 BA68     		ldr	r2, [r7, #8]
 299 0048 391C     		mov	r1, r7
 300 004a 0F31     		add	r1, r1, #15
 301 004c 131C     		mov	r3, r2
 302 004e 5B00     		lsl	r3, r3, #1
 303 0050 9B18     		add	r3, r3, r2
 304 0052 1B18     		add	r3, r3, r0
 305 0054 0233     		add	r3, r3, #2
 306 0056 1B78     		ldrb	r3, [r3]
 307 0058 0B70     		strb	r3, [r1]
 308              		.loc 1 193 0
 309 005a BB68     		ldr	r3, [r7, #8]
 310 005c 013B     		sub	r3, r3, #1
 311 005e BB60     		str	r3, [r7, #8]
 312              	.L14:
 313              		.loc 1 191 0
ARM GAS  C:\Users\maxk\AppData\Local\Temp\cctop37m.s 			page 10


 314 0060 BB68     		ldr	r3, [r7, #8]
 315 0062 002B     		cmp	r3, #0
 316 0064 0ADB     		blt	.L15
 317              		.loc 1 192 0
 318 0066 0F4B     		ldr	r3, .L18+12
 319 0068 1968     		ldr	r1, [r3]
 320 006a BA68     		ldr	r2, [r7, #8]
 321 006c 131C     		mov	r3, r2
 322 006e 5B00     		lsl	r3, r3, #1
 323 0070 9B18     		add	r3, r3, r2
 324 0072 5B5C     		ldrb	r3, [r3, r1]
 325              		.loc 1 191 0
 326 0074 FA1D     		add	r2, r7, #7
 327 0076 1278     		ldrb	r2, [r2]
 328 0078 9A42     		cmp	r2, r3
 329 007a D6D9     		bls	.L16
 330              	.L15:
 197:.\Generated_Source\PSoC4/cyfitter_cfg.c **** 	}
 198:.\Generated_Source\PSoC4/cyfitter_cfg.c **** 
 199:.\Generated_Source\PSoC4/cyfitter_cfg.c **** 	CY_SET_REG32((void *)CYREG_PWR_BG_TRIM4, setAbs);
 331              		.loc 1 199 0
 332 007c 0A4B     		ldr	r3, .L18+16
 333 007e 3A1C     		mov	r2, r7
 334 0080 0E32     		add	r2, r2, #14
 335 0082 1278     		ldrb	r2, [r2]
 336 0084 1A60     		str	r2, [r3]
 200:.\Generated_Source\PSoC4/cyfitter_cfg.c **** 	CY_SET_REG32((void *)CYREG_PWR_BG_TRIM5, setTmpCo);
 337              		.loc 1 200 0
 338 0086 094B     		ldr	r3, .L18+20
 339 0088 3A1C     		mov	r2, r7
 340 008a 0F32     		add	r2, r2, #15
 341 008c 1278     		ldrb	r2, [r2]
 342 008e 1A60     		str	r2, [r3]
 201:.\Generated_Source\PSoC4/cyfitter_cfg.c **** }
 343              		.loc 1 201 0
 344 0090 BD46     		mov	sp, r7
 345 0092 04B0     		add	sp, sp, #16
 346              		@ sp needed for prologue
 347 0094 80BD     		pop	{r7, pc}
 348              	.L19:
 349 0096 C046     		.align	2
 350              	.L18:
 351 0098 CCF1FF0F 		.word	268431820
 352 009c CDF1FF0F 		.word	268431821
 353 00a0 28000000 		.word	IMO_TRIM_FREQ_TABLE_ENTRIES.1859
 354 00a4 00000000 		.word	imo_trim_table.1858
 355 00a8 1CFF0B40 		.word	1074528028
 356 00ac 20FF0B40 		.word	1074528032
 357              		.cfi_endproc
 358              	.LFE4:
 359              		.size	SetIMOBGTrims, .-SetIMOBGTrims
 360              		.align	2
 361              		.code	16
 362              		.thumb_func
 363              		.type	ClockSetup, %function
 364              	ClockSetup:
 365              	.LFB5:
ARM GAS  C:\Users\maxk\AppData\Local\Temp\cctop37m.s 			page 11


 202:.\Generated_Source\PSoC4/cyfitter_cfg.c **** 
 203:.\Generated_Source\PSoC4/cyfitter_cfg.c **** 
 204:.\Generated_Source\PSoC4/cyfitter_cfg.c **** 
 205:.\Generated_Source\PSoC4/cyfitter_cfg.c **** /*******************************************************************************
 206:.\Generated_Source\PSoC4/cyfitter_cfg.c **** * Function Name: ClockSetup
 207:.\Generated_Source\PSoC4/cyfitter_cfg.c **** ********************************************************************************
 208:.\Generated_Source\PSoC4/cyfitter_cfg.c **** *
 209:.\Generated_Source\PSoC4/cyfitter_cfg.c **** * Summary:
 210:.\Generated_Source\PSoC4/cyfitter_cfg.c **** *   Performs the initialization of all of the clocks in the device based on the
 211:.\Generated_Source\PSoC4/cyfitter_cfg.c **** *   settings in the Clock tab of the DWR.  This includes enabling the requested
 212:.\Generated_Source\PSoC4/cyfitter_cfg.c **** *   clocks and setting the necessary dividers to produce the desired frequency. 
 213:.\Generated_Source\PSoC4/cyfitter_cfg.c **** *
 214:.\Generated_Source\PSoC4/cyfitter_cfg.c **** * Parameters:
 215:.\Generated_Source\PSoC4/cyfitter_cfg.c **** *   void
 216:.\Generated_Source\PSoC4/cyfitter_cfg.c **** *
 217:.\Generated_Source\PSoC4/cyfitter_cfg.c **** * Return:
 218:.\Generated_Source\PSoC4/cyfitter_cfg.c **** *   void
 219:.\Generated_Source\PSoC4/cyfitter_cfg.c **** *
 220:.\Generated_Source\PSoC4/cyfitter_cfg.c **** *******************************************************************************/
 221:.\Generated_Source\PSoC4/cyfitter_cfg.c **** static void ClockSetup(void);
 222:.\Generated_Source\PSoC4/cyfitter_cfg.c **** __attribute__ ((section(".psocinit")))
 223:.\Generated_Source\PSoC4/cyfitter_cfg.c **** static void ClockSetup(void)
 224:.\Generated_Source\PSoC4/cyfitter_cfg.c **** {
 366              		.loc 1 224 0
 367              		.cfi_startproc
 368 00b0 80B5     		push	{r7, lr}
 369              	.LCFI15:
 370              		.cfi_def_cfa_offset 8
 371              		.cfi_offset 7, -8
 372              		.cfi_offset 14, -4
 373 00b2 00AF     		add	r7, sp, #0
 374              	.LCFI16:
 375              		.cfi_def_cfa_register 7
 225:.\Generated_Source\PSoC4/cyfitter_cfg.c **** 	/* Enable HALF_EN before trimming for the flash accelerator. */
 226:.\Generated_Source\PSoC4/cyfitter_cfg.c **** 	CY_SET_REG32((void CYXDATA *)(CYREG_CLK_SELECT), (CY_GET_REG32((void *)CYREG_CLK_SELECT) | 0x00040
 376              		.loc 1 226 0
 377 00b4 164A     		ldr	r2, .L22
 378 00b6 164B     		ldr	r3, .L22
 379 00b8 1968     		ldr	r1, [r3]
 380 00ba 8023     		mov	r3, #128
 381 00bc DB02     		lsl	r3, r3, #11
 382 00be 0B43     		orr	r3, r3, r1
 383 00c0 1360     		str	r3, [r2]
 227:.\Generated_Source\PSoC4/cyfitter_cfg.c **** 
 228:.\Generated_Source\PSoC4/cyfitter_cfg.c **** 	/* Trim IMO BG based on desired frequency. */
 229:.\Generated_Source\PSoC4/cyfitter_cfg.c **** 	SetIMOBGTrims(24u);
 384              		.loc 1 229 0
 385 00c2 1820     		mov	r0, #24
 386 00c4 FFF79CFF 		bl	SetIMOBGTrims
 230:.\Generated_Source\PSoC4/cyfitter_cfg.c **** 
 231:.\Generated_Source\PSoC4/cyfitter_cfg.c **** 	/* Going less than or equal to 24MHz, so update the clock speed then adjust trim value. */
 232:.\Generated_Source\PSoC4/cyfitter_cfg.c **** 	CY_SET_REG32((void CYXDATA *)(CYREG_CLK_IMO_TRIM2), (25u));
 387              		.loc 1 232 0
 388 00c8 124B     		ldr	r3, .L22+4
 389 00ca 1922     		mov	r2, #25
 390 00cc 1A60     		str	r2, [r3]
 233:.\Generated_Source\PSoC4/cyfitter_cfg.c **** 	CyDelayCycles(5u);
ARM GAS  C:\Users\maxk\AppData\Local\Temp\cctop37m.s 			page 12


 391              		.loc 1 233 0
 392 00ce 0520     		mov	r0, #5
 393 00d0 FFF7FEFF 		bl	CyDelayCycles
 234:.\Generated_Source\PSoC4/cyfitter_cfg.c **** 	CY_SET_REG32((void CYXDATA *)(CYREG_CLK_IMO_TRIM1), (CY_GET_REG8((void *)CYREG_SFLASH_IMO_TRIM21))
 394              		.loc 1 234 0
 395 00d4 104B     		ldr	r3, .L22+8
 396 00d6 114A     		ldr	r2, .L22+12
 397 00d8 1278     		ldrb	r2, [r2]
 398 00da D2B2     		uxtb	r2, r2
 399 00dc 1A60     		str	r2, [r3]
 235:.\Generated_Source\PSoC4/cyfitter_cfg.c **** 	CyDelayUs(5u);
 400              		.loc 1 235 0
 401 00de 0520     		mov	r0, #5
 402 00e0 FFF7FEFF 		bl	CyDelayUs
 236:.\Generated_Source\PSoC4/cyfitter_cfg.c **** 
 237:.\Generated_Source\PSoC4/cyfitter_cfg.c **** 	/* Disable HALF_EN since it is not required at this IMO frequency. */
 238:.\Generated_Source\PSoC4/cyfitter_cfg.c **** 	CY_SET_REG32((void CYXDATA *)(CYREG_CLK_SELECT), (CY_GET_REG32((void *)CYREG_CLK_SELECT) & 0xFFFBF
 403              		.loc 1 238 0
 404 00e4 0A4B     		ldr	r3, .L22
 405 00e6 0A4A     		ldr	r2, .L22
 406 00e8 1168     		ldr	r1, [r2]
 407 00ea 0D4A     		ldr	r2, .L22+16
 408 00ec 0A40     		and	r2, r2, r1
 409 00ee 1A60     		str	r2, [r3]
 239:.\Generated_Source\PSoC4/cyfitter_cfg.c **** 
 240:.\Generated_Source\PSoC4/cyfitter_cfg.c **** 	/* CYDEV_CLK_SELECT00 Starting address: CYDEV_CLK_SELECT00 */
 241:.\Generated_Source\PSoC4/cyfitter_cfg.c **** 	CY_SET_XTND_REG32((void CYFAR *)(CYREG_CLK_SELECT08), 0x00000010u);
 410              		.loc 1 241 0
 411 00f0 0C4B     		ldr	r3, .L22+20
 412 00f2 1022     		mov	r2, #16
 413 00f4 1A60     		str	r2, [r3]
 242:.\Generated_Source\PSoC4/cyfitter_cfg.c **** 
 243:.\Generated_Source\PSoC4/cyfitter_cfg.c **** 	/* CYDEV_CLK_IMO_CONFIG Starting address: CYDEV_CLK_IMO_CONFIG */
 244:.\Generated_Source\PSoC4/cyfitter_cfg.c **** 	CY_SET_XTND_REG32((void CYFAR *)(CYREG_CLK_IMO_CONFIG), 0x80000000u);
 414              		.loc 1 244 0
 415 00f6 0C4A     		ldr	r2, .L22+24
 416 00f8 8023     		mov	r3, #128
 417 00fa 1B06     		lsl	r3, r3, #24
 418 00fc 1360     		str	r3, [r2]
 245:.\Generated_Source\PSoC4/cyfitter_cfg.c **** 
 246:.\Generated_Source\PSoC4/cyfitter_cfg.c **** 	/* CYDEV_CLK_ILO_CONFIG Starting address: CYDEV_CLK_ILO_CONFIG */
 247:.\Generated_Source\PSoC4/cyfitter_cfg.c **** 	CY_SET_XTND_REG32((void CYFAR *)(CYREG_CLK_ILO_CONFIG), 0x80000000u);
 419              		.loc 1 247 0
 420 00fe 0B4A     		ldr	r2, .L22+28
 421 0100 8023     		mov	r3, #128
 422 0102 1B06     		lsl	r3, r3, #24
 423 0104 1360     		str	r3, [r2]
 248:.\Generated_Source\PSoC4/cyfitter_cfg.c **** 
 249:.\Generated_Source\PSoC4/cyfitter_cfg.c **** 	/* CYDEV_CLK_DIVIDER_A00 Starting address: CYDEV_CLK_DIVIDER_A00 */
 250:.\Generated_Source\PSoC4/cyfitter_cfg.c **** 	CY_SET_XTND_REG32((void CYFAR *)(CYREG_CLK_DIVIDER_A00), 0x80000001u);
 424              		.loc 1 250 0
 425 0106 0A4B     		ldr	r3, .L22+32
 426 0108 0A4A     		ldr	r2, .L22+36
 427 010a 1A60     		str	r2, [r3]
 251:.\Generated_Source\PSoC4/cyfitter_cfg.c **** 
 252:.\Generated_Source\PSoC4/cyfitter_cfg.c **** }
 428              		.loc 1 252 0
ARM GAS  C:\Users\maxk\AppData\Local\Temp\cctop37m.s 			page 13


 429 010c BD46     		mov	sp, r7
 430              		@ sp needed for prologue
 431 010e 80BD     		pop	{r7, pc}
 432              	.L23:
 433              		.align	2
 434              	.L22:
 435 0110 00010B40 		.word	1074462976
 436 0114 2CFF0B40 		.word	1074528044
 437 0118 28FF0B40 		.word	1074528040
 438 011c E5F1FF0F 		.word	268431845
 439 0120 FFFFFBFF 		.word	-262145
 440 0124 20020240 		.word	1073873440
 441 0128 08010B40 		.word	1074462984
 442 012c 04010B40 		.word	1074462980
 443 0130 00000240 		.word	1073872896
 444 0134 01000080 		.word	-2147483647
 445              		.cfi_endproc
 446              	.LFE5:
 447              		.size	ClockSetup, .-ClockSetup
 448              		.section	.text.AnalogSetDefault,"ax",%progbits
 449              		.align	2
 450              		.code	16
 451              		.thumb_func
 452              		.type	AnalogSetDefault, %function
 453              	AnalogSetDefault:
 454              	.LFB6:
 253:.\Generated_Source\PSoC4/cyfitter_cfg.c **** 
 254:.\Generated_Source\PSoC4/cyfitter_cfg.c **** 
 255:.\Generated_Source\PSoC4/cyfitter_cfg.c **** /* Analog API Functions */
 256:.\Generated_Source\PSoC4/cyfitter_cfg.c **** 
 257:.\Generated_Source\PSoC4/cyfitter_cfg.c **** 
 258:.\Generated_Source\PSoC4/cyfitter_cfg.c **** /*******************************************************************************
 259:.\Generated_Source\PSoC4/cyfitter_cfg.c **** * Function Name: AnalogSetDefault
 260:.\Generated_Source\PSoC4/cyfitter_cfg.c **** ********************************************************************************
 261:.\Generated_Source\PSoC4/cyfitter_cfg.c **** *
 262:.\Generated_Source\PSoC4/cyfitter_cfg.c **** * Summary:
 263:.\Generated_Source\PSoC4/cyfitter_cfg.c **** *  Sets up the analog portions of the chip to default values based on chip
 264:.\Generated_Source\PSoC4/cyfitter_cfg.c **** *  configuration options from the project.
 265:.\Generated_Source\PSoC4/cyfitter_cfg.c **** *
 266:.\Generated_Source\PSoC4/cyfitter_cfg.c **** * Parameters:
 267:.\Generated_Source\PSoC4/cyfitter_cfg.c **** *  void
 268:.\Generated_Source\PSoC4/cyfitter_cfg.c **** *
 269:.\Generated_Source\PSoC4/cyfitter_cfg.c **** * Return:
 270:.\Generated_Source\PSoC4/cyfitter_cfg.c **** *  void
 271:.\Generated_Source\PSoC4/cyfitter_cfg.c **** *
 272:.\Generated_Source\PSoC4/cyfitter_cfg.c **** *******************************************************************************/
 273:.\Generated_Source\PSoC4/cyfitter_cfg.c **** static void AnalogSetDefault(void);
 274:.\Generated_Source\PSoC4/cyfitter_cfg.c **** static void AnalogSetDefault(void)
 275:.\Generated_Source\PSoC4/cyfitter_cfg.c **** {
 455              		.loc 1 275 0
 456              		.cfi_startproc
 457 0000 80B5     		push	{r7, lr}
 458              	.LCFI17:
 459              		.cfi_def_cfa_offset 8
 460              		.cfi_offset 7, -8
 461              		.cfi_offset 14, -4
 462 0002 00AF     		add	r7, sp, #0
ARM GAS  C:\Users\maxk\AppData\Local\Temp\cctop37m.s 			page 14


 463              	.LCFI18:
 464              		.cfi_def_cfa_register 7
 276:.\Generated_Source\PSoC4/cyfitter_cfg.c **** }
 465              		.loc 1 276 0
 466 0004 BD46     		mov	sp, r7
 467              		@ sp needed for prologue
 468 0006 80BD     		pop	{r7, pc}
 469              		.cfi_endproc
 470              	.LFE6:
 471              		.size	AnalogSetDefault, .-AnalogSetDefault
 472              		.section	.psocinit
 473              		.align	2
 474              		.global	cyfitter_cfg
 475              		.code	16
 476              		.thumb_func
 477              		.type	cyfitter_cfg, %function
 478              	cyfitter_cfg:
 479              	.LFB7:
 277:.\Generated_Source\PSoC4/cyfitter_cfg.c **** 
 278:.\Generated_Source\PSoC4/cyfitter_cfg.c **** #define CY_AMUX_UNUSED CYREG_SAR_MUX_SWITCH_STATUS
 279:.\Generated_Source\PSoC4/cyfitter_cfg.c **** 
 280:.\Generated_Source\PSoC4/cyfitter_cfg.c **** 
 281:.\Generated_Source\PSoC4/cyfitter_cfg.c **** /*******************************************************************************
 282:.\Generated_Source\PSoC4/cyfitter_cfg.c **** * Function Name: cyfitter_cfg
 283:.\Generated_Source\PSoC4/cyfitter_cfg.c **** ********************************************************************************
 284:.\Generated_Source\PSoC4/cyfitter_cfg.c **** * Summary:
 285:.\Generated_Source\PSoC4/cyfitter_cfg.c **** *  This function is called by the start-up code for the selected device. It
 286:.\Generated_Source\PSoC4/cyfitter_cfg.c **** *  performs all of the necessary device configuration based on the design
 287:.\Generated_Source\PSoC4/cyfitter_cfg.c **** *  settings.  This includes settings from the Design Wide Resources (DWR) such
 288:.\Generated_Source\PSoC4/cyfitter_cfg.c **** *  as Clocks and Pins as well as any component configuration that is necessary.
 289:.\Generated_Source\PSoC4/cyfitter_cfg.c **** *
 290:.\Generated_Source\PSoC4/cyfitter_cfg.c **** * Parameters:  
 291:.\Generated_Source\PSoC4/cyfitter_cfg.c **** *   void
 292:.\Generated_Source\PSoC4/cyfitter_cfg.c **** *
 293:.\Generated_Source\PSoC4/cyfitter_cfg.c **** * Return:
 294:.\Generated_Source\PSoC4/cyfitter_cfg.c **** *   void
 295:.\Generated_Source\PSoC4/cyfitter_cfg.c **** *
 296:.\Generated_Source\PSoC4/cyfitter_cfg.c **** *******************************************************************************/
 297:.\Generated_Source\PSoC4/cyfitter_cfg.c **** __attribute__ ((section(".psocinit")))
 298:.\Generated_Source\PSoC4/cyfitter_cfg.c **** void cyfitter_cfg(void)
 299:.\Generated_Source\PSoC4/cyfitter_cfg.c **** {
 480              		.loc 1 299 0
 481              		.cfi_startproc
 482 0138 80B5     		push	{r7, lr}
 483              	.LCFI19:
 484              		.cfi_def_cfa_offset 8
 485              		.cfi_offset 7, -8
 486              		.cfi_offset 14, -4
 487 013a 82B0     		sub	sp, sp, #8
 488              	.LCFI20:
 489              		.cfi_def_cfa_offset 16
 490 013c 00AF     		add	r7, sp, #0
 491              	.LCFI21:
 492              		.cfi_def_cfa_register 7
 300:.\Generated_Source\PSoC4/cyfitter_cfg.c **** 	/* Disable interrupts by default. Let user enable if/when they want. */
 301:.\Generated_Source\PSoC4/cyfitter_cfg.c **** 	CyGlobalIntDisable;
 493              		.loc 1 301 0
ARM GAS  C:\Users\maxk\AppData\Local\Temp\cctop37m.s 			page 15


 494              	@ 301 ".\Generated_Source\PSoC4\cyfitter_cfg.c" 1
 495 013e 72B6     		CPSID   i
 496              	@ 0 "" 2
 497              		.code	16
 498              	.LBB3:
 302:.\Generated_Source\PSoC4/cyfitter_cfg.c **** 
 303:.\Generated_Source\PSoC4/cyfitter_cfg.c **** 	{
 304:.\Generated_Source\PSoC4/cyfitter_cfg.c **** 		static const uint32 CYCODE cy_cfg_addr_table[] = {
 305:.\Generated_Source\PSoC4/cyfitter_cfg.c **** 			0x400F3301u, /* Base address: 0x400F3300 Count: 1 */
 306:.\Generated_Source\PSoC4/cyfitter_cfg.c **** 			0x400F4103u, /* Base address: 0x400F4100 Count: 3 */
 307:.\Generated_Source\PSoC4/cyfitter_cfg.c **** 			0x400F4304u, /* Base address: 0x400F4300 Count: 4 */
 308:.\Generated_Source\PSoC4/cyfitter_cfg.c **** 		};
 309:.\Generated_Source\PSoC4/cyfitter_cfg.c **** 
 310:.\Generated_Source\PSoC4/cyfitter_cfg.c **** 		static const cy_cfg_addrvalue_t CYCODE cy_cfg_data_table[] = {
 311:.\Generated_Source\PSoC4/cyfitter_cfg.c **** 			{0xE6u, 0x10u},
 312:.\Generated_Source\PSoC4/cyfitter_cfg.c **** 			{0x62u, 0x04u},
 313:.\Generated_Source\PSoC4/cyfitter_cfg.c **** 			{0x8Eu, 0x04u},
 314:.\Generated_Source\PSoC4/cyfitter_cfg.c **** 			{0xD8u, 0x40u},
 315:.\Generated_Source\PSoC4/cyfitter_cfg.c **** 			{0x18u, 0x80u},
 316:.\Generated_Source\PSoC4/cyfitter_cfg.c **** 			{0x8Cu, 0x40u},
 317:.\Generated_Source\PSoC4/cyfitter_cfg.c **** 			{0xC6u, 0x08u},
 318:.\Generated_Source\PSoC4/cyfitter_cfg.c **** 			{0xE6u, 0x08u},
 319:.\Generated_Source\PSoC4/cyfitter_cfg.c **** 		};
 320:.\Generated_Source\PSoC4/cyfitter_cfg.c **** 
 321:.\Generated_Source\PSoC4/cyfitter_cfg.c **** 
 322:.\Generated_Source\PSoC4/cyfitter_cfg.c **** 
 323:.\Generated_Source\PSoC4/cyfitter_cfg.c **** 		typedef struct {
 324:.\Generated_Source\PSoC4/cyfitter_cfg.c **** 			void CYFAR *address;
 325:.\Generated_Source\PSoC4/cyfitter_cfg.c **** 			uint16 size;
 326:.\Generated_Source\PSoC4/cyfitter_cfg.c **** 		} CYPACKED cfg_memset_t;
 327:.\Generated_Source\PSoC4/cyfitter_cfg.c **** 
 328:.\Generated_Source\PSoC4/cyfitter_cfg.c **** 		static const cfg_memset_t CYCODE cfg_memset_list [] = {
 329:.\Generated_Source\PSoC4/cyfitter_cfg.c **** 			/* address, size */
 330:.\Generated_Source\PSoC4/cyfitter_cfg.c **** 			{(void CYFAR *)(CYDEV_UDB_P0_U0_BASE), 1024u},
 331:.\Generated_Source\PSoC4/cyfitter_cfg.c **** 			{(void CYFAR *)(CYDEV_UDB_DSI0_BASE), 1024u},
 332:.\Generated_Source\PSoC4/cyfitter_cfg.c **** 		};
 333:.\Generated_Source\PSoC4/cyfitter_cfg.c **** 
 334:.\Generated_Source\PSoC4/cyfitter_cfg.c **** 		uint8 CYDATA i;
 335:.\Generated_Source\PSoC4/cyfitter_cfg.c **** 
 336:.\Generated_Source\PSoC4/cyfitter_cfg.c **** 		/* Zero out critical memory blocks before beginning configuration */
 337:.\Generated_Source\PSoC4/cyfitter_cfg.c **** 		for (i = 0u; i < (sizeof(cfg_memset_list)/sizeof(cfg_memset_list[0])); i++)
 499              		.loc 1 337 0
 500 0140 FB1C     		add	r3, r7, #3
 501 0142 0022     		mov	r2, #0
 502 0144 1A70     		strb	r2, [r3]
 503 0146 24E0     		b	.L27
 504              	.L28:
 505              	.LBB4:
 338:.\Generated_Source\PSoC4/cyfitter_cfg.c **** 		{
 339:.\Generated_Source\PSoC4/cyfitter_cfg.c **** 			const cfg_memset_t CYCODE * CYDATA ms = &cfg_memset_list[i];
 506              		.loc 1 339 0
 507 0148 FB1C     		add	r3, r7, #3
 508 014a 1A78     		ldrb	r2, [r3]
 509 014c 131C     		mov	r3, r2
 510 014e 5B00     		lsl	r3, r3, #1
 511 0150 9B18     		add	r3, r3, r2
 512 0152 5B00     		lsl	r3, r3, #1
ARM GAS  C:\Users\maxk\AppData\Local\Temp\cctop37m.s 			page 16


 513 0154 1A1C     		mov	r2, r3
 514 0156 304B     		ldr	r3, .L30
 515 0158 D318     		add	r3, r2, r3
 516 015a 7B60     		str	r3, [r7, #4]
 340:.\Generated_Source\PSoC4/cyfitter_cfg.c **** 			CYMEMZERO(ms->address, (uint32)(ms->size));
 517              		.loc 1 340 0
 518 015c 7B68     		ldr	r3, [r7, #4]
 519 015e 1A78     		ldrb	r2, [r3]
 520 0160 5978     		ldrb	r1, [r3, #1]
 521 0162 0902     		lsl	r1, r1, #8
 522 0164 0A43     		orr	r2, r2, r1
 523 0166 9978     		ldrb	r1, [r3, #2]
 524 0168 0904     		lsl	r1, r1, #16
 525 016a 0A43     		orr	r2, r2, r1
 526 016c DB78     		ldrb	r3, [r3, #3]
 527 016e 1B06     		lsl	r3, r3, #24
 528 0170 1343     		orr	r3, r3, r2
 529 0172 1A1C     		mov	r2, r3
 530 0174 7B68     		ldr	r3, [r7, #4]
 531 0176 1979     		ldrb	r1, [r3, #4]
 532 0178 5B79     		ldrb	r3, [r3, #5]
 533 017a 1B02     		lsl	r3, r3, #8
 534 017c 0B43     		orr	r3, r3, r1
 535 017e 9BB2     		uxth	r3, r3
 536 0180 101C     		mov	r0, r2
 537 0182 191C     		mov	r1, r3
 538 0184 FFF7FEFF 		bl	CYMEMZERO
 539              	.LBE4:
 540              		.loc 1 337 0
 541 0188 FB1C     		add	r3, r7, #3
 542 018a FA1C     		add	r2, r7, #3
 543 018c 1278     		ldrb	r2, [r2]
 544 018e 0132     		add	r2, r2, #1
 545 0190 1A70     		strb	r2, [r3]
 546              	.L27:
 547 0192 FB1C     		add	r3, r7, #3
 548 0194 1B78     		ldrb	r3, [r3]
 549 0196 012B     		cmp	r3, #1
 550 0198 D6D9     		bls	.L28
 341:.\Generated_Source\PSoC4/cyfitter_cfg.c **** 		}
 342:.\Generated_Source\PSoC4/cyfitter_cfg.c **** 
 343:.\Generated_Source\PSoC4/cyfitter_cfg.c **** 		cfg_write_bytes32(cy_cfg_addr_table, cy_cfg_data_table);
 551              		.loc 1 343 0
 552 019a 204A     		ldr	r2, .L30+4
 553 019c 204B     		ldr	r3, .L30+8
 554 019e 101C     		mov	r0, r2
 555 01a0 191C     		mov	r1, r3
 556 01a2 FFF7FEFF 		bl	cfg_write_bytes32
 344:.\Generated_Source\PSoC4/cyfitter_cfg.c **** 
 345:.\Generated_Source\PSoC4/cyfitter_cfg.c **** 		/* HSIOM Starting address: CYDEV_HSIOM_BASE */
 346:.\Generated_Source\PSoC4/cyfitter_cfg.c **** 		CY_SET_XTND_REG32((void CYFAR *)(CYREG_HSIOM_PORT_SEL1), 0x03000000u);
 557              		.loc 1 346 0
 558 01a6 1F4A     		ldr	r2, .L30+12
 559 01a8 C023     		mov	r3, #192
 560 01aa 9B04     		lsl	r3, r3, #18
 561 01ac 1360     		str	r3, [r2]
 347:.\Generated_Source\PSoC4/cyfitter_cfg.c **** 		CY_SET_XTND_REG32((void CYFAR *)(CYREG_HSIOM_PORT_SEL3), 0x0000EE00u);
ARM GAS  C:\Users\maxk\AppData\Local\Temp\cctop37m.s 			page 17


 562              		.loc 1 347 0
 563 01ae 1E4A     		ldr	r2, .L30+16
 564 01b0 EE23     		mov	r3, #238
 565 01b2 1B02     		lsl	r3, r3, #8
 566 01b4 1360     		str	r3, [r2]
 348:.\Generated_Source\PSoC4/cyfitter_cfg.c **** 
 349:.\Generated_Source\PSoC4/cyfitter_cfg.c **** 		/* IOPINS0_1 Starting address: CYDEV_PRT1_DR */
 350:.\Generated_Source\PSoC4/cyfitter_cfg.c **** 		CY_SET_XTND_REG32((void CYFAR *)(CYREG_PRT1_DR), 0x00000040u);
 567              		.loc 1 350 0
 568 01b6 1D4B     		ldr	r3, .L30+20
 569 01b8 4022     		mov	r2, #64
 570 01ba 1A60     		str	r2, [r3]
 351:.\Generated_Source\PSoC4/cyfitter_cfg.c **** 		CY_SET_XTND_REG32((void CYFAR *)(CYREG_PRT1_PC), 0x00180000u);
 571              		.loc 1 351 0
 572 01bc 1C4A     		ldr	r2, .L30+24
 573 01be C023     		mov	r3, #192
 574 01c0 5B03     		lsl	r3, r3, #13
 575 01c2 1360     		str	r3, [r2]
 352:.\Generated_Source\PSoC4/cyfitter_cfg.c **** 
 353:.\Generated_Source\PSoC4/cyfitter_cfg.c **** 		/* IOPINS0_3 Starting address: CYDEV_PRT3_DR */
 354:.\Generated_Source\PSoC4/cyfitter_cfg.c **** 		CY_SET_XTND_REG32((void CYFAR *)(CYREG_PRT3_PC), 0x00000D80u);
 576              		.loc 1 354 0
 577 01c4 1B4A     		ldr	r2, .L30+28
 578 01c6 D823     		mov	r3, #216
 579 01c8 1B01     		lsl	r3, r3, #4
 580 01ca 1360     		str	r3, [r2]
 355:.\Generated_Source\PSoC4/cyfitter_cfg.c **** 
 356:.\Generated_Source\PSoC4/cyfitter_cfg.c **** 		/* UDB_PA_1 Starting address: CYDEV_UDB_PA1_BASE */
 357:.\Generated_Source\PSoC4/cyfitter_cfg.c **** 		CY_SET_XTND_REG32((void CYFAR *)(CYDEV_UDB_PA1_BASE), 0x00990000u);
 581              		.loc 1 357 0
 582 01cc 1A4A     		ldr	r2, .L30+32
 583 01ce 9923     		mov	r3, #153
 584 01d0 1B04     		lsl	r3, r3, #16
 585 01d2 1360     		str	r3, [r2]
 358:.\Generated_Source\PSoC4/cyfitter_cfg.c **** 		CY_SET_XTND_REG32((void CYFAR *)(CYREG_UDB_PA1_CFG8), 0x20000000u);
 586              		.loc 1 358 0
 587 01d4 194A     		ldr	r2, .L30+36
 588 01d6 8023     		mov	r3, #128
 589 01d8 9B05     		lsl	r3, r3, #22
 590 01da 1360     		str	r3, [r2]
 359:.\Generated_Source\PSoC4/cyfitter_cfg.c **** 
 360:.\Generated_Source\PSoC4/cyfitter_cfg.c **** 		/* UDB_PA_3 Starting address: CYDEV_UDB_PA3_BASE */
 361:.\Generated_Source\PSoC4/cyfitter_cfg.c **** 		CY_SET_XTND_REG32((void CYFAR *)(CYDEV_UDB_PA3_BASE), 0x00990000u);
 591              		.loc 1 361 0
 592 01dc 184A     		ldr	r2, .L30+40
 593 01de 9923     		mov	r3, #153
 594 01e0 1B04     		lsl	r3, r3, #16
 595 01e2 1360     		str	r3, [r2]
 362:.\Generated_Source\PSoC4/cyfitter_cfg.c **** 
 363:.\Generated_Source\PSoC4/cyfitter_cfg.c **** 		/* TCPWM_CNT0 Starting address: CYDEV_TCPWM_CNT0_TR_CTRL0 */
 364:.\Generated_Source\PSoC4/cyfitter_cfg.c **** 		CY_SET_XTND_REG32((void CYFAR *)(CYREG_TCPWM_CNT0_TR_CTRL0), 0x00000010u);
 596              		.loc 1 364 0
 597 01e4 174B     		ldr	r3, .L30+44
 598 01e6 1022     		mov	r2, #16
 599 01e8 1A60     		str	r2, [r3]
 365:.\Generated_Source\PSoC4/cyfitter_cfg.c **** 
 366:.\Generated_Source\PSoC4/cyfitter_cfg.c **** 		/* Enable digital routing */
ARM GAS  C:\Users\maxk\AppData\Local\Temp\cctop37m.s 			page 18


 367:.\Generated_Source\PSoC4/cyfitter_cfg.c **** 		CY_SET_XTND_REG8((void *)CYREG_UDB_UDBIF_BANK_CTL, CY_GET_XTND_REG8((void *)CYREG_UDB_UDBIF_BANK_
 600              		.loc 1 367 0
 601 01ea 174B     		ldr	r3, .L30+48
 602 01ec 164A     		ldr	r2, .L30+48
 603 01ee 1278     		ldrb	r2, [r2]
 604 01f0 D1B2     		uxtb	r1, r2
 605 01f2 0222     		mov	r2, #2
 606 01f4 0A43     		orr	r2, r2, r1
 607 01f6 D2B2     		uxtb	r2, r2
 608 01f8 1A70     		strb	r2, [r3]
 368:.\Generated_Source\PSoC4/cyfitter_cfg.c **** 
 369:.\Generated_Source\PSoC4/cyfitter_cfg.c **** 		/* Enable UDB array */
 370:.\Generated_Source\PSoC4/cyfitter_cfg.c **** 		CY_SET_XTND_REG8((void *)CYREG_UDB_UDBIF_BANK_CTL, CY_GET_XTND_REG8((void *)CYREG_UDB_UDBIF_BANK_
 609              		.loc 1 370 0
 610 01fa 134B     		ldr	r3, .L30+48
 611 01fc 124A     		ldr	r2, .L30+48
 612 01fe 1278     		ldrb	r2, [r2]
 613 0200 D1B2     		uxtb	r1, r2
 614 0202 0622     		mov	r2, #6
 615 0204 0A43     		orr	r2, r2, r1
 616 0206 D2B2     		uxtb	r2, r2
 617 0208 1A70     		strb	r2, [r3]
 618              	.LBE3:
 371:.\Generated_Source\PSoC4/cyfitter_cfg.c **** 	}
 372:.\Generated_Source\PSoC4/cyfitter_cfg.c **** 
 373:.\Generated_Source\PSoC4/cyfitter_cfg.c **** 	/* Setup clocks based on selections from Clock DWR */
 374:.\Generated_Source\PSoC4/cyfitter_cfg.c **** 	ClockSetup();
 619              		.loc 1 374 0
 620 020a FFF751FF 		bl	ClockSetup
 375:.\Generated_Source\PSoC4/cyfitter_cfg.c **** 
 376:.\Generated_Source\PSoC4/cyfitter_cfg.c **** 	/* Perform basic analog initialization to defaults */
 377:.\Generated_Source\PSoC4/cyfitter_cfg.c **** 	AnalogSetDefault();
 621              		.loc 1 377 0
 622 020e FFF7FEFF 		bl	AnalogSetDefault
 378:.\Generated_Source\PSoC4/cyfitter_cfg.c **** 
 379:.\Generated_Source\PSoC4/cyfitter_cfg.c **** }
 623              		.loc 1 379 0
 624 0212 BD46     		mov	sp, r7
 625 0214 02B0     		add	sp, sp, #8
 626              		@ sp needed for prologue
 627 0216 80BD     		pop	{r7, pc}
 628              	.L31:
 629              		.align	2
 630              	.L30:
 631 0218 00000000 		.word	cfg_memset_list.1918
 632 021c 0C000000 		.word	cy_cfg_addr_table.1912
 633 0220 18000000 		.word	cy_cfg_data_table.1913
 634 0224 04000140 		.word	1073807364
 635 0228 0C000140 		.word	1073807372
 636 022c 00010440 		.word	1074004224
 637 0230 08010440 		.word	1074004232
 638 0234 08030440 		.word	1074004744
 639 0238 10500F40 		.word	1074745360
 640 023c 18500F40 		.word	1074745368
 641 0240 30500F40 		.word	1074745392
 642 0244 20010540 		.word	1074069792
 643 0248 00700F40 		.word	1074753536
ARM GAS  C:\Users\maxk\AppData\Local\Temp\cctop37m.s 			page 19


 644              		.cfi_endproc
 645              	.LFE7:
 646              		.size	cyfitter_cfg, .-cyfitter_cfg
 647              		.section	.rodata
 648              		.align	2
 649              		.type	cfg_memset_list.1918, %object
 650              		.size	cfg_memset_list.1918, 12
 651              	cfg_memset_list.1918:
 652 0000 00300F40 		.word	1074737152
 653 0004 0004     		.short	1024
 654 0006 00400F40 		.4byte	1074741248
 655 000a 0004     		.short	1024
 656              		.align	2
 657              		.type	cy_cfg_addr_table.1912, %object
 658              		.size	cy_cfg_addr_table.1912, 12
 659              	cy_cfg_addr_table.1912:
 660 000c 01330F40 		.word	1074737921
 661 0010 03410F40 		.word	1074741507
 662 0014 04430F40 		.word	1074742020
 663              		.align	2
 664              		.type	cy_cfg_data_table.1913, %object
 665              		.size	cy_cfg_data_table.1913, 16
 666              	cy_cfg_data_table.1913:
 667 0018 E6       		.byte	-26
 668 0019 10       		.byte	16
 669 001a 62       		.byte	98
 670 001b 04       		.byte	4
 671 001c 8E       		.byte	-114
 672 001d 04       		.byte	4
 673 001e D8       		.byte	-40
 674 001f 40       		.byte	64
 675 0020 18       		.byte	24
 676 0021 80       		.byte	-128
 677 0022 8C       		.byte	-116
 678 0023 40       		.byte	64
 679 0024 C6       		.byte	-58
 680 0025 08       		.byte	8
 681 0026 E6       		.byte	-26
 682 0027 08       		.byte	8
 683              		.align	2
 684              		.type	IMO_TRIM_FREQ_TABLE_ENTRIES.1859, %object
 685              		.size	IMO_TRIM_FREQ_TABLE_ENTRIES.1859, 4
 686              	IMO_TRIM_FREQ_TABLE_ENTRIES.1859:
 687 0028 04000000 		.word	4
 688              		.data
 689              		.align	2
 690              		.type	imo_trim_table.1858, %object
 691              		.size	imo_trim_table.1858, 4
 692              	imo_trim_table.1858:
 693 0000 C0F1FF0F 		.word	268431808
 694              		.text
 695              	.Letext0: