ARM GAS  C:\Users\maxk\AppData\Local\Temp\cc4KFE9J.s 			page 1


   1              		.cpu cortex-m0
   2              		.fpu softvfp
   3              		.eabi_attribute 20, 1
   4              		.eabi_attribute 21, 1
   5              		.eabi_attribute 23, 3
   6              		.eabi_attribute 24, 1
   7              		.eabi_attribute 25, 1
   8              		.eabi_attribute 26, 1
   9              		.eabi_attribute 30, 6
  10              		.eabi_attribute 18, 4
  11              		.code	16
  12              		.file	"main.c"
  19 0000 5F000000 		.text
  19      02004500 
  19      00000201 
  19      FB0E0D00 
  19      01010101 
  20              	.Ltext0:
  21              		.cfi_sections	.debug_frame
  22              		.section	.text.main,"ax",%progbits
  23              		.align	2
  24              		.global	main
  25              		.code	16
  26              		.thumb_func
  27              		.type	main, %function
  28              	main:
  29              	.LFB20:
  30              		.file 1 ".\\main.c"
   1:.\main.c      **** #include <device.h>
   2:.\main.c      **** 
   3:.\main.c      **** void main()
   4:.\main.c      **** {
  31              		.loc 1 4 0
  32              		.cfi_startproc
  33 0000 80B5     		push	{r7, lr}
  34              	.LCFI0:
  35              		.cfi_def_cfa_offset 8
  36              		.cfi_offset 7, -8
  37              		.cfi_offset 14, -4
  38 0002 82B0     		sub	sp, sp, #8
  39              	.LCFI1:
  40              		.cfi_def_cfa_offset 16
  41 0004 00AF     		add	r7, sp, #0
  42              	.LCFI2:
  43              		.cfi_def_cfa_register 7
   5:.\main.c      ****     /* Place your initialization/startup code here (e.g. MyInst_Start()) */
   6:.\main.c      ****     uint16 PWMCompare;
   7:.\main.c      ****     PWM_1_Start();
  44              		.loc 1 7 0
  45 0006 FFF7FEFF 		bl	PWM_1_Start
  46              	.L3:
ARM GAS  C:\Users\maxk\AppData\Local\Temp\cc4KFE9J.s 			page 2


   8:.\main.c      **** 
   9:.\main.c      ****     /* CyGlobalIntEnable; */ /* Uncomment this line to enable global interrupts. */
  10:.\main.c      ****     for(;;)
  11:.\main.c      ****     {
  12:.\main.c      ****         /* Place your application code here. */
  13:.\main.c      ****         PWMCompare = PWMCompare + 1;
  47              		.loc 1 13 0
  48 000a BB1D     		add	r3, r7, #6
  49 000c BA1D     		add	r2, r7, #6
  50 000e 1288     		ldrh	r2, [r2]
  51 0010 0132     		add	r2, r2, #1
  52 0012 1A80     		strh	r2, [r3]
  14:.\main.c      ****         if( PWMCompare >= 1000 )
  53              		.loc 1 14 0
  54 0014 BB1D     		add	r3, r7, #6
  55 0016 1A88     		ldrh	r2, [r3]
  56 0018 074B     		ldr	r3, .L5
  57 001a 9A42     		cmp	r2, r3
  58 001c 02D9     		bls	.L2
  15:.\main.c      ****             PWMCompare = 0;
  59              		.loc 1 15 0
  60 001e BB1D     		add	r3, r7, #6
  61 0020 0022     		mov	r2, #0
  62 0022 1A80     		strh	r2, [r3]
  63              	.L2:
  16:.\main.c      ****         PWM_1_WriteCompare(PWMCompare);
  64              		.loc 1 16 0
  65 0024 BB1D     		add	r3, r7, #6
  66 0026 1B88     		ldrh	r3, [r3]
  67 0028 181C     		mov	r0, r3
  68 002a FFF7FEFF 		bl	PWM_1_WriteCompare
  17:.\main.c      ****         CyDelay(1);
  69              		.loc 1 17 0
  70 002e 0120     		mov	r0, #1
  71 0030 FFF7FEFF 		bl	CyDelay
  18:.\main.c      ****     }
  72              		.loc 1 18 0
  73 0034 E9E7     		b	.L3
  74              	.L6:
  75 0036 C046     		.align	2
  76              	.L5:
  77 0038 E7030000 		.word	999
  78              		.cfi_endproc
  79              	.LFE20:
  80              		.size	main, .-main
  81              		.text
  82              	.Letext0: