ARM GAS  C:\Users\mitchell\AppData\Local\Temp\ccfdaiNe.s 			page 1


   1              		.syntax unified
   2              		.cpu cortex-m3
   3              		.fpu softvfp
   4              		.eabi_attribute 20, 1
   5              		.eabi_attribute 21, 1
   6              		.eabi_attribute 23, 3
   7              		.eabi_attribute 24, 1
   8              		.eabi_attribute 25, 1
   9              		.eabi_attribute 26, 1
  10              		.eabi_attribute 30, 1
  11              		.eabi_attribute 34, 1
  12              		.eabi_attribute 18, 4
  13              		.thumb
  14              		.file	"APPS_ADC_SAR.c"
  15              		.text
  16              	.Ltext0:
  17              		.cfi_sections	.debug_frame
  18              		.section	.text.APPS_ADC_SAR_CalcGain,"ax",%progbits
  19              		.align	2
  20              		.thumb
  21              		.thumb_func
  22              		.type	APPS_ADC_SAR_CalcGain, %function
  23              	APPS_ADC_SAR_CalcGain:
  24              	.LFB12:
  25              		.file 1 ".\\Generated_Source\\PSoC5\\APPS_ADC_SAR.c"
   1:.\Generated_Source\PSoC5/APPS_ADC_SAR.c **** /*******************************************************************************
   2:.\Generated_Source\PSoC5/APPS_ADC_SAR.c **** * File Name: APPS_ADC_SAR.c
   3:.\Generated_Source\PSoC5/APPS_ADC_SAR.c **** * Version 3.0
   4:.\Generated_Source\PSoC5/APPS_ADC_SAR.c **** *
   5:.\Generated_Source\PSoC5/APPS_ADC_SAR.c **** * Description:
   6:.\Generated_Source\PSoC5/APPS_ADC_SAR.c **** *  This file provides the source code to the API for the Successive
   7:.\Generated_Source\PSoC5/APPS_ADC_SAR.c **** *  approximation ADC Component.
   8:.\Generated_Source\PSoC5/APPS_ADC_SAR.c **** *
   9:.\Generated_Source\PSoC5/APPS_ADC_SAR.c **** * Note:
  10:.\Generated_Source\PSoC5/APPS_ADC_SAR.c **** *
  11:.\Generated_Source\PSoC5/APPS_ADC_SAR.c **** ********************************************************************************
  12:.\Generated_Source\PSoC5/APPS_ADC_SAR.c **** * Copyright 2008-2015, Cypress Semiconductor Corporation.  All rights reserved.
  13:.\Generated_Source\PSoC5/APPS_ADC_SAR.c **** * You may use this file only in accordance with the license, terms, conditions,
  14:.\Generated_Source\PSoC5/APPS_ADC_SAR.c **** * disclaimers, and limitations in the end user license agreement accompanying
  15:.\Generated_Source\PSoC5/APPS_ADC_SAR.c **** * the software package with which this file was provided.
  16:.\Generated_Source\PSoC5/APPS_ADC_SAR.c **** *******************************************************************************/
  17:.\Generated_Source\PSoC5/APPS_ADC_SAR.c **** 
  18:.\Generated_Source\PSoC5/APPS_ADC_SAR.c **** #include "CyLib.h"
  19:.\Generated_Source\PSoC5/APPS_ADC_SAR.c **** #include "APPS_ADC_SAR.h"
  20:.\Generated_Source\PSoC5/APPS_ADC_SAR.c **** 
  21:.\Generated_Source\PSoC5/APPS_ADC_SAR.c **** #if(APPS_ADC_SAR_DEFAULT_INTERNAL_CLK)
  22:.\Generated_Source\PSoC5/APPS_ADC_SAR.c ****     #include "APPS_ADC_SAR_theACLK.h"
  23:.\Generated_Source\PSoC5/APPS_ADC_SAR.c **** #endif /* End APPS_ADC_SAR_DEFAULT_INTERNAL_CLK */
  24:.\Generated_Source\PSoC5/APPS_ADC_SAR.c **** 
  25:.\Generated_Source\PSoC5/APPS_ADC_SAR.c **** 
  26:.\Generated_Source\PSoC5/APPS_ADC_SAR.c **** /***************************************
  27:.\Generated_Source\PSoC5/APPS_ADC_SAR.c **** * Forward function references
  28:.\Generated_Source\PSoC5/APPS_ADC_SAR.c **** ***************************************/
  29:.\Generated_Source\PSoC5/APPS_ADC_SAR.c **** static void APPS_ADC_SAR_CalcGain(uint8 resolution);
  30:.\Generated_Source\PSoC5/APPS_ADC_SAR.c **** 
  31:.\Generated_Source\PSoC5/APPS_ADC_SAR.c **** 
  32:.\Generated_Source\PSoC5/APPS_ADC_SAR.c **** /***************************************
ARM GAS  C:\Users\mitchell\AppData\Local\Temp\ccfdaiNe.s 			page 2


  33:.\Generated_Source\PSoC5/APPS_ADC_SAR.c **** * Global data allocation
  34:.\Generated_Source\PSoC5/APPS_ADC_SAR.c **** ***************************************/
  35:.\Generated_Source\PSoC5/APPS_ADC_SAR.c **** uint8 APPS_ADC_SAR_initVar = 0u;
  36:.\Generated_Source\PSoC5/APPS_ADC_SAR.c **** volatile int16 APPS_ADC_SAR_offset;
  37:.\Generated_Source\PSoC5/APPS_ADC_SAR.c **** volatile int16 APPS_ADC_SAR_countsPerVolt;     /* Obsolete Gain compensation */
  38:.\Generated_Source\PSoC5/APPS_ADC_SAR.c **** volatile int32 APPS_ADC_SAR_countsPer10Volt;   /* Gain compensation */
  39:.\Generated_Source\PSoC5/APPS_ADC_SAR.c **** volatile int16 APPS_ADC_SAR_shift;
  40:.\Generated_Source\PSoC5/APPS_ADC_SAR.c **** 
  41:.\Generated_Source\PSoC5/APPS_ADC_SAR.c **** 
  42:.\Generated_Source\PSoC5/APPS_ADC_SAR.c **** /*******************************************************************************
  43:.\Generated_Source\PSoC5/APPS_ADC_SAR.c **** * Function Name: APPS_ADC_SAR_Start
  44:.\Generated_Source\PSoC5/APPS_ADC_SAR.c **** ********************************************************************************
  45:.\Generated_Source\PSoC5/APPS_ADC_SAR.c **** *
  46:.\Generated_Source\PSoC5/APPS_ADC_SAR.c **** * Summary:
  47:.\Generated_Source\PSoC5/APPS_ADC_SAR.c **** *  This is the preferred method to begin component operation.
  48:.\Generated_Source\PSoC5/APPS_ADC_SAR.c **** *  APPS_ADC_SAR_Start() sets the initVar variable, calls the
  49:.\Generated_Source\PSoC5/APPS_ADC_SAR.c **** *  APPS_ADC_SAR_Init() function, and then calls the
  50:.\Generated_Source\PSoC5/APPS_ADC_SAR.c **** *  APPS_ADC_SAR_Enable() function.
  51:.\Generated_Source\PSoC5/APPS_ADC_SAR.c **** *
  52:.\Generated_Source\PSoC5/APPS_ADC_SAR.c **** * Parameters:
  53:.\Generated_Source\PSoC5/APPS_ADC_SAR.c **** *  None.
  54:.\Generated_Source\PSoC5/APPS_ADC_SAR.c **** *
  55:.\Generated_Source\PSoC5/APPS_ADC_SAR.c **** * Return:
  56:.\Generated_Source\PSoC5/APPS_ADC_SAR.c **** *  None.
  57:.\Generated_Source\PSoC5/APPS_ADC_SAR.c **** *
  58:.\Generated_Source\PSoC5/APPS_ADC_SAR.c **** * Global variables:
  59:.\Generated_Source\PSoC5/APPS_ADC_SAR.c **** *  The APPS_ADC_SAR_initVar variable is used to indicate when/if initial
  60:.\Generated_Source\PSoC5/APPS_ADC_SAR.c **** *  configuration of this component has happened. The variable is initialized to
  61:.\Generated_Source\PSoC5/APPS_ADC_SAR.c **** *  zero and set to 1 the first time ADC_Start() is called. This allows for
  62:.\Generated_Source\PSoC5/APPS_ADC_SAR.c **** *  component Re-Start without re-initialization in all subsequent calls to the
  63:.\Generated_Source\PSoC5/APPS_ADC_SAR.c **** *  APPS_ADC_SAR_Start() routine.
  64:.\Generated_Source\PSoC5/APPS_ADC_SAR.c **** *  If re-initialization of the component is required the variable should be set
  65:.\Generated_Source\PSoC5/APPS_ADC_SAR.c **** *  to zero before call of APPS_ADC_SAR_Start() routine, or the user may call
  66:.\Generated_Source\PSoC5/APPS_ADC_SAR.c **** *  APPS_ADC_SAR_Init() and APPS_ADC_SAR_Enable() as done in the
  67:.\Generated_Source\PSoC5/APPS_ADC_SAR.c **** *  APPS_ADC_SAR_Start() routine.
  68:.\Generated_Source\PSoC5/APPS_ADC_SAR.c **** *
  69:.\Generated_Source\PSoC5/APPS_ADC_SAR.c **** * Side Effect:
  70:.\Generated_Source\PSoC5/APPS_ADC_SAR.c **** *  If the initVar variable is already set, this function only calls the
  71:.\Generated_Source\PSoC5/APPS_ADC_SAR.c **** *  APPS_ADC_SAR_Enable() function.
  72:.\Generated_Source\PSoC5/APPS_ADC_SAR.c **** *
  73:.\Generated_Source\PSoC5/APPS_ADC_SAR.c **** *******************************************************************************/
  74:.\Generated_Source\PSoC5/APPS_ADC_SAR.c **** void APPS_ADC_SAR_Start(void)
  75:.\Generated_Source\PSoC5/APPS_ADC_SAR.c **** {
  76:.\Generated_Source\PSoC5/APPS_ADC_SAR.c **** 
  77:.\Generated_Source\PSoC5/APPS_ADC_SAR.c ****     /* If not Initialized then initialize all required hardware and software */
  78:.\Generated_Source\PSoC5/APPS_ADC_SAR.c ****     if(APPS_ADC_SAR_initVar == 0u)
  79:.\Generated_Source\PSoC5/APPS_ADC_SAR.c ****     {
  80:.\Generated_Source\PSoC5/APPS_ADC_SAR.c ****         APPS_ADC_SAR_Init();
  81:.\Generated_Source\PSoC5/APPS_ADC_SAR.c ****         APPS_ADC_SAR_initVar = 1u;
  82:.\Generated_Source\PSoC5/APPS_ADC_SAR.c ****     }
  83:.\Generated_Source\PSoC5/APPS_ADC_SAR.c ****     APPS_ADC_SAR_Enable();
  84:.\Generated_Source\PSoC5/APPS_ADC_SAR.c **** }
  85:.\Generated_Source\PSoC5/APPS_ADC_SAR.c **** 
  86:.\Generated_Source\PSoC5/APPS_ADC_SAR.c **** 
  87:.\Generated_Source\PSoC5/APPS_ADC_SAR.c **** /*******************************************************************************
  88:.\Generated_Source\PSoC5/APPS_ADC_SAR.c **** * Function Name: APPS_ADC_SAR_Init
  89:.\Generated_Source\PSoC5/APPS_ADC_SAR.c **** ********************************************************************************
ARM GAS  C:\Users\mitchell\AppData\Local\Temp\ccfdaiNe.s 			page 3


  90:.\Generated_Source\PSoC5/APPS_ADC_SAR.c **** *
  91:.\Generated_Source\PSoC5/APPS_ADC_SAR.c **** * Summary:
  92:.\Generated_Source\PSoC5/APPS_ADC_SAR.c **** *  Initialize component's parameters to the parameters set by user in the
  93:.\Generated_Source\PSoC5/APPS_ADC_SAR.c **** *  customizer of the component placed onto schematic. Usually called in
  94:.\Generated_Source\PSoC5/APPS_ADC_SAR.c **** *  APPS_ADC_SAR_Start().
  95:.\Generated_Source\PSoC5/APPS_ADC_SAR.c **** *
  96:.\Generated_Source\PSoC5/APPS_ADC_SAR.c **** * Parameters:
  97:.\Generated_Source\PSoC5/APPS_ADC_SAR.c **** *  None.
  98:.\Generated_Source\PSoC5/APPS_ADC_SAR.c **** *
  99:.\Generated_Source\PSoC5/APPS_ADC_SAR.c **** * Return:
 100:.\Generated_Source\PSoC5/APPS_ADC_SAR.c **** *  None.
 101:.\Generated_Source\PSoC5/APPS_ADC_SAR.c **** *
 102:.\Generated_Source\PSoC5/APPS_ADC_SAR.c **** * Global variables:
 103:.\Generated_Source\PSoC5/APPS_ADC_SAR.c **** *  The APPS_ADC_SAR_offset variable is initialized to 0.
 104:.\Generated_Source\PSoC5/APPS_ADC_SAR.c **** *
 105:.\Generated_Source\PSoC5/APPS_ADC_SAR.c **** *******************************************************************************/
 106:.\Generated_Source\PSoC5/APPS_ADC_SAR.c **** void APPS_ADC_SAR_Init(void)
 107:.\Generated_Source\PSoC5/APPS_ADC_SAR.c **** {
 108:.\Generated_Source\PSoC5/APPS_ADC_SAR.c **** 
 109:.\Generated_Source\PSoC5/APPS_ADC_SAR.c ****     /* This is only valid if there is an internal clock */
 110:.\Generated_Source\PSoC5/APPS_ADC_SAR.c ****     #if(APPS_ADC_SAR_DEFAULT_INTERNAL_CLK)
 111:.\Generated_Source\PSoC5/APPS_ADC_SAR.c ****         APPS_ADC_SAR_theACLK_SetMode(CYCLK_DUTY);
 112:.\Generated_Source\PSoC5/APPS_ADC_SAR.c ****     #endif /* End APPS_ADC_SAR_DEFAULT_INTERNAL_CLK */
 113:.\Generated_Source\PSoC5/APPS_ADC_SAR.c **** 
 114:.\Generated_Source\PSoC5/APPS_ADC_SAR.c ****     #if(APPS_ADC_SAR_IRQ_REMOVE == 0u)
 115:.\Generated_Source\PSoC5/APPS_ADC_SAR.c ****         /* Start and set interrupt vector */
 116:.\Generated_Source\PSoC5/APPS_ADC_SAR.c ****         CyIntSetPriority(APPS_ADC_SAR_INTC_NUMBER, APPS_ADC_SAR_INTC_PRIOR_NUMBER);
 117:.\Generated_Source\PSoC5/APPS_ADC_SAR.c ****         (void)CyIntSetVector(APPS_ADC_SAR_INTC_NUMBER, &APPS_ADC_SAR_ISR);
 118:.\Generated_Source\PSoC5/APPS_ADC_SAR.c ****     #endif   /* End APPS_ADC_SAR_IRQ_REMOVE */
 119:.\Generated_Source\PSoC5/APPS_ADC_SAR.c **** 
 120:.\Generated_Source\PSoC5/APPS_ADC_SAR.c ****     /* Enable IRQ mode*/
 121:.\Generated_Source\PSoC5/APPS_ADC_SAR.c ****     APPS_ADC_SAR_SAR_CSR1_REG |= APPS_ADC_SAR_SAR_IRQ_MASK_EN | APPS_ADC_SAR_SAR_IRQ_MODE_EDGE;
 122:.\Generated_Source\PSoC5/APPS_ADC_SAR.c **** 
 123:.\Generated_Source\PSoC5/APPS_ADC_SAR.c ****     /*Set SAR ADC resolution ADC */
 124:.\Generated_Source\PSoC5/APPS_ADC_SAR.c ****     APPS_ADC_SAR_SetResolution(APPS_ADC_SAR_DEFAULT_RESOLUTION);
 125:.\Generated_Source\PSoC5/APPS_ADC_SAR.c ****     APPS_ADC_SAR_offset = 0;
 126:.\Generated_Source\PSoC5/APPS_ADC_SAR.c **** }
 127:.\Generated_Source\PSoC5/APPS_ADC_SAR.c **** 
 128:.\Generated_Source\PSoC5/APPS_ADC_SAR.c **** 
 129:.\Generated_Source\PSoC5/APPS_ADC_SAR.c **** /*******************************************************************************
 130:.\Generated_Source\PSoC5/APPS_ADC_SAR.c **** * Function Name: APPS_ADC_SAR_Enable
 131:.\Generated_Source\PSoC5/APPS_ADC_SAR.c **** ********************************************************************************
 132:.\Generated_Source\PSoC5/APPS_ADC_SAR.c **** *
 133:.\Generated_Source\PSoC5/APPS_ADC_SAR.c **** * Summary:
 134:.\Generated_Source\PSoC5/APPS_ADC_SAR.c **** *  Enables the reference, clock and power for SAR ADC.
 135:.\Generated_Source\PSoC5/APPS_ADC_SAR.c **** *
 136:.\Generated_Source\PSoC5/APPS_ADC_SAR.c **** * Parameters:
 137:.\Generated_Source\PSoC5/APPS_ADC_SAR.c **** *  None.
 138:.\Generated_Source\PSoC5/APPS_ADC_SAR.c **** *
 139:.\Generated_Source\PSoC5/APPS_ADC_SAR.c **** * Return:
 140:.\Generated_Source\PSoC5/APPS_ADC_SAR.c **** *  None.
 141:.\Generated_Source\PSoC5/APPS_ADC_SAR.c **** *
 142:.\Generated_Source\PSoC5/APPS_ADC_SAR.c **** *******************************************************************************/
 143:.\Generated_Source\PSoC5/APPS_ADC_SAR.c **** void APPS_ADC_SAR_Enable(void)
 144:.\Generated_Source\PSoC5/APPS_ADC_SAR.c **** {
 145:.\Generated_Source\PSoC5/APPS_ADC_SAR.c ****     uint8 tmpReg;
 146:.\Generated_Source\PSoC5/APPS_ADC_SAR.c ****     uint8 enableInterrupts;
ARM GAS  C:\Users\mitchell\AppData\Local\Temp\ccfdaiNe.s 			page 4


 147:.\Generated_Source\PSoC5/APPS_ADC_SAR.c ****     enableInterrupts = CyEnterCriticalSection();
 148:.\Generated_Source\PSoC5/APPS_ADC_SAR.c **** 
 149:.\Generated_Source\PSoC5/APPS_ADC_SAR.c ****     /* Enable the SAR ADC block in Active Power Mode */
 150:.\Generated_Source\PSoC5/APPS_ADC_SAR.c ****     APPS_ADC_SAR_PWRMGR_SAR_REG |= APPS_ADC_SAR_ACT_PWR_SAR_EN;
 151:.\Generated_Source\PSoC5/APPS_ADC_SAR.c **** 
 152:.\Generated_Source\PSoC5/APPS_ADC_SAR.c ****      /* Enable the SAR ADC in Standby Power Mode*/
 153:.\Generated_Source\PSoC5/APPS_ADC_SAR.c ****     APPS_ADC_SAR_STBY_PWRMGR_SAR_REG |= APPS_ADC_SAR_STBY_PWR_SAR_EN;
 154:.\Generated_Source\PSoC5/APPS_ADC_SAR.c **** 
 155:.\Generated_Source\PSoC5/APPS_ADC_SAR.c ****     /* This is only valid if there is an internal clock */
 156:.\Generated_Source\PSoC5/APPS_ADC_SAR.c ****     #if(APPS_ADC_SAR_DEFAULT_INTERNAL_CLK)
 157:.\Generated_Source\PSoC5/APPS_ADC_SAR.c ****         APPS_ADC_SAR_PWRMGR_CLK_REG |= APPS_ADC_SAR_ACT_PWR_CLK_EN;
 158:.\Generated_Source\PSoC5/APPS_ADC_SAR.c ****         APPS_ADC_SAR_STBY_PWRMGR_CLK_REG |= APPS_ADC_SAR_STBY_PWR_CLK_EN;
 159:.\Generated_Source\PSoC5/APPS_ADC_SAR.c ****     #endif /* End APPS_ADC_SAR_DEFAULT_INTERNAL_CLK */
 160:.\Generated_Source\PSoC5/APPS_ADC_SAR.c **** 
 161:.\Generated_Source\PSoC5/APPS_ADC_SAR.c ****     /* Enable VCM buffer and Enable Int Ref Amp */
 162:.\Generated_Source\PSoC5/APPS_ADC_SAR.c ****     tmpReg = APPS_ADC_SAR_SAR_CSR3_REG;
 163:.\Generated_Source\PSoC5/APPS_ADC_SAR.c ****     tmpReg |= APPS_ADC_SAR_SAR_EN_BUF_VCM_EN;
 164:.\Generated_Source\PSoC5/APPS_ADC_SAR.c ****     /* PD_BUF_VREF is OFF in External reference or Vdda reference mode */
 165:.\Generated_Source\PSoC5/APPS_ADC_SAR.c ****     #if((APPS_ADC_SAR_DEFAULT_REFERENCE == APPS_ADC_SAR__EXT_REF) || \
 166:.\Generated_Source\PSoC5/APPS_ADC_SAR.c ****         (APPS_ADC_SAR_DEFAULT_RANGE == APPS_ADC_SAR__VNEG_VDDA_DIFF))
 167:.\Generated_Source\PSoC5/APPS_ADC_SAR.c ****         tmpReg &= (uint8)~APPS_ADC_SAR_SAR_EN_BUF_VREF_EN;
 168:.\Generated_Source\PSoC5/APPS_ADC_SAR.c ****     #else /* In INTREF or INTREF Bypassed this buffer is ON */
 169:.\Generated_Source\PSoC5/APPS_ADC_SAR.c ****         tmpReg |= APPS_ADC_SAR_SAR_EN_BUF_VREF_EN;
 170:.\Generated_Source\PSoC5/APPS_ADC_SAR.c ****     #endif /* APPS_ADC_SAR_DEFAULT_REFERENCE == APPS_ADC_SAR__EXT_REF */
 171:.\Generated_Source\PSoC5/APPS_ADC_SAR.c ****     APPS_ADC_SAR_SAR_CSR3_REG = tmpReg;
 172:.\Generated_Source\PSoC5/APPS_ADC_SAR.c **** 
 173:.\Generated_Source\PSoC5/APPS_ADC_SAR.c ****     /* Set reference for ADC */
 174:.\Generated_Source\PSoC5/APPS_ADC_SAR.c ****     #if(APPS_ADC_SAR_DEFAULT_RANGE == APPS_ADC_SAR__VNEG_VDDA_DIFF)
 175:.\Generated_Source\PSoC5/APPS_ADC_SAR.c ****         #if(APPS_ADC_SAR_DEFAULT_REFERENCE == APPS_ADC_SAR__EXT_REF)
 176:.\Generated_Source\PSoC5/APPS_ADC_SAR.c ****             APPS_ADC_SAR_SAR_CSR6_REG = APPS_ADC_SAR_INT_BYPASS_EXT_VREF; /* S2 */
 177:.\Generated_Source\PSoC5/APPS_ADC_SAR.c ****         #else /* Internal Vdda reference or obsolete bypass mode */
 178:.\Generated_Source\PSoC5/APPS_ADC_SAR.c ****             APPS_ADC_SAR_SAR_CSR6_REG = APPS_ADC_SAR_VDDA_VREF;           /* S7 */
 179:.\Generated_Source\PSoC5/APPS_ADC_SAR.c ****         #endif /* APPS_ADC_SAR_DEFAULT_REFERENCE == APPS_ADC_SAR__EXT_REF */
 180:.\Generated_Source\PSoC5/APPS_ADC_SAR.c ****     #else  /* Reference goes through internal buffer */
 181:.\Generated_Source\PSoC5/APPS_ADC_SAR.c ****         #if(APPS_ADC_SAR_DEFAULT_REFERENCE == APPS_ADC_SAR__INT_REF_NOT_BYPASSED)
 182:.\Generated_Source\PSoC5/APPS_ADC_SAR.c ****             APPS_ADC_SAR_SAR_CSR6_REG = APPS_ADC_SAR_INT_VREF;            /* S3 + S4 */
 183:.\Generated_Source\PSoC5/APPS_ADC_SAR.c ****         #else /* INTREF Bypassed of External */
 184:.\Generated_Source\PSoC5/APPS_ADC_SAR.c ****             APPS_ADC_SAR_SAR_CSR6_REG = APPS_ADC_SAR_INT_BYPASS_EXT_VREF; /* S2 */
 185:.\Generated_Source\PSoC5/APPS_ADC_SAR.c ****         #endif /* APPS_ADC_SAR_DEFAULT_REFERENCE == APPS_ADC_SAR__INT_REF_NOT_BYPASSED */
 186:.\Generated_Source\PSoC5/APPS_ADC_SAR.c ****     #endif /* VNEG_VDDA_DIFF */
 187:.\Generated_Source\PSoC5/APPS_ADC_SAR.c **** 
 188:.\Generated_Source\PSoC5/APPS_ADC_SAR.c ****     /* Low non-overlap delay for sampling clock signals (for 1MSPS) */
 189:.\Generated_Source\PSoC5/APPS_ADC_SAR.c ****     #if(APPS_ADC_SAR_HIGH_POWER_PULSE == 0u) /* MinPulseWidth <= 50 ns */
 190:.\Generated_Source\PSoC5/APPS_ADC_SAR.c ****         APPS_ADC_SAR_SAR_CSR5_REG &= (uint8)~APPS_ADC_SAR_SAR_DLY_INC;
 191:.\Generated_Source\PSoC5/APPS_ADC_SAR.c ****     #else /* Set High non-overlap delay for sampling clock signals (for <500KSPS)*/
 192:.\Generated_Source\PSoC5/APPS_ADC_SAR.c ****         APPS_ADC_SAR_SAR_CSR5_REG |= APPS_ADC_SAR_SAR_DLY_INC;
 193:.\Generated_Source\PSoC5/APPS_ADC_SAR.c ****     #endif /* APPS_ADC_SAR_HIGH_POWER_PULSE == 0u */
 194:.\Generated_Source\PSoC5/APPS_ADC_SAR.c **** 
 195:.\Generated_Source\PSoC5/APPS_ADC_SAR.c ****     /* Increase comparator latch enable delay by 20%, 
 196:.\Generated_Source\PSoC5/APPS_ADC_SAR.c ****     *  Increase comparator bias current by 30% without impacting delaysDelay 
 197:.\Generated_Source\PSoC5/APPS_ADC_SAR.c ****     *  Default for 1MSPS) 
 198:.\Generated_Source\PSoC5/APPS_ADC_SAR.c ****     */
 199:.\Generated_Source\PSoC5/APPS_ADC_SAR.c ****     #if(APPS_ADC_SAR_HIGH_POWER_PULSE == 0u)    /* MinPulseWidth <= 50 ns */
 200:.\Generated_Source\PSoC5/APPS_ADC_SAR.c ****         APPS_ADC_SAR_SAR_CSR5_REG |= APPS_ADC_SAR_SAR_SEL_CSEL_DFT_CHAR;
 201:.\Generated_Source\PSoC5/APPS_ADC_SAR.c ****     #else /* for <500ksps */
 202:.\Generated_Source\PSoC5/APPS_ADC_SAR.c ****         APPS_ADC_SAR_SAR_CSR5_REG &= (uint8)~APPS_ADC_SAR_SAR_SEL_CSEL_DFT_CHAR;
 203:.\Generated_Source\PSoC5/APPS_ADC_SAR.c ****     #endif /* APPS_ADC_SAR_HIGH_POWER_PULSE == 0u */
ARM GAS  C:\Users\mitchell\AppData\Local\Temp\ccfdaiNe.s 			page 5


 204:.\Generated_Source\PSoC5/APPS_ADC_SAR.c **** 
 205:.\Generated_Source\PSoC5/APPS_ADC_SAR.c ****     /* Set default power and other configurations for control register 0 in multiple lines */
 206:.\Generated_Source\PSoC5/APPS_ADC_SAR.c ****     APPS_ADC_SAR_SAR_CSR0_REG = (uint8)((uint8)APPS_ADC_SAR_DEFAULT_POWER << APPS_ADC_SAR_SAR_POWER
 207:.\Generated_Source\PSoC5/APPS_ADC_SAR.c ****     /* SAR_HIZ_CLEAR:   Should not be used for LP */
 208:.\Generated_Source\PSoC5/APPS_ADC_SAR.c ****     #if ((CY_PSOC5LP) || (APPS_ADC_SAR_DEFAULT_REFERENCE != APPS_ADC_SAR__EXT_REF))
 209:.\Generated_Source\PSoC5/APPS_ADC_SAR.c ****         | APPS_ADC_SAR_SAR_HIZ_CLEAR
 210:.\Generated_Source\PSoC5/APPS_ADC_SAR.c ****     #endif /* SAR_HIZ_CLEAR */
 211:.\Generated_Source\PSoC5/APPS_ADC_SAR.c ****     /*Set Convertion mode */
 212:.\Generated_Source\PSoC5/APPS_ADC_SAR.c ****     #if(APPS_ADC_SAR_DEFAULT_CONV_MODE != APPS_ADC_SAR__FREE_RUNNING)      /* If triggered mode */
 213:.\Generated_Source\PSoC5/APPS_ADC_SAR.c ****         | APPS_ADC_SAR_SAR_MX_SOF_UDB           /* source: UDB */
 214:.\Generated_Source\PSoC5/APPS_ADC_SAR.c ****         | APPS_ADC_SAR_SAR_SOF_MODE_EDGE        /* Set edge-sensitive sof source */
 215:.\Generated_Source\PSoC5/APPS_ADC_SAR.c ****     #endif /* APPS_ADC_SAR_DEFAULT_CONV_MODE */
 216:.\Generated_Source\PSoC5/APPS_ADC_SAR.c ****     ; /* end of multiple line initialization */
 217:.\Generated_Source\PSoC5/APPS_ADC_SAR.c **** 
 218:.\Generated_Source\PSoC5/APPS_ADC_SAR.c ****     APPS_ADC_SAR_SAR_TR0_REG = APPS_ADC_SAR_SAR_CAP_TRIM_2;
 219:.\Generated_Source\PSoC5/APPS_ADC_SAR.c **** 
 220:.\Generated_Source\PSoC5/APPS_ADC_SAR.c ****     /* Enable clock for SAR ADC*/
 221:.\Generated_Source\PSoC5/APPS_ADC_SAR.c ****     APPS_ADC_SAR_SAR_CLK_REG |= APPS_ADC_SAR_SAR_MX_CLK_EN;
 222:.\Generated_Source\PSoC5/APPS_ADC_SAR.c **** 
 223:.\Generated_Source\PSoC5/APPS_ADC_SAR.c ****     CyDelayUs(10u); /* The block is ready to use 10 us after the enable signal is set high. */
 224:.\Generated_Source\PSoC5/APPS_ADC_SAR.c **** 
 225:.\Generated_Source\PSoC5/APPS_ADC_SAR.c ****     #if(APPS_ADC_SAR_IRQ_REMOVE == 0u)
 226:.\Generated_Source\PSoC5/APPS_ADC_SAR.c ****         /* Clear a pending interrupt */
 227:.\Generated_Source\PSoC5/APPS_ADC_SAR.c ****         CyIntClearPending(APPS_ADC_SAR_INTC_NUMBER);
 228:.\Generated_Source\PSoC5/APPS_ADC_SAR.c ****     #endif   /* End APPS_ADC_SAR_IRQ_REMOVE */
 229:.\Generated_Source\PSoC5/APPS_ADC_SAR.c **** 
 230:.\Generated_Source\PSoC5/APPS_ADC_SAR.c ****     CyExitCriticalSection(enableInterrupts);
 231:.\Generated_Source\PSoC5/APPS_ADC_SAR.c **** }
 232:.\Generated_Source\PSoC5/APPS_ADC_SAR.c **** 
 233:.\Generated_Source\PSoC5/APPS_ADC_SAR.c **** 
 234:.\Generated_Source\PSoC5/APPS_ADC_SAR.c **** /*******************************************************************************
 235:.\Generated_Source\PSoC5/APPS_ADC_SAR.c **** * Function Name: APPS_ADC_SAR_Stop
 236:.\Generated_Source\PSoC5/APPS_ADC_SAR.c **** ********************************************************************************
 237:.\Generated_Source\PSoC5/APPS_ADC_SAR.c **** *
 238:.\Generated_Source\PSoC5/APPS_ADC_SAR.c **** * Summary:
 239:.\Generated_Source\PSoC5/APPS_ADC_SAR.c **** *  Stops ADC conversions and puts the ADC into its lowest power mode.
 240:.\Generated_Source\PSoC5/APPS_ADC_SAR.c **** *
 241:.\Generated_Source\PSoC5/APPS_ADC_SAR.c **** * Parameters:
 242:.\Generated_Source\PSoC5/APPS_ADC_SAR.c **** *  None.
 243:.\Generated_Source\PSoC5/APPS_ADC_SAR.c **** *
 244:.\Generated_Source\PSoC5/APPS_ADC_SAR.c **** * Return:
 245:.\Generated_Source\PSoC5/APPS_ADC_SAR.c **** *  None.
 246:.\Generated_Source\PSoC5/APPS_ADC_SAR.c **** *
 247:.\Generated_Source\PSoC5/APPS_ADC_SAR.c **** *******************************************************************************/
 248:.\Generated_Source\PSoC5/APPS_ADC_SAR.c **** void APPS_ADC_SAR_Stop(void)
 249:.\Generated_Source\PSoC5/APPS_ADC_SAR.c **** {
 250:.\Generated_Source\PSoC5/APPS_ADC_SAR.c ****     uint8 enableInterrupts;
 251:.\Generated_Source\PSoC5/APPS_ADC_SAR.c ****     enableInterrupts = CyEnterCriticalSection();
 252:.\Generated_Source\PSoC5/APPS_ADC_SAR.c **** 
 253:.\Generated_Source\PSoC5/APPS_ADC_SAR.c ****     /* Stop all conversions */
 254:.\Generated_Source\PSoC5/APPS_ADC_SAR.c ****     APPS_ADC_SAR_SAR_CSR0_REG &= (uint8)~APPS_ADC_SAR_SAR_SOF_START_CONV;
 255:.\Generated_Source\PSoC5/APPS_ADC_SAR.c ****     /* Disable the SAR ADC block in Active Power Mode */
 256:.\Generated_Source\PSoC5/APPS_ADC_SAR.c ****     APPS_ADC_SAR_PWRMGR_SAR_REG &= (uint8)~APPS_ADC_SAR_ACT_PWR_SAR_EN;
 257:.\Generated_Source\PSoC5/APPS_ADC_SAR.c ****     /* Disable the SAR ADC in Standby Power Mode */
 258:.\Generated_Source\PSoC5/APPS_ADC_SAR.c ****     APPS_ADC_SAR_STBY_PWRMGR_SAR_REG &= (uint8)~APPS_ADC_SAR_STBY_PWR_SAR_EN;
 259:.\Generated_Source\PSoC5/APPS_ADC_SAR.c **** 
 260:.\Generated_Source\PSoC5/APPS_ADC_SAR.c ****     /* This is only valid if there is an internal clock */
ARM GAS  C:\Users\mitchell\AppData\Local\Temp\ccfdaiNe.s 			page 6


 261:.\Generated_Source\PSoC5/APPS_ADC_SAR.c ****     #if(APPS_ADC_SAR_DEFAULT_INTERNAL_CLK)
 262:.\Generated_Source\PSoC5/APPS_ADC_SAR.c ****         APPS_ADC_SAR_PWRMGR_CLK_REG &= (uint8)~APPS_ADC_SAR_ACT_PWR_CLK_EN;
 263:.\Generated_Source\PSoC5/APPS_ADC_SAR.c ****         APPS_ADC_SAR_STBY_PWRMGR_CLK_REG &= (uint8)~APPS_ADC_SAR_STBY_PWR_CLK_EN;
 264:.\Generated_Source\PSoC5/APPS_ADC_SAR.c ****     #endif /* End APPS_ADC_SAR_DEFAULT_INTERNAL_CLK */
 265:.\Generated_Source\PSoC5/APPS_ADC_SAR.c **** 
 266:.\Generated_Source\PSoC5/APPS_ADC_SAR.c ****     CyExitCriticalSection(enableInterrupts);
 267:.\Generated_Source\PSoC5/APPS_ADC_SAR.c **** 
 268:.\Generated_Source\PSoC5/APPS_ADC_SAR.c **** }
 269:.\Generated_Source\PSoC5/APPS_ADC_SAR.c **** 
 270:.\Generated_Source\PSoC5/APPS_ADC_SAR.c **** 
 271:.\Generated_Source\PSoC5/APPS_ADC_SAR.c **** /*******************************************************************************
 272:.\Generated_Source\PSoC5/APPS_ADC_SAR.c **** * Function Name: APPS_ADC_SAR_SetPower
 273:.\Generated_Source\PSoC5/APPS_ADC_SAR.c **** ********************************************************************************
 274:.\Generated_Source\PSoC5/APPS_ADC_SAR.c **** *
 275:.\Generated_Source\PSoC5/APPS_ADC_SAR.c **** * Summary:
 276:.\Generated_Source\PSoC5/APPS_ADC_SAR.c **** *  Sets the operational power of the ADC. You should use the higher power
 277:.\Generated_Source\PSoC5/APPS_ADC_SAR.c **** *  settings with faster clock speeds.
 278:.\Generated_Source\PSoC5/APPS_ADC_SAR.c **** *
 279:.\Generated_Source\PSoC5/APPS_ADC_SAR.c **** * Parameters:
 280:.\Generated_Source\PSoC5/APPS_ADC_SAR.c **** *  power:  Power setting for ADC
 281:.\Generated_Source\PSoC5/APPS_ADC_SAR.c **** *  0 ->    Normal
 282:.\Generated_Source\PSoC5/APPS_ADC_SAR.c **** *  1 ->    Medium power
 283:.\Generated_Source\PSoC5/APPS_ADC_SAR.c **** *  2 ->    1.25 power
 284:.\Generated_Source\PSoC5/APPS_ADC_SAR.c **** *  3 ->    Minimum power.
 285:.\Generated_Source\PSoC5/APPS_ADC_SAR.c **** *
 286:.\Generated_Source\PSoC5/APPS_ADC_SAR.c **** * Return:
 287:.\Generated_Source\PSoC5/APPS_ADC_SAR.c **** *  None.
 288:.\Generated_Source\PSoC5/APPS_ADC_SAR.c **** *
 289:.\Generated_Source\PSoC5/APPS_ADC_SAR.c **** *******************************************************************************/
 290:.\Generated_Source\PSoC5/APPS_ADC_SAR.c **** void APPS_ADC_SAR_SetPower(uint8 power)
 291:.\Generated_Source\PSoC5/APPS_ADC_SAR.c **** {
 292:.\Generated_Source\PSoC5/APPS_ADC_SAR.c ****     uint8 tmpReg;
 293:.\Generated_Source\PSoC5/APPS_ADC_SAR.c **** 
 294:.\Generated_Source\PSoC5/APPS_ADC_SAR.c ****     /* mask off invalid power settings */
 295:.\Generated_Source\PSoC5/APPS_ADC_SAR.c ****     power &= APPS_ADC_SAR_SAR_API_POWER_MASK;
 296:.\Generated_Source\PSoC5/APPS_ADC_SAR.c **** 
 297:.\Generated_Source\PSoC5/APPS_ADC_SAR.c ****     /* Set Power parameter  */
 298:.\Generated_Source\PSoC5/APPS_ADC_SAR.c ****     tmpReg = APPS_ADC_SAR_SAR_CSR0_REG & (uint8)~APPS_ADC_SAR_SAR_POWER_MASK;
 299:.\Generated_Source\PSoC5/APPS_ADC_SAR.c ****     tmpReg |= (uint8)(power << APPS_ADC_SAR_SAR_POWER_SHIFT);
 300:.\Generated_Source\PSoC5/APPS_ADC_SAR.c ****     APPS_ADC_SAR_SAR_CSR0_REG = tmpReg;
 301:.\Generated_Source\PSoC5/APPS_ADC_SAR.c **** }
 302:.\Generated_Source\PSoC5/APPS_ADC_SAR.c **** 
 303:.\Generated_Source\PSoC5/APPS_ADC_SAR.c **** 
 304:.\Generated_Source\PSoC5/APPS_ADC_SAR.c **** /*******************************************************************************
 305:.\Generated_Source\PSoC5/APPS_ADC_SAR.c **** * Function Name: APPS_ADC_SAR_SetResolution
 306:.\Generated_Source\PSoC5/APPS_ADC_SAR.c **** ********************************************************************************
 307:.\Generated_Source\PSoC5/APPS_ADC_SAR.c **** *
 308:.\Generated_Source\PSoC5/APPS_ADC_SAR.c **** * Summary:
 309:.\Generated_Source\PSoC5/APPS_ADC_SAR.c **** *  Sets the Relution of the SAR.
 310:.\Generated_Source\PSoC5/APPS_ADC_SAR.c **** *
 311:.\Generated_Source\PSoC5/APPS_ADC_SAR.c **** * Parameters:
 312:.\Generated_Source\PSoC5/APPS_ADC_SAR.c **** *  resolution:
 313:.\Generated_Source\PSoC5/APPS_ADC_SAR.c **** *  12 ->    RES12
 314:.\Generated_Source\PSoC5/APPS_ADC_SAR.c **** *  10 ->    RES10
 315:.\Generated_Source\PSoC5/APPS_ADC_SAR.c **** *  8  ->    RES8
 316:.\Generated_Source\PSoC5/APPS_ADC_SAR.c **** *
 317:.\Generated_Source\PSoC5/APPS_ADC_SAR.c **** * Return:
ARM GAS  C:\Users\mitchell\AppData\Local\Temp\ccfdaiNe.s 			page 7


 318:.\Generated_Source\PSoC5/APPS_ADC_SAR.c **** *  None.
 319:.\Generated_Source\PSoC5/APPS_ADC_SAR.c **** *
 320:.\Generated_Source\PSoC5/APPS_ADC_SAR.c **** * Side Effects:
 321:.\Generated_Source\PSoC5/APPS_ADC_SAR.c **** *  The ADC resolution cannot be changed during a conversion cycle. The
 322:.\Generated_Source\PSoC5/APPS_ADC_SAR.c **** *  recommended best practice is to stop conversions with
 323:.\Generated_Source\PSoC5/APPS_ADC_SAR.c **** *  ADC_StopConvert(), change the resolution, then restart the
 324:.\Generated_Source\PSoC5/APPS_ADC_SAR.c **** *  conversions with ADC_StartConvert().
 325:.\Generated_Source\PSoC5/APPS_ADC_SAR.c **** *  If you decide not to stop conversions before calling this API, you
 326:.\Generated_Source\PSoC5/APPS_ADC_SAR.c **** *  should use ADC_IsEndConversion() to wait until conversion is complete
 327:.\Generated_Source\PSoC5/APPS_ADC_SAR.c **** *  before changing the resolution.
 328:.\Generated_Source\PSoC5/APPS_ADC_SAR.c **** *  If you call ADC_SetResolution() during a conversion, the resolution will
 329:.\Generated_Source\PSoC5/APPS_ADC_SAR.c **** *  not be changed until the current conversion is complete. Data will not be
 330:.\Generated_Source\PSoC5/APPS_ADC_SAR.c **** *  available in the new resolution for another 6 + "New Resolution(in bits)"
 331:.\Generated_Source\PSoC5/APPS_ADC_SAR.c **** *  clock cycles.
 332:.\Generated_Source\PSoC5/APPS_ADC_SAR.c **** *  You may need add a delay of this number of clock cycles after
 333:.\Generated_Source\PSoC5/APPS_ADC_SAR.c **** *  ADC_SetResolution() is called before data is valid again.
 334:.\Generated_Source\PSoC5/APPS_ADC_SAR.c **** *  Affects ADC_CountsTo_Volts(), ADC_CountsTo_mVolts(), and
 335:.\Generated_Source\PSoC5/APPS_ADC_SAR.c **** *  ADC_CountsTo_uVolts() by calculating the correct conversion between ADC
 336:.\Generated_Source\PSoC5/APPS_ADC_SAR.c **** *  counts and the applied input voltage. Calculation depends on resolution,
 337:.\Generated_Source\PSoC5/APPS_ADC_SAR.c **** *  input range, and voltage reference.
 338:.\Generated_Source\PSoC5/APPS_ADC_SAR.c **** *
 339:.\Generated_Source\PSoC5/APPS_ADC_SAR.c **** *******************************************************************************/
 340:.\Generated_Source\PSoC5/APPS_ADC_SAR.c **** void APPS_ADC_SAR_SetResolution(uint8 resolution)
 341:.\Generated_Source\PSoC5/APPS_ADC_SAR.c **** {
 342:.\Generated_Source\PSoC5/APPS_ADC_SAR.c ****     uint8 tmpReg;
 343:.\Generated_Source\PSoC5/APPS_ADC_SAR.c **** 
 344:.\Generated_Source\PSoC5/APPS_ADC_SAR.c ****     /* Set SAR ADC resolution and sample width: 18 conversion cycles at 12bits + 1 gap */
 345:.\Generated_Source\PSoC5/APPS_ADC_SAR.c ****     switch (resolution)
 346:.\Generated_Source\PSoC5/APPS_ADC_SAR.c ****     {
 347:.\Generated_Source\PSoC5/APPS_ADC_SAR.c ****         case (uint8)APPS_ADC_SAR__BITS_12:
 348:.\Generated_Source\PSoC5/APPS_ADC_SAR.c ****             tmpReg = APPS_ADC_SAR_SAR_RESOLUTION_12BIT | APPS_ADC_SAR_SAR_SAMPLE_WIDTH;
 349:.\Generated_Source\PSoC5/APPS_ADC_SAR.c ****             break;
 350:.\Generated_Source\PSoC5/APPS_ADC_SAR.c ****         case (uint8)APPS_ADC_SAR__BITS_10:
 351:.\Generated_Source\PSoC5/APPS_ADC_SAR.c ****             tmpReg = APPS_ADC_SAR_SAR_RESOLUTION_10BIT | APPS_ADC_SAR_SAR_SAMPLE_WIDTH;
 352:.\Generated_Source\PSoC5/APPS_ADC_SAR.c ****             break;
 353:.\Generated_Source\PSoC5/APPS_ADC_SAR.c ****         case (uint8)APPS_ADC_SAR__BITS_8:
 354:.\Generated_Source\PSoC5/APPS_ADC_SAR.c ****             tmpReg = APPS_ADC_SAR_SAR_RESOLUTION_8BIT | APPS_ADC_SAR_SAR_SAMPLE_WIDTH;
 355:.\Generated_Source\PSoC5/APPS_ADC_SAR.c ****             break;
 356:.\Generated_Source\PSoC5/APPS_ADC_SAR.c ****         default:
 357:.\Generated_Source\PSoC5/APPS_ADC_SAR.c ****             tmpReg = APPS_ADC_SAR_SAR_RESOLUTION_12BIT | APPS_ADC_SAR_SAR_SAMPLE_WIDTH;
 358:.\Generated_Source\PSoC5/APPS_ADC_SAR.c ****             /* Halt CPU in debug mode if resolution is out of valid range */
 359:.\Generated_Source\PSoC5/APPS_ADC_SAR.c ****             CYASSERT(0u != 0u);
 360:.\Generated_Source\PSoC5/APPS_ADC_SAR.c ****             break;
 361:.\Generated_Source\PSoC5/APPS_ADC_SAR.c ****     }
 362:.\Generated_Source\PSoC5/APPS_ADC_SAR.c ****     APPS_ADC_SAR_SAR_CSR2_REG = tmpReg;
 363:.\Generated_Source\PSoC5/APPS_ADC_SAR.c **** 
 364:.\Generated_Source\PSoC5/APPS_ADC_SAR.c ****      /* Calculate gain for convert counts to volts */
 365:.\Generated_Source\PSoC5/APPS_ADC_SAR.c ****     APPS_ADC_SAR_CalcGain(resolution);
 366:.\Generated_Source\PSoC5/APPS_ADC_SAR.c **** }
 367:.\Generated_Source\PSoC5/APPS_ADC_SAR.c **** 
 368:.\Generated_Source\PSoC5/APPS_ADC_SAR.c **** 
 369:.\Generated_Source\PSoC5/APPS_ADC_SAR.c **** #if(APPS_ADC_SAR_DEFAULT_CONV_MODE != APPS_ADC_SAR__HARDWARE_TRIGGER)
 370:.\Generated_Source\PSoC5/APPS_ADC_SAR.c **** 
 371:.\Generated_Source\PSoC5/APPS_ADC_SAR.c **** 
 372:.\Generated_Source\PSoC5/APPS_ADC_SAR.c ****     /*******************************************************************************
 373:.\Generated_Source\PSoC5/APPS_ADC_SAR.c ****     * Function Name: APPS_ADC_SAR_StartConvert
 374:.\Generated_Source\PSoC5/APPS_ADC_SAR.c ****     ********************************************************************************
ARM GAS  C:\Users\mitchell\AppData\Local\Temp\ccfdaiNe.s 			page 8


 375:.\Generated_Source\PSoC5/APPS_ADC_SAR.c ****     *
 376:.\Generated_Source\PSoC5/APPS_ADC_SAR.c ****     * Summary:
 377:.\Generated_Source\PSoC5/APPS_ADC_SAR.c ****     *  Forces the ADC to initiate a conversion. In free-running mode, the ADC runs
 378:.\Generated_Source\PSoC5/APPS_ADC_SAR.c ****     *  continuously. In software trigger mode, the function also acts as a software
 379:.\Generated_Source\PSoC5/APPS_ADC_SAR.c ****     *  version of the SOC and every conversion must be triggered by
 380:.\Generated_Source\PSoC5/APPS_ADC_SAR.c ****     *  APPS_ADC_SAR_StartConvert(). This function is not available when the
 381:.\Generated_Source\PSoC5/APPS_ADC_SAR.c ****     *  Hardware Trigger sample mode is selected.
 382:.\Generated_Source\PSoC5/APPS_ADC_SAR.c ****     *
 383:.\Generated_Source\PSoC5/APPS_ADC_SAR.c ****     * Parameters:
 384:.\Generated_Source\PSoC5/APPS_ADC_SAR.c ****     *  None.
 385:.\Generated_Source\PSoC5/APPS_ADC_SAR.c ****     *
 386:.\Generated_Source\PSoC5/APPS_ADC_SAR.c ****     * Return:
 387:.\Generated_Source\PSoC5/APPS_ADC_SAR.c ****     *  None.
 388:.\Generated_Source\PSoC5/APPS_ADC_SAR.c ****     *
 389:.\Generated_Source\PSoC5/APPS_ADC_SAR.c ****     * Theory:
 390:.\Generated_Source\PSoC5/APPS_ADC_SAR.c ****     *  Forces the ADC to initiate a conversion. In Free Running mode, the ADC will
 391:.\Generated_Source\PSoC5/APPS_ADC_SAR.c ****     *  run continuously. In a software trigger mode the function also acts as a
 392:.\Generated_Source\PSoC5/APPS_ADC_SAR.c ****     *  software version of the SOC. Here every conversion has to be triggered by
 393:.\Generated_Source\PSoC5/APPS_ADC_SAR.c ****     *  the routine. This writes into the SOC bit in SAR_CTRL reg.
 394:.\Generated_Source\PSoC5/APPS_ADC_SAR.c ****     *
 395:.\Generated_Source\PSoC5/APPS_ADC_SAR.c ****     * Side Effects:
 396:.\Generated_Source\PSoC5/APPS_ADC_SAR.c ****     *  In a software trigger mode the function switches source for SOF from the
 397:.\Generated_Source\PSoC5/APPS_ADC_SAR.c ****     *  external pin to the internal SOF generation. Application should not call
 398:.\Generated_Source\PSoC5/APPS_ADC_SAR.c ****     *  StartConvert if external source used for SOF.
 399:.\Generated_Source\PSoC5/APPS_ADC_SAR.c ****     *
 400:.\Generated_Source\PSoC5/APPS_ADC_SAR.c ****     *******************************************************************************/
 401:.\Generated_Source\PSoC5/APPS_ADC_SAR.c ****     void APPS_ADC_SAR_StartConvert(void)
 402:.\Generated_Source\PSoC5/APPS_ADC_SAR.c ****     {
 403:.\Generated_Source\PSoC5/APPS_ADC_SAR.c ****         #if(APPS_ADC_SAR_DEFAULT_CONV_MODE != APPS_ADC_SAR__FREE_RUNNING)  /* If software triggered
 404:.\Generated_Source\PSoC5/APPS_ADC_SAR.c ****             APPS_ADC_SAR_SAR_CSR0_REG &= (uint8)~APPS_ADC_SAR_SAR_MX_SOF_UDB;   /* source: SOF bit 
 405:.\Generated_Source\PSoC5/APPS_ADC_SAR.c ****         #endif /* End APPS_ADC_SAR_DEFAULT_CONV_MODE */
 406:.\Generated_Source\PSoC5/APPS_ADC_SAR.c **** 
 407:.\Generated_Source\PSoC5/APPS_ADC_SAR.c ****         /* Start the conversion */
 408:.\Generated_Source\PSoC5/APPS_ADC_SAR.c ****         APPS_ADC_SAR_SAR_CSR0_REG |= APPS_ADC_SAR_SAR_SOF_START_CONV;
 409:.\Generated_Source\PSoC5/APPS_ADC_SAR.c ****     }
 410:.\Generated_Source\PSoC5/APPS_ADC_SAR.c **** 
 411:.\Generated_Source\PSoC5/APPS_ADC_SAR.c **** 
 412:.\Generated_Source\PSoC5/APPS_ADC_SAR.c ****     /*******************************************************************************
 413:.\Generated_Source\PSoC5/APPS_ADC_SAR.c ****     * Function Name: APPS_ADC_SAR_StopConvert
 414:.\Generated_Source\PSoC5/APPS_ADC_SAR.c ****     ********************************************************************************
 415:.\Generated_Source\PSoC5/APPS_ADC_SAR.c ****     *
 416:.\Generated_Source\PSoC5/APPS_ADC_SAR.c ****     * Summary:
 417:.\Generated_Source\PSoC5/APPS_ADC_SAR.c ****     *  Forces the ADC to stop conversions. If a conversion is currently executing,
 418:.\Generated_Source\PSoC5/APPS_ADC_SAR.c ****     *  that conversion will complete, but no further conversions will occur. This
 419:.\Generated_Source\PSoC5/APPS_ADC_SAR.c ****     *  function is not available when the Hardware Trigger sample mode is selected.
 420:.\Generated_Source\PSoC5/APPS_ADC_SAR.c ****     *
 421:.\Generated_Source\PSoC5/APPS_ADC_SAR.c ****     * Parameters:
 422:.\Generated_Source\PSoC5/APPS_ADC_SAR.c ****     *  None.
 423:.\Generated_Source\PSoC5/APPS_ADC_SAR.c ****     *
 424:.\Generated_Source\PSoC5/APPS_ADC_SAR.c ****     * Return:
 425:.\Generated_Source\PSoC5/APPS_ADC_SAR.c ****     *  None.
 426:.\Generated_Source\PSoC5/APPS_ADC_SAR.c ****     *
 427:.\Generated_Source\PSoC5/APPS_ADC_SAR.c ****     * Theory:
 428:.\Generated_Source\PSoC5/APPS_ADC_SAR.c ****     *  Stops ADC conversion in Free Running mode.
 429:.\Generated_Source\PSoC5/APPS_ADC_SAR.c ****     *
 430:.\Generated_Source\PSoC5/APPS_ADC_SAR.c ****     * Side Effects:
 431:.\Generated_Source\PSoC5/APPS_ADC_SAR.c ****     *  In Software Trigger sample mode, this function sets a software version of the
ARM GAS  C:\Users\mitchell\AppData\Local\Temp\ccfdaiNe.s 			page 9


 432:.\Generated_Source\PSoC5/APPS_ADC_SAR.c ****     *  SOC to low level and switches the SOC source to hardware SOC input.
 433:.\Generated_Source\PSoC5/APPS_ADC_SAR.c ****     *
 434:.\Generated_Source\PSoC5/APPS_ADC_SAR.c ****     *******************************************************************************/
 435:.\Generated_Source\PSoC5/APPS_ADC_SAR.c ****     void APPS_ADC_SAR_StopConvert(void)
 436:.\Generated_Source\PSoC5/APPS_ADC_SAR.c ****     {
 437:.\Generated_Source\PSoC5/APPS_ADC_SAR.c ****         /* Stop all conversions */
 438:.\Generated_Source\PSoC5/APPS_ADC_SAR.c ****         APPS_ADC_SAR_SAR_CSR0_REG &= (uint8)~APPS_ADC_SAR_SAR_SOF_START_CONV;
 439:.\Generated_Source\PSoC5/APPS_ADC_SAR.c **** 
 440:.\Generated_Source\PSoC5/APPS_ADC_SAR.c ****         #if(APPS_ADC_SAR_DEFAULT_CONV_MODE != APPS_ADC_SAR__FREE_RUNNING)  /* If software triggered
 441:.\Generated_Source\PSoC5/APPS_ADC_SAR.c ****             /* Return source to UDB for hardware SOF signal */
 442:.\Generated_Source\PSoC5/APPS_ADC_SAR.c ****             APPS_ADC_SAR_SAR_CSR0_REG |= APPS_ADC_SAR_SAR_MX_SOF_UDB;    /* source: UDB */
 443:.\Generated_Source\PSoC5/APPS_ADC_SAR.c ****         #endif /* End APPS_ADC_SAR_DEFAULT_CONV_MODE */
 444:.\Generated_Source\PSoC5/APPS_ADC_SAR.c **** 
 445:.\Generated_Source\PSoC5/APPS_ADC_SAR.c ****     }
 446:.\Generated_Source\PSoC5/APPS_ADC_SAR.c **** 
 447:.\Generated_Source\PSoC5/APPS_ADC_SAR.c **** #endif /* End APPS_ADC_SAR_DEFAULT_CONV_MODE != APPS_ADC_SAR__HARDWARE_TRIGGER */
 448:.\Generated_Source\PSoC5/APPS_ADC_SAR.c **** 
 449:.\Generated_Source\PSoC5/APPS_ADC_SAR.c **** 
 450:.\Generated_Source\PSoC5/APPS_ADC_SAR.c **** /*******************************************************************************
 451:.\Generated_Source\PSoC5/APPS_ADC_SAR.c **** * Function Name: APPS_ADC_SAR_IsEndConversion
 452:.\Generated_Source\PSoC5/APPS_ADC_SAR.c **** ********************************************************************************
 453:.\Generated_Source\PSoC5/APPS_ADC_SAR.c **** *
 454:.\Generated_Source\PSoC5/APPS_ADC_SAR.c **** * Summary:
 455:.\Generated_Source\PSoC5/APPS_ADC_SAR.c **** *  Immediately returns the status of the conversion or does not return
 456:.\Generated_Source\PSoC5/APPS_ADC_SAR.c **** *  (blocking) until the conversion completes, depending on the retMode
 457:.\Generated_Source\PSoC5/APPS_ADC_SAR.c **** *  parameter.
 458:.\Generated_Source\PSoC5/APPS_ADC_SAR.c **** *
 459:.\Generated_Source\PSoC5/APPS_ADC_SAR.c **** * Parameters:
 460:.\Generated_Source\PSoC5/APPS_ADC_SAR.c **** *  retMode:  Check conversion return mode.
 461:.\Generated_Source\PSoC5/APPS_ADC_SAR.c **** *   APPS_ADC_SAR_RETURN_STATUS: Immediately returns the status. If the
 462:.\Generated_Source\PSoC5/APPS_ADC_SAR.c **** *     value returned is zero, the conversion is not complete, and this function
 463:.\Generated_Source\PSoC5/APPS_ADC_SAR.c **** *     should be retried until a nonzero result is returned.
 464:.\Generated_Source\PSoC5/APPS_ADC_SAR.c **** *   APPS_ADC_SAR_WAIT_FOR_RESULT: Does not return a result until the ADC
 465:.\Generated_Source\PSoC5/APPS_ADC_SAR.c **** *     conversion is complete.
 466:.\Generated_Source\PSoC5/APPS_ADC_SAR.c **** *
 467:.\Generated_Source\PSoC5/APPS_ADC_SAR.c **** * Return:
 468:.\Generated_Source\PSoC5/APPS_ADC_SAR.c **** *  (uint8)  0 =>  The ADC is still calculating the last result.
 469:.\Generated_Source\PSoC5/APPS_ADC_SAR.c **** *           1 =>  The last conversion is complete.
 470:.\Generated_Source\PSoC5/APPS_ADC_SAR.c **** *
 471:.\Generated_Source\PSoC5/APPS_ADC_SAR.c **** * Side Effects:
 472:.\Generated_Source\PSoC5/APPS_ADC_SAR.c **** *  This function reads the end of conversion status, which is cleared on read.
 473:.\Generated_Source\PSoC5/APPS_ADC_SAR.c **** *
 474:.\Generated_Source\PSoC5/APPS_ADC_SAR.c **** *******************************************************************************/
 475:.\Generated_Source\PSoC5/APPS_ADC_SAR.c **** uint8 APPS_ADC_SAR_IsEndConversion(uint8 retMode)
 476:.\Generated_Source\PSoC5/APPS_ADC_SAR.c **** {
 477:.\Generated_Source\PSoC5/APPS_ADC_SAR.c ****     uint8 status;
 478:.\Generated_Source\PSoC5/APPS_ADC_SAR.c **** 
 479:.\Generated_Source\PSoC5/APPS_ADC_SAR.c ****     do
 480:.\Generated_Source\PSoC5/APPS_ADC_SAR.c ****     {
 481:.\Generated_Source\PSoC5/APPS_ADC_SAR.c ****         status = APPS_ADC_SAR_SAR_CSR1_REG & APPS_ADC_SAR_SAR_EOF_1;
 482:.\Generated_Source\PSoC5/APPS_ADC_SAR.c ****     } while ((status != APPS_ADC_SAR_SAR_EOF_1) && (retMode == APPS_ADC_SAR_WAIT_FOR_RESULT));
 483:.\Generated_Source\PSoC5/APPS_ADC_SAR.c ****     /* If convertion complete, wait until EOF bit released */
 484:.\Generated_Source\PSoC5/APPS_ADC_SAR.c ****     if(status == APPS_ADC_SAR_SAR_EOF_1)
 485:.\Generated_Source\PSoC5/APPS_ADC_SAR.c ****     {
 486:.\Generated_Source\PSoC5/APPS_ADC_SAR.c ****         /* wait one ADC clock to let the EOC status bit release */
 487:.\Generated_Source\PSoC5/APPS_ADC_SAR.c ****         CyDelayUs(1u);
 488:.\Generated_Source\PSoC5/APPS_ADC_SAR.c ****         /* Do the unconditional read operation of the CSR1 register to make sure the EOC bit has be
ARM GAS  C:\Users\mitchell\AppData\Local\Temp\ccfdaiNe.s 			page 10


 489:.\Generated_Source\PSoC5/APPS_ADC_SAR.c ****         CY_GET_REG8(APPS_ADC_SAR_SAR_CSR1_PTR);
 490:.\Generated_Source\PSoC5/APPS_ADC_SAR.c ****     }
 491:.\Generated_Source\PSoC5/APPS_ADC_SAR.c **** 
 492:.\Generated_Source\PSoC5/APPS_ADC_SAR.c ****     return(status);
 493:.\Generated_Source\PSoC5/APPS_ADC_SAR.c **** }
 494:.\Generated_Source\PSoC5/APPS_ADC_SAR.c **** 
 495:.\Generated_Source\PSoC5/APPS_ADC_SAR.c **** 
 496:.\Generated_Source\PSoC5/APPS_ADC_SAR.c **** /*******************************************************************************
 497:.\Generated_Source\PSoC5/APPS_ADC_SAR.c **** * Function Name: APPS_ADC_SAR_GetResult8
 498:.\Generated_Source\PSoC5/APPS_ADC_SAR.c **** ********************************************************************************
 499:.\Generated_Source\PSoC5/APPS_ADC_SAR.c **** *
 500:.\Generated_Source\PSoC5/APPS_ADC_SAR.c **** * Summary:
 501:.\Generated_Source\PSoC5/APPS_ADC_SAR.c **** *  Returns the result of an 8-bit conversion. If the resolution is set greater
 502:.\Generated_Source\PSoC5/APPS_ADC_SAR.c **** *  than 8 bits, the function returns the LSB of the result.
 503:.\Generated_Source\PSoC5/APPS_ADC_SAR.c **** *  APPS_ADC_SAR_IsEndConversion() should be called to verify that the data
 504:.\Generated_Source\PSoC5/APPS_ADC_SAR.c **** *   sample is ready.
 505:.\Generated_Source\PSoC5/APPS_ADC_SAR.c **** *
 506:.\Generated_Source\PSoC5/APPS_ADC_SAR.c **** * Parameters:
 507:.\Generated_Source\PSoC5/APPS_ADC_SAR.c **** *  None.
 508:.\Generated_Source\PSoC5/APPS_ADC_SAR.c **** *
 509:.\Generated_Source\PSoC5/APPS_ADC_SAR.c **** * Return:
 510:.\Generated_Source\PSoC5/APPS_ADC_SAR.c **** *  The LSB of the last ADC conversion.
 511:.\Generated_Source\PSoC5/APPS_ADC_SAR.c **** *
 512:.\Generated_Source\PSoC5/APPS_ADC_SAR.c **** * Global Variables:
 513:.\Generated_Source\PSoC5/APPS_ADC_SAR.c **** *  APPS_ADC_SAR_shift - used to convert the ADC counts to the 2s
 514:.\Generated_Source\PSoC5/APPS_ADC_SAR.c **** *  compliment form.
 515:.\Generated_Source\PSoC5/APPS_ADC_SAR.c **** *
 516:.\Generated_Source\PSoC5/APPS_ADC_SAR.c **** * Side Effects:
 517:.\Generated_Source\PSoC5/APPS_ADC_SAR.c **** *  Converts the ADC counts to the 2s complement form.
 518:.\Generated_Source\PSoC5/APPS_ADC_SAR.c **** *
 519:.\Generated_Source\PSoC5/APPS_ADC_SAR.c **** *******************************************************************************/
 520:.\Generated_Source\PSoC5/APPS_ADC_SAR.c **** int8 APPS_ADC_SAR_GetResult8( void )
 521:.\Generated_Source\PSoC5/APPS_ADC_SAR.c **** {
 522:.\Generated_Source\PSoC5/APPS_ADC_SAR.c ****     return( (int8)APPS_ADC_SAR_SAR_WRK0_REG - (int8)APPS_ADC_SAR_shift);
 523:.\Generated_Source\PSoC5/APPS_ADC_SAR.c **** }
 524:.\Generated_Source\PSoC5/APPS_ADC_SAR.c **** 
 525:.\Generated_Source\PSoC5/APPS_ADC_SAR.c **** 
 526:.\Generated_Source\PSoC5/APPS_ADC_SAR.c **** /*******************************************************************************
 527:.\Generated_Source\PSoC5/APPS_ADC_SAR.c **** * Function Name: APPS_ADC_SAR_GetResult16
 528:.\Generated_Source\PSoC5/APPS_ADC_SAR.c **** ********************************************************************************
 529:.\Generated_Source\PSoC5/APPS_ADC_SAR.c **** *
 530:.\Generated_Source\PSoC5/APPS_ADC_SAR.c **** * Summary:
 531:.\Generated_Source\PSoC5/APPS_ADC_SAR.c **** *  Returns a 16-bit result for a conversion with a result that has a resolution
 532:.\Generated_Source\PSoC5/APPS_ADC_SAR.c **** *  of 8 to 12 bits.
 533:.\Generated_Source\PSoC5/APPS_ADC_SAR.c **** *  APPS_ADC_SAR_IsEndConversion() should be called to verify that the data
 534:.\Generated_Source\PSoC5/APPS_ADC_SAR.c **** *   sample is ready
 535:.\Generated_Source\PSoC5/APPS_ADC_SAR.c **** *
 536:.\Generated_Source\PSoC5/APPS_ADC_SAR.c **** * Parameters:
 537:.\Generated_Source\PSoC5/APPS_ADC_SAR.c **** *  None.
 538:.\Generated_Source\PSoC5/APPS_ADC_SAR.c **** *
 539:.\Generated_Source\PSoC5/APPS_ADC_SAR.c **** * Return:
 540:.\Generated_Source\PSoC5/APPS_ADC_SAR.c **** *  The 16-bit result of the last ADC conversion
 541:.\Generated_Source\PSoC5/APPS_ADC_SAR.c **** *
 542:.\Generated_Source\PSoC5/APPS_ADC_SAR.c **** * Global Variables:
 543:.\Generated_Source\PSoC5/APPS_ADC_SAR.c **** *  APPS_ADC_SAR_shift - used to convert the ADC counts to the 2s
 544:.\Generated_Source\PSoC5/APPS_ADC_SAR.c **** *  compliment form.
 545:.\Generated_Source\PSoC5/APPS_ADC_SAR.c **** *
ARM GAS  C:\Users\mitchell\AppData\Local\Temp\ccfdaiNe.s 			page 11


 546:.\Generated_Source\PSoC5/APPS_ADC_SAR.c **** * Side Effects:
 547:.\Generated_Source\PSoC5/APPS_ADC_SAR.c **** *  Converts the ADC counts to the 2s complement form.
 548:.\Generated_Source\PSoC5/APPS_ADC_SAR.c **** *
 549:.\Generated_Source\PSoC5/APPS_ADC_SAR.c **** *******************************************************************************/
 550:.\Generated_Source\PSoC5/APPS_ADC_SAR.c **** int16 APPS_ADC_SAR_GetResult16( void )
 551:.\Generated_Source\PSoC5/APPS_ADC_SAR.c **** {
 552:.\Generated_Source\PSoC5/APPS_ADC_SAR.c ****     uint16 res;
 553:.\Generated_Source\PSoC5/APPS_ADC_SAR.c **** 
 554:.\Generated_Source\PSoC5/APPS_ADC_SAR.c ****     res = CY_GET_REG16(APPS_ADC_SAR_SAR_WRK_PTR);
 555:.\Generated_Source\PSoC5/APPS_ADC_SAR.c **** 
 556:.\Generated_Source\PSoC5/APPS_ADC_SAR.c ****     return( (int16)res - APPS_ADC_SAR_shift );
 557:.\Generated_Source\PSoC5/APPS_ADC_SAR.c **** }
 558:.\Generated_Source\PSoC5/APPS_ADC_SAR.c **** 
 559:.\Generated_Source\PSoC5/APPS_ADC_SAR.c **** 
 560:.\Generated_Source\PSoC5/APPS_ADC_SAR.c **** /*******************************************************************************
 561:.\Generated_Source\PSoC5/APPS_ADC_SAR.c **** * Function Name: APPS_ADC_SAR_SetOffset
 562:.\Generated_Source\PSoC5/APPS_ADC_SAR.c **** ********************************************************************************
 563:.\Generated_Source\PSoC5/APPS_ADC_SAR.c **** *
 564:.\Generated_Source\PSoC5/APPS_ADC_SAR.c **** * Summary:
 565:.\Generated_Source\PSoC5/APPS_ADC_SAR.c **** *  Sets the ADC offset, which is used by APPS_ADC_SAR_CountsTo_Volts(),
 566:.\Generated_Source\PSoC5/APPS_ADC_SAR.c **** *  APPS_ADC_SAR_CountsTo_mVolts(), and APPS_ADC_SAR_CountsTo_uVolts()
 567:.\Generated_Source\PSoC5/APPS_ADC_SAR.c **** *  to subtract the offset from the given reading before calculating the voltage
 568:.\Generated_Source\PSoC5/APPS_ADC_SAR.c **** *  conversion.
 569:.\Generated_Source\PSoC5/APPS_ADC_SAR.c **** *
 570:.\Generated_Source\PSoC5/APPS_ADC_SAR.c **** * Parameters:
 571:.\Generated_Source\PSoC5/APPS_ADC_SAR.c **** *  int16: This value is measured when the inputs are shorted or connected to
 572:.\Generated_Source\PSoC5/APPS_ADC_SAR.c ****    the same input voltage.
 573:.\Generated_Source\PSoC5/APPS_ADC_SAR.c **** *
 574:.\Generated_Source\PSoC5/APPS_ADC_SAR.c **** * Return:
 575:.\Generated_Source\PSoC5/APPS_ADC_SAR.c **** *  None.
 576:.\Generated_Source\PSoC5/APPS_ADC_SAR.c **** *
 577:.\Generated_Source\PSoC5/APPS_ADC_SAR.c **** * Global Variables:
 578:.\Generated_Source\PSoC5/APPS_ADC_SAR.c **** *  The APPS_ADC_SAR_offset variable modified. This variable is used for
 579:.\Generated_Source\PSoC5/APPS_ADC_SAR.c **** *  offset calibration purpose.
 580:.\Generated_Source\PSoC5/APPS_ADC_SAR.c **** *  Affects the APPS_ADC_SAR_CountsTo_Volts,
 581:.\Generated_Source\PSoC5/APPS_ADC_SAR.c **** *  APPS_ADC_SAR_CountsTo_mVolts, APPS_ADC_SAR_CountsTo_uVolts functions
 582:.\Generated_Source\PSoC5/APPS_ADC_SAR.c **** *  by subtracting the given offset.
 583:.\Generated_Source\PSoC5/APPS_ADC_SAR.c **** *
 584:.\Generated_Source\PSoC5/APPS_ADC_SAR.c **** *******************************************************************************/
 585:.\Generated_Source\PSoC5/APPS_ADC_SAR.c **** void APPS_ADC_SAR_SetOffset(int16 offset)
 586:.\Generated_Source\PSoC5/APPS_ADC_SAR.c **** {
 587:.\Generated_Source\PSoC5/APPS_ADC_SAR.c ****     APPS_ADC_SAR_offset = offset;
 588:.\Generated_Source\PSoC5/APPS_ADC_SAR.c **** }
 589:.\Generated_Source\PSoC5/APPS_ADC_SAR.c **** 
 590:.\Generated_Source\PSoC5/APPS_ADC_SAR.c **** 
 591:.\Generated_Source\PSoC5/APPS_ADC_SAR.c **** /*******************************************************************************
 592:.\Generated_Source\PSoC5/APPS_ADC_SAR.c **** * Function Name: APPS_ADC_SAR_CalcGain
 593:.\Generated_Source\PSoC5/APPS_ADC_SAR.c **** ********************************************************************************
 594:.\Generated_Source\PSoC5/APPS_ADC_SAR.c **** *
 595:.\Generated_Source\PSoC5/APPS_ADC_SAR.c **** * Summary:
 596:.\Generated_Source\PSoC5/APPS_ADC_SAR.c **** *  This function calculates the ADC gain in counts per 10 volt.
 597:.\Generated_Source\PSoC5/APPS_ADC_SAR.c **** *
 598:.\Generated_Source\PSoC5/APPS_ADC_SAR.c **** * Parameters:
 599:.\Generated_Source\PSoC5/APPS_ADC_SAR.c **** *  uint8: resolution
 600:.\Generated_Source\PSoC5/APPS_ADC_SAR.c **** *
 601:.\Generated_Source\PSoC5/APPS_ADC_SAR.c **** * Return:
 602:.\Generated_Source\PSoC5/APPS_ADC_SAR.c **** *  None.
ARM GAS  C:\Users\mitchell\AppData\Local\Temp\ccfdaiNe.s 			page 12


 603:.\Generated_Source\PSoC5/APPS_ADC_SAR.c **** *
 604:.\Generated_Source\PSoC5/APPS_ADC_SAR.c **** * Global Variables:
 605:.\Generated_Source\PSoC5/APPS_ADC_SAR.c **** *  APPS_ADC_SAR_shift variable initialized. This variable is used to
 606:.\Generated_Source\PSoC5/APPS_ADC_SAR.c **** *  convert the ADC counts to the 2s compliment form.
 607:.\Generated_Source\PSoC5/APPS_ADC_SAR.c **** *  APPS_ADC_SAR_countsPer10Volt variable initialized. This variable is used
 608:.\Generated_Source\PSoC5/APPS_ADC_SAR.c **** *  for gain calibration purpose.
 609:.\Generated_Source\PSoC5/APPS_ADC_SAR.c **** *
 610:.\Generated_Source\PSoC5/APPS_ADC_SAR.c **** *******************************************************************************/
 611:.\Generated_Source\PSoC5/APPS_ADC_SAR.c **** static void APPS_ADC_SAR_CalcGain( uint8 resolution )
 612:.\Generated_Source\PSoC5/APPS_ADC_SAR.c **** {
  26              		.loc 1 612 0
  27              		.cfi_startproc
  28              		@ args = 0, pretend = 0, frame = 0
  29              		@ frame_needed = 0, uses_anonymous_args = 0
  30              	.LVL0:
  31 0000 08B5     		push	{r3, lr}
  32              		.cfi_def_cfa_offset 8
  33              		.cfi_offset 3, -8
  34              		.cfi_offset 14, -4
 613:.\Generated_Source\PSoC5/APPS_ADC_SAR.c ****     int32 counts;
 614:.\Generated_Source\PSoC5/APPS_ADC_SAR.c ****     #if(!((APPS_ADC_SAR_DEFAULT_RANGE == APPS_ADC_SAR__VSS_TO_VREF) || \
 615:.\Generated_Source\PSoC5/APPS_ADC_SAR.c ****          (APPS_ADC_SAR_DEFAULT_RANGE == APPS_ADC_SAR__VSSA_TO_VDDA) || \
 616:.\Generated_Source\PSoC5/APPS_ADC_SAR.c ****          (APPS_ADC_SAR_DEFAULT_RANGE == APPS_ADC_SAR__VSSA_TO_VDAC)) )
 617:.\Generated_Source\PSoC5/APPS_ADC_SAR.c ****         uint16 diff_zero;
 618:.\Generated_Source\PSoC5/APPS_ADC_SAR.c ****     #endif /* End APPS_ADC_SAR_DEFAULT_RANGE */
 619:.\Generated_Source\PSoC5/APPS_ADC_SAR.c **** 
 620:.\Generated_Source\PSoC5/APPS_ADC_SAR.c ****     switch (resolution)
  35              		.loc 1 620 0
  36 0002 0A28     		cmp	r0, #10
  37 0004 0FD0     		beq	.L6
  38 0006 0C28     		cmp	r0, #12
  39 0008 02D0     		beq	.L4
  40 000a 0828     		cmp	r0, #8
  41 000c 06D1     		bne	.L7
  42 000e 02E0     		b	.L5
  43              	.L4:
 621:.\Generated_Source\PSoC5/APPS_ADC_SAR.c ****     {
 622:.\Generated_Source\PSoC5/APPS_ADC_SAR.c ****         case (uint8)APPS_ADC_SAR__BITS_12:
 623:.\Generated_Source\PSoC5/APPS_ADC_SAR.c ****             counts = (int32)APPS_ADC_SAR_SAR_WRK_MAX_12BIT;
  44              		.loc 1 623 0
  45 0010 4FF48052 		mov	r2, #4096
  46 0014 09E0     		b	.L3
  47              	.L5:
  48              	.LVL1:
 624:.\Generated_Source\PSoC5/APPS_ADC_SAR.c ****             #if(!((APPS_ADC_SAR_DEFAULT_RANGE == APPS_ADC_SAR__VSS_TO_VREF) || \
 625:.\Generated_Source\PSoC5/APPS_ADC_SAR.c ****                  (APPS_ADC_SAR_DEFAULT_RANGE == APPS_ADC_SAR__VSSA_TO_VDDA) || \
 626:.\Generated_Source\PSoC5/APPS_ADC_SAR.c ****                  (APPS_ADC_SAR_DEFAULT_RANGE == APPS_ADC_SAR__VSSA_TO_VDAC)) )
 627:.\Generated_Source\PSoC5/APPS_ADC_SAR.c ****                 diff_zero = APPS_ADC_SAR_SAR_DIFF_SHIFT;
 628:.\Generated_Source\PSoC5/APPS_ADC_SAR.c ****             #endif /* End APPS_ADC_SAR_DEFAULT_RANGE */
 629:.\Generated_Source\PSoC5/APPS_ADC_SAR.c ****             break;
 630:.\Generated_Source\PSoC5/APPS_ADC_SAR.c ****         case (uint8)APPS_ADC_SAR__BITS_10:
 631:.\Generated_Source\PSoC5/APPS_ADC_SAR.c ****             counts = (int32)APPS_ADC_SAR_SAR_WRK_MAX_10BIT;
 632:.\Generated_Source\PSoC5/APPS_ADC_SAR.c ****             #if(!((APPS_ADC_SAR_DEFAULT_RANGE == APPS_ADC_SAR__VSS_TO_VREF) || \
 633:.\Generated_Source\PSoC5/APPS_ADC_SAR.c ****                  (APPS_ADC_SAR_DEFAULT_RANGE == APPS_ADC_SAR__VSSA_TO_VDDA) || \
 634:.\Generated_Source\PSoC5/APPS_ADC_SAR.c ****                  (APPS_ADC_SAR_DEFAULT_RANGE == APPS_ADC_SAR__VSSA_TO_VDAC)) )
 635:.\Generated_Source\PSoC5/APPS_ADC_SAR.c ****                 diff_zero = APPS_ADC_SAR_SAR_DIFF_SHIFT >> 2u;
 636:.\Generated_Source\PSoC5/APPS_ADC_SAR.c ****             #endif /* End APPS_ADC_SAR_DEFAULT_RANGE */
ARM GAS  C:\Users\mitchell\AppData\Local\Temp\ccfdaiNe.s 			page 13


 637:.\Generated_Source\PSoC5/APPS_ADC_SAR.c ****             break;
 638:.\Generated_Source\PSoC5/APPS_ADC_SAR.c ****         case (uint8)APPS_ADC_SAR__BITS_8:
 639:.\Generated_Source\PSoC5/APPS_ADC_SAR.c ****             counts = (int32)APPS_ADC_SAR_SAR_WRK_MAX_8BIT;
  49              		.loc 1 639 0
  50 0016 4FF48072 		mov	r2, #256
 640:.\Generated_Source\PSoC5/APPS_ADC_SAR.c ****             #if(!((APPS_ADC_SAR_DEFAULT_RANGE == APPS_ADC_SAR__VSS_TO_VREF) || \
 641:.\Generated_Source\PSoC5/APPS_ADC_SAR.c ****                  (APPS_ADC_SAR_DEFAULT_RANGE == APPS_ADC_SAR__VSSA_TO_VDDA) || \
 642:.\Generated_Source\PSoC5/APPS_ADC_SAR.c ****                  (APPS_ADC_SAR_DEFAULT_RANGE == APPS_ADC_SAR__VSSA_TO_VDAC)) )
 643:.\Generated_Source\PSoC5/APPS_ADC_SAR.c ****                 diff_zero = APPS_ADC_SAR_SAR_DIFF_SHIFT >> 4u;
 644:.\Generated_Source\PSoC5/APPS_ADC_SAR.c ****             #endif /* End APPS_ADC_SAR_DEFAULT_RANGE */
 645:.\Generated_Source\PSoC5/APPS_ADC_SAR.c ****             break;
  51              		.loc 1 645 0
  52 001a 06E0     		b	.L3
  53              	.LVL2:
  54              	.L7:
 646:.\Generated_Source\PSoC5/APPS_ADC_SAR.c ****         default: /* Halt CPU in debug mode if resolution is out of valid range */
 647:.\Generated_Source\PSoC5/APPS_ADC_SAR.c ****             counts = 0;
 648:.\Generated_Source\PSoC5/APPS_ADC_SAR.c ****             #if(!((APPS_ADC_SAR_DEFAULT_RANGE == APPS_ADC_SAR__VSS_TO_VREF) || \
 649:.\Generated_Source\PSoC5/APPS_ADC_SAR.c ****                  (APPS_ADC_SAR_DEFAULT_RANGE == APPS_ADC_SAR__VSSA_TO_VDDA) || \
 650:.\Generated_Source\PSoC5/APPS_ADC_SAR.c ****                  (APPS_ADC_SAR_DEFAULT_RANGE == APPS_ADC_SAR__VSSA_TO_VDAC)) )
 651:.\Generated_Source\PSoC5/APPS_ADC_SAR.c ****                 diff_zero = 0u;
 652:.\Generated_Source\PSoC5/APPS_ADC_SAR.c ****             #endif /* End APPS_ADC_SAR_DEFAULT_RANGE */
 653:.\Generated_Source\PSoC5/APPS_ADC_SAR.c ****             CYASSERT(0u != 0u);
  55              		.loc 1 653 0
  56 001c 0020     		movs	r0, #0
  57              	.LVL3:
  58 001e FFF7FEFF 		bl	CyHalt
  59              	.LVL4:
 647:.\Generated_Source\PSoC5/APPS_ADC_SAR.c ****             #if(!((APPS_ADC_SAR_DEFAULT_RANGE == APPS_ADC_SAR__VSS_TO_VREF) || \
  60              		.loc 1 647 0
  61 0022 0022     		movs	r2, #0
  62 0024 01E0     		b	.L3
  63              	.LVL5:
  64              	.L6:
 631:.\Generated_Source\PSoC5/APPS_ADC_SAR.c ****             #if(!((APPS_ADC_SAR_DEFAULT_RANGE == APPS_ADC_SAR__VSS_TO_VREF) || \
  65              		.loc 1 631 0
  66 0026 4FF48062 		mov	r2, #1024
  67              	.LVL6:
  68              	.L3:
 654:.\Generated_Source\PSoC5/APPS_ADC_SAR.c ****             break;
 655:.\Generated_Source\PSoC5/APPS_ADC_SAR.c ****     }
 656:.\Generated_Source\PSoC5/APPS_ADC_SAR.c ****     APPS_ADC_SAR_countsPerVolt = 0; /* Clear obsolete variable */
  69              		.loc 1 656 0
  70 002a 0021     		movs	r1, #0
  71 002c 094B     		ldr	r3, .L9
  72 002e 1980     		strh	r1, [r3]	@ movhi
 657:.\Generated_Source\PSoC5/APPS_ADC_SAR.c ****     /* Calculate gain in counts per 10 volts with rounding */
 658:.\Generated_Source\PSoC5/APPS_ADC_SAR.c ****     APPS_ADC_SAR_countsPer10Volt = (((counts * APPS_ADC_SAR_10MV_COUNTS) +
  73              		.loc 1 658 0
  74 0030 42F21073 		movw	r3, #10000
  75 0034 03FB02F3 		mul	r3, r3, r2
  76 0038 03F6C413 		addw	r3, r3, #2500
 659:.\Generated_Source\PSoC5/APPS_ADC_SAR.c ****                         APPS_ADC_SAR_DEFAULT_REF_VOLTAGE_MV) / (APPS_ADC_SAR_DEFAULT_REF_VOLTAGE_MV
  77              		.loc 1 659 0
  78 003c 064A     		ldr	r2, .L9+4
  79              	.LVL7:
  80 003e 82FB0302 		smull	r0, r2, r2, r3
ARM GAS  C:\Users\mitchell\AppData\Local\Temp\ccfdaiNe.s 			page 14


  81 0042 DB17     		asrs	r3, r3, #31
  82 0044 C3EBE223 		rsb	r3, r3, r2, asr #11
 658:.\Generated_Source\PSoC5/APPS_ADC_SAR.c ****                         APPS_ADC_SAR_DEFAULT_REF_VOLTAGE_MV) / (APPS_ADC_SAR_DEFAULT_REF_VOLTAGE_MV
  83              		.loc 1 658 0
  84 0048 044A     		ldr	r2, .L9+8
  85 004a 1360     		str	r3, [r2]
 660:.\Generated_Source\PSoC5/APPS_ADC_SAR.c **** 
 661:.\Generated_Source\PSoC5/APPS_ADC_SAR.c ****     #if( (APPS_ADC_SAR_DEFAULT_RANGE == APPS_ADC_SAR__VSS_TO_VREF) || \
 662:.\Generated_Source\PSoC5/APPS_ADC_SAR.c ****          (APPS_ADC_SAR_DEFAULT_RANGE == APPS_ADC_SAR__VSSA_TO_VDDA) || \
 663:.\Generated_Source\PSoC5/APPS_ADC_SAR.c ****          (APPS_ADC_SAR_DEFAULT_RANGE == APPS_ADC_SAR__VSSA_TO_VDAC) )
 664:.\Generated_Source\PSoC5/APPS_ADC_SAR.c ****         APPS_ADC_SAR_shift = 0;
  86              		.loc 1 664 0
  87 004c 044B     		ldr	r3, .L9+12
  88 004e 1980     		strh	r1, [r3]	@ movhi
  89 0050 08BD     		pop	{r3, pc}
  90              	.L10:
  91 0052 00BF     		.align	2
  92              	.L9:
  93 0054 00000000 		.word	APPS_ADC_SAR_countsPerVolt
  94 0058 AD8BDB68 		.word	1759218605
  95 005c 00000000 		.word	APPS_ADC_SAR_countsPer10Volt
  96 0060 00000000 		.word	APPS_ADC_SAR_shift
  97              		.cfi_endproc
  98              	.LFE12:
  99              		.size	APPS_ADC_SAR_CalcGain, .-APPS_ADC_SAR_CalcGain
 100              		.section	.text.APPS_ADC_SAR_Enable,"ax",%progbits
 101              		.align	2
 102              		.global	APPS_ADC_SAR_Enable
 103              		.thumb
 104              		.thumb_func
 105              		.type	APPS_ADC_SAR_Enable, %function
 106              	APPS_ADC_SAR_Enable:
 107              	.LFB2:
 144:.\Generated_Source\PSoC5/APPS_ADC_SAR.c ****     uint8 tmpReg;
 108              		.loc 1 144 0
 109              		.cfi_startproc
 110              		@ args = 0, pretend = 0, frame = 0
 111              		@ frame_needed = 0, uses_anonymous_args = 0
 112 0000 10B5     		push	{r4, lr}
 113              		.cfi_def_cfa_offset 8
 114              		.cfi_offset 4, -8
 115              		.cfi_offset 14, -4
 147:.\Generated_Source\PSoC5/APPS_ADC_SAR.c **** 
 116              		.loc 1 147 0
 117 0002 FFF7FEFF 		bl	CyEnterCriticalSection
 118              	.LVL8:
 119 0006 0446     		mov	r4, r0
 120              	.LVL9:
 150:.\Generated_Source\PSoC5/APPS_ADC_SAR.c **** 
 121              		.loc 1 150 0
 122 0008 184A     		ldr	r2, .L13
 123 000a 1378     		ldrb	r3, [r2]	@ zero_extendqisi2
 124 000c 43F00103 		orr	r3, r3, #1
 125 0010 1370     		strb	r3, [r2]
 153:.\Generated_Source\PSoC5/APPS_ADC_SAR.c **** 
 126              		.loc 1 153 0
 127 0012 1032     		adds	r2, r2, #16
ARM GAS  C:\Users\mitchell\AppData\Local\Temp\ccfdaiNe.s 			page 15


 128 0014 1378     		ldrb	r3, [r2]	@ zero_extendqisi2
 129 0016 43F00103 		orr	r3, r3, #1
 130 001a 1370     		strb	r3, [r2]
 162:.\Generated_Source\PSoC5/APPS_ADC_SAR.c ****     tmpReg |= APPS_ADC_SAR_SAR_EN_BUF_VCM_EN;
 131              		.loc 1 162 0
 132 001c 02F5AA52 		add	r2, r2, #5440
 133 0020 0832     		adds	r2, r2, #8
 134 0022 1378     		ldrb	r3, [r2]	@ zero_extendqisi2
 135              	.LVL10:
 169:.\Generated_Source\PSoC5/APPS_ADC_SAR.c ****     #endif /* APPS_ADC_SAR_DEFAULT_REFERENCE == APPS_ADC_SAR__EXT_REF */
 136              		.loc 1 169 0
 137 0024 43F00303 		orr	r3, r3, #3
 138              	.LVL11:
 171:.\Generated_Source\PSoC5/APPS_ADC_SAR.c **** 
 139              		.loc 1 171 0
 140 0028 1370     		strb	r3, [r2]
 182:.\Generated_Source\PSoC5/APPS_ADC_SAR.c ****         #else /* INTREF Bypassed of External */
 141              		.loc 1 182 0
 142 002a 1822     		movs	r2, #24
 143 002c 104B     		ldr	r3, .L13+4
 144              	.LVL12:
 145 002e 1A70     		strb	r2, [r3]
 146              	.LVL13:
 192:.\Generated_Source\PSoC5/APPS_ADC_SAR.c ****     #endif /* APPS_ADC_SAR_HIGH_POWER_PULSE == 0u */
 147              		.loc 1 192 0
 148 0030 013B     		subs	r3, r3, #1
 149 0032 1A78     		ldrb	r2, [r3]	@ zero_extendqisi2
 150 0034 42F04002 		orr	r2, r2, #64
 151 0038 1A70     		strb	r2, [r3]
 202:.\Generated_Source\PSoC5/APPS_ADC_SAR.c ****     #endif /* APPS_ADC_SAR_HIGH_POWER_PULSE == 0u */
 152              		.loc 1 202 0
 153 003a 1A78     		ldrb	r2, [r3]	@ zero_extendqisi2
 154 003c 02F0FC02 		and	r2, r2, #252
 155 0040 1A70     		strb	r2, [r3]
 206:.\Generated_Source\PSoC5/APPS_ADC_SAR.c ****     /* SAR_HIZ_CLEAR:   Should not be used for LP */
 156              		.loc 1 206 0
 157 0042 CE22     		movs	r2, #206
 158 0044 053B     		subs	r3, r3, #5
 159 0046 1A70     		strb	r2, [r3]
 218:.\Generated_Source\PSoC5/APPS_ADC_SAR.c **** 
 160              		.loc 1 218 0
 161 0048 0222     		movs	r2, #2
 162 004a A3F59753 		sub	r3, r3, #4832
 163 004e 0C3B     		subs	r3, r3, #12
 164 0050 1A70     		strb	r2, [r3]
 221:.\Generated_Source\PSoC5/APPS_ADC_SAR.c **** 
 165              		.loc 1 221 0
 166 0052 084A     		ldr	r2, .L13+8
 167 0054 1378     		ldrb	r3, [r2]	@ zero_extendqisi2
 168 0056 43F00803 		orr	r3, r3, #8
 169 005a 1370     		strb	r3, [r2]
 223:.\Generated_Source\PSoC5/APPS_ADC_SAR.c **** 
 170              		.loc 1 223 0
 171 005c 0A20     		movs	r0, #10
 172 005e FFF7FEFF 		bl	CyDelayUs
 173              	.LVL14:
 230:.\Generated_Source\PSoC5/APPS_ADC_SAR.c **** }
ARM GAS  C:\Users\mitchell\AppData\Local\Temp\ccfdaiNe.s 			page 16


 174              		.loc 1 230 0
 175 0062 2046     		mov	r0, r4
 176 0064 FFF7FEFF 		bl	CyExitCriticalSection
 177              	.LVL15:
 178 0068 10BD     		pop	{r4, pc}
 179              	.LVL16:
 180              	.L14:
 181 006a 00BF     		.align	2
 182              	.L13:
 183 006c AB430040 		.word	1073759147
 184 0070 06590040 		.word	1073764614
 185 0074 275B0040 		.word	1073765159
 186              		.cfi_endproc
 187              	.LFE2:
 188              		.size	APPS_ADC_SAR_Enable, .-APPS_ADC_SAR_Enable
 189              		.section	.text.APPS_ADC_SAR_Stop,"ax",%progbits
 190              		.align	2
 191              		.global	APPS_ADC_SAR_Stop
 192              		.thumb
 193              		.thumb_func
 194              		.type	APPS_ADC_SAR_Stop, %function
 195              	APPS_ADC_SAR_Stop:
 196              	.LFB3:
 249:.\Generated_Source\PSoC5/APPS_ADC_SAR.c ****     uint8 enableInterrupts;
 197              		.loc 1 249 0
 198              		.cfi_startproc
 199              		@ args = 0, pretend = 0, frame = 0
 200              		@ frame_needed = 0, uses_anonymous_args = 0
 201 0000 08B5     		push	{r3, lr}
 202              		.cfi_def_cfa_offset 8
 203              		.cfi_offset 3, -8
 204              		.cfi_offset 14, -4
 251:.\Generated_Source\PSoC5/APPS_ADC_SAR.c **** 
 205              		.loc 1 251 0
 206 0002 FFF7FEFF 		bl	CyEnterCriticalSection
 207              	.LVL17:
 254:.\Generated_Source\PSoC5/APPS_ADC_SAR.c ****     /* Disable the SAR ADC block in Active Power Mode */
 208              		.loc 1 254 0
 209 0006 0A4A     		ldr	r2, .L17
 210 0008 1378     		ldrb	r3, [r2]	@ zero_extendqisi2
 211 000a 03F0FE03 		and	r3, r3, #254
 212 000e 1370     		strb	r3, [r2]
 256:.\Generated_Source\PSoC5/APPS_ADC_SAR.c ****     /* Disable the SAR ADC in Standby Power Mode */
 213              		.loc 1 256 0
 214 0010 A2F5AA52 		sub	r2, r2, #5440
 215 0014 153A     		subs	r2, r2, #21
 216 0016 1378     		ldrb	r3, [r2]	@ zero_extendqisi2
 217 0018 03F0FE03 		and	r3, r3, #254
 218 001c 1370     		strb	r3, [r2]
 258:.\Generated_Source\PSoC5/APPS_ADC_SAR.c **** 
 219              		.loc 1 258 0
 220 001e 1032     		adds	r2, r2, #16
 221 0020 1378     		ldrb	r3, [r2]	@ zero_extendqisi2
 222 0022 03F0FE03 		and	r3, r3, #254
 223 0026 1370     		strb	r3, [r2]
 266:.\Generated_Source\PSoC5/APPS_ADC_SAR.c **** 
 224              		.loc 1 266 0
ARM GAS  C:\Users\mitchell\AppData\Local\Temp\ccfdaiNe.s 			page 17


 225 0028 FFF7FEFF 		bl	CyExitCriticalSection
 226              	.LVL18:
 227 002c 08BD     		pop	{r3, pc}
 228              	.L18:
 229 002e 00BF     		.align	2
 230              	.L17:
 231 0030 00590040 		.word	1073764608
 232              		.cfi_endproc
 233              	.LFE3:
 234              		.size	APPS_ADC_SAR_Stop, .-APPS_ADC_SAR_Stop
 235              		.section	.text.APPS_ADC_SAR_SetPower,"ax",%progbits
 236              		.align	2
 237              		.global	APPS_ADC_SAR_SetPower
 238              		.thumb
 239              		.thumb_func
 240              		.type	APPS_ADC_SAR_SetPower, %function
 241              	APPS_ADC_SAR_SetPower:
 242              	.LFB4:
 291:.\Generated_Source\PSoC5/APPS_ADC_SAR.c ****     uint8 tmpReg;
 243              		.loc 1 291 0
 244              		.cfi_startproc
 245              		@ args = 0, pretend = 0, frame = 0
 246              		@ frame_needed = 0, uses_anonymous_args = 0
 247              		@ link register save eliminated.
 248              	.LVL19:
 295:.\Generated_Source\PSoC5/APPS_ADC_SAR.c **** 
 249              		.loc 1 295 0
 250 0000 00F00300 		and	r0, r0, #3
 251              	.LVL20:
 298:.\Generated_Source\PSoC5/APPS_ADC_SAR.c ****     tmpReg |= (uint8)(power << APPS_ADC_SAR_SAR_POWER_SHIFT);
 252              		.loc 1 298 0
 253 0004 034A     		ldr	r2, .L20
 254 0006 1378     		ldrb	r3, [r2]	@ zero_extendqisi2
 255 0008 03F03F03 		and	r3, r3, #63
 256              	.LVL21:
 299:.\Generated_Source\PSoC5/APPS_ADC_SAR.c ****     APPS_ADC_SAR_SAR_CSR0_REG = tmpReg;
 257              		.loc 1 299 0
 258 000c 43EA8010 		orr	r0, r3, r0, lsl #6
 259              	.LVL22:
 300:.\Generated_Source\PSoC5/APPS_ADC_SAR.c **** }
 260              		.loc 1 300 0
 261 0010 1070     		strb	r0, [r2]
 262 0012 7047     		bx	lr
 263              	.L21:
 264              		.align	2
 265              	.L20:
 266 0014 00590040 		.word	1073764608
 267              		.cfi_endproc
 268              	.LFE4:
 269              		.size	APPS_ADC_SAR_SetPower, .-APPS_ADC_SAR_SetPower
 270              		.section	.text.APPS_ADC_SAR_SetResolution,"ax",%progbits
 271              		.align	2
 272              		.global	APPS_ADC_SAR_SetResolution
 273              		.thumb
 274              		.thumb_func
 275              		.type	APPS_ADC_SAR_SetResolution, %function
 276              	APPS_ADC_SAR_SetResolution:
ARM GAS  C:\Users\mitchell\AppData\Local\Temp\ccfdaiNe.s 			page 18


 277              	.LFB5:
 341:.\Generated_Source\PSoC5/APPS_ADC_SAR.c ****     uint8 tmpReg;
 278              		.loc 1 341 0
 279              		.cfi_startproc
 280              		@ args = 0, pretend = 0, frame = 0
 281              		@ frame_needed = 0, uses_anonymous_args = 0
 282              	.LVL23:
 283 0000 10B5     		push	{r4, lr}
 284              		.cfi_def_cfa_offset 8
 285              		.cfi_offset 4, -8
 286              		.cfi_offset 14, -4
 287 0002 0446     		mov	r4, r0
 345:.\Generated_Source\PSoC5/APPS_ADC_SAR.c ****     {
 288              		.loc 1 345 0
 289 0004 0A28     		cmp	r0, #10
 290 0006 0DD0     		beq	.L27
 291 0008 0C28     		cmp	r0, #12
 292 000a 02D0     		beq	.L25
 293 000c 0828     		cmp	r0, #8
 294 000e 04D1     		bne	.L28
 295 0010 01E0     		b	.L26
 296              	.L25:
 348:.\Generated_Source\PSoC5/APPS_ADC_SAR.c ****             break;
 297              		.loc 1 348 0
 298 0012 C222     		movs	r2, #194
 299 0014 07E0     		b	.L24
 300              	.L26:
 301              	.LVL24:
 354:.\Generated_Source\PSoC5/APPS_ADC_SAR.c ****             break;
 302              		.loc 1 354 0
 303 0016 4222     		movs	r2, #66
 355:.\Generated_Source\PSoC5/APPS_ADC_SAR.c ****         default:
 304              		.loc 1 355 0
 305 0018 05E0     		b	.L24
 306              	.LVL25:
 307              	.L28:
 359:.\Generated_Source\PSoC5/APPS_ADC_SAR.c ****             break;
 308              		.loc 1 359 0
 309 001a 0020     		movs	r0, #0
 310              	.LVL26:
 311 001c FFF7FEFF 		bl	CyHalt
 312              	.LVL27:
 357:.\Generated_Source\PSoC5/APPS_ADC_SAR.c ****             /* Halt CPU in debug mode if resolution is out of valid range */
 313              		.loc 1 357 0
 314 0020 C222     		movs	r2, #194
 315 0022 00E0     		b	.L24
 316              	.LVL28:
 317              	.L27:
 351:.\Generated_Source\PSoC5/APPS_ADC_SAR.c ****             break;
 318              		.loc 1 351 0
 319 0024 8222     		movs	r2, #130
 320              	.LVL29:
 321              	.L24:
 362:.\Generated_Source\PSoC5/APPS_ADC_SAR.c **** 
 322              		.loc 1 362 0
 323 0026 034B     		ldr	r3, .L30
 324 0028 1A70     		strb	r2, [r3]
ARM GAS  C:\Users\mitchell\AppData\Local\Temp\ccfdaiNe.s 			page 19


 365:.\Generated_Source\PSoC5/APPS_ADC_SAR.c **** }
 325              		.loc 1 365 0
 326 002a 2046     		mov	r0, r4
 327 002c FFF7FEFF 		bl	APPS_ADC_SAR_CalcGain
 328              	.LVL30:
 329 0030 10BD     		pop	{r4, pc}
 330              	.L31:
 331 0032 00BF     		.align	2
 332              	.L30:
 333 0034 02590040 		.word	1073764610
 334              		.cfi_endproc
 335              	.LFE5:
 336              		.size	APPS_ADC_SAR_SetResolution, .-APPS_ADC_SAR_SetResolution
 337              		.section	.text.APPS_ADC_SAR_Init,"ax",%progbits
 338              		.align	2
 339              		.global	APPS_ADC_SAR_Init
 340              		.thumb
 341              		.thumb_func
 342              		.type	APPS_ADC_SAR_Init, %function
 343              	APPS_ADC_SAR_Init:
 344              	.LFB1:
 107:.\Generated_Source\PSoC5/APPS_ADC_SAR.c **** 
 345              		.loc 1 107 0
 346              		.cfi_startproc
 347              		@ args = 0, pretend = 0, frame = 0
 348              		@ frame_needed = 0, uses_anonymous_args = 0
 349 0000 08B5     		push	{r3, lr}
 350              		.cfi_def_cfa_offset 8
 351              		.cfi_offset 3, -8
 352              		.cfi_offset 14, -4
 121:.\Generated_Source\PSoC5/APPS_ADC_SAR.c **** 
 353              		.loc 1 121 0
 354 0002 064A     		ldr	r2, .L34
 355 0004 1378     		ldrb	r3, [r2]	@ zero_extendqisi2
 356 0006 43F00603 		orr	r3, r3, #6
 357 000a 1370     		strb	r3, [r2]
 124:.\Generated_Source\PSoC5/APPS_ADC_SAR.c ****     APPS_ADC_SAR_offset = 0;
 358              		.loc 1 124 0
 359 000c 0C20     		movs	r0, #12
 360 000e FFF7FEFF 		bl	APPS_ADC_SAR_SetResolution
 361              	.LVL31:
 125:.\Generated_Source\PSoC5/APPS_ADC_SAR.c **** }
 362              		.loc 1 125 0
 363 0012 0022     		movs	r2, #0
 364 0014 024B     		ldr	r3, .L34+4
 365 0016 1A80     		strh	r2, [r3]	@ movhi
 366 0018 08BD     		pop	{r3, pc}
 367              	.L35:
 368 001a 00BF     		.align	2
 369              	.L34:
 370 001c 01590040 		.word	1073764609
 371 0020 00000000 		.word	APPS_ADC_SAR_offset
 372              		.cfi_endproc
 373              	.LFE1:
 374              		.size	APPS_ADC_SAR_Init, .-APPS_ADC_SAR_Init
 375              		.section	.text.APPS_ADC_SAR_Start,"ax",%progbits
 376              		.align	2
ARM GAS  C:\Users\mitchell\AppData\Local\Temp\ccfdaiNe.s 			page 20


 377              		.global	APPS_ADC_SAR_Start
 378              		.thumb
 379              		.thumb_func
 380              		.type	APPS_ADC_SAR_Start, %function
 381              	APPS_ADC_SAR_Start:
 382              	.LFB0:
  75:.\Generated_Source\PSoC5/APPS_ADC_SAR.c **** 
 383              		.loc 1 75 0
 384              		.cfi_startproc
 385              		@ args = 0, pretend = 0, frame = 0
 386              		@ frame_needed = 0, uses_anonymous_args = 0
 387 0000 08B5     		push	{r3, lr}
 388              		.cfi_def_cfa_offset 8
 389              		.cfi_offset 3, -8
 390              		.cfi_offset 14, -4
  78:.\Generated_Source\PSoC5/APPS_ADC_SAR.c ****     {
 391              		.loc 1 78 0
 392 0002 054B     		ldr	r3, .L39
 393 0004 1B78     		ldrb	r3, [r3]	@ zero_extendqisi2
 394 0006 23B9     		cbnz	r3, .L37
  80:.\Generated_Source\PSoC5/APPS_ADC_SAR.c ****         APPS_ADC_SAR_initVar = 1u;
 395              		.loc 1 80 0
 396 0008 FFF7FEFF 		bl	APPS_ADC_SAR_Init
 397              	.LVL32:
  81:.\Generated_Source\PSoC5/APPS_ADC_SAR.c ****     }
 398              		.loc 1 81 0
 399 000c 0122     		movs	r2, #1
 400 000e 024B     		ldr	r3, .L39
 401 0010 1A70     		strb	r2, [r3]
 402              	.L37:
  83:.\Generated_Source\PSoC5/APPS_ADC_SAR.c **** }
 403              		.loc 1 83 0
 404 0012 FFF7FEFF 		bl	APPS_ADC_SAR_Enable
 405              	.LVL33:
 406 0016 08BD     		pop	{r3, pc}
 407              	.L40:
 408              		.align	2
 409              	.L39:
 410 0018 00000000 		.word	.LANCHOR0
 411              		.cfi_endproc
 412              	.LFE0:
 413              		.size	APPS_ADC_SAR_Start, .-APPS_ADC_SAR_Start
 414              		.section	.text.APPS_ADC_SAR_StartConvert,"ax",%progbits
 415              		.align	2
 416              		.global	APPS_ADC_SAR_StartConvert
 417              		.thumb
 418              		.thumb_func
 419              		.type	APPS_ADC_SAR_StartConvert, %function
 420              	APPS_ADC_SAR_StartConvert:
 421              	.LFB6:
 402:.\Generated_Source\PSoC5/APPS_ADC_SAR.c ****         #if(APPS_ADC_SAR_DEFAULT_CONV_MODE != APPS_ADC_SAR__FREE_RUNNING)  /* If software triggered
 422              		.loc 1 402 0
 423              		.cfi_startproc
 424              		@ args = 0, pretend = 0, frame = 0
 425              		@ frame_needed = 0, uses_anonymous_args = 0
 426              		@ link register save eliminated.
 404:.\Generated_Source\PSoC5/APPS_ADC_SAR.c ****         #endif /* End APPS_ADC_SAR_DEFAULT_CONV_MODE */
ARM GAS  C:\Users\mitchell\AppData\Local\Temp\ccfdaiNe.s 			page 21


 427              		.loc 1 404 0
 428 0000 044B     		ldr	r3, .L42
 429 0002 1A78     		ldrb	r2, [r3]	@ zero_extendqisi2
 430 0004 02F0FB02 		and	r2, r2, #251
 431 0008 1A70     		strb	r2, [r3]
 408:.\Generated_Source\PSoC5/APPS_ADC_SAR.c ****     }
 432              		.loc 1 408 0
 433 000a 1A78     		ldrb	r2, [r3]	@ zero_extendqisi2
 434 000c 42F00102 		orr	r2, r2, #1
 435 0010 1A70     		strb	r2, [r3]
 436 0012 7047     		bx	lr
 437              	.L43:
 438              		.align	2
 439              	.L42:
 440 0014 00590040 		.word	1073764608
 441              		.cfi_endproc
 442              	.LFE6:
 443              		.size	APPS_ADC_SAR_StartConvert, .-APPS_ADC_SAR_StartConvert
 444              		.section	.text.APPS_ADC_SAR_StopConvert,"ax",%progbits
 445              		.align	2
 446              		.global	APPS_ADC_SAR_StopConvert
 447              		.thumb
 448              		.thumb_func
 449              		.type	APPS_ADC_SAR_StopConvert, %function
 450              	APPS_ADC_SAR_StopConvert:
 451              	.LFB7:
 436:.\Generated_Source\PSoC5/APPS_ADC_SAR.c ****         /* Stop all conversions */
 452              		.loc 1 436 0
 453              		.cfi_startproc
 454              		@ args = 0, pretend = 0, frame = 0
 455              		@ frame_needed = 0, uses_anonymous_args = 0
 456              		@ link register save eliminated.
 438:.\Generated_Source\PSoC5/APPS_ADC_SAR.c **** 
 457              		.loc 1 438 0
 458 0000 044B     		ldr	r3, .L45
 459 0002 1A78     		ldrb	r2, [r3]	@ zero_extendqisi2
 460 0004 02F0FE02 		and	r2, r2, #254
 461 0008 1A70     		strb	r2, [r3]
 442:.\Generated_Source\PSoC5/APPS_ADC_SAR.c ****         #endif /* End APPS_ADC_SAR_DEFAULT_CONV_MODE */
 462              		.loc 1 442 0
 463 000a 1A78     		ldrb	r2, [r3]	@ zero_extendqisi2
 464 000c 42F00402 		orr	r2, r2, #4
 465 0010 1A70     		strb	r2, [r3]
 466 0012 7047     		bx	lr
 467              	.L46:
 468              		.align	2
 469              	.L45:
 470 0014 00590040 		.word	1073764608
 471              		.cfi_endproc
 472              	.LFE7:
 473              		.size	APPS_ADC_SAR_StopConvert, .-APPS_ADC_SAR_StopConvert
 474              		.section	.text.APPS_ADC_SAR_IsEndConversion,"ax",%progbits
 475              		.align	2
 476              		.global	APPS_ADC_SAR_IsEndConversion
 477              		.thumb
 478              		.thumb_func
 479              		.type	APPS_ADC_SAR_IsEndConversion, %function
ARM GAS  C:\Users\mitchell\AppData\Local\Temp\ccfdaiNe.s 			page 22


 480              	APPS_ADC_SAR_IsEndConversion:
 481              	.LFB8:
 476:.\Generated_Source\PSoC5/APPS_ADC_SAR.c ****     uint8 status;
 482              		.loc 1 476 0
 483              		.cfi_startproc
 484              		@ args = 0, pretend = 0, frame = 0
 485              		@ frame_needed = 0, uses_anonymous_args = 0
 486              	.LVL34:
 487 0000 10B5     		push	{r4, lr}
 488              		.cfi_def_cfa_offset 8
 489              		.cfi_offset 4, -8
 490              		.cfi_offset 14, -4
 491              	.L49:
 481:.\Generated_Source\PSoC5/APPS_ADC_SAR.c ****     } while ((status != APPS_ADC_SAR_SAR_EOF_1) && (retMode == APPS_ADC_SAR_WAIT_FOR_RESULT));
 492              		.loc 1 481 0 discriminator 2
 493 0002 074B     		ldr	r3, .L52
 494 0004 1B78     		ldrb	r3, [r3]	@ zero_extendqisi2
 495              	.LVL35:
 482:.\Generated_Source\PSoC5/APPS_ADC_SAR.c ****     /* If convertion complete, wait until EOF bit released */
 496              		.loc 1 482 0 discriminator 2
 497 0006 13F00104 		ands	r4, r3, #1
 498 000a 01D1     		bne	.L48
 482:.\Generated_Source\PSoC5/APPS_ADC_SAR.c ****     /* If convertion complete, wait until EOF bit released */
 499              		.loc 1 482 0 is_stmt 0 discriminator 1
 500 000c 0028     		cmp	r0, #0
 501 000e F8D0     		beq	.L49
 502              	.L48:
 484:.\Generated_Source\PSoC5/APPS_ADC_SAR.c ****     {
 503              		.loc 1 484 0 is_stmt 1
 504 0010 24B1     		cbz	r4, .L50
 487:.\Generated_Source\PSoC5/APPS_ADC_SAR.c ****         /* Do the unconditional read operation of the CSR1 register to make sure the EOC bit has be
 505              		.loc 1 487 0
 506 0012 0120     		movs	r0, #1
 507              	.LVL36:
 508 0014 FFF7FEFF 		bl	CyDelayUs
 509              	.LVL37:
 489:.\Generated_Source\PSoC5/APPS_ADC_SAR.c ****     }
 510              		.loc 1 489 0
 511 0018 014B     		ldr	r3, .L52
 512 001a 1B78     		ldrb	r3, [r3]	@ zero_extendqisi2
 513              	.L50:
 493:.\Generated_Source\PSoC5/APPS_ADC_SAR.c **** 
 514              		.loc 1 493 0
 515 001c 2046     		mov	r0, r4
 516 001e 10BD     		pop	{r4, pc}
 517              	.L53:
 518              		.align	2
 519              	.L52:
 520 0020 01590040 		.word	1073764609
 521              		.cfi_endproc
 522              	.LFE8:
 523              		.size	APPS_ADC_SAR_IsEndConversion, .-APPS_ADC_SAR_IsEndConversion
 524              		.section	.text.APPS_ADC_SAR_GetResult8,"ax",%progbits
 525              		.align	2
 526              		.global	APPS_ADC_SAR_GetResult8
 527              		.thumb
 528              		.thumb_func
ARM GAS  C:\Users\mitchell\AppData\Local\Temp\ccfdaiNe.s 			page 23


 529              		.type	APPS_ADC_SAR_GetResult8, %function
 530              	APPS_ADC_SAR_GetResult8:
 531              	.LFB9:
 521:.\Generated_Source\PSoC5/APPS_ADC_SAR.c ****     return( (int8)APPS_ADC_SAR_SAR_WRK0_REG - (int8)APPS_ADC_SAR_shift);
 532              		.loc 1 521 0
 533              		.cfi_startproc
 534              		@ args = 0, pretend = 0, frame = 0
 535              		@ frame_needed = 0, uses_anonymous_args = 0
 536              		@ link register save eliminated.
 522:.\Generated_Source\PSoC5/APPS_ADC_SAR.c **** }
 537              		.loc 1 522 0
 538 0000 034B     		ldr	r3, .L55
 539 0002 1B78     		ldrb	r3, [r3]	@ zero_extendqisi2
 540 0004 034A     		ldr	r2, .L55+4
 541 0006 1088     		ldrh	r0, [r2]
 542 0008 181A     		subs	r0, r3, r0
 523:.\Generated_Source\PSoC5/APPS_ADC_SAR.c **** 
 543              		.loc 1 523 0
 544 000a 40B2     		sxtb	r0, r0
 545 000c 7047     		bx	lr
 546              	.L56:
 547 000e 00BF     		.align	2
 548              	.L55:
 549 0010 A05B0040 		.word	1073765280
 550 0014 00000000 		.word	APPS_ADC_SAR_shift
 551              		.cfi_endproc
 552              	.LFE9:
 553              		.size	APPS_ADC_SAR_GetResult8, .-APPS_ADC_SAR_GetResult8
 554              		.section	.text.APPS_ADC_SAR_GetResult16,"ax",%progbits
 555              		.align	2
 556              		.global	APPS_ADC_SAR_GetResult16
 557              		.thumb
 558              		.thumb_func
 559              		.type	APPS_ADC_SAR_GetResult16, %function
 560              	APPS_ADC_SAR_GetResult16:
 561              	.LFB10:
 551:.\Generated_Source\PSoC5/APPS_ADC_SAR.c ****     uint16 res;
 562              		.loc 1 551 0
 563              		.cfi_startproc
 564              		@ args = 0, pretend = 0, frame = 0
 565              		@ frame_needed = 0, uses_anonymous_args = 0
 566              		@ link register save eliminated.
 554:.\Generated_Source\PSoC5/APPS_ADC_SAR.c **** 
 567              		.loc 1 554 0
 568 0000 034B     		ldr	r3, .L58
 569 0002 1B88     		ldrh	r3, [r3]
 570              	.LVL38:
 556:.\Generated_Source\PSoC5/APPS_ADC_SAR.c **** }
 571              		.loc 1 556 0
 572 0004 034A     		ldr	r2, .L58+4
 573 0006 1088     		ldrh	r0, [r2]
 574 0008 181A     		subs	r0, r3, r0
 557:.\Generated_Source\PSoC5/APPS_ADC_SAR.c **** 
 575              		.loc 1 557 0
 576 000a 00B2     		sxth	r0, r0
 577 000c 7047     		bx	lr
 578              	.L59:
ARM GAS  C:\Users\mitchell\AppData\Local\Temp\ccfdaiNe.s 			page 24


 579 000e 00BF     		.align	2
 580              	.L58:
 581 0010 A05B0040 		.word	1073765280
 582 0014 00000000 		.word	APPS_ADC_SAR_shift
 583              		.cfi_endproc
 584              	.LFE10:
 585              		.size	APPS_ADC_SAR_GetResult16, .-APPS_ADC_SAR_GetResult16
 586              		.section	.text.APPS_ADC_SAR_SetOffset,"ax",%progbits
 587              		.align	2
 588              		.global	APPS_ADC_SAR_SetOffset
 589              		.thumb
 590              		.thumb_func
 591              		.type	APPS_ADC_SAR_SetOffset, %function
 592              	APPS_ADC_SAR_SetOffset:
 593              	.LFB11:
 586:.\Generated_Source\PSoC5/APPS_ADC_SAR.c ****     APPS_ADC_SAR_offset = offset;
 594              		.loc 1 586 0
 595              		.cfi_startproc
 596              		@ args = 0, pretend = 0, frame = 0
 597              		@ frame_needed = 0, uses_anonymous_args = 0
 598              		@ link register save eliminated.
 599              	.LVL39:
 587:.\Generated_Source\PSoC5/APPS_ADC_SAR.c **** }
 600              		.loc 1 587 0
 601 0000 014B     		ldr	r3, .L61
 602 0002 1880     		strh	r0, [r3]	@ movhi
 603 0004 7047     		bx	lr
 604              	.L62:
 605 0006 00BF     		.align	2
 606              	.L61:
 607 0008 00000000 		.word	APPS_ADC_SAR_offset
 608              		.cfi_endproc
 609              	.LFE11:
 610              		.size	APPS_ADC_SAR_SetOffset, .-APPS_ADC_SAR_SetOffset
 611              		.section	.text.APPS_ADC_SAR_SetGain,"ax",%progbits
 612              		.align	2
 613              		.global	APPS_ADC_SAR_SetGain
 614              		.thumb
 615              		.thumb_func
 616              		.type	APPS_ADC_SAR_SetGain, %function
 617              	APPS_ADC_SAR_SetGain:
 618              	.LFB13:
 665:.\Generated_Source\PSoC5/APPS_ADC_SAR.c ****     #else
 666:.\Generated_Source\PSoC5/APPS_ADC_SAR.c ****         APPS_ADC_SAR_shift = diff_zero;
 667:.\Generated_Source\PSoC5/APPS_ADC_SAR.c ****     #endif /* End APPS_ADC_SAR_DEFAULT_RANGE */
 668:.\Generated_Source\PSoC5/APPS_ADC_SAR.c **** }
 669:.\Generated_Source\PSoC5/APPS_ADC_SAR.c **** 
 670:.\Generated_Source\PSoC5/APPS_ADC_SAR.c **** 
 671:.\Generated_Source\PSoC5/APPS_ADC_SAR.c **** /*******************************************************************************
 672:.\Generated_Source\PSoC5/APPS_ADC_SAR.c **** * Function Name: APPS_ADC_SAR_SetGain
 673:.\Generated_Source\PSoC5/APPS_ADC_SAR.c **** ********************************************************************************
 674:.\Generated_Source\PSoC5/APPS_ADC_SAR.c **** *
 675:.\Generated_Source\PSoC5/APPS_ADC_SAR.c **** * Summary:
 676:.\Generated_Source\PSoC5/APPS_ADC_SAR.c **** *  Sets the ADC gain in counts per volt for the voltage conversion functions
 677:.\Generated_Source\PSoC5/APPS_ADC_SAR.c **** *  that follow. This value is set by default by the reference and input range
 678:.\Generated_Source\PSoC5/APPS_ADC_SAR.c **** *  settings. It should only be used to further calibrate the ADC with a known
 679:.\Generated_Source\PSoC5/APPS_ADC_SAR.c **** *  input or if the ADC is using an external reference.
ARM GAS  C:\Users\mitchell\AppData\Local\Temp\ccfdaiNe.s 			page 25


 680:.\Generated_Source\PSoC5/APPS_ADC_SAR.c **** *
 681:.\Generated_Source\PSoC5/APPS_ADC_SAR.c **** * Parameters:
 682:.\Generated_Source\PSoC5/APPS_ADC_SAR.c **** *  int16 adcGain counts per volt
 683:.\Generated_Source\PSoC5/APPS_ADC_SAR.c **** *
 684:.\Generated_Source\PSoC5/APPS_ADC_SAR.c **** * Return:
 685:.\Generated_Source\PSoC5/APPS_ADC_SAR.c **** *  None.
 686:.\Generated_Source\PSoC5/APPS_ADC_SAR.c **** *
 687:.\Generated_Source\PSoC5/APPS_ADC_SAR.c **** * Global Variables:
 688:.\Generated_Source\PSoC5/APPS_ADC_SAR.c **** *  APPS_ADC_SAR_countsPer10Volt variable modified. This variable is used
 689:.\Generated_Source\PSoC5/APPS_ADC_SAR.c **** *  for gain calibration purpose.
 690:.\Generated_Source\PSoC5/APPS_ADC_SAR.c **** *
 691:.\Generated_Source\PSoC5/APPS_ADC_SAR.c **** *******************************************************************************/
 692:.\Generated_Source\PSoC5/APPS_ADC_SAR.c **** void APPS_ADC_SAR_SetGain(int16 adcGain)
 693:.\Generated_Source\PSoC5/APPS_ADC_SAR.c **** {
 619              		.loc 1 693 0
 620              		.cfi_startproc
 621              		@ args = 0, pretend = 0, frame = 0
 622              		@ frame_needed = 0, uses_anonymous_args = 0
 623              		@ link register save eliminated.
 624              	.LVL40:
 694:.\Generated_Source\PSoC5/APPS_ADC_SAR.c ****     APPS_ADC_SAR_countsPer10Volt = (int32)adcGain * 10;
 625              		.loc 1 694 0
 626 0000 00EB8000 		add	r0, r0, r0, lsl #2
 627              	.LVL41:
 628 0004 4000     		lsls	r0, r0, #1
 629 0006 014B     		ldr	r3, .L64
 630 0008 1860     		str	r0, [r3]
 631 000a 7047     		bx	lr
 632              	.L65:
 633              		.align	2
 634              	.L64:
 635 000c 00000000 		.word	APPS_ADC_SAR_countsPer10Volt
 636              		.cfi_endproc
 637              	.LFE13:
 638              		.size	APPS_ADC_SAR_SetGain, .-APPS_ADC_SAR_SetGain
 639              		.section	.text.APPS_ADC_SAR_SetScaledGain,"ax",%progbits
 640              		.align	2
 641              		.global	APPS_ADC_SAR_SetScaledGain
 642              		.thumb
 643              		.thumb_func
 644              		.type	APPS_ADC_SAR_SetScaledGain, %function
 645              	APPS_ADC_SAR_SetScaledGain:
 646              	.LFB14:
 695:.\Generated_Source\PSoC5/APPS_ADC_SAR.c **** }
 696:.\Generated_Source\PSoC5/APPS_ADC_SAR.c **** 
 697:.\Generated_Source\PSoC5/APPS_ADC_SAR.c **** 
 698:.\Generated_Source\PSoC5/APPS_ADC_SAR.c **** /*******************************************************************************
 699:.\Generated_Source\PSoC5/APPS_ADC_SAR.c **** * Function Name: APPS_ADC_SAR_SetScaledGain
 700:.\Generated_Source\PSoC5/APPS_ADC_SAR.c **** ********************************************************************************
 701:.\Generated_Source\PSoC5/APPS_ADC_SAR.c **** *
 702:.\Generated_Source\PSoC5/APPS_ADC_SAR.c **** * Summary:
 703:.\Generated_Source\PSoC5/APPS_ADC_SAR.c **** *  Sets the ADC gain in counts per 10 volt for the voltage conversion functions
 704:.\Generated_Source\PSoC5/APPS_ADC_SAR.c **** *  that follow. This value is set by default by the reference and input range
 705:.\Generated_Source\PSoC5/APPS_ADC_SAR.c **** *  settings. It should only be used to further calibrate the ADC with a known
 706:.\Generated_Source\PSoC5/APPS_ADC_SAR.c **** *  input or if the ADC is using an external reference.
 707:.\Generated_Source\PSoC5/APPS_ADC_SAR.c **** *
 708:.\Generated_Source\PSoC5/APPS_ADC_SAR.c **** * Parameters:
ARM GAS  C:\Users\mitchell\AppData\Local\Temp\ccfdaiNe.s 			page 26


 709:.\Generated_Source\PSoC5/APPS_ADC_SAR.c **** *  int32 adcGain  counts per 10 volt
 710:.\Generated_Source\PSoC5/APPS_ADC_SAR.c **** *
 711:.\Generated_Source\PSoC5/APPS_ADC_SAR.c **** * Return:
 712:.\Generated_Source\PSoC5/APPS_ADC_SAR.c **** *  None.
 713:.\Generated_Source\PSoC5/APPS_ADC_SAR.c **** *
 714:.\Generated_Source\PSoC5/APPS_ADC_SAR.c **** * Global Variables:
 715:.\Generated_Source\PSoC5/APPS_ADC_SAR.c **** *  APPS_ADC_SAR_countsPer10Volt variable modified. This variable is used
 716:.\Generated_Source\PSoC5/APPS_ADC_SAR.c **** *  for gain calibration purpose.
 717:.\Generated_Source\PSoC5/APPS_ADC_SAR.c **** *
 718:.\Generated_Source\PSoC5/APPS_ADC_SAR.c **** *******************************************************************************/
 719:.\Generated_Source\PSoC5/APPS_ADC_SAR.c **** void APPS_ADC_SAR_SetScaledGain(int32 adcGain)
 720:.\Generated_Source\PSoC5/APPS_ADC_SAR.c **** {
 647              		.loc 1 720 0
 648              		.cfi_startproc
 649              		@ args = 0, pretend = 0, frame = 0
 650              		@ frame_needed = 0, uses_anonymous_args = 0
 651              		@ link register save eliminated.
 652              	.LVL42:
 721:.\Generated_Source\PSoC5/APPS_ADC_SAR.c ****     APPS_ADC_SAR_countsPer10Volt = adcGain;
 653              		.loc 1 721 0
 654 0000 014B     		ldr	r3, .L67
 655 0002 1860     		str	r0, [r3]
 656 0004 7047     		bx	lr
 657              	.L68:
 658 0006 00BF     		.align	2
 659              	.L67:
 660 0008 00000000 		.word	APPS_ADC_SAR_countsPer10Volt
 661              		.cfi_endproc
 662              	.LFE14:
 663              		.size	APPS_ADC_SAR_SetScaledGain, .-APPS_ADC_SAR_SetScaledGain
 664              		.section	.text.APPS_ADC_SAR_CountsTo_mVolts,"ax",%progbits
 665              		.align	2
 666              		.global	APPS_ADC_SAR_CountsTo_mVolts
 667              		.thumb
 668              		.thumb_func
 669              		.type	APPS_ADC_SAR_CountsTo_mVolts, %function
 670              	APPS_ADC_SAR_CountsTo_mVolts:
 671              	.LFB15:
 722:.\Generated_Source\PSoC5/APPS_ADC_SAR.c **** }
 723:.\Generated_Source\PSoC5/APPS_ADC_SAR.c **** 
 724:.\Generated_Source\PSoC5/APPS_ADC_SAR.c **** 
 725:.\Generated_Source\PSoC5/APPS_ADC_SAR.c **** /*******************************************************************************
 726:.\Generated_Source\PSoC5/APPS_ADC_SAR.c **** * Function Name: APPS_ADC_SAR_CountsTo_mVolts
 727:.\Generated_Source\PSoC5/APPS_ADC_SAR.c **** ********************************************************************************
 728:.\Generated_Source\PSoC5/APPS_ADC_SAR.c **** *
 729:.\Generated_Source\PSoC5/APPS_ADC_SAR.c **** * Summary:
 730:.\Generated_Source\PSoC5/APPS_ADC_SAR.c **** *  Converts the ADC output to millivolts as a 16-bit integer.
 731:.\Generated_Source\PSoC5/APPS_ADC_SAR.c **** *
 732:.\Generated_Source\PSoC5/APPS_ADC_SAR.c **** * Parameters:
 733:.\Generated_Source\PSoC5/APPS_ADC_SAR.c **** *  int16 adcCounts:  Result from the ADC conversion
 734:.\Generated_Source\PSoC5/APPS_ADC_SAR.c **** *
 735:.\Generated_Source\PSoC5/APPS_ADC_SAR.c **** * Return:
 736:.\Generated_Source\PSoC5/APPS_ADC_SAR.c **** *  int16 Result in mVolts
 737:.\Generated_Source\PSoC5/APPS_ADC_SAR.c **** *
 738:.\Generated_Source\PSoC5/APPS_ADC_SAR.c **** * Global Variables:
 739:.\Generated_Source\PSoC5/APPS_ADC_SAR.c **** *  APPS_ADC_SAR_offset variable used.
 740:.\Generated_Source\PSoC5/APPS_ADC_SAR.c **** *  APPS_ADC_SAR_countsPer10Volt variable used.
ARM GAS  C:\Users\mitchell\AppData\Local\Temp\ccfdaiNe.s 			page 27


 741:.\Generated_Source\PSoC5/APPS_ADC_SAR.c **** *
 742:.\Generated_Source\PSoC5/APPS_ADC_SAR.c **** *******************************************************************************/
 743:.\Generated_Source\PSoC5/APPS_ADC_SAR.c **** int16 APPS_ADC_SAR_CountsTo_mVolts(int16 adcCounts)
 744:.\Generated_Source\PSoC5/APPS_ADC_SAR.c **** {
 672              		.loc 1 744 0
 673              		.cfi_startproc
 674              		@ args = 0, pretend = 0, frame = 0
 675              		@ frame_needed = 0, uses_anonymous_args = 0
 676              		@ link register save eliminated.
 677              	.LVL43:
 745:.\Generated_Source\PSoC5/APPS_ADC_SAR.c ****     int16 mVolts;
 746:.\Generated_Source\PSoC5/APPS_ADC_SAR.c ****     int32 countsPer10Volt;
 747:.\Generated_Source\PSoC5/APPS_ADC_SAR.c **** 
 748:.\Generated_Source\PSoC5/APPS_ADC_SAR.c ****     if(APPS_ADC_SAR_countsPerVolt != 0)
 678              		.loc 1 748 0
 679 0000 114B     		ldr	r3, .L74
 680 0002 1B88     		ldrh	r3, [r3]
 681 0004 9BB2     		uxth	r3, r3
 682 0006 33B1     		cbz	r3, .L70
 749:.\Generated_Source\PSoC5/APPS_ADC_SAR.c ****     {   /* Support obsolete method */
 750:.\Generated_Source\PSoC5/APPS_ADC_SAR.c ****         countsPer10Volt = (int32)APPS_ADC_SAR_countsPerVolt * 10;
 683              		.loc 1 750 0
 684 0008 0F4B     		ldr	r3, .L74
 685 000a 1988     		ldrh	r1, [r3]
 686 000c 09B2     		sxth	r1, r1
 687 000e 01EB8101 		add	r1, r1, r1, lsl #2
 688 0012 4900     		lsls	r1, r1, #1
 689              	.LVL44:
 690 0014 01E0     		b	.L71
 691              	.LVL45:
 692              	.L70:
 751:.\Generated_Source\PSoC5/APPS_ADC_SAR.c ****     }
 752:.\Generated_Source\PSoC5/APPS_ADC_SAR.c ****     else
 753:.\Generated_Source\PSoC5/APPS_ADC_SAR.c ****     {
 754:.\Generated_Source\PSoC5/APPS_ADC_SAR.c ****         countsPer10Volt = APPS_ADC_SAR_countsPer10Volt;
 693              		.loc 1 754 0
 694 0016 0D4B     		ldr	r3, .L74+4
 695 0018 1968     		ldr	r1, [r3]
 696              	.LVL46:
 697              	.L71:
 755:.\Generated_Source\PSoC5/APPS_ADC_SAR.c ****     }
 756:.\Generated_Source\PSoC5/APPS_ADC_SAR.c **** 
 757:.\Generated_Source\PSoC5/APPS_ADC_SAR.c ****     /* Subtract ADC offset */
 758:.\Generated_Source\PSoC5/APPS_ADC_SAR.c ****     adcCounts -= APPS_ADC_SAR_offset;
 698              		.loc 1 758 0
 699 001a 0D4B     		ldr	r3, .L74+8
 700 001c 1A88     		ldrh	r2, [r3]
 701 001e 821A     		subs	r2, r0, r2
 702 0020 12B2     		sxth	r2, r2
 703              	.LVL47:
 759:.\Generated_Source\PSoC5/APPS_ADC_SAR.c ****     /* Convert to millivolts with rounding */
 760:.\Generated_Source\PSoC5/APPS_ADC_SAR.c ****     mVolts = (int16)( (( (int32)adcCounts * APPS_ADC_SAR_10MV_COUNTS ) + ( (adcCounts > 0) ?
 704              		.loc 1 760 0
 705 0022 42F21070 		movw	r0, #10000
 706 0026 00FB02F0 		mul	r0, r0, r2
 761:.\Generated_Source\PSoC5/APPS_ADC_SAR.c ****                        (countsPer10Volt / 2) : (-(countsPer10Volt / 2)) )) / countsPer10Volt);
 707              		.loc 1 761 0
ARM GAS  C:\Users\mitchell\AppData\Local\Temp\ccfdaiNe.s 			page 28


 708 002a 002A     		cmp	r2, #0
 709 002c 03DD     		ble	.L72
 710              		.loc 1 761 0 is_stmt 0 discriminator 1
 711 002e 01EBD173 		add	r3, r1, r1, lsr #31
 712 0032 5B10     		asrs	r3, r3, #1
 713 0034 03E0     		b	.L73
 714              	.L72:
 715              		.loc 1 761 0 discriminator 2
 716 0036 01EBD172 		add	r2, r1, r1, lsr #31
 717              	.LVL48:
 718 003a 5210     		asrs	r2, r2, #1
 719 003c 5342     		negs	r3, r2
 720              	.L73:
 760:.\Generated_Source\PSoC5/APPS_ADC_SAR.c ****                        (countsPer10Volt / 2) : (-(countsPer10Volt / 2)) )) / countsPer10Volt);
 721              		.loc 1 760 0 is_stmt 1
 722 003e 0344     		add	r3, r3, r0
 723              		.loc 1 761 0
 724 0040 93FBF1F0 		sdiv	r0, r3, r1
 725              	.LVL49:
 762:.\Generated_Source\PSoC5/APPS_ADC_SAR.c **** 
 763:.\Generated_Source\PSoC5/APPS_ADC_SAR.c ****     return( mVolts );
 764:.\Generated_Source\PSoC5/APPS_ADC_SAR.c **** }
 726              		.loc 1 764 0
 727 0044 00B2     		sxth	r0, r0
 728 0046 7047     		bx	lr
 729              	.L75:
 730              		.align	2
 731              	.L74:
 732 0048 00000000 		.word	APPS_ADC_SAR_countsPerVolt
 733 004c 00000000 		.word	APPS_ADC_SAR_countsPer10Volt
 734 0050 00000000 		.word	APPS_ADC_SAR_offset
 735              		.cfi_endproc
 736              	.LFE15:
 737              		.size	APPS_ADC_SAR_CountsTo_mVolts, .-APPS_ADC_SAR_CountsTo_mVolts
 738              		.global	__aeabi_ldivmod
 739              		.section	.text.APPS_ADC_SAR_CountsTo_uVolts,"ax",%progbits
 740              		.align	2
 741              		.global	APPS_ADC_SAR_CountsTo_uVolts
 742              		.thumb
 743              		.thumb_func
 744              		.type	APPS_ADC_SAR_CountsTo_uVolts, %function
 745              	APPS_ADC_SAR_CountsTo_uVolts:
 746              	.LFB16:
 765:.\Generated_Source\PSoC5/APPS_ADC_SAR.c **** 
 766:.\Generated_Source\PSoC5/APPS_ADC_SAR.c **** 
 767:.\Generated_Source\PSoC5/APPS_ADC_SAR.c **** /*******************************************************************************
 768:.\Generated_Source\PSoC5/APPS_ADC_SAR.c **** * Function Name: APPS_ADC_SAR_CountsTo_uVolts
 769:.\Generated_Source\PSoC5/APPS_ADC_SAR.c **** ********************************************************************************
 770:.\Generated_Source\PSoC5/APPS_ADC_SAR.c **** *
 771:.\Generated_Source\PSoC5/APPS_ADC_SAR.c **** * Summary:
 772:.\Generated_Source\PSoC5/APPS_ADC_SAR.c **** *  Converts the ADC output to microvolts as a 32-bit integer.
 773:.\Generated_Source\PSoC5/APPS_ADC_SAR.c **** *
 774:.\Generated_Source\PSoC5/APPS_ADC_SAR.c **** * Parameters:
 775:.\Generated_Source\PSoC5/APPS_ADC_SAR.c **** *  int16 adcCounts: Result from the ADC conversion
 776:.\Generated_Source\PSoC5/APPS_ADC_SAR.c **** *
 777:.\Generated_Source\PSoC5/APPS_ADC_SAR.c **** * Return:
 778:.\Generated_Source\PSoC5/APPS_ADC_SAR.c **** *  int32 Result in micro Volts
ARM GAS  C:\Users\mitchell\AppData\Local\Temp\ccfdaiNe.s 			page 29


 779:.\Generated_Source\PSoC5/APPS_ADC_SAR.c **** *
 780:.\Generated_Source\PSoC5/APPS_ADC_SAR.c **** * Global Variables:
 781:.\Generated_Source\PSoC5/APPS_ADC_SAR.c **** *  APPS_ADC_SAR_offset variable used.
 782:.\Generated_Source\PSoC5/APPS_ADC_SAR.c **** *  APPS_ADC_SAR_countsPer10Volt used to convert ADC counts to uVolts.
 783:.\Generated_Source\PSoC5/APPS_ADC_SAR.c **** *
 784:.\Generated_Source\PSoC5/APPS_ADC_SAR.c **** *******************************************************************************/
 785:.\Generated_Source\PSoC5/APPS_ADC_SAR.c **** int32 APPS_ADC_SAR_CountsTo_uVolts(int16 adcCounts)
 786:.\Generated_Source\PSoC5/APPS_ADC_SAR.c **** {
 747              		.loc 1 786 0
 748              		.cfi_startproc
 749              		@ args = 0, pretend = 0, frame = 0
 750              		@ frame_needed = 0, uses_anonymous_args = 0
 751              	.LVL50:
 752 0000 38B5     		push	{r3, r4, r5, lr}
 753              		.cfi_def_cfa_offset 16
 754              		.cfi_offset 3, -16
 755              		.cfi_offset 4, -12
 756              		.cfi_offset 5, -8
 757              		.cfi_offset 14, -4
 787:.\Generated_Source\PSoC5/APPS_ADC_SAR.c **** 
 788:.\Generated_Source\PSoC5/APPS_ADC_SAR.c ****     int64 uVolts;
 789:.\Generated_Source\PSoC5/APPS_ADC_SAR.c ****     int32 countsPer10Volt;
 790:.\Generated_Source\PSoC5/APPS_ADC_SAR.c **** 
 791:.\Generated_Source\PSoC5/APPS_ADC_SAR.c ****     if(APPS_ADC_SAR_countsPerVolt != 0)
 758              		.loc 1 791 0
 759 0002 0D4B     		ldr	r3, .L80
 760 0004 1B88     		ldrh	r3, [r3]
 761 0006 9BB2     		uxth	r3, r3
 762 0008 33B1     		cbz	r3, .L77
 792:.\Generated_Source\PSoC5/APPS_ADC_SAR.c ****     {   /* Support obsolete method */
 793:.\Generated_Source\PSoC5/APPS_ADC_SAR.c ****         countsPer10Volt = (int32)APPS_ADC_SAR_countsPerVolt * 10;
 763              		.loc 1 793 0
 764 000a 0B4B     		ldr	r3, .L80
 765 000c 1A88     		ldrh	r2, [r3]
 766 000e 12B2     		sxth	r2, r2
 767 0010 02EB8202 		add	r2, r2, r2, lsl #2
 768 0014 5200     		lsls	r2, r2, #1
 769              	.LVL51:
 770 0016 01E0     		b	.L78
 771              	.LVL52:
 772              	.L77:
 794:.\Generated_Source\PSoC5/APPS_ADC_SAR.c ****     }
 795:.\Generated_Source\PSoC5/APPS_ADC_SAR.c ****     else
 796:.\Generated_Source\PSoC5/APPS_ADC_SAR.c ****     {
 797:.\Generated_Source\PSoC5/APPS_ADC_SAR.c ****         countsPer10Volt = APPS_ADC_SAR_countsPer10Volt;
 773              		.loc 1 797 0
 774 0018 084B     		ldr	r3, .L80+4
 775 001a 1A68     		ldr	r2, [r3]
 776              	.LVL53:
 777              	.L78:
 798:.\Generated_Source\PSoC5/APPS_ADC_SAR.c ****     }
 799:.\Generated_Source\PSoC5/APPS_ADC_SAR.c **** 
 800:.\Generated_Source\PSoC5/APPS_ADC_SAR.c ****     /* Subtract ADC offset */
 801:.\Generated_Source\PSoC5/APPS_ADC_SAR.c ****     adcCounts -= APPS_ADC_SAR_offset;
 778              		.loc 1 801 0
 779 001c 084B     		ldr	r3, .L80+8
 780 001e 1C88     		ldrh	r4, [r3]
ARM GAS  C:\Users\mitchell\AppData\Local\Temp\ccfdaiNe.s 			page 30


 781              	.LVL54:
 802:.\Generated_Source\PSoC5/APPS_ADC_SAR.c ****     /* To convert adcCounts to microVolts it is required to be multiplied
 803:.\Generated_Source\PSoC5/APPS_ADC_SAR.c ****     *  on 10 million and later divide on gain in counts per 10V.
 804:.\Generated_Source\PSoC5/APPS_ADC_SAR.c ****     */
 805:.\Generated_Source\PSoC5/APPS_ADC_SAR.c ****     uVolts = (( (int64)adcCounts * APPS_ADC_SAR_10UV_COUNTS ) / countsPer10Volt);
 782              		.loc 1 805 0
 783 0020 041B     		subs	r4, r0, r4
 784              	.LVL55:
 785 0022 24B2     		sxth	r4, r4
 786 0024 E517     		asrs	r5, r4, #31
 787 0026 074B     		ldr	r3, .L80+12
 788 0028 A4FB0301 		umull	r0, r1, r4, r3
 789 002c 03FB0511 		mla	r1, r3, r5, r1
 790 0030 D317     		asrs	r3, r2, #31
 791 0032 FFF7FEFF 		bl	__aeabi_ldivmod
 792              	.LVL56:
 806:.\Generated_Source\PSoC5/APPS_ADC_SAR.c **** 
 807:.\Generated_Source\PSoC5/APPS_ADC_SAR.c ****     return( uVolts );
 808:.\Generated_Source\PSoC5/APPS_ADC_SAR.c **** }
 793              		.loc 1 808 0
 794 0036 38BD     		pop	{r3, r4, r5, pc}
 795              	.L81:
 796              		.align	2
 797              	.L80:
 798 0038 00000000 		.word	APPS_ADC_SAR_countsPerVolt
 799 003c 00000000 		.word	APPS_ADC_SAR_countsPer10Volt
 800 0040 00000000 		.word	APPS_ADC_SAR_offset
 801 0044 80969800 		.word	10000000
 802              		.cfi_endproc
 803              	.LFE16:
 804              		.size	APPS_ADC_SAR_CountsTo_uVolts, .-APPS_ADC_SAR_CountsTo_uVolts
 805              		.global	__aeabi_i2f
 806              		.global	__aeabi_fmul
 807              		.global	__aeabi_fdiv
 808              		.section	.text.APPS_ADC_SAR_CountsTo_Volts,"ax",%progbits
 809              		.align	2
 810              		.global	APPS_ADC_SAR_CountsTo_Volts
 811              		.thumb
 812              		.thumb_func
 813              		.type	APPS_ADC_SAR_CountsTo_Volts, %function
 814              	APPS_ADC_SAR_CountsTo_Volts:
 815              	.LFB17:
 809:.\Generated_Source\PSoC5/APPS_ADC_SAR.c **** 
 810:.\Generated_Source\PSoC5/APPS_ADC_SAR.c **** 
 811:.\Generated_Source\PSoC5/APPS_ADC_SAR.c **** /*******************************************************************************
 812:.\Generated_Source\PSoC5/APPS_ADC_SAR.c **** * Function Name: APPS_ADC_SAR_CountsTo_Volts
 813:.\Generated_Source\PSoC5/APPS_ADC_SAR.c **** ********************************************************************************
 814:.\Generated_Source\PSoC5/APPS_ADC_SAR.c **** *
 815:.\Generated_Source\PSoC5/APPS_ADC_SAR.c **** * Summary:
 816:.\Generated_Source\PSoC5/APPS_ADC_SAR.c **** *  Converts the ADC output to volts as a floating-point number.
 817:.\Generated_Source\PSoC5/APPS_ADC_SAR.c **** *
 818:.\Generated_Source\PSoC5/APPS_ADC_SAR.c **** * Parameters:
 819:.\Generated_Source\PSoC5/APPS_ADC_SAR.c **** *  int16 adcCounts: Result from the ADC conversion
 820:.\Generated_Source\PSoC5/APPS_ADC_SAR.c **** *
 821:.\Generated_Source\PSoC5/APPS_ADC_SAR.c **** * Return:
 822:.\Generated_Source\PSoC5/APPS_ADC_SAR.c **** *  float Result in Volts
 823:.\Generated_Source\PSoC5/APPS_ADC_SAR.c **** *
ARM GAS  C:\Users\mitchell\AppData\Local\Temp\ccfdaiNe.s 			page 31


 824:.\Generated_Source\PSoC5/APPS_ADC_SAR.c **** * Global Variables:
 825:.\Generated_Source\PSoC5/APPS_ADC_SAR.c **** *  APPS_ADC_SAR_offset variable used.
 826:.\Generated_Source\PSoC5/APPS_ADC_SAR.c **** *  APPS_ADC_SAR_countsPer10Volt used to convert ADC counts to Volts.
 827:.\Generated_Source\PSoC5/APPS_ADC_SAR.c **** *
 828:.\Generated_Source\PSoC5/APPS_ADC_SAR.c **** *******************************************************************************/
 829:.\Generated_Source\PSoC5/APPS_ADC_SAR.c **** float32 APPS_ADC_SAR_CountsTo_Volts(int16 adcCounts)
 830:.\Generated_Source\PSoC5/APPS_ADC_SAR.c **** {
 816              		.loc 1 830 0
 817              		.cfi_startproc
 818              		@ args = 0, pretend = 0, frame = 0
 819              		@ frame_needed = 0, uses_anonymous_args = 0
 820              	.LVL57:
 821 0000 38B5     		push	{r3, r4, r5, lr}
 822              		.cfi_def_cfa_offset 16
 823              		.cfi_offset 3, -16
 824              		.cfi_offset 4, -12
 825              		.cfi_offset 5, -8
 826              		.cfi_offset 14, -4
 831:.\Generated_Source\PSoC5/APPS_ADC_SAR.c ****     float32 volts;
 832:.\Generated_Source\PSoC5/APPS_ADC_SAR.c ****     int32 countsPer10Volt;
 833:.\Generated_Source\PSoC5/APPS_ADC_SAR.c **** 
 834:.\Generated_Source\PSoC5/APPS_ADC_SAR.c ****     if(APPS_ADC_SAR_countsPerVolt != 0)
 827              		.loc 1 834 0
 828 0002 0F4B     		ldr	r3, .L86
 829 0004 1B88     		ldrh	r3, [r3]
 830 0006 9BB2     		uxth	r3, r3
 831 0008 33B1     		cbz	r3, .L83
 835:.\Generated_Source\PSoC5/APPS_ADC_SAR.c ****     {   /* Support obsolete method */
 836:.\Generated_Source\PSoC5/APPS_ADC_SAR.c ****         countsPer10Volt = (int32)APPS_ADC_SAR_countsPerVolt * 10;
 832              		.loc 1 836 0
 833 000a 0D4B     		ldr	r3, .L86
 834 000c 1C88     		ldrh	r4, [r3]
 835 000e 24B2     		sxth	r4, r4
 836 0010 04EB8404 		add	r4, r4, r4, lsl #2
 837 0014 6400     		lsls	r4, r4, #1
 838              	.LVL58:
 839 0016 01E0     		b	.L84
 840              	.LVL59:
 841              	.L83:
 837:.\Generated_Source\PSoC5/APPS_ADC_SAR.c ****     }
 838:.\Generated_Source\PSoC5/APPS_ADC_SAR.c ****     else
 839:.\Generated_Source\PSoC5/APPS_ADC_SAR.c ****     {
 840:.\Generated_Source\PSoC5/APPS_ADC_SAR.c ****         countsPer10Volt = APPS_ADC_SAR_countsPer10Volt;
 842              		.loc 1 840 0
 843 0018 0A4B     		ldr	r3, .L86+4
 844 001a 1C68     		ldr	r4, [r3]
 845              	.LVL60:
 846              	.L84:
 841:.\Generated_Source\PSoC5/APPS_ADC_SAR.c ****     }
 842:.\Generated_Source\PSoC5/APPS_ADC_SAR.c **** 
 843:.\Generated_Source\PSoC5/APPS_ADC_SAR.c ****     /* Subtract ADC offset */
 844:.\Generated_Source\PSoC5/APPS_ADC_SAR.c ****     adcCounts -= APPS_ADC_SAR_offset;
 847              		.loc 1 844 0
 848 001c 0A4B     		ldr	r3, .L86+8
 849 001e 1B88     		ldrh	r3, [r3]
 850 0020 C01A     		subs	r0, r0, r3
 851              	.LVL61:
ARM GAS  C:\Users\mitchell\AppData\Local\Temp\ccfdaiNe.s 			page 32


 845:.\Generated_Source\PSoC5/APPS_ADC_SAR.c **** 
 846:.\Generated_Source\PSoC5/APPS_ADC_SAR.c ****     volts = ((float32)adcCounts * APPS_ADC_SAR_10V_COUNTS) / (float32)countsPer10Volt;
 852              		.loc 1 846 0
 853 0022 00B2     		sxth	r0, r0
 854 0024 FFF7FEFF 		bl	__aeabi_i2f
 855              	.LVL62:
 856 0028 0849     		ldr	r1, .L86+12
 857 002a FFF7FEFF 		bl	__aeabi_fmul
 858              	.LVL63:
 859 002e 0546     		mov	r5, r0
 860 0030 2046     		mov	r0, r4
 861 0032 FFF7FEFF 		bl	__aeabi_i2f
 862              	.LVL64:
 863 0036 0146     		mov	r1, r0
 864 0038 2846     		mov	r0, r5
 865 003a FFF7FEFF 		bl	__aeabi_fdiv
 866              	.LVL65:
 847:.\Generated_Source\PSoC5/APPS_ADC_SAR.c **** 
 848:.\Generated_Source\PSoC5/APPS_ADC_SAR.c ****     return( volts );
 849:.\Generated_Source\PSoC5/APPS_ADC_SAR.c **** }
 867              		.loc 1 849 0
 868 003e 38BD     		pop	{r3, r4, r5, pc}
 869              	.LVL66:
 870              	.L87:
 871              		.align	2
 872              	.L86:
 873 0040 00000000 		.word	APPS_ADC_SAR_countsPerVolt
 874 0044 00000000 		.word	APPS_ADC_SAR_countsPer10Volt
 875 0048 00000000 		.word	APPS_ADC_SAR_offset
 876 004c 00002041 		.word	1092616192
 877              		.cfi_endproc
 878              	.LFE17:
 879              		.size	APPS_ADC_SAR_CountsTo_Volts, .-APPS_ADC_SAR_CountsTo_Volts
 880              		.comm	APPS_ADC_SAR_shift,2,2
 881              		.comm	APPS_ADC_SAR_countsPer10Volt,4,4
 882              		.comm	APPS_ADC_SAR_countsPerVolt,2,2
 883              		.comm	APPS_ADC_SAR_offset,2,2
 884              		.global	APPS_ADC_SAR_initVar
 885              		.bss
 886              		.set	.LANCHOR0,. + 0
 887              		.type	APPS_ADC_SAR_initVar, %object
 888              		.size	APPS_ADC_SAR_initVar, 1
 889              	APPS_ADC_SAR_initVar:
 890 0000 00       		.space	1
 891              		.text
 892              	.Letext0:
 893              		.file 2 ".\\Generated_Source\\PSoC5\\cytypes.h"
 894              		.file 3 ".\\Generated_Source\\PSoC5\\CyLib.h"