ARM GAS  C:\Users\mitchell\AppData\Local\Temp\ccvHXzzY.s 			page 1


   1              		.syntax unified
   2              		.cpu cortex-m3
   3              		.fpu softvfp
   4              		.eabi_attribute 20, 1
   5              		.eabi_attribute 21, 1
   6              		.eabi_attribute 23, 3
   7              		.eabi_attribute 24, 1
   8              		.eabi_attribute 25, 1
   9              		.eabi_attribute 26, 1
  10              		.eabi_attribute 30, 1
  11              		.eabi_attribute 34, 1
  12              		.eabi_attribute 18, 4
  13              		.thumb
  14              		.file	"communication.c"
  15              		.text
  16              	.Ltext0:
  17              		.cfi_sections	.debug_frame
  18              		.section	.text.output_int,"ax",%progbits
  19              		.align	2
  20              		.global	output_int
  21              		.thumb
  22              		.thumb_func
  23              		.type	output_int, %function
  24              	output_int:
  25              	.LFB64:
  26              		.file 1 ".\\communication.c"
   1:.\communication.c **** /* ========================================
   2:.\communication.c ****  *
   3:.\communication.c ****  * Copyright YOUR COMPANY, THE YEAR
   4:.\communication.c ****  * All Rights Reserved
   5:.\communication.c ****  * UNPUBLISHED, LICENSED SOFTWARE.
   6:.\communication.c ****  *
   7:.\communication.c ****  * CONFIDENTIAL AND PROPRIETARY INFORMATION
   8:.\communication.c ****  * WHICH IS THE PROPERTY OF your company.
   9:.\communication.c ****  *
  10:.\communication.c ****  * ========================================
  11:.\communication.c **** */
  12:.\communication.c **** 
  13:.\communication.c **** #include "communication.h"
  14:.\communication.c **** 
  15:.\communication.c **** /*
  16:.\communication.c **** parameters: sens - The sensor, defined in "global_constants.h"
  17:.\communication.c ****             percent - The percentage the potentiometer is open
  18:.\communication.c **** effect:     Sends percent over UART labeled as coming from sensor
  19:.\communication.c ****             sens
  20:.\communication.c **** */
  21:.\communication.c **** void send_pot_data(sensor sens, float percent) {
  22:.\communication.c ****     output_pad();
  23:.\communication.c ****     switch (sens) {
  24:.\communication.c ****         case TPS0:
  25:.\communication.c ****             UART_PutString("TPS0");
  26:.\communication.c ****             break;
  27:.\communication.c ****         case TPS1:
  28:.\communication.c ****             UART_PutString("TPS1");
  29:.\communication.c ****             break;
  30:.\communication.c ****         case APPS0:
  31:.\communication.c ****             UART_PutString("APS0");
ARM GAS  C:\Users\mitchell\AppData\Local\Temp\ccvHXzzY.s 			page 2


  32:.\communication.c ****             break;
  33:.\communication.c ****         case APPS1:
  34:.\communication.c ****             UART_PutString("APS1");
  35:.\communication.c ****             break;
  36:.\communication.c ****         case BRAKE:
  37:.\communication.c ****             UART_PutString("BRAK");
  38:.\communication.c ****             break;
  39:.\communication.c ****         default:
  40:.\communication.c ****             UART_PutString("ERRR");
  41:.\communication.c ****     }
  42:.\communication.c ****     // output pad at beginning and end of output_int
  43:.\communication.c ****     output_int((int)percent * 100);
  44:.\communication.c **** }
  45:.\communication.c **** 
  46:.\communication.c **** /*
  47:.\communication.c **** parameters: target_num - The number to be sent over UART
  48:.\communication.c **** effect:     Sends num over UART as 4 separate bytes
  49:.\communication.c **** */
  50:.\communication.c **** void output_int(int target_num) {
  27              		.loc 1 50 0
  28              		.cfi_startproc
  29              		@ args = 0, pretend = 0, frame = 0
  30              		@ frame_needed = 0, uses_anonymous_args = 0
  31              	.LVL0:
  32 0000 10B5     		push	{r4, lr}
  33              		.cfi_def_cfa_offset 8
  34              		.cfi_offset 4, -8
  35              		.cfi_offset 14, -4
  36 0002 0446     		mov	r4, r0
  51:.\communication.c ****     // Create union to access each byte of number separately
  52:.\communication.c ****     union {
  53:.\communication.c ****         char str[4];
  54:.\communication.c ****         int num;
  55:.\communication.c ****     } byte_overlap;
  56:.\communication.c ****     
  57:.\communication.c ****     byte_overlap.num = target_num;
  58:.\communication.c ****     
  59:.\communication.c ****     UART_PutChar(byte_overlap.str[0]);
  37              		.loc 1 59 0
  38 0004 C0B2     		uxtb	r0, r0
  39              	.LVL1:
  40 0006 FFF7FEFF 		bl	UART_PutChar
  41              	.LVL2:
  60:.\communication.c ****     UART_PutChar(byte_overlap.str[1]);
  42              		.loc 1 60 0
  43 000a C4F30720 		ubfx	r0, r4, #8, #8
  44 000e FFF7FEFF 		bl	UART_PutChar
  45              	.LVL3:
  61:.\communication.c ****     UART_PutChar(byte_overlap.str[2]);
  46              		.loc 1 61 0
  47 0012 C4F30740 		ubfx	r0, r4, #16, #8
  48 0016 FFF7FEFF 		bl	UART_PutChar
  49              	.LVL4:
  62:.\communication.c ****     UART_PutChar(byte_overlap.str[3]);
  50              		.loc 1 62 0
  51 001a 200E     		lsrs	r0, r4, #24
  52 001c FFF7FEFF 		bl	UART_PutChar
ARM GAS  C:\Users\mitchell\AppData\Local\Temp\ccvHXzzY.s 			page 3


  53              	.LVL5:
  54 0020 10BD     		pop	{r4, pc}
  55              		.cfi_endproc
  56              	.LFE64:
  57              		.size	output_int, .-output_int
  58 0022 00BF     		.section	.text.output_pad,"ax",%progbits
  59              		.align	2
  60              		.global	output_pad
  61              		.thumb
  62              		.thumb_func
  63              		.type	output_pad, %function
  64              	output_pad:
  65              	.LFB65:
  63:.\communication.c **** }
  64:.\communication.c **** 
  65:.\communication.c **** /*
  66:.\communication.c **** effect:     Sends 4 bytes of all 1s over uart (0xFFFFFFFF)
  67:.\communication.c **** */
  68:.\communication.c **** void output_pad() {
  66              		.loc 1 68 0
  67              		.cfi_startproc
  68              		@ args = 0, pretend = 0, frame = 0
  69              		@ frame_needed = 0, uses_anonymous_args = 0
  70 0000 10B5     		push	{r4, lr}
  71              		.cfi_def_cfa_offset 8
  72              		.cfi_offset 4, -8
  73              		.cfi_offset 14, -4
  74              	.LVL6:
  69:.\communication.c ****     int i; 
  70:.\communication.c ****     for (i = 0; i < 4; i++) {
  75              		.loc 1 70 0
  76 0002 0024     		movs	r4, #0
  77 0004 03E0     		b	.L4
  78              	.LVL7:
  79              	.L5:
  71:.\communication.c ****         UART_PutChar(0xFF);
  80              		.loc 1 71 0 discriminator 3
  81 0006 FF20     		movs	r0, #255
  82 0008 FFF7FEFF 		bl	UART_PutChar
  83              	.LVL8:
  70:.\communication.c ****         UART_PutChar(0xFF);
  84              		.loc 1 70 0 discriminator 3
  85 000c 0134     		adds	r4, r4, #1
  86              	.LVL9:
  87              	.L4:
  70:.\communication.c ****         UART_PutChar(0xFF);
  88              		.loc 1 70 0 is_stmt 0 discriminator 1
  89 000e 032C     		cmp	r4, #3
  90 0010 F9DD     		ble	.L5
  72:.\communication.c ****     }
  73:.\communication.c **** }
  91              		.loc 1 73 0 is_stmt 1
  92 0012 10BD     		pop	{r4, pc}
  93              		.cfi_endproc
  94              	.LFE65:
  95              		.size	output_pad, .-output_pad
  96              		.global	__aeabi_f2iz
ARM GAS  C:\Users\mitchell\AppData\Local\Temp\ccvHXzzY.s 			page 4


  97              		.section	.text.send_pot_data,"ax",%progbits
  98              		.align	2
  99              		.global	send_pot_data
 100              		.thumb
 101              		.thumb_func
 102              		.type	send_pot_data, %function
 103              	send_pot_data:
 104              	.LFB63:
  21:.\communication.c ****     output_pad();
 105              		.loc 1 21 0
 106              		.cfi_startproc
 107              		@ args = 0, pretend = 0, frame = 0
 108              		@ frame_needed = 0, uses_anonymous_args = 0
 109              	.LVL10:
 110 0000 38B5     		push	{r3, r4, r5, lr}
 111              		.cfi_def_cfa_offset 16
 112              		.cfi_offset 3, -16
 113              		.cfi_offset 4, -12
 114              		.cfi_offset 5, -8
 115              		.cfi_offset 14, -4
 116 0002 0446     		mov	r4, r0
 117 0004 0D46     		mov	r5, r1
  22:.\communication.c ****     switch (sens) {
 118              		.loc 1 22 0
 119 0006 FFF7FEFF 		bl	output_pad
 120              	.LVL11:
  23:.\communication.c ****         case TPS0:
 121              		.loc 1 23 0
 122 000a A01E     		subs	r0, r4, #2
 123 000c 0428     		cmp	r0, #4
 124 000e 18D8     		bhi	.L8
 125 0010 DFE800F0 		tbb	[pc, r0]
 126              	.L10:
 127 0014 13       		.byte	(.L9-.L10)/2
 128 0015 03       		.byte	(.L11-.L10)/2
 129 0016 07       		.byte	(.L12-.L10)/2
 130 0017 0B       		.byte	(.L13-.L10)/2
 131 0018 0F       		.byte	(.L14-.L10)/2
 132 0019 00       		.p2align 1
 133              	.L11:
  25:.\communication.c ****             break;
 134              		.loc 1 25 0
 135 001a 1048     		ldr	r0, .L17
 136 001c FFF7FEFF 		bl	UART_PutString
 137              	.LVL12:
  26:.\communication.c ****         case TPS1:
 138              		.loc 1 26 0
 139 0020 12E0     		b	.L15
 140              	.L12:
  28:.\communication.c ****             break;
 141              		.loc 1 28 0
 142 0022 0F48     		ldr	r0, .L17+4
 143 0024 FFF7FEFF 		bl	UART_PutString
 144              	.LVL13:
  29:.\communication.c ****         case APPS0:
 145              		.loc 1 29 0
 146 0028 0EE0     		b	.L15
ARM GAS  C:\Users\mitchell\AppData\Local\Temp\ccvHXzzY.s 			page 5


 147              	.L13:
  31:.\communication.c ****             break;
 148              		.loc 1 31 0
 149 002a 0E48     		ldr	r0, .L17+8
 150 002c FFF7FEFF 		bl	UART_PutString
 151              	.LVL14:
  32:.\communication.c ****         case APPS1:
 152              		.loc 1 32 0
 153 0030 0AE0     		b	.L15
 154              	.L14:
  34:.\communication.c ****             break;
 155              		.loc 1 34 0
 156 0032 0D48     		ldr	r0, .L17+12
 157 0034 FFF7FEFF 		bl	UART_PutString
 158              	.LVL15:
  35:.\communication.c ****         case BRAKE:
 159              		.loc 1 35 0
 160 0038 06E0     		b	.L15
 161              	.L9:
  37:.\communication.c ****             break;
 162              		.loc 1 37 0
 163 003a 0C48     		ldr	r0, .L17+16
 164 003c FFF7FEFF 		bl	UART_PutString
 165              	.LVL16:
  38:.\communication.c ****         default:
 166              		.loc 1 38 0
 167 0040 02E0     		b	.L15
 168              	.L8:
  40:.\communication.c ****     }
 169              		.loc 1 40 0
 170 0042 0B48     		ldr	r0, .L17+20
 171 0044 FFF7FEFF 		bl	UART_PutString
 172              	.LVL17:
 173              	.L15:
  43:.\communication.c **** }
 174              		.loc 1 43 0
 175 0048 2846     		mov	r0, r5
 176 004a FFF7FEFF 		bl	__aeabi_f2iz
 177              	.LVL18:
 178 004e 6423     		movs	r3, #100
 179 0050 03FB00F0 		mul	r0, r3, r0
 180 0054 FFF7FEFF 		bl	output_int
 181              	.LVL19:
 182 0058 38BD     		pop	{r3, r4, r5, pc}
 183              	.LVL20:
 184              	.L18:
 185 005a 00BF     		.align	2
 186              	.L17:
 187 005c 00000000 		.word	.LC0
 188 0060 08000000 		.word	.LC1
 189 0064 10000000 		.word	.LC2
 190 0068 18000000 		.word	.LC3
 191 006c 20000000 		.word	.LC4
 192 0070 28000000 		.word	.LC5
 193              		.cfi_endproc
 194              	.LFE63:
 195              		.size	send_pot_data, .-send_pot_data
ARM GAS  C:\Users\mitchell\AppData\Local\Temp\ccvHXzzY.s 			page 6


 196              		.section	.rodata.str1.4,"aMS",%progbits,1
 197              		.align	2
 198              	.LC0:
 199 0000 54505330 		.ascii	"TPS0\000"
 199      00
 200 0005 000000   		.space	3
 201              	.LC1:
 202 0008 54505331 		.ascii	"TPS1\000"
 202      00
 203 000d 000000   		.space	3
 204              	.LC2:
 205 0010 41505330 		.ascii	"APS0\000"
 205      00
 206 0015 000000   		.space	3
 207              	.LC3:
 208 0018 41505331 		.ascii	"APS1\000"
 208      00
 209 001d 000000   		.space	3
 210              	.LC4:
 211 0020 4252414B 		.ascii	"BRAK\000"
 211      00
 212 0025 000000   		.space	3
 213              	.LC5:
 214 0028 45525252 		.ascii	"ERRR\000"
 214      00
 215 002d 000000   		.text
 216              	.Letext0:
 217              		.file 2 ".\\global_constants.h"
 218              		.file 3 "c:\\program files (x86)\\cypress\\psoc creator\\3.3\\psoc creator\\import\\gnu\\arm\\4.9.
 219              		.file 4 "c:\\program files (x86)\\cypress\\psoc creator\\3.3\\psoc creator\\import\\gnu\\arm\\4.9.
 220              		.file 5 "Generated_Source\\PSoC5/cytypes.h"
 221              		.file 6 "Generated_Source\\PSoC5/UART.h"
 222              		.file 7 "Generated_Source\\PSoC5/core_cm3.h"