ARM GAS  C:\Users\mitchell\AppData\Local\Temp\ccXHGxPU.s 			page 1


   1              		.syntax unified
   2              		.cpu cortex-m3
   3              		.fpu softvfp
   4              		.eabi_attribute 20, 1
   5              		.eabi_attribute 21, 1
   6              		.eabi_attribute 23, 3
   7              		.eabi_attribute 24, 1
   8              		.eabi_attribute 25, 1
   9              		.eabi_attribute 26, 1
  10              		.eabi_attribute 30, 1
  11              		.eabi_attribute 34, 1
  12              		.eabi_attribute 18, 4
  13              		.thumb
  14              		.file	"main.c"
  15              		.text
  16              	.Ltext0:
  17              		.cfi_sections	.debug_frame
  18              		.global	__aeabi_fadd
  19              		.global	__aeabi_fcmpgt
  20              		.section	.text.commTest,"ax",%progbits
  21              		.align	2
  22              		.global	commTest
  23              		.thumb
  24              		.thumb_func
  25              		.type	commTest, %function
  26              	commTest:
  27              	.LFB63:
  28              		.file 1 ".\\main.c"
   1:.\main.c      **** /* ========================================
   2:.\main.c      ****     The main thread to run the E-Throttle code.
   3:.\main.c      **** 
   4:.\main.c      ****     Author: Mitchell Mellone (mellom3@rpi.edu)
   5:.\main.c      ****     Date Created: 12/30/15
   6:.\main.c      ****     Most Recent Modification: 12/30/15
   7:.\main.c      **** 
   8:.\main.c      ****     Copyright (c) 2015 Rensselaer Motorsport
   9:.\main.c      ****     Distributed under the MIT License.
  10:.\main.c      ****     See "LICENSE" for more information.
  11:.\main.c      ****  * ========================================
  12:.\main.c      **** */
  13:.\main.c      **** 
  14:.\main.c      **** #include <project.h>
  15:.\main.c      **** #include "signal_processing.h"
  16:.\main.c      **** #include "communication.h"
  17:.\main.c      **** 
  18:.\main.c      **** void commTest() {
  29              		.loc 1 18 0
  30              		.cfi_startproc
  31              		@ args = 0, pretend = 0, frame = 40
  32              		@ frame_needed = 0, uses_anonymous_args = 0
  33 0000 30B5     		push	{r4, r5, lr}
  34              		.cfi_def_cfa_offset 12
  35              		.cfi_offset 4, -12
  36              		.cfi_offset 5, -8
  37              		.cfi_offset 14, -4
  38 0002 8BB0     		sub	sp, sp, #44
  39              		.cfi_def_cfa_offset 56
ARM GAS  C:\Users\mitchell\AppData\Local\Temp\ccXHGxPU.s 			page 2


  19:.\main.c      ****     float tps0, tps1, apps0, apps1, brake; //simulated percents open
  20:.\main.c      ****     float* sensors[5];
  21:.\main.c      ****     sensors[0] = &tps0;
  40              		.loc 1 21 0
  41 0004 09AB     		add	r3, sp, #36
  42 0006 0093     		str	r3, [sp]
  22:.\main.c      ****     sensors[1] = &tps1;
  43              		.loc 1 22 0
  44 0008 08AB     		add	r3, sp, #32
  45 000a 0193     		str	r3, [sp, #4]
  23:.\main.c      ****     sensors[2] = &apps0;
  46              		.loc 1 23 0
  47 000c 07AB     		add	r3, sp, #28
  48 000e 0293     		str	r3, [sp, #8]
  24:.\main.c      ****     sensors[3] = &apps1;
  49              		.loc 1 24 0
  50 0010 06AB     		add	r3, sp, #24
  51 0012 0393     		str	r3, [sp, #12]
  25:.\main.c      ****     sensors[4] = &brake;
  52              		.loc 1 25 0
  53 0014 05AB     		add	r3, sp, #20
  54 0016 0493     		str	r3, [sp, #16]
  55              	.LVL0:
  26:.\main.c      ****     int i;
  27:.\main.c      ****     for (i = 0; i < 5; ++i) {
  56              		.loc 1 27 0
  57 0018 0023     		movs	r3, #0
  58 001a 07E0     		b	.L2
  59              	.LVL1:
  60              	.L3:
  28:.\main.c      ****         *sensors[i] = 0;
  61              		.loc 1 28 0 discriminator 3
  62 001c 0AAA     		add	r2, sp, #40
  63 001e 02EB8302 		add	r2, r2, r3, lsl #2
  64 0022 52F8282C 		ldr	r2, [r2, #-40]
  65 0026 0021     		movs	r1, #0
  66 0028 1160     		str	r1, [r2]	@ float
  27:.\main.c      ****         *sensors[i] = 0;
  67              		.loc 1 27 0 discriminator 3
  68 002a 0133     		adds	r3, r3, #1
  69              	.LVL2:
  70              	.L2:
  27:.\main.c      ****         *sensors[i] = 0;
  71              		.loc 1 27 0 is_stmt 0 discriminator 1
  72 002c 042B     		cmp	r3, #4
  73 002e F5DD     		ble	.L3
  74              	.LVL3:
  75              	.L8:
  76              	.LBB2:
  29:.\main.c      ****     }
  30:.\main.c      ****     
  31:.\main.c      ****     for (;;) {
  32:.\main.c      ****         int i;
  33:.\main.c      ****         for (i = 0; i < 5; i++) {
  77              		.loc 1 33 0 is_stmt 1
  78 0030 0024     		movs	r4, #0
  79 0032 11E0     		b	.L4
ARM GAS  C:\Users\mitchell\AppData\Local\Temp\ccXHGxPU.s 			page 3


  80              	.LVL4:
  81              	.L7:
  34:.\main.c      ****             *sensors[i] += 0.5;
  82              		.loc 1 34 0
  83 0034 0AAB     		add	r3, sp, #40
  84 0036 03EB8403 		add	r3, r3, r4, lsl #2
  85 003a 53F8285C 		ldr	r5, [r3, #-40]
  86 003e 2868     		ldr	r0, [r5]	@ float
  87 0040 4FF07C51 		mov	r1, #1056964608
  88 0044 FFF7FEFF 		bl	__aeabi_fadd
  89              	.LVL5:
  90 0048 2860     		str	r0, [r5]	@ float
  35:.\main.c      ****             if (*sensors[i] > 100.0) {
  91              		.loc 1 35 0
  92 004a 1049     		ldr	r1, .L11
  93 004c FFF7FEFF 		bl	__aeabi_fcmpgt
  94              	.LVL6:
  95 0050 08B1     		cbz	r0, .L5
  36:.\main.c      ****                 *sensors[i] = 0.0;
  96              		.loc 1 36 0
  97 0052 0023     		movs	r3, #0
  98 0054 2B60     		str	r3, [r5]	@ float
  99              	.L5:
  33:.\main.c      ****             *sensors[i] += 0.5;
 100              		.loc 1 33 0 discriminator 2
 101 0056 0134     		adds	r4, r4, #1
 102              	.LVL7:
 103              	.L4:
  33:.\main.c      ****             *sensors[i] += 0.5;
 104              		.loc 1 33 0 is_stmt 0 discriminator 1
 105 0058 042C     		cmp	r4, #4
 106 005a EBDD     		ble	.L7
  37:.\main.c      ****             }
  38:.\main.c      ****         }
  39:.\main.c      ****         send_pot_data(TPS0, tps0);
 107              		.loc 1 39 0 is_stmt 1
 108 005c 0320     		movs	r0, #3
 109 005e 0999     		ldr	r1, [sp, #36]	@ float
 110 0060 FFF7FEFF 		bl	send_pot_data
 111              	.LVL8:
  40:.\main.c      ****         send_pot_data(TPS1, tps1);
 112              		.loc 1 40 0
 113 0064 0420     		movs	r0, #4
 114 0066 0899     		ldr	r1, [sp, #32]	@ float
 115 0068 FFF7FEFF 		bl	send_pot_data
 116              	.LVL9:
  41:.\main.c      ****         send_pot_data(APPS0, apps0);
 117              		.loc 1 41 0
 118 006c 0520     		movs	r0, #5
 119 006e 0799     		ldr	r1, [sp, #28]	@ float
 120 0070 FFF7FEFF 		bl	send_pot_data
 121              	.LVL10:
  42:.\main.c      ****         send_pot_data(APPS1, apps1);
 122              		.loc 1 42 0
 123 0074 0620     		movs	r0, #6
 124 0076 0699     		ldr	r1, [sp, #24]	@ float
 125 0078 FFF7FEFF 		bl	send_pot_data
ARM GAS  C:\Users\mitchell\AppData\Local\Temp\ccXHGxPU.s 			page 4


 126              	.LVL11:
  43:.\main.c      ****         send_pot_data(BRAKE, brake);
 127              		.loc 1 43 0
 128 007c 0220     		movs	r0, #2
 129 007e 0599     		ldr	r1, [sp, #20]	@ float
 130 0080 FFF7FEFF 		bl	send_pot_data
 131              	.LVL12:
  44:.\main.c      ****         CyDelay(50);
 132              		.loc 1 44 0
 133 0084 3220     		movs	r0, #50
 134 0086 FFF7FEFF 		bl	CyDelay
 135              	.LVL13:
 136              	.LBE2:
  45:.\main.c      ****     }
 137              		.loc 1 45 0
 138 008a D1E7     		b	.L8
 139              	.L12:
 140              		.align	2
 141              	.L11:
 142 008c 0000C842 		.word	1120403456
 143              		.cfi_endproc
 144              	.LFE63:
 145              		.size	commTest, .-commTest
 146              		.section	.text.main,"ax",%progbits
 147              		.align	2
 148              		.global	main
 149              		.thumb
 150              		.thumb_func
 151              		.type	main, %function
 152              	main:
 153              	.LFB64:
  46:.\main.c      **** }
  47:.\main.c      **** 
  48:.\main.c      **** int main()
  49:.\main.c      **** {
 154              		.loc 1 49 0
 155              		.cfi_startproc
 156              		@ Volatile: function does not return.
 157              		@ args = 0, pretend = 0, frame = 0
 158              		@ frame_needed = 0, uses_anonymous_args = 0
 159 0000 08B5     		push	{r3, lr}
 160              		.cfi_def_cfa_offset 8
 161              		.cfi_offset 3, -8
 162              		.cfi_offset 14, -4
  50:.\main.c      ****     UART_Start();
 163              		.loc 1 50 0
 164 0002 FFF7FEFF 		bl	UART_Start
 165              	.LVL14:
  51:.\main.c      ****     commTest();
 166              		.loc 1 51 0
 167 0006 FFF7FEFF 		bl	commTest
 168              	.LVL15:
 169              		.cfi_endproc
 170              	.LFE64:
 171              		.size	main, .-main
 172 000a 00BF     		.text
 173              	.Letext0:
ARM GAS  C:\Users\mitchell\AppData\Local\Temp\ccXHGxPU.s 			page 5


 174              		.file 2 "c:\\program files (x86)\\cypress\\psoc creator\\3.3\\psoc creator\\import\\gnu\\arm\\4.9.
 175              		.file 3 "c:\\program files (x86)\\cypress\\psoc creator\\3.3\\psoc creator\\import\\gnu\\arm\\4.9.
 176              		.file 4 "Generated_Source\\PSoC5/cytypes.h"
 177              		.file 5 ".\\global_constants.h"
 178              		.file 6 ".\\communication.h"
 179              		.file 7 "Generated_Source\\PSoC5/CyLib.h"
 180              		.file 8 "Generated_Source\\PSoC5/core_cm3.h"
 181              		.file 9 "Generated_Source\\PSoC5/UART.h"