ARM GAS  C:\Users\mitchell\AppData\Local\Temp\ccalraad.s 			page 1


   1              		.syntax unified
   2              		.cpu cortex-m3
   3              		.fpu softvfp
   4              		.eabi_attribute 20, 1
   5              		.eabi_attribute 21, 1
   6              		.eabi_attribute 23, 3
   7              		.eabi_attribute 24, 1
   8              		.eabi_attribute 25, 1
   9              		.eabi_attribute 26, 1
  10              		.eabi_attribute 30, 1
  11              		.eabi_attribute 34, 1
  12              		.eabi_attribute 18, 4
  13              		.thumb
  14              		.file	"queue.c"
  15              		.text
  16              	.Ltext0:
  17              		.cfi_sections	.debug_frame
  18              		.section	.text.createQueue,"ax",%progbits
  19              		.align	2
  20              		.global	createQueue
  21              		.thumb
  22              		.thumb_func
  23              		.type	createQueue, %function
  24              	createQueue:
  25              	.LFB63:
  26              		.file 1 ".\\queue.c"
   1:.\queue.c     **** /* ========================================
   2:.\queue.c     ****     A simple Queue implemented with a linked
   3:.\queue.c     ****     list.
   4:.\queue.c     **** 
   5:.\queue.c     ****     Author: Mitchell Mellone (mellom3@rpi.edu)
   6:.\queue.c     ****     Date Created: 12/30/15
   7:.\queue.c     ****     Most Recent Modification: 12/30/15
   8:.\queue.c     **** 
   9:.\queue.c     ****     Copyright (c) 2015 Rensselaer Motorsport
  10:.\queue.c     ****     Distributed under the MIT License.
  11:.\queue.c     ****     See "LICENSE" for more information.
  12:.\queue.c     ****  * ========================================
  13:.\queue.c     **** */
  14:.\queue.c     **** 
  15:.\queue.c     **** #include "queue.h"
  16:.\queue.c     **** 
  17:.\queue.c     **** 
  18:.\queue.c     **** /* Note that nodes are inserted at the back/tail and
  19:.\queue.c     ****    removed at the front/head */
  20:.\queue.c     **** 
  21:.\queue.c     **** /*
  22:.\queue.c     **** parameter:  size - The initial size of the queue
  23:.\queue.c     **** effect:     Creates an empty linked list based
  24:.\queue.c     ****             queue
  25:.\queue.c     **** */
  26:.\queue.c     **** Queue * createQueue() {
  27              		.loc 1 26 0
  28              		.cfi_startproc
  29              		@ args = 0, pretend = 0, frame = 0
  30              		@ frame_needed = 0, uses_anonymous_args = 0
  31 0000 08B5     		push	{r3, lr}
ARM GAS  C:\Users\mitchell\AppData\Local\Temp\ccalraad.s 			page 2


  32              		.cfi_def_cfa_offset 8
  33              		.cfi_offset 3, -8
  34              		.cfi_offset 14, -4
  27:.\queue.c     ****     // Initialize Queue
  28:.\queue.c     ****     Queue * q = (Queue*)malloc(sizeof(Queue));
  35              		.loc 1 28 0
  36 0002 0820     		movs	r0, #8
  37 0004 FFF7FEFF 		bl	malloc
  38              	.LVL0:
  29:.\queue.c     ****     q->head = q->tail = NULL;
  39              		.loc 1 29 0
  40 0008 0022     		movs	r2, #0
  41 000a 4260     		str	r2, [r0, #4]
  42 000c 0260     		str	r2, [r0]
  30:.\queue.c     ****     return q;
  31:.\queue.c     **** }
  43              		.loc 1 31 0
  44 000e 08BD     		pop	{r3, pc}
  45              		.cfi_endproc
  46              	.LFE63:
  47              		.size	createQueue, .-createQueue
  48              		.section	.text.enqueue,"ax",%progbits
  49              		.align	2
  50              		.global	enqueue
  51              		.thumb
  52              		.thumb_func
  53              		.type	enqueue, %function
  54              	enqueue:
  55              	.LFB64:
  32:.\queue.c     **** 
  33:.\queue.c     **** /*
  34:.\queue.c     **** parameter:  val - The value to add to the queue
  35:.\queue.c     **** effect:     Creates and adds a tail to the back of Queue q
  36:.\queue.c     **** modifies:   back & (front if (back == NULL))
  37:.\queue.c     **** */
  38:.\queue.c     **** void enqueue(Queue * q, unsigned char brake_stat, float TPS_APPS_err, int time) {
  56              		.loc 1 38 0
  57              		.cfi_startproc
  58              		@ args = 0, pretend = 0, frame = 0
  59              		@ frame_needed = 0, uses_anonymous_args = 0
  60              	.LVL1:
  61 0000 F8B5     		push	{r3, r4, r5, r6, r7, lr}
  62              		.cfi_def_cfa_offset 24
  63              		.cfi_offset 3, -24
  64              		.cfi_offset 4, -20
  65              		.cfi_offset 5, -16
  66              		.cfi_offset 6, -12
  67              		.cfi_offset 7, -8
  68              		.cfi_offset 14, -4
  69 0002 0446     		mov	r4, r0
  70 0004 0F46     		mov	r7, r1
  71 0006 1646     		mov	r6, r2
  72 0008 1D46     		mov	r5, r3
  39:.\queue.c     ****     if (q->tail == NULL) {
  73              		.loc 1 39 0
  74 000a 4368     		ldr	r3, [r0, #4]
  75              	.LVL2:
ARM GAS  C:\Users\mitchell\AppData\Local\Temp\ccalraad.s 			page 3


  76 000c 53B9     		cbnz	r3, .L4
  40:.\queue.c     ****         /* Queue is empty */
  41:.\queue.c     ****         q->tail = (Node *)malloc(sizeof(Node));
  77              		.loc 1 41 0
  78 000e 1020     		movs	r0, #16
  79              	.LVL3:
  80 0010 FFF7FEFF 		bl	malloc
  81              	.LVL4:
  82 0014 6060     		str	r0, [r4, #4]
  42:.\queue.c     ****         q->tail->next = NULL;
  83              		.loc 1 42 0
  84 0016 0023     		movs	r3, #0
  85 0018 C360     		str	r3, [r0, #12]
  43:.\queue.c     ****         q->tail->brake_error = brake_stat;
  86              		.loc 1 43 0
  87 001a 0770     		strb	r7, [r0]
  44:.\queue.c     ****         q->tail->TPS_APPS_error = TPS_APPS_err;
  88              		.loc 1 44 0
  89 001c 4660     		str	r6, [r0, #4]	@ float
  45:.\queue.c     ****         q->tail->time_count = time;
  90              		.loc 1 45 0
  91 001e 8560     		str	r5, [r0, #8]
  46:.\queue.c     ****         q->head = q->tail;
  92              		.loc 1 46 0
  93 0020 2060     		str	r0, [r4]
  94 0022 F8BD     		pop	{r3, r4, r5, r6, r7, pc}
  95              	.LVL5:
  96              	.L4:
  97              	.LBB2:
  47:.\queue.c     ****     } else {
  48:.\queue.c     ****         /* Queue is not empty */
  49:.\queue.c     ****         Node *temp = (Node *)malloc(sizeof(Node));
  98              		.loc 1 49 0
  99 0024 1020     		movs	r0, #16
 100              	.LVL6:
 101 0026 FFF7FEFF 		bl	malloc
 102              	.LVL7:
  50:.\queue.c     ****         temp->next = NULL;
 103              		.loc 1 50 0
 104 002a 0023     		movs	r3, #0
 105 002c C360     		str	r3, [r0, #12]
  51:.\queue.c     ****         temp->brake_error = brake_stat;
 106              		.loc 1 51 0
 107 002e 0770     		strb	r7, [r0]
  52:.\queue.c     ****         temp->TPS_APPS_error = TPS_APPS_err;
 108              		.loc 1 52 0
 109 0030 4660     		str	r6, [r0, #4]	@ float
  53:.\queue.c     ****         temp->time_count = time;
 110              		.loc 1 53 0
 111 0032 8560     		str	r5, [r0, #8]
  54:.\queue.c     ****         q->tail->next = temp;
 112              		.loc 1 54 0
 113 0034 6368     		ldr	r3, [r4, #4]
 114 0036 D860     		str	r0, [r3, #12]
  55:.\queue.c     ****         q->tail = temp;
 115              		.loc 1 55 0
 116 0038 6060     		str	r0, [r4, #4]
ARM GAS  C:\Users\mitchell\AppData\Local\Temp\ccalraad.s 			page 4


 117 003a F8BD     		pop	{r3, r4, r5, r6, r7, pc}
 118              	.LBE2:
 119              		.cfi_endproc
 120              	.LFE64:
 121              		.size	enqueue, .-enqueue
 122              		.section	.text.dequeue,"ax",%progbits
 123              		.align	2
 124              		.global	dequeue
 125              		.thumb
 126              		.thumb_func
 127              		.type	dequeue, %function
 128              	dequeue:
 129              	.LFB65:
  56:.\queue.c     ****     }
  57:.\queue.c     **** }
  58:.\queue.c     **** 
  59:.\queue.c     **** /*
  60:.\queue.c     **** effect: Removes the head element in the queue
  61:.\queue.c     **** return: The least recent node (head)
  62:.\queue.c     **** */
  63:.\queue.c     **** Node * dequeue(Queue * q) {
 130              		.loc 1 63 0
 131              		.cfi_startproc
 132              		@ args = 0, pretend = 0, frame = 0
 133              		@ frame_needed = 0, uses_anonymous_args = 0
 134              	.LVL8:
 135 0000 38B5     		push	{r3, r4, r5, lr}
 136              		.cfi_def_cfa_offset 16
 137              		.cfi_offset 3, -16
 138              		.cfi_offset 4, -12
 139              		.cfi_offset 5, -8
 140              		.cfi_offset 14, -4
  64:.\queue.c     ****     Node * toReturn;
  65:.\queue.c     ****     if (q->head == NULL) {
 141              		.loc 1 65 0
 142 0002 0568     		ldr	r5, [r0]
 143 0004 45B1     		cbz	r5, .L8
 144 0006 0446     		mov	r4, r0
 145              	.LVL9:
 146              	.LBB3:
  66:.\queue.c     ****         /* Queue is empty */
  67:.\queue.c     ****         toReturn = NULL;
  68:.\queue.c     ****     } else {
  69:.\queue.c     ****         /* Queue is not empty */
  70:.\queue.c     ****         toReturn = q->head;
  71:.\queue.c     ****         Node * oldHead = q->head;
  72:.\queue.c     ****         q->head = q->head->next;
 147              		.loc 1 72 0
 148 0008 EB68     		ldr	r3, [r5, #12]
 149 000a 0360     		str	r3, [r0]
  73:.\queue.c     ****         free(oldHead);
 150              		.loc 1 73 0
 151 000c 2846     		mov	r0, r5
 152              	.LVL10:
 153 000e FFF7FEFF 		bl	free
 154              	.LVL11:
  74:.\queue.c     ****         if (q->head == NULL) {
ARM GAS  C:\Users\mitchell\AppData\Local\Temp\ccalraad.s 			page 5


 155              		.loc 1 74 0
 156 0012 2368     		ldr	r3, [r4]
 157 0014 03B9     		cbnz	r3, .L8
  75:.\queue.c     ****             /* If dequeueing last element */
  76:.\queue.c     ****             q->tail = NULL;
 158              		.loc 1 76 0
 159 0016 6360     		str	r3, [r4, #4]
 160              	.LVL12:
 161              	.L8:
 162              	.LBE3:
  77:.\queue.c     ****         }
  78:.\queue.c     ****     }
  79:.\queue.c     ****     return toReturn;
  80:.\queue.c     **** }
 163              		.loc 1 80 0
 164 0018 2846     		mov	r0, r5
 165 001a 38BD     		pop	{r3, r4, r5, pc}
 166              		.cfi_endproc
 167              	.LFE65:
 168              		.size	dequeue, .-dequeue
 169              		.section	.text.headTime,"ax",%progbits
 170              		.align	2
 171              		.global	headTime
 172              		.thumb
 173              		.thumb_func
 174              		.type	headTime, %function
 175              	headTime:
 176              	.LFB66:
  81:.\queue.c     **** 
  82:.\queue.c     **** /*
  83:.\queue.c     **** return: The time_count value from the queue's head node
  84:.\queue.c     ****         This will be the least recent time in the queue
  85:.\queue.c     **** */
  86:.\queue.c     **** uint32 headTime(Queue * q) {
 177              		.loc 1 86 0
 178              		.cfi_startproc
 179              		@ args = 0, pretend = 0, frame = 0
 180              		@ frame_needed = 0, uses_anonymous_args = 0
 181              		@ link register save eliminated.
 182              	.LVL13:
  87:.\queue.c     ****     if (q->head == NULL) {
 183              		.loc 1 87 0
 184 0000 0368     		ldr	r3, [r0]
 185 0002 0BB1     		cbz	r3, .L12
  88:.\queue.c     ****         /* queue is empty */
  89:.\queue.c     ****         return -1;
  90:.\queue.c     ****     } else {
  91:.\queue.c     ****         return q->head->time_count;
 186              		.loc 1 91 0
 187 0004 9868     		ldr	r0, [r3, #8]
 188              	.LVL14:
 189 0006 7047     		bx	lr
 190              	.LVL15:
 191              	.L12:
  89:.\queue.c     ****     } else {
 192              		.loc 1 89 0
 193 0008 4FF0FF30 		mov	r0, #-1
ARM GAS  C:\Users\mitchell\AppData\Local\Temp\ccalraad.s 			page 6


 194              	.LVL16:
  92:.\queue.c     ****     }
  93:.\queue.c     **** }
 195              		.loc 1 93 0
 196 000c 7047     		bx	lr
 197              		.cfi_endproc
 198              	.LFE66:
 199              		.size	headTime, .-headTime
 200 000e 00BF     		.text
 201              	.Letext0:
 202              		.file 2 "c:\\program files (x86)\\cypress\\psoc creator\\3.3\\psoc creator\\import\\gnu\\arm\\4.9.
 203              		.file 3 "c:\\program files (x86)\\cypress\\psoc creator\\3.3\\psoc creator\\import\\gnu\\arm\\4.9.
 204              		.file 4 "c:\\program files (x86)\\cypress\\psoc creator\\3.3\\psoc creator\\import\\gnu\\arm\\4.9.
 205              		.file 5 "Generated_Source\\PSoC5/cytypes.h"
 206              		.file 6 ".\\queue.h"
 207              		.file 7 "Generated_Source\\PSoC5/core_cm3.h"
 208              		.file 8 "c:\\program files (x86)\\cypress\\psoc creator\\3.3\\psoc creator\\import\\gnu\\arm\\4.9.