ARM GAS  C:\Users\mitchell\AppData\Local\Temp\ccSVmm9L.s 			page 1


   1              		.syntax unified
   2              		.cpu cortex-m3
   3              		.fpu softvfp
   4              		.eabi_attribute 20, 1
   5              		.eabi_attribute 21, 1
   6              		.eabi_attribute 23, 3
   7              		.eabi_attribute 24, 1
   8              		.eabi_attribute 25, 1
   9              		.eabi_attribute 26, 1
  10              		.eabi_attribute 30, 1
  11              		.eabi_attribute 34, 1
  12              		.eabi_attribute 18, 4
  13              		.thumb
  14              		.file	"SERVO_PWM.c"
  15              		.text
  16              	.Ltext0:
  17              		.cfi_sections	.debug_frame
  18              		.section	.text.SERVO_PWM_Enable,"ax",%progbits
  19              		.align	2
  20              		.global	SERVO_PWM_Enable
  21              		.thumb
  22              		.thumb_func
  23              		.type	SERVO_PWM_Enable, %function
  24              	SERVO_PWM_Enable:
  25              	.LFB2:
  26              		.file 1 ".\\Generated_Source\\PSoC5\\SERVO_PWM.c"
   1:.\Generated_Source\PSoC5/SERVO_PWM.c **** /*******************************************************************************
   2:.\Generated_Source\PSoC5/SERVO_PWM.c **** * File Name: SERVO_PWM.c
   3:.\Generated_Source\PSoC5/SERVO_PWM.c **** * Version 3.30
   4:.\Generated_Source\PSoC5/SERVO_PWM.c **** *
   5:.\Generated_Source\PSoC5/SERVO_PWM.c **** * Description:
   6:.\Generated_Source\PSoC5/SERVO_PWM.c **** *  The PWM User Module consist of an 8 or 16-bit counter with two 8 or 16-bit
   7:.\Generated_Source\PSoC5/SERVO_PWM.c **** *  comparitors. Each instance of this user module is capable of generating
   8:.\Generated_Source\PSoC5/SERVO_PWM.c **** *  two PWM outputs with the same period. The pulse width is selectable between
   9:.\Generated_Source\PSoC5/SERVO_PWM.c **** *  1 and 255/65535. The period is selectable between 2 and 255/65536 clocks.
  10:.\Generated_Source\PSoC5/SERVO_PWM.c **** *  The compare value output may be configured to be active when the present
  11:.\Generated_Source\PSoC5/SERVO_PWM.c **** *  counter is less than or less than/equal to the compare value.
  12:.\Generated_Source\PSoC5/SERVO_PWM.c **** *  A terminal count output is also provided. It generates a pulse one clock
  13:.\Generated_Source\PSoC5/SERVO_PWM.c **** *  width wide when the counter is equal to zero.
  14:.\Generated_Source\PSoC5/SERVO_PWM.c **** *
  15:.\Generated_Source\PSoC5/SERVO_PWM.c **** * Note:
  16:.\Generated_Source\PSoC5/SERVO_PWM.c **** *
  17:.\Generated_Source\PSoC5/SERVO_PWM.c **** *******************************************************************************
  18:.\Generated_Source\PSoC5/SERVO_PWM.c **** * Copyright 2008-2014, Cypress Semiconductor Corporation.  All rights reserved.
  19:.\Generated_Source\PSoC5/SERVO_PWM.c **** * You may use this file only in accordance with the license, terms, conditions,
  20:.\Generated_Source\PSoC5/SERVO_PWM.c **** * disclaimers, and limitations in the end user license agreement accompanying
  21:.\Generated_Source\PSoC5/SERVO_PWM.c **** * the software package with which this file was provided.
  22:.\Generated_Source\PSoC5/SERVO_PWM.c **** ********************************************************************************/
  23:.\Generated_Source\PSoC5/SERVO_PWM.c **** 
  24:.\Generated_Source\PSoC5/SERVO_PWM.c **** #include "SERVO_PWM.h"
  25:.\Generated_Source\PSoC5/SERVO_PWM.c **** 
  26:.\Generated_Source\PSoC5/SERVO_PWM.c **** /* Error message for removed <resource> through optimization */
  27:.\Generated_Source\PSoC5/SERVO_PWM.c **** #ifdef SERVO_PWM_PWMUDB_genblk1_ctrlreg__REMOVED
  28:.\Generated_Source\PSoC5/SERVO_PWM.c ****     #error PWM_v3_30 detected with a constant 0 for the enable or \
  29:.\Generated_Source\PSoC5/SERVO_PWM.c ****          constant 1 for reset. This will prevent the component from operating.
  30:.\Generated_Source\PSoC5/SERVO_PWM.c **** #endif /* SERVO_PWM_PWMUDB_genblk1_ctrlreg__REMOVED */
  31:.\Generated_Source\PSoC5/SERVO_PWM.c **** 
ARM GAS  C:\Users\mitchell\AppData\Local\Temp\ccSVmm9L.s 			page 2


  32:.\Generated_Source\PSoC5/SERVO_PWM.c **** uint8 SERVO_PWM_initVar = 0u;
  33:.\Generated_Source\PSoC5/SERVO_PWM.c **** 
  34:.\Generated_Source\PSoC5/SERVO_PWM.c **** 
  35:.\Generated_Source\PSoC5/SERVO_PWM.c **** /*******************************************************************************
  36:.\Generated_Source\PSoC5/SERVO_PWM.c **** * Function Name: SERVO_PWM_Start
  37:.\Generated_Source\PSoC5/SERVO_PWM.c **** ********************************************************************************
  38:.\Generated_Source\PSoC5/SERVO_PWM.c **** *
  39:.\Generated_Source\PSoC5/SERVO_PWM.c **** * Summary:
  40:.\Generated_Source\PSoC5/SERVO_PWM.c **** *  The start function initializes the pwm with the default values, the
  41:.\Generated_Source\PSoC5/SERVO_PWM.c **** *  enables the counter to begin counting.  It does not enable interrupts,
  42:.\Generated_Source\PSoC5/SERVO_PWM.c **** *  the EnableInt command should be called if interrupt generation is required.
  43:.\Generated_Source\PSoC5/SERVO_PWM.c **** *
  44:.\Generated_Source\PSoC5/SERVO_PWM.c **** * Parameters:
  45:.\Generated_Source\PSoC5/SERVO_PWM.c **** *  None
  46:.\Generated_Source\PSoC5/SERVO_PWM.c **** *
  47:.\Generated_Source\PSoC5/SERVO_PWM.c **** * Return:
  48:.\Generated_Source\PSoC5/SERVO_PWM.c **** *  None
  49:.\Generated_Source\PSoC5/SERVO_PWM.c **** *
  50:.\Generated_Source\PSoC5/SERVO_PWM.c **** * Global variables:
  51:.\Generated_Source\PSoC5/SERVO_PWM.c **** *  SERVO_PWM_initVar: Is modified when this function is called for the
  52:.\Generated_Source\PSoC5/SERVO_PWM.c **** *   first time. Is used to ensure that initialization happens only once.
  53:.\Generated_Source\PSoC5/SERVO_PWM.c **** *
  54:.\Generated_Source\PSoC5/SERVO_PWM.c **** *******************************************************************************/
  55:.\Generated_Source\PSoC5/SERVO_PWM.c **** void SERVO_PWM_Start(void) 
  56:.\Generated_Source\PSoC5/SERVO_PWM.c **** {
  57:.\Generated_Source\PSoC5/SERVO_PWM.c ****     /* If not Initialized then initialize all required hardware and software */
  58:.\Generated_Source\PSoC5/SERVO_PWM.c ****     if(SERVO_PWM_initVar == 0u)
  59:.\Generated_Source\PSoC5/SERVO_PWM.c ****     {
  60:.\Generated_Source\PSoC5/SERVO_PWM.c ****         SERVO_PWM_Init();
  61:.\Generated_Source\PSoC5/SERVO_PWM.c ****         SERVO_PWM_initVar = 1u;
  62:.\Generated_Source\PSoC5/SERVO_PWM.c ****     }
  63:.\Generated_Source\PSoC5/SERVO_PWM.c ****     SERVO_PWM_Enable();
  64:.\Generated_Source\PSoC5/SERVO_PWM.c **** 
  65:.\Generated_Source\PSoC5/SERVO_PWM.c **** }
  66:.\Generated_Source\PSoC5/SERVO_PWM.c **** 
  67:.\Generated_Source\PSoC5/SERVO_PWM.c **** 
  68:.\Generated_Source\PSoC5/SERVO_PWM.c **** /*******************************************************************************
  69:.\Generated_Source\PSoC5/SERVO_PWM.c **** * Function Name: SERVO_PWM_Init
  70:.\Generated_Source\PSoC5/SERVO_PWM.c **** ********************************************************************************
  71:.\Generated_Source\PSoC5/SERVO_PWM.c **** *
  72:.\Generated_Source\PSoC5/SERVO_PWM.c **** * Summary:
  73:.\Generated_Source\PSoC5/SERVO_PWM.c **** *  Initialize component's parameters to the parameters set by user in the
  74:.\Generated_Source\PSoC5/SERVO_PWM.c **** *  customizer of the component placed onto schematic. Usually called in
  75:.\Generated_Source\PSoC5/SERVO_PWM.c **** *  SERVO_PWM_Start().
  76:.\Generated_Source\PSoC5/SERVO_PWM.c **** *
  77:.\Generated_Source\PSoC5/SERVO_PWM.c **** * Parameters:
  78:.\Generated_Source\PSoC5/SERVO_PWM.c **** *  None
  79:.\Generated_Source\PSoC5/SERVO_PWM.c **** *
  80:.\Generated_Source\PSoC5/SERVO_PWM.c **** * Return:
  81:.\Generated_Source\PSoC5/SERVO_PWM.c **** *  None
  82:.\Generated_Source\PSoC5/SERVO_PWM.c **** *
  83:.\Generated_Source\PSoC5/SERVO_PWM.c **** *******************************************************************************/
  84:.\Generated_Source\PSoC5/SERVO_PWM.c **** void SERVO_PWM_Init(void) 
  85:.\Generated_Source\PSoC5/SERVO_PWM.c **** {
  86:.\Generated_Source\PSoC5/SERVO_PWM.c ****     #if (SERVO_PWM_UsingFixedFunction || SERVO_PWM_UseControl)
  87:.\Generated_Source\PSoC5/SERVO_PWM.c ****         uint8 ctrl;
  88:.\Generated_Source\PSoC5/SERVO_PWM.c ****     #endif /* (SERVO_PWM_UsingFixedFunction || SERVO_PWM_UseControl) */
ARM GAS  C:\Users\mitchell\AppData\Local\Temp\ccSVmm9L.s 			page 3


  89:.\Generated_Source\PSoC5/SERVO_PWM.c **** 
  90:.\Generated_Source\PSoC5/SERVO_PWM.c ****     #if(!SERVO_PWM_UsingFixedFunction)
  91:.\Generated_Source\PSoC5/SERVO_PWM.c ****         #if(SERVO_PWM_UseStatus)
  92:.\Generated_Source\PSoC5/SERVO_PWM.c ****             /* Interrupt State Backup for Critical Region*/
  93:.\Generated_Source\PSoC5/SERVO_PWM.c ****             uint8 SERVO_PWM_interruptState;
  94:.\Generated_Source\PSoC5/SERVO_PWM.c ****         #endif /* (SERVO_PWM_UseStatus) */
  95:.\Generated_Source\PSoC5/SERVO_PWM.c ****     #endif /* (!SERVO_PWM_UsingFixedFunction) */
  96:.\Generated_Source\PSoC5/SERVO_PWM.c **** 
  97:.\Generated_Source\PSoC5/SERVO_PWM.c ****     #if (SERVO_PWM_UsingFixedFunction)
  98:.\Generated_Source\PSoC5/SERVO_PWM.c ****         /* You are allowed to write the compare value (FF only) */
  99:.\Generated_Source\PSoC5/SERVO_PWM.c ****         SERVO_PWM_CONTROL |= SERVO_PWM_CFG0_MODE;
 100:.\Generated_Source\PSoC5/SERVO_PWM.c ****         #if (SERVO_PWM_DeadBand2_4)
 101:.\Generated_Source\PSoC5/SERVO_PWM.c ****             SERVO_PWM_CONTROL |= SERVO_PWM_CFG0_DB;
 102:.\Generated_Source\PSoC5/SERVO_PWM.c ****         #endif /* (SERVO_PWM_DeadBand2_4) */
 103:.\Generated_Source\PSoC5/SERVO_PWM.c **** 
 104:.\Generated_Source\PSoC5/SERVO_PWM.c ****         ctrl = SERVO_PWM_CONTROL3 & ((uint8 )(~SERVO_PWM_CTRL_CMPMODE1_MASK));
 105:.\Generated_Source\PSoC5/SERVO_PWM.c ****         SERVO_PWM_CONTROL3 = ctrl | SERVO_PWM_DEFAULT_COMPARE1_MODE;
 106:.\Generated_Source\PSoC5/SERVO_PWM.c **** 
 107:.\Generated_Source\PSoC5/SERVO_PWM.c ****          /* Clear and Set SYNCTC and SYNCCMP bits of RT1 register */
 108:.\Generated_Source\PSoC5/SERVO_PWM.c ****         SERVO_PWM_RT1 &= ((uint8)(~SERVO_PWM_RT1_MASK));
 109:.\Generated_Source\PSoC5/SERVO_PWM.c ****         SERVO_PWM_RT1 |= SERVO_PWM_SYNC;
 110:.\Generated_Source\PSoC5/SERVO_PWM.c **** 
 111:.\Generated_Source\PSoC5/SERVO_PWM.c ****         /*Enable DSI Sync all all inputs of the PWM*/
 112:.\Generated_Source\PSoC5/SERVO_PWM.c ****         SERVO_PWM_RT1 &= ((uint8)(~SERVO_PWM_SYNCDSI_MASK));
 113:.\Generated_Source\PSoC5/SERVO_PWM.c ****         SERVO_PWM_RT1 |= SERVO_PWM_SYNCDSI_EN;
 114:.\Generated_Source\PSoC5/SERVO_PWM.c **** 
 115:.\Generated_Source\PSoC5/SERVO_PWM.c ****     #elif (SERVO_PWM_UseControl)
 116:.\Generated_Source\PSoC5/SERVO_PWM.c ****         /* Set the default compare mode defined in the parameter */
 117:.\Generated_Source\PSoC5/SERVO_PWM.c ****         ctrl = SERVO_PWM_CONTROL & ((uint8)(~SERVO_PWM_CTRL_CMPMODE2_MASK)) &
 118:.\Generated_Source\PSoC5/SERVO_PWM.c ****                 ((uint8)(~SERVO_PWM_CTRL_CMPMODE1_MASK));
 119:.\Generated_Source\PSoC5/SERVO_PWM.c ****         SERVO_PWM_CONTROL = ctrl | SERVO_PWM_DEFAULT_COMPARE2_MODE |
 120:.\Generated_Source\PSoC5/SERVO_PWM.c ****                                    SERVO_PWM_DEFAULT_COMPARE1_MODE;
 121:.\Generated_Source\PSoC5/SERVO_PWM.c ****     #endif /* (SERVO_PWM_UsingFixedFunction) */
 122:.\Generated_Source\PSoC5/SERVO_PWM.c **** 
 123:.\Generated_Source\PSoC5/SERVO_PWM.c ****     #if (!SERVO_PWM_UsingFixedFunction)
 124:.\Generated_Source\PSoC5/SERVO_PWM.c ****         #if (SERVO_PWM_Resolution == 8)
 125:.\Generated_Source\PSoC5/SERVO_PWM.c ****             /* Set FIFO 0 to 1 byte register for period*/
 126:.\Generated_Source\PSoC5/SERVO_PWM.c ****             SERVO_PWM_AUX_CONTROLDP0 |= (SERVO_PWM_AUX_CTRL_FIFO0_CLR);
 127:.\Generated_Source\PSoC5/SERVO_PWM.c ****         #else /* (SERVO_PWM_Resolution == 16)*/
 128:.\Generated_Source\PSoC5/SERVO_PWM.c ****             /* Set FIFO 0 to 1 byte register for period */
 129:.\Generated_Source\PSoC5/SERVO_PWM.c ****             SERVO_PWM_AUX_CONTROLDP0 |= (SERVO_PWM_AUX_CTRL_FIFO0_CLR);
 130:.\Generated_Source\PSoC5/SERVO_PWM.c ****             SERVO_PWM_AUX_CONTROLDP1 |= (SERVO_PWM_AUX_CTRL_FIFO0_CLR);
 131:.\Generated_Source\PSoC5/SERVO_PWM.c ****         #endif /* (SERVO_PWM_Resolution == 8) */
 132:.\Generated_Source\PSoC5/SERVO_PWM.c **** 
 133:.\Generated_Source\PSoC5/SERVO_PWM.c ****         SERVO_PWM_WriteCounter(SERVO_PWM_INIT_PERIOD_VALUE);
 134:.\Generated_Source\PSoC5/SERVO_PWM.c ****     #endif /* (!SERVO_PWM_UsingFixedFunction) */
 135:.\Generated_Source\PSoC5/SERVO_PWM.c **** 
 136:.\Generated_Source\PSoC5/SERVO_PWM.c ****     SERVO_PWM_WritePeriod(SERVO_PWM_INIT_PERIOD_VALUE);
 137:.\Generated_Source\PSoC5/SERVO_PWM.c **** 
 138:.\Generated_Source\PSoC5/SERVO_PWM.c ****         #if (SERVO_PWM_UseOneCompareMode)
 139:.\Generated_Source\PSoC5/SERVO_PWM.c ****             SERVO_PWM_WriteCompare(SERVO_PWM_INIT_COMPARE_VALUE1);
 140:.\Generated_Source\PSoC5/SERVO_PWM.c ****         #else
 141:.\Generated_Source\PSoC5/SERVO_PWM.c ****             SERVO_PWM_WriteCompare1(SERVO_PWM_INIT_COMPARE_VALUE1);
 142:.\Generated_Source\PSoC5/SERVO_PWM.c ****             SERVO_PWM_WriteCompare2(SERVO_PWM_INIT_COMPARE_VALUE2);
 143:.\Generated_Source\PSoC5/SERVO_PWM.c ****         #endif /* (SERVO_PWM_UseOneCompareMode) */
 144:.\Generated_Source\PSoC5/SERVO_PWM.c **** 
 145:.\Generated_Source\PSoC5/SERVO_PWM.c ****         #if (SERVO_PWM_KillModeMinTime)
ARM GAS  C:\Users\mitchell\AppData\Local\Temp\ccSVmm9L.s 			page 4


 146:.\Generated_Source\PSoC5/SERVO_PWM.c ****             SERVO_PWM_WriteKillTime(SERVO_PWM_MinimumKillTime);
 147:.\Generated_Source\PSoC5/SERVO_PWM.c ****         #endif /* (SERVO_PWM_KillModeMinTime) */
 148:.\Generated_Source\PSoC5/SERVO_PWM.c **** 
 149:.\Generated_Source\PSoC5/SERVO_PWM.c ****         #if (SERVO_PWM_DeadBandUsed)
 150:.\Generated_Source\PSoC5/SERVO_PWM.c ****             SERVO_PWM_WriteDeadTime(SERVO_PWM_INIT_DEAD_TIME);
 151:.\Generated_Source\PSoC5/SERVO_PWM.c ****         #endif /* (SERVO_PWM_DeadBandUsed) */
 152:.\Generated_Source\PSoC5/SERVO_PWM.c **** 
 153:.\Generated_Source\PSoC5/SERVO_PWM.c ****     #if (SERVO_PWM_UseStatus || SERVO_PWM_UsingFixedFunction)
 154:.\Generated_Source\PSoC5/SERVO_PWM.c ****         SERVO_PWM_SetInterruptMode(SERVO_PWM_INIT_INTERRUPTS_MODE);
 155:.\Generated_Source\PSoC5/SERVO_PWM.c ****     #endif /* (SERVO_PWM_UseStatus || SERVO_PWM_UsingFixedFunction) */
 156:.\Generated_Source\PSoC5/SERVO_PWM.c **** 
 157:.\Generated_Source\PSoC5/SERVO_PWM.c ****     #if (SERVO_PWM_UsingFixedFunction)
 158:.\Generated_Source\PSoC5/SERVO_PWM.c ****         /* Globally Enable the Fixed Function Block chosen */
 159:.\Generated_Source\PSoC5/SERVO_PWM.c ****         SERVO_PWM_GLOBAL_ENABLE |= SERVO_PWM_BLOCK_EN_MASK;
 160:.\Generated_Source\PSoC5/SERVO_PWM.c ****         /* Set the Interrupt source to come from the status register */
 161:.\Generated_Source\PSoC5/SERVO_PWM.c ****         SERVO_PWM_CONTROL2 |= SERVO_PWM_CTRL2_IRQ_SEL;
 162:.\Generated_Source\PSoC5/SERVO_PWM.c ****     #else
 163:.\Generated_Source\PSoC5/SERVO_PWM.c ****         #if(SERVO_PWM_UseStatus)
 164:.\Generated_Source\PSoC5/SERVO_PWM.c **** 
 165:.\Generated_Source\PSoC5/SERVO_PWM.c ****             /* CyEnterCriticalRegion and CyExitCriticalRegion are used to mark following region cri
 166:.\Generated_Source\PSoC5/SERVO_PWM.c ****             /* Enter Critical Region*/
 167:.\Generated_Source\PSoC5/SERVO_PWM.c ****             SERVO_PWM_interruptState = CyEnterCriticalSection();
 168:.\Generated_Source\PSoC5/SERVO_PWM.c ****             /* Use the interrupt output of the status register for IRQ output */
 169:.\Generated_Source\PSoC5/SERVO_PWM.c ****             SERVO_PWM_STATUS_AUX_CTRL |= SERVO_PWM_STATUS_ACTL_INT_EN_MASK;
 170:.\Generated_Source\PSoC5/SERVO_PWM.c **** 
 171:.\Generated_Source\PSoC5/SERVO_PWM.c ****              /* Exit Critical Region*/
 172:.\Generated_Source\PSoC5/SERVO_PWM.c ****             CyExitCriticalSection(SERVO_PWM_interruptState);
 173:.\Generated_Source\PSoC5/SERVO_PWM.c **** 
 174:.\Generated_Source\PSoC5/SERVO_PWM.c ****             /* Clear the FIFO to enable the SERVO_PWM_STATUS_FIFOFULL
 175:.\Generated_Source\PSoC5/SERVO_PWM.c ****                    bit to be set on FIFO full. */
 176:.\Generated_Source\PSoC5/SERVO_PWM.c ****             SERVO_PWM_ClearFIFO();
 177:.\Generated_Source\PSoC5/SERVO_PWM.c ****         #endif /* (SERVO_PWM_UseStatus) */
 178:.\Generated_Source\PSoC5/SERVO_PWM.c ****     #endif /* (SERVO_PWM_UsingFixedFunction) */
 179:.\Generated_Source\PSoC5/SERVO_PWM.c **** }
 180:.\Generated_Source\PSoC5/SERVO_PWM.c **** 
 181:.\Generated_Source\PSoC5/SERVO_PWM.c **** 
 182:.\Generated_Source\PSoC5/SERVO_PWM.c **** /*******************************************************************************
 183:.\Generated_Source\PSoC5/SERVO_PWM.c **** * Function Name: SERVO_PWM_Enable
 184:.\Generated_Source\PSoC5/SERVO_PWM.c **** ********************************************************************************
 185:.\Generated_Source\PSoC5/SERVO_PWM.c **** *
 186:.\Generated_Source\PSoC5/SERVO_PWM.c **** * Summary:
 187:.\Generated_Source\PSoC5/SERVO_PWM.c **** *  Enables the PWM block operation
 188:.\Generated_Source\PSoC5/SERVO_PWM.c **** *
 189:.\Generated_Source\PSoC5/SERVO_PWM.c **** * Parameters:
 190:.\Generated_Source\PSoC5/SERVO_PWM.c **** *  None
 191:.\Generated_Source\PSoC5/SERVO_PWM.c **** *
 192:.\Generated_Source\PSoC5/SERVO_PWM.c **** * Return:
 193:.\Generated_Source\PSoC5/SERVO_PWM.c **** *  None
 194:.\Generated_Source\PSoC5/SERVO_PWM.c **** *
 195:.\Generated_Source\PSoC5/SERVO_PWM.c **** * Side Effects:
 196:.\Generated_Source\PSoC5/SERVO_PWM.c **** *  This works only if software enable mode is chosen
 197:.\Generated_Source\PSoC5/SERVO_PWM.c **** *
 198:.\Generated_Source\PSoC5/SERVO_PWM.c **** *******************************************************************************/
 199:.\Generated_Source\PSoC5/SERVO_PWM.c **** void SERVO_PWM_Enable(void) 
 200:.\Generated_Source\PSoC5/SERVO_PWM.c **** {
  27              		.loc 1 200 0
  28              		.cfi_startproc
ARM GAS  C:\Users\mitchell\AppData\Local\Temp\ccSVmm9L.s 			page 5


  29              		@ args = 0, pretend = 0, frame = 0
  30              		@ frame_needed = 0, uses_anonymous_args = 0
  31              		@ link register save eliminated.
 201:.\Generated_Source\PSoC5/SERVO_PWM.c ****     /* Globally Enable the Fixed Function Block chosen */
 202:.\Generated_Source\PSoC5/SERVO_PWM.c ****     #if (SERVO_PWM_UsingFixedFunction)
 203:.\Generated_Source\PSoC5/SERVO_PWM.c ****         SERVO_PWM_GLOBAL_ENABLE |= SERVO_PWM_BLOCK_EN_MASK;
  32              		.loc 1 203 0
  33 0000 084A     		ldr	r2, .L2
  34 0002 1378     		ldrb	r3, [r2]	@ zero_extendqisi2
  35 0004 43F00103 		orr	r3, r3, #1
  36 0008 1370     		strb	r3, [r2]
 204:.\Generated_Source\PSoC5/SERVO_PWM.c ****         SERVO_PWM_GLOBAL_STBY_ENABLE |= SERVO_PWM_BLOCK_STBY_EN_MASK;
  37              		.loc 1 204 0
  38 000a 1032     		adds	r2, r2, #16
  39 000c 1378     		ldrb	r3, [r2]	@ zero_extendqisi2
  40 000e 43F00103 		orr	r3, r3, #1
  41 0012 1370     		strb	r3, [r2]
 205:.\Generated_Source\PSoC5/SERVO_PWM.c ****     #endif /* (SERVO_PWM_UsingFixedFunction) */
 206:.\Generated_Source\PSoC5/SERVO_PWM.c **** 
 207:.\Generated_Source\PSoC5/SERVO_PWM.c ****     /* Enable the PWM from the control register  */
 208:.\Generated_Source\PSoC5/SERVO_PWM.c ****     #if (SERVO_PWM_UseControl || SERVO_PWM_UsingFixedFunction)
 209:.\Generated_Source\PSoC5/SERVO_PWM.c ****         SERVO_PWM_CONTROL |= SERVO_PWM_CTRL_ENABLE;
  42              		.loc 1 209 0
  43 0014 02F64D32 		addw	r2, r2, #2893
  44 0018 1378     		ldrb	r3, [r2]	@ zero_extendqisi2
  45 001a 43F00103 		orr	r3, r3, #1
  46 001e 1370     		strb	r3, [r2]
  47 0020 7047     		bx	lr
  48              	.L3:
  49 0022 00BF     		.align	2
  50              	.L2:
  51 0024 A3430040 		.word	1073759139
  52              		.cfi_endproc
  53              	.LFE2:
  54              		.size	SERVO_PWM_Enable, .-SERVO_PWM_Enable
  55              		.section	.text.SERVO_PWM_Stop,"ax",%progbits
  56              		.align	2
  57              		.global	SERVO_PWM_Stop
  58              		.thumb
  59              		.thumb_func
  60              		.type	SERVO_PWM_Stop, %function
  61              	SERVO_PWM_Stop:
  62              	.LFB3:
 210:.\Generated_Source\PSoC5/SERVO_PWM.c ****     #endif /* (SERVO_PWM_UseControl || SERVO_PWM_UsingFixedFunction) */
 211:.\Generated_Source\PSoC5/SERVO_PWM.c **** }
 212:.\Generated_Source\PSoC5/SERVO_PWM.c **** 
 213:.\Generated_Source\PSoC5/SERVO_PWM.c **** 
 214:.\Generated_Source\PSoC5/SERVO_PWM.c **** /*******************************************************************************
 215:.\Generated_Source\PSoC5/SERVO_PWM.c **** * Function Name: SERVO_PWM_Stop
 216:.\Generated_Source\PSoC5/SERVO_PWM.c **** ********************************************************************************
 217:.\Generated_Source\PSoC5/SERVO_PWM.c **** *
 218:.\Generated_Source\PSoC5/SERVO_PWM.c **** * Summary:
 219:.\Generated_Source\PSoC5/SERVO_PWM.c **** *  The stop function halts the PWM, but does not change any modes or disable
 220:.\Generated_Source\PSoC5/SERVO_PWM.c **** *  interrupts.
 221:.\Generated_Source\PSoC5/SERVO_PWM.c **** *
 222:.\Generated_Source\PSoC5/SERVO_PWM.c **** * Parameters:
 223:.\Generated_Source\PSoC5/SERVO_PWM.c **** *  None
ARM GAS  C:\Users\mitchell\AppData\Local\Temp\ccSVmm9L.s 			page 6


 224:.\Generated_Source\PSoC5/SERVO_PWM.c **** *
 225:.\Generated_Source\PSoC5/SERVO_PWM.c **** * Return:
 226:.\Generated_Source\PSoC5/SERVO_PWM.c **** *  None
 227:.\Generated_Source\PSoC5/SERVO_PWM.c **** *
 228:.\Generated_Source\PSoC5/SERVO_PWM.c **** * Side Effects:
 229:.\Generated_Source\PSoC5/SERVO_PWM.c **** *  If the Enable mode is set to Hardware only then this function
 230:.\Generated_Source\PSoC5/SERVO_PWM.c **** *  has no effect on the operation of the PWM
 231:.\Generated_Source\PSoC5/SERVO_PWM.c **** *
 232:.\Generated_Source\PSoC5/SERVO_PWM.c **** *******************************************************************************/
 233:.\Generated_Source\PSoC5/SERVO_PWM.c **** void SERVO_PWM_Stop(void) 
 234:.\Generated_Source\PSoC5/SERVO_PWM.c **** {
  63              		.loc 1 234 0
  64              		.cfi_startproc
  65              		@ args = 0, pretend = 0, frame = 0
  66              		@ frame_needed = 0, uses_anonymous_args = 0
  67              		@ link register save eliminated.
 235:.\Generated_Source\PSoC5/SERVO_PWM.c ****     #if (SERVO_PWM_UseControl || SERVO_PWM_UsingFixedFunction)
 236:.\Generated_Source\PSoC5/SERVO_PWM.c ****         SERVO_PWM_CONTROL &= ((uint8)(~SERVO_PWM_CTRL_ENABLE));
  68              		.loc 1 236 0
  69 0000 084A     		ldr	r2, .L5
  70 0002 1378     		ldrb	r3, [r2]	@ zero_extendqisi2
  71 0004 03F0FE03 		and	r3, r3, #254
  72 0008 1370     		strb	r3, [r2]
 237:.\Generated_Source\PSoC5/SERVO_PWM.c ****     #endif /* (SERVO_PWM_UseControl || SERVO_PWM_UsingFixedFunction) */
 238:.\Generated_Source\PSoC5/SERVO_PWM.c **** 
 239:.\Generated_Source\PSoC5/SERVO_PWM.c ****     /* Globally disable the Fixed Function Block chosen */
 240:.\Generated_Source\PSoC5/SERVO_PWM.c ****     #if (SERVO_PWM_UsingFixedFunction)
 241:.\Generated_Source\PSoC5/SERVO_PWM.c ****         SERVO_PWM_GLOBAL_ENABLE &= ((uint8)(~SERVO_PWM_BLOCK_EN_MASK));
  73              		.loc 1 241 0
  74 000a A2F65D32 		subw	r2, r2, #2909
  75 000e 1378     		ldrb	r3, [r2]	@ zero_extendqisi2
  76 0010 03F0FE03 		and	r3, r3, #254
  77 0014 1370     		strb	r3, [r2]
 242:.\Generated_Source\PSoC5/SERVO_PWM.c ****         SERVO_PWM_GLOBAL_STBY_ENABLE &= ((uint8)(~SERVO_PWM_BLOCK_STBY_EN_MASK));
  78              		.loc 1 242 0
  79 0016 1032     		adds	r2, r2, #16
  80 0018 1378     		ldrb	r3, [r2]	@ zero_extendqisi2
  81 001a 03F0FE03 		and	r3, r3, #254
  82 001e 1370     		strb	r3, [r2]
  83 0020 7047     		bx	lr
  84              	.L6:
  85 0022 00BF     		.align	2
  86              	.L5:
  87 0024 004F0040 		.word	1073762048
  88              		.cfi_endproc
  89              	.LFE3:
  90              		.size	SERVO_PWM_Stop, .-SERVO_PWM_Stop
  91              		.section	.text.SERVO_PWM_WritePeriod,"ax",%progbits
  92              		.align	2
  93              		.global	SERVO_PWM_WritePeriod
  94              		.thumb
  95              		.thumb_func
  96              		.type	SERVO_PWM_WritePeriod, %function
  97              	SERVO_PWM_WritePeriod:
  98              	.LFB4:
 243:.\Generated_Source\PSoC5/SERVO_PWM.c ****     #endif /* (SERVO_PWM_UsingFixedFunction) */
 244:.\Generated_Source\PSoC5/SERVO_PWM.c **** }
ARM GAS  C:\Users\mitchell\AppData\Local\Temp\ccSVmm9L.s 			page 7


 245:.\Generated_Source\PSoC5/SERVO_PWM.c **** 
 246:.\Generated_Source\PSoC5/SERVO_PWM.c **** #if (SERVO_PWM_UseOneCompareMode)
 247:.\Generated_Source\PSoC5/SERVO_PWM.c ****     #if (SERVO_PWM_CompareMode1SW)
 248:.\Generated_Source\PSoC5/SERVO_PWM.c **** 
 249:.\Generated_Source\PSoC5/SERVO_PWM.c **** 
 250:.\Generated_Source\PSoC5/SERVO_PWM.c ****         /*******************************************************************************
 251:.\Generated_Source\PSoC5/SERVO_PWM.c ****         * Function Name: SERVO_PWM_SetCompareMode
 252:.\Generated_Source\PSoC5/SERVO_PWM.c ****         ********************************************************************************
 253:.\Generated_Source\PSoC5/SERVO_PWM.c ****         *
 254:.\Generated_Source\PSoC5/SERVO_PWM.c ****         * Summary:
 255:.\Generated_Source\PSoC5/SERVO_PWM.c ****         *  This function writes the Compare Mode for the pwm output when in Dither mode,
 256:.\Generated_Source\PSoC5/SERVO_PWM.c ****         *  Center Align Mode or One Output Mode.
 257:.\Generated_Source\PSoC5/SERVO_PWM.c ****         *
 258:.\Generated_Source\PSoC5/SERVO_PWM.c ****         * Parameters:
 259:.\Generated_Source\PSoC5/SERVO_PWM.c ****         *  comparemode:  The new compare mode for the PWM output. Use the compare types
 260:.\Generated_Source\PSoC5/SERVO_PWM.c ****         *                defined in the H file as input arguments.
 261:.\Generated_Source\PSoC5/SERVO_PWM.c ****         *
 262:.\Generated_Source\PSoC5/SERVO_PWM.c ****         * Return:
 263:.\Generated_Source\PSoC5/SERVO_PWM.c ****         *  None
 264:.\Generated_Source\PSoC5/SERVO_PWM.c ****         *
 265:.\Generated_Source\PSoC5/SERVO_PWM.c ****         *******************************************************************************/
 266:.\Generated_Source\PSoC5/SERVO_PWM.c ****         void SERVO_PWM_SetCompareMode(uint8 comparemode) 
 267:.\Generated_Source\PSoC5/SERVO_PWM.c ****         {
 268:.\Generated_Source\PSoC5/SERVO_PWM.c ****             #if(SERVO_PWM_UsingFixedFunction)
 269:.\Generated_Source\PSoC5/SERVO_PWM.c **** 
 270:.\Generated_Source\PSoC5/SERVO_PWM.c ****                 #if(0 != SERVO_PWM_CTRL_CMPMODE1_SHIFT)
 271:.\Generated_Source\PSoC5/SERVO_PWM.c ****                     uint8 comparemodemasked = ((uint8)((uint8)comparemode << SERVO_PWM_CTRL_CMPMODE
 272:.\Generated_Source\PSoC5/SERVO_PWM.c ****                 #else
 273:.\Generated_Source\PSoC5/SERVO_PWM.c ****                     uint8 comparemodemasked = comparemode;
 274:.\Generated_Source\PSoC5/SERVO_PWM.c ****                 #endif /* (0 != SERVO_PWM_CTRL_CMPMODE1_SHIFT) */
 275:.\Generated_Source\PSoC5/SERVO_PWM.c **** 
 276:.\Generated_Source\PSoC5/SERVO_PWM.c ****                 SERVO_PWM_CONTROL3 &= ((uint8)(~SERVO_PWM_CTRL_CMPMODE1_MASK)); /*Clear Existing Da
 277:.\Generated_Source\PSoC5/SERVO_PWM.c ****                 SERVO_PWM_CONTROL3 |= comparemodemasked;
 278:.\Generated_Source\PSoC5/SERVO_PWM.c **** 
 279:.\Generated_Source\PSoC5/SERVO_PWM.c ****             #elif (SERVO_PWM_UseControl)
 280:.\Generated_Source\PSoC5/SERVO_PWM.c **** 
 281:.\Generated_Source\PSoC5/SERVO_PWM.c ****                 #if(0 != SERVO_PWM_CTRL_CMPMODE1_SHIFT)
 282:.\Generated_Source\PSoC5/SERVO_PWM.c ****                     uint8 comparemode1masked = ((uint8)((uint8)comparemode << SERVO_PWM_CTRL_CMPMOD
 283:.\Generated_Source\PSoC5/SERVO_PWM.c ****                                                 SERVO_PWM_CTRL_CMPMODE1_MASK;
 284:.\Generated_Source\PSoC5/SERVO_PWM.c ****                 #else
 285:.\Generated_Source\PSoC5/SERVO_PWM.c ****                     uint8 comparemode1masked = comparemode & SERVO_PWM_CTRL_CMPMODE1_MASK;
 286:.\Generated_Source\PSoC5/SERVO_PWM.c ****                 #endif /* (0 != SERVO_PWM_CTRL_CMPMODE1_SHIFT) */
 287:.\Generated_Source\PSoC5/SERVO_PWM.c **** 
 288:.\Generated_Source\PSoC5/SERVO_PWM.c ****                 #if(0 != SERVO_PWM_CTRL_CMPMODE2_SHIFT)
 289:.\Generated_Source\PSoC5/SERVO_PWM.c ****                     uint8 comparemode2masked = ((uint8)((uint8)comparemode << SERVO_PWM_CTRL_CMPMOD
 290:.\Generated_Source\PSoC5/SERVO_PWM.c ****                                                SERVO_PWM_CTRL_CMPMODE2_MASK;
 291:.\Generated_Source\PSoC5/SERVO_PWM.c ****                 #else
 292:.\Generated_Source\PSoC5/SERVO_PWM.c ****                     uint8 comparemode2masked = comparemode & SERVO_PWM_CTRL_CMPMODE2_MASK;
 293:.\Generated_Source\PSoC5/SERVO_PWM.c ****                 #endif /* (0 != SERVO_PWM_CTRL_CMPMODE2_SHIFT) */
 294:.\Generated_Source\PSoC5/SERVO_PWM.c **** 
 295:.\Generated_Source\PSoC5/SERVO_PWM.c ****                 /*Clear existing mode */
 296:.\Generated_Source\PSoC5/SERVO_PWM.c ****                 SERVO_PWM_CONTROL &= ((uint8)(~(SERVO_PWM_CTRL_CMPMODE1_MASK |
 297:.\Generated_Source\PSoC5/SERVO_PWM.c ****                                             SERVO_PWM_CTRL_CMPMODE2_MASK)));
 298:.\Generated_Source\PSoC5/SERVO_PWM.c ****                 SERVO_PWM_CONTROL |= (comparemode1masked | comparemode2masked);
 299:.\Generated_Source\PSoC5/SERVO_PWM.c **** 
 300:.\Generated_Source\PSoC5/SERVO_PWM.c ****             #else
 301:.\Generated_Source\PSoC5/SERVO_PWM.c ****                 uint8 temp = comparemode;
ARM GAS  C:\Users\mitchell\AppData\Local\Temp\ccSVmm9L.s 			page 8


 302:.\Generated_Source\PSoC5/SERVO_PWM.c ****             #endif /* (SERVO_PWM_UsingFixedFunction) */
 303:.\Generated_Source\PSoC5/SERVO_PWM.c ****         }
 304:.\Generated_Source\PSoC5/SERVO_PWM.c ****     #endif /* SERVO_PWM_CompareMode1SW */
 305:.\Generated_Source\PSoC5/SERVO_PWM.c **** 
 306:.\Generated_Source\PSoC5/SERVO_PWM.c **** #else /* UseOneCompareMode */
 307:.\Generated_Source\PSoC5/SERVO_PWM.c **** 
 308:.\Generated_Source\PSoC5/SERVO_PWM.c ****     #if (SERVO_PWM_CompareMode1SW)
 309:.\Generated_Source\PSoC5/SERVO_PWM.c **** 
 310:.\Generated_Source\PSoC5/SERVO_PWM.c **** 
 311:.\Generated_Source\PSoC5/SERVO_PWM.c ****         /*******************************************************************************
 312:.\Generated_Source\PSoC5/SERVO_PWM.c ****         * Function Name: SERVO_PWM_SetCompareMode1
 313:.\Generated_Source\PSoC5/SERVO_PWM.c ****         ********************************************************************************
 314:.\Generated_Source\PSoC5/SERVO_PWM.c ****         *
 315:.\Generated_Source\PSoC5/SERVO_PWM.c ****         * Summary:
 316:.\Generated_Source\PSoC5/SERVO_PWM.c ****         *  This function writes the Compare Mode for the pwm or pwm1 output
 317:.\Generated_Source\PSoC5/SERVO_PWM.c ****         *
 318:.\Generated_Source\PSoC5/SERVO_PWM.c ****         * Parameters:
 319:.\Generated_Source\PSoC5/SERVO_PWM.c ****         *  comparemode:  The new compare mode for the PWM output. Use the compare types
 320:.\Generated_Source\PSoC5/SERVO_PWM.c ****         *                defined in the H file as input arguments.
 321:.\Generated_Source\PSoC5/SERVO_PWM.c ****         *
 322:.\Generated_Source\PSoC5/SERVO_PWM.c ****         * Return:
 323:.\Generated_Source\PSoC5/SERVO_PWM.c ****         *  None
 324:.\Generated_Source\PSoC5/SERVO_PWM.c ****         *
 325:.\Generated_Source\PSoC5/SERVO_PWM.c ****         *******************************************************************************/
 326:.\Generated_Source\PSoC5/SERVO_PWM.c ****         void SERVO_PWM_SetCompareMode1(uint8 comparemode) 
 327:.\Generated_Source\PSoC5/SERVO_PWM.c ****         {
 328:.\Generated_Source\PSoC5/SERVO_PWM.c ****             #if(0 != SERVO_PWM_CTRL_CMPMODE1_SHIFT)
 329:.\Generated_Source\PSoC5/SERVO_PWM.c ****                 uint8 comparemodemasked = ((uint8)((uint8)comparemode << SERVO_PWM_CTRL_CMPMODE1_SH
 330:.\Generated_Source\PSoC5/SERVO_PWM.c ****                                            SERVO_PWM_CTRL_CMPMODE1_MASK;
 331:.\Generated_Source\PSoC5/SERVO_PWM.c ****             #else
 332:.\Generated_Source\PSoC5/SERVO_PWM.c ****                 uint8 comparemodemasked = comparemode & SERVO_PWM_CTRL_CMPMODE1_MASK;
 333:.\Generated_Source\PSoC5/SERVO_PWM.c ****             #endif /* (0 != SERVO_PWM_CTRL_CMPMODE1_SHIFT) */
 334:.\Generated_Source\PSoC5/SERVO_PWM.c **** 
 335:.\Generated_Source\PSoC5/SERVO_PWM.c ****             #if (SERVO_PWM_UseControl)
 336:.\Generated_Source\PSoC5/SERVO_PWM.c ****                 SERVO_PWM_CONTROL &= ((uint8)(~SERVO_PWM_CTRL_CMPMODE1_MASK)); /*Clear existing mod
 337:.\Generated_Source\PSoC5/SERVO_PWM.c ****                 SERVO_PWM_CONTROL |= comparemodemasked;
 338:.\Generated_Source\PSoC5/SERVO_PWM.c ****             #endif /* (SERVO_PWM_UseControl) */
 339:.\Generated_Source\PSoC5/SERVO_PWM.c ****         }
 340:.\Generated_Source\PSoC5/SERVO_PWM.c ****     #endif /* SERVO_PWM_CompareMode1SW */
 341:.\Generated_Source\PSoC5/SERVO_PWM.c **** 
 342:.\Generated_Source\PSoC5/SERVO_PWM.c **** #if (SERVO_PWM_CompareMode2SW)
 343:.\Generated_Source\PSoC5/SERVO_PWM.c **** 
 344:.\Generated_Source\PSoC5/SERVO_PWM.c **** 
 345:.\Generated_Source\PSoC5/SERVO_PWM.c ****     /*******************************************************************************
 346:.\Generated_Source\PSoC5/SERVO_PWM.c ****     * Function Name: SERVO_PWM_SetCompareMode2
 347:.\Generated_Source\PSoC5/SERVO_PWM.c ****     ********************************************************************************
 348:.\Generated_Source\PSoC5/SERVO_PWM.c ****     *
 349:.\Generated_Source\PSoC5/SERVO_PWM.c ****     * Summary:
 350:.\Generated_Source\PSoC5/SERVO_PWM.c ****     *  This function writes the Compare Mode for the pwm or pwm2 output
 351:.\Generated_Source\PSoC5/SERVO_PWM.c ****     *
 352:.\Generated_Source\PSoC5/SERVO_PWM.c ****     * Parameters:
 353:.\Generated_Source\PSoC5/SERVO_PWM.c ****     *  comparemode:  The new compare mode for the PWM output. Use the compare types
 354:.\Generated_Source\PSoC5/SERVO_PWM.c ****     *                defined in the H file as input arguments.
 355:.\Generated_Source\PSoC5/SERVO_PWM.c ****     *
 356:.\Generated_Source\PSoC5/SERVO_PWM.c ****     * Return:
 357:.\Generated_Source\PSoC5/SERVO_PWM.c ****     *  None
 358:.\Generated_Source\PSoC5/SERVO_PWM.c ****     *
ARM GAS  C:\Users\mitchell\AppData\Local\Temp\ccSVmm9L.s 			page 9


 359:.\Generated_Source\PSoC5/SERVO_PWM.c ****     *******************************************************************************/
 360:.\Generated_Source\PSoC5/SERVO_PWM.c ****     void SERVO_PWM_SetCompareMode2(uint8 comparemode) 
 361:.\Generated_Source\PSoC5/SERVO_PWM.c ****     {
 362:.\Generated_Source\PSoC5/SERVO_PWM.c **** 
 363:.\Generated_Source\PSoC5/SERVO_PWM.c ****         #if(0 != SERVO_PWM_CTRL_CMPMODE2_SHIFT)
 364:.\Generated_Source\PSoC5/SERVO_PWM.c ****             uint8 comparemodemasked = ((uint8)((uint8)comparemode << SERVO_PWM_CTRL_CMPMODE2_SHIFT)
 365:.\Generated_Source\PSoC5/SERVO_PWM.c ****                                                  SERVO_PWM_CTRL_CMPMODE2_MASK;
 366:.\Generated_Source\PSoC5/SERVO_PWM.c ****         #else
 367:.\Generated_Source\PSoC5/SERVO_PWM.c ****             uint8 comparemodemasked = comparemode & SERVO_PWM_CTRL_CMPMODE2_MASK;
 368:.\Generated_Source\PSoC5/SERVO_PWM.c ****         #endif /* (0 != SERVO_PWM_CTRL_CMPMODE2_SHIFT) */
 369:.\Generated_Source\PSoC5/SERVO_PWM.c **** 
 370:.\Generated_Source\PSoC5/SERVO_PWM.c ****         #if (SERVO_PWM_UseControl)
 371:.\Generated_Source\PSoC5/SERVO_PWM.c ****             SERVO_PWM_CONTROL &= ((uint8)(~SERVO_PWM_CTRL_CMPMODE2_MASK)); /*Clear existing mode */
 372:.\Generated_Source\PSoC5/SERVO_PWM.c ****             SERVO_PWM_CONTROL |= comparemodemasked;
 373:.\Generated_Source\PSoC5/SERVO_PWM.c ****         #endif /* (SERVO_PWM_UseControl) */
 374:.\Generated_Source\PSoC5/SERVO_PWM.c ****     }
 375:.\Generated_Source\PSoC5/SERVO_PWM.c ****     #endif /*SERVO_PWM_CompareMode2SW */
 376:.\Generated_Source\PSoC5/SERVO_PWM.c **** 
 377:.\Generated_Source\PSoC5/SERVO_PWM.c **** #endif /* UseOneCompareMode */
 378:.\Generated_Source\PSoC5/SERVO_PWM.c **** 
 379:.\Generated_Source\PSoC5/SERVO_PWM.c **** 
 380:.\Generated_Source\PSoC5/SERVO_PWM.c **** #if (!SERVO_PWM_UsingFixedFunction)
 381:.\Generated_Source\PSoC5/SERVO_PWM.c **** 
 382:.\Generated_Source\PSoC5/SERVO_PWM.c **** 
 383:.\Generated_Source\PSoC5/SERVO_PWM.c ****     /*******************************************************************************
 384:.\Generated_Source\PSoC5/SERVO_PWM.c ****     * Function Name: SERVO_PWM_WriteCounter
 385:.\Generated_Source\PSoC5/SERVO_PWM.c ****     ********************************************************************************
 386:.\Generated_Source\PSoC5/SERVO_PWM.c ****     *
 387:.\Generated_Source\PSoC5/SERVO_PWM.c ****     * Summary:
 388:.\Generated_Source\PSoC5/SERVO_PWM.c ****     *  Writes a new counter value directly to the counter register. This will be
 389:.\Generated_Source\PSoC5/SERVO_PWM.c ****     *  implemented for that currently running period and only that period. This API
 390:.\Generated_Source\PSoC5/SERVO_PWM.c ****     *  is valid only for UDB implementation and not available for fixed function
 391:.\Generated_Source\PSoC5/SERVO_PWM.c ****     *  PWM implementation.
 392:.\Generated_Source\PSoC5/SERVO_PWM.c ****     *
 393:.\Generated_Source\PSoC5/SERVO_PWM.c ****     * Parameters:
 394:.\Generated_Source\PSoC5/SERVO_PWM.c ****     *  counter:  The period new period counter value.
 395:.\Generated_Source\PSoC5/SERVO_PWM.c ****     *
 396:.\Generated_Source\PSoC5/SERVO_PWM.c ****     * Return:
 397:.\Generated_Source\PSoC5/SERVO_PWM.c ****     *  None
 398:.\Generated_Source\PSoC5/SERVO_PWM.c ****     *
 399:.\Generated_Source\PSoC5/SERVO_PWM.c ****     * Side Effects:
 400:.\Generated_Source\PSoC5/SERVO_PWM.c ****     *  The PWM Period will be reloaded when a counter value will be a zero
 401:.\Generated_Source\PSoC5/SERVO_PWM.c ****     *
 402:.\Generated_Source\PSoC5/SERVO_PWM.c ****     *******************************************************************************/
 403:.\Generated_Source\PSoC5/SERVO_PWM.c ****     void SERVO_PWM_WriteCounter(uint16 counter) \
 404:.\Generated_Source\PSoC5/SERVO_PWM.c ****                                        
 405:.\Generated_Source\PSoC5/SERVO_PWM.c ****     {
 406:.\Generated_Source\PSoC5/SERVO_PWM.c ****         CY_SET_REG16(SERVO_PWM_COUNTER_LSB_PTR, counter);
 407:.\Generated_Source\PSoC5/SERVO_PWM.c ****     }
 408:.\Generated_Source\PSoC5/SERVO_PWM.c **** 
 409:.\Generated_Source\PSoC5/SERVO_PWM.c **** 
 410:.\Generated_Source\PSoC5/SERVO_PWM.c ****     /*******************************************************************************
 411:.\Generated_Source\PSoC5/SERVO_PWM.c ****     * Function Name: SERVO_PWM_ReadCounter
 412:.\Generated_Source\PSoC5/SERVO_PWM.c ****     ********************************************************************************
 413:.\Generated_Source\PSoC5/SERVO_PWM.c ****     *
 414:.\Generated_Source\PSoC5/SERVO_PWM.c ****     * Summary:
 415:.\Generated_Source\PSoC5/SERVO_PWM.c ****     *  This function returns the current value of the counter.  It doesn't matter
ARM GAS  C:\Users\mitchell\AppData\Local\Temp\ccSVmm9L.s 			page 10


 416:.\Generated_Source\PSoC5/SERVO_PWM.c ****     *  if the counter is enabled or running.
 417:.\Generated_Source\PSoC5/SERVO_PWM.c ****     *
 418:.\Generated_Source\PSoC5/SERVO_PWM.c ****     * Parameters:
 419:.\Generated_Source\PSoC5/SERVO_PWM.c ****     *  None
 420:.\Generated_Source\PSoC5/SERVO_PWM.c ****     *
 421:.\Generated_Source\PSoC5/SERVO_PWM.c ****     * Return:
 422:.\Generated_Source\PSoC5/SERVO_PWM.c ****     *  The current value of the counter.
 423:.\Generated_Source\PSoC5/SERVO_PWM.c ****     *
 424:.\Generated_Source\PSoC5/SERVO_PWM.c ****     *******************************************************************************/
 425:.\Generated_Source\PSoC5/SERVO_PWM.c ****     uint16 SERVO_PWM_ReadCounter(void) 
 426:.\Generated_Source\PSoC5/SERVO_PWM.c ****     {
 427:.\Generated_Source\PSoC5/SERVO_PWM.c ****         /* Force capture by reading Accumulator */
 428:.\Generated_Source\PSoC5/SERVO_PWM.c ****         /* Must first do a software capture to be able to read the counter */
 429:.\Generated_Source\PSoC5/SERVO_PWM.c ****         /* It is up to the user code to make sure there isn't already captured data in the FIFO */
 430:.\Generated_Source\PSoC5/SERVO_PWM.c ****           (void)CY_GET_REG8(SERVO_PWM_COUNTERCAP_LSB_PTR_8BIT);
 431:.\Generated_Source\PSoC5/SERVO_PWM.c **** 
 432:.\Generated_Source\PSoC5/SERVO_PWM.c ****         /* Read the data from the FIFO */
 433:.\Generated_Source\PSoC5/SERVO_PWM.c ****         return (CY_GET_REG16(SERVO_PWM_CAPTURE_LSB_PTR));
 434:.\Generated_Source\PSoC5/SERVO_PWM.c ****     }
 435:.\Generated_Source\PSoC5/SERVO_PWM.c **** 
 436:.\Generated_Source\PSoC5/SERVO_PWM.c ****     #if (SERVO_PWM_UseStatus)
 437:.\Generated_Source\PSoC5/SERVO_PWM.c **** 
 438:.\Generated_Source\PSoC5/SERVO_PWM.c **** 
 439:.\Generated_Source\PSoC5/SERVO_PWM.c ****         /*******************************************************************************
 440:.\Generated_Source\PSoC5/SERVO_PWM.c ****         * Function Name: SERVO_PWM_ClearFIFO
 441:.\Generated_Source\PSoC5/SERVO_PWM.c ****         ********************************************************************************
 442:.\Generated_Source\PSoC5/SERVO_PWM.c ****         *
 443:.\Generated_Source\PSoC5/SERVO_PWM.c ****         * Summary:
 444:.\Generated_Source\PSoC5/SERVO_PWM.c ****         *  This function clears all capture data from the capture FIFO
 445:.\Generated_Source\PSoC5/SERVO_PWM.c ****         *
 446:.\Generated_Source\PSoC5/SERVO_PWM.c ****         * Parameters:
 447:.\Generated_Source\PSoC5/SERVO_PWM.c ****         *  None
 448:.\Generated_Source\PSoC5/SERVO_PWM.c ****         *
 449:.\Generated_Source\PSoC5/SERVO_PWM.c ****         * Return:
 450:.\Generated_Source\PSoC5/SERVO_PWM.c ****         *  None
 451:.\Generated_Source\PSoC5/SERVO_PWM.c ****         *
 452:.\Generated_Source\PSoC5/SERVO_PWM.c ****         *******************************************************************************/
 453:.\Generated_Source\PSoC5/SERVO_PWM.c ****         void SERVO_PWM_ClearFIFO(void) 
 454:.\Generated_Source\PSoC5/SERVO_PWM.c ****         {
 455:.\Generated_Source\PSoC5/SERVO_PWM.c ****             while(0u != (SERVO_PWM_ReadStatusRegister() & SERVO_PWM_STATUS_FIFONEMPTY))
 456:.\Generated_Source\PSoC5/SERVO_PWM.c ****             {
 457:.\Generated_Source\PSoC5/SERVO_PWM.c ****                 (void)SERVO_PWM_ReadCapture();
 458:.\Generated_Source\PSoC5/SERVO_PWM.c ****             }
 459:.\Generated_Source\PSoC5/SERVO_PWM.c ****         }
 460:.\Generated_Source\PSoC5/SERVO_PWM.c **** 
 461:.\Generated_Source\PSoC5/SERVO_PWM.c ****     #endif /* SERVO_PWM_UseStatus */
 462:.\Generated_Source\PSoC5/SERVO_PWM.c **** 
 463:.\Generated_Source\PSoC5/SERVO_PWM.c **** #endif /* !SERVO_PWM_UsingFixedFunction */
 464:.\Generated_Source\PSoC5/SERVO_PWM.c **** 
 465:.\Generated_Source\PSoC5/SERVO_PWM.c **** 
 466:.\Generated_Source\PSoC5/SERVO_PWM.c **** /*******************************************************************************
 467:.\Generated_Source\PSoC5/SERVO_PWM.c **** * Function Name: SERVO_PWM_WritePeriod
 468:.\Generated_Source\PSoC5/SERVO_PWM.c **** ********************************************************************************
 469:.\Generated_Source\PSoC5/SERVO_PWM.c **** *
 470:.\Generated_Source\PSoC5/SERVO_PWM.c **** * Summary:
 471:.\Generated_Source\PSoC5/SERVO_PWM.c **** *  This function is used to change the period of the counter.  The new period
 472:.\Generated_Source\PSoC5/SERVO_PWM.c **** *  will be loaded the next time terminal count is detected.
ARM GAS  C:\Users\mitchell\AppData\Local\Temp\ccSVmm9L.s 			page 11


 473:.\Generated_Source\PSoC5/SERVO_PWM.c **** *
 474:.\Generated_Source\PSoC5/SERVO_PWM.c **** * Parameters:
 475:.\Generated_Source\PSoC5/SERVO_PWM.c **** *  period:  Period value. May be between 1 and (2^Resolution)-1.  A value of 0
 476:.\Generated_Source\PSoC5/SERVO_PWM.c **** *           will result in the counter remaining at zero.
 477:.\Generated_Source\PSoC5/SERVO_PWM.c **** *
 478:.\Generated_Source\PSoC5/SERVO_PWM.c **** * Return:
 479:.\Generated_Source\PSoC5/SERVO_PWM.c **** *  None
 480:.\Generated_Source\PSoC5/SERVO_PWM.c **** *
 481:.\Generated_Source\PSoC5/SERVO_PWM.c **** *******************************************************************************/
 482:.\Generated_Source\PSoC5/SERVO_PWM.c **** void SERVO_PWM_WritePeriod(uint16 period) 
 483:.\Generated_Source\PSoC5/SERVO_PWM.c **** {
  99              		.loc 1 483 0
 100              		.cfi_startproc
 101              		@ args = 0, pretend = 0, frame = 0
 102              		@ frame_needed = 0, uses_anonymous_args = 0
 103              		@ link register save eliminated.
 104              	.LVL0:
 484:.\Generated_Source\PSoC5/SERVO_PWM.c ****     #if(SERVO_PWM_UsingFixedFunction)
 485:.\Generated_Source\PSoC5/SERVO_PWM.c ****         CY_SET_REG16(SERVO_PWM_PERIOD_LSB_PTR, (uint16)period);
 105              		.loc 1 485 0
 106 0000 014B     		ldr	r3, .L8
 107 0002 1880     		strh	r0, [r3]	@ movhi
 108 0004 7047     		bx	lr
 109              	.L9:
 110 0006 00BF     		.align	2
 111              	.L8:
 112 0008 044F0040 		.word	1073762052
 113              		.cfi_endproc
 114              	.LFE4:
 115              		.size	SERVO_PWM_WritePeriod, .-SERVO_PWM_WritePeriod
 116              		.section	.text.SERVO_PWM_WriteCompare,"ax",%progbits
 117              		.align	2
 118              		.global	SERVO_PWM_WriteCompare
 119              		.thumb
 120              		.thumb_func
 121              		.type	SERVO_PWM_WriteCompare, %function
 122              	SERVO_PWM_WriteCompare:
 123              	.LFB5:
 486:.\Generated_Source\PSoC5/SERVO_PWM.c ****     #else
 487:.\Generated_Source\PSoC5/SERVO_PWM.c ****         CY_SET_REG16(SERVO_PWM_PERIOD_LSB_PTR, period);
 488:.\Generated_Source\PSoC5/SERVO_PWM.c ****     #endif /* (SERVO_PWM_UsingFixedFunction) */
 489:.\Generated_Source\PSoC5/SERVO_PWM.c **** }
 490:.\Generated_Source\PSoC5/SERVO_PWM.c **** 
 491:.\Generated_Source\PSoC5/SERVO_PWM.c **** #if (SERVO_PWM_UseOneCompareMode)
 492:.\Generated_Source\PSoC5/SERVO_PWM.c **** 
 493:.\Generated_Source\PSoC5/SERVO_PWM.c **** 
 494:.\Generated_Source\PSoC5/SERVO_PWM.c ****     /*******************************************************************************
 495:.\Generated_Source\PSoC5/SERVO_PWM.c ****     * Function Name: SERVO_PWM_WriteCompare
 496:.\Generated_Source\PSoC5/SERVO_PWM.c ****     ********************************************************************************
 497:.\Generated_Source\PSoC5/SERVO_PWM.c ****     *
 498:.\Generated_Source\PSoC5/SERVO_PWM.c ****     * Summary:
 499:.\Generated_Source\PSoC5/SERVO_PWM.c ****     *  This funtion is used to change the compare1 value when the PWM is in Dither
 500:.\Generated_Source\PSoC5/SERVO_PWM.c ****     *  mode. The compare output will reflect the new value on the next UDB clock.
 501:.\Generated_Source\PSoC5/SERVO_PWM.c ****     *  The compare output will be driven high when the present counter value is
 502:.\Generated_Source\PSoC5/SERVO_PWM.c ****     *  compared to the compare value based on the compare mode defined in
 503:.\Generated_Source\PSoC5/SERVO_PWM.c ****     *  Dither Mode.
 504:.\Generated_Source\PSoC5/SERVO_PWM.c ****     *
ARM GAS  C:\Users\mitchell\AppData\Local\Temp\ccSVmm9L.s 			page 12


 505:.\Generated_Source\PSoC5/SERVO_PWM.c ****     * Parameters:
 506:.\Generated_Source\PSoC5/SERVO_PWM.c ****     *  compare:  New compare value.
 507:.\Generated_Source\PSoC5/SERVO_PWM.c ****     *
 508:.\Generated_Source\PSoC5/SERVO_PWM.c ****     * Return:
 509:.\Generated_Source\PSoC5/SERVO_PWM.c ****     *  None
 510:.\Generated_Source\PSoC5/SERVO_PWM.c ****     *
 511:.\Generated_Source\PSoC5/SERVO_PWM.c ****     * Side Effects:
 512:.\Generated_Source\PSoC5/SERVO_PWM.c ****     *  This function is only available if the PWM mode parameter is set to
 513:.\Generated_Source\PSoC5/SERVO_PWM.c ****     *  Dither Mode, Center Aligned Mode or One Output Mode
 514:.\Generated_Source\PSoC5/SERVO_PWM.c ****     *
 515:.\Generated_Source\PSoC5/SERVO_PWM.c ****     *******************************************************************************/
 516:.\Generated_Source\PSoC5/SERVO_PWM.c ****     void SERVO_PWM_WriteCompare(uint16 compare) \
 517:.\Generated_Source\PSoC5/SERVO_PWM.c ****                                        
 518:.\Generated_Source\PSoC5/SERVO_PWM.c ****     {
 124              		.loc 1 518 0
 125              		.cfi_startproc
 126              		@ args = 0, pretend = 0, frame = 0
 127              		@ frame_needed = 0, uses_anonymous_args = 0
 128              		@ link register save eliminated.
 129              	.LVL1:
 519:.\Generated_Source\PSoC5/SERVO_PWM.c ****         #if(SERVO_PWM_UsingFixedFunction)
 520:.\Generated_Source\PSoC5/SERVO_PWM.c ****             CY_SET_REG16(SERVO_PWM_COMPARE1_LSB_PTR, (uint16)compare);
 130              		.loc 1 520 0
 131 0000 014B     		ldr	r3, .L11
 132 0002 1880     		strh	r0, [r3]	@ movhi
 133 0004 7047     		bx	lr
 134              	.L12:
 135 0006 00BF     		.align	2
 136              	.L11:
 137 0008 064F0040 		.word	1073762054
 138              		.cfi_endproc
 139              	.LFE5:
 140              		.size	SERVO_PWM_WriteCompare, .-SERVO_PWM_WriteCompare
 141              		.section	.text.SERVO_PWM_SetInterruptMode,"ax",%progbits
 142              		.align	2
 143              		.global	SERVO_PWM_SetInterruptMode
 144              		.thumb
 145              		.thumb_func
 146              		.type	SERVO_PWM_SetInterruptMode, %function
 147              	SERVO_PWM_SetInterruptMode:
 148              	.LFB6:
 521:.\Generated_Source\PSoC5/SERVO_PWM.c ****         #else
 522:.\Generated_Source\PSoC5/SERVO_PWM.c ****             CY_SET_REG16(SERVO_PWM_COMPARE1_LSB_PTR, compare);
 523:.\Generated_Source\PSoC5/SERVO_PWM.c ****         #endif /* (SERVO_PWM_UsingFixedFunction) */
 524:.\Generated_Source\PSoC5/SERVO_PWM.c **** 
 525:.\Generated_Source\PSoC5/SERVO_PWM.c ****         #if (SERVO_PWM_PWMMode == SERVO_PWM__B_PWM__DITHER)
 526:.\Generated_Source\PSoC5/SERVO_PWM.c ****             #if(SERVO_PWM_UsingFixedFunction)
 527:.\Generated_Source\PSoC5/SERVO_PWM.c ****                 CY_SET_REG16(SERVO_PWM_COMPARE2_LSB_PTR, (uint16)(compare + 1u));
 528:.\Generated_Source\PSoC5/SERVO_PWM.c ****             #else
 529:.\Generated_Source\PSoC5/SERVO_PWM.c ****                 CY_SET_REG16(SERVO_PWM_COMPARE2_LSB_PTR, (compare + 1u));
 530:.\Generated_Source\PSoC5/SERVO_PWM.c ****             #endif /* (SERVO_PWM_UsingFixedFunction) */
 531:.\Generated_Source\PSoC5/SERVO_PWM.c ****         #endif /* (SERVO_PWM_PWMMode == SERVO_PWM__B_PWM__DITHER) */
 532:.\Generated_Source\PSoC5/SERVO_PWM.c ****     }
 533:.\Generated_Source\PSoC5/SERVO_PWM.c **** 
 534:.\Generated_Source\PSoC5/SERVO_PWM.c **** 
 535:.\Generated_Source\PSoC5/SERVO_PWM.c **** #else
 536:.\Generated_Source\PSoC5/SERVO_PWM.c **** 
ARM GAS  C:\Users\mitchell\AppData\Local\Temp\ccSVmm9L.s 			page 13


 537:.\Generated_Source\PSoC5/SERVO_PWM.c **** 
 538:.\Generated_Source\PSoC5/SERVO_PWM.c ****     /*******************************************************************************
 539:.\Generated_Source\PSoC5/SERVO_PWM.c ****     * Function Name: SERVO_PWM_WriteCompare1
 540:.\Generated_Source\PSoC5/SERVO_PWM.c ****     ********************************************************************************
 541:.\Generated_Source\PSoC5/SERVO_PWM.c ****     *
 542:.\Generated_Source\PSoC5/SERVO_PWM.c ****     * Summary:
 543:.\Generated_Source\PSoC5/SERVO_PWM.c ****     *  This funtion is used to change the compare1 value.  The compare output will
 544:.\Generated_Source\PSoC5/SERVO_PWM.c ****     *  reflect the new value on the next UDB clock.  The compare output will be
 545:.\Generated_Source\PSoC5/SERVO_PWM.c ****     *  driven high when the present counter value is less than or less than or
 546:.\Generated_Source\PSoC5/SERVO_PWM.c ****     *  equal to the compare register, depending on the mode.
 547:.\Generated_Source\PSoC5/SERVO_PWM.c ****     *
 548:.\Generated_Source\PSoC5/SERVO_PWM.c ****     * Parameters:
 549:.\Generated_Source\PSoC5/SERVO_PWM.c ****     *  compare:  New compare value.
 550:.\Generated_Source\PSoC5/SERVO_PWM.c ****     *
 551:.\Generated_Source\PSoC5/SERVO_PWM.c ****     * Return:
 552:.\Generated_Source\PSoC5/SERVO_PWM.c ****     *  None
 553:.\Generated_Source\PSoC5/SERVO_PWM.c ****     *
 554:.\Generated_Source\PSoC5/SERVO_PWM.c ****     *******************************************************************************/
 555:.\Generated_Source\PSoC5/SERVO_PWM.c ****     void SERVO_PWM_WriteCompare1(uint16 compare) \
 556:.\Generated_Source\PSoC5/SERVO_PWM.c ****                                         
 557:.\Generated_Source\PSoC5/SERVO_PWM.c ****     {
 558:.\Generated_Source\PSoC5/SERVO_PWM.c ****         #if(SERVO_PWM_UsingFixedFunction)
 559:.\Generated_Source\PSoC5/SERVO_PWM.c ****             CY_SET_REG16(SERVO_PWM_COMPARE1_LSB_PTR, (uint16)compare);
 560:.\Generated_Source\PSoC5/SERVO_PWM.c ****         #else
 561:.\Generated_Source\PSoC5/SERVO_PWM.c ****             CY_SET_REG16(SERVO_PWM_COMPARE1_LSB_PTR, compare);
 562:.\Generated_Source\PSoC5/SERVO_PWM.c ****         #endif /* (SERVO_PWM_UsingFixedFunction) */
 563:.\Generated_Source\PSoC5/SERVO_PWM.c ****     }
 564:.\Generated_Source\PSoC5/SERVO_PWM.c **** 
 565:.\Generated_Source\PSoC5/SERVO_PWM.c **** 
 566:.\Generated_Source\PSoC5/SERVO_PWM.c ****     /*******************************************************************************
 567:.\Generated_Source\PSoC5/SERVO_PWM.c ****     * Function Name: SERVO_PWM_WriteCompare2
 568:.\Generated_Source\PSoC5/SERVO_PWM.c ****     ********************************************************************************
 569:.\Generated_Source\PSoC5/SERVO_PWM.c ****     *
 570:.\Generated_Source\PSoC5/SERVO_PWM.c ****     * Summary:
 571:.\Generated_Source\PSoC5/SERVO_PWM.c ****     *  This funtion is used to change the compare value, for compare1 output.
 572:.\Generated_Source\PSoC5/SERVO_PWM.c ****     *  The compare output will reflect the new value on the next UDB clock.
 573:.\Generated_Source\PSoC5/SERVO_PWM.c ****     *  The compare output will be driven high when the present counter value is
 574:.\Generated_Source\PSoC5/SERVO_PWM.c ****     *  less than or less than or equal to the compare register, depending on the
 575:.\Generated_Source\PSoC5/SERVO_PWM.c ****     *  mode.
 576:.\Generated_Source\PSoC5/SERVO_PWM.c ****     *
 577:.\Generated_Source\PSoC5/SERVO_PWM.c ****     * Parameters:
 578:.\Generated_Source\PSoC5/SERVO_PWM.c ****     *  compare:  New compare value.
 579:.\Generated_Source\PSoC5/SERVO_PWM.c ****     *
 580:.\Generated_Source\PSoC5/SERVO_PWM.c ****     * Return:
 581:.\Generated_Source\PSoC5/SERVO_PWM.c ****     *  None
 582:.\Generated_Source\PSoC5/SERVO_PWM.c ****     *
 583:.\Generated_Source\PSoC5/SERVO_PWM.c ****     *******************************************************************************/
 584:.\Generated_Source\PSoC5/SERVO_PWM.c ****     void SERVO_PWM_WriteCompare2(uint16 compare) \
 585:.\Generated_Source\PSoC5/SERVO_PWM.c ****                                         
 586:.\Generated_Source\PSoC5/SERVO_PWM.c ****     {
 587:.\Generated_Source\PSoC5/SERVO_PWM.c ****         #if(SERVO_PWM_UsingFixedFunction)
 588:.\Generated_Source\PSoC5/SERVO_PWM.c ****             CY_SET_REG16(SERVO_PWM_COMPARE2_LSB_PTR, compare);
 589:.\Generated_Source\PSoC5/SERVO_PWM.c ****         #else
 590:.\Generated_Source\PSoC5/SERVO_PWM.c ****             CY_SET_REG16(SERVO_PWM_COMPARE2_LSB_PTR, compare);
 591:.\Generated_Source\PSoC5/SERVO_PWM.c ****         #endif /* (SERVO_PWM_UsingFixedFunction) */
 592:.\Generated_Source\PSoC5/SERVO_PWM.c ****     }
 593:.\Generated_Source\PSoC5/SERVO_PWM.c **** #endif /* UseOneCompareMode */
ARM GAS  C:\Users\mitchell\AppData\Local\Temp\ccSVmm9L.s 			page 14


 594:.\Generated_Source\PSoC5/SERVO_PWM.c **** 
 595:.\Generated_Source\PSoC5/SERVO_PWM.c **** #if (SERVO_PWM_DeadBandUsed)
 596:.\Generated_Source\PSoC5/SERVO_PWM.c **** 
 597:.\Generated_Source\PSoC5/SERVO_PWM.c **** 
 598:.\Generated_Source\PSoC5/SERVO_PWM.c ****     /*******************************************************************************
 599:.\Generated_Source\PSoC5/SERVO_PWM.c ****     * Function Name: SERVO_PWM_WriteDeadTime
 600:.\Generated_Source\PSoC5/SERVO_PWM.c ****     ********************************************************************************
 601:.\Generated_Source\PSoC5/SERVO_PWM.c ****     *
 602:.\Generated_Source\PSoC5/SERVO_PWM.c ****     * Summary:
 603:.\Generated_Source\PSoC5/SERVO_PWM.c ****     *  This function writes the dead-band counts to the corresponding register
 604:.\Generated_Source\PSoC5/SERVO_PWM.c ****     *
 605:.\Generated_Source\PSoC5/SERVO_PWM.c ****     * Parameters:
 606:.\Generated_Source\PSoC5/SERVO_PWM.c ****     *  deadtime:  Number of counts for dead time
 607:.\Generated_Source\PSoC5/SERVO_PWM.c ****     *
 608:.\Generated_Source\PSoC5/SERVO_PWM.c ****     * Return:
 609:.\Generated_Source\PSoC5/SERVO_PWM.c ****     *  None
 610:.\Generated_Source\PSoC5/SERVO_PWM.c ****     *
 611:.\Generated_Source\PSoC5/SERVO_PWM.c ****     *******************************************************************************/
 612:.\Generated_Source\PSoC5/SERVO_PWM.c ****     void SERVO_PWM_WriteDeadTime(uint8 deadtime) 
 613:.\Generated_Source\PSoC5/SERVO_PWM.c ****     {
 614:.\Generated_Source\PSoC5/SERVO_PWM.c ****         /* If using the Dead Band 1-255 mode then just write the register */
 615:.\Generated_Source\PSoC5/SERVO_PWM.c ****         #if(!SERVO_PWM_DeadBand2_4)
 616:.\Generated_Source\PSoC5/SERVO_PWM.c ****             CY_SET_REG8(SERVO_PWM_DEADBAND_COUNT_PTR, deadtime);
 617:.\Generated_Source\PSoC5/SERVO_PWM.c ****         #else
 618:.\Generated_Source\PSoC5/SERVO_PWM.c ****             /* Otherwise the data has to be masked and offset */
 619:.\Generated_Source\PSoC5/SERVO_PWM.c ****             /* Clear existing data */
 620:.\Generated_Source\PSoC5/SERVO_PWM.c ****             SERVO_PWM_DEADBAND_COUNT &= ((uint8)(~SERVO_PWM_DEADBAND_COUNT_MASK));
 621:.\Generated_Source\PSoC5/SERVO_PWM.c **** 
 622:.\Generated_Source\PSoC5/SERVO_PWM.c ****             /* Set new dead time */
 623:.\Generated_Source\PSoC5/SERVO_PWM.c ****             #if(SERVO_PWM_DEADBAND_COUNT_SHIFT)
 624:.\Generated_Source\PSoC5/SERVO_PWM.c ****                 SERVO_PWM_DEADBAND_COUNT |= ((uint8)((uint8)deadtime << SERVO_PWM_DEADBAND_COUNT_SH
 625:.\Generated_Source\PSoC5/SERVO_PWM.c ****                                                     SERVO_PWM_DEADBAND_COUNT_MASK;
 626:.\Generated_Source\PSoC5/SERVO_PWM.c ****             #else
 627:.\Generated_Source\PSoC5/SERVO_PWM.c ****                 SERVO_PWM_DEADBAND_COUNT |= deadtime & SERVO_PWM_DEADBAND_COUNT_MASK;
 628:.\Generated_Source\PSoC5/SERVO_PWM.c ****             #endif /* (SERVO_PWM_DEADBAND_COUNT_SHIFT) */
 629:.\Generated_Source\PSoC5/SERVO_PWM.c **** 
 630:.\Generated_Source\PSoC5/SERVO_PWM.c ****         #endif /* (!SERVO_PWM_DeadBand2_4) */
 631:.\Generated_Source\PSoC5/SERVO_PWM.c ****     }
 632:.\Generated_Source\PSoC5/SERVO_PWM.c **** 
 633:.\Generated_Source\PSoC5/SERVO_PWM.c **** 
 634:.\Generated_Source\PSoC5/SERVO_PWM.c ****     /*******************************************************************************
 635:.\Generated_Source\PSoC5/SERVO_PWM.c ****     * Function Name: SERVO_PWM_ReadDeadTime
 636:.\Generated_Source\PSoC5/SERVO_PWM.c ****     ********************************************************************************
 637:.\Generated_Source\PSoC5/SERVO_PWM.c ****     *
 638:.\Generated_Source\PSoC5/SERVO_PWM.c ****     * Summary:
 639:.\Generated_Source\PSoC5/SERVO_PWM.c ****     *  This function reads the dead-band counts from the corresponding register
 640:.\Generated_Source\PSoC5/SERVO_PWM.c ****     *
 641:.\Generated_Source\PSoC5/SERVO_PWM.c ****     * Parameters:
 642:.\Generated_Source\PSoC5/SERVO_PWM.c ****     *  None
 643:.\Generated_Source\PSoC5/SERVO_PWM.c ****     *
 644:.\Generated_Source\PSoC5/SERVO_PWM.c ****     * Return:
 645:.\Generated_Source\PSoC5/SERVO_PWM.c ****     *  Dead Band Counts
 646:.\Generated_Source\PSoC5/SERVO_PWM.c ****     *
 647:.\Generated_Source\PSoC5/SERVO_PWM.c ****     *******************************************************************************/
 648:.\Generated_Source\PSoC5/SERVO_PWM.c ****     uint8 SERVO_PWM_ReadDeadTime(void) 
 649:.\Generated_Source\PSoC5/SERVO_PWM.c ****     {
 650:.\Generated_Source\PSoC5/SERVO_PWM.c ****         /* If using the Dead Band 1-255 mode then just read the register */
ARM GAS  C:\Users\mitchell\AppData\Local\Temp\ccSVmm9L.s 			page 15


 651:.\Generated_Source\PSoC5/SERVO_PWM.c ****         #if(!SERVO_PWM_DeadBand2_4)
 652:.\Generated_Source\PSoC5/SERVO_PWM.c ****             return (CY_GET_REG8(SERVO_PWM_DEADBAND_COUNT_PTR));
 653:.\Generated_Source\PSoC5/SERVO_PWM.c ****         #else
 654:.\Generated_Source\PSoC5/SERVO_PWM.c **** 
 655:.\Generated_Source\PSoC5/SERVO_PWM.c ****             /* Otherwise the data has to be masked and offset */
 656:.\Generated_Source\PSoC5/SERVO_PWM.c ****             #if(SERVO_PWM_DEADBAND_COUNT_SHIFT)
 657:.\Generated_Source\PSoC5/SERVO_PWM.c ****                 return ((uint8)(((uint8)(SERVO_PWM_DEADBAND_COUNT & SERVO_PWM_DEADBAND_COUNT_MASK))
 658:.\Generated_Source\PSoC5/SERVO_PWM.c ****                                                                            SERVO_PWM_DEADBAND_COUNT
 659:.\Generated_Source\PSoC5/SERVO_PWM.c ****             #else
 660:.\Generated_Source\PSoC5/SERVO_PWM.c ****                 return (SERVO_PWM_DEADBAND_COUNT & SERVO_PWM_DEADBAND_COUNT_MASK);
 661:.\Generated_Source\PSoC5/SERVO_PWM.c ****             #endif /* (SERVO_PWM_DEADBAND_COUNT_SHIFT) */
 662:.\Generated_Source\PSoC5/SERVO_PWM.c ****         #endif /* (!SERVO_PWM_DeadBand2_4) */
 663:.\Generated_Source\PSoC5/SERVO_PWM.c ****     }
 664:.\Generated_Source\PSoC5/SERVO_PWM.c **** #endif /* DeadBandUsed */
 665:.\Generated_Source\PSoC5/SERVO_PWM.c **** 
 666:.\Generated_Source\PSoC5/SERVO_PWM.c **** #if (SERVO_PWM_UseStatus || SERVO_PWM_UsingFixedFunction)
 667:.\Generated_Source\PSoC5/SERVO_PWM.c **** 
 668:.\Generated_Source\PSoC5/SERVO_PWM.c **** 
 669:.\Generated_Source\PSoC5/SERVO_PWM.c ****     /*******************************************************************************
 670:.\Generated_Source\PSoC5/SERVO_PWM.c ****     * Function Name: SERVO_PWM_SetInterruptMode
 671:.\Generated_Source\PSoC5/SERVO_PWM.c ****     ********************************************************************************
 672:.\Generated_Source\PSoC5/SERVO_PWM.c ****     *
 673:.\Generated_Source\PSoC5/SERVO_PWM.c ****     * Summary:
 674:.\Generated_Source\PSoC5/SERVO_PWM.c ****     *  This function configures the interrupts mask control of theinterrupt
 675:.\Generated_Source\PSoC5/SERVO_PWM.c ****     *  source status register.
 676:.\Generated_Source\PSoC5/SERVO_PWM.c ****     *
 677:.\Generated_Source\PSoC5/SERVO_PWM.c ****     * Parameters:
 678:.\Generated_Source\PSoC5/SERVO_PWM.c ****     *  uint8 interruptMode: Bit field containing the interrupt sources enabled
 679:.\Generated_Source\PSoC5/SERVO_PWM.c ****     *
 680:.\Generated_Source\PSoC5/SERVO_PWM.c ****     * Return:
 681:.\Generated_Source\PSoC5/SERVO_PWM.c ****     *  None
 682:.\Generated_Source\PSoC5/SERVO_PWM.c ****     *
 683:.\Generated_Source\PSoC5/SERVO_PWM.c ****     *******************************************************************************/
 684:.\Generated_Source\PSoC5/SERVO_PWM.c ****     void SERVO_PWM_SetInterruptMode(uint8 interruptMode) 
 685:.\Generated_Source\PSoC5/SERVO_PWM.c ****     {
 149              		.loc 1 685 0
 150              		.cfi_startproc
 151              		@ args = 0, pretend = 0, frame = 0
 152              		@ frame_needed = 0, uses_anonymous_args = 0
 153              		@ link register save eliminated.
 154              	.LVL2:
 686:.\Generated_Source\PSoC5/SERVO_PWM.c ****         CY_SET_REG8(SERVO_PWM_STATUS_MASK_PTR, interruptMode);
 155              		.loc 1 686 0
 156 0000 014B     		ldr	r3, .L14
 157 0002 1870     		strb	r0, [r3]
 158 0004 7047     		bx	lr
 159              	.L15:
 160 0006 00BF     		.align	2
 161              	.L14:
 162 0008 034F0040 		.word	1073762051
 163              		.cfi_endproc
 164              	.LFE6:
 165              		.size	SERVO_PWM_SetInterruptMode, .-SERVO_PWM_SetInterruptMode
 166              		.section	.text.SERVO_PWM_Init,"ax",%progbits
 167              		.align	2
 168              		.global	SERVO_PWM_Init
 169              		.thumb
ARM GAS  C:\Users\mitchell\AppData\Local\Temp\ccSVmm9L.s 			page 16


 170              		.thumb_func
 171              		.type	SERVO_PWM_Init, %function
 172              	SERVO_PWM_Init:
 173              	.LFB1:
  85:.\Generated_Source\PSoC5/SERVO_PWM.c ****     #if (SERVO_PWM_UsingFixedFunction || SERVO_PWM_UseControl)
 174              		.loc 1 85 0
 175              		.cfi_startproc
 176              		@ args = 0, pretend = 0, frame = 0
 177              		@ frame_needed = 0, uses_anonymous_args = 0
 178 0000 08B5     		push	{r3, lr}
 179              		.cfi_def_cfa_offset 8
 180              		.cfi_offset 3, -8
 181              		.cfi_offset 14, -4
  99:.\Generated_Source\PSoC5/SERVO_PWM.c ****         #if (SERVO_PWM_DeadBand2_4)
 182              		.loc 1 99 0
 183 0002 1A4A     		ldr	r2, .L18
 184 0004 1378     		ldrb	r3, [r2]	@ zero_extendqisi2
 185 0006 43F00203 		orr	r3, r3, #2
 186 000a 1370     		strb	r3, [r2]
 104:.\Generated_Source\PSoC5/SERVO_PWM.c ****         SERVO_PWM_CONTROL3 = ctrl | SERVO_PWM_DEFAULT_COMPARE1_MODE;
 187              		.loc 1 104 0
 188 000c 0232     		adds	r2, r2, #2
 189 000e 1378     		ldrb	r3, [r2]	@ zero_extendqisi2
 190 0010 03F08F03 		and	r3, r3, #143
 191              	.LVL3:
 105:.\Generated_Source\PSoC5/SERVO_PWM.c **** 
 192              		.loc 1 105 0
 193 0014 43F01003 		orr	r3, r3, #16
 194              	.LVL4:
 195 0018 1370     		strb	r3, [r2]
 108:.\Generated_Source\PSoC5/SERVO_PWM.c ****         SERVO_PWM_RT1 |= SERVO_PWM_SYNC;
 196              		.loc 1 108 0
 197 001a 154B     		ldr	r3, .L18+4
 198 001c 1A78     		ldrb	r2, [r3]	@ zero_extendqisi2
 199 001e 02F0CF02 		and	r2, r2, #207
 200 0022 1A70     		strb	r2, [r3]
 109:.\Generated_Source\PSoC5/SERVO_PWM.c **** 
 201              		.loc 1 109 0
 202 0024 1A78     		ldrb	r2, [r3]	@ zero_extendqisi2
 203 0026 42F03002 		orr	r2, r2, #48
 204 002a 1A70     		strb	r2, [r3]
 112:.\Generated_Source\PSoC5/SERVO_PWM.c ****         SERVO_PWM_RT1 |= SERVO_PWM_SYNCDSI_EN;
 205              		.loc 1 112 0
 206 002c 1A78     		ldrb	r2, [r3]	@ zero_extendqisi2
 207 002e 02F0F002 		and	r2, r2, #240
 208 0032 1A70     		strb	r2, [r3]
 113:.\Generated_Source\PSoC5/SERVO_PWM.c **** 
 209              		.loc 1 113 0
 210 0034 1A78     		ldrb	r2, [r3]	@ zero_extendqisi2
 211 0036 42F00F02 		orr	r2, r2, #15
 212 003a 1A70     		strb	r2, [r3]
 136:.\Generated_Source\PSoC5/SERVO_PWM.c **** 
 213              		.loc 1 136 0
 214 003c 4AF22700 		movw	r0, #40999
 215 0040 FFF7FEFF 		bl	SERVO_PWM_WritePeriod
 216              	.LVL5:
 139:.\Generated_Source\PSoC5/SERVO_PWM.c ****         #else
ARM GAS  C:\Users\mitchell\AppData\Local\Temp\ccSVmm9L.s 			page 17


 217              		.loc 1 139 0
 218 0044 4FF47A70 		mov	r0, #1000
 219 0048 FFF7FEFF 		bl	SERVO_PWM_WriteCompare
 220              	.LVL6:
 154:.\Generated_Source\PSoC5/SERVO_PWM.c ****     #endif /* (SERVO_PWM_UseStatus || SERVO_PWM_UsingFixedFunction) */
 221              		.loc 1 154 0
 222 004c 0020     		movs	r0, #0
 223 004e FFF7FEFF 		bl	SERVO_PWM_SetInterruptMode
 224              	.LVL7:
 159:.\Generated_Source\PSoC5/SERVO_PWM.c ****         /* Set the Interrupt source to come from the status register */
 225              		.loc 1 159 0
 226 0052 084A     		ldr	r2, .L18+8
 227 0054 1378     		ldrb	r3, [r2]	@ zero_extendqisi2
 228 0056 43F00103 		orr	r3, r3, #1
 229 005a 1370     		strb	r3, [r2]
 161:.\Generated_Source\PSoC5/SERVO_PWM.c ****     #else
 230              		.loc 1 161 0
 231 005c 02F65E32 		addw	r2, r2, #2910
 232 0060 1378     		ldrb	r3, [r2]	@ zero_extendqisi2
 233 0062 43F00103 		orr	r3, r3, #1
 234 0066 1370     		strb	r3, [r2]
 235 0068 08BD     		pop	{r3, pc}
 236              	.L19:
 237 006a 00BF     		.align	2
 238              	.L18:
 239 006c 004F0040 		.word	1073762048
 240 0070 0B4F0040 		.word	1073762059
 241 0074 A3430040 		.word	1073759139
 242              		.cfi_endproc
 243              	.LFE1:
 244              		.size	SERVO_PWM_Init, .-SERVO_PWM_Init
 245              		.section	.text.SERVO_PWM_Start,"ax",%progbits
 246              		.align	2
 247              		.global	SERVO_PWM_Start
 248              		.thumb
 249              		.thumb_func
 250              		.type	SERVO_PWM_Start, %function
 251              	SERVO_PWM_Start:
 252              	.LFB0:
  56:.\Generated_Source\PSoC5/SERVO_PWM.c ****     /* If not Initialized then initialize all required hardware and software */
 253              		.loc 1 56 0
 254              		.cfi_startproc
 255              		@ args = 0, pretend = 0, frame = 0
 256              		@ frame_needed = 0, uses_anonymous_args = 0
 257 0000 08B5     		push	{r3, lr}
 258              		.cfi_def_cfa_offset 8
 259              		.cfi_offset 3, -8
 260              		.cfi_offset 14, -4
  58:.\Generated_Source\PSoC5/SERVO_PWM.c ****     {
 261              		.loc 1 58 0
 262 0002 054B     		ldr	r3, .L23
 263 0004 1B78     		ldrb	r3, [r3]	@ zero_extendqisi2
 264 0006 23B9     		cbnz	r3, .L21
  60:.\Generated_Source\PSoC5/SERVO_PWM.c ****         SERVO_PWM_initVar = 1u;
 265              		.loc 1 60 0
 266 0008 FFF7FEFF 		bl	SERVO_PWM_Init
 267              	.LVL8:
ARM GAS  C:\Users\mitchell\AppData\Local\Temp\ccSVmm9L.s 			page 18


  61:.\Generated_Source\PSoC5/SERVO_PWM.c ****     }
 268              		.loc 1 61 0
 269 000c 0122     		movs	r2, #1
 270 000e 024B     		ldr	r3, .L23
 271 0010 1A70     		strb	r2, [r3]
 272              	.L21:
  63:.\Generated_Source\PSoC5/SERVO_PWM.c **** 
 273              		.loc 1 63 0
 274 0012 FFF7FEFF 		bl	SERVO_PWM_Enable
 275              	.LVL9:
 276 0016 08BD     		pop	{r3, pc}
 277              	.L24:
 278              		.align	2
 279              	.L23:
 280 0018 00000000 		.word	.LANCHOR0
 281              		.cfi_endproc
 282              	.LFE0:
 283              		.size	SERVO_PWM_Start, .-SERVO_PWM_Start
 284              		.section	.text.SERVO_PWM_ReadStatusRegister,"ax",%progbits
 285              		.align	2
 286              		.global	SERVO_PWM_ReadStatusRegister
 287              		.thumb
 288              		.thumb_func
 289              		.type	SERVO_PWM_ReadStatusRegister, %function
 290              	SERVO_PWM_ReadStatusRegister:
 291              	.LFB7:
 687:.\Generated_Source\PSoC5/SERVO_PWM.c ****     }
 688:.\Generated_Source\PSoC5/SERVO_PWM.c **** 
 689:.\Generated_Source\PSoC5/SERVO_PWM.c **** 
 690:.\Generated_Source\PSoC5/SERVO_PWM.c ****     /*******************************************************************************
 691:.\Generated_Source\PSoC5/SERVO_PWM.c ****     * Function Name: SERVO_PWM_ReadStatusRegister
 692:.\Generated_Source\PSoC5/SERVO_PWM.c ****     ********************************************************************************
 693:.\Generated_Source\PSoC5/SERVO_PWM.c ****     *
 694:.\Generated_Source\PSoC5/SERVO_PWM.c ****     * Summary:
 695:.\Generated_Source\PSoC5/SERVO_PWM.c ****     *  This function returns the current state of the status register.
 696:.\Generated_Source\PSoC5/SERVO_PWM.c ****     *
 697:.\Generated_Source\PSoC5/SERVO_PWM.c ****     * Parameters:
 698:.\Generated_Source\PSoC5/SERVO_PWM.c ****     *  None
 699:.\Generated_Source\PSoC5/SERVO_PWM.c ****     *
 700:.\Generated_Source\PSoC5/SERVO_PWM.c ****     * Return:
 701:.\Generated_Source\PSoC5/SERVO_PWM.c ****     *  uint8 : Current status register value. The status register bits are:
 702:.\Generated_Source\PSoC5/SERVO_PWM.c ****     *  [7:6] : Unused(0)
 703:.\Generated_Source\PSoC5/SERVO_PWM.c ****     *  [5]   : Kill event output
 704:.\Generated_Source\PSoC5/SERVO_PWM.c ****     *  [4]   : FIFO not empty
 705:.\Generated_Source\PSoC5/SERVO_PWM.c ****     *  [3]   : FIFO full
 706:.\Generated_Source\PSoC5/SERVO_PWM.c ****     *  [2]   : Terminal count
 707:.\Generated_Source\PSoC5/SERVO_PWM.c ****     *  [1]   : Compare output 2
 708:.\Generated_Source\PSoC5/SERVO_PWM.c ****     *  [0]   : Compare output 1
 709:.\Generated_Source\PSoC5/SERVO_PWM.c ****     *
 710:.\Generated_Source\PSoC5/SERVO_PWM.c ****     *******************************************************************************/
 711:.\Generated_Source\PSoC5/SERVO_PWM.c ****     uint8 SERVO_PWM_ReadStatusRegister(void) 
 712:.\Generated_Source\PSoC5/SERVO_PWM.c ****     {
 292              		.loc 1 712 0
 293              		.cfi_startproc
 294              		@ args = 0, pretend = 0, frame = 0
 295              		@ frame_needed = 0, uses_anonymous_args = 0
 296              		@ link register save eliminated.
ARM GAS  C:\Users\mitchell\AppData\Local\Temp\ccSVmm9L.s 			page 19


 713:.\Generated_Source\PSoC5/SERVO_PWM.c ****         return (CY_GET_REG8(SERVO_PWM_STATUS_PTR));
 297              		.loc 1 713 0
 298 0000 014B     		ldr	r3, .L26
 299 0002 1878     		ldrb	r0, [r3]	@ zero_extendqisi2
 714:.\Generated_Source\PSoC5/SERVO_PWM.c ****     }
 300              		.loc 1 714 0
 301 0004 7047     		bx	lr
 302              	.L27:
 303 0006 00BF     		.align	2
 304              	.L26:
 305 0008 034F0040 		.word	1073762051
 306              		.cfi_endproc
 307              	.LFE7:
 308              		.size	SERVO_PWM_ReadStatusRegister, .-SERVO_PWM_ReadStatusRegister
 309              		.section	.text.SERVO_PWM_ReadControlRegister,"ax",%progbits
 310              		.align	2
 311              		.global	SERVO_PWM_ReadControlRegister
 312              		.thumb
 313              		.thumb_func
 314              		.type	SERVO_PWM_ReadControlRegister, %function
 315              	SERVO_PWM_ReadControlRegister:
 316              	.LFB8:
 715:.\Generated_Source\PSoC5/SERVO_PWM.c **** 
 716:.\Generated_Source\PSoC5/SERVO_PWM.c **** #endif /* (SERVO_PWM_UseStatus || SERVO_PWM_UsingFixedFunction) */
 717:.\Generated_Source\PSoC5/SERVO_PWM.c **** 
 718:.\Generated_Source\PSoC5/SERVO_PWM.c **** 
 719:.\Generated_Source\PSoC5/SERVO_PWM.c **** #if (SERVO_PWM_UseControl)
 720:.\Generated_Source\PSoC5/SERVO_PWM.c **** 
 721:.\Generated_Source\PSoC5/SERVO_PWM.c **** 
 722:.\Generated_Source\PSoC5/SERVO_PWM.c ****     /*******************************************************************************
 723:.\Generated_Source\PSoC5/SERVO_PWM.c ****     * Function Name: SERVO_PWM_ReadControlRegister
 724:.\Generated_Source\PSoC5/SERVO_PWM.c ****     ********************************************************************************
 725:.\Generated_Source\PSoC5/SERVO_PWM.c ****     *
 726:.\Generated_Source\PSoC5/SERVO_PWM.c ****     * Summary:
 727:.\Generated_Source\PSoC5/SERVO_PWM.c ****     *  Returns the current state of the control register. This API is available
 728:.\Generated_Source\PSoC5/SERVO_PWM.c ****     *  only if the control register is not removed.
 729:.\Generated_Source\PSoC5/SERVO_PWM.c ****     *
 730:.\Generated_Source\PSoC5/SERVO_PWM.c ****     * Parameters:
 731:.\Generated_Source\PSoC5/SERVO_PWM.c ****     *  None
 732:.\Generated_Source\PSoC5/SERVO_PWM.c ****     *
 733:.\Generated_Source\PSoC5/SERVO_PWM.c ****     * Return:
 734:.\Generated_Source\PSoC5/SERVO_PWM.c ****     *  uint8 : Current control register value
 735:.\Generated_Source\PSoC5/SERVO_PWM.c ****     *
 736:.\Generated_Source\PSoC5/SERVO_PWM.c ****     *******************************************************************************/
 737:.\Generated_Source\PSoC5/SERVO_PWM.c ****     uint8 SERVO_PWM_ReadControlRegister(void) 
 738:.\Generated_Source\PSoC5/SERVO_PWM.c ****     {
 317              		.loc 1 738 0
 318              		.cfi_startproc
 319              		@ args = 0, pretend = 0, frame = 0
 320              		@ frame_needed = 0, uses_anonymous_args = 0
 321              		@ link register save eliminated.
 739:.\Generated_Source\PSoC5/SERVO_PWM.c ****         uint8 result;
 740:.\Generated_Source\PSoC5/SERVO_PWM.c **** 
 741:.\Generated_Source\PSoC5/SERVO_PWM.c ****         result = CY_GET_REG8(SERVO_PWM_CONTROL_PTR);
 322              		.loc 1 741 0
 323 0000 014B     		ldr	r3, .L29
 324 0002 1878     		ldrb	r0, [r3]	@ zero_extendqisi2
ARM GAS  C:\Users\mitchell\AppData\Local\Temp\ccSVmm9L.s 			page 20


 325              	.LVL10:
 742:.\Generated_Source\PSoC5/SERVO_PWM.c ****         return (result);
 743:.\Generated_Source\PSoC5/SERVO_PWM.c ****     }
 326              		.loc 1 743 0
 327 0004 7047     		bx	lr
 328              	.L30:
 329 0006 00BF     		.align	2
 330              	.L29:
 331 0008 004F0040 		.word	1073762048
 332              		.cfi_endproc
 333              	.LFE8:
 334              		.size	SERVO_PWM_ReadControlRegister, .-SERVO_PWM_ReadControlRegister
 335              		.section	.text.SERVO_PWM_WriteControlRegister,"ax",%progbits
 336              		.align	2
 337              		.global	SERVO_PWM_WriteControlRegister
 338              		.thumb
 339              		.thumb_func
 340              		.type	SERVO_PWM_WriteControlRegister, %function
 341              	SERVO_PWM_WriteControlRegister:
 342              	.LFB9:
 744:.\Generated_Source\PSoC5/SERVO_PWM.c **** 
 745:.\Generated_Source\PSoC5/SERVO_PWM.c **** 
 746:.\Generated_Source\PSoC5/SERVO_PWM.c ****     /*******************************************************************************
 747:.\Generated_Source\PSoC5/SERVO_PWM.c ****     * Function Name: SERVO_PWM_WriteControlRegister
 748:.\Generated_Source\PSoC5/SERVO_PWM.c ****     ********************************************************************************
 749:.\Generated_Source\PSoC5/SERVO_PWM.c ****     *
 750:.\Generated_Source\PSoC5/SERVO_PWM.c ****     * Summary:
 751:.\Generated_Source\PSoC5/SERVO_PWM.c ****     *  Sets the bit field of the control register. This API is available only if
 752:.\Generated_Source\PSoC5/SERVO_PWM.c ****     *  the control register is not removed.
 753:.\Generated_Source\PSoC5/SERVO_PWM.c ****     *
 754:.\Generated_Source\PSoC5/SERVO_PWM.c ****     * Parameters:
 755:.\Generated_Source\PSoC5/SERVO_PWM.c ****     *  uint8 control: Control register bit field, The status register bits are:
 756:.\Generated_Source\PSoC5/SERVO_PWM.c ****     *  [7]   : PWM Enable
 757:.\Generated_Source\PSoC5/SERVO_PWM.c ****     *  [6]   : Reset
 758:.\Generated_Source\PSoC5/SERVO_PWM.c ****     *  [5:3] : Compare Mode2
 759:.\Generated_Source\PSoC5/SERVO_PWM.c ****     *  [2:0] : Compare Mode2
 760:.\Generated_Source\PSoC5/SERVO_PWM.c ****     *
 761:.\Generated_Source\PSoC5/SERVO_PWM.c ****     * Return:
 762:.\Generated_Source\PSoC5/SERVO_PWM.c ****     *  None
 763:.\Generated_Source\PSoC5/SERVO_PWM.c ****     *
 764:.\Generated_Source\PSoC5/SERVO_PWM.c ****     *******************************************************************************/
 765:.\Generated_Source\PSoC5/SERVO_PWM.c ****     void SERVO_PWM_WriteControlRegister(uint8 control) 
 766:.\Generated_Source\PSoC5/SERVO_PWM.c ****     {
 343              		.loc 1 766 0
 344              		.cfi_startproc
 345              		@ args = 0, pretend = 0, frame = 0
 346              		@ frame_needed = 0, uses_anonymous_args = 0
 347              		@ link register save eliminated.
 348              	.LVL11:
 767:.\Generated_Source\PSoC5/SERVO_PWM.c ****         CY_SET_REG8(SERVO_PWM_CONTROL_PTR, control);
 349              		.loc 1 767 0
 350 0000 014B     		ldr	r3, .L32
 351 0002 1870     		strb	r0, [r3]
 352 0004 7047     		bx	lr
 353              	.L33:
 354 0006 00BF     		.align	2
 355              	.L32:
ARM GAS  C:\Users\mitchell\AppData\Local\Temp\ccSVmm9L.s 			page 21


 356 0008 004F0040 		.word	1073762048
 357              		.cfi_endproc
 358              	.LFE9:
 359              		.size	SERVO_PWM_WriteControlRegister, .-SERVO_PWM_WriteControlRegister
 360              		.section	.text.SERVO_PWM_ReadCompare,"ax",%progbits
 361              		.align	2
 362              		.global	SERVO_PWM_ReadCompare
 363              		.thumb
 364              		.thumb_func
 365              		.type	SERVO_PWM_ReadCompare, %function
 366              	SERVO_PWM_ReadCompare:
 367              	.LFB10:
 768:.\Generated_Source\PSoC5/SERVO_PWM.c ****     }
 769:.\Generated_Source\PSoC5/SERVO_PWM.c **** 
 770:.\Generated_Source\PSoC5/SERVO_PWM.c **** #endif /* (SERVO_PWM_UseControl) */
 771:.\Generated_Source\PSoC5/SERVO_PWM.c **** 
 772:.\Generated_Source\PSoC5/SERVO_PWM.c **** 
 773:.\Generated_Source\PSoC5/SERVO_PWM.c **** #if (!SERVO_PWM_UsingFixedFunction)
 774:.\Generated_Source\PSoC5/SERVO_PWM.c **** 
 775:.\Generated_Source\PSoC5/SERVO_PWM.c **** 
 776:.\Generated_Source\PSoC5/SERVO_PWM.c ****     /*******************************************************************************
 777:.\Generated_Source\PSoC5/SERVO_PWM.c ****     * Function Name: SERVO_PWM_ReadCapture
 778:.\Generated_Source\PSoC5/SERVO_PWM.c ****     ********************************************************************************
 779:.\Generated_Source\PSoC5/SERVO_PWM.c ****     *
 780:.\Generated_Source\PSoC5/SERVO_PWM.c ****     * Summary:
 781:.\Generated_Source\PSoC5/SERVO_PWM.c ****     *  Reads the capture value from the capture FIFO.
 782:.\Generated_Source\PSoC5/SERVO_PWM.c ****     *
 783:.\Generated_Source\PSoC5/SERVO_PWM.c ****     * Parameters:
 784:.\Generated_Source\PSoC5/SERVO_PWM.c ****     *  None
 785:.\Generated_Source\PSoC5/SERVO_PWM.c ****     *
 786:.\Generated_Source\PSoC5/SERVO_PWM.c ****     * Return:
 787:.\Generated_Source\PSoC5/SERVO_PWM.c ****     *  uint8/uint16: The current capture value
 788:.\Generated_Source\PSoC5/SERVO_PWM.c ****     *
 789:.\Generated_Source\PSoC5/SERVO_PWM.c ****     *******************************************************************************/
 790:.\Generated_Source\PSoC5/SERVO_PWM.c ****     uint16 SERVO_PWM_ReadCapture(void) 
 791:.\Generated_Source\PSoC5/SERVO_PWM.c ****     {
 792:.\Generated_Source\PSoC5/SERVO_PWM.c ****         return (CY_GET_REG16(SERVO_PWM_CAPTURE_LSB_PTR));
 793:.\Generated_Source\PSoC5/SERVO_PWM.c ****     }
 794:.\Generated_Source\PSoC5/SERVO_PWM.c **** 
 795:.\Generated_Source\PSoC5/SERVO_PWM.c **** #endif /* (!SERVO_PWM_UsingFixedFunction) */
 796:.\Generated_Source\PSoC5/SERVO_PWM.c **** 
 797:.\Generated_Source\PSoC5/SERVO_PWM.c **** 
 798:.\Generated_Source\PSoC5/SERVO_PWM.c **** #if (SERVO_PWM_UseOneCompareMode)
 799:.\Generated_Source\PSoC5/SERVO_PWM.c **** 
 800:.\Generated_Source\PSoC5/SERVO_PWM.c **** 
 801:.\Generated_Source\PSoC5/SERVO_PWM.c ****     /*******************************************************************************
 802:.\Generated_Source\PSoC5/SERVO_PWM.c ****     * Function Name: SERVO_PWM_ReadCompare
 803:.\Generated_Source\PSoC5/SERVO_PWM.c ****     ********************************************************************************
 804:.\Generated_Source\PSoC5/SERVO_PWM.c ****     *
 805:.\Generated_Source\PSoC5/SERVO_PWM.c ****     * Summary:
 806:.\Generated_Source\PSoC5/SERVO_PWM.c ****     *  Reads the compare value for the compare output when the PWM Mode parameter is
 807:.\Generated_Source\PSoC5/SERVO_PWM.c ****     *  set to Dither mode, Center Aligned mode, or One Output mode.
 808:.\Generated_Source\PSoC5/SERVO_PWM.c ****     *
 809:.\Generated_Source\PSoC5/SERVO_PWM.c ****     * Parameters:
 810:.\Generated_Source\PSoC5/SERVO_PWM.c ****     *  None
 811:.\Generated_Source\PSoC5/SERVO_PWM.c ****     *
 812:.\Generated_Source\PSoC5/SERVO_PWM.c ****     * Return:
ARM GAS  C:\Users\mitchell\AppData\Local\Temp\ccSVmm9L.s 			page 22


 813:.\Generated_Source\PSoC5/SERVO_PWM.c ****     *  uint8/uint16: Current compare value
 814:.\Generated_Source\PSoC5/SERVO_PWM.c ****     *
 815:.\Generated_Source\PSoC5/SERVO_PWM.c ****     *******************************************************************************/
 816:.\Generated_Source\PSoC5/SERVO_PWM.c ****     uint16 SERVO_PWM_ReadCompare(void) 
 817:.\Generated_Source\PSoC5/SERVO_PWM.c ****     {
 368              		.loc 1 817 0
 369              		.cfi_startproc
 370              		@ args = 0, pretend = 0, frame = 0
 371              		@ frame_needed = 0, uses_anonymous_args = 0
 372              		@ link register save eliminated.
 818:.\Generated_Source\PSoC5/SERVO_PWM.c ****         #if(SERVO_PWM_UsingFixedFunction)
 819:.\Generated_Source\PSoC5/SERVO_PWM.c ****             return ((uint16)CY_GET_REG16(SERVO_PWM_COMPARE1_LSB_PTR));
 373              		.loc 1 819 0
 374 0000 014B     		ldr	r3, .L35
 375 0002 1888     		ldrh	r0, [r3]
 820:.\Generated_Source\PSoC5/SERVO_PWM.c ****         #else
 821:.\Generated_Source\PSoC5/SERVO_PWM.c ****             return (CY_GET_REG16(SERVO_PWM_COMPARE1_LSB_PTR));
 822:.\Generated_Source\PSoC5/SERVO_PWM.c ****         #endif /* (SERVO_PWM_UsingFixedFunction) */
 823:.\Generated_Source\PSoC5/SERVO_PWM.c ****     }
 376              		.loc 1 823 0
 377 0004 80B2     		uxth	r0, r0
 378 0006 7047     		bx	lr
 379              	.L36:
 380              		.align	2
 381              	.L35:
 382 0008 064F0040 		.word	1073762054
 383              		.cfi_endproc
 384              	.LFE10:
 385              		.size	SERVO_PWM_ReadCompare, .-SERVO_PWM_ReadCompare
 386              		.section	.text.SERVO_PWM_ReadPeriod,"ax",%progbits
 387              		.align	2
 388              		.global	SERVO_PWM_ReadPeriod
 389              		.thumb
 390              		.thumb_func
 391              		.type	SERVO_PWM_ReadPeriod, %function
 392              	SERVO_PWM_ReadPeriod:
 393              	.LFB11:
 824:.\Generated_Source\PSoC5/SERVO_PWM.c **** 
 825:.\Generated_Source\PSoC5/SERVO_PWM.c **** #else
 826:.\Generated_Source\PSoC5/SERVO_PWM.c **** 
 827:.\Generated_Source\PSoC5/SERVO_PWM.c **** 
 828:.\Generated_Source\PSoC5/SERVO_PWM.c ****     /*******************************************************************************
 829:.\Generated_Source\PSoC5/SERVO_PWM.c ****     * Function Name: SERVO_PWM_ReadCompare1
 830:.\Generated_Source\PSoC5/SERVO_PWM.c ****     ********************************************************************************
 831:.\Generated_Source\PSoC5/SERVO_PWM.c ****     *
 832:.\Generated_Source\PSoC5/SERVO_PWM.c ****     * Summary:
 833:.\Generated_Source\PSoC5/SERVO_PWM.c ****     *  Reads the compare value for the compare1 output.
 834:.\Generated_Source\PSoC5/SERVO_PWM.c ****     *
 835:.\Generated_Source\PSoC5/SERVO_PWM.c ****     * Parameters:
 836:.\Generated_Source\PSoC5/SERVO_PWM.c ****     *  None
 837:.\Generated_Source\PSoC5/SERVO_PWM.c ****     *
 838:.\Generated_Source\PSoC5/SERVO_PWM.c ****     * Return:
 839:.\Generated_Source\PSoC5/SERVO_PWM.c ****     *  uint8/uint16: Current compare value.
 840:.\Generated_Source\PSoC5/SERVO_PWM.c ****     *
 841:.\Generated_Source\PSoC5/SERVO_PWM.c ****     *******************************************************************************/
 842:.\Generated_Source\PSoC5/SERVO_PWM.c ****     uint16 SERVO_PWM_ReadCompare1(void) 
 843:.\Generated_Source\PSoC5/SERVO_PWM.c ****     {
ARM GAS  C:\Users\mitchell\AppData\Local\Temp\ccSVmm9L.s 			page 23


 844:.\Generated_Source\PSoC5/SERVO_PWM.c ****         return (CY_GET_REG16(SERVO_PWM_COMPARE1_LSB_PTR));
 845:.\Generated_Source\PSoC5/SERVO_PWM.c ****     }
 846:.\Generated_Source\PSoC5/SERVO_PWM.c **** 
 847:.\Generated_Source\PSoC5/SERVO_PWM.c **** 
 848:.\Generated_Source\PSoC5/SERVO_PWM.c ****     /*******************************************************************************
 849:.\Generated_Source\PSoC5/SERVO_PWM.c ****     * Function Name: SERVO_PWM_ReadCompare2
 850:.\Generated_Source\PSoC5/SERVO_PWM.c ****     ********************************************************************************
 851:.\Generated_Source\PSoC5/SERVO_PWM.c ****     *
 852:.\Generated_Source\PSoC5/SERVO_PWM.c ****     * Summary:
 853:.\Generated_Source\PSoC5/SERVO_PWM.c ****     *  Reads the compare value for the compare2 output.
 854:.\Generated_Source\PSoC5/SERVO_PWM.c ****     *
 855:.\Generated_Source\PSoC5/SERVO_PWM.c ****     * Parameters:
 856:.\Generated_Source\PSoC5/SERVO_PWM.c ****     *  None
 857:.\Generated_Source\PSoC5/SERVO_PWM.c ****     *
 858:.\Generated_Source\PSoC5/SERVO_PWM.c ****     * Return:
 859:.\Generated_Source\PSoC5/SERVO_PWM.c ****     *  uint8/uint16: Current compare value.
 860:.\Generated_Source\PSoC5/SERVO_PWM.c ****     *
 861:.\Generated_Source\PSoC5/SERVO_PWM.c ****     *******************************************************************************/
 862:.\Generated_Source\PSoC5/SERVO_PWM.c ****     uint16 SERVO_PWM_ReadCompare2(void) 
 863:.\Generated_Source\PSoC5/SERVO_PWM.c ****     {
 864:.\Generated_Source\PSoC5/SERVO_PWM.c ****         return (CY_GET_REG16(SERVO_PWM_COMPARE2_LSB_PTR));
 865:.\Generated_Source\PSoC5/SERVO_PWM.c ****     }
 866:.\Generated_Source\PSoC5/SERVO_PWM.c **** 
 867:.\Generated_Source\PSoC5/SERVO_PWM.c **** #endif /* (SERVO_PWM_UseOneCompareMode) */
 868:.\Generated_Source\PSoC5/SERVO_PWM.c **** 
 869:.\Generated_Source\PSoC5/SERVO_PWM.c **** 
 870:.\Generated_Source\PSoC5/SERVO_PWM.c **** /*******************************************************************************
 871:.\Generated_Source\PSoC5/SERVO_PWM.c **** * Function Name: SERVO_PWM_ReadPeriod
 872:.\Generated_Source\PSoC5/SERVO_PWM.c **** ********************************************************************************
 873:.\Generated_Source\PSoC5/SERVO_PWM.c **** *
 874:.\Generated_Source\PSoC5/SERVO_PWM.c **** * Summary:
 875:.\Generated_Source\PSoC5/SERVO_PWM.c **** *  Reads the period value used by the PWM hardware.
 876:.\Generated_Source\PSoC5/SERVO_PWM.c **** *
 877:.\Generated_Source\PSoC5/SERVO_PWM.c **** * Parameters:
 878:.\Generated_Source\PSoC5/SERVO_PWM.c **** *  None
 879:.\Generated_Source\PSoC5/SERVO_PWM.c **** *
 880:.\Generated_Source\PSoC5/SERVO_PWM.c **** * Return:
 881:.\Generated_Source\PSoC5/SERVO_PWM.c **** *  uint8/16: Period value
 882:.\Generated_Source\PSoC5/SERVO_PWM.c **** *
 883:.\Generated_Source\PSoC5/SERVO_PWM.c **** *******************************************************************************/
 884:.\Generated_Source\PSoC5/SERVO_PWM.c **** uint16 SERVO_PWM_ReadPeriod(void) 
 885:.\Generated_Source\PSoC5/SERVO_PWM.c **** {
 394              		.loc 1 885 0
 395              		.cfi_startproc
 396              		@ args = 0, pretend = 0, frame = 0
 397              		@ frame_needed = 0, uses_anonymous_args = 0
 398              		@ link register save eliminated.
 886:.\Generated_Source\PSoC5/SERVO_PWM.c ****     #if(SERVO_PWM_UsingFixedFunction)
 887:.\Generated_Source\PSoC5/SERVO_PWM.c ****         return ((uint16)CY_GET_REG16(SERVO_PWM_PERIOD_LSB_PTR));
 399              		.loc 1 887 0
 400 0000 014B     		ldr	r3, .L38
 401 0002 1888     		ldrh	r0, [r3]
 888:.\Generated_Source\PSoC5/SERVO_PWM.c ****     #else
 889:.\Generated_Source\PSoC5/SERVO_PWM.c ****         return (CY_GET_REG16(SERVO_PWM_PERIOD_LSB_PTR));
 890:.\Generated_Source\PSoC5/SERVO_PWM.c ****     #endif /* (SERVO_PWM_UsingFixedFunction) */
 891:.\Generated_Source\PSoC5/SERVO_PWM.c **** }
 402              		.loc 1 891 0
ARM GAS  C:\Users\mitchell\AppData\Local\Temp\ccSVmm9L.s 			page 24


 403 0004 80B2     		uxth	r0, r0
 404 0006 7047     		bx	lr
 405              	.L39:
 406              		.align	2
 407              	.L38:
 408 0008 044F0040 		.word	1073762052
 409              		.cfi_endproc
 410              	.LFE11:
 411              		.size	SERVO_PWM_ReadPeriod, .-SERVO_PWM_ReadPeriod
 412              		.global	SERVO_PWM_initVar
 413              		.bss
 414              		.set	.LANCHOR0,. + 0
 415              		.type	SERVO_PWM_initVar, %object
 416              		.size	SERVO_PWM_initVar, 1
 417              	SERVO_PWM_initVar:
 418 0000 00       		.space	1
 419              		.text
 420              	.Letext0:
 421              		.file 2 ".\\Generated_Source\\PSoC5\\cytypes.h"