ARM GAS  C:\Users\mitchell\AppData\Local\Temp\ccTz8xAg.s 			page 1


   1              		.syntax unified
   2              		.cpu cortex-m3
   3              		.fpu softvfp
   4              		.eabi_attribute 20, 1
   5              		.eabi_attribute 21, 1
   6              		.eabi_attribute 23, 3
   7              		.eabi_attribute 24, 1
   8              		.eabi_attribute 25, 1
   9              		.eabi_attribute 26, 1
  10              		.eabi_attribute 30, 1
  11              		.eabi_attribute 34, 1
  12              		.eabi_attribute 18, 4
  13              		.thumb
  14              		.file	"signal_processing.c"
  15              		.text
  16              	.Ltext0:
  17              		.cfi_sections	.debug_frame
  18              		.global	__aeabi_ui2f
  19              		.global	__aeabi_fdiv
  20              		.global	__aeabi_fmul
  21              		.section	.text.convertToPercent,"ax",%progbits
  22              		.align	2
  23              		.global	convertToPercent
  24              		.thumb
  25              		.thumb_func
  26              		.type	convertToPercent, %function
  27              	convertToPercent:
  28              	.LFB63:
  29              		.file 1 ".\\signal_processing.c"
   1:.\signal_processing.c ****  /* ========================================
   2:.\signal_processing.c ****     A collection of functions that do the brunt
   3:.\signal_processing.c ****     of the I/O processing and calculation work
   4:.\signal_processing.c ****     needed for the E-Throttle.
   5:.\signal_processing.c **** 
   6:.\signal_processing.c ****     Author: Mitchell Mellone (mellom3@rpi.edu)
   7:.\signal_processing.c ****     Date Created: 12/28/15
   8:.\signal_processing.c ****     Most Recent Modification: 12/30/15
   9:.\signal_processing.c **** 
  10:.\signal_processing.c ****     Copyright (c) 2015 Rensselaer Motorsport
  11:.\signal_processing.c ****     Distributed under the MIT License.
  12:.\signal_processing.c ****     See "LICENSE" for more information.
  13:.\signal_processing.c ****  * ========================================
  14:.\signal_processing.c **** */
  15:.\signal_processing.c **** 
  16:.\signal_processing.c **** #include "signal_processing.h"
  17:.\signal_processing.c **** 
  18:.\signal_processing.c **** /*
  19:.\signal_processing.c **** parameters: count - The current count returned by
  20:.\signal_processing.c ****                    an ADC
  21:.\signal_processing.c ****             type - The type of sensor
  22:.\signal_processing.c **** return:     A percentage of the maximum possible count
  23:.\signal_processing.c ****             ** From 0.0 - 100.0 **
  24:.\signal_processing.c ****             If the type is not defined it will return 0.0
  25:.\signal_processing.c **** */
  26:.\signal_processing.c **** float convertToPercent(uint16 count, sensor type) {
  30              		.loc 1 26 0
  31              		.cfi_startproc
ARM GAS  C:\Users\mitchell\AppData\Local\Temp\ccTz8xAg.s 			page 2


  32              		@ args = 0, pretend = 0, frame = 0
  33              		@ frame_needed = 0, uses_anonymous_args = 0
  34              	.LVL0:
  35 0000 08B5     		push	{r3, lr}
  36              		.cfi_def_cfa_offset 8
  37              		.cfi_offset 3, -8
  38              		.cfi_offset 14, -4
  27:.\signal_processing.c ****     /* TODO:    check bounds on these percents,
  28:.\signal_processing.c ****                 expecially the BRAKE case (sigdel
  29:.\signal_processing.c ****                 ADC gave a little over MAX_BRAKE_COUNT
  30:.\signal_processing.c ****                 in prelim. test)
  31:.\signal_processing.c ****     */
  32:.\signal_processing.c ****     float percent;
  33:.\signal_processing.c ****     switch (type) {
  39              		.loc 1 33 0
  40 0002 0129     		cmp	r1, #1
  41 0004 09D0     		beq	.L3
  42 0006 11B1     		cbz	r1, .L4
  43 0008 0229     		cmp	r1, #2
  44 000a 0CD0     		beq	.L5
  45 000c 11E0     		b	.L7
  46              	.L4:
  34:.\signal_processing.c ****         case TPS:
  35:.\signal_processing.c ****             percent = (float) count / MAX_TPS_COUNT;
  47              		.loc 1 35 0
  48 000e FFF7FEFF 		bl	__aeabi_ui2f
  49              	.LVL1:
  50 0012 0A49     		ldr	r1, .L9
  51 0014 FFF7FEFF 		bl	__aeabi_fdiv
  52              	.LVL2:
  36:.\signal_processing.c ****             break;
  53              		.loc 1 36 0
  54 0018 0CE0     		b	.L2
  55              	.LVL3:
  56              	.L3:
  37:.\signal_processing.c ****         case APPS:
  38:.\signal_processing.c ****             percent = (float) count / MAX_APPS_COUNT;
  57              		.loc 1 38 0
  58 001a FFF7FEFF 		bl	__aeabi_ui2f
  59              	.LVL4:
  60 001e 0749     		ldr	r1, .L9
  61 0020 FFF7FEFF 		bl	__aeabi_fdiv
  62              	.LVL5:
  39:.\signal_processing.c ****             break;
  63              		.loc 1 39 0
  64 0024 06E0     		b	.L2
  65              	.LVL6:
  66              	.L5:
  40:.\signal_processing.c ****         case BRAKE:
  41:.\signal_processing.c ****             percent = (float) count / MAX_BRAKE_COUNT;
  67              		.loc 1 41 0
  68 0026 FFF7FEFF 		bl	__aeabi_ui2f
  69              	.LVL7:
  70 002a 0549     		ldr	r1, .L9+4
  71 002c FFF7FEFF 		bl	__aeabi_fdiv
  72              	.LVL8:
  42:.\signal_processing.c ****             break;
ARM GAS  C:\Users\mitchell\AppData\Local\Temp\ccTz8xAg.s 			page 3


  73              		.loc 1 42 0
  74 0030 00E0     		b	.L2
  75              	.LVL9:
  76              	.L7:
  43:.\signal_processing.c ****         default:
  44:.\signal_processing.c ****             percent = 0.0;
  77              		.loc 1 44 0
  78 0032 0020     		movs	r0, #0
  79              	.LVL10:
  80              	.L2:
  45:.\signal_processing.c ****     }
  46:.\signal_processing.c ****     return percent * 100.0;
  81              		.loc 1 46 0
  82 0034 0349     		ldr	r1, .L9+8
  83 0036 FFF7FEFF 		bl	__aeabi_fmul
  84              	.LVL11:
  47:.\signal_processing.c **** }
  85              		.loc 1 47 0
  86 003a 08BD     		pop	{r3, pc}
  87              	.L10:
  88              		.align	2
  89              	.L9:
  90 003c 00F07F45 		.word	1166012416
  91 0040 00FC7F46 		.word	1182792704
  92 0044 0000C842 		.word	1120403456
  93              		.cfi_endproc
  94              	.LFE63:
  95              		.size	convertToPercent, .-convertToPercent
  96              		.section	.text.createErrorBuffer,"ax",%progbits
  97              		.align	2
  98              		.global	createErrorBuffer
  99              		.thumb
 100              		.thumb_func
 101              		.type	createErrorBuffer, %function
 102              	createErrorBuffer:
 103              	.LFB66:
  48:.\signal_processing.c **** 
  49:.\signal_processing.c **** /*
  50:.\signal_processing.c **** parameters: s0 - Percent that sensor 0 is open (0.0-100.0)
  51:.\signal_processing.c ****             s1 - Percent that sensor 1 is open (0.0-100.0)
  52:.\signal_processing.c **** effect:     Checks for implausibility, then averages
  53:.\signal_processing.c ****             the values
  54:.\signal_processing.c **** return:     ERROR if there is an implausibility,
  55:.\signal_processing.c ****             The average of the sensors otherwise
  56:.\signal_processing.c **** */
  57:.\signal_processing.c **** float average(float s0, float s1) {
  58:.\signal_processing.c ****     if(localImplausibility(s0, s1) == ERROR) {
  59:.\signal_processing.c ****         return fERROR;
  60:.\signal_processing.c ****     }
  61:.\signal_processing.c ****     return ((s0 + s1) / 2.0);
  62:.\signal_processing.c **** }
  63:.\signal_processing.c **** 
  64:.\signal_processing.c **** /*
  65:.\signal_processing.c **** parameters: tpsPos - The current throttle percentage (% open, 0.0-100.0)
  66:.\signal_processing.c ****             appsPos - The requested throttle percentage (% open, 0.0-100.0)
  67:.\signal_processing.c **** effect:     Checks for implausability between the tps and apps
  68:.\signal_processing.c ****             signals, and then calculates the next position of
ARM GAS  C:\Users\mitchell\AppData\Local\Temp\ccTz8xAg.s 			page 4


  69:.\signal_processing.c ****             the throttle actuator. This is also where we can add custom throttle
  70:.\signal_processing.c ****             profile functions.
  71:.\signal_processing.c **** return:     ERROR if there is an implausibility, the next
  72:.\signal_processing.c ****             desired servo position otherwise.
  73:.\signal_processing.c **** */
  74:.\signal_processing.c **** float nextThrottlePosition(float requested_pos, float curr_pos,
  75:.\signal_processing.c ****                            float prev_request, float brake_pos, Error_Buffer * errs) {
  76:.\signal_processing.c ****     if (globalImplausibility(curr_pos, prev_request, brake_pos, errs) == ERROR) {
  77:.\signal_processing.c ****         return fERROR;
  78:.\signal_processing.c ****     }
  79:.\signal_processing.c ****     return requested_pos;
  80:.\signal_processing.c **** }
  81:.\signal_processing.c **** 
  82:.\signal_processing.c **** /*
  83:.\signal_processing.c **** return: An Error_Buffer initialized with all 0.0s
  84:.\signal_processing.c **** */
  85:.\signal_processing.c **** Error_Buffer * createErrorBuffer() {
 104              		.loc 1 85 0
 105              		.cfi_startproc
 106              		@ args = 0, pretend = 0, frame = 0
 107              		@ frame_needed = 0, uses_anonymous_args = 0
 108 0000 10B5     		push	{r4, lr}
 109              		.cfi_def_cfa_offset 8
 110              		.cfi_offset 4, -8
 111              		.cfi_offset 14, -4
  86:.\signal_processing.c ****     Error_Buffer * eb = (Error_Buffer*)malloc(sizeof(Error_Buffer));
 112              		.loc 1 86 0
 113 0002 1C20     		movs	r0, #28
 114 0004 FFF7FEFF 		bl	malloc
 115              	.LVL12:
 116 0008 0446     		mov	r4, r0
 117              	.LVL13:
  87:.\signal_processing.c ****     eb->error_queue = createQueue();
 118              		.loc 1 87 0
 119 000a FFF7FEFF 		bl	createQueue
 120              	.LVL14:
 121 000e 2060     		str	r0, [r4]
  88:.\signal_processing.c ****     eb->num_brake_errs = 0;
 122              		.loc 1 88 0
 123 0010 0022     		movs	r2, #0
 124 0012 2261     		str	r2, [r4, #16]
  89:.\signal_processing.c ****     eb->TPS_APPS_avg = 0.0;
 125              		.loc 1 89 0
 126 0014 0023     		movs	r3, #0
 127 0016 A360     		str	r3, [r4, #8]	@ float
  90:.\signal_processing.c ****     eb->TPS_APPS_sum = 0.0;
 128              		.loc 1 90 0
 129 0018 6360     		str	r3, [r4, #4]	@ float
  91:.\signal_processing.c ****     eb->percent_brake_errs = 0.0;
 130              		.loc 1 91 0
 131 001a E360     		str	r3, [r4, #12]	@ float
  92:.\signal_processing.c ****     eb->size = 0;
 132              		.loc 1 92 0
 133 001c 6261     		str	r2, [r4, #20]
  93:.\signal_processing.c ****     return eb;
  94:.\signal_processing.c **** }
 134              		.loc 1 94 0
ARM GAS  C:\Users\mitchell\AppData\Local\Temp\ccTz8xAg.s 			page 5


 135 001e 2046     		mov	r0, r4
 136 0020 10BD     		pop	{r4, pc}
 137              		.cfi_endproc
 138              	.LFE66:
 139              		.size	createErrorBuffer, .-createErrorBuffer
 140              		.global	__aeabi_fadd
 141              		.global	__aeabi_fsub
 142              		.global	__aeabi_i2f
 143 0022 00BF     		.section	.text.updateErrorBuffer,"ax",%progbits
 144              		.align	2
 145              		.global	updateErrorBuffer
 146              		.thumb
 147              		.thumb_func
 148              		.type	updateErrorBuffer, %function
 149              	updateErrorBuffer:
 150              	.LFB67:
  95:.\signal_processing.c **** 
  96:.\signal_processing.c **** /*
  97:.\signal_processing.c **** parameter:  eb - The Error_Buffer to update
  98:.\signal_processing.c ****             newErr - The new error to update it with (
  99:.\signal_processing.c **** effect:     Adds the new error to the start of the queue
 100:.\signal_processing.c ****             Removes the least recent error
 101:.\signal_processing.c ****             Updates the sum and average accordingly
 102:.\signal_processing.c **** */
 103:.\signal_processing.c **** void updateErrorBuffer(Error_Buffer * eb, unsigned char brake_err, float TPS_APPS_err) {
 151              		.loc 1 103 0
 152              		.cfi_startproc
 153              		@ args = 0, pretend = 0, frame = 0
 154              		@ frame_needed = 0, uses_anonymous_args = 0
 155              	.LVL15:
 156 0000 2DE9F843 		push	{r3, r4, r5, r6, r7, r8, r9, lr}
 157              		.cfi_def_cfa_offset 32
 158              		.cfi_offset 3, -32
 159              		.cfi_offset 4, -28
 160              		.cfi_offset 5, -24
 161              		.cfi_offset 6, -20
 162              		.cfi_offset 7, -16
 163              		.cfi_offset 8, -12
 164              		.cfi_offset 9, -8
 165              		.cfi_offset 14, -4
 166 0004 0446     		mov	r4, r0
 167 0006 8846     		mov	r8, r1
 168 0008 9146     		mov	r9, r2
 104:.\signal_processing.c ****     Queue * q = eb->error_queue;
 169              		.loc 1 104 0
 170 000a 0668     		ldr	r6, [r0]
 171              	.LVL16:
 105:.\signal_processing.c ****     int elap_time = Timer_ReadCounter();
 172              		.loc 1 105 0
 173 000c FFF7FEFF 		bl	Timer_ReadCounter
 174              	.LVL17:
 175 0010 0546     		mov	r5, r0
 176 0012 0746     		mov	r7, r0
 177              	.LVL18:
 106:.\signal_processing.c ****     Timer_Stop();
 178              		.loc 1 106 0
 179 0014 FFF7FEFF 		bl	Timer_Stop
ARM GAS  C:\Users\mitchell\AppData\Local\Temp\ccTz8xAg.s 			page 6


 180              	.LVL19:
 107:.\signal_processing.c ****     Timer_Start(); /* Reset the timer */
 181              		.loc 1 107 0
 182 0018 FFF7FEFF 		bl	Timer_Start
 183              	.LVL20:
 108:.\signal_processing.c ****     enqueue(q, brake_err, TPS_APPS_err, elap_time);
 184              		.loc 1 108 0
 185 001c 3046     		mov	r0, r6
 186 001e 4146     		mov	r1, r8
 187 0020 4A46     		mov	r2, r9
 188 0022 2B46     		mov	r3, r5
 189 0024 FFF7FEFF 		bl	enqueue
 190              	.LVL21:
 109:.\signal_processing.c ****     eb->num_brake_errs += brake_err; /* +1 if = BRAKE_ERROR, +0 if = BRAKE_GOOD */
 191              		.loc 1 109 0
 192 0028 2369     		ldr	r3, [r4, #16]
 193 002a 4344     		add	r3, r3, r8
 194 002c 2361     		str	r3, [r4, #16]
 110:.\signal_processing.c ****     eb->TPS_APPS_sum += TPS_APPS_err;
 195              		.loc 1 110 0
 196 002e 6068     		ldr	r0, [r4, #4]	@ float
 197 0030 4946     		mov	r1, r9
 198 0032 FFF7FEFF 		bl	__aeabi_fadd
 199              	.LVL22:
 200 0036 6060     		str	r0, [r4, #4]	@ float
 111:.\signal_processing.c ****     eb->size++;
 201              		.loc 1 111 0
 202 0038 6369     		ldr	r3, [r4, #20]
 203 003a 0133     		adds	r3, r3, #1
 204 003c 6361     		str	r3, [r4, #20]
 112:.\signal_processing.c ****     eb->total_time += elap_time;
 205              		.loc 1 112 0
 206 003e A369     		ldr	r3, [r4, #24]
 207 0040 1D44     		add	r5, r5, r3
 208              	.LVL23:
 209 0042 A561     		str	r5, [r4, #24]
 113:.\signal_processing.c ****     while (elap_time > TIMER_FREQ) {
 210              		.loc 1 113 0
 211 0044 13E0     		b	.L14
 212              	.L15:
 213              	.LBB2:
 114:.\signal_processing.c ****         /* Delete all error values that happened more than one sec ago */
 115:.\signal_processing.c ****         Node * toRemove = dequeue(q);
 214              		.loc 1 115 0
 215 0046 3046     		mov	r0, r6
 216 0048 FFF7FEFF 		bl	dequeue
 217              	.LVL24:
 218 004c 0546     		mov	r5, r0
 219              	.LVL25:
 116:.\signal_processing.c ****         eb->num_brake_errs -= toRemove->brake_error;
 220              		.loc 1 116 0
 221 004e 0278     		ldrb	r2, [r0]	@ zero_extendqisi2
 222 0050 2369     		ldr	r3, [r4, #16]
 223 0052 9B1A     		subs	r3, r3, r2
 224 0054 2361     		str	r3, [r4, #16]
 117:.\signal_processing.c ****         eb->TPS_APPS_sum -= toRemove->TPS_APPS_error;
 225              		.loc 1 117 0
ARM GAS  C:\Users\mitchell\AppData\Local\Temp\ccTz8xAg.s 			page 7


 226 0056 6068     		ldr	r0, [r4, #4]	@ float
 227              	.LVL26:
 228 0058 6968     		ldr	r1, [r5, #4]	@ float
 229 005a FFF7FEFF 		bl	__aeabi_fsub
 230              	.LVL27:
 231 005e 6060     		str	r0, [r4, #4]	@ float
 118:.\signal_processing.c ****         eb->size--;
 232              		.loc 1 118 0
 233 0060 6369     		ldr	r3, [r4, #20]
 234 0062 013B     		subs	r3, r3, #1
 235 0064 6361     		str	r3, [r4, #20]
 119:.\signal_processing.c ****         eb->total_time -= toRemove->time_count;
 236              		.loc 1 119 0
 237 0066 AA68     		ldr	r2, [r5, #8]
 238 0068 A369     		ldr	r3, [r4, #24]
 239 006a 9B1A     		subs	r3, r3, r2
 240 006c A361     		str	r3, [r4, #24]
 241              	.LVL28:
 242              	.L14:
 243              	.LBE2:
 113:.\signal_processing.c ****         /* Delete all error values that happened more than one sec ago */
 244              		.loc 1 113 0
 245 006e B7F5FA4F 		cmp	r7, #32000
 246 0072 E8DC     		bgt	.L15
 120:.\signal_processing.c ****     }
 121:.\signal_processing.c ****     eb->TPS_APPS_avg = eb->TPS_APPS_sum / ((float)eb->size);
 247              		.loc 1 121 0
 248 0074 6668     		ldr	r6, [r4, #4]	@ float
 249              	.LVL29:
 250 0076 6069     		ldr	r0, [r4, #20]
 251 0078 FFF7FEFF 		bl	__aeabi_i2f
 252              	.LVL30:
 253 007c 0546     		mov	r5, r0
 254 007e 3046     		mov	r0, r6
 255 0080 2946     		mov	r1, r5
 256 0082 FFF7FEFF 		bl	__aeabi_fdiv
 257              	.LVL31:
 258 0086 A060     		str	r0, [r4, #8]	@ float
 122:.\signal_processing.c ****     eb->percent_brake_errs = ((float)eb->num_brake_errs) / ((float)eb->size);
 259              		.loc 1 122 0
 260 0088 2069     		ldr	r0, [r4, #16]
 261 008a FFF7FEFF 		bl	__aeabi_i2f
 262              	.LVL32:
 263 008e 2946     		mov	r1, r5
 264 0090 FFF7FEFF 		bl	__aeabi_fdiv
 265              	.LVL33:
 266 0094 E060     		str	r0, [r4, #12]	@ float
 267 0096 BDE8F883 		pop	{r3, r4, r5, r6, r7, r8, r9, pc}
 268              		.cfi_endproc
 269              	.LFE67:
 270              		.size	updateErrorBuffer, .-updateErrorBuffer
 271 009a 00BF     		.section	.text.signalCheck,"ax",%progbits
 272              		.align	2
 273              		.global	signalCheck
 274              		.thumb
 275              		.thumb_func
 276              		.type	signalCheck, %function
ARM GAS  C:\Users\mitchell\AppData\Local\Temp\ccTz8xAg.s 			page 8


 277              	signalCheck:
 278              	.LFB68:
 123:.\signal_processing.c **** }
 124:.\signal_processing.c **** 
 125:.\signal_processing.c **** /*
 126:.\signal_processing.c **** parameter:  tps0 - tps0 count
 127:.\signal_processing.c ****             tps1 - tps1 count
 128:.\signal_processing.c ****             apps0 - apps0 count
 129:.\signal_processing.c ****             apps1 - apps1 count
 130:.\signal_processing.c ****             brake - brake count
 131:.\signal_processing.c **** return:     ERROR if any of the signals show open/short circuit signals
 132:.\signal_processing.c **** */
 133:.\signal_processing.c **** unsigned char signalCheck(uint16 tps0, uint16 tps1, uint16 apps0, uint16 apps1, uint16 brake) {
 279              		.loc 1 133 0
 280              		.cfi_startproc
 281              		@ args = 4, pretend = 0, frame = 0
 282              		@ frame_needed = 0, uses_anonymous_args = 0
 283              		@ link register save eliminated.
 284              	.LVL34:
 134:.\signal_processing.c ****     if (tps0 == OPEN_SHORT_CIRCUIT || tps1 == OPEN_SHORT_CIRCUIT ||
 285              		.loc 1 134 0
 286 0000 38B1     		cbz	r0, .L19
 287              		.loc 1 134 0 is_stmt 0 discriminator 1
 288 0002 41B1     		cbz	r1, .L20
 289              		.loc 1 134 0 discriminator 2
 290 0004 4AB1     		cbz	r2, .L21
 135:.\signal_processing.c ****         apps0 == OPEN_SHORT_CIRCUIT || apps1 == OPEN_SHORT_CIRCUIT ||
 291              		.loc 1 135 0 is_stmt 1
 292 0006 53B1     		cbz	r3, .L22
 293              		.loc 1 135 0 is_stmt 0 discriminator 1
 294 0008 BDF80030 		ldrh	r3, [sp]
 295              	.LVL35:
 296 000c 4BB9     		cbnz	r3, .L23
 136:.\signal_processing.c ****         brake == OPEN_SHORT_CIRCUIT) {
 137:.\signal_processing.c ****             return ERROR;
 297              		.loc 1 137 0 is_stmt 1
 298 000e 0020     		movs	r0, #0
 299              	.LVL36:
 300 0010 7047     		bx	lr
 301              	.LVL37:
 302              	.L19:
 303 0012 0020     		movs	r0, #0
 304              	.LVL38:
 305 0014 7047     		bx	lr
 306              	.LVL39:
 307              	.L20:
 308 0016 0020     		movs	r0, #0
 309              	.LVL40:
 310 0018 7047     		bx	lr
 311              	.LVL41:
 312              	.L21:
 313 001a 0020     		movs	r0, #0
 314              	.LVL42:
 315 001c 7047     		bx	lr
 316              	.LVL43:
 317              	.L22:
 318 001e 0020     		movs	r0, #0
ARM GAS  C:\Users\mitchell\AppData\Local\Temp\ccTz8xAg.s 			page 9


 319              	.LVL44:
 320 0020 7047     		bx	lr
 321              	.LVL45:
 322              	.L23:
 138:.\signal_processing.c ****     } else {
 139:.\signal_processing.c ****         return NO_ERROR;
 323              		.loc 1 139 0
 324 0022 0120     		movs	r0, #1
 325              	.LVL46:
 140:.\signal_processing.c ****     }
 141:.\signal_processing.c **** }
 326              		.loc 1 141 0
 327 0024 7047     		bx	lr
 328              		.cfi_endproc
 329              	.LFE68:
 330              		.size	signalCheck, .-signalCheck
 331              		.global	__aeabi_f2d
 332              		.global	__aeabi_dcmplt
 333 0026 00BF     		.section	.text.localImplausibility,"ax",%progbits
 334              		.align	2
 335              		.global	localImplausibility
 336              		.thumb
 337              		.thumb_func
 338              		.type	localImplausibility, %function
 339              	localImplausibility:
 340              	.LFB69:
 142:.\signal_processing.c **** 
 143:.\signal_processing.c **** /*
 144:.\signal_processing.c **** parameter:  sens_0 - The first sensor (% open, 0.0-100.0)
 145:.\signal_processing.c ****             sens_1 - The second sensor (% open, 0.0-100.0)
 146:.\signal_processing.c **** return:     ERROR if sens_0 and sens_1 differ by more than 10% (percent difference)
 147:.\signal_processing.c ****                 OR pull-down resistor shows open circuit
 148:.\signal_processing.c ****             NO_ERROR otherwise
 149:.\signal_processing.c **** */
 150:.\signal_processing.c **** unsigned char localImplausibility(float sens_0, float sens_1) {
 341              		.loc 1 150 0
 342              		.cfi_startproc
 343              		@ args = 0, pretend = 0, frame = 0
 344              		@ frame_needed = 0, uses_anonymous_args = 0
 345              	.LVL47:
 346 0000 08B5     		push	{r3, lr}
 347              		.cfi_def_cfa_offset 8
 348              		.cfi_offset 3, -8
 349              		.cfi_offset 14, -4
 350 0002 0346     		mov	r3, r0
 151:.\signal_processing.c ****     float diff = fabs(sens_1 - sens_0);
 351              		.loc 1 151 0
 352 0004 0846     		mov	r0, r1
 353              	.LVL48:
 354 0006 1946     		mov	r1, r3
 355              	.LVL49:
 356 0008 FFF7FEFF 		bl	__aeabi_fsub
 357              	.LVL50:
 358 000c 20F00040 		bic	r0, r0, #-2147483648
 359              	.LVL51:
 152:.\signal_processing.c ****     if (diff < 0.10) {
 360              		.loc 1 152 0
ARM GAS  C:\Users\mitchell\AppData\Local\Temp\ccTz8xAg.s 			page 10


 361 0010 FFF7FEFF 		bl	__aeabi_f2d
 362              	.LVL52:
 363 0014 04A3     		adr	r3, .L31
 364 0016 D3E90023 		ldrd	r2, [r3]
 365 001a FFF7FEFF 		bl	__aeabi_dcmplt
 366              	.LVL53:
 367 001e 08B1     		cbz	r0, .L29
 153:.\signal_processing.c ****         return NO_ERROR;
 368              		.loc 1 153 0
 369 0020 0120     		movs	r0, #1
 370 0022 08BD     		pop	{r3, pc}
 371              	.L29:
 154:.\signal_processing.c ****     } else {
 155:.\signal_processing.c ****         return ERROR;
 372              		.loc 1 155 0
 373 0024 0020     		movs	r0, #0
 156:.\signal_processing.c ****     }
 157:.\signal_processing.c **** }
 374              		.loc 1 157 0
 375 0026 08BD     		pop	{r3, pc}
 376              	.L32:
 377              		.align	3
 378              	.L31:
 379 0028 9A999999 		.word	-1717986918
 380 002c 9999B93F 		.word	1069128089
 381              		.cfi_endproc
 382              	.LFE69:
 383              		.size	localImplausibility, .-localImplausibility
 384              		.section	.text.average,"ax",%progbits
 385              		.align	2
 386              		.global	average
 387              		.thumb
 388              		.thumb_func
 389              		.type	average, %function
 390              	average:
 391              	.LFB64:
  57:.\signal_processing.c ****     if(localImplausibility(s0, s1) == ERROR) {
 392              		.loc 1 57 0
 393              		.cfi_startproc
 394              		@ args = 0, pretend = 0, frame = 0
 395              		@ frame_needed = 0, uses_anonymous_args = 0
 396              	.LVL54:
 397 0000 38B5     		push	{r3, r4, r5, lr}
 398              		.cfi_def_cfa_offset 16
 399              		.cfi_offset 3, -16
 400              		.cfi_offset 4, -12
 401              		.cfi_offset 5, -8
 402              		.cfi_offset 14, -4
 403 0002 0546     		mov	r5, r0
 404 0004 0C46     		mov	r4, r1
  58:.\signal_processing.c ****         return fERROR;
 405              		.loc 1 58 0
 406 0006 FFF7FEFF 		bl	localImplausibility
 407              	.LVL55:
 408 000a 40B1     		cbz	r0, .L35
  61:.\signal_processing.c **** }
 409              		.loc 1 61 0
ARM GAS  C:\Users\mitchell\AppData\Local\Temp\ccTz8xAg.s 			page 11


 410 000c 2846     		mov	r0, r5
 411 000e 2146     		mov	r1, r4
 412 0010 FFF7FEFF 		bl	__aeabi_fadd
 413              	.LVL56:
 414 0014 4FF07C51 		mov	r1, #1056964608
 415 0018 FFF7FEFF 		bl	__aeabi_fmul
 416              	.LVL57:
 417 001c 38BD     		pop	{r3, r4, r5, pc}
 418              	.LVL58:
 419              	.L35:
  59:.\signal_processing.c ****     }
 420              		.loc 1 59 0
 421 001e 0020     		movs	r0, #0
  62:.\signal_processing.c **** 
 422              		.loc 1 62 0
 423 0020 38BD     		pop	{r3, r4, r5, pc}
 424              		.cfi_endproc
 425              	.LFE64:
 426              		.size	average, .-average
 427              		.global	__aeabi_fcmpgt
 428 0022 00BF     		.section	.text.brakeErrorCheck,"ax",%progbits
 429              		.align	2
 430              		.global	brakeErrorCheck
 431              		.thumb
 432              		.thumb_func
 433              		.type	brakeErrorCheck, %function
 434              	brakeErrorCheck:
 435              	.LFB71:
 158:.\signal_processing.c **** 
 159:.\signal_processing.c **** /*
 160:.\signal_processing.c **** parameter:  curr_tps - The current TPS reading (% open, 0.0-100.0)
 161:.\signal_processing.c ****             exp_tps - The expected TPS reading (% open, 0.0-100.0)
 162:.\signal_processing.c ****             brake - The current brake reading (% open, 0.0-100.0)
 163:.\signal_processing.c **** effect:     Checks to make average error between current and
 164:.\signal_processing.c ****             expected TPS reading has not been greater than 10%
 165:.\signal_processing.c ****             for > 1 sec, and that the brake and is not above a
 166:.\signal_processing.c ****             desired threshold for a certain amount of time.
 167:.\signal_processing.c **** return:     ERROR if there is an error, a non-error output
 168:.\signal_processing.c ****             otherwise
 169:.\signal_processing.c **** */
 170:.\signal_processing.c **** unsigned char globalImplausibility(float curr_tps, float expected_tps,
 171:.\signal_processing.c ****                             float brake, Error_Buffer * eb) {
 172:.\signal_processing.c ****     float tp_err = fabs(curr_tps - expected_tps);
 173:.\signal_processing.c ****     unsigned char brake_err = brakeErrorCheck(brake, curr_tps);
 174:.\signal_processing.c ****     
 175:.\signal_processing.c ****     updateErrorBuffer(eb, brake_err, tp_err);
 176:.\signal_processing.c ****     
 177:.\signal_processing.c ****     if (eb->TPS_APPS_avg > TP_ERR_CUTOFF
 178:.\signal_processing.c ****             || eb->percent_brake_errs > BRAKE_ERR_CUTOFF) {
 179:.\signal_processing.c ****         return ERROR;
 180:.\signal_processing.c ****     } else {
 181:.\signal_processing.c ****         return NO_ERROR;
 182:.\signal_processing.c ****     }
 183:.\signal_processing.c **** }
 184:.\signal_processing.c ****                             
 185:.\signal_processing.c **** /*
 186:.\signal_processing.c **** parameter:  brake - The current brake position reading (% open, 0.0-100.0)
ARM GAS  C:\Users\mitchell\AppData\Local\Temp\ccTz8xAg.s 			page 12


 187:.\signal_processing.c ****             tps - The current TPS reading (% open, 0.0-100.0)
 188:.\signal_processing.c **** return:     BRAKE_ERROR If the brake is applied above a given throttle threshold
 189:.\signal_processing.c ****             BRAKE_GOOD If there is no current brake implausibility
 190:.\signal_processing.c **** */
 191:.\signal_processing.c **** unsigned char brakeErrorCheck(float brake, float tps) {
 436              		.loc 1 191 0
 437              		.cfi_startproc
 438              		@ args = 0, pretend = 0, frame = 0
 439              		@ frame_needed = 0, uses_anonymous_args = 0
 440              	.LVL59:
 441 0000 10B5     		push	{r4, lr}
 442              		.cfi_def_cfa_offset 8
 443              		.cfi_offset 4, -8
 444              		.cfi_offset 14, -4
 445 0002 0C46     		mov	r4, r1
 192:.\signal_processing.c ****     /* TODO: Find and program a valid relationship. I just put in some 
 193:.\signal_processing.c ****              simple numbers
 194:.\signal_processing.c ****     */
 195:.\signal_processing.c ****     if (brake > 5.0 && tps > 10.0) {
 446              		.loc 1 195 0
 447 0004 0649     		ldr	r1, .L45
 448              	.LVL60:
 449 0006 FFF7FEFF 		bl	__aeabi_fcmpgt
 450              	.LVL61:
 451 000a 28B1     		cbz	r0, .L43
 452              		.loc 1 195 0 is_stmt 0 discriminator 1
 453 000c 2046     		mov	r0, r4
 454 000e 0549     		ldr	r1, .L45+4
 455 0010 FFF7FEFF 		bl	__aeabi_fcmpgt
 456              	.LVL62:
 457 0014 10B9     		cbnz	r0, .L41
 458 0016 10BD     		pop	{r4, pc}
 459              	.LVL63:
 460              	.L43:
 196:.\signal_processing.c ****         return BRAKE_ERROR;
 197:.\signal_processing.c ****     } else {
 198:.\signal_processing.c ****         return BRAKE_GOOD;
 461              		.loc 1 198 0 is_stmt 1
 462 0018 0020     		movs	r0, #0
 463 001a 10BD     		pop	{r4, pc}
 464              	.LVL64:
 465              	.L41:
 196:.\signal_processing.c ****         return BRAKE_ERROR;
 466              		.loc 1 196 0
 467 001c 0120     		movs	r0, #1
 199:.\signal_processing.c ****     }
 200:.\signal_processing.c **** }
 468              		.loc 1 200 0
 469 001e 10BD     		pop	{r4, pc}
 470              	.LVL65:
 471              	.L46:
 472              		.align	2
 473              	.L45:
 474 0020 0000A040 		.word	1084227584
 475 0024 00002041 		.word	1092616192
 476              		.cfi_endproc
 477              	.LFE71:
ARM GAS  C:\Users\mitchell\AppData\Local\Temp\ccTz8xAg.s 			page 13


 478              		.size	brakeErrorCheck, .-brakeErrorCheck
 479              		.section	.text.globalImplausibility,"ax",%progbits
 480              		.align	2
 481              		.global	globalImplausibility
 482              		.thumb
 483              		.thumb_func
 484              		.type	globalImplausibility, %function
 485              	globalImplausibility:
 486              	.LFB70:
 171:.\signal_processing.c ****     float tp_err = fabs(curr_tps - expected_tps);
 487              		.loc 1 171 0
 488              		.cfi_startproc
 489              		@ args = 0, pretend = 0, frame = 0
 490              		@ frame_needed = 0, uses_anonymous_args = 0
 491              	.LVL66:
 492 0000 F8B5     		push	{r3, r4, r5, r6, r7, lr}
 493              		.cfi_def_cfa_offset 24
 494              		.cfi_offset 3, -24
 495              		.cfi_offset 4, -20
 496              		.cfi_offset 5, -16
 497              		.cfi_offset 6, -12
 498              		.cfi_offset 7, -8
 499              		.cfi_offset 14, -4
 500 0002 0646     		mov	r6, r0
 501 0004 1746     		mov	r7, r2
 502 0006 1C46     		mov	r4, r3
 172:.\signal_processing.c ****     unsigned char brake_err = brakeErrorCheck(brake, curr_tps);
 503              		.loc 1 172 0
 504 0008 FFF7FEFF 		bl	__aeabi_fsub
 505              	.LVL67:
 506 000c 20F00045 		bic	r5, r0, #-2147483648
 507              	.LVL68:
 173:.\signal_processing.c ****     
 508              		.loc 1 173 0
 509 0010 3846     		mov	r0, r7
 510 0012 3146     		mov	r1, r6
 511 0014 FFF7FEFF 		bl	brakeErrorCheck
 512              	.LVL69:
 513 0018 0146     		mov	r1, r0
 514              	.LVL70:
 175:.\signal_processing.c ****     
 515              		.loc 1 175 0
 516 001a 2046     		mov	r0, r4
 517 001c 2A46     		mov	r2, r5
 518 001e FFF7FEFF 		bl	updateErrorBuffer
 519              	.LVL71:
 177:.\signal_processing.c ****             || eb->percent_brake_errs > BRAKE_ERR_CUTOFF) {
 520              		.loc 1 177 0
 521 0022 A068     		ldr	r0, [r4, #8]	@ float
 522 0024 0749     		ldr	r1, .L55
 523 0026 FFF7FEFF 		bl	__aeabi_fcmpgt
 524              	.LVL72:
 525 002a 30B9     		cbnz	r0, .L50
 178:.\signal_processing.c ****         return ERROR;
 526              		.loc 1 178 0
 527 002c E068     		ldr	r0, [r4, #12]	@ float
 528 002e 0649     		ldr	r1, .L55+4
ARM GAS  C:\Users\mitchell\AppData\Local\Temp\ccTz8xAg.s 			page 14


 529 0030 FFF7FEFF 		bl	__aeabi_fcmpgt
 530              	.LVL73:
 531 0034 18B1     		cbz	r0, .L53
 179:.\signal_processing.c ****     } else {
 532              		.loc 1 179 0
 533 0036 0020     		movs	r0, #0
 534 0038 F8BD     		pop	{r3, r4, r5, r6, r7, pc}
 535              	.LVL74:
 536              	.L50:
 537 003a 0020     		movs	r0, #0
 538 003c F8BD     		pop	{r3, r4, r5, r6, r7, pc}
 539              	.LVL75:
 540              	.L53:
 181:.\signal_processing.c ****     }
 541              		.loc 1 181 0
 542 003e 0120     		movs	r0, #1
 183:.\signal_processing.c ****                             
 543              		.loc 1 183 0
 544 0040 F8BD     		pop	{r3, r4, r5, r6, r7, pc}
 545              	.LVL76:
 546              	.L56:
 547 0042 00BF     		.align	2
 548              	.L55:
 549 0044 00002041 		.word	1092616192
 550 0048 0000B442 		.word	1119092736
 551              		.cfi_endproc
 552              	.LFE70:
 553              		.size	globalImplausibility, .-globalImplausibility
 554              		.section	.text.nextThrottlePosition,"ax",%progbits
 555              		.align	2
 556              		.global	nextThrottlePosition
 557              		.thumb
 558              		.thumb_func
 559              		.type	nextThrottlePosition, %function
 560              	nextThrottlePosition:
 561              	.LFB65:
  75:.\signal_processing.c ****     if (globalImplausibility(curr_pos, prev_request, brake_pos, errs) == ERROR) {
 562              		.loc 1 75 0
 563              		.cfi_startproc
 564              		@ args = 4, pretend = 0, frame = 0
 565              		@ frame_needed = 0, uses_anonymous_args = 0
 566              	.LVL77:
 567 0000 10B5     		push	{r4, lr}
 568              		.cfi_def_cfa_offset 8
 569              		.cfi_offset 4, -8
 570              		.cfi_offset 14, -4
 571 0002 0446     		mov	r4, r0
  76:.\signal_processing.c ****         return fERROR;
 572              		.loc 1 76 0
 573 0004 0846     		mov	r0, r1
 574              	.LVL78:
 575 0006 1146     		mov	r1, r2
 576              	.LVL79:
 577 0008 1A46     		mov	r2, r3
 578              	.LVL80:
 579 000a 029B     		ldr	r3, [sp, #8]
 580              	.LVL81:
ARM GAS  C:\Users\mitchell\AppData\Local\Temp\ccTz8xAg.s 			page 15


 581 000c FFF7FEFF 		bl	globalImplausibility
 582              	.LVL82:
 583 0010 08B9     		cbnz	r0, .L59
  77:.\signal_processing.c ****     }
 584              		.loc 1 77 0
 585 0012 0020     		movs	r0, #0
 586 0014 10BD     		pop	{r4, pc}
 587              	.LVL83:
 588              	.L59:
  79:.\signal_processing.c **** }
 589              		.loc 1 79 0
 590 0016 2046     		mov	r0, r4
  80:.\signal_processing.c **** 
 591              		.loc 1 80 0
 592 0018 10BD     		pop	{r4, pc}
 593              		.cfi_endproc
 594              	.LFE65:
 595              		.size	nextThrottlePosition, .-nextThrottlePosition
 596              		.global	__aeabi_dmul
 597              		.global	__aeabi_dadd
 598              		.global	__aeabi_d2uiz
 599 001a 00BF     		.section	.text.writeToServo,"ax",%progbits
 600              		.align	2
 601              		.global	writeToServo
 602              		.thumb
 603              		.thumb_func
 604              		.type	writeToServo, %function
 605              	writeToServo:
 606              	.LFB72:
 201:.\signal_processing.c **** 
 202:.\signal_processing.c **** /*
 203:.\signal_processing.c **** parameter:  percent_open - How much the throttle body should be open
 204:.\signal_processing.c **** effect:     Writes compare for the PWM component which determins the
 205:.\signal_processing.c ****             throttle actuator position.
 206:.\signal_processing.c **** */
 207:.\signal_processing.c **** void writeToServo(float percent_open) {
 607              		.loc 1 207 0
 608              		.cfi_startproc
 609              		@ args = 0, pretend = 0, frame = 0
 610              		@ frame_needed = 0, uses_anonymous_args = 0
 611              	.LVL84:
 612 0000 08B5     		push	{r3, lr}
 613              		.cfi_def_cfa_offset 8
 614              		.cfi_offset 3, -8
 615              		.cfi_offset 14, -4
 208:.\signal_processing.c ****     uint16 compare = (uint16)(1000 + (percent_open * 1000.0));
 616              		.loc 1 208 0
 617 0002 FFF7FEFF 		bl	__aeabi_f2d
 618              	.LVL85:
 619 0006 0022     		movs	r2, #0
 620 0008 064B     		ldr	r3, .L63
 621 000a FFF7FEFF 		bl	__aeabi_dmul
 622              	.LVL86:
 623 000e 0022     		movs	r2, #0
 624 0010 044B     		ldr	r3, .L63
 625 0012 FFF7FEFF 		bl	__aeabi_dadd
 626              	.LVL87:
ARM GAS  C:\Users\mitchell\AppData\Local\Temp\ccTz8xAg.s 			page 16


 627 0016 FFF7FEFF 		bl	__aeabi_d2uiz
 628              	.LVL88:
 209:.\signal_processing.c ****     SERVO_PWM_WriteCompare(compare);
 629              		.loc 1 209 0
 630 001a 80B2     		uxth	r0, r0
 631 001c FFF7FEFF 		bl	SERVO_PWM_WriteCompare
 632              	.LVL89:
 633 0020 08BD     		pop	{r3, pc}
 634              	.L64:
 635 0022 00BF     		.align	2
 636              	.L63:
 637 0024 00408F40 		.word	1083129856
 638              		.cfi_endproc
 639              	.LFE72:
 640              		.size	writeToServo, .-writeToServo
 641              		.section	.text.handleError,"ax",%progbits
 642              		.align	2
 643              		.global	handleError
 644              		.thumb
 645              		.thumb_func
 646              		.type	handleError, %function
 647              	handleError:
 648              	.LFB73:
 210:.\signal_processing.c **** }
 211:.\signal_processing.c **** 
 212:.\signal_processing.c **** /*
 213:.\signal_processing.c **** effect:     Stops the e-throttle system in case of an error.
 214:.\signal_processing.c ****             Shuts down power to the throttle actuator until 
 215:.\signal_processing.c ****             TPS signal is < 5%
 216:.\signal_processing.c **** */
 217:.\signal_processing.c **** void handleError() {
 649              		.loc 1 217 0
 650              		.cfi_startproc
 651              		@ args = 0, pretend = 0, frame = 0
 652              		@ frame_needed = 0, uses_anonymous_args = 0
 653 0000 08B5     		push	{r3, lr}
 654              		.cfi_def_cfa_offset 8
 655              		.cfi_offset 3, -8
 656              		.cfi_offset 14, -4
 218:.\signal_processing.c ****     Timer_Stop();
 657              		.loc 1 218 0
 658 0002 FFF7FEFF 		bl	Timer_Stop
 659              	.LVL90:
 660 0006 08BD     		pop	{r3, pc}
 661              		.cfi_endproc
 662              	.LFE73:
 663              		.size	handleError, .-handleError
 664              		.text
 665              	.Letext0:
 666              		.file 2 "c:\\program files (x86)\\cypress\\psoc creator\\3.3\\psoc creator\\import\\gnu\\arm\\4.9.
 667              		.file 3 "c:\\program files (x86)\\cypress\\psoc creator\\3.3\\psoc creator\\import\\gnu\\arm\\4.9.
 668              		.file 4 "Generated_Source\\PSoC5/cytypes.h"
 669              		.file 5 "c:\\program files (x86)\\cypress\\psoc creator\\3.3\\psoc creator\\import\\gnu\\arm\\4.9.
 670              		.file 6 ".\\queue.h"
 671              		.file 7 ".\\global_constants.h"
 672              		.file 8 ".\\signal_processing.h"
 673              		.file 9 "c:\\program files (x86)\\cypress\\psoc creator\\3.3\\psoc creator\\import\\gnu\\arm\\4.9.
ARM GAS  C:\Users\mitchell\AppData\Local\Temp\ccTz8xAg.s 			page 17


 674              		.file 10 "Generated_Source\\PSoC5/Timer.h"
 675              		.file 11 "Generated_Source\\PSoC5/core_cm3.h"
 676              		.file 12 "Generated_Source\\PSoC5/SERVO_PWM.h"