ARM GAS  C:\Users\mitchell\AppData\Local\Temp\ccB63cDR.s 			page 1


   1              		.syntax unified
   2              		.cpu cortex-m3
   3              		.fpu softvfp
   4              		.eabi_attribute 20, 1
   5              		.eabi_attribute 21, 1
   6              		.eabi_attribute 23, 3
   7              		.eabi_attribute 24, 1
   8              		.eabi_attribute 25, 1
   9              		.eabi_attribute 26, 1
  10              		.eabi_attribute 30, 1
  11              		.eabi_attribute 34, 1
  12              		.eabi_attribute 18, 4
  13              		.thumb
  14              		.file	"main.c"
  15              		.text
  16              	.Ltext0:
  17              		.cfi_sections	.debug_frame
  18              		.section	.text.outputNum,"ax",%progbits
  19              		.align	2
  20              		.global	outputNum
  21              		.thumb
  22              		.thumb_func
  23              		.type	outputNum, %function
  24              	outputNum:
  25              	.LFB64:
  26              		.file 1 ".\\main.c"
   1:.\main.c      **** /* ========================================
   2:.\main.c      ****  *
   3:.\main.c      ****  * Copyright YOUR COMPANY, THE YEAR
   4:.\main.c      ****  * All Rights Reserved
   5:.\main.c      ****  * UNPUBLISHED, LICENSED SOFTWARE.
   6:.\main.c      ****  *
   7:.\main.c      ****  * CONFIDENTIAL AND PROPRIETARY INFORMATION
   8:.\main.c      ****  * WHICH IS THE PROPERTY OF your company.
   9:.\main.c      ****  *
  10:.\main.c      ****  * ========================================
  11:.\main.c      **** */
  12:.\main.c      **** #include <project.h>
  13:.\main.c      **** 
  14:.\main.c      **** void outputNum(char*);
  15:.\main.c      **** 
  16:.\main.c      **** int main()
  17:.\main.c      **** {
  18:.\main.c      ****     CyGlobalIntEnable; /* Enable global interrupts. */
  19:.\main.c      ****     
  20:.\main.c      ****     UART_1_Start();
  21:.\main.c      ****     ADC_DelSig_Start();
  22:.\main.c      ****     
  23:.\main.c      ****     union {
  24:.\main.c      ****         char str[4];
  25:.\main.c      ****         int num;
  26:.\main.c      ****     } pot_0;
  27:.\main.c      ****     
  28:.\main.c      ****     
  29:.\main.c      ****     /* Place your initialization/startup code here (e.g. MyInst_Start()) */
  30:.\main.c      **** 
  31:.\main.c      ****     for(;;)
ARM GAS  C:\Users\mitchell\AppData\Local\Temp\ccB63cDR.s 			page 2


  32:.\main.c      ****     { 
  33:.\main.c      ****         // Run an ADC convert and store the values in the pot_0/pot_1.num
  34:.\main.c      ****         //ADC_DelSig_StartConvert();
  35:.\main.c      ****         //ADC_DelSig_IsEndConversion(ADC_DelSig_WAIT_FOR_RESULT);
  36:.\main.c      ****         //pot_0.num = ADC_DelSig_GetResult16();
  37:.\main.c      ****         
  38:.\main.c      ****         pot_0.num = ADC_DelSig_Read16();
  39:.\main.c      ****         
  40:.\main.c      ****         outputNum(pot_0.str);
  41:.\main.c      ****                 
  42:.\main.c      ****         CyDelay(100);
  43:.\main.c      ****     }
  44:.\main.c      **** }
  45:.\main.c      **** 
  46:.\main.c      **** void outputNum(char* num) {
  27              		.loc 1 46 0
  28              		.cfi_startproc
  29              		@ args = 0, pretend = 0, frame = 0
  30              		@ frame_needed = 0, uses_anonymous_args = 0
  31              	.LVL0:
  32 0000 10B5     		push	{r4, lr}
  33              		.cfi_def_cfa_offset 8
  34              		.cfi_offset 4, -8
  35              		.cfi_offset 14, -4
  36 0002 0446     		mov	r4, r0
  47:.\main.c      ****     UART_1_PutChar(num[0]);
  37              		.loc 1 47 0
  38 0004 0078     		ldrb	r0, [r0]	@ zero_extendqisi2
  39              	.LVL1:
  40 0006 FFF7FEFF 		bl	UART_1_PutChar
  41              	.LVL2:
  48:.\main.c      ****     UART_1_PutChar(num[1]);
  42              		.loc 1 48 0
  43 000a 6078     		ldrb	r0, [r4, #1]	@ zero_extendqisi2
  44 000c FFF7FEFF 		bl	UART_1_PutChar
  45              	.LVL3:
  49:.\main.c      ****     UART_1_PutChar(num[2]);
  46              		.loc 1 49 0
  47 0010 A078     		ldrb	r0, [r4, #2]	@ zero_extendqisi2
  48 0012 FFF7FEFF 		bl	UART_1_PutChar
  49              	.LVL4:
  50:.\main.c      ****     UART_1_PutChar(num[3]);
  50              		.loc 1 50 0
  51 0016 E078     		ldrb	r0, [r4, #3]	@ zero_extendqisi2
  52 0018 FFF7FEFF 		bl	UART_1_PutChar
  53              	.LVL5:
  54 001c 10BD     		pop	{r4, pc}
  55              		.cfi_endproc
  56              	.LFE64:
  57              		.size	outputNum, .-outputNum
  58 001e 00BF     		.section	.text.main,"ax",%progbits
  59              		.align	2
  60              		.global	main
  61              		.thumb
  62              		.thumb_func
  63              		.type	main, %function
  64              	main:
ARM GAS  C:\Users\mitchell\AppData\Local\Temp\ccB63cDR.s 			page 3


  65              	.LFB63:
  17:.\main.c      **** {
  66              		.loc 1 17 0
  67              		.cfi_startproc
  68              		@ args = 0, pretend = 0, frame = 8
  69              		@ frame_needed = 0, uses_anonymous_args = 0
  70 0000 10B5     		push	{r4, lr}
  71              		.cfi_def_cfa_offset 8
  72              		.cfi_offset 4, -8
  73              		.cfi_offset 14, -4
  74 0002 82B0     		sub	sp, sp, #8
  75              		.cfi_def_cfa_offset 16
  18:.\main.c      ****     CyGlobalIntEnable; /* Enable global interrupts. */
  76              		.loc 1 18 0
  77              	@ 18 ".\main.c" 1
  78 0004 62B6     		CPSIE   i
  79              	@ 0 "" 2
  20:.\main.c      ****     UART_1_Start();
  80              		.loc 1 20 0
  81              		.thumb
  82 0006 FFF7FEFF 		bl	UART_1_Start
  83              	.LVL6:
  21:.\main.c      ****     ADC_DelSig_Start();
  84              		.loc 1 21 0
  85 000a FFF7FEFF 		bl	ADC_DelSig_Start
  86              	.LVL7:
  42:.\main.c      ****         CyDelay(100);
  87              		.loc 1 42 0
  88 000e 6424     		movs	r4, #100
  89              	.L3:
  38:.\main.c      ****         pot_0.num = ADC_DelSig_Read16();
  90              		.loc 1 38 0 discriminator 1
  91 0010 FFF7FEFF 		bl	ADC_DelSig_Read16
  92              	.LVL8:
  93 0014 0190     		str	r0, [sp, #4]
  40:.\main.c      ****         outputNum(pot_0.str);
  94              		.loc 1 40 0 discriminator 1
  95 0016 01A8     		add	r0, sp, #4
  96 0018 FFF7FEFF 		bl	outputNum
  97              	.LVL9:
  42:.\main.c      ****         CyDelay(100);
  98              		.loc 1 42 0 discriminator 1
  99 001c 2046     		mov	r0, r4
 100 001e FFF7FEFF 		bl	CyDelay
 101              	.LVL10:
 102 0022 F5E7     		b	.L3
 103              		.cfi_endproc
 104              	.LFE63:
 105              		.size	main, .-main
 106              		.text
 107              	.Letext0:
 108              		.file 2 "c:\\program files (x86)\\cypress\\psoc creator\\3.2\\psoc creator\\import\\gnu\\arm\\4.8.
 109              		.file 3 "c:\\program files (x86)\\cypress\\psoc creator\\3.2\\psoc creator\\import\\gnu\\arm\\4.8.
 110              		.file 4 "Generated_Source\\PSoC5/cytypes.h"
 111              		.file 5 "Generated_Source\\PSoC5/UART_1.h"
 112              		.file 6 "Generated_Source\\PSoC5/ADC_DelSig.h"
 113              		.file 7 "Generated_Source\\PSoC5/core_cm3.h"
ARM GAS  C:\Users\mitchell\AppData\Local\Temp\ccB63cDR.s 			page 4


 114              		.file 8 "Generated_Source\\PSoC5/CyLib.h"