ARM GAS  C:\Users\mitchell\AppData\Local\Temp\ccMCuH7q.s 			page 1


   1              		.syntax unified
   2              		.cpu cortex-m3
   3              		.fpu softvfp
   4              		.eabi_attribute 20, 1
   5              		.eabi_attribute 21, 1
   6              		.eabi_attribute 23, 3
   7              		.eabi_attribute 24, 1
   8              		.eabi_attribute 25, 1
   9              		.eabi_attribute 26, 1
  10              		.eabi_attribute 30, 1
  11              		.eabi_attribute 34, 1
  12              		.eabi_attribute 18, 4
  13              		.thumb
  14              		.file	"cyfitter_cfg.c"
  15              		.text
  16              	.Ltext0:
  17              		.cfi_sections	.debug_frame
  18              		.section	.text.CyClockStartupError,"ax",%progbits
  19              		.align	2
  20              		.thumb
  21              		.thumb_func
  22              		.type	CyClockStartupError, %function
  23              	CyClockStartupError:
  24              	.LFB3:
  25              		.file 1 ".\\Generated_Source\\PSoC5\\cyfitter_cfg.c"
   1:.\Generated_Source\PSoC5/cyfitter_cfg.c **** /*******************************************************************************
   2:.\Generated_Source\PSoC5/cyfitter_cfg.c **** * FILENAME: cyfitter_cfg.c
   3:.\Generated_Source\PSoC5/cyfitter_cfg.c **** * 
   4:.\Generated_Source\PSoC5/cyfitter_cfg.c **** * PSoC Creator  3.2 SP1
   5:.\Generated_Source\PSoC5/cyfitter_cfg.c **** *
   6:.\Generated_Source\PSoC5/cyfitter_cfg.c **** * DESCRIPTION:
   7:.\Generated_Source\PSoC5/cyfitter_cfg.c **** * This file contains device initialization code.
   8:.\Generated_Source\PSoC5/cyfitter_cfg.c **** * Except for the user defined sections in CyClockStartupError(), this file should not be modified.
   9:.\Generated_Source\PSoC5/cyfitter_cfg.c **** * This file is automatically generated by PSoC Creator.
  10:.\Generated_Source\PSoC5/cyfitter_cfg.c **** *
  11:.\Generated_Source\PSoC5/cyfitter_cfg.c **** ********************************************************************************
  12:.\Generated_Source\PSoC5/cyfitter_cfg.c **** * Copyright (c) 2007-2015 Cypress Semiconductor.  All rights reserved.
  13:.\Generated_Source\PSoC5/cyfitter_cfg.c **** * You may use this file only in accordance with the license, terms, conditions, 
  14:.\Generated_Source\PSoC5/cyfitter_cfg.c **** * disclaimers, and limitations in the end user license agreement accompanying 
  15:.\Generated_Source\PSoC5/cyfitter_cfg.c **** * the software package with which this file was provided.
  16:.\Generated_Source\PSoC5/cyfitter_cfg.c **** ********************************************************************************/
  17:.\Generated_Source\PSoC5/cyfitter_cfg.c **** 
  18:.\Generated_Source\PSoC5/cyfitter_cfg.c **** #include <string.h>
  19:.\Generated_Source\PSoC5/cyfitter_cfg.c **** #include "cytypes.h"
  20:.\Generated_Source\PSoC5/cyfitter_cfg.c **** #include "cydevice_trm.h"
  21:.\Generated_Source\PSoC5/cyfitter_cfg.c **** #include "cyfitter.h"
  22:.\Generated_Source\PSoC5/cyfitter_cfg.c **** #include "CyLib.h"
  23:.\Generated_Source\PSoC5/cyfitter_cfg.c **** #include "cyfitter_cfg.h"
  24:.\Generated_Source\PSoC5/cyfitter_cfg.c **** 
  25:.\Generated_Source\PSoC5/cyfitter_cfg.c **** #define CY_NEED_CYCLOCKSTARTUPERROR 1
  26:.\Generated_Source\PSoC5/cyfitter_cfg.c **** 
  27:.\Generated_Source\PSoC5/cyfitter_cfg.c **** 
  28:.\Generated_Source\PSoC5/cyfitter_cfg.c **** #if defined(__GNUC__) || defined(__ARMCC_VERSION)
  29:.\Generated_Source\PSoC5/cyfitter_cfg.c ****     #define CYPACKED 
  30:.\Generated_Source\PSoC5/cyfitter_cfg.c ****     #define CYPACKED_ATTR __attribute__ ((packed))
  31:.\Generated_Source\PSoC5/cyfitter_cfg.c ****     #define CYALIGNED __attribute__ ((aligned))
  32:.\Generated_Source\PSoC5/cyfitter_cfg.c ****     #define CY_CFG_UNUSED __attribute__ ((unused))
ARM GAS  C:\Users\mitchell\AppData\Local\Temp\ccMCuH7q.s 			page 2


  33:.\Generated_Source\PSoC5/cyfitter_cfg.c ****     #define CY_CFG_SECTION __attribute__ ((section(".psocinit")))
  34:.\Generated_Source\PSoC5/cyfitter_cfg.c ****     
  35:.\Generated_Source\PSoC5/cyfitter_cfg.c ****     #if defined(__ARMCC_VERSION)
  36:.\Generated_Source\PSoC5/cyfitter_cfg.c ****         #define CY_CFG_MEMORY_BARRIER() __memory_changed()
  37:.\Generated_Source\PSoC5/cyfitter_cfg.c ****     #else
  38:.\Generated_Source\PSoC5/cyfitter_cfg.c ****         #define CY_CFG_MEMORY_BARRIER() __sync_synchronize()
  39:.\Generated_Source\PSoC5/cyfitter_cfg.c ****     #endif
  40:.\Generated_Source\PSoC5/cyfitter_cfg.c ****     
  41:.\Generated_Source\PSoC5/cyfitter_cfg.c **** #elif defined(__ICCARM__)
  42:.\Generated_Source\PSoC5/cyfitter_cfg.c ****     #include <intrinsics.h>
  43:.\Generated_Source\PSoC5/cyfitter_cfg.c **** 
  44:.\Generated_Source\PSoC5/cyfitter_cfg.c ****     #define CYPACKED __packed
  45:.\Generated_Source\PSoC5/cyfitter_cfg.c ****     #define CYPACKED_ATTR 
  46:.\Generated_Source\PSoC5/cyfitter_cfg.c ****     #define CYALIGNED _Pragma("data_alignment=4")
  47:.\Generated_Source\PSoC5/cyfitter_cfg.c ****     #define CY_CFG_UNUSED _Pragma("diag_suppress=Pe177")
  48:.\Generated_Source\PSoC5/cyfitter_cfg.c ****     #define CY_CFG_SECTION _Pragma("location=\".psocinit\"")
  49:.\Generated_Source\PSoC5/cyfitter_cfg.c ****     
  50:.\Generated_Source\PSoC5/cyfitter_cfg.c ****     #define CY_CFG_MEMORY_BARRIER() __DMB()
  51:.\Generated_Source\PSoC5/cyfitter_cfg.c ****     
  52:.\Generated_Source\PSoC5/cyfitter_cfg.c **** #else
  53:.\Generated_Source\PSoC5/cyfitter_cfg.c ****     #error Unsupported toolchain
  54:.\Generated_Source\PSoC5/cyfitter_cfg.c **** #endif
  55:.\Generated_Source\PSoC5/cyfitter_cfg.c **** 
  56:.\Generated_Source\PSoC5/cyfitter_cfg.c **** 
  57:.\Generated_Source\PSoC5/cyfitter_cfg.c **** CY_CFG_UNUSED
  58:.\Generated_Source\PSoC5/cyfitter_cfg.c **** static void CYMEMZERO(void *s, size_t n);
  59:.\Generated_Source\PSoC5/cyfitter_cfg.c **** CY_CFG_UNUSED
  60:.\Generated_Source\PSoC5/cyfitter_cfg.c **** static void CYMEMZERO(void *s, size_t n)
  61:.\Generated_Source\PSoC5/cyfitter_cfg.c **** {
  62:.\Generated_Source\PSoC5/cyfitter_cfg.c **** 	(void)memset(s, 0, n);
  63:.\Generated_Source\PSoC5/cyfitter_cfg.c **** }
  64:.\Generated_Source\PSoC5/cyfitter_cfg.c **** CY_CFG_UNUSED
  65:.\Generated_Source\PSoC5/cyfitter_cfg.c **** static void CYCONFIGCPY(void *dest, const void *src, size_t n);
  66:.\Generated_Source\PSoC5/cyfitter_cfg.c **** CY_CFG_UNUSED
  67:.\Generated_Source\PSoC5/cyfitter_cfg.c **** static void CYCONFIGCPY(void *dest, const void *src, size_t n)
  68:.\Generated_Source\PSoC5/cyfitter_cfg.c **** {
  69:.\Generated_Source\PSoC5/cyfitter_cfg.c **** 	(void)memcpy(dest, src, n);
  70:.\Generated_Source\PSoC5/cyfitter_cfg.c **** }
  71:.\Generated_Source\PSoC5/cyfitter_cfg.c **** CY_CFG_UNUSED
  72:.\Generated_Source\PSoC5/cyfitter_cfg.c **** static void CYCONFIGCPYCODE(void *dest, const void *src, size_t n);
  73:.\Generated_Source\PSoC5/cyfitter_cfg.c **** CY_CFG_UNUSED
  74:.\Generated_Source\PSoC5/cyfitter_cfg.c **** static void CYCONFIGCPYCODE(void *dest, const void *src, size_t n)
  75:.\Generated_Source\PSoC5/cyfitter_cfg.c **** {
  76:.\Generated_Source\PSoC5/cyfitter_cfg.c **** 	(void)memcpy(dest, src, n);
  77:.\Generated_Source\PSoC5/cyfitter_cfg.c **** }
  78:.\Generated_Source\PSoC5/cyfitter_cfg.c **** 
  79:.\Generated_Source\PSoC5/cyfitter_cfg.c **** 
  80:.\Generated_Source\PSoC5/cyfitter_cfg.c **** 
  81:.\Generated_Source\PSoC5/cyfitter_cfg.c **** /* Clock startup error codes                                                   */
  82:.\Generated_Source\PSoC5/cyfitter_cfg.c **** #define CYCLOCKSTART_NO_ERROR    0u
  83:.\Generated_Source\PSoC5/cyfitter_cfg.c **** #define CYCLOCKSTART_XTAL_ERROR  1u
  84:.\Generated_Source\PSoC5/cyfitter_cfg.c **** #define CYCLOCKSTART_32KHZ_ERROR 2u
  85:.\Generated_Source\PSoC5/cyfitter_cfg.c **** #define CYCLOCKSTART_PLL_ERROR   3u
  86:.\Generated_Source\PSoC5/cyfitter_cfg.c **** 
  87:.\Generated_Source\PSoC5/cyfitter_cfg.c **** #ifdef CY_NEED_CYCLOCKSTARTUPERROR
  88:.\Generated_Source\PSoC5/cyfitter_cfg.c **** /*******************************************************************************
  89:.\Generated_Source\PSoC5/cyfitter_cfg.c **** * Function Name: CyClockStartupError
ARM GAS  C:\Users\mitchell\AppData\Local\Temp\ccMCuH7q.s 			page 3


  90:.\Generated_Source\PSoC5/cyfitter_cfg.c **** ********************************************************************************
  91:.\Generated_Source\PSoC5/cyfitter_cfg.c **** * Summary:
  92:.\Generated_Source\PSoC5/cyfitter_cfg.c **** *  If an error is encountered during clock configuration (crystal startup error,
  93:.\Generated_Source\PSoC5/cyfitter_cfg.c **** *  PLL lock error, etc.), the system will end up here.  Unless reimplemented by
  94:.\Generated_Source\PSoC5/cyfitter_cfg.c **** *  the customer, this function will stop in an infinite loop.
  95:.\Generated_Source\PSoC5/cyfitter_cfg.c **** *
  96:.\Generated_Source\PSoC5/cyfitter_cfg.c **** * Parameters:
  97:.\Generated_Source\PSoC5/cyfitter_cfg.c **** *   void
  98:.\Generated_Source\PSoC5/cyfitter_cfg.c **** *
  99:.\Generated_Source\PSoC5/cyfitter_cfg.c **** * Return:
 100:.\Generated_Source\PSoC5/cyfitter_cfg.c **** *   void
 101:.\Generated_Source\PSoC5/cyfitter_cfg.c **** *
 102:.\Generated_Source\PSoC5/cyfitter_cfg.c **** *******************************************************************************/
 103:.\Generated_Source\PSoC5/cyfitter_cfg.c **** CY_CFG_UNUSED
 104:.\Generated_Source\PSoC5/cyfitter_cfg.c **** static void CyClockStartupError(uint8 errorCode);
 105:.\Generated_Source\PSoC5/cyfitter_cfg.c **** CY_CFG_UNUSED
 106:.\Generated_Source\PSoC5/cyfitter_cfg.c **** static void CyClockStartupError(uint8 errorCode)
 107:.\Generated_Source\PSoC5/cyfitter_cfg.c **** {
  26              		.loc 1 107 0
  27              		.cfi_startproc
  28              		@ Volatile: function does not return.
  29              		@ args = 0, pretend = 0, frame = 0
  30              		@ frame_needed = 0, uses_anonymous_args = 0
  31              		@ link register save eliminated.
  32              	.LVL0:
  33              	.L2:
  34 0000 FEE7     		b	.L2
  35              		.cfi_endproc
  36              	.LFE3:
  37              		.size	CyClockStartupError, .-CyClockStartupError
  38 0002 00BF     		.section	.text.AnalogSetDefault,"ax",%progbits
  39              		.align	2
  40              		.thumb
  41              		.thumb_func
  42              		.type	AnalogSetDefault, %function
  43              	AnalogSetDefault:
  44              	.LFB5:
 108:.\Generated_Source\PSoC5/cyfitter_cfg.c ****     /* To remove the compiler warning if errorCode not used.                */
 109:.\Generated_Source\PSoC5/cyfitter_cfg.c ****     errorCode = errorCode;
 110:.\Generated_Source\PSoC5/cyfitter_cfg.c **** 
 111:.\Generated_Source\PSoC5/cyfitter_cfg.c ****     /* `#START CyClockStartupError` */
 112:.\Generated_Source\PSoC5/cyfitter_cfg.c **** 
 113:.\Generated_Source\PSoC5/cyfitter_cfg.c ****     /* If we have a clock startup error (bad MHz crystal, PLL lock, etc.),  */
 114:.\Generated_Source\PSoC5/cyfitter_cfg.c ****     /* we will end up here to allow the customer to implement something to  */
 115:.\Generated_Source\PSoC5/cyfitter_cfg.c ****     /* deal with the clock condition.                                       */
 116:.\Generated_Source\PSoC5/cyfitter_cfg.c **** 
 117:.\Generated_Source\PSoC5/cyfitter_cfg.c ****     /* `#END` */
 118:.\Generated_Source\PSoC5/cyfitter_cfg.c **** 
 119:.\Generated_Source\PSoC5/cyfitter_cfg.c ****     /* If nothing else, stop here since the clocks have not started         */
 120:.\Generated_Source\PSoC5/cyfitter_cfg.c ****     /* correctly.                                                           */
 121:.\Generated_Source\PSoC5/cyfitter_cfg.c ****     while(1) {}
 122:.\Generated_Source\PSoC5/cyfitter_cfg.c **** }
 123:.\Generated_Source\PSoC5/cyfitter_cfg.c **** #endif
 124:.\Generated_Source\PSoC5/cyfitter_cfg.c **** 
 125:.\Generated_Source\PSoC5/cyfitter_cfg.c **** 
 126:.\Generated_Source\PSoC5/cyfitter_cfg.c **** /*******************************************************************************
 127:.\Generated_Source\PSoC5/cyfitter_cfg.c **** * Function Name: ClockSetup
ARM GAS  C:\Users\mitchell\AppData\Local\Temp\ccMCuH7q.s 			page 4


 128:.\Generated_Source\PSoC5/cyfitter_cfg.c **** ********************************************************************************
 129:.\Generated_Source\PSoC5/cyfitter_cfg.c **** *
 130:.\Generated_Source\PSoC5/cyfitter_cfg.c **** * Summary:
 131:.\Generated_Source\PSoC5/cyfitter_cfg.c **** *  Performs the initialization of all of the clocks in the device based on the
 132:.\Generated_Source\PSoC5/cyfitter_cfg.c **** *  settings in the Clock tab of the DWR.  This includes enabling the requested
 133:.\Generated_Source\PSoC5/cyfitter_cfg.c **** *  clocks and setting the necessary dividers to produce the desired frequency. 
 134:.\Generated_Source\PSoC5/cyfitter_cfg.c **** *
 135:.\Generated_Source\PSoC5/cyfitter_cfg.c **** * Parameters:
 136:.\Generated_Source\PSoC5/cyfitter_cfg.c **** *  void
 137:.\Generated_Source\PSoC5/cyfitter_cfg.c **** *
 138:.\Generated_Source\PSoC5/cyfitter_cfg.c **** * Return:
 139:.\Generated_Source\PSoC5/cyfitter_cfg.c **** *  void
 140:.\Generated_Source\PSoC5/cyfitter_cfg.c **** *
 141:.\Generated_Source\PSoC5/cyfitter_cfg.c **** *******************************************************************************/
 142:.\Generated_Source\PSoC5/cyfitter_cfg.c **** static void ClockSetup(void);
 143:.\Generated_Source\PSoC5/cyfitter_cfg.c **** static void ClockSetup(void)
 144:.\Generated_Source\PSoC5/cyfitter_cfg.c **** {
 145:.\Generated_Source\PSoC5/cyfitter_cfg.c **** 	uint32 timeout;
 146:.\Generated_Source\PSoC5/cyfitter_cfg.c **** 	uint8 pllLock;
 147:.\Generated_Source\PSoC5/cyfitter_cfg.c **** 
 148:.\Generated_Source\PSoC5/cyfitter_cfg.c **** 
 149:.\Generated_Source\PSoC5/cyfitter_cfg.c **** 	/* Configure ILO based on settings from Clock DWR */
 150:.\Generated_Source\PSoC5/cyfitter_cfg.c **** 	CY_SET_XTND_REG8((void CYFAR *)(CYREG_SLOWCLK_ILO_CR0), 0x02u);
 151:.\Generated_Source\PSoC5/cyfitter_cfg.c **** 	CY_SET_XTND_REG8((void CYFAR *)(CYREG_CLKDIST_CR), 0x08u);
 152:.\Generated_Source\PSoC5/cyfitter_cfg.c **** 
 153:.\Generated_Source\PSoC5/cyfitter_cfg.c **** 	/* Configure IMO based on settings from Clock DWR */
 154:.\Generated_Source\PSoC5/cyfitter_cfg.c **** 	CY_SET_XTND_REG8((void CYFAR *)(CYREG_FASTCLK_IMO_CR), 0x03u);
 155:.\Generated_Source\PSoC5/cyfitter_cfg.c **** 	CY_SET_XTND_REG8((void CYFAR *)(CYREG_IMO_TR1), (CY_GET_XTND_REG8((void CYFAR *)CYREG_FLSHID_CUST_
 156:.\Generated_Source\PSoC5/cyfitter_cfg.c **** 
 157:.\Generated_Source\PSoC5/cyfitter_cfg.c **** 	/* Configure PLL based on settings from Clock DWR */
 158:.\Generated_Source\PSoC5/cyfitter_cfg.c **** 	CY_SET_XTND_REG16((void CYFAR *)(CYREG_FASTCLK_PLL_P), 0x0008u);
 159:.\Generated_Source\PSoC5/cyfitter_cfg.c **** 	CY_SET_XTND_REG16((void CYFAR *)(CYREG_FASTCLK_PLL_CFG0), 0x1251u);
 160:.\Generated_Source\PSoC5/cyfitter_cfg.c **** 	/* Wait up to 250us for the PLL to lock */
 161:.\Generated_Source\PSoC5/cyfitter_cfg.c **** 	pllLock = 0u;
 162:.\Generated_Source\PSoC5/cyfitter_cfg.c **** 	for (timeout = 250u / 10u; (timeout > 0u) && (pllLock != 0x03u); timeout--)
 163:.\Generated_Source\PSoC5/cyfitter_cfg.c **** 	{ 
 164:.\Generated_Source\PSoC5/cyfitter_cfg.c **** 		pllLock = 0x03u & ((uint8)((uint8)pllLock << 1) | ((CY_GET_XTND_REG8((void CYFAR *)CYREG_FASTCLK_
 165:.\Generated_Source\PSoC5/cyfitter_cfg.c **** 		CyDelayCycles(10u * 48u); /* Delay 10us based on 48MHz clock */
 166:.\Generated_Source\PSoC5/cyfitter_cfg.c **** 	}
 167:.\Generated_Source\PSoC5/cyfitter_cfg.c **** 	/* If we ran out of time the PLL didn't lock so go to the error function */
 168:.\Generated_Source\PSoC5/cyfitter_cfg.c **** 	if (timeout == 0u)
 169:.\Generated_Source\PSoC5/cyfitter_cfg.c **** 	{
 170:.\Generated_Source\PSoC5/cyfitter_cfg.c **** 		CyClockStartupError(CYCLOCKSTART_PLL_ERROR);
 171:.\Generated_Source\PSoC5/cyfitter_cfg.c **** 	}
 172:.\Generated_Source\PSoC5/cyfitter_cfg.c **** 
 173:.\Generated_Source\PSoC5/cyfitter_cfg.c **** 	/* Configure Bus/Master Clock based on settings from Clock DWR */
 174:.\Generated_Source\PSoC5/cyfitter_cfg.c **** 	CY_SET_XTND_REG16((void CYFAR *)(CYREG_CLKDIST_MSTR0), 0x0100u);
 175:.\Generated_Source\PSoC5/cyfitter_cfg.c **** 	CY_SET_XTND_REG8((void CYFAR *)(CYREG_CLKDIST_MSTR0), 0x07u);
 176:.\Generated_Source\PSoC5/cyfitter_cfg.c **** 	CY_SET_XTND_REG8((void CYFAR *)(CYREG_CLKDIST_BCFG0), 0x00u);
 177:.\Generated_Source\PSoC5/cyfitter_cfg.c **** 	CY_SET_XTND_REG8((void CYFAR *)(CYREG_CLKDIST_BCFG2), 0x48u);
 178:.\Generated_Source\PSoC5/cyfitter_cfg.c **** 	CY_SET_XTND_REG8((void CYFAR *)(CYREG_CLKDIST_MSTR0), 0x00u);
 179:.\Generated_Source\PSoC5/cyfitter_cfg.c **** 	CY_SET_XTND_REG8((void CYFAR *)(CYREG_CLKDIST_LD), 0x02u);
 180:.\Generated_Source\PSoC5/cyfitter_cfg.c **** }
 181:.\Generated_Source\PSoC5/cyfitter_cfg.c **** 
 182:.\Generated_Source\PSoC5/cyfitter_cfg.c **** 
 183:.\Generated_Source\PSoC5/cyfitter_cfg.c **** /* Analog API Functions */
 184:.\Generated_Source\PSoC5/cyfitter_cfg.c **** 
ARM GAS  C:\Users\mitchell\AppData\Local\Temp\ccMCuH7q.s 			page 5


 185:.\Generated_Source\PSoC5/cyfitter_cfg.c **** 
 186:.\Generated_Source\PSoC5/cyfitter_cfg.c **** /*******************************************************************************
 187:.\Generated_Source\PSoC5/cyfitter_cfg.c **** * Function Name: AnalogSetDefault
 188:.\Generated_Source\PSoC5/cyfitter_cfg.c **** ********************************************************************************
 189:.\Generated_Source\PSoC5/cyfitter_cfg.c **** *
 190:.\Generated_Source\PSoC5/cyfitter_cfg.c **** * Summary:
 191:.\Generated_Source\PSoC5/cyfitter_cfg.c **** *  Sets up the analog portions of the chip to default values based on chip
 192:.\Generated_Source\PSoC5/cyfitter_cfg.c **** *  configuration options from the project.
 193:.\Generated_Source\PSoC5/cyfitter_cfg.c **** *
 194:.\Generated_Source\PSoC5/cyfitter_cfg.c **** * Parameters:
 195:.\Generated_Source\PSoC5/cyfitter_cfg.c **** *  void
 196:.\Generated_Source\PSoC5/cyfitter_cfg.c **** *
 197:.\Generated_Source\PSoC5/cyfitter_cfg.c **** * Return:
 198:.\Generated_Source\PSoC5/cyfitter_cfg.c **** *  void
 199:.\Generated_Source\PSoC5/cyfitter_cfg.c **** *
 200:.\Generated_Source\PSoC5/cyfitter_cfg.c **** *******************************************************************************/
 201:.\Generated_Source\PSoC5/cyfitter_cfg.c **** static void AnalogSetDefault(void);
 202:.\Generated_Source\PSoC5/cyfitter_cfg.c **** static void AnalogSetDefault(void)
 203:.\Generated_Source\PSoC5/cyfitter_cfg.c **** {
  45              		.loc 1 203 0
  46              		.cfi_startproc
  47              		@ args = 0, pretend = 0, frame = 0
  48              		@ frame_needed = 0, uses_anonymous_args = 0
  49              		@ link register save eliminated.
 204:.\Generated_Source\PSoC5/cyfitter_cfg.c **** 	uint8 bg_xover_inl_trim = CY_GET_XTND_REG8((void CYFAR *)(CYREG_FLSHID_MFG_CFG_BG_XOVER_INL_TRIM +
  50              		.loc 1 204 0
  51 0000 064B     		ldr	r3, .L4
  52 0002 1B78     		ldrb	r3, [r3]	@ zero_extendqisi2
  53 0004 DBB2     		uxtb	r3, r3
  54              	.LVL1:
 205:.\Generated_Source\PSoC5/cyfitter_cfg.c **** 	CY_SET_XTND_REG8((void CYFAR *)(CYREG_BG_DFT0), (bg_xover_inl_trim & 0x07u));
  55              		.loc 1 205 0
  56 0006 03F00701 		and	r1, r3, #7
  57 000a 054A     		ldr	r2, .L4+4
  58 000c 1170     		strb	r1, [r2]
 206:.\Generated_Source\PSoC5/cyfitter_cfg.c **** 	CY_SET_XTND_REG8((void CYFAR *)(CYREG_BG_DFT1), ((bg_xover_inl_trim >> 4) & 0x0Fu));
  59              		.loc 1 206 0
  60 000e 1B09     		lsrs	r3, r3, #4
  61              	.LVL2:
  62 0010 0132     		adds	r2, r2, #1
  63 0012 1370     		strb	r3, [r2]
 207:.\Generated_Source\PSoC5/cyfitter_cfg.c **** 	CY_SET_XTND_REG8((void CYFAR *)CYREG_PUMP_CR0, 0x44u);
  64              		.loc 1 207 0
  65 0014 4422     		movs	r2, #68
  66 0016 034B     		ldr	r3, .L4+8
  67 0018 1A70     		strb	r2, [r3]
  68 001a 7047     		bx	lr
  69              	.L5:
  70              		.align	2
  71              	.L4:
  72 001c CF010049 		.word	1224737231
  73 0020 6E580040 		.word	1073764462
  74 0024 76580040 		.word	1073764470
  75              		.cfi_endproc
  76              	.LFE5:
  77              		.size	AnalogSetDefault, .-AnalogSetDefault
  78              		.section	.text.CYMEMZERO,"ax",%progbits
ARM GAS  C:\Users\mitchell\AppData\Local\Temp\ccMCuH7q.s 			page 6


  79              		.align	2
  80              		.thumb
  81              		.thumb_func
  82              		.type	CYMEMZERO, %function
  83              	CYMEMZERO:
  84              	.LFB0:
  61:.\Generated_Source\PSoC5/cyfitter_cfg.c **** {
  85              		.loc 1 61 0
  86              		.cfi_startproc
  87              		@ args = 0, pretend = 0, frame = 0
  88              		@ frame_needed = 0, uses_anonymous_args = 0
  89              	.LVL3:
  90 0000 08B5     		push	{r3, lr}
  91              		.cfi_def_cfa_offset 8
  92              		.cfi_offset 3, -8
  93              		.cfi_offset 14, -4
  94 0002 0A46     		mov	r2, r1
  62:.\Generated_Source\PSoC5/cyfitter_cfg.c **** 	(void)memset(s, 0, n);
  95              		.loc 1 62 0
  96 0004 0021     		movs	r1, #0
  97              	.LVL4:
  98 0006 FFF7FEFF 		bl	memset
  99              	.LVL5:
 100 000a 08BD     		pop	{r3, pc}
 101              		.cfi_endproc
 102              	.LFE0:
 103              		.size	CYMEMZERO, .-CYMEMZERO
 104              		.section	.text.ClockSetup,"ax",%progbits
 105              		.align	2
 106              		.thumb
 107              		.thumb_func
 108              		.type	ClockSetup, %function
 109              	ClockSetup:
 110              	.LFB4:
 144:.\Generated_Source\PSoC5/cyfitter_cfg.c **** {
 111              		.loc 1 144 0
 112              		.cfi_startproc
 113              		@ args = 0, pretend = 0, frame = 0
 114              		@ frame_needed = 0, uses_anonymous_args = 0
 115 0000 F8B5     		push	{r3, r4, r5, r6, r7, lr}
 116              		.cfi_def_cfa_offset 24
 117              		.cfi_offset 3, -24
 118              		.cfi_offset 4, -20
 119              		.cfi_offset 5, -16
 120              		.cfi_offset 6, -12
 121              		.cfi_offset 7, -8
 122              		.cfi_offset 14, -4
 150:.\Generated_Source\PSoC5/cyfitter_cfg.c **** 	CY_SET_XTND_REG8((void CYFAR *)(CYREG_SLOWCLK_ILO_CR0), 0x02u);
 123              		.loc 1 150 0
 124 0002 0222     		movs	r2, #2
 125 0004 1F4B     		ldr	r3, .L12
 126 0006 1A70     		strb	r2, [r3]
 151:.\Generated_Source\PSoC5/cyfitter_cfg.c **** 	CY_SET_XTND_REG8((void CYFAR *)(CYREG_CLKDIST_CR), 0x08u);
 127              		.loc 1 151 0
 128 0008 0823     		movs	r3, #8
 129 000a 4FF04022 		mov	r2, #1073758208
 130 000e 1370     		strb	r3, [r2]
ARM GAS  C:\Users\mitchell\AppData\Local\Temp\ccMCuH7q.s 			page 7


 154:.\Generated_Source\PSoC5/cyfitter_cfg.c **** 	CY_SET_XTND_REG8((void CYFAR *)(CYREG_FASTCLK_IMO_CR), 0x03u);
 131              		.loc 1 154 0
 132 0010 0321     		movs	r1, #3
 133 0012 02F50072 		add	r2, r2, #512
 134 0016 1170     		strb	r1, [r2]
 155:.\Generated_Source\PSoC5/cyfitter_cfg.c **** 	CY_SET_XTND_REG8((void CYFAR *)(CYREG_IMO_TR1), (CY_GET_XTND_REG8((void CYFAR *)CYREG_FLSHID_CUST_
 135              		.loc 1 155 0
 136 0018 1B4A     		ldr	r2, .L12+4
 137 001a 1178     		ldrb	r1, [r2]	@ zero_extendqisi2
 138 001c C9B2     		uxtb	r1, r1
 139 001e 1B4A     		ldr	r2, .L12+8
 140 0020 1170     		strb	r1, [r2]
 158:.\Generated_Source\PSoC5/cyfitter_cfg.c **** 	CY_SET_XTND_REG16((void CYFAR *)(CYREG_FASTCLK_PLL_P), 0x0008u);
 141              		.loc 1 158 0
 142 0022 A2F27F42 		subw	r2, r2, #1151
 143 0026 1380     		strh	r3, [r2]	@ movhi
 159:.\Generated_Source\PSoC5/cyfitter_cfg.c **** 	CY_SET_XTND_REG16((void CYFAR *)(CYREG_FASTCLK_PLL_CFG0), 0x1251u);
 144              		.loc 1 159 0
 145 0028 41F25122 		movw	r2, #4689
 146 002c 184B     		ldr	r3, .L12+12
 147 002e 1A80     		strh	r2, [r3]	@ movhi
 148              	.LVL6:
 161:.\Generated_Source\PSoC5/cyfitter_cfg.c **** 	pllLock = 0u;
 149              		.loc 1 161 0
 150 0030 0025     		movs	r5, #0
 162:.\Generated_Source\PSoC5/cyfitter_cfg.c **** 	for (timeout = 250u / 10u; (timeout > 0u) && (pllLock != 0x03u); timeout--)
 151              		.loc 1 162 0
 152 0032 1924     		movs	r4, #25
 164:.\Generated_Source\PSoC5/cyfitter_cfg.c **** 		pllLock = 0x03u & ((uint8)((uint8)pllLock << 1) | ((CY_GET_XTND_REG8((void CYFAR *)CYREG_FASTCLK_
 153              		.loc 1 164 0
 154 0034 174F     		ldr	r7, .L12+16
 165:.\Generated_Source\PSoC5/cyfitter_cfg.c **** 		CyDelayCycles(10u * 48u); /* Delay 10us based on 48MHz clock */
 155              		.loc 1 165 0
 156 0036 4FF4F076 		mov	r6, #480
 162:.\Generated_Source\PSoC5/cyfitter_cfg.c **** 	for (timeout = 250u / 10u; (timeout > 0u) && (pllLock != 0x03u); timeout--)
 157              		.loc 1 162 0
 158 003a 0AE0     		b	.L8
 159              	.LVL7:
 160              	.L10:
 164:.\Generated_Source\PSoC5/cyfitter_cfg.c **** 		pllLock = 0x03u & ((uint8)((uint8)pllLock << 1) | ((CY_GET_XTND_REG8((void CYFAR *)CYREG_FASTCLK_
 161              		.loc 1 164 0 discriminator 1
 162 003c 3B78     		ldrb	r3, [r7]	@ zero_extendqisi2
 163 003e 03F00103 		and	r3, r3, #1
 164 0042 43EA4505 		orr	r5, r3, r5, lsl #1
 165              	.LVL8:
 166 0046 05F00305 		and	r5, r5, #3
 167              	.LVL9:
 165:.\Generated_Source\PSoC5/cyfitter_cfg.c **** 		CyDelayCycles(10u * 48u); /* Delay 10us based on 48MHz clock */
 168              		.loc 1 165 0 discriminator 1
 169 004a 3046     		mov	r0, r6
 170 004c FFF7FEFF 		bl	CyDelayCycles
 171              	.LVL10:
 162:.\Generated_Source\PSoC5/cyfitter_cfg.c **** 	for (timeout = 250u / 10u; (timeout > 0u) && (pllLock != 0x03u); timeout--)
 172              		.loc 1 162 0 discriminator 1
 173 0050 013C     		subs	r4, r4, #1
 174              	.LVL11:
 175              	.L8:
ARM GAS  C:\Users\mitchell\AppData\Local\Temp\ccMCuH7q.s 			page 8


 176 0052 0CB1     		cbz	r4, .L9
 162:.\Generated_Source\PSoC5/cyfitter_cfg.c **** 	for (timeout = 250u / 10u; (timeout > 0u) && (pllLock != 0x03u); timeout--)
 177              		.loc 1 162 0 is_stmt 0 discriminator 2
 178 0054 032D     		cmp	r5, #3
 179 0056 F1D1     		bne	.L10
 180              	.L9:
 168:.\Generated_Source\PSoC5/cyfitter_cfg.c **** 	if (timeout == 0u)
 181              		.loc 1 168 0 is_stmt 1
 182 0058 14B9     		cbnz	r4, .L11
 170:.\Generated_Source\PSoC5/cyfitter_cfg.c **** 		CyClockStartupError(CYCLOCKSTART_PLL_ERROR);
 183              		.loc 1 170 0
 184 005a 0320     		movs	r0, #3
 185 005c FFF7FEFF 		bl	CyClockStartupError
 186              	.LVL12:
 187              	.L11:
 174:.\Generated_Source\PSoC5/cyfitter_cfg.c **** 	CY_SET_XTND_REG16((void CYFAR *)(CYREG_CLKDIST_MSTR0), 0x0100u);
 188              		.loc 1 174 0
 189 0060 0D4B     		ldr	r3, .L12+20
 190 0062 4FF48072 		mov	r2, #256
 191 0066 1A80     		strh	r2, [r3]	@ movhi
 175:.\Generated_Source\PSoC5/cyfitter_cfg.c **** 	CY_SET_XTND_REG8((void CYFAR *)(CYREG_CLKDIST_MSTR0), 0x07u);
 192              		.loc 1 175 0
 193 0068 0722     		movs	r2, #7
 194 006a 1A70     		strb	r2, [r3]
 176:.\Generated_Source\PSoC5/cyfitter_cfg.c **** 	CY_SET_XTND_REG8((void CYFAR *)(CYREG_CLKDIST_BCFG0), 0x00u);
 195              		.loc 1 176 0
 196 006c 0022     		movs	r2, #0
 197 006e 0B49     		ldr	r1, .L12+24
 198 0070 0A70     		strb	r2, [r1]
 177:.\Generated_Source\PSoC5/cyfitter_cfg.c **** 	CY_SET_XTND_REG8((void CYFAR *)(CYREG_CLKDIST_BCFG2), 0x48u);
 199              		.loc 1 177 0
 200 0072 4820     		movs	r0, #72
 201 0074 0231     		adds	r1, r1, #2
 202 0076 0870     		strb	r0, [r1]
 178:.\Generated_Source\PSoC5/cyfitter_cfg.c **** 	CY_SET_XTND_REG8((void CYFAR *)(CYREG_CLKDIST_MSTR0), 0x00u);
 203              		.loc 1 178 0
 204 0078 1A70     		strb	r2, [r3]
 179:.\Generated_Source\PSoC5/cyfitter_cfg.c **** 	CY_SET_XTND_REG8((void CYFAR *)(CYREG_CLKDIST_LD), 0x02u);
 205              		.loc 1 179 0
 206 007a 0222     		movs	r2, #2
 207 007c 033B     		subs	r3, r3, #3
 208 007e 1A70     		strb	r2, [r3]
 209 0080 F8BD     		pop	{r3, r4, r5, r6, r7, pc}
 210              	.LVL13:
 211              	.L13:
 212 0082 00BF     		.align	2
 213              	.L12:
 214 0084 00430040 		.word	1073758976
 215 0088 08010049 		.word	1224737032
 216 008c A1460040 		.word	1073759905
 217 0090 20420040 		.word	1073758752
 218 0094 25420040 		.word	1073758757
 219 0098 04400040 		.word	1073758212
 220 009c 06400040 		.word	1073758214
 221              		.cfi_endproc
 222              	.LFE4:
 223              		.size	ClockSetup, .-ClockSetup
ARM GAS  C:\Users\mitchell\AppData\Local\Temp\ccMCuH7q.s 			page 9


 224              		.section	.text.CYCONFIGCPY,"ax",%progbits
 225              		.align	2
 226              		.thumb
 227              		.thumb_func
 228              		.type	CYCONFIGCPY, %function
 229              	CYCONFIGCPY:
 230              	.LFB1:
  68:.\Generated_Source\PSoC5/cyfitter_cfg.c **** {
 231              		.loc 1 68 0
 232              		.cfi_startproc
 233              		@ args = 0, pretend = 0, frame = 0
 234              		@ frame_needed = 0, uses_anonymous_args = 0
 235              	.LVL14:
 236 0000 08B5     		push	{r3, lr}
 237              		.cfi_def_cfa_offset 8
 238              		.cfi_offset 3, -8
 239              		.cfi_offset 14, -4
  69:.\Generated_Source\PSoC5/cyfitter_cfg.c **** 	(void)memcpy(dest, src, n);
 240              		.loc 1 69 0
 241 0002 FFF7FEFF 		bl	memcpy
 242              	.LVL15:
 243 0006 08BD     		pop	{r3, pc}
 244              		.cfi_endproc
 245              	.LFE1:
 246              		.size	CYCONFIGCPY, .-CYCONFIGCPY
 247              		.section	.text.SetAnalogRoutingPumps,"ax",%progbits
 248              		.align	2
 249              		.global	SetAnalogRoutingPumps
 250              		.thumb
 251              		.thumb_func
 252              		.type	SetAnalogRoutingPumps, %function
 253              	SetAnalogRoutingPumps:
 254              	.LFB6:
 208:.\Generated_Source\PSoC5/cyfitter_cfg.c **** }
 209:.\Generated_Source\PSoC5/cyfitter_cfg.c **** 
 210:.\Generated_Source\PSoC5/cyfitter_cfg.c **** 
 211:.\Generated_Source\PSoC5/cyfitter_cfg.c **** /*******************************************************************************
 212:.\Generated_Source\PSoC5/cyfitter_cfg.c **** * Function Name: SetAnalogRoutingPumps
 213:.\Generated_Source\PSoC5/cyfitter_cfg.c **** ********************************************************************************
 214:.\Generated_Source\PSoC5/cyfitter_cfg.c **** *
 215:.\Generated_Source\PSoC5/cyfitter_cfg.c **** * Summary:
 216:.\Generated_Source\PSoC5/cyfitter_cfg.c **** * Enables or disables the analog pumps feeding analog routing switches.
 217:.\Generated_Source\PSoC5/cyfitter_cfg.c **** * Intended to be called at startup, based on the Vdda system configuration;
 218:.\Generated_Source\PSoC5/cyfitter_cfg.c **** * may be called during operation when the user informs us that the Vdda voltage
 219:.\Generated_Source\PSoC5/cyfitter_cfg.c **** * crossed the pump threshold.
 220:.\Generated_Source\PSoC5/cyfitter_cfg.c **** *
 221:.\Generated_Source\PSoC5/cyfitter_cfg.c **** * Parameters:
 222:.\Generated_Source\PSoC5/cyfitter_cfg.c **** *  enabled - 1 to enable the pumps, 0 to disable the pumps
 223:.\Generated_Source\PSoC5/cyfitter_cfg.c **** *
 224:.\Generated_Source\PSoC5/cyfitter_cfg.c **** * Return:
 225:.\Generated_Source\PSoC5/cyfitter_cfg.c **** *  void
 226:.\Generated_Source\PSoC5/cyfitter_cfg.c **** *
 227:.\Generated_Source\PSoC5/cyfitter_cfg.c **** *******************************************************************************/
 228:.\Generated_Source\PSoC5/cyfitter_cfg.c **** void SetAnalogRoutingPumps(uint8 enabled)
 229:.\Generated_Source\PSoC5/cyfitter_cfg.c **** {
 255              		.loc 1 229 0
 256              		.cfi_startproc
ARM GAS  C:\Users\mitchell\AppData\Local\Temp\ccMCuH7q.s 			page 10


 257              		@ args = 0, pretend = 0, frame = 0
 258              		@ frame_needed = 0, uses_anonymous_args = 0
 259              		@ link register save eliminated.
 260              	.LVL16:
 230:.\Generated_Source\PSoC5/cyfitter_cfg.c **** 	uint8 regValue = CY_GET_XTND_REG8((void CYFAR *)CYREG_PUMP_CR0);
 261              		.loc 1 230 0
 262 0000 024B     		ldr	r3, .L16
 263 0002 1A78     		ldrb	r2, [r3]	@ zero_extendqisi2
 264 0004 D2B2     		uxtb	r2, r2
 265              	.LVL17:
 231:.\Generated_Source\PSoC5/cyfitter_cfg.c **** 	if (enabled != 0u)
 232:.\Generated_Source\PSoC5/cyfitter_cfg.c **** 	{
 233:.\Generated_Source\PSoC5/cyfitter_cfg.c **** 		regValue |= 0x00u;
 234:.\Generated_Source\PSoC5/cyfitter_cfg.c **** 	}
 235:.\Generated_Source\PSoC5/cyfitter_cfg.c **** 	else
 236:.\Generated_Source\PSoC5/cyfitter_cfg.c **** 	{
 237:.\Generated_Source\PSoC5/cyfitter_cfg.c **** 		regValue &= (uint8)~0x00u;
 238:.\Generated_Source\PSoC5/cyfitter_cfg.c **** 	}
 239:.\Generated_Source\PSoC5/cyfitter_cfg.c **** 	CY_SET_XTND_REG8((void CYFAR *)CYREG_PUMP_CR0, regValue);
 266              		.loc 1 239 0
 267 0006 1A70     		strb	r2, [r3]
 268 0008 7047     		bx	lr
 269              	.L17:
 270 000a 00BF     		.align	2
 271              	.L16:
 272 000c 76580040 		.word	1073764470
 273              		.cfi_endproc
 274              	.LFE6:
 275              		.size	SetAnalogRoutingPumps, .-SetAnalogRoutingPumps
 276              		.section	.text.cyfitter_cfg,"ax",%progbits
 277              		.align	2
 278              		.global	cyfitter_cfg
 279              		.thumb
 280              		.thumb_func
 281              		.type	cyfitter_cfg, %function
 282              	cyfitter_cfg:
 283              	.LFB7:
 240:.\Generated_Source\PSoC5/cyfitter_cfg.c **** }
 241:.\Generated_Source\PSoC5/cyfitter_cfg.c **** 
 242:.\Generated_Source\PSoC5/cyfitter_cfg.c **** #define CY_AMUX_UNUSED CYREG_BOOST_SR
 243:.\Generated_Source\PSoC5/cyfitter_cfg.c **** 
 244:.\Generated_Source\PSoC5/cyfitter_cfg.c **** 
 245:.\Generated_Source\PSoC5/cyfitter_cfg.c **** /*******************************************************************************
 246:.\Generated_Source\PSoC5/cyfitter_cfg.c **** * Function Name: cyfitter_cfg
 247:.\Generated_Source\PSoC5/cyfitter_cfg.c **** ********************************************************************************
 248:.\Generated_Source\PSoC5/cyfitter_cfg.c **** * Summary:
 249:.\Generated_Source\PSoC5/cyfitter_cfg.c **** *  This function is called by the start-up code for the selected device. It
 250:.\Generated_Source\PSoC5/cyfitter_cfg.c **** *  performs all of the necessary device configuration based on the design
 251:.\Generated_Source\PSoC5/cyfitter_cfg.c **** *  settings.  This includes settings from the Design Wide Resources (DWR) such
 252:.\Generated_Source\PSoC5/cyfitter_cfg.c **** *  as Clocks and Pins as well as any component configuration that is necessary.
 253:.\Generated_Source\PSoC5/cyfitter_cfg.c **** *
 254:.\Generated_Source\PSoC5/cyfitter_cfg.c **** * Parameters:  
 255:.\Generated_Source\PSoC5/cyfitter_cfg.c **** *   void
 256:.\Generated_Source\PSoC5/cyfitter_cfg.c **** *
 257:.\Generated_Source\PSoC5/cyfitter_cfg.c **** * Return:
 258:.\Generated_Source\PSoC5/cyfitter_cfg.c **** *   void
 259:.\Generated_Source\PSoC5/cyfitter_cfg.c **** *
ARM GAS  C:\Users\mitchell\AppData\Local\Temp\ccMCuH7q.s 			page 11


 260:.\Generated_Source\PSoC5/cyfitter_cfg.c **** *******************************************************************************/
 261:.\Generated_Source\PSoC5/cyfitter_cfg.c **** 
 262:.\Generated_Source\PSoC5/cyfitter_cfg.c **** void cyfitter_cfg(void)
 263:.\Generated_Source\PSoC5/cyfitter_cfg.c **** {
 284              		.loc 1 263 0
 285              		.cfi_startproc
 286              		@ args = 0, pretend = 0, frame = 0
 287              		@ frame_needed = 0, uses_anonymous_args = 0
 288 0000 70B5     		push	{r4, r5, r6, lr}
 289              		.cfi_def_cfa_offset 16
 290              		.cfi_offset 4, -16
 291              		.cfi_offset 5, -12
 292              		.cfi_offset 6, -8
 293              		.cfi_offset 14, -4
 264:.\Generated_Source\PSoC5/cyfitter_cfg.c **** #ifdef CYGlobalIntDisable
 265:.\Generated_Source\PSoC5/cyfitter_cfg.c **** 	/* Disable interrupts by default. Let user enable if/when they want. */
 266:.\Generated_Source\PSoC5/cyfitter_cfg.c **** 	CYGlobalIntDisable
 294              		.loc 1 266 0
 295              	@ 266 ".\Generated_Source\PSoC5\cyfitter_cfg.c" 1
 296 0002 72B6     		CPSID   i
 297              	@ 0 "" 2
 267:.\Generated_Source\PSoC5/cyfitter_cfg.c **** #endif
 268:.\Generated_Source\PSoC5/cyfitter_cfg.c **** 
 269:.\Generated_Source\PSoC5/cyfitter_cfg.c **** 	/* Enable/Disable Debug functionality based on settings from System DWR */
 270:.\Generated_Source\PSoC5/cyfitter_cfg.c **** 	CY_SET_XTND_REG8((void CYFAR *)CYREG_MLOGIC_DEBUG, (CY_GET_XTND_REG8((void CYFAR *)CYREG_MLOGIC_DE
 298              		.loc 1 270 0
 299              		.thumb
 300 0004 1E4B     		ldr	r3, .L21
 301 0006 1A78     		ldrb	r2, [r3]	@ zero_extendqisi2
 302 0008 42F00402 		orr	r2, r2, #4
 303 000c 1A70     		strb	r2, [r3]
 304              	.LVL18:
 305              	.LBB2:
 271:.\Generated_Source\PSoC5/cyfitter_cfg.c **** 
 272:.\Generated_Source\PSoC5/cyfitter_cfg.c **** 	{
 273:.\Generated_Source\PSoC5/cyfitter_cfg.c **** 
 274:.\Generated_Source\PSoC5/cyfitter_cfg.c **** 		CYPACKED typedef struct {
 275:.\Generated_Source\PSoC5/cyfitter_cfg.c **** 			void CYFAR *address;
 276:.\Generated_Source\PSoC5/cyfitter_cfg.c **** 			uint16 size;
 277:.\Generated_Source\PSoC5/cyfitter_cfg.c **** 		} CYPACKED_ATTR cfg_memset_t;
 278:.\Generated_Source\PSoC5/cyfitter_cfg.c **** 
 279:.\Generated_Source\PSoC5/cyfitter_cfg.c **** 		static const cfg_memset_t CYCODE cfg_memset_list [] = {
 280:.\Generated_Source\PSoC5/cyfitter_cfg.c **** 			/* address, size */
 281:.\Generated_Source\PSoC5/cyfitter_cfg.c **** 			{(void CYFAR *)(CYREG_PRT0_DR), 112u},
 282:.\Generated_Source\PSoC5/cyfitter_cfg.c **** 			{(void CYFAR *)(CYREG_PRT12_DR), 16u},
 283:.\Generated_Source\PSoC5/cyfitter_cfg.c **** 			{(void CYFAR *)(CYREG_PRT15_DR), 16u},
 284:.\Generated_Source\PSoC5/cyfitter_cfg.c **** 			{(void CYFAR *)(CYDEV_UCFG_B0_P0_U0_BASE), 4096u},
 285:.\Generated_Source\PSoC5/cyfitter_cfg.c **** 			{(void CYFAR *)(CYDEV_UCFG_B1_P2_U0_BASE), 2048u},
 286:.\Generated_Source\PSoC5/cyfitter_cfg.c **** 			{(void CYFAR *)(CYDEV_UCFG_DSI0_BASE), 2560u},
 287:.\Generated_Source\PSoC5/cyfitter_cfg.c **** 			{(void CYFAR *)(CYDEV_UCFG_DSI12_BASE), 512u},
 288:.\Generated_Source\PSoC5/cyfitter_cfg.c **** 			{(void CYFAR *)(CYREG_BCTL0_MDCLK_EN), 32u},
 289:.\Generated_Source\PSoC5/cyfitter_cfg.c **** 		};
 290:.\Generated_Source\PSoC5/cyfitter_cfg.c **** 
 291:.\Generated_Source\PSoC5/cyfitter_cfg.c **** 		uint8 CYDATA i;
 292:.\Generated_Source\PSoC5/cyfitter_cfg.c **** 
 293:.\Generated_Source\PSoC5/cyfitter_cfg.c **** 		/* Zero out critical memory blocks before beginning configuration */
 294:.\Generated_Source\PSoC5/cyfitter_cfg.c **** 		for (i = 0u; i < (sizeof(cfg_memset_list)/sizeof(cfg_memset_list[0])); i++)
ARM GAS  C:\Users\mitchell\AppData\Local\Temp\ccMCuH7q.s 			page 12


 306              		.loc 1 294 0
 307 000e 0024     		movs	r4, #0
 308              	.LBB3:
 295:.\Generated_Source\PSoC5/cyfitter_cfg.c **** 		{
 296:.\Generated_Source\PSoC5/cyfitter_cfg.c **** 			const cfg_memset_t CYCODE * CYDATA ms = &cfg_memset_list[i];
 309              		.loc 1 296 0
 310 0010 1C4D     		ldr	r5, .L21+4
 311              	.LBE3:
 294:.\Generated_Source\PSoC5/cyfitter_cfg.c **** 		for (i = 0u; i < (sizeof(cfg_memset_list)/sizeof(cfg_memset_list[0])); i++)
 312              		.loc 1 294 0
 313 0012 09E0     		b	.L19
 314              	.LVL19:
 315              	.L20:
 316              	.LBB4:
 317              		.loc 1 296 0 discriminator 2
 318 0014 04EB4403 		add	r3, r4, r4, lsl #1
 319 0018 5B00     		lsls	r3, r3, #1
 320 001a 2B44     		add	r3, r3, r5
 321              	.LVL20:
 297:.\Generated_Source\PSoC5/cyfitter_cfg.c **** 			CYMEMZERO(ms->address, (size_t)(uint32)(ms->size));
 322              		.loc 1 297 0 discriminator 2
 323 001c 1868     		ldr	r0, [r3]	@ unaligned
 324 001e 9988     		ldrh	r1, [r3, #4]
 325 0020 FFF7FEFF 		bl	CYMEMZERO
 326              	.LVL21:
 327              	.LBE4:
 294:.\Generated_Source\PSoC5/cyfitter_cfg.c **** 		for (i = 0u; i < (sizeof(cfg_memset_list)/sizeof(cfg_memset_list[0])); i++)
 328              		.loc 1 294 0 discriminator 2
 329 0024 0134     		adds	r4, r4, #1
 330              	.LVL22:
 331 0026 E4B2     		uxtb	r4, r4
 332              	.LVL23:
 333              	.L19:
 294:.\Generated_Source\PSoC5/cyfitter_cfg.c **** 		for (i = 0u; i < (sizeof(cfg_memset_list)/sizeof(cfg_memset_list[0])); i++)
 334              		.loc 1 294 0 is_stmt 0 discriminator 1
 335 0028 072C     		cmp	r4, #7
 336 002a F3D9     		bls	.L20
 298:.\Generated_Source\PSoC5/cyfitter_cfg.c **** 		}
 299:.\Generated_Source\PSoC5/cyfitter_cfg.c **** 
 300:.\Generated_Source\PSoC5/cyfitter_cfg.c **** 		/* Enable digital routing */
 301:.\Generated_Source\PSoC5/cyfitter_cfg.c **** 		CY_SET_XTND_REG8((void CYFAR *)CYREG_BCTL0_BANK_CTL, CY_GET_XTND_REG8((void CYFAR *)CYREG_BCTL0_B
 337              		.loc 1 301 0 is_stmt 1
 338 002c 164B     		ldr	r3, .L21+8
 339 002e 1A78     		ldrb	r2, [r3]	@ zero_extendqisi2
 340 0030 42F00202 		orr	r2, r2, #2
 341 0034 1A70     		strb	r2, [r3]
 302:.\Generated_Source\PSoC5/cyfitter_cfg.c **** 		CY_SET_XTND_REG8((void CYFAR *)CYREG_BCTL1_BANK_CTL, CY_GET_XTND_REG8((void CYFAR *)CYREG_BCTL1_B
 342              		.loc 1 302 0
 343 0036 1033     		adds	r3, r3, #16
 344 0038 1A78     		ldrb	r2, [r3]	@ zero_extendqisi2
 345 003a 42F00202 		orr	r2, r2, #2
 346 003e 1A70     		strb	r2, [r3]
 303:.\Generated_Source\PSoC5/cyfitter_cfg.c **** 
 304:.\Generated_Source\PSoC5/cyfitter_cfg.c **** 		/* Enable UDB array */
 305:.\Generated_Source\PSoC5/cyfitter_cfg.c **** 		CY_SET_XTND_REG8((void CYFAR *)CYREG_PM_ACT_CFG0, CY_GET_XTND_REG8((void CYFAR *)CYREG_PM_ACT_CFG
 347              		.loc 1 305 0
 348 0040 124C     		ldr	r4, .L21+12
ARM GAS  C:\Users\mitchell\AppData\Local\Temp\ccMCuH7q.s 			page 13


 349              	.LVL24:
 350 0042 2378     		ldrb	r3, [r4]	@ zero_extendqisi2
 351 0044 43F04003 		orr	r3, r3, #64
 352 0048 2370     		strb	r3, [r4]
 306:.\Generated_Source\PSoC5/cyfitter_cfg.c **** 		CY_SET_XTND_REG8((void CYFAR *)CYREG_PM_AVAIL_CR2, CY_GET_XTND_REG8((void CYFAR *)CYREG_PM_AVAIL_
 353              		.loc 1 306 0
 354 004a 114B     		ldr	r3, .L21+16
 355 004c 1A78     		ldrb	r2, [r3]	@ zero_extendqisi2
 356 004e 42F01002 		orr	r2, r2, #16
 357 0052 1A70     		strb	r2, [r3]
 358              	.LBE2:
 307:.\Generated_Source\PSoC5/cyfitter_cfg.c **** 	}
 308:.\Generated_Source\PSoC5/cyfitter_cfg.c **** 
 309:.\Generated_Source\PSoC5/cyfitter_cfg.c **** 	/* Switch Boost to the precision bandgap reference from its internal reference */
 310:.\Generated_Source\PSoC5/cyfitter_cfg.c **** 	CY_SET_REG8((void CYXDATA *)CYREG_BOOST_CR2, (CY_GET_REG8((void CYXDATA *)CYREG_BOOST_CR2) | 0x08u
 359              		.loc 1 310 0
 360 0054 A03B     		subs	r3, r3, #160
 361 0056 1A78     		ldrb	r2, [r3]	@ zero_extendqisi2
 362 0058 42F00802 		orr	r2, r2, #8
 363 005c 1A70     		strb	r2, [r3]
 311:.\Generated_Source\PSoC5/cyfitter_cfg.c **** 
 312:.\Generated_Source\PSoC5/cyfitter_cfg.c **** 	/* Set Flash Cycles based on max possible frequency in case a glitch occurs during ClockSetup(). *
 313:.\Generated_Source\PSoC5/cyfitter_cfg.c **** 	CY_SET_XTND_REG8((void CYFAR *)(CYREG_CACHE_CC_CTL), (((CYDEV_INSTRUCT_CACHE_ENABLED) != 0) ? 0x01
 364              		.loc 1 313 0
 365 005e 0D4E     		ldr	r6, .L21+20
 366 0060 0125     		movs	r5, #1
 367 0062 3570     		strb	r5, [r6]
 314:.\Generated_Source\PSoC5/cyfitter_cfg.c **** 	/* Setup clocks based on selections from Clock DWR */
 315:.\Generated_Source\PSoC5/cyfitter_cfg.c **** 	ClockSetup();
 368              		.loc 1 315 0
 369 0064 FFF7FEFF 		bl	ClockSetup
 370              	.LVL25:
 316:.\Generated_Source\PSoC5/cyfitter_cfg.c **** 	/* Set Flash Cycles based on newly configured 24.00MHz Bus Clock. */
 317:.\Generated_Source\PSoC5/cyfitter_cfg.c **** 	CY_SET_XTND_REG8((void CYFAR *)(CYREG_CACHE_CC_CTL), (((CYDEV_INSTRUCT_CACHE_ENABLED) != 0) ? 0x81
 371              		.loc 1 317 0
 372 0068 8123     		movs	r3, #129
 373 006a 3370     		strb	r3, [r6]
 318:.\Generated_Source\PSoC5/cyfitter_cfg.c **** 	CY_SET_XTND_REG8((void CYFAR *)(CYREG_PANTHER_WAITPIPE), 0x01u);
 374              		.loc 1 318 0
 375 006c 0A4B     		ldr	r3, .L21+24
 376 006e 1D70     		strb	r5, [r3]
 319:.\Generated_Source\PSoC5/cyfitter_cfg.c **** 
 320:.\Generated_Source\PSoC5/cyfitter_cfg.c **** 	/* Perform basic analog initialization to defaults */
 321:.\Generated_Source\PSoC5/cyfitter_cfg.c **** 	AnalogSetDefault();
 377              		.loc 1 321 0
 378 0070 FFF7FEFF 		bl	AnalogSetDefault
 379              	.LVL26:
 322:.\Generated_Source\PSoC5/cyfitter_cfg.c **** 
 323:.\Generated_Source\PSoC5/cyfitter_cfg.c **** 	/* Configure alternate active mode */
 324:.\Generated_Source\PSoC5/cyfitter_cfg.c **** 	CYCONFIGCPY((void CYFAR *)CYDEV_PM_STBY_BASE, (const void CYFAR *)CYDEV_PM_ACT_BASE, 14u);
 380              		.loc 1 324 0
 381 0074 0948     		ldr	r0, .L21+28
 382 0076 2146     		mov	r1, r4
 383 0078 0E22     		movs	r2, #14
 384 007a FFF7FEFF 		bl	CYCONFIGCPY
 385              	.LVL27:
 386 007e 70BD     		pop	{r4, r5, r6, pc}
ARM GAS  C:\Users\mitchell\AppData\Local\Temp\ccMCuH7q.s 			page 14


 387              	.L22:
 388              		.align	2
 389              	.L21:
 390 0080 E8460040 		.word	1073759976
 391 0084 00000000 		.word	.LANCHOR0
 392 0088 03500140 		.word	1073827843
 393 008c A0430040 		.word	1073759136
 394 0090 C2430040 		.word	1073759170
 395 0094 00480040 		.word	1073760256
 396 0098 04000840 		.word	1074266116
 397 009c B0430040 		.word	1073759152
 398              		.cfi_endproc
 399              	.LFE7:
 400              		.size	cyfitter_cfg, .-cyfitter_cfg
 401              		.section	.rodata
 402              		.align	2
 403              		.set	.LANCHOR0,. + 0
 404              		.type	cfg_memset_list.4862, %object
 405              		.size	cfg_memset_list.4862, 48
 406              	cfg_memset_list.4862:
 407 0000 00510040 		.word	1073762560
 408 0004 7000     		.short	112
 409 0006 C0510040 		.4byte	1073762752
 410 000a 1000     		.short	16
 411 000c F0510040 		.word	1073762800
 412 0010 1000     		.short	16
 413 0012 00000140 		.4byte	1073807360
 414 0016 0010     		.short	4096
 415 0018 00140140 		.word	1073812480
 416 001c 0008     		.short	2048
 417 001e 00400140 		.4byte	1073823744
 418 0022 000A     		.short	2560
 419 0024 004C0140 		.word	1073826816
 420 0028 0002     		.short	512
 421 002a 00500140 		.4byte	1073827840
 422 002e 2000     		.short	32
 423              		.text
 424              	.Letext0:
 425              		.file 2 "c:\\program files (x86)\\cypress\\psoc creator\\3.2\\psoc creator\\import\\gnu\\arm\\4.8.
 426              		.file 3 ".\\Generated_Source\\PSoC5\\cytypes.h"
 427              		.file 4 ".\\Generated_Source\\PSoC5\\CyLib.h"