ARM GAS  C:\Users\mitchell\AppData\Local\Temp\ccSvm2gx.s 			page 1


   1              		.cpu cortex-m0
   2              		.fpu softvfp
   3              		.eabi_attribute 20, 1
   4              		.eabi_attribute 21, 1
   5              		.eabi_attribute 23, 3
   6              		.eabi_attribute 24, 1
   7              		.eabi_attribute 25, 1
   8              		.eabi_attribute 26, 1
   9              		.eabi_attribute 30, 6
  10              		.eabi_attribute 34, 0
  11              		.eabi_attribute 18, 4
  12              		.code	16
  13              		.file	"LED_RGB.c"
  14              		.text
  15              	.Ltext0:
  16              		.cfi_sections	.debug_frame
  17              		.section	.text.LED_RGB_Start,"ax",%progbits
  18              		.align	2
  19              		.global	LED_RGB_Start
  20              		.code	16
  21              		.thumb_func
  22              		.type	LED_RGB_Start, %function
  23              	LED_RGB_Start:
  24              	.LFB33:
  25              		.file 1 ".\\LED_RGB.c"
   1:.\LED_RGB.c   **** /* ========================================
   2:.\LED_RGB.c   ****  *
   3:.\LED_RGB.c   ****  * The following firmware was developed by Cypress Semiconductor
   4:.\LED_RGB.c   ****  * This work is licensed under a Creative Commons Attribution 3.0 Unported License.
   5:.\LED_RGB.c   ****  * 
   6:.\LED_RGB.c   ****  * http://creativecommons.org/licenses/by/3.0/deed.en_US
   7:.\LED_RGB.c   ****  * 
   8:.\LED_RGB.c   ****  * You are free to:
   9:.\LED_RGB.c   ****  * -To Share — to copy, distribute and transmit the work 
  10:.\LED_RGB.c   ****  * -To Remix — to adapt the work 
  11:.\LED_RGB.c   ****  * -To make commercial use of the work
  12:.\LED_RGB.c   ****  *
  13:.\LED_RGB.c   ****  * ========================================
  14:.\LED_RGB.c   ****  */
  15:.\LED_RGB.c   **** 
  16:.\LED_RGB.c   **** /* ========================================
  17:.\LED_RGB.c   ****  * CY8CKIT-042 LED RGB Driver Module
  18:.\LED_RGB.c   ****  * This module was designed to drive the RGB LEDs on the KIT-042 with pleasing
  19:.\LED_RGB.c   ****  * colors. This module requires that three 16- or 8-bit PWMs be placed and named
  20:.\LED_RGB.c   ****  * PWM_R, PWM_G, and PWM_B. Their outputs should be inverted because the LEDs on
  21:.\LED_RGB.c   ****  * the kit are sunk by the PSoC 4 GPIOs. LEDs are on P1[6], P0[2], P0[3] (RGB).
  22:.\LED_RGB.c   ****  * The PWMs should be clocked at a rate such that the output frequency is 45 Hz
  23:.\LED_RGB.c   ****  * or greater to avoid weird blinking.
  24:.\LED_RGB.c   ****  * ========================================
  25:.\LED_RGB.c   ****  */
  26:.\LED_RGB.c   **** 
  27:.\LED_RGB.c   **** #include <LED_RGB.h>
  28:.\LED_RGB.c   **** 
  29:.\LED_RGB.c   **** /*****************************************************************************
  30:.\LED_RGB.c   **** * Function Name: LED_RGB_Start()
  31:.\LED_RGB.c   **** ******************************************************************************
  32:.\LED_RGB.c   **** * Summary:
ARM GAS  C:\Users\mitchell\AppData\Local\Temp\ccSvm2gx.s 			page 2


  33:.\LED_RGB.c   **** *  Starts the LED PWM components.
  34:.\LED_RGB.c   **** *
  35:.\LED_RGB.c   **** *****************************************************************************/
  36:.\LED_RGB.c   **** void LED_RGB_Start(void)
  37:.\LED_RGB.c   **** {
  26              		.loc 1 37 0
  27              		.cfi_startproc
  28 0000 80B5     		push	{r7, lr}
  29              		.cfi_def_cfa_offset 8
  30              		.cfi_offset 7, -8
  31              		.cfi_offset 14, -4
  32 0002 00AF     		add	r7, sp, #0
  33              		.cfi_def_cfa_register 7
  38:.\LED_RGB.c   ****     PWM_R_Start();
  34              		.loc 1 38 0
  35 0004 FFF7FEFF 		bl	PWM_R_Start
  39:.\LED_RGB.c   ****     PWM_G_Start();
  36              		.loc 1 39 0
  37 0008 FFF7FEFF 		bl	PWM_G_Start
  40:.\LED_RGB.c   ****     PWM_B_Start();
  38              		.loc 1 40 0
  39 000c FFF7FEFF 		bl	PWM_B_Start
  41:.\LED_RGB.c   **** }
  40              		.loc 1 41 0
  41 0010 BD46     		mov	sp, r7
  42              		@ sp needed
  43 0012 80BD     		pop	{r7, pc}
  44              		.cfi_endproc
  45              	.LFE33:
  46              		.size	LED_RGB_Start, .-LED_RGB_Start
  47              		.section	.text.LED_RGB_Stop,"ax",%progbits
  48              		.align	2
  49              		.global	LED_RGB_Stop
  50              		.code	16
  51              		.thumb_func
  52              		.type	LED_RGB_Stop, %function
  53              	LED_RGB_Stop:
  54              	.LFB34:
  42:.\LED_RGB.c   **** 
  43:.\LED_RGB.c   **** /*****************************************************************************
  44:.\LED_RGB.c   **** * Function Name: LED_RGB_Stop()
  45:.\LED_RGB.c   **** ******************************************************************************
  46:.\LED_RGB.c   **** * Summary:
  47:.\LED_RGB.c   **** *  Stops the LED PWM components.
  48:.\LED_RGB.c   **** *
  49:.\LED_RGB.c   **** *****************************************************************************/
  50:.\LED_RGB.c   **** void LED_RGB_Stop(void)
  51:.\LED_RGB.c   **** {
  55              		.loc 1 51 0
  56              		.cfi_startproc
  57 0000 80B5     		push	{r7, lr}
  58              		.cfi_def_cfa_offset 8
  59              		.cfi_offset 7, -8
  60              		.cfi_offset 14, -4
  61 0002 00AF     		add	r7, sp, #0
  62              		.cfi_def_cfa_register 7
  52:.\LED_RGB.c   ****     PWM_R_Stop();
ARM GAS  C:\Users\mitchell\AppData\Local\Temp\ccSvm2gx.s 			page 3


  63              		.loc 1 52 0
  64 0004 FFF7FEFF 		bl	PWM_R_Stop
  53:.\LED_RGB.c   ****     PWM_G_Stop();
  65              		.loc 1 53 0
  66 0008 FFF7FEFF 		bl	PWM_G_Stop
  54:.\LED_RGB.c   ****     PWM_B_Stop();
  67              		.loc 1 54 0
  68 000c FFF7FEFF 		bl	PWM_B_Stop
  55:.\LED_RGB.c   **** }
  69              		.loc 1 55 0
  70 0010 BD46     		mov	sp, r7
  71              		@ sp needed
  72 0012 80BD     		pop	{r7, pc}
  73              		.cfi_endproc
  74              	.LFE34:
  75              		.size	LED_RGB_Stop, .-LED_RGB_Stop
  76              		.section	.text.LED_RGB_DCWrite,"ax",%progbits
  77              		.align	2
  78              		.global	LED_RGB_DCWrite
  79              		.code	16
  80              		.thumb_func
  81              		.type	LED_RGB_DCWrite, %function
  82              	LED_RGB_DCWrite:
  83              	.LFB35:
  56:.\LED_RGB.c   **** 
  57:.\LED_RGB.c   **** /*****************************************************************************
  58:.\LED_RGB.c   **** * Function Name: LED_RGB_DCWrite()
  59:.\LED_RGB.c   **** ******************************************************************************
  60:.\LED_RGB.c   **** * Summary:
  61:.\LED_RGB.c   **** *  Writes one of the three LED color duty cycles
  62:.\LED_RGB.c   **** *
  63:.\LED_RGB.c   **** * Parameters:
  64:.\LED_RGB.c   **** *  LED_Color: Describes which LED color is to be written.
  65:.\LED_RGB.c   **** *  LED_NewDutyCycle: Describes the new duty cycle to be written to the PWM.
  66:.\LED_RGB.c   **** *   Tested with 16-bit values(0-65535 dark to bright), but should work with
  67:.\LED_RGB.c   **** *   8-bit values if the PWMs are 8-bit.
  68:.\LED_RGB.c   **** *
  69:.\LED_RGB.c   **** *****************************************************************************/
  70:.\LED_RGB.c   **** void LED_RGB_DCWrite(uint8 LED_Color, uint16 LED_NewDutyCycle)
  71:.\LED_RGB.c   **** {
  84              		.loc 1 71 0
  85              		.cfi_startproc
  86 0000 80B5     		push	{r7, lr}
  87              		.cfi_def_cfa_offset 8
  88              		.cfi_offset 7, -8
  89              		.cfi_offset 14, -4
  90 0002 82B0     		sub	sp, sp, #8
  91              		.cfi_def_cfa_offset 16
  92 0004 00AF     		add	r7, sp, #0
  93              		.cfi_def_cfa_register 7
  94 0006 0A1C     		mov	r2, r1
  95 0008 FB1D     		add	r3, r7, #7
  96 000a 011C     		add	r1, r0, #0
  97 000c 1970     		strb	r1, [r3]
  98 000e 3B1D     		add	r3, r7, #4
  99 0010 1A80     		strh	r2, [r3]
  72:.\LED_RGB.c   ****     #if ( LED_RGB_PWM_RESOLUTION == 16 )
ARM GAS  C:\Users\mitchell\AppData\Local\Temp\ccSvm2gx.s 			page 4


  73:.\LED_RGB.c   ****     
  74:.\LED_RGB.c   ****     switch(LED_Color)
 100              		.loc 1 74 0
 101 0012 FB1D     		add	r3, r7, #7
 102 0014 1B78     		ldrb	r3, [r3]
 103 0016 022B     		cmp	r3, #2
 104 0018 0AD0     		beq	.L5
 105 001a 032B     		cmp	r3, #3
 106 001c 0ED0     		beq	.L6
 107 001e 012B     		cmp	r3, #1
 108 0020 00D0     		beq	.L7
  75:.\LED_RGB.c   ****     {
  76:.\LED_RGB.c   ****     case LED_RED:
  77:.\LED_RGB.c   ****         PWM_R_WriteCompare(LED_NewDutyCycle);
  78:.\LED_RGB.c   ****         break;
  79:.\LED_RGB.c   ****     case LED_GREEN:
  80:.\LED_RGB.c   ****         PWM_G_WriteCompare(LED_NewDutyCycle);
  81:.\LED_RGB.c   ****         break;
  82:.\LED_RGB.c   ****     case LED_BLUE:
  83:.\LED_RGB.c   ****         PWM_B_WriteCompare(LED_NewDutyCycle);
  84:.\LED_RGB.c   ****         break;
  85:.\LED_RGB.c   ****     default:
  86:.\LED_RGB.c   ****         break;
 109              		.loc 1 86 0
 110 0022 11E0     		b	.L3
 111              	.L7:
  77:.\LED_RGB.c   ****         PWM_R_WriteCompare(LED_NewDutyCycle);
 112              		.loc 1 77 0
 113 0024 3B1D     		add	r3, r7, #4
 114 0026 1B88     		ldrh	r3, [r3]
 115 0028 181C     		mov	r0, r3
 116 002a FFF7FEFF 		bl	PWM_R_WriteCompare
  78:.\LED_RGB.c   ****         break;
 117              		.loc 1 78 0
 118 002e 0BE0     		b	.L3
 119              	.L5:
  80:.\LED_RGB.c   ****         PWM_G_WriteCompare(LED_NewDutyCycle);
 120              		.loc 1 80 0
 121 0030 3B1D     		add	r3, r7, #4
 122 0032 1B88     		ldrh	r3, [r3]
 123 0034 181C     		mov	r0, r3
 124 0036 FFF7FEFF 		bl	PWM_G_WriteCompare
  81:.\LED_RGB.c   ****         break;
 125              		.loc 1 81 0
 126 003a 05E0     		b	.L3
 127              	.L6:
  83:.\LED_RGB.c   ****         PWM_B_WriteCompare(LED_NewDutyCycle);
 128              		.loc 1 83 0
 129 003c 3B1D     		add	r3, r7, #4
 130 003e 1B88     		ldrh	r3, [r3]
 131 0040 181C     		mov	r0, r3
 132 0042 FFF7FEFF 		bl	PWM_B_WriteCompare
  84:.\LED_RGB.c   ****         break;
 133              		.loc 1 84 0
 134 0046 C046     		mov	r8, r8
 135              	.L3:
  87:.\LED_RGB.c   ****     }
ARM GAS  C:\Users\mitchell\AppData\Local\Temp\ccSvm2gx.s 			page 5


  88:.\LED_RGB.c   ****     
  89:.\LED_RGB.c   ****     #elif ( LED_RGB_PWM_RESOLUTION == 8 )
  90:.\LED_RGB.c   ****     
  91:.\LED_RGB.c   ****     switch(LED_Color)
  92:.\LED_RGB.c   ****     {
  93:.\LED_RGB.c   ****     case LED_RED:
  94:.\LED_RGB.c   ****         PWM_RG_WriteCompare1(LED_NewDutyCycle>>8);
  95:.\LED_RGB.c   ****         break;
  96:.\LED_RGB.c   ****     case LED_GREEN:
  97:.\LED_RGB.c   ****         PWM_RG_WriteCompare2(LED_NewDutyCycle>>8);
  98:.\LED_RGB.c   ****         break;
  99:.\LED_RGB.c   ****     case LED_BLUE:
 100:.\LED_RGB.c   ****         PWM_B_WriteCompare(LED_NewDutyCycle>>8);
 101:.\LED_RGB.c   ****         break;
 102:.\LED_RGB.c   ****     default:
 103:.\LED_RGB.c   ****         break;
 104:.\LED_RGB.c   ****     }
 105:.\LED_RGB.c   ****     
 106:.\LED_RGB.c   ****     #else
 107:.\LED_RGB.c   ****     
 108:.\LED_RGB.c   ****     /* This should never happen so we force a compile error. Use 8 or 16 bit! */
 109:.\LED_RGB.c   ****     Use 8 or 16 bit only!
 110:.\LED_RGB.c   ****     
 111:.\LED_RGB.c   ****     #endif
 112:.\LED_RGB.c   **** }
 136              		.loc 1 112 0
 137 0048 BD46     		mov	sp, r7
 138 004a 02B0     		add	sp, sp, #8
 139              		@ sp needed
 140 004c 80BD     		pop	{r7, pc}
 141              		.cfi_endproc
 142              	.LFE35:
 143              		.size	LED_RGB_DCWrite, .-LED_RGB_DCWrite
 144 004e C046     		.section	.text.LED_RGB_SetColorRGB,"ax",%progbits
 145              		.align	2
 146              		.global	LED_RGB_SetColorRGB
 147              		.code	16
 148              		.thumb_func
 149              		.type	LED_RGB_SetColorRGB, %function
 150              	LED_RGB_SetColorRGB:
 151              	.LFB36:
 113:.\LED_RGB.c   **** 
 114:.\LED_RGB.c   **** /*****************************************************************************
 115:.\LED_RGB.c   **** * Function Name: LED_RGB_SetColorRGB()
 116:.\LED_RGB.c   **** ******************************************************************************
 117:.\LED_RGB.c   **** * Summary:
 118:.\LED_RGB.c   **** *  Writes all three of the LED duty cycles at once
 119:.\LED_RGB.c   **** *
 120:.\LED_RGB.c   **** * Parameters:
 121:.\LED_RGB.c   **** *  redIntensity: Describes the new red LED intensity
 122:.\LED_RGB.c   **** *  greenIntensity: Describes the new green LED intensity
 123:.\LED_RGB.c   **** *  blueIntensity: Describes the new blue LED intensity
 124:.\LED_RGB.c   **** *
 125:.\LED_RGB.c   **** *  Note: Each intensity value should be 0-65535 dark to bright full scale.
 126:.\LED_RGB.c   **** *
 127:.\LED_RGB.c   **** *****************************************************************************/
 128:.\LED_RGB.c   **** void LED_RGB_SetColorRGB(uint16 redIntensity, uint16 greenIntensity, uint16 blueIntensity)
ARM GAS  C:\Users\mitchell\AppData\Local\Temp\ccSvm2gx.s 			page 6


 129:.\LED_RGB.c   **** {     
 152              		.loc 1 129 0
 153              		.cfi_startproc
 154 0000 80B5     		push	{r7, lr}
 155              		.cfi_def_cfa_offset 8
 156              		.cfi_offset 7, -8
 157              		.cfi_offset 14, -4
 158 0002 82B0     		sub	sp, sp, #8
 159              		.cfi_def_cfa_offset 16
 160 0004 00AF     		add	r7, sp, #0
 161              		.cfi_def_cfa_register 7
 162 0006 BB1D     		add	r3, r7, #6
 163 0008 1880     		strh	r0, [r3]
 164 000a 3B1D     		add	r3, r7, #4
 165 000c 1980     		strh	r1, [r3]
 166 000e BB1C     		add	r3, r7, #2
 167 0010 1A80     		strh	r2, [r3]
 130:.\LED_RGB.c   ****     LED_RGB_DCWrite(LED_RED, (uint32) redIntensity);
 168              		.loc 1 130 0
 169 0012 BB1D     		add	r3, r7, #6
 170 0014 1B88     		ldrh	r3, [r3]
 171 0016 0120     		mov	r0, #1
 172 0018 191C     		mov	r1, r3
 173 001a FFF7FEFF 		bl	LED_RGB_DCWrite
 131:.\LED_RGB.c   ****     LED_RGB_DCWrite(LED_GREEN, (uint32) greenIntensity);
 174              		.loc 1 131 0
 175 001e 3B1D     		add	r3, r7, #4
 176 0020 1B88     		ldrh	r3, [r3]
 177 0022 0220     		mov	r0, #2
 178 0024 191C     		mov	r1, r3
 179 0026 FFF7FEFF 		bl	LED_RGB_DCWrite
 132:.\LED_RGB.c   ****     LED_RGB_DCWrite(LED_BLUE, (uint32) blueIntensity);
 180              		.loc 1 132 0
 181 002a BB1C     		add	r3, r7, #2
 182 002c 1B88     		ldrh	r3, [r3]
 183 002e 0320     		mov	r0, #3
 184 0030 191C     		mov	r1, r3
 185 0032 FFF7FEFF 		bl	LED_RGB_DCWrite
 133:.\LED_RGB.c   **** }
 186              		.loc 1 133 0
 187 0036 BD46     		mov	sp, r7
 188 0038 02B0     		add	sp, sp, #8
 189              		@ sp needed
 190 003a 80BD     		pop	{r7, pc}
 191              		.cfi_endproc
 192              	.LFE36:
 193              		.size	LED_RGB_SetColorRGB, .-LED_RGB_SetColorRGB
 194              		.section	.text.LED_RGB_SetColorCircle,"ax",%progbits
 195              		.align	2
 196              		.global	LED_RGB_SetColorCircle
 197              		.code	16
 198              		.thumb_func
 199              		.type	LED_RGB_SetColorCircle, %function
 200              	LED_RGB_SetColorCircle:
 201              	.LFB37:
 134:.\LED_RGB.c   **** 
 135:.\LED_RGB.c   **** /*****************************************************************************
ARM GAS  C:\Users\mitchell\AppData\Local\Temp\ccSvm2gx.s 			page 7


 136:.\LED_RGB.c   **** * Function Name: LED_RGB_SetColorCircle()
 137:.\LED_RGB.c   **** ******************************************************************************
 138:.\LED_RGB.c   **** * Summary:
 139:.\LED_RGB.c   **** *  Sets the three LEDs to produce the specified hue at 100% saturation and
 140:.\LED_RGB.c   **** * value. This will produce the most saturated version of the color.
 141:.\LED_RGB.c   **** *
 142:.\LED_RGB.c   **** * Parameters:
 143:.\LED_RGB.c   **** *  hue: Describes the LED color hue 
 144:.\LED_RGB.c   **** *   (0-65535 full scale, red->green->blue->red)
 145:.\LED_RGB.c   **** *
 146:.\LED_RGB.c   **** *****************************************************************************/
 147:.\LED_RGB.c   **** void LED_RGB_SetColorCircle(uint16 hue)
 148:.\LED_RGB.c   **** {
 202              		.loc 1 148 0
 203              		.cfi_startproc
 204 0000 80B5     		push	{r7, lr}
 205              		.cfi_def_cfa_offset 8
 206              		.cfi_offset 7, -8
 207              		.cfi_offset 14, -4
 208 0002 84B0     		sub	sp, sp, #16
 209              		.cfi_def_cfa_offset 24
 210 0004 00AF     		add	r7, sp, #0
 211              		.cfi_def_cfa_register 7
 212 0006 021C     		mov	r2, r0
 213 0008 BB1D     		add	r3, r7, #6
 214 000a 1A80     		strh	r2, [r3]
 149:.\LED_RGB.c   ****     uint16 redIntensity, greenIntensity, blueIntensity;
 150:.\LED_RGB.c   **** 
 151:.\LED_RGB.c   ****     if(hue < UINT16_1_6TH_MAX)
 215              		.loc 1 151 0
 216 000c BB1D     		add	r3, r7, #6
 217 000e 1A88     		ldrh	r2, [r3]
 218 0010 534B     		ldr	r3, .L17
 219 0012 9A42     		cmp	r2, r3
 220 0014 12D8     		bhi	.L11
 152:.\LED_RGB.c   ****     {
 153:.\LED_RGB.c   ****         //red on, green increasing
 154:.\LED_RGB.c   ****         redIntensity = UINT16_MAX;
 221              		.loc 1 154 0
 222 0016 3B1C     		mov	r3, r7
 223 0018 0E33     		add	r3, r3, #14
 224 001a 0122     		mov	r2, #1
 225 001c 5242     		neg	r2, r2
 226 001e 1A80     		strh	r2, [r3]
 155:.\LED_RGB.c   ****         greenIntensity = hue * 6;
 227              		.loc 1 155 0
 228 0020 391C     		mov	r1, r7
 229 0022 0C31     		add	r1, r1, #12
 230 0024 BB1D     		add	r3, r7, #6
 231 0026 1B88     		ldrh	r3, [r3]
 232 0028 1A1C     		add	r2, r3, #0
 233 002a 9218     		add	r2, r2, r2
 234 002c D318     		add	r3, r2, r3
 235 002e DB18     		add	r3, r3, r3
 236 0030 0B80     		strh	r3, [r1]
 156:.\LED_RGB.c   ****         blueIntensity = 0;
 237              		.loc 1 156 0
ARM GAS  C:\Users\mitchell\AppData\Local\Temp\ccSvm2gx.s 			page 8


 238 0032 3B1C     		mov	r3, r7
 239 0034 0A33     		add	r3, r3, #10
 240 0036 0022     		mov	r2, #0
 241 0038 1A80     		strh	r2, [r3]
 242 003a 80E0     		b	.L12
 243              	.L11:
 157:.\LED_RGB.c   ****     }
 158:.\LED_RGB.c   ****     else if(hue < UINT16_2_6TH_MAX)
 244              		.loc 1 158 0
 245 003c BB1D     		add	r3, r7, #6
 246 003e 1A88     		ldrh	r2, [r3]
 247 0040 484B     		ldr	r3, .L17+4
 248 0042 9A42     		cmp	r2, r3
 249 0044 15D8     		bhi	.L13
 159:.\LED_RGB.c   ****     {
 160:.\LED_RGB.c   ****         //green on, red decreasing
 161:.\LED_RGB.c   ****         redIntensity = (UINT16_2_6TH_MAX - hue) * 6;
 250              		.loc 1 161 0
 251 0046 BB1D     		add	r3, r7, #6
 252 0048 1B88     		ldrh	r3, [r3]
 253 004a 474A     		ldr	r2, .L17+8
 254 004c D31A     		sub	r3, r2, r3
 255 004e 9BB2     		uxth	r3, r3
 256 0050 391C     		mov	r1, r7
 257 0052 0E31     		add	r1, r1, #14
 258 0054 1A1C     		add	r2, r3, #0
 259 0056 9218     		add	r2, r2, r2
 260 0058 D318     		add	r3, r2, r3
 261 005a DB18     		add	r3, r3, r3
 262 005c 0B80     		strh	r3, [r1]
 162:.\LED_RGB.c   ****         greenIntensity = UINT16_MAX;
 263              		.loc 1 162 0
 264 005e 3B1C     		mov	r3, r7
 265 0060 0C33     		add	r3, r3, #12
 266 0062 0122     		mov	r2, #1
 267 0064 5242     		neg	r2, r2
 268 0066 1A80     		strh	r2, [r3]
 163:.\LED_RGB.c   ****         blueIntensity = 0;
 269              		.loc 1 163 0
 270 0068 3B1C     		mov	r3, r7
 271 006a 0A33     		add	r3, r3, #10
 272 006c 0022     		mov	r2, #0
 273 006e 1A80     		strh	r2, [r3]
 274 0070 65E0     		b	.L12
 275              	.L13:
 164:.\LED_RGB.c   ****     }
 165:.\LED_RGB.c   ****     else if(hue < UINT16_3_6TH_MAX)
 276              		.loc 1 165 0
 277 0072 BB1D     		add	r3, r7, #6
 278 0074 1A88     		ldrh	r2, [r3]
 279 0076 3D4B     		ldr	r3, .L17+12
 280 0078 9A42     		cmp	r2, r3
 281 007a 15D8     		bhi	.L14
 166:.\LED_RGB.c   ****     {
 167:.\LED_RGB.c   ****         //green on, blue increasing
 168:.\LED_RGB.c   ****         redIntensity = 0;
 282              		.loc 1 168 0
ARM GAS  C:\Users\mitchell\AppData\Local\Temp\ccSvm2gx.s 			page 9


 283 007c 3B1C     		mov	r3, r7
 284 007e 0E33     		add	r3, r3, #14
 285 0080 0022     		mov	r2, #0
 286 0082 1A80     		strh	r2, [r3]
 169:.\LED_RGB.c   ****         greenIntensity = UINT16_MAX;
 287              		.loc 1 169 0
 288 0084 3B1C     		mov	r3, r7
 289 0086 0C33     		add	r3, r3, #12
 290 0088 0122     		mov	r2, #1
 291 008a 5242     		neg	r2, r2
 292 008c 1A80     		strh	r2, [r3]
 170:.\LED_RGB.c   ****         blueIntensity = (hue - UINT16_2_6TH_MAX) * 6;
 293              		.loc 1 170 0
 294 008e BB1D     		add	r3, r7, #6
 295 0090 1B88     		ldrh	r3, [r3]
 296 0092 374A     		ldr	r2, .L17+16
 297 0094 9B18     		add	r3, r3, r2
 298 0096 9BB2     		uxth	r3, r3
 299 0098 391C     		mov	r1, r7
 300 009a 0A31     		add	r1, r1, #10
 301 009c 1A1C     		add	r2, r3, #0
 302 009e 9218     		add	r2, r2, r2
 303 00a0 D318     		add	r3, r2, r3
 304 00a2 DB18     		add	r3, r3, r3
 305 00a4 0B80     		strh	r3, [r1]
 306 00a6 4AE0     		b	.L12
 307              	.L14:
 171:.\LED_RGB.c   ****     }
 172:.\LED_RGB.c   ****     else if(hue < UINT16_4_6TH_MAX)
 308              		.loc 1 172 0
 309 00a8 BB1D     		add	r3, r7, #6
 310 00aa 1A88     		ldrh	r2, [r3]
 311 00ac 314B     		ldr	r3, .L17+20
 312 00ae 9A42     		cmp	r2, r3
 313 00b0 15D8     		bhi	.L15
 173:.\LED_RGB.c   ****     {
 174:.\LED_RGB.c   ****         //blue on, green decreasing
 175:.\LED_RGB.c   ****         redIntensity = 0;
 314              		.loc 1 175 0
 315 00b2 3B1C     		mov	r3, r7
 316 00b4 0E33     		add	r3, r3, #14
 317 00b6 0022     		mov	r2, #0
 318 00b8 1A80     		strh	r2, [r3]
 176:.\LED_RGB.c   ****         greenIntensity = (UINT16_4_6TH_MAX - hue) * 6;
 319              		.loc 1 176 0
 320 00ba BB1D     		add	r3, r7, #6
 321 00bc 1B88     		ldrh	r3, [r3]
 322 00be 2E4A     		ldr	r2, .L17+24
 323 00c0 D31A     		sub	r3, r2, r3
 324 00c2 9BB2     		uxth	r3, r3
 325 00c4 391C     		mov	r1, r7
 326 00c6 0C31     		add	r1, r1, #12
 327 00c8 1A1C     		add	r2, r3, #0
 328 00ca 9218     		add	r2, r2, r2
 329 00cc D318     		add	r3, r2, r3
 330 00ce DB18     		add	r3, r3, r3
 331 00d0 0B80     		strh	r3, [r1]
ARM GAS  C:\Users\mitchell\AppData\Local\Temp\ccSvm2gx.s 			page 10


 177:.\LED_RGB.c   ****         blueIntensity = UINT16_MAX;
 332              		.loc 1 177 0
 333 00d2 3B1C     		mov	r3, r7
 334 00d4 0A33     		add	r3, r3, #10
 335 00d6 0122     		mov	r2, #1
 336 00d8 5242     		neg	r2, r2
 337 00da 1A80     		strh	r2, [r3]
 338 00dc 2FE0     		b	.L12
 339              	.L15:
 178:.\LED_RGB.c   ****     }
 179:.\LED_RGB.c   ****     else if(hue < UINT16_5_6TH_MAX)
 340              		.loc 1 179 0
 341 00de BB1D     		add	r3, r7, #6
 342 00e0 1A88     		ldrh	r2, [r3]
 343 00e2 264B     		ldr	r3, .L17+28
 344 00e4 9A42     		cmp	r2, r3
 345 00e6 15D8     		bhi	.L16
 180:.\LED_RGB.c   ****     {
 181:.\LED_RGB.c   ****         //blue on, red increasing
 182:.\LED_RGB.c   ****         redIntensity =  (hue - UINT16_4_6TH_MAX) * 6;
 346              		.loc 1 182 0
 347 00e8 BB1D     		add	r3, r7, #6
 348 00ea 1B88     		ldrh	r3, [r3]
 349 00ec 244A     		ldr	r2, .L17+32
 350 00ee 9B18     		add	r3, r3, r2
 351 00f0 9BB2     		uxth	r3, r3
 352 00f2 391C     		mov	r1, r7
 353 00f4 0E31     		add	r1, r1, #14
 354 00f6 1A1C     		add	r2, r3, #0
 355 00f8 9218     		add	r2, r2, r2
 356 00fa D318     		add	r3, r2, r3
 357 00fc DB18     		add	r3, r3, r3
 358 00fe 0B80     		strh	r3, [r1]
 183:.\LED_RGB.c   ****         greenIntensity = 0;
 359              		.loc 1 183 0
 360 0100 3B1C     		mov	r3, r7
 361 0102 0C33     		add	r3, r3, #12
 362 0104 0022     		mov	r2, #0
 363 0106 1A80     		strh	r2, [r3]
 184:.\LED_RGB.c   ****         blueIntensity = UINT16_MAX;
 364              		.loc 1 184 0
 365 0108 3B1C     		mov	r3, r7
 366 010a 0A33     		add	r3, r3, #10
 367 010c 0122     		mov	r2, #1
 368 010e 5242     		neg	r2, r2
 369 0110 1A80     		strh	r2, [r3]
 370 0112 14E0     		b	.L12
 371              	.L16:
 185:.\LED_RGB.c   ****     }
 186:.\LED_RGB.c   ****     else
 187:.\LED_RGB.c   ****     {
 188:.\LED_RGB.c   ****         //red on, blue decreasing
 189:.\LED_RGB.c   ****         redIntensity = UINT16_MAX;
 372              		.loc 1 189 0
 373 0114 3B1C     		mov	r3, r7
 374 0116 0E33     		add	r3, r3, #14
 375 0118 0122     		mov	r2, #1
ARM GAS  C:\Users\mitchell\AppData\Local\Temp\ccSvm2gx.s 			page 11


 376 011a 5242     		neg	r2, r2
 377 011c 1A80     		strh	r2, [r3]
 190:.\LED_RGB.c   ****         greenIntensity = 0;
 378              		.loc 1 190 0
 379 011e 3B1C     		mov	r3, r7
 380 0120 0C33     		add	r3, r3, #12
 381 0122 0022     		mov	r2, #0
 382 0124 1A80     		strh	r2, [r3]
 191:.\LED_RGB.c   ****         blueIntensity = (UINT16_MAX - hue) * 6;
 383              		.loc 1 191 0
 384 0126 BB1D     		add	r3, r7, #6
 385 0128 1B88     		ldrh	r3, [r3]
 386 012a 164A     		ldr	r2, .L17+36
 387 012c D31A     		sub	r3, r2, r3
 388 012e 9BB2     		uxth	r3, r3
 389 0130 391C     		mov	r1, r7
 390 0132 0A31     		add	r1, r1, #10
 391 0134 1A1C     		add	r2, r3, #0
 392 0136 9218     		add	r2, r2, r2
 393 0138 D318     		add	r3, r2, r3
 394 013a DB18     		add	r3, r3, r3
 395 013c 0B80     		strh	r3, [r1]
 396              	.L12:
 192:.\LED_RGB.c   ****     }
 193:.\LED_RGB.c   ****     
 194:.\LED_RGB.c   ****     LED_RGB_SetColorRGB(redIntensity, greenIntensity, blueIntensity);
 397              		.loc 1 194 0
 398 013e 3B1C     		mov	r3, r7
 399 0140 0E33     		add	r3, r3, #14
 400 0142 1988     		ldrh	r1, [r3]
 401 0144 3B1C     		mov	r3, r7
 402 0146 0C33     		add	r3, r3, #12
 403 0148 1A88     		ldrh	r2, [r3]
 404 014a 3B1C     		mov	r3, r7
 405 014c 0A33     		add	r3, r3, #10
 406 014e 1B88     		ldrh	r3, [r3]
 407 0150 081C     		mov	r0, r1
 408 0152 111C     		mov	r1, r2
 409 0154 1A1C     		mov	r2, r3
 410 0156 FFF7FEFF 		bl	LED_RGB_SetColorRGB
 195:.\LED_RGB.c   **** }
 411              		.loc 1 195 0
 412 015a BD46     		mov	sp, r7
 413 015c 04B0     		add	sp, sp, #16
 414              		@ sp needed
 415 015e 80BD     		pop	{r7, pc}
 416              	.L18:
 417              		.align	2
 418              	.L17:
 419 0160 A92A0000 		.word	10921
 420 0164 54550000 		.word	21844
 421 0168 55550000 		.word	21845
 422 016c FE7F0000 		.word	32766
 423 0170 ABAAFFFF 		.word	-21845
 424 0174 A9AA0000 		.word	43689
 425 0178 AAAA0000 		.word	43690
 426 017c 53D50000 		.word	54611
ARM GAS  C:\Users\mitchell\AppData\Local\Temp\ccSvm2gx.s 			page 12


 427 0180 5655FFFF 		.word	-43690
 428 0184 FFFF0000 		.word	65535
 429              		.cfi_endproc
 430              	.LFE37:
 431              		.size	LED_RGB_SetColorCircle, .-LED_RGB_SetColorCircle
 432              		.global	__aeabi_uidiv
 433              		.section	.text.LED_RGB_SetColorCircleHSV,"ax",%progbits
 434              		.align	2
 435              		.global	LED_RGB_SetColorCircleHSV
 436              		.code	16
 437              		.thumb_func
 438              		.type	LED_RGB_SetColorCircleHSV, %function
 439              	LED_RGB_SetColorCircleHSV:
 440              	.LFB38:
 196:.\LED_RGB.c   **** 
 197:.\LED_RGB.c   **** /*****************************************************************************
 198:.\LED_RGB.c   **** * Function Name: LED_RGB_SetColorCircleHSV()
 199:.\LED_RGB.c   **** ******************************************************************************
 200:.\LED_RGB.c   **** * Summary:
 201:.\LED_RGB.c   **** *  Sets the three LEDs to produce the specified hue, saturation and value.
 202:.\LED_RGB.c   **** *
 203:.\LED_RGB.c   **** * Parameters:
 204:.\LED_RGB.c   **** *  hue: Describes the LED array hue (color)
 205:.\LED_RGB.c   **** *   (0-65535 full scale, red->green->blue->red)
 206:.\LED_RGB.c   **** *  saturation: Describes the LED array saturation (un-whiteness)
 207:.\LED_RGB.c   **** *   (0-65535 full scale, white->hue)
 208:.\LED_RGB.c   **** *  value: Describes the LED array value (un-blackness)
 209:.\LED_RGB.c   **** *   (0-65535 full scale, black->hue)
 210:.\LED_RGB.c   **** *
 211:.\LED_RGB.c   **** *****************************************************************************/
 212:.\LED_RGB.c   **** void LED_RGB_SetColorCircleHSV(uint16 hue, uint16 saturation, uint16 value)
 213:.\LED_RGB.c   **** {
 441              		.loc 1 213 0
 442              		.cfi_startproc
 443 0000 80B5     		push	{r7, lr}
 444              		.cfi_def_cfa_offset 8
 445              		.cfi_offset 7, -8
 446              		.cfi_offset 14, -4
 447 0002 88B0     		sub	sp, sp, #32
 448              		.cfi_def_cfa_offset 40
 449 0004 00AF     		add	r7, sp, #0
 450              		.cfi_def_cfa_register 7
 451 0006 BB1D     		add	r3, r7, #6
 452 0008 1880     		strh	r0, [r3]
 453 000a 3B1D     		add	r3, r7, #4
 454 000c 1980     		strh	r1, [r3]
 455 000e BB1C     		add	r3, r7, #2
 456 0010 1A80     		strh	r2, [r3]
 214:.\LED_RGB.c   ****     int32 redIntensity, greenIntensity, blueIntensity;
 215:.\LED_RGB.c   ****     
 216:.\LED_RGB.c   ****     uint32 dominantIntensityC = ((uint32)saturation) * value / UINT16_MAX;
 457              		.loc 1 216 0
 458 0012 3B1D     		add	r3, r7, #4
 459 0014 1B88     		ldrh	r3, [r3]
 460 0016 BA1C     		add	r2, r7, #2
 461 0018 1288     		ldrh	r2, [r2]
 462 001a 5343     		mul	r3, r2
ARM GAS  C:\Users\mitchell\AppData\Local\Temp\ccSvm2gx.s 			page 13


 463 001c 181C     		mov	r0, r3
 464 001e 6449     		ldr	r1, .L32
 465 0020 FFF7FEFF 		bl	__aeabi_uidiv
 466 0024 031C     		mov	r3, r0
 467 0026 3B61     		str	r3, [r7, #16]
 217:.\LED_RGB.c   ****     
 218:.\LED_RGB.c   ****     int32 intensityShiftM = ((int32)value) - dominantIntensityC;
 468              		.loc 1 218 0
 469 0028 BB1C     		add	r3, r7, #2
 470 002a 1A88     		ldrh	r2, [r3]
 471 002c 3B69     		ldr	r3, [r7, #16]
 472 002e D31A     		sub	r3, r2, r3
 473 0030 FB60     		str	r3, [r7, #12]
 219:.\LED_RGB.c   ****     
 220:.\LED_RGB.c   ****     if(hue < UINT16_1_6TH_MAX)
 474              		.loc 1 220 0
 475 0032 BB1D     		add	r3, r7, #6
 476 0034 1A88     		ldrh	r2, [r3]
 477 0036 5F4B     		ldr	r3, .L32+4
 478 0038 9A42     		cmp	r2, r3
 479 003a 12D8     		bhi	.L20
 221:.\LED_RGB.c   ****     {
 222:.\LED_RGB.c   ****         //red on, green increasing
 223:.\LED_RGB.c   ****         redIntensity = dominantIntensityC;
 480              		.loc 1 223 0
 481 003c 3B69     		ldr	r3, [r7, #16]
 482 003e FB61     		str	r3, [r7, #28]
 224:.\LED_RGB.c   ****         greenIntensity = (hue * 6) * dominantIntensityC / UINT16_2_6TH_MAX ;
 483              		.loc 1 224 0
 484 0040 BB1D     		add	r3, r7, #6
 485 0042 1B88     		ldrh	r3, [r3]
 486 0044 3A69     		ldr	r2, [r7, #16]
 487 0046 5A43     		mul	r2, r3
 488 0048 131C     		mov	r3, r2
 489 004a 5B00     		lsl	r3, r3, #1
 490 004c 9B18     		add	r3, r3, r2
 491 004e 5B00     		lsl	r3, r3, #1
 492 0050 181C     		mov	r0, r3
 493 0052 5949     		ldr	r1, .L32+8
 494 0054 FFF7FEFF 		bl	__aeabi_uidiv
 495 0058 031C     		mov	r3, r0
 496 005a BB61     		str	r3, [r7, #24]
 225:.\LED_RGB.c   ****         blueIntensity = 0;
 497              		.loc 1 225 0
 498 005c 0023     		mov	r3, #0
 499 005e 7B61     		str	r3, [r7, #20]
 500 0060 67E0     		b	.L21
 501              	.L20:
 226:.\LED_RGB.c   ****     }
 227:.\LED_RGB.c   ****     else if(hue < UINT16_2_6TH_MAX)
 502              		.loc 1 227 0
 503 0062 BB1D     		add	r3, r7, #6
 504 0064 1A88     		ldrh	r2, [r3]
 505 0066 554B     		ldr	r3, .L32+12
 506 0068 9A42     		cmp	r2, r3
 507 006a 10D8     		bhi	.L22
 228:.\LED_RGB.c   ****     {
ARM GAS  C:\Users\mitchell\AppData\Local\Temp\ccSvm2gx.s 			page 14


 229:.\LED_RGB.c   ****         //green on, red decreasing
 230:.\LED_RGB.c   ****         redIntensity = (UINT16_2_6TH_MAX - hue) * dominantIntensityC / UINT16_1_6TH_MAX;
 508              		.loc 1 230 0
 509 006c BB1D     		add	r3, r7, #6
 510 006e 1B88     		ldrh	r3, [r3]
 511 0070 514A     		ldr	r2, .L32+8
 512 0072 D31A     		sub	r3, r2, r3
 513 0074 3A69     		ldr	r2, [r7, #16]
 514 0076 5343     		mul	r3, r2
 515 0078 181C     		mov	r0, r3
 516 007a 5149     		ldr	r1, .L32+16
 517 007c FFF7FEFF 		bl	__aeabi_uidiv
 518 0080 031C     		mov	r3, r0
 519 0082 FB61     		str	r3, [r7, #28]
 231:.\LED_RGB.c   ****         greenIntensity = dominantIntensityC;
 520              		.loc 1 231 0
 521 0084 3B69     		ldr	r3, [r7, #16]
 522 0086 BB61     		str	r3, [r7, #24]
 232:.\LED_RGB.c   ****         blueIntensity = 0;
 523              		.loc 1 232 0
 524 0088 0023     		mov	r3, #0
 525 008a 7B61     		str	r3, [r7, #20]
 526 008c 51E0     		b	.L21
 527              	.L22:
 233:.\LED_RGB.c   ****     }
 234:.\LED_RGB.c   ****     else if(hue < UINT16_3_6TH_MAX)
 528              		.loc 1 234 0
 529 008e BB1D     		add	r3, r7, #6
 530 0090 1A88     		ldrh	r2, [r3]
 531 0092 4C4B     		ldr	r3, .L32+20
 532 0094 9A42     		cmp	r2, r3
 533 0096 10D8     		bhi	.L23
 235:.\LED_RGB.c   ****     {
 236:.\LED_RGB.c   ****         //green on, blue increasing
 237:.\LED_RGB.c   ****         redIntensity = 0;
 534              		.loc 1 237 0
 535 0098 0023     		mov	r3, #0
 536 009a FB61     		str	r3, [r7, #28]
 238:.\LED_RGB.c   ****         greenIntensity = dominantIntensityC;
 537              		.loc 1 238 0
 538 009c 3B69     		ldr	r3, [r7, #16]
 539 009e BB61     		str	r3, [r7, #24]
 239:.\LED_RGB.c   ****         blueIntensity = (hue - UINT16_2_6TH_MAX) * dominantIntensityC / UINT16_1_6TH_MAX;
 540              		.loc 1 239 0
 541 00a0 BB1D     		add	r3, r7, #6
 542 00a2 1B88     		ldrh	r3, [r3]
 543 00a4 484A     		ldr	r2, .L32+24
 544 00a6 9B18     		add	r3, r3, r2
 545 00a8 3A69     		ldr	r2, [r7, #16]
 546 00aa 5343     		mul	r3, r2
 547 00ac 181C     		mov	r0, r3
 548 00ae 4449     		ldr	r1, .L32+16
 549 00b0 FFF7FEFF 		bl	__aeabi_uidiv
 550 00b4 031C     		mov	r3, r0
 551 00b6 7B61     		str	r3, [r7, #20]
 552 00b8 3BE0     		b	.L21
 553              	.L23:
ARM GAS  C:\Users\mitchell\AppData\Local\Temp\ccSvm2gx.s 			page 15


 240:.\LED_RGB.c   ****     }
 241:.\LED_RGB.c   ****     else if(hue < UINT16_4_6TH_MAX)
 554              		.loc 1 241 0
 555 00ba BB1D     		add	r3, r7, #6
 556 00bc 1A88     		ldrh	r2, [r3]
 557 00be 434B     		ldr	r3, .L32+28
 558 00c0 9A42     		cmp	r2, r3
 559 00c2 10D8     		bhi	.L24
 242:.\LED_RGB.c   ****     {
 243:.\LED_RGB.c   ****         //blue on, green decreasing
 244:.\LED_RGB.c   ****         redIntensity = 0;
 560              		.loc 1 244 0
 561 00c4 0023     		mov	r3, #0
 562 00c6 FB61     		str	r3, [r7, #28]
 245:.\LED_RGB.c   ****         greenIntensity = (UINT16_4_6TH_MAX - hue) * dominantIntensityC / UINT16_1_6TH_MAX;
 563              		.loc 1 245 0
 564 00c8 BB1D     		add	r3, r7, #6
 565 00ca 1B88     		ldrh	r3, [r3]
 566 00cc 404A     		ldr	r2, .L32+32
 567 00ce D31A     		sub	r3, r2, r3
 568 00d0 3A69     		ldr	r2, [r7, #16]
 569 00d2 5343     		mul	r3, r2
 570 00d4 181C     		mov	r0, r3
 571 00d6 3A49     		ldr	r1, .L32+16
 572 00d8 FFF7FEFF 		bl	__aeabi_uidiv
 573 00dc 031C     		mov	r3, r0
 574 00de BB61     		str	r3, [r7, #24]
 246:.\LED_RGB.c   ****         blueIntensity = dominantIntensityC;
 575              		.loc 1 246 0
 576 00e0 3B69     		ldr	r3, [r7, #16]
 577 00e2 7B61     		str	r3, [r7, #20]
 578 00e4 25E0     		b	.L21
 579              	.L24:
 247:.\LED_RGB.c   ****     }
 248:.\LED_RGB.c   ****     else if(hue < UINT16_5_6TH_MAX)
 580              		.loc 1 248 0
 581 00e6 BB1D     		add	r3, r7, #6
 582 00e8 1A88     		ldrh	r2, [r3]
 583 00ea 3A4B     		ldr	r3, .L32+36
 584 00ec 9A42     		cmp	r2, r3
 585 00ee 10D8     		bhi	.L25
 249:.\LED_RGB.c   ****     {
 250:.\LED_RGB.c   ****         //blue on, red increasing
 251:.\LED_RGB.c   ****         redIntensity =  (hue - UINT16_4_6TH_MAX) * dominantIntensityC / UINT16_1_6TH_MAX;
 586              		.loc 1 251 0
 587 00f0 BB1D     		add	r3, r7, #6
 588 00f2 1B88     		ldrh	r3, [r3]
 589 00f4 384A     		ldr	r2, .L32+40
 590 00f6 9B18     		add	r3, r3, r2
 591 00f8 3A69     		ldr	r2, [r7, #16]
 592 00fa 5343     		mul	r3, r2
 593 00fc 181C     		mov	r0, r3
 594 00fe 3049     		ldr	r1, .L32+16
 595 0100 FFF7FEFF 		bl	__aeabi_uidiv
 596 0104 031C     		mov	r3, r0
 597 0106 FB61     		str	r3, [r7, #28]
 252:.\LED_RGB.c   ****         greenIntensity = 0;
ARM GAS  C:\Users\mitchell\AppData\Local\Temp\ccSvm2gx.s 			page 16


 598              		.loc 1 252 0
 599 0108 0023     		mov	r3, #0
 600 010a BB61     		str	r3, [r7, #24]
 253:.\LED_RGB.c   ****         blueIntensity = dominantIntensityC;
 601              		.loc 1 253 0
 602 010c 3B69     		ldr	r3, [r7, #16]
 603 010e 7B61     		str	r3, [r7, #20]
 604 0110 0FE0     		b	.L21
 605              	.L25:
 254:.\LED_RGB.c   ****     }
 255:.\LED_RGB.c   ****     else
 256:.\LED_RGB.c   ****     {
 257:.\LED_RGB.c   ****         //red on, blue decreasing
 258:.\LED_RGB.c   ****         redIntensity = dominantIntensityC;
 606              		.loc 1 258 0
 607 0112 3B69     		ldr	r3, [r7, #16]
 608 0114 FB61     		str	r3, [r7, #28]
 259:.\LED_RGB.c   ****         greenIntensity = 0;
 609              		.loc 1 259 0
 610 0116 0023     		mov	r3, #0
 611 0118 BB61     		str	r3, [r7, #24]
 260:.\LED_RGB.c   ****         blueIntensity = (UINT16_MAX - hue) * dominantIntensityC / UINT16_1_6TH_MAX;
 612              		.loc 1 260 0
 613 011a BB1D     		add	r3, r7, #6
 614 011c 1B88     		ldrh	r3, [r3]
 615 011e 244A     		ldr	r2, .L32
 616 0120 D31A     		sub	r3, r2, r3
 617 0122 3A69     		ldr	r2, [r7, #16]
 618 0124 5343     		mul	r3, r2
 619 0126 181C     		mov	r0, r3
 620 0128 2549     		ldr	r1, .L32+16
 621 012a FFF7FEFF 		bl	__aeabi_uidiv
 622 012e 031C     		mov	r3, r0
 623 0130 7B61     		str	r3, [r7, #20]
 624              	.L21:
 261:.\LED_RGB.c   ****     }
 262:.\LED_RGB.c   **** 
 263:.\LED_RGB.c   ****     /* Scale for Saturation and Value */
 264:.\LED_RGB.c   ****     redIntensity += intensityShiftM;
 625              		.loc 1 264 0
 626 0132 FA69     		ldr	r2, [r7, #28]
 627 0134 FB68     		ldr	r3, [r7, #12]
 628 0136 D318     		add	r3, r2, r3
 629 0138 FB61     		str	r3, [r7, #28]
 265:.\LED_RGB.c   ****     greenIntensity += intensityShiftM;
 630              		.loc 1 265 0
 631 013a BA69     		ldr	r2, [r7, #24]
 632 013c FB68     		ldr	r3, [r7, #12]
 633 013e D318     		add	r3, r2, r3
 634 0140 BB61     		str	r3, [r7, #24]
 266:.\LED_RGB.c   ****     blueIntensity += intensityShiftM;
 635              		.loc 1 266 0
 636 0142 7A69     		ldr	r2, [r7, #20]
 637 0144 FB68     		ldr	r3, [r7, #12]
 638 0146 D318     		add	r3, r2, r3
 639 0148 7B61     		str	r3, [r7, #20]
 267:.\LED_RGB.c   ****     
ARM GAS  C:\Users\mitchell\AppData\Local\Temp\ccSvm2gx.s 			page 17


 268:.\LED_RGB.c   ****     /* fix the overflow and underflow cases */
 269:.\LED_RGB.c   ****     if(redIntensity>UINT16_MAX)
 640              		.loc 1 269 0
 641 014a FA69     		ldr	r2, [r7, #28]
 642 014c 184B     		ldr	r3, .L32
 643 014e 9A42     		cmp	r2, r3
 644 0150 02DD     		ble	.L26
 270:.\LED_RGB.c   ****     {
 271:.\LED_RGB.c   ****         redIntensity=UINT16_MAX;
 645              		.loc 1 271 0
 646 0152 174B     		ldr	r3, .L32
 647 0154 FB61     		str	r3, [r7, #28]
 648 0156 04E0     		b	.L27
 649              	.L26:
 272:.\LED_RGB.c   ****     }
 273:.\LED_RGB.c   ****     else if(redIntensity<0)
 650              		.loc 1 273 0
 651 0158 FB69     		ldr	r3, [r7, #28]
 652 015a 002B     		cmp	r3, #0
 653 015c 01DA     		bge	.L27
 274:.\LED_RGB.c   ****     {
 275:.\LED_RGB.c   ****         redIntensity=0;
 654              		.loc 1 275 0
 655 015e 0023     		mov	r3, #0
 656 0160 FB61     		str	r3, [r7, #28]
 657              	.L27:
 276:.\LED_RGB.c   ****     }
 277:.\LED_RGB.c   ****     
 278:.\LED_RGB.c   ****     if(greenIntensity>UINT16_MAX)
 658              		.loc 1 278 0
 659 0162 BA69     		ldr	r2, [r7, #24]
 660 0164 124B     		ldr	r3, .L32
 661 0166 9A42     		cmp	r2, r3
 662 0168 02DD     		ble	.L28
 279:.\LED_RGB.c   ****     {
 280:.\LED_RGB.c   ****         greenIntensity=UINT16_MAX;
 663              		.loc 1 280 0
 664 016a 114B     		ldr	r3, .L32
 665 016c BB61     		str	r3, [r7, #24]
 666 016e 04E0     		b	.L29
 667              	.L28:
 281:.\LED_RGB.c   ****     }
 282:.\LED_RGB.c   ****     else if(greenIntensity<0)
 668              		.loc 1 282 0
 669 0170 BB69     		ldr	r3, [r7, #24]
 670 0172 002B     		cmp	r3, #0
 671 0174 01DA     		bge	.L29
 283:.\LED_RGB.c   ****     {
 284:.\LED_RGB.c   ****         greenIntensity=0;
 672              		.loc 1 284 0
 673 0176 0023     		mov	r3, #0
 674 0178 BB61     		str	r3, [r7, #24]
 675              	.L29:
 285:.\LED_RGB.c   ****     }
 286:.\LED_RGB.c   ****     
 287:.\LED_RGB.c   ****     if(blueIntensity>UINT16_MAX)
 676              		.loc 1 287 0
ARM GAS  C:\Users\mitchell\AppData\Local\Temp\ccSvm2gx.s 			page 18


 677 017a 7A69     		ldr	r2, [r7, #20]
 678 017c 0C4B     		ldr	r3, .L32
 679 017e 9A42     		cmp	r2, r3
 680 0180 02DD     		ble	.L30
 288:.\LED_RGB.c   ****     {
 289:.\LED_RGB.c   ****         blueIntensity=UINT16_MAX;
 681              		.loc 1 289 0
 682 0182 0B4B     		ldr	r3, .L32
 683 0184 7B61     		str	r3, [r7, #20]
 684 0186 04E0     		b	.L31
 685              	.L30:
 290:.\LED_RGB.c   ****     }
 291:.\LED_RGB.c   ****     else if(blueIntensity<0)
 686              		.loc 1 291 0
 687 0188 7B69     		ldr	r3, [r7, #20]
 688 018a 002B     		cmp	r3, #0
 689 018c 01DA     		bge	.L31
 292:.\LED_RGB.c   ****     {
 293:.\LED_RGB.c   ****         blueIntensity=0;
 690              		.loc 1 293 0
 691 018e 0023     		mov	r3, #0
 692 0190 7B61     		str	r3, [r7, #20]
 693              	.L31:
 294:.\LED_RGB.c   ****     }
 295:.\LED_RGB.c   ****     
 296:.\LED_RGB.c   ****     LED_RGB_SetColorRGB(redIntensity, greenIntensity, blueIntensity);
 694              		.loc 1 296 0
 695 0192 FB69     		ldr	r3, [r7, #28]
 696 0194 99B2     		uxth	r1, r3
 697 0196 BB69     		ldr	r3, [r7, #24]
 698 0198 9AB2     		uxth	r2, r3
 699 019a 7B69     		ldr	r3, [r7, #20]
 700 019c 9BB2     		uxth	r3, r3
 701 019e 081C     		mov	r0, r1
 702 01a0 111C     		mov	r1, r2
 703 01a2 1A1C     		mov	r2, r3
 704 01a4 FFF7FEFF 		bl	LED_RGB_SetColorRGB
 297:.\LED_RGB.c   **** }
 705              		.loc 1 297 0
 706 01a8 BD46     		mov	sp, r7
 707 01aa 08B0     		add	sp, sp, #32
 708              		@ sp needed
 709 01ac 80BD     		pop	{r7, pc}
 710              	.L33:
 711 01ae C046     		.align	2
 712              	.L32:
 713 01b0 FFFF0000 		.word	65535
 714 01b4 A92A0000 		.word	10921
 715 01b8 55550000 		.word	21845
 716 01bc 54550000 		.word	21844
 717 01c0 AA2A0000 		.word	10922
 718 01c4 FE7F0000 		.word	32766
 719 01c8 ABAAFFFF 		.word	-21845
 720 01cc A9AA0000 		.word	43689
 721 01d0 AAAA0000 		.word	43690
 722 01d4 53D50000 		.word	54611
 723 01d8 5655FFFF 		.word	-43690
ARM GAS  C:\Users\mitchell\AppData\Local\Temp\ccSvm2gx.s 			page 19


 724              		.cfi_endproc
 725              	.LFE38:
 726              		.size	LED_RGB_SetColorCircleHSV, .-LED_RGB_SetColorCircleHSV
 727              		.text
 728              	.Letext0:
 729              		.file 2 "Generated_Source\\PSoC4/cytypes.h"