ARM GAS  C:\Users\mitchell\AppData\Local\Temp\ccAFHxJJ.s 			page 1


   1              		.cpu cortex-m0
   2              		.fpu softvfp
   3              		.eabi_attribute 20, 1
   4              		.eabi_attribute 21, 1
   5              		.eabi_attribute 23, 3
   6              		.eabi_attribute 24, 1
   7              		.eabi_attribute 25, 1
   8              		.eabi_attribute 26, 1
   9              		.eabi_attribute 30, 6
  10              		.eabi_attribute 34, 0
  11              		.eabi_attribute 18, 4
  12              		.code	16
  13              		.file	"main.c"
  14              		.text
  15              	.Ltext0:
  16              		.cfi_sections	.debug_frame
  17              		.section	.text.main,"ax",%progbits
  18              		.align	2
  19              		.global	main
  20              		.code	16
  21              		.thumb_func
  22              		.type	main, %function
  23              	main:
  24              	.LFB33:
  25              		.file 1 ".\\main.c"
   1:.\main.c      **** #include <device.h>
   2:.\main.c      **** #include <LED_RGB.h>
   3:.\main.c      **** 
   4:.\main.c      **** void main()
   5:.\main.c      **** {
  26              		.loc 1 5 0
  27              		.cfi_startproc
  28 0000 80B5     		push	{r7, lr}
  29              		.cfi_def_cfa_offset 8
  30              		.cfi_offset 7, -8
  31              		.cfi_offset 14, -4
  32 0002 82B0     		sub	sp, sp, #8
  33              		.cfi_def_cfa_offset 16
  34 0004 00AF     		add	r7, sp, #0
  35              		.cfi_def_cfa_register 7
   6:.\main.c      ****     /* Place your initialization/startup code here (e.g. MyInst_Start()) */
   7:.\main.c      ****     uint16 ADCResult;
   8:.\main.c      ****     LED_RGB_Start();
  36              		.loc 1 8 0
  37 0006 FFF7FEFF 		bl	LED_RGB_Start
   9:.\main.c      ****     
  10:.\main.c      ****     CyGlobalIntEnable; /* Uncomment this line to enable global interrupts. */
  38              		.loc 1 10 0
  39              	@ 10 ".\main.c" 1
  40 000a 62B6     		CPSIE   i
  41              	@ 0 "" 2
  11:.\main.c      ****     
  12:.\main.c      ****     ADC_SAR_Seq_1_Start();
  42              		.loc 1 12 0
  43              		.code	16
  44 000c FFF7FEFF 		bl	ADC_SAR_Seq_1_Start
  13:.\main.c      ****     ADC_SAR_Seq_1_StartConvert();
ARM GAS  C:\Users\mitchell\AppData\Local\Temp\ccAFHxJJ.s 			page 2


  45              		.loc 1 13 0
  46 0010 FFF7FEFF 		bl	ADC_SAR_Seq_1_StartConvert
  14:.\main.c      ****     ADC_SAR_Seq_1_IsEndConversion(ADC_SAR_Seq_1_WAIT_FOR_RESULT);
  47              		.loc 1 14 0
  48 0014 0220     		mov	r0, #2
  49 0016 FFF7FEFF 		bl	ADC_SAR_Seq_1_IsEndConversion
  50              	.L2:
  15:.\main.c      ****     
  16:.\main.c      ****     for(;;)
  17:.\main.c      ****     {
  18:.\main.c      ****         /* Place your application code here. */
  19:.\main.c      ****         ADCResult = ADC_SAR_Seq_1_GetResult16(0);
  51              		.loc 1 19 0 discriminator 1
  52 001a 0020     		mov	r0, #0
  53 001c FFF7FEFF 		bl	ADC_SAR_Seq_1_GetResult16
  54 0020 031C     		mov	r3, r0
  55 0022 1A1C     		mov	r2, r3
  56 0024 BB1D     		add	r3, r7, #6
  57 0026 1A80     		strh	r2, [r3]
  20:.\main.c      ****         LED_RGB_SetColorRGB(ADCResult * (65535 / 2048), 0, 0);
  58              		.loc 1 20 0 discriminator 1
  59 0028 BB1D     		add	r3, r7, #6
  60 002a 1B88     		ldrh	r3, [r3]
  61 002c 1A1C     		add	r2, r3, #0
  62 002e 5201     		lsl	r2, r2, #5
  63 0030 D31A     		sub	r3, r2, r3
  64 0032 9BB2     		uxth	r3, r3
  65 0034 181C     		mov	r0, r3
  66 0036 0021     		mov	r1, #0
  67 0038 0022     		mov	r2, #0
  68 003a FFF7FEFF 		bl	LED_RGB_SetColorRGB
  21:.\main.c      ****         CyDelay(10);
  69              		.loc 1 21 0 discriminator 1
  70 003e 0A20     		mov	r0, #10
  71 0040 FFF7FEFF 		bl	CyDelay
  22:.\main.c      ****     }
  72              		.loc 1 22 0 discriminator 1
  73 0044 E9E7     		b	.L2
  74              		.cfi_endproc
  75              	.LFE33:
  76              		.size	main, .-main
  77 0046 C046     		.text
  78              	.Letext0:
  79              		.file 2 "Generated_Source\\PSoC4/cytypes.h"