ARM GAS  C:\Users\mitchell\AppData\Local\Temp\ccw789jO.s 			page 1


   1              		.cpu cortex-m0
   2              		.fpu softvfp
   3              		.eabi_attribute 20, 1
   4              		.eabi_attribute 21, 1
   5              		.eabi_attribute 23, 3
   6              		.eabi_attribute 24, 1
   7              		.eabi_attribute 25, 1
   8              		.eabi_attribute 26, 1
   9              		.eabi_attribute 30, 1
  10              		.eabi_attribute 34, 0
  11              		.eabi_attribute 18, 4
  12              		.code	16
  13              		.file	"ADC_SAR_Seq_1.c"
  14              		.text
  15              	.Ltext0:
  16              		.cfi_sections	.debug_frame
  17              		.section	.text.ADC_SAR_Seq_1_Init,"ax",%progbits
  18              		.align	2
  19              		.global	ADC_SAR_Seq_1_Init
  20              		.code	16
  21              		.thumb_func
  22              		.type	ADC_SAR_Seq_1_Init, %function
  23              	ADC_SAR_Seq_1_Init:
  24              	.LFB1:
  25              		.file 1 ".\\Generated_Source\\PSoC4\\ADC_SAR_Seq_1.c"
   1:.\Generated_Source\PSoC4/ADC_SAR_Seq_1.c **** /*******************************************************************************
   2:.\Generated_Source\PSoC4/ADC_SAR_Seq_1.c **** * File Name: ADC_SAR_Seq_1.c
   3:.\Generated_Source\PSoC4/ADC_SAR_Seq_1.c **** * Version 2.20
   4:.\Generated_Source\PSoC4/ADC_SAR_Seq_1.c **** *
   5:.\Generated_Source\PSoC4/ADC_SAR_Seq_1.c **** * Description:
   6:.\Generated_Source\PSoC4/ADC_SAR_Seq_1.c **** *  This file provides the source code to the API for the Sequencing Successive
   7:.\Generated_Source\PSoC4/ADC_SAR_Seq_1.c **** *  Approximation ADC Component Component.
   8:.\Generated_Source\PSoC4/ADC_SAR_Seq_1.c **** *
   9:.\Generated_Source\PSoC4/ADC_SAR_Seq_1.c **** * Note:
  10:.\Generated_Source\PSoC4/ADC_SAR_Seq_1.c **** *
  11:.\Generated_Source\PSoC4/ADC_SAR_Seq_1.c **** ********************************************************************************
  12:.\Generated_Source\PSoC4/ADC_SAR_Seq_1.c **** * Copyright 2008-2015, Cypress Semiconductor Corporation.  All rights reserved.
  13:.\Generated_Source\PSoC4/ADC_SAR_Seq_1.c **** * You may use this file only in accordance with the license, terms, conditions,
  14:.\Generated_Source\PSoC4/ADC_SAR_Seq_1.c **** * disclaimers, and limitations in the end user license agreement accompanying
  15:.\Generated_Source\PSoC4/ADC_SAR_Seq_1.c **** * the software package with which this file was provided.
  16:.\Generated_Source\PSoC4/ADC_SAR_Seq_1.c **** *******************************************************************************/
  17:.\Generated_Source\PSoC4/ADC_SAR_Seq_1.c **** 
  18:.\Generated_Source\PSoC4/ADC_SAR_Seq_1.c **** #include "ADC_SAR_Seq_1.h"
  19:.\Generated_Source\PSoC4/ADC_SAR_Seq_1.c **** 
  20:.\Generated_Source\PSoC4/ADC_SAR_Seq_1.c **** 
  21:.\Generated_Source\PSoC4/ADC_SAR_Seq_1.c **** /***************************************
  22:.\Generated_Source\PSoC4/ADC_SAR_Seq_1.c **** * Global data allocation
  23:.\Generated_Source\PSoC4/ADC_SAR_Seq_1.c **** ***************************************/
  24:.\Generated_Source\PSoC4/ADC_SAR_Seq_1.c **** uint8 ADC_SAR_Seq_1_initVar = 0u;
  25:.\Generated_Source\PSoC4/ADC_SAR_Seq_1.c **** volatile int16 ADC_SAR_Seq_1_offset[ADC_SAR_Seq_1_TOTAL_CHANNELS_NUM];
  26:.\Generated_Source\PSoC4/ADC_SAR_Seq_1.c **** volatile int32 ADC_SAR_Seq_1_countsPer10Volt[ADC_SAR_Seq_1_TOTAL_CHANNELS_NUM];   /* Gain compensat
  27:.\Generated_Source\PSoC4/ADC_SAR_Seq_1.c **** 
  28:.\Generated_Source\PSoC4/ADC_SAR_Seq_1.c **** 
  29:.\Generated_Source\PSoC4/ADC_SAR_Seq_1.c **** /***************************************
  30:.\Generated_Source\PSoC4/ADC_SAR_Seq_1.c **** * Local data allocation
  31:.\Generated_Source\PSoC4/ADC_SAR_Seq_1.c **** ***************************************/
  32:.\Generated_Source\PSoC4/ADC_SAR_Seq_1.c **** /* Channels configuration generated by customiser */
ARM GAS  C:\Users\mitchell\AppData\Local\Temp\ccw789jO.s 			page 2


  33:.\Generated_Source\PSoC4/ADC_SAR_Seq_1.c **** static const uint32 CYCODE ADC_SAR_Seq_1_channelsConfig[] = { 0x00000100u };
  34:.\Generated_Source\PSoC4/ADC_SAR_Seq_1.c **** 
  35:.\Generated_Source\PSoC4/ADC_SAR_Seq_1.c **** 
  36:.\Generated_Source\PSoC4/ADC_SAR_Seq_1.c **** /*******************************************************************************
  37:.\Generated_Source\PSoC4/ADC_SAR_Seq_1.c **** * Function Name: ADC_SAR_Seq_1_Start
  38:.\Generated_Source\PSoC4/ADC_SAR_Seq_1.c **** ********************************************************************************
  39:.\Generated_Source\PSoC4/ADC_SAR_Seq_1.c **** *
  40:.\Generated_Source\PSoC4/ADC_SAR_Seq_1.c **** * Summary:
  41:.\Generated_Source\PSoC4/ADC_SAR_Seq_1.c **** *  Performs all required initialization for this component
  42:.\Generated_Source\PSoC4/ADC_SAR_Seq_1.c **** *  and enables the power. The power will be set to the appropriate
  43:.\Generated_Source\PSoC4/ADC_SAR_Seq_1.c **** *  power based on the clock frequency.
  44:.\Generated_Source\PSoC4/ADC_SAR_Seq_1.c **** *
  45:.\Generated_Source\PSoC4/ADC_SAR_Seq_1.c **** * Parameters:
  46:.\Generated_Source\PSoC4/ADC_SAR_Seq_1.c **** *  None.
  47:.\Generated_Source\PSoC4/ADC_SAR_Seq_1.c **** *
  48:.\Generated_Source\PSoC4/ADC_SAR_Seq_1.c **** * Return:
  49:.\Generated_Source\PSoC4/ADC_SAR_Seq_1.c **** *  None.
  50:.\Generated_Source\PSoC4/ADC_SAR_Seq_1.c **** *
  51:.\Generated_Source\PSoC4/ADC_SAR_Seq_1.c **** * Global variables:
  52:.\Generated_Source\PSoC4/ADC_SAR_Seq_1.c **** *  The ADC_SAR_Seq_1_initVar variable is used to indicate when/if initial
  53:.\Generated_Source\PSoC4/ADC_SAR_Seq_1.c **** *  configuration of this component has happened. The variable is initialized to
  54:.\Generated_Source\PSoC4/ADC_SAR_Seq_1.c **** *  zero and set to 1 the first time ADC_Start() is called. This allows for
  55:.\Generated_Source\PSoC4/ADC_SAR_Seq_1.c **** *  component Re-Start without re-initialization in all subsequent calls to the
  56:.\Generated_Source\PSoC4/ADC_SAR_Seq_1.c **** *  ADC_SAR_Seq_1_Start() routine.
  57:.\Generated_Source\PSoC4/ADC_SAR_Seq_1.c **** *  If re-initialization of the component is required the variable should be set
  58:.\Generated_Source\PSoC4/ADC_SAR_Seq_1.c **** *  to zero before call of ADC_SAR_Seq_1_Start() routine, or the user may call
  59:.\Generated_Source\PSoC4/ADC_SAR_Seq_1.c **** *  ADC_SAR_Seq_1_Init() and ADC_SAR_Seq_1_Enable() as done in the
  60:.\Generated_Source\PSoC4/ADC_SAR_Seq_1.c **** *  ADC_SAR_Seq_1_Start() routine.
  61:.\Generated_Source\PSoC4/ADC_SAR_Seq_1.c **** *
  62:.\Generated_Source\PSoC4/ADC_SAR_Seq_1.c **** *******************************************************************************/
  63:.\Generated_Source\PSoC4/ADC_SAR_Seq_1.c **** void ADC_SAR_Seq_1_Start(void)
  64:.\Generated_Source\PSoC4/ADC_SAR_Seq_1.c **** {
  65:.\Generated_Source\PSoC4/ADC_SAR_Seq_1.c ****     /* If not Initialized then initialize all required hardware and software */
  66:.\Generated_Source\PSoC4/ADC_SAR_Seq_1.c ****     if(ADC_SAR_Seq_1_initVar == 0u)
  67:.\Generated_Source\PSoC4/ADC_SAR_Seq_1.c ****     {
  68:.\Generated_Source\PSoC4/ADC_SAR_Seq_1.c ****         ADC_SAR_Seq_1_Init();
  69:.\Generated_Source\PSoC4/ADC_SAR_Seq_1.c ****         ADC_SAR_Seq_1_initVar = 1u;
  70:.\Generated_Source\PSoC4/ADC_SAR_Seq_1.c ****     }
  71:.\Generated_Source\PSoC4/ADC_SAR_Seq_1.c ****     ADC_SAR_Seq_1_Enable();
  72:.\Generated_Source\PSoC4/ADC_SAR_Seq_1.c **** }
  73:.\Generated_Source\PSoC4/ADC_SAR_Seq_1.c **** 
  74:.\Generated_Source\PSoC4/ADC_SAR_Seq_1.c **** 
  75:.\Generated_Source\PSoC4/ADC_SAR_Seq_1.c **** /*******************************************************************************
  76:.\Generated_Source\PSoC4/ADC_SAR_Seq_1.c **** * Function Name: ADC_SAR_Seq_1_Init
  77:.\Generated_Source\PSoC4/ADC_SAR_Seq_1.c **** ********************************************************************************
  78:.\Generated_Source\PSoC4/ADC_SAR_Seq_1.c **** *
  79:.\Generated_Source\PSoC4/ADC_SAR_Seq_1.c **** * Summary:
  80:.\Generated_Source\PSoC4/ADC_SAR_Seq_1.c **** *  Initialize component's parameters to the parameters set by user in the
  81:.\Generated_Source\PSoC4/ADC_SAR_Seq_1.c **** *  customizer of the component placed onto schematic. Usually called in
  82:.\Generated_Source\PSoC4/ADC_SAR_Seq_1.c **** *  ADC_SAR_Seq_1_Start().
  83:.\Generated_Source\PSoC4/ADC_SAR_Seq_1.c **** *
  84:.\Generated_Source\PSoC4/ADC_SAR_Seq_1.c **** * Parameters:
  85:.\Generated_Source\PSoC4/ADC_SAR_Seq_1.c **** *  None.
  86:.\Generated_Source\PSoC4/ADC_SAR_Seq_1.c **** *
  87:.\Generated_Source\PSoC4/ADC_SAR_Seq_1.c **** * Return:
  88:.\Generated_Source\PSoC4/ADC_SAR_Seq_1.c **** *  None.
  89:.\Generated_Source\PSoC4/ADC_SAR_Seq_1.c **** *
ARM GAS  C:\Users\mitchell\AppData\Local\Temp\ccw789jO.s 			page 3


  90:.\Generated_Source\PSoC4/ADC_SAR_Seq_1.c **** * Global variables:
  91:.\Generated_Source\PSoC4/ADC_SAR_Seq_1.c **** *  The ADC_SAR_Seq_1_offset variable is initialized.
  92:.\Generated_Source\PSoC4/ADC_SAR_Seq_1.c **** *
  93:.\Generated_Source\PSoC4/ADC_SAR_Seq_1.c **** *******************************************************************************/
  94:.\Generated_Source\PSoC4/ADC_SAR_Seq_1.c **** void ADC_SAR_Seq_1_Init(void)
  95:.\Generated_Source\PSoC4/ADC_SAR_Seq_1.c **** {
  26              		.loc 1 95 0
  27              		.cfi_startproc
  28 0000 70B5     		push	{r4, r5, r6, lr}
  29              		.cfi_def_cfa_offset 16
  30              		.cfi_offset 4, -16
  31              		.cfi_offset 5, -12
  32              		.cfi_offset 6, -8
  33              		.cfi_offset 14, -4
  96:.\Generated_Source\PSoC4/ADC_SAR_Seq_1.c ****     uint32 chNum;
  97:.\Generated_Source\PSoC4/ADC_SAR_Seq_1.c ****     uint32 tmpRegVal;
  98:.\Generated_Source\PSoC4/ADC_SAR_Seq_1.c ****     int32 counts;
  99:.\Generated_Source\PSoC4/ADC_SAR_Seq_1.c **** 
 100:.\Generated_Source\PSoC4/ADC_SAR_Seq_1.c ****     #if(ADC_SAR_Seq_1_TOTAL_CHANNELS_NUM > 1u)
 101:.\Generated_Source\PSoC4/ADC_SAR_Seq_1.c ****         static const uint8 CYCODE ADC_SAR_Seq_1_InputsPlacement[] =
 102:.\Generated_Source\PSoC4/ADC_SAR_Seq_1.c ****         {
 103:.\Generated_Source\PSoC4/ADC_SAR_Seq_1.c ****             (uint8)(ADC_SAR_Seq_1_cy_psoc4_sarmux_8__CH_0_PORT << 4u) |
 104:.\Generated_Source\PSoC4/ADC_SAR_Seq_1.c ****             (uint8)ADC_SAR_Seq_1_cy_psoc4_sarmux_8__CH_0_PIN
 105:.\Generated_Source\PSoC4/ADC_SAR_Seq_1.c ****             ,(uint8)(ADC_SAR_Seq_1_cy_psoc4_sarmux_8__CH_1_PORT << 4u) |
 106:.\Generated_Source\PSoC4/ADC_SAR_Seq_1.c ****              (uint8)ADC_SAR_Seq_1_cy_psoc4_sarmux_8__CH_1_PIN
 107:.\Generated_Source\PSoC4/ADC_SAR_Seq_1.c ****             #if(ADC_SAR_Seq_1_TOTAL_CHANNELS_NUM > 2u)
 108:.\Generated_Source\PSoC4/ADC_SAR_Seq_1.c ****                 ,(uint8)(ADC_SAR_Seq_1_cy_psoc4_sarmux_8__CH_2_PORT << 4u) |
 109:.\Generated_Source\PSoC4/ADC_SAR_Seq_1.c ****                  (uint8)ADC_SAR_Seq_1_cy_psoc4_sarmux_8__CH_2_PIN
 110:.\Generated_Source\PSoC4/ADC_SAR_Seq_1.c ****             #endif /* End ADC_SAR_Seq_1_TOTAL_CHANNELS_NUM > 2u */
 111:.\Generated_Source\PSoC4/ADC_SAR_Seq_1.c ****             #if(ADC_SAR_Seq_1_TOTAL_CHANNELS_NUM > 3u)
 112:.\Generated_Source\PSoC4/ADC_SAR_Seq_1.c ****                 ,(uint8)(ADC_SAR_Seq_1_cy_psoc4_sarmux_8__CH_3_PORT << 4u) |
 113:.\Generated_Source\PSoC4/ADC_SAR_Seq_1.c ****                  (uint8)ADC_SAR_Seq_1_cy_psoc4_sarmux_8__CH_3_PIN
 114:.\Generated_Source\PSoC4/ADC_SAR_Seq_1.c ****             #endif /* End ADC_SAR_Seq_1_TOTAL_CHANNELS_NUM > 3u */
 115:.\Generated_Source\PSoC4/ADC_SAR_Seq_1.c ****             #if(ADC_SAR_Seq_1_TOTAL_CHANNELS_NUM > 4u)
 116:.\Generated_Source\PSoC4/ADC_SAR_Seq_1.c ****                 ,(uint8)(ADC_SAR_Seq_1_cy_psoc4_sarmux_8__CH_4_PORT << 4u) |
 117:.\Generated_Source\PSoC4/ADC_SAR_Seq_1.c ****                  (uint8)ADC_SAR_Seq_1_cy_psoc4_sarmux_8__CH_4_PIN
 118:.\Generated_Source\PSoC4/ADC_SAR_Seq_1.c ****             #endif /* End ADC_SAR_Seq_1_TOTAL_CHANNELS_NUM > 4u */
 119:.\Generated_Source\PSoC4/ADC_SAR_Seq_1.c ****             #if(ADC_SAR_Seq_1_TOTAL_CHANNELS_NUM > 5u)
 120:.\Generated_Source\PSoC4/ADC_SAR_Seq_1.c ****                 ,(uint8)(ADC_SAR_Seq_1_cy_psoc4_sarmux_8__CH_5_PORT << 4u) |
 121:.\Generated_Source\PSoC4/ADC_SAR_Seq_1.c ****                  (uint8)ADC_SAR_Seq_1_cy_psoc4_sarmux_8__CH_5_PIN
 122:.\Generated_Source\PSoC4/ADC_SAR_Seq_1.c ****             #endif /* End ADC_SAR_Seq_1_TOTAL_CHANNELS_NUM > 5u */
 123:.\Generated_Source\PSoC4/ADC_SAR_Seq_1.c ****             #if(ADC_SAR_Seq_1_TOTAL_CHANNELS_NUM > 6u)
 124:.\Generated_Source\PSoC4/ADC_SAR_Seq_1.c ****                 ,(uint8)(ADC_SAR_Seq_1_cy_psoc4_sarmux_8__CH_6_PORT << 4u) |
 125:.\Generated_Source\PSoC4/ADC_SAR_Seq_1.c ****                  (uint8)ADC_SAR_Seq_1_cy_psoc4_sarmux_8__CH_6_PIN
 126:.\Generated_Source\PSoC4/ADC_SAR_Seq_1.c ****             #endif /* End ADC_SAR_Seq_1_TOTAL_CHANNELS_NUM > 6u */
 127:.\Generated_Source\PSoC4/ADC_SAR_Seq_1.c ****             #if(ADC_SAR_Seq_1_TOTAL_CHANNELS_NUM > 7u)
 128:.\Generated_Source\PSoC4/ADC_SAR_Seq_1.c ****                 ,(uint8)(ADC_SAR_Seq_1_cy_psoc4_sarmux_8__CH_7_PORT << 4u) |
 129:.\Generated_Source\PSoC4/ADC_SAR_Seq_1.c ****                  (uint8)ADC_SAR_Seq_1_cy_psoc4_sarmux_8__CH_7_PIN
 130:.\Generated_Source\PSoC4/ADC_SAR_Seq_1.c ****             #endif /* End ADC_SAR_Seq_1_TOTAL_CHANNELS_NUM > 7u */
 131:.\Generated_Source\PSoC4/ADC_SAR_Seq_1.c ****             #if(ADC_SAR_Seq_1_TOTAL_CHANNELS_NUM > 8u)
 132:.\Generated_Source\PSoC4/ADC_SAR_Seq_1.c ****                 ,(uint8)(ADC_SAR_Seq_1_cy_psoc4_sarmux_8__CH_8_PORT << 4u) |
 133:.\Generated_Source\PSoC4/ADC_SAR_Seq_1.c ****                  (uint8)ADC_SAR_Seq_1_cy_psoc4_sarmux_8__CH_8_PIN
 134:.\Generated_Source\PSoC4/ADC_SAR_Seq_1.c ****             #endif /* End ADC_SAR_Seq_1_TOTAL_CHANNELS_NUM > 8u */
 135:.\Generated_Source\PSoC4/ADC_SAR_Seq_1.c ****             #if(ADC_SAR_Seq_1_TOTAL_CHANNELS_NUM > 9u)
 136:.\Generated_Source\PSoC4/ADC_SAR_Seq_1.c ****                 ,(uint8)(ADC_SAR_Seq_1_cy_psoc4_sarmux_8__CH_9_PORT << 4u) |
 137:.\Generated_Source\PSoC4/ADC_SAR_Seq_1.c ****                  (uint8)ADC_SAR_Seq_1_cy_psoc4_sarmux_8__CH_9_PIN
 138:.\Generated_Source\PSoC4/ADC_SAR_Seq_1.c ****             #endif /* End ADC_SAR_Seq_1_TOTAL_CHANNELS_NUM > 9u */
ARM GAS  C:\Users\mitchell\AppData\Local\Temp\ccw789jO.s 			page 4


 139:.\Generated_Source\PSoC4/ADC_SAR_Seq_1.c ****             #if(ADC_SAR_Seq_1_TOTAL_CHANNELS_NUM > 10u)
 140:.\Generated_Source\PSoC4/ADC_SAR_Seq_1.c ****                 ,(uint8)(ADC_SAR_Seq_1_cy_psoc4_sarmux_8__CH_10_PORT << 4u) |
 141:.\Generated_Source\PSoC4/ADC_SAR_Seq_1.c ****                  (uint8)ADC_SAR_Seq_1_cy_psoc4_sarmux_8__CH_10_PIN
 142:.\Generated_Source\PSoC4/ADC_SAR_Seq_1.c ****             #endif /* End ADC_SAR_Seq_1_TOTAL_CHANNELS_NUM > 10u */
 143:.\Generated_Source\PSoC4/ADC_SAR_Seq_1.c ****             #if(ADC_SAR_Seq_1_TOTAL_CHANNELS_NUM > 11u)
 144:.\Generated_Source\PSoC4/ADC_SAR_Seq_1.c ****                 ,(uint8)(ADC_SAR_Seq_1_cy_psoc4_sarmux_8__CH_11_PORT << 4u) |
 145:.\Generated_Source\PSoC4/ADC_SAR_Seq_1.c ****                  (uint8)ADC_SAR_Seq_1_cy_psoc4_sarmux_8__CH_11_PIN
 146:.\Generated_Source\PSoC4/ADC_SAR_Seq_1.c ****             #endif /* End ADC_SAR_Seq_1_TOTAL_CHANNELS_NUM > 11u */
 147:.\Generated_Source\PSoC4/ADC_SAR_Seq_1.c ****             #if(ADC_SAR_Seq_1_TOTAL_CHANNELS_NUM > 12u)
 148:.\Generated_Source\PSoC4/ADC_SAR_Seq_1.c ****                 ,(uint8)(ADC_SAR_Seq_1_cy_psoc4_sarmux_8__CH_12_PORT << 4u) |
 149:.\Generated_Source\PSoC4/ADC_SAR_Seq_1.c ****                  (uint8)ADC_SAR_Seq_1_cy_psoc4_sarmux_8__CH_12_PIN
 150:.\Generated_Source\PSoC4/ADC_SAR_Seq_1.c ****             #endif /* End ADC_SAR_Seq_1_TOTAL_CHANNELS_NUM > 12u */
 151:.\Generated_Source\PSoC4/ADC_SAR_Seq_1.c ****             #if(ADC_SAR_Seq_1_TOTAL_CHANNELS_NUM > 13u)
 152:.\Generated_Source\PSoC4/ADC_SAR_Seq_1.c ****                 ,(uint8)(ADC_SAR_Seq_1_cy_psoc4_sarmux_8__CH_13_PORT << 4u) |
 153:.\Generated_Source\PSoC4/ADC_SAR_Seq_1.c ****                  (uint8)ADC_SAR_Seq_1_cy_psoc4_sarmux_8__CH_13_PIN
 154:.\Generated_Source\PSoC4/ADC_SAR_Seq_1.c ****             #endif /* End ADC_SAR_Seq_1_TOTAL_CHANNELS_NUM > 13u */
 155:.\Generated_Source\PSoC4/ADC_SAR_Seq_1.c ****             #if(ADC_SAR_Seq_1_TOTAL_CHANNELS_NUM > 14u)
 156:.\Generated_Source\PSoC4/ADC_SAR_Seq_1.c ****                 ,(uint8)(ADC_SAR_Seq_1_cy_psoc4_sarmux_8__CH_14_PORT << 4u) |
 157:.\Generated_Source\PSoC4/ADC_SAR_Seq_1.c ****                  (uint8)ADC_SAR_Seq_1_cy_psoc4_sarmux_8__CH_14_PIN
 158:.\Generated_Source\PSoC4/ADC_SAR_Seq_1.c ****             #endif /* End ADC_SAR_Seq_1_TOTAL_CHANNELS_NUM > 14u */
 159:.\Generated_Source\PSoC4/ADC_SAR_Seq_1.c ****             #if(ADC_SAR_Seq_1_TOTAL_CHANNELS_NUM > 15u)
 160:.\Generated_Source\PSoC4/ADC_SAR_Seq_1.c ****                 ,(uint8)(ADC_SAR_Seq_1_cy_psoc4_sarmux_8__CH_15_PORT << 4u) |
 161:.\Generated_Source\PSoC4/ADC_SAR_Seq_1.c ****                  (uint8)ADC_SAR_Seq_1_cy_psoc4_sarmux_8__CH_15_PIN
 162:.\Generated_Source\PSoC4/ADC_SAR_Seq_1.c ****             #endif /* End ADC_SAR_Seq_1_TOTAL_CHANNELS_NUM > 15u */
 163:.\Generated_Source\PSoC4/ADC_SAR_Seq_1.c ****             #if(ADC_SAR_Seq_1_TOTAL_CHANNELS_NUM > 16u)
 164:.\Generated_Source\PSoC4/ADC_SAR_Seq_1.c ****                 ,(uint8)(ADC_SAR_Seq_1_cy_psoc4_sarmux_8__CH_16_PORT << 4u) |
 165:.\Generated_Source\PSoC4/ADC_SAR_Seq_1.c ****                  (uint8)ADC_SAR_Seq_1_cy_psoc4_sarmux_8__CH_16_PIN
 166:.\Generated_Source\PSoC4/ADC_SAR_Seq_1.c ****             #endif /* End ADC_SAR_Seq_1_TOTAL_CHANNELS_NUM > 16u */
 167:.\Generated_Source\PSoC4/ADC_SAR_Seq_1.c ****         };
 168:.\Generated_Source\PSoC4/ADC_SAR_Seq_1.c ****     #endif /* End ADC_SAR_Seq_1_TOTAL_CHANNELS_NUM > 1u */
 169:.\Generated_Source\PSoC4/ADC_SAR_Seq_1.c **** 
 170:.\Generated_Source\PSoC4/ADC_SAR_Seq_1.c ****     #if(ADC_SAR_Seq_1_IRQ_REMOVE == 0u)
 171:.\Generated_Source\PSoC4/ADC_SAR_Seq_1.c ****         /* Start and set interrupt vector */
 172:.\Generated_Source\PSoC4/ADC_SAR_Seq_1.c ****         CyIntSetPriority(ADC_SAR_Seq_1_INTC_NUMBER, ADC_SAR_Seq_1_INTC_PRIOR_NUMBER);
  34              		.loc 1 172 0
  35 0002 0E20     		mov	r0, #14
  36 0004 0321     		mov	r1, #3
  37 0006 FFF7FEFF 		bl	CyIntSetPriority
  38              	.LVL0:
 173:.\Generated_Source\PSoC4/ADC_SAR_Seq_1.c ****         (void)CyIntSetVector(ADC_SAR_Seq_1_INTC_NUMBER, &ADC_SAR_Seq_1_ISR);
  39              		.loc 1 173 0
  40 000a 0E20     		mov	r0, #14
  41 000c 2149     		ldr	r1, .L6
  42 000e FFF7FEFF 		bl	CyIntSetVector
  43              	.LVL1:
 174:.\Generated_Source\PSoC4/ADC_SAR_Seq_1.c ****     #endif   /* End ADC_SAR_Seq_1_IRQ_REMOVE */
 175:.\Generated_Source\PSoC4/ADC_SAR_Seq_1.c **** 
 176:.\Generated_Source\PSoC4/ADC_SAR_Seq_1.c ****     /* Init SAR and MUX registers */
 177:.\Generated_Source\PSoC4/ADC_SAR_Seq_1.c ****     ADC_SAR_Seq_1_SAR_CHAN_EN_REG = ADC_SAR_Seq_1_DEFAULT_EN_CHANNELS;
  44              		.loc 1 177 0
  45 0012 0122     		mov	r2, #1
  46 0014 204B     		ldr	r3, .L6+4
  47 0016 1A60     		str	r2, [r3]
 178:.\Generated_Source\PSoC4/ADC_SAR_Seq_1.c ****     ADC_SAR_Seq_1_SAR_CTRL_REG |= ADC_SAR_Seq_1_DEFAULT_CTRL_REG_CFG | 
  48              		.loc 1 178 0
  49 0018 204B     		ldr	r3, .L6+8
  50 001a 1A68     		ldr	r2, [r3]
ARM GAS  C:\Users\mitchell\AppData\Local\Temp\ccw789jO.s 			page 5


 179:.\Generated_Source\PSoC4/ADC_SAR_Seq_1.c ****         /* Enable the SAR internal pump when global pump is enabled */
 180:.\Generated_Source\PSoC4/ADC_SAR_Seq_1.c ****         (((ADC_SAR_Seq_1_PUMP_CTRL_REG & ADC_SAR_Seq_1_PUMP_CTRL_ENABLED) != 0u) ? 
  51              		.loc 1 180 0
  52 001c 204B     		ldr	r3, .L6+12
  53 001e 1B68     		ldr	r3, [r3]
 178:.\Generated_Source\PSoC4/ADC_SAR_Seq_1.c ****     ADC_SAR_Seq_1_SAR_CTRL_REG |= ADC_SAR_Seq_1_DEFAULT_CTRL_REG_CFG | 
  54              		.loc 1 178 0
  55 0020 002B     		cmp	r3, #0
  56 0022 01DA     		bge	.L5
  57 0024 1F4B     		ldr	r3, .L6+16
  58 0026 00E0     		b	.L2
  59              	.L5:
  60 0028 1F4B     		ldr	r3, .L6+20
  61              	.L2:
 178:.\Generated_Source\PSoC4/ADC_SAR_Seq_1.c ****     ADC_SAR_Seq_1_SAR_CTRL_REG |= ADC_SAR_Seq_1_DEFAULT_CTRL_REG_CFG | 
  62              		.loc 1 178 0 is_stmt 0 discriminator 3
  63 002a 1A43     		orr	r2, r3
  64 002c 1B4B     		ldr	r3, .L6+8
  65 002e 1A60     		str	r2, [r3]
 181:.\Generated_Source\PSoC4/ADC_SAR_Seq_1.c ****         ADC_SAR_Seq_1_BOOSTPUMP_EN : 0u);
 182:.\Generated_Source\PSoC4/ADC_SAR_Seq_1.c ****     ADC_SAR_Seq_1_SAR_SAMPLE_CTRL_REG = ADC_SAR_Seq_1_DEFAULT_SAMPLE_CTRL_REG_CFG;
  66              		.loc 1 182 0 is_stmt 1 discriminator 3
  67 0030 1E4A     		ldr	r2, .L6+24
  68 0032 1F4B     		ldr	r3, .L6+28
  69 0034 1A60     		str	r2, [r3]
 183:.\Generated_Source\PSoC4/ADC_SAR_Seq_1.c ****     ADC_SAR_Seq_1_SAR_RANGE_THRES_REG = ADC_SAR_Seq_1_DEFAULT_RANGE_THRES_REG_CFG;
  70              		.loc 1 183 0 discriminator 3
  71 0036 1F4A     		ldr	r2, .L6+32
  72 0038 1F4B     		ldr	r3, .L6+36
  73 003a 1A60     		str	r2, [r3]
 184:.\Generated_Source\PSoC4/ADC_SAR_Seq_1.c ****     ADC_SAR_Seq_1_SAR_RANGE_COND_REG  = ADC_SAR_Seq_1_COMPARE_MODE;
  74              		.loc 1 184 0 discriminator 3
  75 003c 0023     		mov	r3, #0
  76 003e 1F4A     		ldr	r2, .L6+40
  77 0040 1360     		str	r3, [r2]
 185:.\Generated_Source\PSoC4/ADC_SAR_Seq_1.c ****     ADC_SAR_Seq_1_SAR_SAMPLE_TIME01_REG = ADC_SAR_Seq_1_DEFAULT_SAMPLE_TIME01_REG_CFG;
  78              		.loc 1 185 0 discriminator 3
  79 0042 1F4A     		ldr	r2, .L6+44
  80 0044 1F49     		ldr	r1, .L6+48
  81 0046 0A60     		str	r2, [r1]
 186:.\Generated_Source\PSoC4/ADC_SAR_Seq_1.c ****     ADC_SAR_Seq_1_SAR_SAMPLE_TIME23_REG = ADC_SAR_Seq_1_DEFAULT_SAMPLE_TIME23_REG_CFG;
  82              		.loc 1 186 0 discriminator 3
  83 0048 1F49     		ldr	r1, .L6+52
  84 004a 0A60     		str	r2, [r1]
 187:.\Generated_Source\PSoC4/ADC_SAR_Seq_1.c ****     
 188:.\Generated_Source\PSoC4/ADC_SAR_Seq_1.c ****     /* Connect Vm to VSSA when even one channel is single-ended or multiple channels configured */
 189:.\Generated_Source\PSoC4/ADC_SAR_Seq_1.c ****     #if(ADC_SAR_Seq_1_DEFAULT_MUX_SWITCH0 != 0u)
 190:.\Generated_Source\PSoC4/ADC_SAR_Seq_1.c ****         ADC_SAR_Seq_1_MUX_SWITCH0_REG |= ADC_SAR_Seq_1_DEFAULT_MUX_SWITCH0;
 191:.\Generated_Source\PSoC4/ADC_SAR_Seq_1.c ****         /* Set MUX_HW_CTRL_VSSA in MUX_SWITCH_HW_CTRL when multiple channels enabled */
 192:.\Generated_Source\PSoC4/ADC_SAR_Seq_1.c ****         #if(ADC_SAR_Seq_1_TOTAL_CHANNELS_NUM > 1u)
 193:.\Generated_Source\PSoC4/ADC_SAR_Seq_1.c ****             ADC_SAR_Seq_1_MUX_SWITCH_HW_CTRL_REG |= ADC_SAR_Seq_1_DEFAULT_MUX_SWITCH0;
 194:.\Generated_Source\PSoC4/ADC_SAR_Seq_1.c ****         #endif /* ADC_SAR_Seq_1_TOTAL_CHANNELS_NUM > 1u */
 195:.\Generated_Source\PSoC4/ADC_SAR_Seq_1.c ****     #endif /*ADC_SAR_Seq_1_CHANNELS_MODE !=0 */
 196:.\Generated_Source\PSoC4/ADC_SAR_Seq_1.c **** 
 197:.\Generated_Source\PSoC4/ADC_SAR_Seq_1.c ****     ADC_SAR_Seq_1_SAR_SATURATE_INTR_MASK_REG = 0u;
  85              		.loc 1 197 0 discriminator 3
  86 004c 1F4A     		ldr	r2, .L6+56
ARM GAS  C:\Users\mitchell\AppData\Local\Temp\ccw789jO.s 			page 6


  87 004e 1360     		str	r3, [r2]
 198:.\Generated_Source\PSoC4/ADC_SAR_Seq_1.c ****     ADC_SAR_Seq_1_SAR_RANGE_INTR_MASK_REG = 0u;
  88              		.loc 1 198 0 discriminator 3
  89 0050 1F4A     		ldr	r2, .L6+60
  90 0052 1360     		str	r3, [r2]
 199:.\Generated_Source\PSoC4/ADC_SAR_Seq_1.c ****     ADC_SAR_Seq_1_SAR_INTR_MASK_REG = ADC_SAR_Seq_1_SAR_INTR_MASK;
  91              		.loc 1 199 0 discriminator 3
  92 0054 0122     		mov	r2, #1
  93 0056 1F4B     		ldr	r3, .L6+64
  94 0058 1A60     		str	r2, [r3]
 200:.\Generated_Source\PSoC4/ADC_SAR_Seq_1.c **** 
 201:.\Generated_Source\PSoC4/ADC_SAR_Seq_1.c ****     #if(ADC_SAR_Seq_1_CY_SAR_IP_VER == ADC_SAR_Seq_1_CY_SAR_IP_VER0)
 202:.\Generated_Source\PSoC4/ADC_SAR_Seq_1.c ****         ADC_SAR_Seq_1_ANA_TRIM_REG = ADC_SAR_Seq_1_TRIM_COEF;
  95              		.loc 1 202 0 discriminator 3
  96 005a 0221     		mov	r1, #2
  97 005c 1E4B     		ldr	r3, .L6+68
  98 005e 1960     		str	r1, [r3]
 203:.\Generated_Source\PSoC4/ADC_SAR_Seq_1.c ****     #endif /* (ADC_SAR_Seq_1_CY_SAR_IP_VER == ADC_SAR_Seq_1_CY_SAR_IP_VER0) */
 204:.\Generated_Source\PSoC4/ADC_SAR_Seq_1.c **** 
 205:.\Generated_Source\PSoC4/ADC_SAR_Seq_1.c ****     /* Read and modify default configuration based on characterization */
 206:.\Generated_Source\PSoC4/ADC_SAR_Seq_1.c ****     tmpRegVal = ADC_SAR_Seq_1_SAR_DFT_CTRL_REG;
  99              		.loc 1 206 0 discriminator 3
 100 0060 1E4B     		ldr	r3, .L6+72
 101 0062 1868     		ldr	r0, [r3]
 102              	.LVL2:
 207:.\Generated_Source\PSoC4/ADC_SAR_Seq_1.c ****     tmpRegVal &= (uint32)~ADC_SAR_Seq_1_DCEN;
 103              		.loc 1 207 0 discriminator 3
 104 0064 1E49     		ldr	r1, .L6+76
 105 0066 0140     		and	r1, r0
 106              	.LVL3:
 208:.\Generated_Source\PSoC4/ADC_SAR_Seq_1.c ****     
 209:.\Generated_Source\PSoC4/ADC_SAR_Seq_1.c ****     #if(ADC_SAR_Seq_1_CY_SAR_IP_VER == ADC_SAR_Seq_1_CY_SAR_IP_VER0)
 210:.\Generated_Source\PSoC4/ADC_SAR_Seq_1.c ****         #if(ADC_SAR_Seq_1_NOMINAL_CLOCK_FREQ > (ADC_SAR_Seq_1_MAX_FREQUENCY / 2))
 211:.\Generated_Source\PSoC4/ADC_SAR_Seq_1.c ****             tmpRegVal |= ADC_SAR_Seq_1_SEL_CSEL_DFT_CHAR;
 212:.\Generated_Source\PSoC4/ADC_SAR_Seq_1.c ****         #else  /* clock speed < 9 Mhz */
 213:.\Generated_Source\PSoC4/ADC_SAR_Seq_1.c ****             tmpRegVal |= ADC_SAR_Seq_1_DLY_INC;
 107              		.loc 1 213 0 discriminator 3
 108 0068 0A43     		orr	r2, r1
 109              	.LVL4:
 214:.\Generated_Source\PSoC4/ADC_SAR_Seq_1.c ****         #endif /* clock speed > 9 Mhz */
 215:.\Generated_Source\PSoC4/ADC_SAR_Seq_1.c ****     #else
 216:.\Generated_Source\PSoC4/ADC_SAR_Seq_1.c ****         #if ((ADC_SAR_Seq_1_DEFAULT_VREF_SEL == ADC_SAR_Seq_1__INTERNAL1024) || \
 217:.\Generated_Source\PSoC4/ADC_SAR_Seq_1.c ****              (ADC_SAR_Seq_1_DEFAULT_VREF_SEL == ADC_SAR_Seq_1__INTERNALVREF))
 218:.\Generated_Source\PSoC4/ADC_SAR_Seq_1.c ****             tmpRegVal |= ADC_SAR_Seq_1_DLY_INC;
 219:.\Generated_Source\PSoC4/ADC_SAR_Seq_1.c ****         #else
 220:.\Generated_Source\PSoC4/ADC_SAR_Seq_1.c ****             tmpRegVal |= ADC_SAR_Seq_1_DCEN;
 221:.\Generated_Source\PSoC4/ADC_SAR_Seq_1.c ****             tmpRegVal &= (uint32)~ADC_SAR_Seq_1_DLY_INC;
 222:.\Generated_Source\PSoC4/ADC_SAR_Seq_1.c ****         #endif /* ((ADC_SAR_Seq_1_DEFAULT_VREF_SEL == ADC_SAR_Seq_1__INTERNAL1024) || \
 223:.\Generated_Source\PSoC4/ADC_SAR_Seq_1.c ****                    (ADC_SAR_Seq_1_DEFAULT_VREF_SEL == ADC_SAR_Seq_1__INTERNALVREF)) */
 224:.\Generated_Source\PSoC4/ADC_SAR_Seq_1.c ****     #endif /* (ADC_SAR_Seq_1_CY_SAR_IP_VER == ADC_SAR_Seq_1_CY_SAR_IP_VER0) */
 225:.\Generated_Source\PSoC4/ADC_SAR_Seq_1.c ****     
 226:.\Generated_Source\PSoC4/ADC_SAR_Seq_1.c ****     ADC_SAR_Seq_1_SAR_DFT_CTRL_REG = tmpRegVal;
 110              		.loc 1 226 0 discriminator 3
 111 006a 1A60     		str	r2, [r3]
 112              	.LVL5:
 227:.\Generated_Source\PSoC4/ADC_SAR_Seq_1.c **** 
 228:.\Generated_Source\PSoC4/ADC_SAR_Seq_1.c ****     #if(ADC_SAR_Seq_1_MAX_RESOLUTION != ADC_SAR_Seq_1_RESOLUTION_12)
ARM GAS  C:\Users\mitchell\AppData\Local\Temp\ccw789jO.s 			page 7


 229:.\Generated_Source\PSoC4/ADC_SAR_Seq_1.c ****         ADC_SAR_Seq_1_WOUNDING_REG = ADC_SAR_Seq_1_ALT_WOUNDING;
 230:.\Generated_Source\PSoC4/ADC_SAR_Seq_1.c ****     #endif /* ADC_SAR_Seq_1_MAX_RESOLUTION != ADC_SAR_Seq_1_RESOLUTION_12 */
 231:.\Generated_Source\PSoC4/ADC_SAR_Seq_1.c **** 
 232:.\Generated_Source\PSoC4/ADC_SAR_Seq_1.c ****     for(chNum = 0u; chNum < ADC_SAR_Seq_1_TOTAL_CHANNELS_NUM; chNum++)
 113              		.loc 1 232 0 discriminator 3
 114 006c 0023     		mov	r3, #0
 233:.\Generated_Source\PSoC4/ADC_SAR_Seq_1.c ****     {
 234:.\Generated_Source\PSoC4/ADC_SAR_Seq_1.c ****         tmpRegVal = (ADC_SAR_Seq_1_channelsConfig[chNum] & ADC_SAR_Seq_1_CHANNEL_CONFIG_MASK);
 235:.\Generated_Source\PSoC4/ADC_SAR_Seq_1.c ****         #if(ADC_SAR_Seq_1_TOTAL_CHANNELS_NUM > 1u)
 236:.\Generated_Source\PSoC4/ADC_SAR_Seq_1.c ****             tmpRegVal |= ADC_SAR_Seq_1_InputsPlacement[chNum];
 237:.\Generated_Source\PSoC4/ADC_SAR_Seq_1.c ****         #endif /* End ADC_SAR_Seq_1_TOTAL_CHANNELS_NUM > 1u */
 238:.\Generated_Source\PSoC4/ADC_SAR_Seq_1.c ****         
 239:.\Generated_Source\PSoC4/ADC_SAR_Seq_1.c ****         
 240:.\Generated_Source\PSoC4/ADC_SAR_Seq_1.c ****         /* When the part is limited to 10-bit then the SUB_RESOLUTION bit
 241:.\Generated_Source\PSoC4/ADC_SAR_Seq_1.c ****         *  will be ignored and the RESOLUTION bit selects between 10-bit
 242:.\Generated_Source\PSoC4/ADC_SAR_Seq_1.c ****         *  (0) and 8-bit (1) resolution.
 243:.\Generated_Source\PSoC4/ADC_SAR_Seq_1.c ****         */
 244:.\Generated_Source\PSoC4/ADC_SAR_Seq_1.c ****         #if((ADC_SAR_Seq_1_MAX_RESOLUTION != ADC_SAR_Seq_1_RESOLUTION_12) && \
 245:.\Generated_Source\PSoC4/ADC_SAR_Seq_1.c ****             (ADC_SAR_Seq_1_ALT_WOUNDING == ADC_SAR_Seq_1_WOUNDING_10BIT))
 246:.\Generated_Source\PSoC4/ADC_SAR_Seq_1.c ****             tmpRegVal &= (uint32)(~ADC_SAR_Seq_1_ALT_RESOLUTION_ON);
 247:.\Generated_Source\PSoC4/ADC_SAR_Seq_1.c ****         #endif /* ADC_SAR_Seq_1_MAX_RESOLUTION != ADC_SAR_Seq_1_RESOLUTION_12 */
 248:.\Generated_Source\PSoC4/ADC_SAR_Seq_1.c **** 
 249:.\Generated_Source\PSoC4/ADC_SAR_Seq_1.c ****         #if(ADC_SAR_Seq_1_INJ_CHANNEL_ENABLED)
 250:.\Generated_Source\PSoC4/ADC_SAR_Seq_1.c ****         if(chNum < ADC_SAR_Seq_1_SEQUENCED_CHANNELS_NUM)
 251:.\Generated_Source\PSoC4/ADC_SAR_Seq_1.c ****         #endif /* ADC_SAR_Seq_1_INJ_CHANNEL_ENABLED */
 252:.\Generated_Source\PSoC4/ADC_SAR_Seq_1.c ****         {
 253:.\Generated_Source\PSoC4/ADC_SAR_Seq_1.c ****             CY_SET_REG32((reg32 *)(ADC_SAR_Seq_1_SAR_CHAN_CONFIG_IND + (uint32)(chNum << 2)), tmpRe
 115              		.loc 1 253 0 discriminator 3
 116 006e 8024     		mov	r4, #128
 117 0070 6400     		lsl	r4, r4, #1
 254:.\Generated_Source\PSoC4/ADC_SAR_Seq_1.c **** 
 255:.\Generated_Source\PSoC4/ADC_SAR_Seq_1.c ****             if((ADC_SAR_Seq_1_channelsConfig[chNum] & ADC_SAR_Seq_1_IS_SATURATE_EN_MASK) != 0u)
 256:.\Generated_Source\PSoC4/ADC_SAR_Seq_1.c ****             {
 257:.\Generated_Source\PSoC4/ADC_SAR_Seq_1.c ****                 ADC_SAR_Seq_1_SAR_SATURATE_INTR_MASK_REG |= (uint16)((uint16)1 << chNum);
 258:.\Generated_Source\PSoC4/ADC_SAR_Seq_1.c ****             }
 259:.\Generated_Source\PSoC4/ADC_SAR_Seq_1.c **** 
 260:.\Generated_Source\PSoC4/ADC_SAR_Seq_1.c ****             if((ADC_SAR_Seq_1_channelsConfig[chNum] & ADC_SAR_Seq_1_IS_RANGE_CTRL_EN_MASK) != 0u)
 261:.\Generated_Source\PSoC4/ADC_SAR_Seq_1.c ****             {
 262:.\Generated_Source\PSoC4/ADC_SAR_Seq_1.c ****                 ADC_SAR_Seq_1_SAR_RANGE_INTR_MASK_REG |= (uint16)((uint16)1 << chNum);
 263:.\Generated_Source\PSoC4/ADC_SAR_Seq_1.c ****             }
 264:.\Generated_Source\PSoC4/ADC_SAR_Seq_1.c ****         }
 265:.\Generated_Source\PSoC4/ADC_SAR_Seq_1.c ****         #if(ADC_SAR_Seq_1_INJ_CHANNEL_ENABLED)
 266:.\Generated_Source\PSoC4/ADC_SAR_Seq_1.c ****             else
 267:.\Generated_Source\PSoC4/ADC_SAR_Seq_1.c ****             {
 268:.\Generated_Source\PSoC4/ADC_SAR_Seq_1.c ****                 CY_SET_REG32(ADC_SAR_Seq_1_SAR_INJ_CHAN_CONFIG_PTR, tmpRegVal | ADC_SAR_Seq_1_INJ_T
 269:.\Generated_Source\PSoC4/ADC_SAR_Seq_1.c **** 
 270:.\Generated_Source\PSoC4/ADC_SAR_Seq_1.c ****                 if((ADC_SAR_Seq_1_channelsConfig[chNum] & ADC_SAR_Seq_1_IS_SATURATE_EN_MASK) != 0u)
 271:.\Generated_Source\PSoC4/ADC_SAR_Seq_1.c ****                 {
 272:.\Generated_Source\PSoC4/ADC_SAR_Seq_1.c ****                     ADC_SAR_Seq_1_SAR_INTR_MASK_REG |= ADC_SAR_Seq_1_INJ_SATURATE_MASK;
 273:.\Generated_Source\PSoC4/ADC_SAR_Seq_1.c ****                 }
 274:.\Generated_Source\PSoC4/ADC_SAR_Seq_1.c **** 
 275:.\Generated_Source\PSoC4/ADC_SAR_Seq_1.c ****                 if((ADC_SAR_Seq_1_channelsConfig[chNum] & ADC_SAR_Seq_1_IS_RANGE_CTRL_EN_MASK) != 0
 276:.\Generated_Source\PSoC4/ADC_SAR_Seq_1.c ****                 {
 277:.\Generated_Source\PSoC4/ADC_SAR_Seq_1.c ****                     ADC_SAR_Seq_1_SAR_INTR_MASK_REG |= ADC_SAR_Seq_1_INJ_RANGE_MASK;
 278:.\Generated_Source\PSoC4/ADC_SAR_Seq_1.c ****                 }
 279:.\Generated_Source\PSoC4/ADC_SAR_Seq_1.c ****             }
 280:.\Generated_Source\PSoC4/ADC_SAR_Seq_1.c ****         #endif /* ADC_SAR_Seq_1_INJ_CHANNEL_ENABLED */
ARM GAS  C:\Users\mitchell\AppData\Local\Temp\ccw789jO.s 			page 8


 281:.\Generated_Source\PSoC4/ADC_SAR_Seq_1.c **** 
 282:.\Generated_Source\PSoC4/ADC_SAR_Seq_1.c ****         if((ADC_SAR_Seq_1_channelsConfig[chNum] & ADC_SAR_Seq_1_ALT_RESOLUTION_ON) != 0u)
 283:.\Generated_Source\PSoC4/ADC_SAR_Seq_1.c ****         {
 284:.\Generated_Source\PSoC4/ADC_SAR_Seq_1.c ****                counts = (int32)ADC_SAR_Seq_1_DEFAULT_MAX_WRK_ALT;
 285:.\Generated_Source\PSoC4/ADC_SAR_Seq_1.c ****         }
 286:.\Generated_Source\PSoC4/ADC_SAR_Seq_1.c ****         else
 287:.\Generated_Source\PSoC4/ADC_SAR_Seq_1.c ****         {
 288:.\Generated_Source\PSoC4/ADC_SAR_Seq_1.c ****                counts = (int32)ADC_SAR_Seq_1_SAR_WRK_MAX_12BIT;
 289:.\Generated_Source\PSoC4/ADC_SAR_Seq_1.c ****         }
 290:.\Generated_Source\PSoC4/ADC_SAR_Seq_1.c **** 
 291:.\Generated_Source\PSoC4/ADC_SAR_Seq_1.c ****         if((ADC_SAR_Seq_1_channelsConfig[chNum] & ADC_SAR_Seq_1_DIFFERENTIAL_EN) == 0u)
 292:.\Generated_Source\PSoC4/ADC_SAR_Seq_1.c ****         {
 293:.\Generated_Source\PSoC4/ADC_SAR_Seq_1.c ****             #if((ADC_SAR_Seq_1_DEFAULT_SE_RESULT_FORMAT_SEL == ADC_SAR_Seq_1__FSIGNED) && \
 294:.\Generated_Source\PSoC4/ADC_SAR_Seq_1.c ****                 (ADC_SAR_Seq_1_DEFAULT_NEG_INPUT_SEL == ADC_SAR_Seq_1__VREF))
 295:.\Generated_Source\PSoC4/ADC_SAR_Seq_1.c ****                 /* Set offset to the minus half scale to convert results to unsigned format */
 296:.\Generated_Source\PSoC4/ADC_SAR_Seq_1.c ****                 ADC_SAR_Seq_1_offset[chNum] = (int16)(counts / -2);
 297:.\Generated_Source\PSoC4/ADC_SAR_Seq_1.c ****             #else
 298:.\Generated_Source\PSoC4/ADC_SAR_Seq_1.c ****                 ADC_SAR_Seq_1_offset[chNum] = 0;
 299:.\Generated_Source\PSoC4/ADC_SAR_Seq_1.c ****             #endif /* end DEFAULT_SE_RESULT_FORMAT_SEL == ADC_SAR_Seq_1__FSIGNED */
 300:.\Generated_Source\PSoC4/ADC_SAR_Seq_1.c ****         }
 301:.\Generated_Source\PSoC4/ADC_SAR_Seq_1.c ****         else    /* Differential channel */
 302:.\Generated_Source\PSoC4/ADC_SAR_Seq_1.c ****         {
 303:.\Generated_Source\PSoC4/ADC_SAR_Seq_1.c ****             #if(ADC_SAR_Seq_1_DEFAULT_DIFF_RESULT_FORMAT_SEL == ADC_SAR_Seq_1__FUNSIGNED)
 304:.\Generated_Source\PSoC4/ADC_SAR_Seq_1.c ****                 /* Set offset to the half scale to convert results to signed format */
 305:.\Generated_Source\PSoC4/ADC_SAR_Seq_1.c ****                 ADC_SAR_Seq_1_offset[chNum] = (int16)(counts / 2);
 306:.\Generated_Source\PSoC4/ADC_SAR_Seq_1.c ****             #else
 307:.\Generated_Source\PSoC4/ADC_SAR_Seq_1.c ****                 ADC_SAR_Seq_1_offset[chNum] = 0;
 118              		.loc 1 307 0 discriminator 3
 119 0072 0020     		mov	r0, #0
 308:.\Generated_Source\PSoC4/ADC_SAR_Seq_1.c ****             #endif /* end ADC_SAR_Seq_1_DEFAULT_DIFF_RESULT_FORMAT_SEL == ADC_SAR_Seq_1__FUNSIGNED 
 309:.\Generated_Source\PSoC4/ADC_SAR_Seq_1.c ****         }
 310:.\Generated_Source\PSoC4/ADC_SAR_Seq_1.c ****         /* Calculate gain in counts per 10 volts with rounding */
 311:.\Generated_Source\PSoC4/ADC_SAR_Seq_1.c ****         ADC_SAR_Seq_1_countsPer10Volt[chNum] = (int16)(((counts * ADC_SAR_Seq_1_10MV_COUNTS) +
 120              		.loc 1 311 0 discriminator 3
 121 0074 1B49     		ldr	r1, .L6+80
 232:.\Generated_Source\PSoC4/ADC_SAR_Seq_1.c ****     for(chNum = 0u; chNum < ADC_SAR_Seq_1_TOTAL_CHANNELS_NUM; chNum++)
 122              		.loc 1 232 0 discriminator 3
 123 0076 09E0     		b	.L3
 124              	.LVL6:
 125              	.L4:
 253:.\Generated_Source\PSoC4/ADC_SAR_Seq_1.c ****             CY_SET_REG32((reg32 *)(ADC_SAR_Seq_1_SAR_CHAN_CONFIG_IND + (uint32)(chNum << 2)), tmpRe
 126              		.loc 1 253 0
 127 0078 9A00     		lsl	r2, r3, #2
 128 007a 1B4E     		ldr	r6, .L6+84
 129 007c 9519     		add	r5, r2, r6
 130 007e 2C60     		str	r4, [r5]
 131              	.LVL7:
 307:.\Generated_Source\PSoC4/ADC_SAR_Seq_1.c ****                 ADC_SAR_Seq_1_offset[chNum] = 0;
 132              		.loc 1 307 0
 133 0080 5D00     		lsl	r5, r3, #1
 134 0082 1A4E     		ldr	r6, .L6+88
 135 0084 A853     		strh	r0, [r5, r6]
 136              		.loc 1 311 0
 137 0086 1A4D     		ldr	r5, .L6+92
 138 0088 5151     		str	r1, [r2, r5]
 232:.\Generated_Source\PSoC4/ADC_SAR_Seq_1.c ****     for(chNum = 0u; chNum < ADC_SAR_Seq_1_TOTAL_CHANNELS_NUM; chNum++)
 139              		.loc 1 232 0
ARM GAS  C:\Users\mitchell\AppData\Local\Temp\ccw789jO.s 			page 9


 140 008a 0133     		add	r3, r3, #1
 141              	.LVL8:
 142              	.L3:
 232:.\Generated_Source\PSoC4/ADC_SAR_Seq_1.c ****     for(chNum = 0u; chNum < ADC_SAR_Seq_1_TOTAL_CHANNELS_NUM; chNum++)
 143              		.loc 1 232 0 is_stmt 0 discriminator 1
 144 008c 002B     		cmp	r3, #0
 145 008e F3D0     		beq	.L4
 312:.\Generated_Source\PSoC4/ADC_SAR_Seq_1.c ****                             ADC_SAR_Seq_1_DEFAULT_VREF_MV_VALUE) / (ADC_SAR_Seq_1_DEFAULT_VREF_MV_V
 313:.\Generated_Source\PSoC4/ADC_SAR_Seq_1.c ****     }
 314:.\Generated_Source\PSoC4/ADC_SAR_Seq_1.c **** }
 146              		.loc 1 314 0 is_stmt 1
 147              		@ sp needed
 148 0090 70BD     		pop	{r4, r5, r6, pc}
 149              	.L7:
 150 0092 C046     		.align	2
 151              	.L6:
 152 0094 00000000 		.word	ADC_SAR_Seq_1_ISR
 153 0098 20001A40 		.word	1075445792
 154 009c 00001A40 		.word	1075445760
 155 00a0 80031A40 		.word	1075446656
 156 00a4 C0021051 		.word	1360003776
 157 00a8 C0020051 		.word	1358955200
 158 00ac 8C000080 		.word	-2147483508
 159 00b0 04001A40 		.word	1075445764
 160 00b4 0000FF07 		.word	134152192
 161 00b8 18001A40 		.word	1075445784
 162 00bc 1C001A40 		.word	1075445788
 163 00c0 04000400 		.word	262148
 164 00c4 10001A40 		.word	1075445776
 165 00c8 14001A40 		.word	1075445780
 166 00cc 28021A40 		.word	1075446312
 167 00d0 38021A40 		.word	1075446328
 168 00d4 18021A40 		.word	1075446296
 169 00d8 000F1A40 		.word	1075449600
 170 00dc 30001A40 		.word	1075445808
 171 00e0 FFFFFFDF 		.word	-536870913
 172 00e4 204E0000 		.word	20000
 173 00e8 80001A40 		.word	1075445888
 174 00ec 00000000 		.word	ADC_SAR_Seq_1_offset
 175 00f0 00000000 		.word	ADC_SAR_Seq_1_countsPer10Volt
 176              		.cfi_endproc
 177              	.LFE1:
 178              		.size	ADC_SAR_Seq_1_Init, .-ADC_SAR_Seq_1_Init
 179              		.section	.text.ADC_SAR_Seq_1_Enable,"ax",%progbits
 180              		.align	2
 181              		.global	ADC_SAR_Seq_1_Enable
 182              		.code	16
 183              		.thumb_func
 184              		.type	ADC_SAR_Seq_1_Enable, %function
 185              	ADC_SAR_Seq_1_Enable:
 186              	.LFB2:
 315:.\Generated_Source\PSoC4/ADC_SAR_Seq_1.c **** 
 316:.\Generated_Source\PSoC4/ADC_SAR_Seq_1.c **** /*******************************************************************************
 317:.\Generated_Source\PSoC4/ADC_SAR_Seq_1.c **** * Function Name: ADC_SAR_1_Enable
 318:.\Generated_Source\PSoC4/ADC_SAR_Seq_1.c **** ********************************************************************************
 319:.\Generated_Source\PSoC4/ADC_SAR_Seq_1.c **** *
 320:.\Generated_Source\PSoC4/ADC_SAR_Seq_1.c **** * Summary:
ARM GAS  C:\Users\mitchell\AppData\Local\Temp\ccw789jO.s 			page 10


 321:.\Generated_Source\PSoC4/ADC_SAR_Seq_1.c **** *  Enables the clock and analog power for SAR ADC.
 322:.\Generated_Source\PSoC4/ADC_SAR_Seq_1.c **** *
 323:.\Generated_Source\PSoC4/ADC_SAR_Seq_1.c **** * Parameters:
 324:.\Generated_Source\PSoC4/ADC_SAR_Seq_1.c **** *  None.
 325:.\Generated_Source\PSoC4/ADC_SAR_Seq_1.c **** *
 326:.\Generated_Source\PSoC4/ADC_SAR_Seq_1.c **** * Return:
 327:.\Generated_Source\PSoC4/ADC_SAR_Seq_1.c **** *  None.
 328:.\Generated_Source\PSoC4/ADC_SAR_Seq_1.c **** *
 329:.\Generated_Source\PSoC4/ADC_SAR_Seq_1.c **** *******************************************************************************/
 330:.\Generated_Source\PSoC4/ADC_SAR_Seq_1.c **** void ADC_SAR_Seq_1_Enable(void)
 331:.\Generated_Source\PSoC4/ADC_SAR_Seq_1.c **** {
 187              		.loc 1 331 0
 188              		.cfi_startproc
 189 0000 08B5     		push	{r3, lr}
 190              		.cfi_def_cfa_offset 8
 191              		.cfi_offset 3, -8
 192              		.cfi_offset 14, -4
 332:.\Generated_Source\PSoC4/ADC_SAR_Seq_1.c ****     if (0u == (ADC_SAR_Seq_1_SAR_CTRL_REG & ADC_SAR_Seq_1_ENABLE))
 193              		.loc 1 332 0
 194 0002 074B     		ldr	r3, .L10
 195 0004 1B68     		ldr	r3, [r3]
 196 0006 002B     		cmp	r3, #0
 197 0008 08DB     		blt	.L8
 333:.\Generated_Source\PSoC4/ADC_SAR_Seq_1.c ****     {
 334:.\Generated_Source\PSoC4/ADC_SAR_Seq_1.c ****         #if(ADC_SAR_Seq_1_CY_SAR_IP_VER != ADC_SAR_Seq_1_CY_SAR_IP_VER0)
 335:.\Generated_Source\PSoC4/ADC_SAR_Seq_1.c **** 
 336:.\Generated_Source\PSoC4/ADC_SAR_Seq_1.c ****             while (0u != (ADC_SAR_Seq_1_SAR_STATUS_REG & ADC_SAR_Seq_1_STATUS_BUSY))
 337:.\Generated_Source\PSoC4/ADC_SAR_Seq_1.c ****             {
 338:.\Generated_Source\PSoC4/ADC_SAR_Seq_1.c ****                 /* wait for SAR to go idle to avoid deadlock */
 339:.\Generated_Source\PSoC4/ADC_SAR_Seq_1.c ****             }
 340:.\Generated_Source\PSoC4/ADC_SAR_Seq_1.c ****         #endif /* (ADC_SAR_Seq_1_CY_SAR_IP_VER != ADC_SAR_Seq_1_CY_SAR_IP_VER0) */
 341:.\Generated_Source\PSoC4/ADC_SAR_Seq_1.c ****         
 342:.\Generated_Source\PSoC4/ADC_SAR_Seq_1.c ****         ADC_SAR_Seq_1_SAR_CTRL_REG |= ADC_SAR_Seq_1_ENABLE;
 198              		.loc 1 342 0
 199 000a 054B     		ldr	r3, .L10
 200 000c 1968     		ldr	r1, [r3]
 201 000e 8022     		mov	r2, #128
 202 0010 1206     		lsl	r2, r2, #24
 203 0012 0A43     		orr	r2, r1
 204 0014 1A60     		str	r2, [r3]
 343:.\Generated_Source\PSoC4/ADC_SAR_Seq_1.c ****         
 344:.\Generated_Source\PSoC4/ADC_SAR_Seq_1.c ****         /* The block is ready to use 10 us after the enable signal is set high. */
 345:.\Generated_Source\PSoC4/ADC_SAR_Seq_1.c ****         CyDelayUs(ADC_SAR_Seq_1_10US_DELAY);         
 205              		.loc 1 345 0
 206 0016 0A20     		mov	r0, #10
 207 0018 FFF7FEFF 		bl	CyDelayUs
 208              	.LVL9:
 209              	.L8:
 346:.\Generated_Source\PSoC4/ADC_SAR_Seq_1.c ****     }
 347:.\Generated_Source\PSoC4/ADC_SAR_Seq_1.c **** }
 210              		.loc 1 347 0
 211              		@ sp needed
 212 001c 08BD     		pop	{r3, pc}
 213              	.L11:
 214 001e C046     		.align	2
 215              	.L10:
 216 0020 00001A40 		.word	1075445760
ARM GAS  C:\Users\mitchell\AppData\Local\Temp\ccw789jO.s 			page 11


 217              		.cfi_endproc
 218              	.LFE2:
 219              		.size	ADC_SAR_Seq_1_Enable, .-ADC_SAR_Seq_1_Enable
 220              		.section	.text.ADC_SAR_Seq_1_Start,"ax",%progbits
 221              		.align	2
 222              		.global	ADC_SAR_Seq_1_Start
 223              		.code	16
 224              		.thumb_func
 225              		.type	ADC_SAR_Seq_1_Start, %function
 226              	ADC_SAR_Seq_1_Start:
 227              	.LFB0:
  64:.\Generated_Source\PSoC4/ADC_SAR_Seq_1.c **** {
 228              		.loc 1 64 0
 229              		.cfi_startproc
 230 0000 08B5     		push	{r3, lr}
 231              		.cfi_def_cfa_offset 8
 232              		.cfi_offset 3, -8
 233              		.cfi_offset 14, -4
  66:.\Generated_Source\PSoC4/ADC_SAR_Seq_1.c ****     if(ADC_SAR_Seq_1_initVar == 0u)
 234              		.loc 1 66 0
 235 0002 064B     		ldr	r3, .L14
 236 0004 1B78     		ldrb	r3, [r3]
 237 0006 002B     		cmp	r3, #0
 238 0008 04D1     		bne	.L13
  68:.\Generated_Source\PSoC4/ADC_SAR_Seq_1.c ****         ADC_SAR_Seq_1_Init();
 239              		.loc 1 68 0
 240 000a FFF7FEFF 		bl	ADC_SAR_Seq_1_Init
 241              	.LVL10:
  69:.\Generated_Source\PSoC4/ADC_SAR_Seq_1.c ****         ADC_SAR_Seq_1_initVar = 1u;
 242              		.loc 1 69 0
 243 000e 0122     		mov	r2, #1
 244 0010 024B     		ldr	r3, .L14
 245 0012 1A70     		strb	r2, [r3]
 246              	.L13:
  71:.\Generated_Source\PSoC4/ADC_SAR_Seq_1.c ****     ADC_SAR_Seq_1_Enable();
 247              		.loc 1 71 0
 248 0014 FFF7FEFF 		bl	ADC_SAR_Seq_1_Enable
 249              	.LVL11:
  72:.\Generated_Source\PSoC4/ADC_SAR_Seq_1.c **** }
 250              		.loc 1 72 0
 251              		@ sp needed
 252 0018 08BD     		pop	{r3, pc}
 253              	.L15:
 254 001a C046     		.align	2
 255              	.L14:
 256 001c 00000000 		.word	.LANCHOR0
 257              		.cfi_endproc
 258              	.LFE0:
 259              		.size	ADC_SAR_Seq_1_Start, .-ADC_SAR_Seq_1_Start
 260              		.section	.text.ADC_SAR_Seq_1_Stop,"ax",%progbits
 261              		.align	2
 262              		.global	ADC_SAR_Seq_1_Stop
 263              		.code	16
 264              		.thumb_func
 265              		.type	ADC_SAR_Seq_1_Stop, %function
 266              	ADC_SAR_Seq_1_Stop:
 267              	.LFB3:
ARM GAS  C:\Users\mitchell\AppData\Local\Temp\ccw789jO.s 			page 12


 348:.\Generated_Source\PSoC4/ADC_SAR_Seq_1.c **** 
 349:.\Generated_Source\PSoC4/ADC_SAR_Seq_1.c **** 
 350:.\Generated_Source\PSoC4/ADC_SAR_Seq_1.c **** /*******************************************************************************
 351:.\Generated_Source\PSoC4/ADC_SAR_Seq_1.c **** * Function Name: ADC_SAR_Seq_1_Stop
 352:.\Generated_Source\PSoC4/ADC_SAR_Seq_1.c **** ********************************************************************************
 353:.\Generated_Source\PSoC4/ADC_SAR_Seq_1.c **** *
 354:.\Generated_Source\PSoC4/ADC_SAR_Seq_1.c **** * Summary:
 355:.\Generated_Source\PSoC4/ADC_SAR_Seq_1.c **** *  This function stops ADC conversions and puts the ADC into its lowest power
 356:.\Generated_Source\PSoC4/ADC_SAR_Seq_1.c **** *  mode.
 357:.\Generated_Source\PSoC4/ADC_SAR_Seq_1.c **** *
 358:.\Generated_Source\PSoC4/ADC_SAR_Seq_1.c **** * Parameters:
 359:.\Generated_Source\PSoC4/ADC_SAR_Seq_1.c **** *  None.
 360:.\Generated_Source\PSoC4/ADC_SAR_Seq_1.c **** *
 361:.\Generated_Source\PSoC4/ADC_SAR_Seq_1.c **** * Return:
 362:.\Generated_Source\PSoC4/ADC_SAR_Seq_1.c **** *  None.
 363:.\Generated_Source\PSoC4/ADC_SAR_Seq_1.c **** *
 364:.\Generated_Source\PSoC4/ADC_SAR_Seq_1.c **** *******************************************************************************/
 365:.\Generated_Source\PSoC4/ADC_SAR_Seq_1.c **** void ADC_SAR_Seq_1_Stop(void)
 366:.\Generated_Source\PSoC4/ADC_SAR_Seq_1.c **** {
 268              		.loc 1 366 0
 269              		.cfi_startproc
 367:.\Generated_Source\PSoC4/ADC_SAR_Seq_1.c ****     ADC_SAR_Seq_1_SAR_CTRL_REG &= (uint32)~ADC_SAR_Seq_1_ENABLE;
 270              		.loc 1 367 0
 271 0000 024B     		ldr	r3, .L17
 272 0002 1A68     		ldr	r2, [r3]
 273 0004 5200     		lsl	r2, r2, #1
 274 0006 5208     		lsr	r2, r2, #1
 275 0008 1A60     		str	r2, [r3]
 368:.\Generated_Source\PSoC4/ADC_SAR_Seq_1.c **** }
 276              		.loc 1 368 0
 277              		@ sp needed
 278 000a 7047     		bx	lr
 279              	.L18:
 280              		.align	2
 281              	.L17:
 282 000c 00001A40 		.word	1075445760
 283              		.cfi_endproc
 284              	.LFE3:
 285              		.size	ADC_SAR_Seq_1_Stop, .-ADC_SAR_Seq_1_Stop
 286              		.section	.text.ADC_SAR_Seq_1_StartConvert,"ax",%progbits
 287              		.align	2
 288              		.global	ADC_SAR_Seq_1_StartConvert
 289              		.code	16
 290              		.thumb_func
 291              		.type	ADC_SAR_Seq_1_StartConvert, %function
 292              	ADC_SAR_Seq_1_StartConvert:
 293              	.LFB4:
 369:.\Generated_Source\PSoC4/ADC_SAR_Seq_1.c **** 
 370:.\Generated_Source\PSoC4/ADC_SAR_Seq_1.c **** 
 371:.\Generated_Source\PSoC4/ADC_SAR_Seq_1.c **** /*******************************************************************************
 372:.\Generated_Source\PSoC4/ADC_SAR_Seq_1.c **** * Function Name: ADC_SAR_Seq_1_StartConvert
 373:.\Generated_Source\PSoC4/ADC_SAR_Seq_1.c **** ********************************************************************************
 374:.\Generated_Source\PSoC4/ADC_SAR_Seq_1.c **** *
 375:.\Generated_Source\PSoC4/ADC_SAR_Seq_1.c **** * Summary:
 376:.\Generated_Source\PSoC4/ADC_SAR_Seq_1.c **** *  Description:
 377:.\Generated_Source\PSoC4/ADC_SAR_Seq_1.c **** *  For free running mode, this API starts the conversion process and it
 378:.\Generated_Source\PSoC4/ADC_SAR_Seq_1.c **** *  runs continuously.
ARM GAS  C:\Users\mitchell\AppData\Local\Temp\ccw789jO.s 			page 13


 379:.\Generated_Source\PSoC4/ADC_SAR_Seq_1.c **** *
 380:.\Generated_Source\PSoC4/ADC_SAR_Seq_1.c **** *  In a triggered mode, this routine triggers every conversion by
 381:.\Generated_Source\PSoC4/ADC_SAR_Seq_1.c **** *  writing into the FW_TRIGGER bit in SAR_START_CTRL reg. In triggered mode,
 382:.\Generated_Source\PSoC4/ADC_SAR_Seq_1.c **** *  every conversion has to start by this API.
 383:.\Generated_Source\PSoC4/ADC_SAR_Seq_1.c **** *
 384:.\Generated_Source\PSoC4/ADC_SAR_Seq_1.c **** * Parameters:
 385:.\Generated_Source\PSoC4/ADC_SAR_Seq_1.c **** *  None.
 386:.\Generated_Source\PSoC4/ADC_SAR_Seq_1.c **** *
 387:.\Generated_Source\PSoC4/ADC_SAR_Seq_1.c **** * Return:
 388:.\Generated_Source\PSoC4/ADC_SAR_Seq_1.c **** *  None.
 389:.\Generated_Source\PSoC4/ADC_SAR_Seq_1.c **** *
 390:.\Generated_Source\PSoC4/ADC_SAR_Seq_1.c **** *******************************************************************************/
 391:.\Generated_Source\PSoC4/ADC_SAR_Seq_1.c **** void ADC_SAR_Seq_1_StartConvert(void)
 392:.\Generated_Source\PSoC4/ADC_SAR_Seq_1.c **** {
 294              		.loc 1 392 0
 295              		.cfi_startproc
 393:.\Generated_Source\PSoC4/ADC_SAR_Seq_1.c ****     #if(ADC_SAR_Seq_1_DEFAULT_SAMPLE_MODE_SEL == ADC_SAR_Seq_1__FREERUNNING)
 394:.\Generated_Source\PSoC4/ADC_SAR_Seq_1.c ****         ADC_SAR_Seq_1_SAR_SAMPLE_CTRL_REG |= ADC_SAR_Seq_1_CONTINUOUS_EN;
 296              		.loc 1 394 0
 297 0000 034B     		ldr	r3, .L20
 298 0002 1968     		ldr	r1, [r3]
 299 0004 8022     		mov	r2, #128
 300 0006 5202     		lsl	r2, r2, #9
 301 0008 0A43     		orr	r2, r1
 302 000a 1A60     		str	r2, [r3]
 395:.\Generated_Source\PSoC4/ADC_SAR_Seq_1.c ****     #else /* Firmware trigger */
 396:.\Generated_Source\PSoC4/ADC_SAR_Seq_1.c ****         ADC_SAR_Seq_1_SAR_START_CTRL_REG = ADC_SAR_Seq_1_FW_TRIGGER;
 397:.\Generated_Source\PSoC4/ADC_SAR_Seq_1.c ****     #endif /* End ADC_SAR_Seq_1_DEFAULT_SAMPLE_MODE == ADC_SAR_Seq_1__FREERUNNING */
 398:.\Generated_Source\PSoC4/ADC_SAR_Seq_1.c **** 
 399:.\Generated_Source\PSoC4/ADC_SAR_Seq_1.c **** }
 303              		.loc 1 399 0
 304              		@ sp needed
 305 000c 7047     		bx	lr
 306              	.L21:
 307 000e C046     		.align	2
 308              	.L20:
 309 0010 04001A40 		.word	1075445764
 310              		.cfi_endproc
 311              	.LFE4:
 312              		.size	ADC_SAR_Seq_1_StartConvert, .-ADC_SAR_Seq_1_StartConvert
 313              		.section	.text.ADC_SAR_Seq_1_StopConvert,"ax",%progbits
 314              		.align	2
 315              		.global	ADC_SAR_Seq_1_StopConvert
 316              		.code	16
 317              		.thumb_func
 318              		.type	ADC_SAR_Seq_1_StopConvert, %function
 319              	ADC_SAR_Seq_1_StopConvert:
 320              	.LFB5:
 400:.\Generated_Source\PSoC4/ADC_SAR_Seq_1.c **** 
 401:.\Generated_Source\PSoC4/ADC_SAR_Seq_1.c **** 
 402:.\Generated_Source\PSoC4/ADC_SAR_Seq_1.c **** /*******************************************************************************
 403:.\Generated_Source\PSoC4/ADC_SAR_Seq_1.c **** * Function Name: ADC_SAR_Seq_1_StopConvert
 404:.\Generated_Source\PSoC4/ADC_SAR_Seq_1.c **** ********************************************************************************
 405:.\Generated_Source\PSoC4/ADC_SAR_Seq_1.c **** *
 406:.\Generated_Source\PSoC4/ADC_SAR_Seq_1.c **** * Summary:
 407:.\Generated_Source\PSoC4/ADC_SAR_Seq_1.c **** *  Forces the ADC to stop all conversions.
 408:.\Generated_Source\PSoC4/ADC_SAR_Seq_1.c **** *
ARM GAS  C:\Users\mitchell\AppData\Local\Temp\ccw789jO.s 			page 14


 409:.\Generated_Source\PSoC4/ADC_SAR_Seq_1.c **** * Parameters:
 410:.\Generated_Source\PSoC4/ADC_SAR_Seq_1.c **** *  None.
 411:.\Generated_Source\PSoC4/ADC_SAR_Seq_1.c **** *
 412:.\Generated_Source\PSoC4/ADC_SAR_Seq_1.c **** * Return:
 413:.\Generated_Source\PSoC4/ADC_SAR_Seq_1.c **** *  None.
 414:.\Generated_Source\PSoC4/ADC_SAR_Seq_1.c **** *
 415:.\Generated_Source\PSoC4/ADC_SAR_Seq_1.c **** *******************************************************************************/
 416:.\Generated_Source\PSoC4/ADC_SAR_Seq_1.c **** void ADC_SAR_Seq_1_StopConvert(void)
 417:.\Generated_Source\PSoC4/ADC_SAR_Seq_1.c **** {
 321              		.loc 1 417 0
 322              		.cfi_startproc
 418:.\Generated_Source\PSoC4/ADC_SAR_Seq_1.c ****     #if(ADC_SAR_Seq_1_DEFAULT_SAMPLE_MODE_SEL == ADC_SAR_Seq_1__FREERUNNING)
 419:.\Generated_Source\PSoC4/ADC_SAR_Seq_1.c ****         ADC_SAR_Seq_1_SAR_SAMPLE_CTRL_REG &= (uint32)(~ADC_SAR_Seq_1_CONTINUOUS_EN);
 323              		.loc 1 419 0
 324 0000 024B     		ldr	r3, .L23
 325 0002 1968     		ldr	r1, [r3]
 326 0004 024A     		ldr	r2, .L23+4
 327 0006 0A40     		and	r2, r1
 328 0008 1A60     		str	r2, [r3]
 420:.\Generated_Source\PSoC4/ADC_SAR_Seq_1.c ****     #endif /* ADC_SAR_Seq_1_DEFAULT_SAMPLE_MODE == ADC_SAR_Seq_1__FREERUNNING */
 421:.\Generated_Source\PSoC4/ADC_SAR_Seq_1.c **** }
 329              		.loc 1 421 0
 330              		@ sp needed
 331 000a 7047     		bx	lr
 332              	.L24:
 333              		.align	2
 334              	.L23:
 335 000c 04001A40 		.word	1075445764
 336 0010 FFFFFEFF 		.word	-65537
 337              		.cfi_endproc
 338              	.LFE5:
 339              		.size	ADC_SAR_Seq_1_StopConvert, .-ADC_SAR_Seq_1_StopConvert
 340              		.section	.text.ADC_SAR_Seq_1_IsEndConversion,"ax",%progbits
 341              		.align	2
 342              		.global	ADC_SAR_Seq_1_IsEndConversion
 343              		.code	16
 344              		.thumb_func
 345              		.type	ADC_SAR_Seq_1_IsEndConversion, %function
 346              	ADC_SAR_Seq_1_IsEndConversion:
 347              	.LFB6:
 422:.\Generated_Source\PSoC4/ADC_SAR_Seq_1.c **** 
 423:.\Generated_Source\PSoC4/ADC_SAR_Seq_1.c **** 
 424:.\Generated_Source\PSoC4/ADC_SAR_Seq_1.c **** /*******************************************************************************
 425:.\Generated_Source\PSoC4/ADC_SAR_Seq_1.c **** * Function Name: ADC_SAR_Seq_1_IsEndConversion
 426:.\Generated_Source\PSoC4/ADC_SAR_Seq_1.c **** ********************************************************************************
 427:.\Generated_Source\PSoC4/ADC_SAR_Seq_1.c **** *
 428:.\Generated_Source\PSoC4/ADC_SAR_Seq_1.c **** * Summary:
 429:.\Generated_Source\PSoC4/ADC_SAR_Seq_1.c **** *  Description: Checks for ADC end of conversion for the case one
 430:.\Generated_Source\PSoC4/ADC_SAR_Seq_1.c **** *  channel and end of scan for the case of multiple channels. It acts
 431:.\Generated_Source\PSoC4/ADC_SAR_Seq_1.c **** *  as a software version of the EOC. This function provides the
 432:.\Generated_Source\PSoC4/ADC_SAR_Seq_1.c **** *  programmer with two options. In one mode this function
 433:.\Generated_Source\PSoC4/ADC_SAR_Seq_1.c **** *  immediately returns with the conversion status. In the other mode,
 434:.\Generated_Source\PSoC4/ADC_SAR_Seq_1.c **** *  the function does not return (blocking) until the conversion has
 435:.\Generated_Source\PSoC4/ADC_SAR_Seq_1.c **** *  completed.
 436:.\Generated_Source\PSoC4/ADC_SAR_Seq_1.c **** *
 437:.\Generated_Source\PSoC4/ADC_SAR_Seq_1.c **** * Parameters:
 438:.\Generated_Source\PSoC4/ADC_SAR_Seq_1.c **** *  ADC_RETURN_STATUS        -> Immediately returns conversion result status
ARM GAS  C:\Users\mitchell\AppData\Local\Temp\ccw789jO.s 			page 15


 439:.\Generated_Source\PSoC4/ADC_SAR_Seq_1.c **** *  ADC_WAIT_FOR_RESULT      -> Does not return until ADC complete
 440:.\Generated_Source\PSoC4/ADC_SAR_Seq_1.c **** *  ADC_RETURN_STATUS_INJ    -> Immediately returns conversion result status
 441:.\Generated_Source\PSoC4/ADC_SAR_Seq_1.c **** *                              for injection channel
 442:.\Generated_Source\PSoC4/ADC_SAR_Seq_1.c **** *  ADC_WAIT_FOR_RESULT_INJ  -> Does not return until ADC completes injection
 443:.\Generated_Source\PSoC4/ADC_SAR_Seq_1.c **** *                              channel conversion
 444:.\Generated_Source\PSoC4/ADC_SAR_Seq_1.c **** *
 445:.\Generated_Source\PSoC4/ADC_SAR_Seq_1.c **** * Return:
 446:.\Generated_Source\PSoC4/ADC_SAR_Seq_1.c **** *  If a non-zero value is returned, the last conversion or scan has completed.
 447:.\Generated_Source\PSoC4/ADC_SAR_Seq_1.c **** *  If the returned value is zero, the ADC is still in the process of a scan.
 448:.\Generated_Source\PSoC4/ADC_SAR_Seq_1.c **** *
 449:.\Generated_Source\PSoC4/ADC_SAR_Seq_1.c **** *******************************************************************************/
 450:.\Generated_Source\PSoC4/ADC_SAR_Seq_1.c **** uint32 ADC_SAR_Seq_1_IsEndConversion(uint32 retMode)
 451:.\Generated_Source\PSoC4/ADC_SAR_Seq_1.c **** {
 348              		.loc 1 451 0
 349              		.cfi_startproc
 350              	.LVL12:
 452:.\Generated_Source\PSoC4/ADC_SAR_Seq_1.c ****     uint32 status = 0u;
 453:.\Generated_Source\PSoC4/ADC_SAR_Seq_1.c **** 
 454:.\Generated_Source\PSoC4/ADC_SAR_Seq_1.c ****     if((retMode & (ADC_SAR_Seq_1_RETURN_STATUS | ADC_SAR_Seq_1_WAIT_FOR_RESULT)) != 0u)
 351              		.loc 1 454 0
 352 0000 8307     		lsl	r3, r0, #30
 353 0002 0ED0     		beq	.L29
 455:.\Generated_Source\PSoC4/ADC_SAR_Seq_1.c ****     {
 456:.\Generated_Source\PSoC4/ADC_SAR_Seq_1.c ****         do
 457:.\Generated_Source\PSoC4/ADC_SAR_Seq_1.c ****         {
 458:.\Generated_Source\PSoC4/ADC_SAR_Seq_1.c ****             status = ADC_SAR_Seq_1_SAR_INTR_REG & ADC_SAR_Seq_1_EOS_MASK;
 354              		.loc 1 458 0 discriminator 1
 355 0004 084A     		ldr	r2, .L32
 356 0006 0123     		mov	r3, #1
 459:.\Generated_Source\PSoC4/ADC_SAR_Seq_1.c ****         }while((status == 0u) && ((retMode & ADC_SAR_Seq_1_WAIT_FOR_RESULT) != 0u));
 357              		.loc 1 459 0 discriminator 1
 358 0008 0221     		mov	r1, #2
 359 000a 0140     		and	r1, r0
 360              	.LVL13:
 361              	.L30:
 458:.\Generated_Source\PSoC4/ADC_SAR_Seq_1.c ****             status = ADC_SAR_Seq_1_SAR_INTR_REG & ADC_SAR_Seq_1_EOS_MASK;
 362              		.loc 1 458 0 discriminator 1
 363 000c 1068     		ldr	r0, [r2]
 364 000e 1840     		and	r0, r3
 365              	.LVL14:
 366              		.loc 1 459 0 discriminator 1
 367 0010 01D1     		bne	.L27
 368 0012 0029     		cmp	r1, #0
 369 0014 FAD1     		bne	.L30
 370              	.L27:
 460:.\Generated_Source\PSoC4/ADC_SAR_Seq_1.c **** 
 461:.\Generated_Source\PSoC4/ADC_SAR_Seq_1.c ****         if(status != 0u)
 371              		.loc 1 461 0
 372 0016 0028     		cmp	r0, #0
 373 0018 04D0     		beq	.L26
 462:.\Generated_Source\PSoC4/ADC_SAR_Seq_1.c ****         {
 463:.\Generated_Source\PSoC4/ADC_SAR_Seq_1.c ****             /* Clear EOS bit */
 464:.\Generated_Source\PSoC4/ADC_SAR_Seq_1.c ****             ADC_SAR_Seq_1_SAR_INTR_REG = ADC_SAR_Seq_1_EOS_MASK;
 374              		.loc 1 464 0
 375 001a 0122     		mov	r2, #1
 376 001c 024B     		ldr	r3, .L32
 377 001e 1A60     		str	r2, [r3]
ARM GAS  C:\Users\mitchell\AppData\Local\Temp\ccw789jO.s 			page 16


 378 0020 00E0     		b	.L26
 379              	.LVL15:
 380              	.L29:
 452:.\Generated_Source\PSoC4/ADC_SAR_Seq_1.c ****     uint32 status = 0u;
 381              		.loc 1 452 0
 382 0022 0020     		mov	r0, #0
 383              	.LVL16:
 384              	.L26:
 465:.\Generated_Source\PSoC4/ADC_SAR_Seq_1.c ****         }
 466:.\Generated_Source\PSoC4/ADC_SAR_Seq_1.c ****     }
 467:.\Generated_Source\PSoC4/ADC_SAR_Seq_1.c **** 
 468:.\Generated_Source\PSoC4/ADC_SAR_Seq_1.c ****     #if(ADC_SAR_Seq_1_INJ_CHANNEL_ENABLED)
 469:.\Generated_Source\PSoC4/ADC_SAR_Seq_1.c ****         if((retMode & (ADC_SAR_Seq_1_RETURN_STATUS_INJ | ADC_SAR_Seq_1_WAIT_FOR_RESULT_INJ)) != 0u)
 470:.\Generated_Source\PSoC4/ADC_SAR_Seq_1.c ****         {
 471:.\Generated_Source\PSoC4/ADC_SAR_Seq_1.c ****             do
 472:.\Generated_Source\PSoC4/ADC_SAR_Seq_1.c ****             {
 473:.\Generated_Source\PSoC4/ADC_SAR_Seq_1.c ****                 status |= ADC_SAR_Seq_1_SAR_INTR_REG & ADC_SAR_Seq_1_INJ_EOC_MASK;
 474:.\Generated_Source\PSoC4/ADC_SAR_Seq_1.c ****             }while(((status & ADC_SAR_Seq_1_INJ_EOC_MASK) == 0u) &&
 475:.\Generated_Source\PSoC4/ADC_SAR_Seq_1.c ****                    ((retMode & ADC_SAR_Seq_1_WAIT_FOR_RESULT_INJ) != 0u));
 476:.\Generated_Source\PSoC4/ADC_SAR_Seq_1.c **** 
 477:.\Generated_Source\PSoC4/ADC_SAR_Seq_1.c ****             if((status & ADC_SAR_Seq_1_INJ_EOC_MASK) != 0u)
 478:.\Generated_Source\PSoC4/ADC_SAR_Seq_1.c ****             {
 479:.\Generated_Source\PSoC4/ADC_SAR_Seq_1.c ****                 /* Clear Injection EOS bit */
 480:.\Generated_Source\PSoC4/ADC_SAR_Seq_1.c ****                 ADC_SAR_Seq_1_SAR_INTR_REG = ADC_SAR_Seq_1_INJ_EOC_MASK;
 481:.\Generated_Source\PSoC4/ADC_SAR_Seq_1.c ****             }
 482:.\Generated_Source\PSoC4/ADC_SAR_Seq_1.c ****         }
 483:.\Generated_Source\PSoC4/ADC_SAR_Seq_1.c ****     #endif /* ADC_SAR_Seq_1_INJ_CHANNEL_ENABLED */
 484:.\Generated_Source\PSoC4/ADC_SAR_Seq_1.c **** 
 485:.\Generated_Source\PSoC4/ADC_SAR_Seq_1.c ****     return (status);
 486:.\Generated_Source\PSoC4/ADC_SAR_Seq_1.c **** }
 385              		.loc 1 486 0
 386              		@ sp needed
 387 0024 7047     		bx	lr
 388              	.L33:
 389 0026 C046     		.align	2
 390              	.L32:
 391 0028 10021A40 		.word	1075446288
 392              		.cfi_endproc
 393              	.LFE6:
 394              		.size	ADC_SAR_Seq_1_IsEndConversion, .-ADC_SAR_Seq_1_IsEndConversion
 395              		.section	.text.ADC_SAR_Seq_1_GetResult16,"ax",%progbits
 396              		.align	2
 397              		.global	ADC_SAR_Seq_1_GetResult16
 398              		.code	16
 399              		.thumb_func
 400              		.type	ADC_SAR_Seq_1_GetResult16, %function
 401              	ADC_SAR_Seq_1_GetResult16:
 402              	.LFB7:
 487:.\Generated_Source\PSoC4/ADC_SAR_Seq_1.c **** 
 488:.\Generated_Source\PSoC4/ADC_SAR_Seq_1.c **** 
 489:.\Generated_Source\PSoC4/ADC_SAR_Seq_1.c **** /*******************************************************************************
 490:.\Generated_Source\PSoC4/ADC_SAR_Seq_1.c **** * Function Name: ADC_SAR_Seq_1_GetResult16
 491:.\Generated_Source\PSoC4/ADC_SAR_Seq_1.c **** ********************************************************************************
 492:.\Generated_Source\PSoC4/ADC_SAR_Seq_1.c **** *
 493:.\Generated_Source\PSoC4/ADC_SAR_Seq_1.c **** * Summary:
 494:.\Generated_Source\PSoC4/ADC_SAR_Seq_1.c **** *  Gets the data available in the SAR DATA register.
 495:.\Generated_Source\PSoC4/ADC_SAR_Seq_1.c **** *
ARM GAS  C:\Users\mitchell\AppData\Local\Temp\ccw789jO.s 			page 17


 496:.\Generated_Source\PSoC4/ADC_SAR_Seq_1.c **** * Parameters:
 497:.\Generated_Source\PSoC4/ADC_SAR_Seq_1.c **** *  chan: The ADC channel in which to return the result. The first channel
 498:.\Generated_Source\PSoC4/ADC_SAR_Seq_1.c **** *  is 0 and the injection channel if enabled is the number of valid channels.
 499:.\Generated_Source\PSoC4/ADC_SAR_Seq_1.c **** *
 500:.\Generated_Source\PSoC4/ADC_SAR_Seq_1.c **** * Return:
 501:.\Generated_Source\PSoC4/ADC_SAR_Seq_1.c **** *  Returns converted data as a signed 16-bit integer
 502:.\Generated_Source\PSoC4/ADC_SAR_Seq_1.c **** *
 503:.\Generated_Source\PSoC4/ADC_SAR_Seq_1.c **** *******************************************************************************/
 504:.\Generated_Source\PSoC4/ADC_SAR_Seq_1.c **** int16 ADC_SAR_Seq_1_GetResult16(uint32 chan)
 505:.\Generated_Source\PSoC4/ADC_SAR_Seq_1.c **** {
 403              		.loc 1 505 0
 404              		.cfi_startproc
 405              	.LVL17:
 406 0000 10B5     		push	{r4, lr}
 407              		.cfi_def_cfa_offset 8
 408              		.cfi_offset 4, -8
 409              		.cfi_offset 14, -4
 410 0002 041E     		sub	r4, r0, #0
 506:.\Generated_Source\PSoC4/ADC_SAR_Seq_1.c ****     uint32 result;
 507:.\Generated_Source\PSoC4/ADC_SAR_Seq_1.c **** 
 508:.\Generated_Source\PSoC4/ADC_SAR_Seq_1.c ****     /* Halt CPU in debug mode if channel is out of valid range */
 509:.\Generated_Source\PSoC4/ADC_SAR_Seq_1.c ****     CYASSERT(chan < ADC_SAR_Seq_1_TOTAL_CHANNELS_NUM);
 411              		.loc 1 509 0
 412 0004 02D0     		beq	.L35
 413              		.loc 1 509 0 is_stmt 0 discriminator 1
 414 0006 0020     		mov	r0, #0
 415              	.LVL18:
 416 0008 FFF7FEFF 		bl	CyHalt
 417              	.LVL19:
 418              	.L35:
 510:.\Generated_Source\PSoC4/ADC_SAR_Seq_1.c **** 
 511:.\Generated_Source\PSoC4/ADC_SAR_Seq_1.c ****     if(chan < ADC_SAR_Seq_1_SEQUENCED_CHANNELS_NUM)
 419              		.loc 1 511 0 is_stmt 1
 420 000c 002C     		cmp	r4, #0
 421 000e 06D1     		bne	.L37
 512:.\Generated_Source\PSoC4/ADC_SAR_Seq_1.c ****     {
 513:.\Generated_Source\PSoC4/ADC_SAR_Seq_1.c ****         result = CY_GET_REG32((reg32 *)(ADC_SAR_Seq_1_SAR_CHAN_RESULT_IND + (uint32)(chan << 2u))) 
 422              		.loc 1 513 0
 423 0010 A400     		lsl	r4, r4, #2
 424              	.LVL20:
 425 0012 044B     		ldr	r3, .L38
 426 0014 E418     		add	r4, r4, r3
 427 0016 2068     		ldr	r0, [r4]
 428 0018 0004     		lsl	r0, r0, #16
 429 001a 000C     		lsr	r0, r0, #16
 430              	.LVL21:
 431 001c 00E0     		b	.L36
 432              	.LVL22:
 433              	.L37:
 514:.\Generated_Source\PSoC4/ADC_SAR_Seq_1.c ****                 ADC_SAR_Seq_1_RESULT_MASK;
 515:.\Generated_Source\PSoC4/ADC_SAR_Seq_1.c ****     }
 516:.\Generated_Source\PSoC4/ADC_SAR_Seq_1.c ****     else
 517:.\Generated_Source\PSoC4/ADC_SAR_Seq_1.c ****     {
 518:.\Generated_Source\PSoC4/ADC_SAR_Seq_1.c ****         #if(ADC_SAR_Seq_1_INJ_CHANNEL_ENABLED)
 519:.\Generated_Source\PSoC4/ADC_SAR_Seq_1.c ****             result = ADC_SAR_Seq_1_SAR_INJ_RESULT_REG & ADC_SAR_Seq_1_RESULT_MASK;
 520:.\Generated_Source\PSoC4/ADC_SAR_Seq_1.c ****         #else
 521:.\Generated_Source\PSoC4/ADC_SAR_Seq_1.c ****             result = 0u;
ARM GAS  C:\Users\mitchell\AppData\Local\Temp\ccw789jO.s 			page 18


 434              		.loc 1 521 0
 435 001e 0020     		mov	r0, #0
 436              	.LVL23:
 437              	.L36:
 522:.\Generated_Source\PSoC4/ADC_SAR_Seq_1.c ****         #endif /* ADC_SAR_Seq_1_INJ_CHANNEL_ENABLED */
 523:.\Generated_Source\PSoC4/ADC_SAR_Seq_1.c ****     }
 524:.\Generated_Source\PSoC4/ADC_SAR_Seq_1.c **** 
 525:.\Generated_Source\PSoC4/ADC_SAR_Seq_1.c ****     return ( (int16)result );
 438              		.loc 1 525 0
 439 0020 00B2     		sxth	r0, r0
 440              	.LVL24:
 526:.\Generated_Source\PSoC4/ADC_SAR_Seq_1.c **** }
 441              		.loc 1 526 0
 442              		@ sp needed
 443 0022 10BD     		pop	{r4, pc}
 444              	.L39:
 445              		.align	2
 446              	.L38:
 447 0024 80011A40 		.word	1075446144
 448              		.cfi_endproc
 449              	.LFE7:
 450              		.size	ADC_SAR_Seq_1_GetResult16, .-ADC_SAR_Seq_1_GetResult16
 451              		.section	.text.ADC_SAR_Seq_1_SetChanMask,"ax",%progbits
 452              		.align	2
 453              		.global	ADC_SAR_Seq_1_SetChanMask
 454              		.code	16
 455              		.thumb_func
 456              		.type	ADC_SAR_Seq_1_SetChanMask, %function
 457              	ADC_SAR_Seq_1_SetChanMask:
 458              	.LFB8:
 527:.\Generated_Source\PSoC4/ADC_SAR_Seq_1.c **** 
 528:.\Generated_Source\PSoC4/ADC_SAR_Seq_1.c **** 
 529:.\Generated_Source\PSoC4/ADC_SAR_Seq_1.c **** /*******************************************************************************
 530:.\Generated_Source\PSoC4/ADC_SAR_Seq_1.c **** * Function Name: ADC_SAR_Seq_1_SetChanMask
 531:.\Generated_Source\PSoC4/ADC_SAR_Seq_1.c **** ********************************************************************************
 532:.\Generated_Source\PSoC4/ADC_SAR_Seq_1.c **** *
 533:.\Generated_Source\PSoC4/ADC_SAR_Seq_1.c **** * Summary:
 534:.\Generated_Source\PSoC4/ADC_SAR_Seq_1.c **** *  Sets the channel enable mask.
 535:.\Generated_Source\PSoC4/ADC_SAR_Seq_1.c **** *
 536:.\Generated_Source\PSoC4/ADC_SAR_Seq_1.c **** * Parameters:
 537:.\Generated_Source\PSoC4/ADC_SAR_Seq_1.c **** *  mask: Sets which channels that will be
 538:.\Generated_Source\PSoC4/ADC_SAR_Seq_1.c **** *  scanned. Setting bits for channels that do not exist will have no
 539:.\Generated_Source\PSoC4/ADC_SAR_Seq_1.c **** *  effect. For example, if only 6 channels were enabled, setting a
 540:.\Generated_Source\PSoC4/ADC_SAR_Seq_1.c **** *  mask of 0x0103 would only enable the last two channels (0 and 1).
 541:.\Generated_Source\PSoC4/ADC_SAR_Seq_1.c **** *  This API will not enable the injection channel.
 542:.\Generated_Source\PSoC4/ADC_SAR_Seq_1.c **** *  Examples: If the component is setup to sequence through 8
 543:.\Generated_Source\PSoC4/ADC_SAR_Seq_1.c **** *  channels, a mask of 0x000F would enable channels 0, 1, 2, and 3.
 544:.\Generated_Source\PSoC4/ADC_SAR_Seq_1.c **** *
 545:.\Generated_Source\PSoC4/ADC_SAR_Seq_1.c **** * Return:
 546:.\Generated_Source\PSoC4/ADC_SAR_Seq_1.c **** *  None.
 547:.\Generated_Source\PSoC4/ADC_SAR_Seq_1.c **** *
 548:.\Generated_Source\PSoC4/ADC_SAR_Seq_1.c **** *******************************************************************************/
 549:.\Generated_Source\PSoC4/ADC_SAR_Seq_1.c **** void ADC_SAR_Seq_1_SetChanMask(uint32 mask)
 550:.\Generated_Source\PSoC4/ADC_SAR_Seq_1.c **** {
 459              		.loc 1 550 0
 460              		.cfi_startproc
 461              	.LVL25:
ARM GAS  C:\Users\mitchell\AppData\Local\Temp\ccw789jO.s 			page 19


 551:.\Generated_Source\PSoC4/ADC_SAR_Seq_1.c ****     ADC_SAR_Seq_1_SAR_CHAN_EN_REG = mask & ADC_SAR_Seq_1_MAX_CHANNELS_EN_MASK;
 462              		.loc 1 551 0
 463 0000 0123     		mov	r3, #1
 464 0002 1840     		and	r0, r3
 465              	.LVL26:
 466 0004 014B     		ldr	r3, .L41
 467 0006 1860     		str	r0, [r3]
 552:.\Generated_Source\PSoC4/ADC_SAR_Seq_1.c **** }
 468              		.loc 1 552 0
 469              		@ sp needed
 470 0008 7047     		bx	lr
 471              	.L42:
 472 000a C046     		.align	2
 473              	.L41:
 474 000c 20001A40 		.word	1075445792
 475              		.cfi_endproc
 476              	.LFE8:
 477              		.size	ADC_SAR_Seq_1_SetChanMask, .-ADC_SAR_Seq_1_SetChanMask
 478              		.section	.text.ADC_SAR_Seq_1_SetLowLimit,"ax",%progbits
 479              		.align	2
 480              		.global	ADC_SAR_Seq_1_SetLowLimit
 481              		.code	16
 482              		.thumb_func
 483              		.type	ADC_SAR_Seq_1_SetLowLimit, %function
 484              	ADC_SAR_Seq_1_SetLowLimit:
 485              	.LFB9:
 553:.\Generated_Source\PSoC4/ADC_SAR_Seq_1.c **** 
 554:.\Generated_Source\PSoC4/ADC_SAR_Seq_1.c **** #if(ADC_SAR_Seq_1_INJ_CHANNEL_ENABLED)
 555:.\Generated_Source\PSoC4/ADC_SAR_Seq_1.c **** 
 556:.\Generated_Source\PSoC4/ADC_SAR_Seq_1.c **** 
 557:.\Generated_Source\PSoC4/ADC_SAR_Seq_1.c ****     /*******************************************************************************
 558:.\Generated_Source\PSoC4/ADC_SAR_Seq_1.c ****     * Function Name: ADC_SAR_Seq_1_EnableInjection
 559:.\Generated_Source\PSoC4/ADC_SAR_Seq_1.c ****     ********************************************************************************
 560:.\Generated_Source\PSoC4/ADC_SAR_Seq_1.c ****     *
 561:.\Generated_Source\PSoC4/ADC_SAR_Seq_1.c ****     * Summary:
 562:.\Generated_Source\PSoC4/ADC_SAR_Seq_1.c ****     *  Enables the injection channel for the next scan only.
 563:.\Generated_Source\PSoC4/ADC_SAR_Seq_1.c ****     *
 564:.\Generated_Source\PSoC4/ADC_SAR_Seq_1.c ****     * Parameters:
 565:.\Generated_Source\PSoC4/ADC_SAR_Seq_1.c ****     *  None.
 566:.\Generated_Source\PSoC4/ADC_SAR_Seq_1.c ****     *
 567:.\Generated_Source\PSoC4/ADC_SAR_Seq_1.c ****     * Return:
 568:.\Generated_Source\PSoC4/ADC_SAR_Seq_1.c ****     *  None.
 569:.\Generated_Source\PSoC4/ADC_SAR_Seq_1.c ****     *
 570:.\Generated_Source\PSoC4/ADC_SAR_Seq_1.c ****     *******************************************************************************/
 571:.\Generated_Source\PSoC4/ADC_SAR_Seq_1.c ****     void ADC_SAR_Seq_1_EnableInjection(void)
 572:.\Generated_Source\PSoC4/ADC_SAR_Seq_1.c ****     {
 573:.\Generated_Source\PSoC4/ADC_SAR_Seq_1.c ****         ADC_SAR_Seq_1_SAR_INJ_CHAN_CONFIG_REG |= ADC_SAR_Seq_1_INJ_CHAN_EN;
 574:.\Generated_Source\PSoC4/ADC_SAR_Seq_1.c ****     }
 575:.\Generated_Source\PSoC4/ADC_SAR_Seq_1.c **** 
 576:.\Generated_Source\PSoC4/ADC_SAR_Seq_1.c **** #endif /* ADC_SAR_Seq_1_INJ_CHANNEL_ENABLED */
 577:.\Generated_Source\PSoC4/ADC_SAR_Seq_1.c **** 
 578:.\Generated_Source\PSoC4/ADC_SAR_Seq_1.c **** 
 579:.\Generated_Source\PSoC4/ADC_SAR_Seq_1.c **** /*******************************************************************************
 580:.\Generated_Source\PSoC4/ADC_SAR_Seq_1.c **** * Function Name: ADC_SAR_Seq_1_SetLowLimit
 581:.\Generated_Source\PSoC4/ADC_SAR_Seq_1.c **** ********************************************************************************
 582:.\Generated_Source\PSoC4/ADC_SAR_Seq_1.c **** *
 583:.\Generated_Source\PSoC4/ADC_SAR_Seq_1.c **** * Summary:
ARM GAS  C:\Users\mitchell\AppData\Local\Temp\ccw789jO.s 			page 20


 584:.\Generated_Source\PSoC4/ADC_SAR_Seq_1.c **** *  Sets the low limit parameter for a limit condition.
 585:.\Generated_Source\PSoC4/ADC_SAR_Seq_1.c **** *
 586:.\Generated_Source\PSoC4/ADC_SAR_Seq_1.c **** * Parameters:
 587:.\Generated_Source\PSoC4/ADC_SAR_Seq_1.c **** *  lowLimit: The low limit for a limit condition.
 588:.\Generated_Source\PSoC4/ADC_SAR_Seq_1.c **** *
 589:.\Generated_Source\PSoC4/ADC_SAR_Seq_1.c **** * Return:
 590:.\Generated_Source\PSoC4/ADC_SAR_Seq_1.c **** *  None.
 591:.\Generated_Source\PSoC4/ADC_SAR_Seq_1.c **** *
 592:.\Generated_Source\PSoC4/ADC_SAR_Seq_1.c **** *******************************************************************************/
 593:.\Generated_Source\PSoC4/ADC_SAR_Seq_1.c **** void ADC_SAR_Seq_1_SetLowLimit(uint32 lowLimit)
 594:.\Generated_Source\PSoC4/ADC_SAR_Seq_1.c **** {
 486              		.loc 1 594 0
 487              		.cfi_startproc
 488              	.LVL27:
 595:.\Generated_Source\PSoC4/ADC_SAR_Seq_1.c ****     ADC_SAR_Seq_1_SAR_RANGE_THRES_REG &= (uint32)(~ADC_SAR_Seq_1_RANGE_LOW_MASK);
 489              		.loc 1 595 0
 490 0000 054B     		ldr	r3, .L44
 491 0002 1A68     		ldr	r2, [r3]
 492 0004 120C     		lsr	r2, r2, #16
 493 0006 1204     		lsl	r2, r2, #16
 494 0008 1A60     		str	r2, [r3]
 596:.\Generated_Source\PSoC4/ADC_SAR_Seq_1.c ****     ADC_SAR_Seq_1_SAR_RANGE_THRES_REG |= lowLimit & ADC_SAR_Seq_1_RANGE_LOW_MASK;
 495              		.loc 1 596 0
 496 000a 1A68     		ldr	r2, [r3]
 497 000c 0004     		lsl	r0, r0, #16
 498              	.LVL28:
 499 000e 000C     		lsr	r0, r0, #16
 500 0010 1043     		orr	r0, r2
 501 0012 1860     		str	r0, [r3]
 597:.\Generated_Source\PSoC4/ADC_SAR_Seq_1.c **** }
 502              		.loc 1 597 0
 503              		@ sp needed
 504 0014 7047     		bx	lr
 505              	.L45:
 506 0016 C046     		.align	2
 507              	.L44:
 508 0018 18001A40 		.word	1075445784
 509              		.cfi_endproc
 510              	.LFE9:
 511              		.size	ADC_SAR_Seq_1_SetLowLimit, .-ADC_SAR_Seq_1_SetLowLimit
 512              		.section	.text.ADC_SAR_Seq_1_SetHighLimit,"ax",%progbits
 513              		.align	2
 514              		.global	ADC_SAR_Seq_1_SetHighLimit
 515              		.code	16
 516              		.thumb_func
 517              		.type	ADC_SAR_Seq_1_SetHighLimit, %function
 518              	ADC_SAR_Seq_1_SetHighLimit:
 519              	.LFB10:
 598:.\Generated_Source\PSoC4/ADC_SAR_Seq_1.c **** 
 599:.\Generated_Source\PSoC4/ADC_SAR_Seq_1.c **** 
 600:.\Generated_Source\PSoC4/ADC_SAR_Seq_1.c **** /*******************************************************************************
 601:.\Generated_Source\PSoC4/ADC_SAR_Seq_1.c **** * Function Name: ADC_SAR_Seq_1_SetHighLimit
 602:.\Generated_Source\PSoC4/ADC_SAR_Seq_1.c **** ********************************************************************************
 603:.\Generated_Source\PSoC4/ADC_SAR_Seq_1.c **** *
 604:.\Generated_Source\PSoC4/ADC_SAR_Seq_1.c **** * Summary:
 605:.\Generated_Source\PSoC4/ADC_SAR_Seq_1.c **** *  Sets the low limit parameter for a limit condition.
 606:.\Generated_Source\PSoC4/ADC_SAR_Seq_1.c **** *
ARM GAS  C:\Users\mitchell\AppData\Local\Temp\ccw789jO.s 			page 21


 607:.\Generated_Source\PSoC4/ADC_SAR_Seq_1.c **** * Parameters:
 608:.\Generated_Source\PSoC4/ADC_SAR_Seq_1.c **** *  highLimit: The high limit for a limit condition.
 609:.\Generated_Source\PSoC4/ADC_SAR_Seq_1.c **** *
 610:.\Generated_Source\PSoC4/ADC_SAR_Seq_1.c **** * Return:
 611:.\Generated_Source\PSoC4/ADC_SAR_Seq_1.c **** *  None.
 612:.\Generated_Source\PSoC4/ADC_SAR_Seq_1.c **** *
 613:.\Generated_Source\PSoC4/ADC_SAR_Seq_1.c **** *******************************************************************************/
 614:.\Generated_Source\PSoC4/ADC_SAR_Seq_1.c **** void ADC_SAR_Seq_1_SetHighLimit(uint32 highLimit)
 615:.\Generated_Source\PSoC4/ADC_SAR_Seq_1.c **** {
 520              		.loc 1 615 0
 521              		.cfi_startproc
 522              	.LVL29:
 616:.\Generated_Source\PSoC4/ADC_SAR_Seq_1.c ****     ADC_SAR_Seq_1_SAR_RANGE_THRES_REG &= (uint32)(~ADC_SAR_Seq_1_RANGE_HIGH_MASK);
 523              		.loc 1 616 0
 524 0000 044B     		ldr	r3, .L47
 525 0002 1A68     		ldr	r2, [r3]
 526 0004 1204     		lsl	r2, r2, #16
 527 0006 120C     		lsr	r2, r2, #16
 528 0008 1A60     		str	r2, [r3]
 617:.\Generated_Source\PSoC4/ADC_SAR_Seq_1.c ****     ADC_SAR_Seq_1_SAR_RANGE_THRES_REG |= (uint32)(highLimit << ADC_SAR_Seq_1_RANGE_HIGH_OFFSET);
 529              		.loc 1 617 0
 530 000a 1A68     		ldr	r2, [r3]
 531 000c 0004     		lsl	r0, r0, #16
 532              	.LVL30:
 533 000e 1043     		orr	r0, r2
 534 0010 1860     		str	r0, [r3]
 618:.\Generated_Source\PSoC4/ADC_SAR_Seq_1.c **** }
 535              		.loc 1 618 0
 536              		@ sp needed
 537 0012 7047     		bx	lr
 538              	.L48:
 539              		.align	2
 540              	.L47:
 541 0014 18001A40 		.word	1075445784
 542              		.cfi_endproc
 543              	.LFE10:
 544              		.size	ADC_SAR_Seq_1_SetHighLimit, .-ADC_SAR_Seq_1_SetHighLimit
 545              		.section	.text.ADC_SAR_Seq_1_SetLimitMask,"ax",%progbits
 546              		.align	2
 547              		.global	ADC_SAR_Seq_1_SetLimitMask
 548              		.code	16
 549              		.thumb_func
 550              		.type	ADC_SAR_Seq_1_SetLimitMask, %function
 551              	ADC_SAR_Seq_1_SetLimitMask:
 552              	.LFB11:
 619:.\Generated_Source\PSoC4/ADC_SAR_Seq_1.c **** 
 620:.\Generated_Source\PSoC4/ADC_SAR_Seq_1.c **** 
 621:.\Generated_Source\PSoC4/ADC_SAR_Seq_1.c **** /*******************************************************************************
 622:.\Generated_Source\PSoC4/ADC_SAR_Seq_1.c **** * Function Name: ADC_SAR_Seq_1_SetLimitMask
 623:.\Generated_Source\PSoC4/ADC_SAR_Seq_1.c **** ********************************************************************************
 624:.\Generated_Source\PSoC4/ADC_SAR_Seq_1.c **** *
 625:.\Generated_Source\PSoC4/ADC_SAR_Seq_1.c **** * Summary:
 626:.\Generated_Source\PSoC4/ADC_SAR_Seq_1.c **** *  Sets the channel limit condition mask.
 627:.\Generated_Source\PSoC4/ADC_SAR_Seq_1.c **** *
 628:.\Generated_Source\PSoC4/ADC_SAR_Seq_1.c **** * Parameters:
 629:.\Generated_Source\PSoC4/ADC_SAR_Seq_1.c **** *  mask: Sets which channels that may cause a
 630:.\Generated_Source\PSoC4/ADC_SAR_Seq_1.c **** *  limit condition interrupt. Setting bits for channels that do not exist
ARM GAS  C:\Users\mitchell\AppData\Local\Temp\ccw789jO.s 			page 22


 631:.\Generated_Source\PSoC4/ADC_SAR_Seq_1.c **** *  will have no effect. For example, if only 6 channels were enabled,
 632:.\Generated_Source\PSoC4/ADC_SAR_Seq_1.c **** *  setting a mask of 0x0103 would only enable the last two channels (0 and 1).
 633:.\Generated_Source\PSoC4/ADC_SAR_Seq_1.c **** *
 634:.\Generated_Source\PSoC4/ADC_SAR_Seq_1.c **** * Return:
 635:.\Generated_Source\PSoC4/ADC_SAR_Seq_1.c **** *  None.
 636:.\Generated_Source\PSoC4/ADC_SAR_Seq_1.c **** *
 637:.\Generated_Source\PSoC4/ADC_SAR_Seq_1.c **** *******************************************************************************/
 638:.\Generated_Source\PSoC4/ADC_SAR_Seq_1.c **** void ADC_SAR_Seq_1_SetLimitMask(uint32 mask)
 639:.\Generated_Source\PSoC4/ADC_SAR_Seq_1.c **** {
 553              		.loc 1 639 0
 554              		.cfi_startproc
 555              	.LVL31:
 640:.\Generated_Source\PSoC4/ADC_SAR_Seq_1.c ****     ADC_SAR_Seq_1_SAR_RANGE_INTR_MASK_REG = mask & ADC_SAR_Seq_1_MAX_CHANNELS_EN_MASK;
 556              		.loc 1 640 0
 557 0000 0123     		mov	r3, #1
 558 0002 1840     		and	r0, r3
 559              	.LVL32:
 560 0004 014B     		ldr	r3, .L50
 561 0006 1860     		str	r0, [r3]
 641:.\Generated_Source\PSoC4/ADC_SAR_Seq_1.c **** }
 562              		.loc 1 641 0
 563              		@ sp needed
 564 0008 7047     		bx	lr
 565              	.L51:
 566 000a C046     		.align	2
 567              	.L50:
 568 000c 38021A40 		.word	1075446328
 569              		.cfi_endproc
 570              	.LFE11:
 571              		.size	ADC_SAR_Seq_1_SetLimitMask, .-ADC_SAR_Seq_1_SetLimitMask
 572              		.section	.text.ADC_SAR_Seq_1_SetSatMask,"ax",%progbits
 573              		.align	2
 574              		.global	ADC_SAR_Seq_1_SetSatMask
 575              		.code	16
 576              		.thumb_func
 577              		.type	ADC_SAR_Seq_1_SetSatMask, %function
 578              	ADC_SAR_Seq_1_SetSatMask:
 579              	.LFB12:
 642:.\Generated_Source\PSoC4/ADC_SAR_Seq_1.c **** 
 643:.\Generated_Source\PSoC4/ADC_SAR_Seq_1.c **** 
 644:.\Generated_Source\PSoC4/ADC_SAR_Seq_1.c **** /*******************************************************************************
 645:.\Generated_Source\PSoC4/ADC_SAR_Seq_1.c **** * Function Name: ADC_SAR_Seq_1_SetSatMask
 646:.\Generated_Source\PSoC4/ADC_SAR_Seq_1.c **** ********************************************************************************
 647:.\Generated_Source\PSoC4/ADC_SAR_Seq_1.c **** *
 648:.\Generated_Source\PSoC4/ADC_SAR_Seq_1.c **** * Summary:
 649:.\Generated_Source\PSoC4/ADC_SAR_Seq_1.c **** *  Sets the channel saturation event mask.
 650:.\Generated_Source\PSoC4/ADC_SAR_Seq_1.c **** *
 651:.\Generated_Source\PSoC4/ADC_SAR_Seq_1.c **** * Parameters:
 652:.\Generated_Source\PSoC4/ADC_SAR_Seq_1.c **** *  mask: Sets which channels that may cause a
 653:.\Generated_Source\PSoC4/ADC_SAR_Seq_1.c **** *  saturation event interrupt. Setting bits for channels that do not exist
 654:.\Generated_Source\PSoC4/ADC_SAR_Seq_1.c **** *  will have no effect. For example, if only 8 channels were enabled,
 655:.\Generated_Source\PSoC4/ADC_SAR_Seq_1.c **** *  setting a mask of 0x01C0 would only enable two channels (6 and 7).
 656:.\Generated_Source\PSoC4/ADC_SAR_Seq_1.c **** *
 657:.\Generated_Source\PSoC4/ADC_SAR_Seq_1.c **** * Return:
 658:.\Generated_Source\PSoC4/ADC_SAR_Seq_1.c **** *  None.
 659:.\Generated_Source\PSoC4/ADC_SAR_Seq_1.c **** *
 660:.\Generated_Source\PSoC4/ADC_SAR_Seq_1.c **** *******************************************************************************/
ARM GAS  C:\Users\mitchell\AppData\Local\Temp\ccw789jO.s 			page 23


 661:.\Generated_Source\PSoC4/ADC_SAR_Seq_1.c **** void ADC_SAR_Seq_1_SetSatMask(uint32 mask)
 662:.\Generated_Source\PSoC4/ADC_SAR_Seq_1.c **** {
 580              		.loc 1 662 0
 581              		.cfi_startproc
 582              	.LVL33:
 663:.\Generated_Source\PSoC4/ADC_SAR_Seq_1.c ****     ADC_SAR_Seq_1_SAR_SATURATE_INTR_MASK_REG = mask & ADC_SAR_Seq_1_MAX_CHANNELS_EN_MASK;
 583              		.loc 1 663 0
 584 0000 0123     		mov	r3, #1
 585 0002 1840     		and	r0, r3
 586              	.LVL34:
 587 0004 014B     		ldr	r3, .L53
 588 0006 1860     		str	r0, [r3]
 664:.\Generated_Source\PSoC4/ADC_SAR_Seq_1.c **** }
 589              		.loc 1 664 0
 590              		@ sp needed
 591 0008 7047     		bx	lr
 592              	.L54:
 593 000a C046     		.align	2
 594              	.L53:
 595 000c 28021A40 		.word	1075446312
 596              		.cfi_endproc
 597              	.LFE12:
 598              		.size	ADC_SAR_Seq_1_SetSatMask, .-ADC_SAR_Seq_1_SetSatMask
 599              		.section	.text.ADC_SAR_Seq_1_SetOffset,"ax",%progbits
 600              		.align	2
 601              		.global	ADC_SAR_Seq_1_SetOffset
 602              		.code	16
 603              		.thumb_func
 604              		.type	ADC_SAR_Seq_1_SetOffset, %function
 605              	ADC_SAR_Seq_1_SetOffset:
 606              	.LFB13:
 665:.\Generated_Source\PSoC4/ADC_SAR_Seq_1.c **** 
 666:.\Generated_Source\PSoC4/ADC_SAR_Seq_1.c **** 
 667:.\Generated_Source\PSoC4/ADC_SAR_Seq_1.c **** /*******************************************************************************
 668:.\Generated_Source\PSoC4/ADC_SAR_Seq_1.c **** * Function Name: ADC_SAR_Seq_1_SetOffset
 669:.\Generated_Source\PSoC4/ADC_SAR_Seq_1.c **** ********************************************************************************
 670:.\Generated_Source\PSoC4/ADC_SAR_Seq_1.c **** *
 671:.\Generated_Source\PSoC4/ADC_SAR_Seq_1.c **** * Summary:
 672:.\Generated_Source\PSoC4/ADC_SAR_Seq_1.c **** *   Description: Sets the ADC offset which is used by the functions
 673:.\Generated_Source\PSoC4/ADC_SAR_Seq_1.c **** *   ADC_CountsTo_uVolts, ADC_CountsTo_mVolts and ADC_CountsTo_Volts
 674:.\Generated_Source\PSoC4/ADC_SAR_Seq_1.c **** *   to substract the offset from the given reading
 675:.\Generated_Source\PSoC4/ADC_SAR_Seq_1.c **** *   before calculating the voltage conversion.
 676:.\Generated_Source\PSoC4/ADC_SAR_Seq_1.c **** *
 677:.\Generated_Source\PSoC4/ADC_SAR_Seq_1.c **** * Parameters:
 678:.\Generated_Source\PSoC4/ADC_SAR_Seq_1.c **** *  chan: ADC channel number.
 679:.\Generated_Source\PSoC4/ADC_SAR_Seq_1.c **** *  offset: This value is a measured value when the
 680:.\Generated_Source\PSoC4/ADC_SAR_Seq_1.c **** *          inputs are shorted or connected to the same input voltage.
 681:.\Generated_Source\PSoC4/ADC_SAR_Seq_1.c **** *
 682:.\Generated_Source\PSoC4/ADC_SAR_Seq_1.c **** * Return:
 683:.\Generated_Source\PSoC4/ADC_SAR_Seq_1.c **** *  None.
 684:.\Generated_Source\PSoC4/ADC_SAR_Seq_1.c **** *
 685:.\Generated_Source\PSoC4/ADC_SAR_Seq_1.c **** * Global variables:
 686:.\Generated_Source\PSoC4/ADC_SAR_Seq_1.c **** *  ADC_SAR_Seq_1_Offset:  Modified to set the user provided offset.
 687:.\Generated_Source\PSoC4/ADC_SAR_Seq_1.c **** *
 688:.\Generated_Source\PSoC4/ADC_SAR_Seq_1.c **** *******************************************************************************/
 689:.\Generated_Source\PSoC4/ADC_SAR_Seq_1.c **** void ADC_SAR_Seq_1_SetOffset(uint32 chan, int16 offset)
 690:.\Generated_Source\PSoC4/ADC_SAR_Seq_1.c **** {
ARM GAS  C:\Users\mitchell\AppData\Local\Temp\ccw789jO.s 			page 24


 607              		.loc 1 690 0
 608              		.cfi_startproc
 609              	.LVL35:
 610 0000 38B5     		push	{r3, r4, r5, lr}
 611              		.cfi_def_cfa_offset 16
 612              		.cfi_offset 3, -16
 613              		.cfi_offset 4, -12
 614              		.cfi_offset 5, -8
 615              		.cfi_offset 14, -4
 616 0002 041C     		mov	r4, r0
 617 0004 0D1C     		mov	r5, r1
 691:.\Generated_Source\PSoC4/ADC_SAR_Seq_1.c ****     /* Halt CPU in debug mode if channel is out of valid range */
 692:.\Generated_Source\PSoC4/ADC_SAR_Seq_1.c ****     CYASSERT(chan < ADC_SAR_Seq_1_TOTAL_CHANNELS_NUM);
 618              		.loc 1 692 0
 619 0006 0028     		cmp	r0, #0
 620 0008 02D0     		beq	.L56
 621              		.loc 1 692 0 is_stmt 0 discriminator 1
 622 000a 0020     		mov	r0, #0
 623              	.LVL36:
 624 000c FFF7FEFF 		bl	CyHalt
 625              	.LVL37:
 626              	.L56:
 693:.\Generated_Source\PSoC4/ADC_SAR_Seq_1.c **** 
 694:.\Generated_Source\PSoC4/ADC_SAR_Seq_1.c ****     ADC_SAR_Seq_1_offset[chan] = offset;
 627              		.loc 1 694 0 is_stmt 1
 628 0010 6400     		lsl	r4, r4, #1
 629              	.LVL38:
 630 0012 014B     		ldr	r3, .L57
 631 0014 E552     		strh	r5, [r4, r3]
 695:.\Generated_Source\PSoC4/ADC_SAR_Seq_1.c **** }
 632              		.loc 1 695 0
 633              		@ sp needed
 634 0016 38BD     		pop	{r3, r4, r5, pc}
 635              	.L58:
 636              		.align	2
 637              	.L57:
 638 0018 00000000 		.word	ADC_SAR_Seq_1_offset
 639              		.cfi_endproc
 640              	.LFE13:
 641              		.size	ADC_SAR_Seq_1_SetOffset, .-ADC_SAR_Seq_1_SetOffset
 642              		.section	.text.ADC_SAR_Seq_1_SetGain,"ax",%progbits
 643              		.align	2
 644              		.global	ADC_SAR_Seq_1_SetGain
 645              		.code	16
 646              		.thumb_func
 647              		.type	ADC_SAR_Seq_1_SetGain, %function
 648              	ADC_SAR_Seq_1_SetGain:
 649              	.LFB14:
 696:.\Generated_Source\PSoC4/ADC_SAR_Seq_1.c **** 
 697:.\Generated_Source\PSoC4/ADC_SAR_Seq_1.c **** 
 698:.\Generated_Source\PSoC4/ADC_SAR_Seq_1.c **** /*******************************************************************************
 699:.\Generated_Source\PSoC4/ADC_SAR_Seq_1.c **** * Function Name: ADC_SAR_Seq_1_SetGain
 700:.\Generated_Source\PSoC4/ADC_SAR_Seq_1.c **** ********************************************************************************
 701:.\Generated_Source\PSoC4/ADC_SAR_Seq_1.c **** *
 702:.\Generated_Source\PSoC4/ADC_SAR_Seq_1.c **** * Summary:
 703:.\Generated_Source\PSoC4/ADC_SAR_Seq_1.c **** *  Description: Sets the ADC gain in counts per 10 volt for the voltage
 704:.\Generated_Source\PSoC4/ADC_SAR_Seq_1.c **** *  conversion functions below. This value is set by default by the
ARM GAS  C:\Users\mitchell\AppData\Local\Temp\ccw789jO.s 			page 25


 705:.\Generated_Source\PSoC4/ADC_SAR_Seq_1.c **** *  reference and input range settings. It should only be used to further
 706:.\Generated_Source\PSoC4/ADC_SAR_Seq_1.c **** *  calibrate the ADC with a known input or if an external reference is
 707:.\Generated_Source\PSoC4/ADC_SAR_Seq_1.c **** *  used. Affects the ADC_CountsTo_uVolts, ADC_CountsTo_mVolts
 708:.\Generated_Source\PSoC4/ADC_SAR_Seq_1.c **** *  and ADC_CountsTo_Volts functions by supplying the correct
 709:.\Generated_Source\PSoC4/ADC_SAR_Seq_1.c **** *  conversion between ADC counts and voltage.
 710:.\Generated_Source\PSoC4/ADC_SAR_Seq_1.c **** *
 711:.\Generated_Source\PSoC4/ADC_SAR_Seq_1.c **** * Parameters:
 712:.\Generated_Source\PSoC4/ADC_SAR_Seq_1.c **** *  chan: ADC channel number.
 713:.\Generated_Source\PSoC4/ADC_SAR_Seq_1.c **** *  adcGain: ADC gain in counts per 10 volts.
 714:.\Generated_Source\PSoC4/ADC_SAR_Seq_1.c **** *
 715:.\Generated_Source\PSoC4/ADC_SAR_Seq_1.c **** * Return:
 716:.\Generated_Source\PSoC4/ADC_SAR_Seq_1.c **** *  None.
 717:.\Generated_Source\PSoC4/ADC_SAR_Seq_1.c **** *
 718:.\Generated_Source\PSoC4/ADC_SAR_Seq_1.c **** * Global variables:
 719:.\Generated_Source\PSoC4/ADC_SAR_Seq_1.c **** *  ADC_SAR_Seq_1_CountsPer10Volt:  modified to set the ADC gain in counts
 720:.\Generated_Source\PSoC4/ADC_SAR_Seq_1.c **** *   per 10 volt.
 721:.\Generated_Source\PSoC4/ADC_SAR_Seq_1.c **** *
 722:.\Generated_Source\PSoC4/ADC_SAR_Seq_1.c **** *******************************************************************************/
 723:.\Generated_Source\PSoC4/ADC_SAR_Seq_1.c **** void ADC_SAR_Seq_1_SetGain(uint32 chan, int32 adcGain)
 724:.\Generated_Source\PSoC4/ADC_SAR_Seq_1.c **** {
 650              		.loc 1 724 0
 651              		.cfi_startproc
 652              	.LVL39:
 653 0000 38B5     		push	{r3, r4, r5, lr}
 654              		.cfi_def_cfa_offset 16
 655              		.cfi_offset 3, -16
 656              		.cfi_offset 4, -12
 657              		.cfi_offset 5, -8
 658              		.cfi_offset 14, -4
 659 0002 041C     		mov	r4, r0
 660 0004 0D1C     		mov	r5, r1
 725:.\Generated_Source\PSoC4/ADC_SAR_Seq_1.c ****     /* Halt CPU in debug mode if channel is out of valid range */
 726:.\Generated_Source\PSoC4/ADC_SAR_Seq_1.c ****     CYASSERT(chan < ADC_SAR_Seq_1_TOTAL_CHANNELS_NUM);
 661              		.loc 1 726 0
 662 0006 0028     		cmp	r0, #0
 663 0008 02D0     		beq	.L60
 664              		.loc 1 726 0 is_stmt 0 discriminator 1
 665 000a 0020     		mov	r0, #0
 666              	.LVL40:
 667 000c FFF7FEFF 		bl	CyHalt
 668              	.LVL41:
 669              	.L60:
 727:.\Generated_Source\PSoC4/ADC_SAR_Seq_1.c **** 
 728:.\Generated_Source\PSoC4/ADC_SAR_Seq_1.c ****     ADC_SAR_Seq_1_countsPer10Volt[chan] = adcGain;
 670              		.loc 1 728 0 is_stmt 1
 671 0010 A400     		lsl	r4, r4, #2
 672              	.LVL42:
 673 0012 014B     		ldr	r3, .L61
 674 0014 E550     		str	r5, [r4, r3]
 729:.\Generated_Source\PSoC4/ADC_SAR_Seq_1.c **** }
 675              		.loc 1 729 0
 676              		@ sp needed
 677              	.LVL43:
 678 0016 38BD     		pop	{r3, r4, r5, pc}
 679              	.L62:
 680              		.align	2
 681              	.L61:
ARM GAS  C:\Users\mitchell\AppData\Local\Temp\ccw789jO.s 			page 26


 682 0018 00000000 		.word	ADC_SAR_Seq_1_countsPer10Volt
 683              		.cfi_endproc
 684              	.LFE14:
 685              		.size	ADC_SAR_Seq_1_SetGain, .-ADC_SAR_Seq_1_SetGain
 686              		.global	__aeabi_idiv
 687              		.section	.text.ADC_SAR_Seq_1_CountsTo_mVolts,"ax",%progbits
 688              		.align	2
 689              		.global	ADC_SAR_Seq_1_CountsTo_mVolts
 690              		.code	16
 691              		.thumb_func
 692              		.type	ADC_SAR_Seq_1_CountsTo_mVolts, %function
 693              	ADC_SAR_Seq_1_CountsTo_mVolts:
 694              	.LFB15:
 730:.\Generated_Source\PSoC4/ADC_SAR_Seq_1.c **** 
 731:.\Generated_Source\PSoC4/ADC_SAR_Seq_1.c **** 
 732:.\Generated_Source\PSoC4/ADC_SAR_Seq_1.c **** #if(ADC_SAR_Seq_1_DEFAULT_JUSTIFICATION_SEL == ADC_SAR_Seq_1__RIGHT)
 733:.\Generated_Source\PSoC4/ADC_SAR_Seq_1.c **** 
 734:.\Generated_Source\PSoC4/ADC_SAR_Seq_1.c **** 
 735:.\Generated_Source\PSoC4/ADC_SAR_Seq_1.c ****     /*******************************************************************************
 736:.\Generated_Source\PSoC4/ADC_SAR_Seq_1.c ****     * Function Name: ADC_SAR_Seq_1_CountsTo_mVolts
 737:.\Generated_Source\PSoC4/ADC_SAR_Seq_1.c ****     ********************************************************************************
 738:.\Generated_Source\PSoC4/ADC_SAR_Seq_1.c ****     *
 739:.\Generated_Source\PSoC4/ADC_SAR_Seq_1.c ****     * Summary:
 740:.\Generated_Source\PSoC4/ADC_SAR_Seq_1.c ****     *  This function converts ADC counts to mVolts
 741:.\Generated_Source\PSoC4/ADC_SAR_Seq_1.c ****     *  This function is not available when left data format justification selected.
 742:.\Generated_Source\PSoC4/ADC_SAR_Seq_1.c ****     *
 743:.\Generated_Source\PSoC4/ADC_SAR_Seq_1.c ****     * Parameters:
 744:.\Generated_Source\PSoC4/ADC_SAR_Seq_1.c ****     *  chan: The ADC channel number.
 745:.\Generated_Source\PSoC4/ADC_SAR_Seq_1.c ****     *  adcCounts: Result from the ADC conversion
 746:.\Generated_Source\PSoC4/ADC_SAR_Seq_1.c ****     *
 747:.\Generated_Source\PSoC4/ADC_SAR_Seq_1.c ****     * Return:
 748:.\Generated_Source\PSoC4/ADC_SAR_Seq_1.c ****     *  Results in mVolts
 749:.\Generated_Source\PSoC4/ADC_SAR_Seq_1.c ****     *
 750:.\Generated_Source\PSoC4/ADC_SAR_Seq_1.c ****     * Global variables:
 751:.\Generated_Source\PSoC4/ADC_SAR_Seq_1.c ****     *  ADC_SAR_Seq_1_countsPer10Volt:  used to convert ADC counts to mVolts.
 752:.\Generated_Source\PSoC4/ADC_SAR_Seq_1.c ****     *  ADC_SAR_Seq_1_Offset:  Used as the offset while converting ADC counts
 753:.\Generated_Source\PSoC4/ADC_SAR_Seq_1.c ****     *   to mVolts.
 754:.\Generated_Source\PSoC4/ADC_SAR_Seq_1.c ****     *
 755:.\Generated_Source\PSoC4/ADC_SAR_Seq_1.c ****     *******************************************************************************/
 756:.\Generated_Source\PSoC4/ADC_SAR_Seq_1.c ****     int16 ADC_SAR_Seq_1_CountsTo_mVolts(uint32 chan, int16 adcCounts)
 757:.\Generated_Source\PSoC4/ADC_SAR_Seq_1.c ****     {
 695              		.loc 1 757 0
 696              		.cfi_startproc
 697              	.LVL44:
 698 0000 38B5     		push	{r3, r4, r5, lr}
 699              		.cfi_def_cfa_offset 16
 700              		.cfi_offset 3, -16
 701              		.cfi_offset 4, -12
 702              		.cfi_offset 5, -8
 703              		.cfi_offset 14, -4
 704 0002 041C     		mov	r4, r0
 705 0004 0D1C     		mov	r5, r1
 758:.\Generated_Source\PSoC4/ADC_SAR_Seq_1.c ****         int16 mVolts;
 759:.\Generated_Source\PSoC4/ADC_SAR_Seq_1.c **** 
 760:.\Generated_Source\PSoC4/ADC_SAR_Seq_1.c ****         /* Halt CPU in debug mode if channel is out of valid range */
 761:.\Generated_Source\PSoC4/ADC_SAR_Seq_1.c ****         CYASSERT(chan < ADC_SAR_Seq_1_TOTAL_CHANNELS_NUM);
 706              		.loc 1 761 0
ARM GAS  C:\Users\mitchell\AppData\Local\Temp\ccw789jO.s 			page 27


 707 0006 0028     		cmp	r0, #0
 708 0008 02D0     		beq	.L64
 709              		.loc 1 761 0 is_stmt 0 discriminator 1
 710 000a 0020     		mov	r0, #0
 711              	.LVL45:
 712 000c FFF7FEFF 		bl	CyHalt
 713              	.LVL46:
 714              	.L64:
 762:.\Generated_Source\PSoC4/ADC_SAR_Seq_1.c **** 
 763:.\Generated_Source\PSoC4/ADC_SAR_Seq_1.c ****         /* Divide the adcCount when accumulate averaging mode selected */
 764:.\Generated_Source\PSoC4/ADC_SAR_Seq_1.c ****         #if(ADC_SAR_Seq_1_DEFAULT_AVG_MODE == ADC_SAR_Seq_1__ACCUMULATE)
 765:.\Generated_Source\PSoC4/ADC_SAR_Seq_1.c ****             if((ADC_SAR_Seq_1_channelsConfig[chan] & ADC_SAR_Seq_1_AVERAGING_EN) != 0u)
 766:.\Generated_Source\PSoC4/ADC_SAR_Seq_1.c ****             {
 767:.\Generated_Source\PSoC4/ADC_SAR_Seq_1.c ****                 adcCounts /= ADC_SAR_Seq_1_DEFAULT_AVG_SAMPLES_DIV;
 768:.\Generated_Source\PSoC4/ADC_SAR_Seq_1.c ****             }
 769:.\Generated_Source\PSoC4/ADC_SAR_Seq_1.c ****         #endif /* ADC_SAR_Seq_1_DEFAULT_AVG_MODE == ADC_SAR_Seq_1__ACCUMULATE */
 770:.\Generated_Source\PSoC4/ADC_SAR_Seq_1.c **** 
 771:.\Generated_Source\PSoC4/ADC_SAR_Seq_1.c ****         /* Subtract ADC offset */
 772:.\Generated_Source\PSoC4/ADC_SAR_Seq_1.c ****         adcCounts -= ADC_SAR_Seq_1_offset[chan];
 715              		.loc 1 772 0 is_stmt 1
 716 0010 6300     		lsl	r3, r4, #1
 717 0012 0F4A     		ldr	r2, .L67
 718 0014 995A     		ldrh	r1, [r3, r2]
 719 0016 691A     		sub	r1, r5, r1
 720 0018 09B2     		sxth	r1, r1
 721              	.LVL47:
 773:.\Generated_Source\PSoC4/ADC_SAR_Seq_1.c **** 
 774:.\Generated_Source\PSoC4/ADC_SAR_Seq_1.c ****         mVolts = (int16)((((int32)adcCounts * ADC_SAR_Seq_1_10MV_COUNTS) + ( (adcCounts > 0) ?
 722              		.loc 1 774 0
 723 001a 0E4B     		ldr	r3, .L67+4
 724 001c 4B43     		mul	r3, r1
 775:.\Generated_Source\PSoC4/ADC_SAR_Seq_1.c ****                  (ADC_SAR_Seq_1_countsPer10Volt[chan] / 2) : (-(ADC_SAR_Seq_1_countsPer10Volt[chan]
 725              		.loc 1 775 0
 726 001e 0029     		cmp	r1, #0
 727 0020 06DD     		ble	.L65
 728              		.loc 1 775 0 is_stmt 0 discriminator 1
 729 0022 A200     		lsl	r2, r4, #2
 730 0024 0C49     		ldr	r1, .L67+8
 731              	.LVL48:
 732 0026 5258     		ldr	r2, [r2, r1]
 733 0028 D00F     		lsr	r0, r2, #31
 734 002a 8018     		add	r0, r0, r2
 735 002c 4010     		asr	r0, r0, #1
 736 002e 06E0     		b	.L66
 737              	.LVL49:
 738              	.L65:
 739              		.loc 1 775 0 discriminator 2
 740 0030 A200     		lsl	r2, r4, #2
 741 0032 0949     		ldr	r1, .L67+8
 742              	.LVL50:
 743 0034 5258     		ldr	r2, [r2, r1]
 744 0036 D00F     		lsr	r0, r2, #31
 745 0038 8018     		add	r0, r0, r2
 746 003a 4010     		asr	r0, r0, #1
 747 003c 4042     		neg	r0, r0
 748              	.L66:
 774:.\Generated_Source\PSoC4/ADC_SAR_Seq_1.c ****         mVolts = (int16)((((int32)adcCounts * ADC_SAR_Seq_1_10MV_COUNTS) + ( (adcCounts > 0) ?
ARM GAS  C:\Users\mitchell\AppData\Local\Temp\ccw789jO.s 			page 28


 749              		.loc 1 774 0 is_stmt 1
 750 003e 1818     		add	r0, r3, r0
 776:.\Generated_Source\PSoC4/ADC_SAR_Seq_1.c ****                  / ADC_SAR_Seq_1_countsPer10Volt[chan]);
 751              		.loc 1 776 0
 752 0040 A400     		lsl	r4, r4, #2
 753              	.LVL51:
 754 0042 054B     		ldr	r3, .L67+8
 755 0044 E158     		ldr	r1, [r4, r3]
 756 0046 FFF7FEFF 		bl	__aeabi_idiv
 757              	.LVL52:
 777:.\Generated_Source\PSoC4/ADC_SAR_Seq_1.c **** 
 778:.\Generated_Source\PSoC4/ADC_SAR_Seq_1.c ****         return( mVolts );
 758              		.loc 1 778 0
 759 004a 00B2     		sxth	r0, r0
 760              	.LVL53:
 779:.\Generated_Source\PSoC4/ADC_SAR_Seq_1.c ****     }
 761              		.loc 1 779 0
 762              		@ sp needed
 763 004c 38BD     		pop	{r3, r4, r5, pc}
 764              	.L68:
 765 004e C046     		.align	2
 766              	.L67:
 767 0050 00000000 		.word	ADC_SAR_Seq_1_offset
 768 0054 10270000 		.word	10000
 769 0058 00000000 		.word	ADC_SAR_Seq_1_countsPer10Volt
 770              		.cfi_endproc
 771              	.LFE15:
 772              		.size	ADC_SAR_Seq_1_CountsTo_mVolts, .-ADC_SAR_Seq_1_CountsTo_mVolts
 773              		.global	__aeabi_lmul
 774              		.global	__aeabi_ldivmod
 775              		.section	.text.ADC_SAR_Seq_1_CountsTo_uVolts,"ax",%progbits
 776              		.align	2
 777              		.global	ADC_SAR_Seq_1_CountsTo_uVolts
 778              		.code	16
 779              		.thumb_func
 780              		.type	ADC_SAR_Seq_1_CountsTo_uVolts, %function
 781              	ADC_SAR_Seq_1_CountsTo_uVolts:
 782              	.LFB16:
 780:.\Generated_Source\PSoC4/ADC_SAR_Seq_1.c **** 
 781:.\Generated_Source\PSoC4/ADC_SAR_Seq_1.c **** 
 782:.\Generated_Source\PSoC4/ADC_SAR_Seq_1.c ****     /*******************************************************************************
 783:.\Generated_Source\PSoC4/ADC_SAR_Seq_1.c ****     * Function Name: ADC_SAR_Seq_1_CountsTo_uVolts
 784:.\Generated_Source\PSoC4/ADC_SAR_Seq_1.c ****     ********************************************************************************
 785:.\Generated_Source\PSoC4/ADC_SAR_Seq_1.c ****     *
 786:.\Generated_Source\PSoC4/ADC_SAR_Seq_1.c ****     * Summary:
 787:.\Generated_Source\PSoC4/ADC_SAR_Seq_1.c ****     *  This function converts ADC counts to micro Volts
 788:.\Generated_Source\PSoC4/ADC_SAR_Seq_1.c ****     *  This function is not available when left data format justification selected.
 789:.\Generated_Source\PSoC4/ADC_SAR_Seq_1.c ****     *
 790:.\Generated_Source\PSoC4/ADC_SAR_Seq_1.c ****     * Parameters:
 791:.\Generated_Source\PSoC4/ADC_SAR_Seq_1.c ****     *  chan: The ADC channel number.
 792:.\Generated_Source\PSoC4/ADC_SAR_Seq_1.c ****     *  adcCounts: Result from the ADC conversion
 793:.\Generated_Source\PSoC4/ADC_SAR_Seq_1.c ****     *
 794:.\Generated_Source\PSoC4/ADC_SAR_Seq_1.c ****     * Return:
 795:.\Generated_Source\PSoC4/ADC_SAR_Seq_1.c ****     *  Results in uVolts
 796:.\Generated_Source\PSoC4/ADC_SAR_Seq_1.c ****     *
 797:.\Generated_Source\PSoC4/ADC_SAR_Seq_1.c ****     * Global variables:
 798:.\Generated_Source\PSoC4/ADC_SAR_Seq_1.c ****     *  ADC_SAR_Seq_1_countsPer10Volt:  used to convert ADC counts to uVolts.
ARM GAS  C:\Users\mitchell\AppData\Local\Temp\ccw789jO.s 			page 29


 799:.\Generated_Source\PSoC4/ADC_SAR_Seq_1.c ****     *  ADC_SAR_Seq_1_Offset:  Used as the offset while converting ADC counts
 800:.\Generated_Source\PSoC4/ADC_SAR_Seq_1.c ****     *   to mVolts.
 801:.\Generated_Source\PSoC4/ADC_SAR_Seq_1.c ****     *
 802:.\Generated_Source\PSoC4/ADC_SAR_Seq_1.c ****     * Theory:
 803:.\Generated_Source\PSoC4/ADC_SAR_Seq_1.c ****     *  Care must be taken to not exceed the maximum value for a 31 bit signed
 804:.\Generated_Source\PSoC4/ADC_SAR_Seq_1.c ****     *  number in the conversion to uVolts and at the same time not loose
 805:.\Generated_Source\PSoC4/ADC_SAR_Seq_1.c ****     *  resolution.
 806:.\Generated_Source\PSoC4/ADC_SAR_Seq_1.c ****     *  To convert adcCounts to microVolts it is required to be multiplied
 807:.\Generated_Source\PSoC4/ADC_SAR_Seq_1.c ****     *  on 10 million and later divide on gain in counts per 10V.
 808:.\Generated_Source\PSoC4/ADC_SAR_Seq_1.c ****     *
 809:.\Generated_Source\PSoC4/ADC_SAR_Seq_1.c ****     *******************************************************************************/
 810:.\Generated_Source\PSoC4/ADC_SAR_Seq_1.c ****     int32 ADC_SAR_Seq_1_CountsTo_uVolts(uint32 chan, int16 adcCounts)
 811:.\Generated_Source\PSoC4/ADC_SAR_Seq_1.c ****     {
 783              		.loc 1 811 0
 784              		.cfi_startproc
 785              	.LVL54:
 786 0000 58B5     		push	{r3, r4, r6, lr}
 787              		.cfi_def_cfa_offset 16
 788              		.cfi_offset 3, -16
 789              		.cfi_offset 4, -12
 790              		.cfi_offset 6, -8
 791              		.cfi_offset 14, -4
 792 0002 061C     		mov	r6, r0
 793 0004 0C1C     		mov	r4, r1
 812:.\Generated_Source\PSoC4/ADC_SAR_Seq_1.c ****         int64 uVolts;
 813:.\Generated_Source\PSoC4/ADC_SAR_Seq_1.c **** 
 814:.\Generated_Source\PSoC4/ADC_SAR_Seq_1.c ****         /* Halt CPU in debug mode if channel is out of valid range */
 815:.\Generated_Source\PSoC4/ADC_SAR_Seq_1.c ****         CYASSERT(chan < ADC_SAR_Seq_1_TOTAL_CHANNELS_NUM);
 794              		.loc 1 815 0
 795 0006 0028     		cmp	r0, #0
 796 0008 02D0     		beq	.L70
 797              		.loc 1 815 0 is_stmt 0 discriminator 1
 798 000a 0020     		mov	r0, #0
 799              	.LVL55:
 800 000c FFF7FEFF 		bl	CyHalt
 801              	.LVL56:
 802              	.L70:
 816:.\Generated_Source\PSoC4/ADC_SAR_Seq_1.c **** 
 817:.\Generated_Source\PSoC4/ADC_SAR_Seq_1.c ****         /* Divide the adcCount when accumulate averaging mode selected */
 818:.\Generated_Source\PSoC4/ADC_SAR_Seq_1.c ****         #if(ADC_SAR_Seq_1_DEFAULT_AVG_MODE == ADC_SAR_Seq_1__ACCUMULATE)
 819:.\Generated_Source\PSoC4/ADC_SAR_Seq_1.c ****             if((ADC_SAR_Seq_1_channelsConfig[chan] & ADC_SAR_Seq_1_AVERAGING_EN) != 0u)
 820:.\Generated_Source\PSoC4/ADC_SAR_Seq_1.c ****             {
 821:.\Generated_Source\PSoC4/ADC_SAR_Seq_1.c ****                 adcCounts /= ADC_SAR_Seq_1_DEFAULT_AVG_SAMPLES_DIV;
 822:.\Generated_Source\PSoC4/ADC_SAR_Seq_1.c ****             }
 823:.\Generated_Source\PSoC4/ADC_SAR_Seq_1.c ****         #endif /* ADC_SAR_Seq_1_DEFAULT_AVG_MODE == ADC_SAR_Seq_1__ACCUMULATE */
 824:.\Generated_Source\PSoC4/ADC_SAR_Seq_1.c **** 
 825:.\Generated_Source\PSoC4/ADC_SAR_Seq_1.c ****         /* Subtract ADC offset */
 826:.\Generated_Source\PSoC4/ADC_SAR_Seq_1.c ****         adcCounts -= ADC_SAR_Seq_1_offset[chan];
 803              		.loc 1 826 0 is_stmt 1
 804 0010 7200     		lsl	r2, r6, #1
 805 0012 0B4B     		ldr	r3, .L71+8
 806 0014 D05A     		ldrh	r0, [r2, r3]
 807 0016 201A     		sub	r0, r4, r0
 808 0018 00B2     		sxth	r0, r0
 809              	.LVL57:
 827:.\Generated_Source\PSoC4/ADC_SAR_Seq_1.c **** 
 828:.\Generated_Source\PSoC4/ADC_SAR_Seq_1.c ****         uVolts = ((int64)adcCounts * ADC_SAR_Seq_1_10UV_COUNTS) / ADC_SAR_Seq_1_countsPer10Volt[cha
ARM GAS  C:\Users\mitchell\AppData\Local\Temp\ccw789jO.s 			page 30


 810              		.loc 1 828 0
 811 001a C117     		asr	r1, r0, #31
 812 001c 074B     		ldr	r3, .L71+4
 813 001e 064A     		ldr	r2, .L71
 814 0020 FFF7FEFF 		bl	__aeabi_lmul
 815              	.LVL58:
 816 0024 B600     		lsl	r6, r6, #2
 817              	.LVL59:
 818 0026 074B     		ldr	r3, .L71+12
 819 0028 F258     		ldr	r2, [r6, r3]
 820 002a D317     		asr	r3, r2, #31
 821 002c FFF7FEFF 		bl	__aeabi_ldivmod
 822              	.LVL60:
 829:.\Generated_Source\PSoC4/ADC_SAR_Seq_1.c **** 
 830:.\Generated_Source\PSoC4/ADC_SAR_Seq_1.c ****         return( (int32)uVolts );
 831:.\Generated_Source\PSoC4/ADC_SAR_Seq_1.c ****     }
 823              		.loc 1 831 0
 824              		@ sp needed
 825 0030 58BD     		pop	{r3, r4, r6, pc}
 826              	.L72:
 827 0032 C046C046 		.align	3
 827      C046
 828              	.L71:
 829 0038 80969800 		.word	10000000
 830 003c 00000000 		.word	0
 831 0040 00000000 		.word	ADC_SAR_Seq_1_offset
 832 0044 00000000 		.word	ADC_SAR_Seq_1_countsPer10Volt
 833              		.cfi_endproc
 834              	.LFE16:
 835              		.size	ADC_SAR_Seq_1_CountsTo_uVolts, .-ADC_SAR_Seq_1_CountsTo_uVolts
 836              		.global	__aeabi_i2f
 837              		.global	__aeabi_fmul
 838              		.global	__aeabi_fdiv
 839              		.section	.text.ADC_SAR_Seq_1_CountsTo_Volts,"ax",%progbits
 840              		.align	2
 841              		.global	ADC_SAR_Seq_1_CountsTo_Volts
 842              		.code	16
 843              		.thumb_func
 844              		.type	ADC_SAR_Seq_1_CountsTo_Volts, %function
 845              	ADC_SAR_Seq_1_CountsTo_Volts:
 846              	.LFB17:
 832:.\Generated_Source\PSoC4/ADC_SAR_Seq_1.c **** 
 833:.\Generated_Source\PSoC4/ADC_SAR_Seq_1.c **** 
 834:.\Generated_Source\PSoC4/ADC_SAR_Seq_1.c ****     /*******************************************************************************
 835:.\Generated_Source\PSoC4/ADC_SAR_Seq_1.c ****     * Function Name: ADC_SAR_Seq_1_CountsTo_Volts
 836:.\Generated_Source\PSoC4/ADC_SAR_Seq_1.c ****     ********************************************************************************
 837:.\Generated_Source\PSoC4/ADC_SAR_Seq_1.c ****     *
 838:.\Generated_Source\PSoC4/ADC_SAR_Seq_1.c ****     * Summary:
 839:.\Generated_Source\PSoC4/ADC_SAR_Seq_1.c ****     *  Converts the ADC output to Volts as a floating point number.
 840:.\Generated_Source\PSoC4/ADC_SAR_Seq_1.c ****     *  This function is not available when left data format justification selected.
 841:.\Generated_Source\PSoC4/ADC_SAR_Seq_1.c ****     *
 842:.\Generated_Source\PSoC4/ADC_SAR_Seq_1.c ****     * Parameters:
 843:.\Generated_Source\PSoC4/ADC_SAR_Seq_1.c ****     *  chan: The ADC channel number.
 844:.\Generated_Source\PSoC4/ADC_SAR_Seq_1.c ****     *  Result from the ADC conversion
 845:.\Generated_Source\PSoC4/ADC_SAR_Seq_1.c ****     *
 846:.\Generated_Source\PSoC4/ADC_SAR_Seq_1.c ****     * Return:
 847:.\Generated_Source\PSoC4/ADC_SAR_Seq_1.c ****     *  Results in Volts
ARM GAS  C:\Users\mitchell\AppData\Local\Temp\ccw789jO.s 			page 31


 848:.\Generated_Source\PSoC4/ADC_SAR_Seq_1.c ****     *
 849:.\Generated_Source\PSoC4/ADC_SAR_Seq_1.c ****     * Global variables:
 850:.\Generated_Source\PSoC4/ADC_SAR_Seq_1.c ****     *  ADC_SAR_Seq_1_countsPer10Volt:  used to convert ADC counts to Volts.
 851:.\Generated_Source\PSoC4/ADC_SAR_Seq_1.c ****     *  ADC_SAR_Seq_1_Offset:  Used as the offset while converting ADC counts
 852:.\Generated_Source\PSoC4/ADC_SAR_Seq_1.c ****     *   to mVolts.
 853:.\Generated_Source\PSoC4/ADC_SAR_Seq_1.c ****     *
 854:.\Generated_Source\PSoC4/ADC_SAR_Seq_1.c ****     *******************************************************************************/
 855:.\Generated_Source\PSoC4/ADC_SAR_Seq_1.c ****     float32 ADC_SAR_Seq_1_CountsTo_Volts(uint32 chan, int16 adcCounts)
 856:.\Generated_Source\PSoC4/ADC_SAR_Seq_1.c ****     {
 847              		.loc 1 856 0
 848              		.cfi_startproc
 849              	.LVL61:
 850 0000 38B5     		push	{r3, r4, r5, lr}
 851              		.cfi_def_cfa_offset 16
 852              		.cfi_offset 3, -16
 853              		.cfi_offset 4, -12
 854              		.cfi_offset 5, -8
 855              		.cfi_offset 14, -4
 856 0002 041C     		mov	r4, r0
 857 0004 0D1C     		mov	r5, r1
 857:.\Generated_Source\PSoC4/ADC_SAR_Seq_1.c ****         float32 volts;
 858:.\Generated_Source\PSoC4/ADC_SAR_Seq_1.c **** 
 859:.\Generated_Source\PSoC4/ADC_SAR_Seq_1.c ****         /* Halt CPU in debug mode if channel is out of valid range */
 860:.\Generated_Source\PSoC4/ADC_SAR_Seq_1.c ****         CYASSERT(chan < ADC_SAR_Seq_1_TOTAL_CHANNELS_NUM);
 858              		.loc 1 860 0
 859 0006 0028     		cmp	r0, #0
 860 0008 02D0     		beq	.L74
 861              		.loc 1 860 0 is_stmt 0 discriminator 1
 862 000a 0020     		mov	r0, #0
 863              	.LVL62:
 864 000c FFF7FEFF 		bl	CyHalt
 865              	.LVL63:
 866              	.L74:
 861:.\Generated_Source\PSoC4/ADC_SAR_Seq_1.c **** 
 862:.\Generated_Source\PSoC4/ADC_SAR_Seq_1.c ****         /* Divide the adcCount when accumulate averaging mode selected */
 863:.\Generated_Source\PSoC4/ADC_SAR_Seq_1.c ****         #if(ADC_SAR_Seq_1_DEFAULT_AVG_MODE == ADC_SAR_Seq_1__ACCUMULATE)
 864:.\Generated_Source\PSoC4/ADC_SAR_Seq_1.c ****             if((ADC_SAR_Seq_1_channelsConfig[chan] & ADC_SAR_Seq_1_AVERAGING_EN) != 0u)
 865:.\Generated_Source\PSoC4/ADC_SAR_Seq_1.c ****             {
 866:.\Generated_Source\PSoC4/ADC_SAR_Seq_1.c ****                 adcCounts /= ADC_SAR_Seq_1_DEFAULT_AVG_SAMPLES_DIV;
 867:.\Generated_Source\PSoC4/ADC_SAR_Seq_1.c ****             }
 868:.\Generated_Source\PSoC4/ADC_SAR_Seq_1.c ****         #endif /* ADC_SAR_Seq_1_DEFAULT_AVG_MODE == ADC_SAR_Seq_1__ACCUMULATE */
 869:.\Generated_Source\PSoC4/ADC_SAR_Seq_1.c **** 
 870:.\Generated_Source\PSoC4/ADC_SAR_Seq_1.c ****         /* Subtract ADC offset */
 871:.\Generated_Source\PSoC4/ADC_SAR_Seq_1.c ****         adcCounts -= ADC_SAR_Seq_1_offset[chan];
 867              		.loc 1 871 0 is_stmt 1
 868 0010 6200     		lsl	r2, r4, #1
 869 0012 0A4B     		ldr	r3, .L75
 870 0014 D05A     		ldrh	r0, [r2, r3]
 871 0016 2D1A     		sub	r5, r5, r0
 872 0018 28B2     		sxth	r0, r5
 873              	.LVL64:
 872:.\Generated_Source\PSoC4/ADC_SAR_Seq_1.c **** 
 873:.\Generated_Source\PSoC4/ADC_SAR_Seq_1.c ****         volts = ((float32)adcCounts * ADC_SAR_Seq_1_10V_COUNTS) / (float32)ADC_SAR_Seq_1_countsPer1
 874              		.loc 1 873 0
 875 001a FFF7FEFF 		bl	__aeabi_i2f
 876              	.LVL65:
 877 001e 0849     		ldr	r1, .L75+4
ARM GAS  C:\Users\mitchell\AppData\Local\Temp\ccw789jO.s 			page 32


 878 0020 FFF7FEFF 		bl	__aeabi_fmul
 879              	.LVL66:
 880 0024 051C     		add	r5, r0, #0
 881              	.LVL67:
 882 0026 A400     		lsl	r4, r4, #2
 883              	.LVL68:
 884 0028 064B     		ldr	r3, .L75+8
 885 002a E058     		ldr	r0, [r4, r3]
 886 002c FFF7FEFF 		bl	__aeabi_i2f
 887              	.LVL69:
 888 0030 011C     		add	r1, r0, #0
 889 0032 281C     		add	r0, r5, #0
 890 0034 FFF7FEFF 		bl	__aeabi_fdiv
 891              	.LVL70:
 874:.\Generated_Source\PSoC4/ADC_SAR_Seq_1.c **** 
 875:.\Generated_Source\PSoC4/ADC_SAR_Seq_1.c ****         return( volts );
 876:.\Generated_Source\PSoC4/ADC_SAR_Seq_1.c ****     }
 892              		.loc 1 876 0
 893              		@ sp needed
 894 0038 38BD     		pop	{r3, r4, r5, pc}
 895              	.L76:
 896 003a C046     		.align	2
 897              	.L75:
 898 003c 00000000 		.word	ADC_SAR_Seq_1_offset
 899 0040 00002041 		.word	1092616192
 900 0044 00000000 		.word	ADC_SAR_Seq_1_countsPer10Volt
 901              		.cfi_endproc
 902              	.LFE17:
 903              		.size	ADC_SAR_Seq_1_CountsTo_Volts, .-ADC_SAR_Seq_1_CountsTo_Volts
 904              		.comm	ADC_SAR_Seq_1_countsPer10Volt,4,4
 905              		.comm	ADC_SAR_Seq_1_offset,2,4
 906              		.global	ADC_SAR_Seq_1_initVar
 907              		.bss
 908              		.set	.LANCHOR0,. + 0
 909              		.type	ADC_SAR_Seq_1_initVar, %object
 910              		.size	ADC_SAR_Seq_1_initVar, 1
 911              	ADC_SAR_Seq_1_initVar:
 912 0000 00       		.space	1
 913              		.text
 914              	.Letext0:
 915              		.file 2 ".\\Generated_Source\\PSoC4\\cytypes.h"
 916              		.file 3 ".\\Generated_Source\\PSoC4\\CyLib.h"