ARM GAS  C:\Users\mitchell\AppData\Local\Temp\ccFuvMeF.s 			page 1


   1              		.cpu cortex-m0
   2              		.fpu softvfp
   3              		.eabi_attribute 20, 1
   4              		.eabi_attribute 21, 1
   5              		.eabi_attribute 23, 3
   6              		.eabi_attribute 24, 1
   7              		.eabi_attribute 25, 1
   8              		.eabi_attribute 26, 1
   9              		.eabi_attribute 30, 1
  10              		.eabi_attribute 34, 0
  11              		.eabi_attribute 18, 4
  12              		.code	16
  13              		.file	"ADC_SAR_Seq_1_IRQ.c"
  14              		.text
  15              	.Ltext0:
  16              		.cfi_sections	.debug_frame
  17              		.section	.text.ADC_SAR_Seq_1_IRQ_Interrupt,"ax",%progbits
  18              		.align	2
  19              		.global	ADC_SAR_Seq_1_IRQ_Interrupt
  20              		.code	16
  21              		.thumb_func
  22              		.type	ADC_SAR_Seq_1_IRQ_Interrupt, %function
  23              	ADC_SAR_Seq_1_IRQ_Interrupt:
  24              	.LFB3:
  25              		.file 1 ".\\Generated_Source\\PSoC4\\ADC_SAR_Seq_1_IRQ.c"
   1:.\Generated_Source\PSoC4/ADC_SAR_Seq_1_IRQ.c **** /*******************************************************************************
   2:.\Generated_Source\PSoC4/ADC_SAR_Seq_1_IRQ.c **** * File Name: ADC_SAR_Seq_1_IRQ.c  
   3:.\Generated_Source\PSoC4/ADC_SAR_Seq_1_IRQ.c **** * Version 1.70
   4:.\Generated_Source\PSoC4/ADC_SAR_Seq_1_IRQ.c **** *
   5:.\Generated_Source\PSoC4/ADC_SAR_Seq_1_IRQ.c **** *  Description:
   6:.\Generated_Source\PSoC4/ADC_SAR_Seq_1_IRQ.c **** *   API for controlling the state of an interrupt.
   7:.\Generated_Source\PSoC4/ADC_SAR_Seq_1_IRQ.c **** *
   8:.\Generated_Source\PSoC4/ADC_SAR_Seq_1_IRQ.c **** *
   9:.\Generated_Source\PSoC4/ADC_SAR_Seq_1_IRQ.c **** *  Note:
  10:.\Generated_Source\PSoC4/ADC_SAR_Seq_1_IRQ.c **** *
  11:.\Generated_Source\PSoC4/ADC_SAR_Seq_1_IRQ.c **** ********************************************************************************
  12:.\Generated_Source\PSoC4/ADC_SAR_Seq_1_IRQ.c **** * Copyright 2008-2015, Cypress Semiconductor Corporation.  All rights reserved.
  13:.\Generated_Source\PSoC4/ADC_SAR_Seq_1_IRQ.c **** * You may use this file only in accordance with the license, terms, conditions, 
  14:.\Generated_Source\PSoC4/ADC_SAR_Seq_1_IRQ.c **** * disclaimers, and limitations in the end user license agreement accompanying 
  15:.\Generated_Source\PSoC4/ADC_SAR_Seq_1_IRQ.c **** * the software package with which this file was provided.
  16:.\Generated_Source\PSoC4/ADC_SAR_Seq_1_IRQ.c **** *******************************************************************************/
  17:.\Generated_Source\PSoC4/ADC_SAR_Seq_1_IRQ.c **** 
  18:.\Generated_Source\PSoC4/ADC_SAR_Seq_1_IRQ.c **** 
  19:.\Generated_Source\PSoC4/ADC_SAR_Seq_1_IRQ.c **** #include <cydevice_trm.h>
  20:.\Generated_Source\PSoC4/ADC_SAR_Seq_1_IRQ.c **** #include <CyLib.h>
  21:.\Generated_Source\PSoC4/ADC_SAR_Seq_1_IRQ.c **** #include <ADC_SAR_Seq_1_IRQ.h>
  22:.\Generated_Source\PSoC4/ADC_SAR_Seq_1_IRQ.c **** 
  23:.\Generated_Source\PSoC4/ADC_SAR_Seq_1_IRQ.c **** #if !defined(ADC_SAR_Seq_1_IRQ__REMOVED) /* Check for removal by optimization */
  24:.\Generated_Source\PSoC4/ADC_SAR_Seq_1_IRQ.c **** 
  25:.\Generated_Source\PSoC4/ADC_SAR_Seq_1_IRQ.c **** /*******************************************************************************
  26:.\Generated_Source\PSoC4/ADC_SAR_Seq_1_IRQ.c **** *  Place your includes, defines and code here 
  27:.\Generated_Source\PSoC4/ADC_SAR_Seq_1_IRQ.c **** ********************************************************************************/
  28:.\Generated_Source\PSoC4/ADC_SAR_Seq_1_IRQ.c **** /* `#START ADC_SAR_Seq_1_IRQ_intc` */
  29:.\Generated_Source\PSoC4/ADC_SAR_Seq_1_IRQ.c **** 
  30:.\Generated_Source\PSoC4/ADC_SAR_Seq_1_IRQ.c **** /* `#END` */
  31:.\Generated_Source\PSoC4/ADC_SAR_Seq_1_IRQ.c **** 
  32:.\Generated_Source\PSoC4/ADC_SAR_Seq_1_IRQ.c **** extern cyisraddress CyRamVectors[CYINT_IRQ_BASE + CY_NUM_INTERRUPTS];
ARM GAS  C:\Users\mitchell\AppData\Local\Temp\ccFuvMeF.s 			page 2


  33:.\Generated_Source\PSoC4/ADC_SAR_Seq_1_IRQ.c **** 
  34:.\Generated_Source\PSoC4/ADC_SAR_Seq_1_IRQ.c **** /* Declared in startup, used to set unused interrupts to. */
  35:.\Generated_Source\PSoC4/ADC_SAR_Seq_1_IRQ.c **** CY_ISR_PROTO(IntDefaultHandler);
  36:.\Generated_Source\PSoC4/ADC_SAR_Seq_1_IRQ.c **** 
  37:.\Generated_Source\PSoC4/ADC_SAR_Seq_1_IRQ.c **** 
  38:.\Generated_Source\PSoC4/ADC_SAR_Seq_1_IRQ.c **** /*******************************************************************************
  39:.\Generated_Source\PSoC4/ADC_SAR_Seq_1_IRQ.c **** * Function Name: ADC_SAR_Seq_1_IRQ_Start
  40:.\Generated_Source\PSoC4/ADC_SAR_Seq_1_IRQ.c **** ********************************************************************************
  41:.\Generated_Source\PSoC4/ADC_SAR_Seq_1_IRQ.c **** *
  42:.\Generated_Source\PSoC4/ADC_SAR_Seq_1_IRQ.c **** * Summary:
  43:.\Generated_Source\PSoC4/ADC_SAR_Seq_1_IRQ.c **** *  Set up the interrupt and enable it. This function disables the interrupt, 
  44:.\Generated_Source\PSoC4/ADC_SAR_Seq_1_IRQ.c **** *  sets the default interrupt vector, sets the priority from the value in the
  45:.\Generated_Source\PSoC4/ADC_SAR_Seq_1_IRQ.c **** *  Design Wide Resources Interrupt Editor, then enables the interrupt to the 
  46:.\Generated_Source\PSoC4/ADC_SAR_Seq_1_IRQ.c **** *  interrupt controller.
  47:.\Generated_Source\PSoC4/ADC_SAR_Seq_1_IRQ.c **** *
  48:.\Generated_Source\PSoC4/ADC_SAR_Seq_1_IRQ.c **** * Parameters:  
  49:.\Generated_Source\PSoC4/ADC_SAR_Seq_1_IRQ.c **** *   None
  50:.\Generated_Source\PSoC4/ADC_SAR_Seq_1_IRQ.c **** *
  51:.\Generated_Source\PSoC4/ADC_SAR_Seq_1_IRQ.c **** * Return:
  52:.\Generated_Source\PSoC4/ADC_SAR_Seq_1_IRQ.c **** *   None
  53:.\Generated_Source\PSoC4/ADC_SAR_Seq_1_IRQ.c **** *
  54:.\Generated_Source\PSoC4/ADC_SAR_Seq_1_IRQ.c **** *******************************************************************************/
  55:.\Generated_Source\PSoC4/ADC_SAR_Seq_1_IRQ.c **** void ADC_SAR_Seq_1_IRQ_Start(void)
  56:.\Generated_Source\PSoC4/ADC_SAR_Seq_1_IRQ.c **** {
  57:.\Generated_Source\PSoC4/ADC_SAR_Seq_1_IRQ.c ****     /* For all we know the interrupt is active. */
  58:.\Generated_Source\PSoC4/ADC_SAR_Seq_1_IRQ.c ****     ADC_SAR_Seq_1_IRQ_Disable();
  59:.\Generated_Source\PSoC4/ADC_SAR_Seq_1_IRQ.c **** 
  60:.\Generated_Source\PSoC4/ADC_SAR_Seq_1_IRQ.c ****     /* Set the ISR to point to the ADC_SAR_Seq_1_IRQ Interrupt. */
  61:.\Generated_Source\PSoC4/ADC_SAR_Seq_1_IRQ.c ****     ADC_SAR_Seq_1_IRQ_SetVector(&ADC_SAR_Seq_1_IRQ_Interrupt);
  62:.\Generated_Source\PSoC4/ADC_SAR_Seq_1_IRQ.c **** 
  63:.\Generated_Source\PSoC4/ADC_SAR_Seq_1_IRQ.c ****     /* Set the priority. */
  64:.\Generated_Source\PSoC4/ADC_SAR_Seq_1_IRQ.c ****     ADC_SAR_Seq_1_IRQ_SetPriority((uint8)ADC_SAR_Seq_1_IRQ_INTC_PRIOR_NUMBER);
  65:.\Generated_Source\PSoC4/ADC_SAR_Seq_1_IRQ.c **** 
  66:.\Generated_Source\PSoC4/ADC_SAR_Seq_1_IRQ.c ****     /* Enable it. */
  67:.\Generated_Source\PSoC4/ADC_SAR_Seq_1_IRQ.c ****     ADC_SAR_Seq_1_IRQ_Enable();
  68:.\Generated_Source\PSoC4/ADC_SAR_Seq_1_IRQ.c **** }
  69:.\Generated_Source\PSoC4/ADC_SAR_Seq_1_IRQ.c **** 
  70:.\Generated_Source\PSoC4/ADC_SAR_Seq_1_IRQ.c **** 
  71:.\Generated_Source\PSoC4/ADC_SAR_Seq_1_IRQ.c **** /*******************************************************************************
  72:.\Generated_Source\PSoC4/ADC_SAR_Seq_1_IRQ.c **** * Function Name: ADC_SAR_Seq_1_IRQ_StartEx
  73:.\Generated_Source\PSoC4/ADC_SAR_Seq_1_IRQ.c **** ********************************************************************************
  74:.\Generated_Source\PSoC4/ADC_SAR_Seq_1_IRQ.c **** *
  75:.\Generated_Source\PSoC4/ADC_SAR_Seq_1_IRQ.c **** * Summary:
  76:.\Generated_Source\PSoC4/ADC_SAR_Seq_1_IRQ.c **** *  Sets up the interrupt and enables it. This function disables the interrupt,
  77:.\Generated_Source\PSoC4/ADC_SAR_Seq_1_IRQ.c **** *  sets the interrupt vector based on the address passed in, sets the priority 
  78:.\Generated_Source\PSoC4/ADC_SAR_Seq_1_IRQ.c **** *  from the value in the Design Wide Resources Interrupt Editor, then enables 
  79:.\Generated_Source\PSoC4/ADC_SAR_Seq_1_IRQ.c **** *  the interrupt to the interrupt controller.
  80:.\Generated_Source\PSoC4/ADC_SAR_Seq_1_IRQ.c **** *  
  81:.\Generated_Source\PSoC4/ADC_SAR_Seq_1_IRQ.c **** *  When defining ISR functions, the CY_ISR and CY_ISR_PROTO macros should be 
  82:.\Generated_Source\PSoC4/ADC_SAR_Seq_1_IRQ.c **** *  used to provide consistent definition across compilers:
  83:.\Generated_Source\PSoC4/ADC_SAR_Seq_1_IRQ.c **** *  
  84:.\Generated_Source\PSoC4/ADC_SAR_Seq_1_IRQ.c **** *  Function definition example:
  85:.\Generated_Source\PSoC4/ADC_SAR_Seq_1_IRQ.c **** *   CY_ISR(MyISR)
  86:.\Generated_Source\PSoC4/ADC_SAR_Seq_1_IRQ.c **** *   {
  87:.\Generated_Source\PSoC4/ADC_SAR_Seq_1_IRQ.c **** *   }
  88:.\Generated_Source\PSoC4/ADC_SAR_Seq_1_IRQ.c **** *   Function prototype example:
  89:.\Generated_Source\PSoC4/ADC_SAR_Seq_1_IRQ.c **** *   CY_ISR_PROTO(MyISR);
ARM GAS  C:\Users\mitchell\AppData\Local\Temp\ccFuvMeF.s 			page 3


  90:.\Generated_Source\PSoC4/ADC_SAR_Seq_1_IRQ.c **** *
  91:.\Generated_Source\PSoC4/ADC_SAR_Seq_1_IRQ.c **** * Parameters:  
  92:.\Generated_Source\PSoC4/ADC_SAR_Seq_1_IRQ.c **** *   address: Address of the ISR to set in the interrupt vector table.
  93:.\Generated_Source\PSoC4/ADC_SAR_Seq_1_IRQ.c **** *
  94:.\Generated_Source\PSoC4/ADC_SAR_Seq_1_IRQ.c **** * Return:
  95:.\Generated_Source\PSoC4/ADC_SAR_Seq_1_IRQ.c **** *   None
  96:.\Generated_Source\PSoC4/ADC_SAR_Seq_1_IRQ.c **** *
  97:.\Generated_Source\PSoC4/ADC_SAR_Seq_1_IRQ.c **** *******************************************************************************/
  98:.\Generated_Source\PSoC4/ADC_SAR_Seq_1_IRQ.c **** void ADC_SAR_Seq_1_IRQ_StartEx(cyisraddress address)
  99:.\Generated_Source\PSoC4/ADC_SAR_Seq_1_IRQ.c **** {
 100:.\Generated_Source\PSoC4/ADC_SAR_Seq_1_IRQ.c ****     /* For all we know the interrupt is active. */
 101:.\Generated_Source\PSoC4/ADC_SAR_Seq_1_IRQ.c ****     ADC_SAR_Seq_1_IRQ_Disable();
 102:.\Generated_Source\PSoC4/ADC_SAR_Seq_1_IRQ.c **** 
 103:.\Generated_Source\PSoC4/ADC_SAR_Seq_1_IRQ.c ****     /* Set the ISR to point to the ADC_SAR_Seq_1_IRQ Interrupt. */
 104:.\Generated_Source\PSoC4/ADC_SAR_Seq_1_IRQ.c ****     ADC_SAR_Seq_1_IRQ_SetVector(address);
 105:.\Generated_Source\PSoC4/ADC_SAR_Seq_1_IRQ.c **** 
 106:.\Generated_Source\PSoC4/ADC_SAR_Seq_1_IRQ.c ****     /* Set the priority. */
 107:.\Generated_Source\PSoC4/ADC_SAR_Seq_1_IRQ.c ****     ADC_SAR_Seq_1_IRQ_SetPriority((uint8)ADC_SAR_Seq_1_IRQ_INTC_PRIOR_NUMBER);
 108:.\Generated_Source\PSoC4/ADC_SAR_Seq_1_IRQ.c **** 
 109:.\Generated_Source\PSoC4/ADC_SAR_Seq_1_IRQ.c ****     /* Enable it. */
 110:.\Generated_Source\PSoC4/ADC_SAR_Seq_1_IRQ.c ****     ADC_SAR_Seq_1_IRQ_Enable();
 111:.\Generated_Source\PSoC4/ADC_SAR_Seq_1_IRQ.c **** }
 112:.\Generated_Source\PSoC4/ADC_SAR_Seq_1_IRQ.c **** 
 113:.\Generated_Source\PSoC4/ADC_SAR_Seq_1_IRQ.c **** 
 114:.\Generated_Source\PSoC4/ADC_SAR_Seq_1_IRQ.c **** /*******************************************************************************
 115:.\Generated_Source\PSoC4/ADC_SAR_Seq_1_IRQ.c **** * Function Name: ADC_SAR_Seq_1_IRQ_Stop
 116:.\Generated_Source\PSoC4/ADC_SAR_Seq_1_IRQ.c **** ********************************************************************************
 117:.\Generated_Source\PSoC4/ADC_SAR_Seq_1_IRQ.c **** *
 118:.\Generated_Source\PSoC4/ADC_SAR_Seq_1_IRQ.c **** * Summary:
 119:.\Generated_Source\PSoC4/ADC_SAR_Seq_1_IRQ.c **** *   Disables and removes the interrupt.
 120:.\Generated_Source\PSoC4/ADC_SAR_Seq_1_IRQ.c **** *
 121:.\Generated_Source\PSoC4/ADC_SAR_Seq_1_IRQ.c **** * Parameters:  
 122:.\Generated_Source\PSoC4/ADC_SAR_Seq_1_IRQ.c **** *   None
 123:.\Generated_Source\PSoC4/ADC_SAR_Seq_1_IRQ.c **** *
 124:.\Generated_Source\PSoC4/ADC_SAR_Seq_1_IRQ.c **** * Return:
 125:.\Generated_Source\PSoC4/ADC_SAR_Seq_1_IRQ.c **** *   None
 126:.\Generated_Source\PSoC4/ADC_SAR_Seq_1_IRQ.c **** *
 127:.\Generated_Source\PSoC4/ADC_SAR_Seq_1_IRQ.c **** *******************************************************************************/
 128:.\Generated_Source\PSoC4/ADC_SAR_Seq_1_IRQ.c **** void ADC_SAR_Seq_1_IRQ_Stop(void)
 129:.\Generated_Source\PSoC4/ADC_SAR_Seq_1_IRQ.c **** {
 130:.\Generated_Source\PSoC4/ADC_SAR_Seq_1_IRQ.c ****     /* Disable this interrupt. */
 131:.\Generated_Source\PSoC4/ADC_SAR_Seq_1_IRQ.c ****     ADC_SAR_Seq_1_IRQ_Disable();
 132:.\Generated_Source\PSoC4/ADC_SAR_Seq_1_IRQ.c **** 
 133:.\Generated_Source\PSoC4/ADC_SAR_Seq_1_IRQ.c ****     /* Set the ISR to point to the passive one. */
 134:.\Generated_Source\PSoC4/ADC_SAR_Seq_1_IRQ.c ****     ADC_SAR_Seq_1_IRQ_SetVector(&IntDefaultHandler);
 135:.\Generated_Source\PSoC4/ADC_SAR_Seq_1_IRQ.c **** }
 136:.\Generated_Source\PSoC4/ADC_SAR_Seq_1_IRQ.c **** 
 137:.\Generated_Source\PSoC4/ADC_SAR_Seq_1_IRQ.c **** 
 138:.\Generated_Source\PSoC4/ADC_SAR_Seq_1_IRQ.c **** /*******************************************************************************
 139:.\Generated_Source\PSoC4/ADC_SAR_Seq_1_IRQ.c **** * Function Name: ADC_SAR_Seq_1_IRQ_Interrupt
 140:.\Generated_Source\PSoC4/ADC_SAR_Seq_1_IRQ.c **** ********************************************************************************
 141:.\Generated_Source\PSoC4/ADC_SAR_Seq_1_IRQ.c **** *
 142:.\Generated_Source\PSoC4/ADC_SAR_Seq_1_IRQ.c **** * Summary:
 143:.\Generated_Source\PSoC4/ADC_SAR_Seq_1_IRQ.c **** *   The default Interrupt Service Routine for ADC_SAR_Seq_1_IRQ.
 144:.\Generated_Source\PSoC4/ADC_SAR_Seq_1_IRQ.c **** *
 145:.\Generated_Source\PSoC4/ADC_SAR_Seq_1_IRQ.c **** *   Add custom code between the START and END comments to keep the next version
 146:.\Generated_Source\PSoC4/ADC_SAR_Seq_1_IRQ.c **** *   of this file from over-writing your code.
ARM GAS  C:\Users\mitchell\AppData\Local\Temp\ccFuvMeF.s 			page 4


 147:.\Generated_Source\PSoC4/ADC_SAR_Seq_1_IRQ.c **** *
 148:.\Generated_Source\PSoC4/ADC_SAR_Seq_1_IRQ.c **** *   Note You may use either the default ISR by using this API, or you may define
 149:.\Generated_Source\PSoC4/ADC_SAR_Seq_1_IRQ.c **** *   your own separate ISR through ISR_StartEx().
 150:.\Generated_Source\PSoC4/ADC_SAR_Seq_1_IRQ.c **** *
 151:.\Generated_Source\PSoC4/ADC_SAR_Seq_1_IRQ.c **** * Parameters:  
 152:.\Generated_Source\PSoC4/ADC_SAR_Seq_1_IRQ.c **** *   None
 153:.\Generated_Source\PSoC4/ADC_SAR_Seq_1_IRQ.c **** *
 154:.\Generated_Source\PSoC4/ADC_SAR_Seq_1_IRQ.c **** * Return:
 155:.\Generated_Source\PSoC4/ADC_SAR_Seq_1_IRQ.c **** *   None
 156:.\Generated_Source\PSoC4/ADC_SAR_Seq_1_IRQ.c **** *
 157:.\Generated_Source\PSoC4/ADC_SAR_Seq_1_IRQ.c **** *******************************************************************************/
 158:.\Generated_Source\PSoC4/ADC_SAR_Seq_1_IRQ.c **** CY_ISR(ADC_SAR_Seq_1_IRQ_Interrupt)
 159:.\Generated_Source\PSoC4/ADC_SAR_Seq_1_IRQ.c **** {
  26              		.loc 1 159 0
  27              		.cfi_startproc
 160:.\Generated_Source\PSoC4/ADC_SAR_Seq_1_IRQ.c ****     /*  Place your Interrupt code here. */
 161:.\Generated_Source\PSoC4/ADC_SAR_Seq_1_IRQ.c ****     /* `#START ADC_SAR_Seq_1_IRQ_Interrupt` */
 162:.\Generated_Source\PSoC4/ADC_SAR_Seq_1_IRQ.c **** 
 163:.\Generated_Source\PSoC4/ADC_SAR_Seq_1_IRQ.c ****     /* `#END` */
 164:.\Generated_Source\PSoC4/ADC_SAR_Seq_1_IRQ.c **** }
  28              		.loc 1 164 0
  29              		@ sp needed
  30 0000 7047     		bx	lr
  31              		.cfi_endproc
  32              	.LFE3:
  33              		.size	ADC_SAR_Seq_1_IRQ_Interrupt, .-ADC_SAR_Seq_1_IRQ_Interrupt
  34 0002 C046     		.section	.text.ADC_SAR_Seq_1_IRQ_SetVector,"ax",%progbits
  35              		.align	2
  36              		.global	ADC_SAR_Seq_1_IRQ_SetVector
  37              		.code	16
  38              		.thumb_func
  39              		.type	ADC_SAR_Seq_1_IRQ_SetVector, %function
  40              	ADC_SAR_Seq_1_IRQ_SetVector:
  41              	.LFB4:
 165:.\Generated_Source\PSoC4/ADC_SAR_Seq_1_IRQ.c **** 
 166:.\Generated_Source\PSoC4/ADC_SAR_Seq_1_IRQ.c **** 
 167:.\Generated_Source\PSoC4/ADC_SAR_Seq_1_IRQ.c **** /*******************************************************************************
 168:.\Generated_Source\PSoC4/ADC_SAR_Seq_1_IRQ.c **** * Function Name: ADC_SAR_Seq_1_IRQ_SetVector
 169:.\Generated_Source\PSoC4/ADC_SAR_Seq_1_IRQ.c **** ********************************************************************************
 170:.\Generated_Source\PSoC4/ADC_SAR_Seq_1_IRQ.c **** *
 171:.\Generated_Source\PSoC4/ADC_SAR_Seq_1_IRQ.c **** * Summary:
 172:.\Generated_Source\PSoC4/ADC_SAR_Seq_1_IRQ.c **** *   Change the ISR vector for the Interrupt. Note calling ADC_SAR_Seq_1_IRQ_Start
 173:.\Generated_Source\PSoC4/ADC_SAR_Seq_1_IRQ.c **** *   will override any effect this method would have had. To set the vector 
 174:.\Generated_Source\PSoC4/ADC_SAR_Seq_1_IRQ.c **** *   before the component has been started use ADC_SAR_Seq_1_IRQ_StartEx instead.
 175:.\Generated_Source\PSoC4/ADC_SAR_Seq_1_IRQ.c **** * 
 176:.\Generated_Source\PSoC4/ADC_SAR_Seq_1_IRQ.c **** *   When defining ISR functions, the CY_ISR and CY_ISR_PROTO macros should be 
 177:.\Generated_Source\PSoC4/ADC_SAR_Seq_1_IRQ.c **** *   used to provide consistent definition across compilers:
 178:.\Generated_Source\PSoC4/ADC_SAR_Seq_1_IRQ.c **** *
 179:.\Generated_Source\PSoC4/ADC_SAR_Seq_1_IRQ.c **** *   Function definition example:
 180:.\Generated_Source\PSoC4/ADC_SAR_Seq_1_IRQ.c **** *   CY_ISR(MyISR)
 181:.\Generated_Source\PSoC4/ADC_SAR_Seq_1_IRQ.c **** *   {
 182:.\Generated_Source\PSoC4/ADC_SAR_Seq_1_IRQ.c **** *   }
 183:.\Generated_Source\PSoC4/ADC_SAR_Seq_1_IRQ.c **** *
 184:.\Generated_Source\PSoC4/ADC_SAR_Seq_1_IRQ.c **** *   Function prototype example:
 185:.\Generated_Source\PSoC4/ADC_SAR_Seq_1_IRQ.c **** *     CY_ISR_PROTO(MyISR);
 186:.\Generated_Source\PSoC4/ADC_SAR_Seq_1_IRQ.c **** *
 187:.\Generated_Source\PSoC4/ADC_SAR_Seq_1_IRQ.c **** * Parameters:
ARM GAS  C:\Users\mitchell\AppData\Local\Temp\ccFuvMeF.s 			page 5


 188:.\Generated_Source\PSoC4/ADC_SAR_Seq_1_IRQ.c **** *   address: Address of the ISR to set in the interrupt vector table.
 189:.\Generated_Source\PSoC4/ADC_SAR_Seq_1_IRQ.c **** *
 190:.\Generated_Source\PSoC4/ADC_SAR_Seq_1_IRQ.c **** * Return:
 191:.\Generated_Source\PSoC4/ADC_SAR_Seq_1_IRQ.c **** *   None
 192:.\Generated_Source\PSoC4/ADC_SAR_Seq_1_IRQ.c **** *
 193:.\Generated_Source\PSoC4/ADC_SAR_Seq_1_IRQ.c **** *******************************************************************************/
 194:.\Generated_Source\PSoC4/ADC_SAR_Seq_1_IRQ.c **** void ADC_SAR_Seq_1_IRQ_SetVector(cyisraddress address)
 195:.\Generated_Source\PSoC4/ADC_SAR_Seq_1_IRQ.c **** {
  42              		.loc 1 195 0
  43              		.cfi_startproc
  44              	.LVL0:
 196:.\Generated_Source\PSoC4/ADC_SAR_Seq_1_IRQ.c ****     CyRamVectors[CYINT_IRQ_BASE + ADC_SAR_Seq_1_IRQ__INTC_NUMBER] = address;
  45              		.loc 1 196 0
  46 0000 014B     		ldr	r3, .L3
  47 0002 9867     		str	r0, [r3, #120]
 197:.\Generated_Source\PSoC4/ADC_SAR_Seq_1_IRQ.c **** }
  48              		.loc 1 197 0
  49              		@ sp needed
  50 0004 7047     		bx	lr
  51              	.L4:
  52 0006 C046     		.align	2
  53              	.L3:
  54 0008 00000000 		.word	CyRamVectors
  55              		.cfi_endproc
  56              	.LFE4:
  57              		.size	ADC_SAR_Seq_1_IRQ_SetVector, .-ADC_SAR_Seq_1_IRQ_SetVector
  58              		.section	.text.ADC_SAR_Seq_1_IRQ_GetVector,"ax",%progbits
  59              		.align	2
  60              		.global	ADC_SAR_Seq_1_IRQ_GetVector
  61              		.code	16
  62              		.thumb_func
  63              		.type	ADC_SAR_Seq_1_IRQ_GetVector, %function
  64              	ADC_SAR_Seq_1_IRQ_GetVector:
  65              	.LFB5:
 198:.\Generated_Source\PSoC4/ADC_SAR_Seq_1_IRQ.c **** 
 199:.\Generated_Source\PSoC4/ADC_SAR_Seq_1_IRQ.c **** 
 200:.\Generated_Source\PSoC4/ADC_SAR_Seq_1_IRQ.c **** /*******************************************************************************
 201:.\Generated_Source\PSoC4/ADC_SAR_Seq_1_IRQ.c **** * Function Name: ADC_SAR_Seq_1_IRQ_GetVector
 202:.\Generated_Source\PSoC4/ADC_SAR_Seq_1_IRQ.c **** ********************************************************************************
 203:.\Generated_Source\PSoC4/ADC_SAR_Seq_1_IRQ.c **** *
 204:.\Generated_Source\PSoC4/ADC_SAR_Seq_1_IRQ.c **** * Summary:
 205:.\Generated_Source\PSoC4/ADC_SAR_Seq_1_IRQ.c **** *   Gets the "address" of the current ISR vector for the Interrupt.
 206:.\Generated_Source\PSoC4/ADC_SAR_Seq_1_IRQ.c **** *
 207:.\Generated_Source\PSoC4/ADC_SAR_Seq_1_IRQ.c **** * Parameters:
 208:.\Generated_Source\PSoC4/ADC_SAR_Seq_1_IRQ.c **** *   None
 209:.\Generated_Source\PSoC4/ADC_SAR_Seq_1_IRQ.c **** *
 210:.\Generated_Source\PSoC4/ADC_SAR_Seq_1_IRQ.c **** * Return:
 211:.\Generated_Source\PSoC4/ADC_SAR_Seq_1_IRQ.c **** *   Address of the ISR in the interrupt vector table.
 212:.\Generated_Source\PSoC4/ADC_SAR_Seq_1_IRQ.c **** *
 213:.\Generated_Source\PSoC4/ADC_SAR_Seq_1_IRQ.c **** *******************************************************************************/
 214:.\Generated_Source\PSoC4/ADC_SAR_Seq_1_IRQ.c **** cyisraddress ADC_SAR_Seq_1_IRQ_GetVector(void)
 215:.\Generated_Source\PSoC4/ADC_SAR_Seq_1_IRQ.c **** {
  66              		.loc 1 215 0
  67              		.cfi_startproc
 216:.\Generated_Source\PSoC4/ADC_SAR_Seq_1_IRQ.c ****     return CyRamVectors[CYINT_IRQ_BASE + ADC_SAR_Seq_1_IRQ__INTC_NUMBER];
  68              		.loc 1 216 0
  69 0000 014B     		ldr	r3, .L6
ARM GAS  C:\Users\mitchell\AppData\Local\Temp\ccFuvMeF.s 			page 6


  70 0002 986F     		ldr	r0, [r3, #120]
 217:.\Generated_Source\PSoC4/ADC_SAR_Seq_1_IRQ.c **** }
  71              		.loc 1 217 0
  72              		@ sp needed
  73 0004 7047     		bx	lr
  74              	.L7:
  75 0006 C046     		.align	2
  76              	.L6:
  77 0008 00000000 		.word	CyRamVectors
  78              		.cfi_endproc
  79              	.LFE5:
  80              		.size	ADC_SAR_Seq_1_IRQ_GetVector, .-ADC_SAR_Seq_1_IRQ_GetVector
  81              		.section	.text.ADC_SAR_Seq_1_IRQ_SetPriority,"ax",%progbits
  82              		.align	2
  83              		.global	ADC_SAR_Seq_1_IRQ_SetPriority
  84              		.code	16
  85              		.thumb_func
  86              		.type	ADC_SAR_Seq_1_IRQ_SetPriority, %function
  87              	ADC_SAR_Seq_1_IRQ_SetPriority:
  88              	.LFB6:
 218:.\Generated_Source\PSoC4/ADC_SAR_Seq_1_IRQ.c **** 
 219:.\Generated_Source\PSoC4/ADC_SAR_Seq_1_IRQ.c **** 
 220:.\Generated_Source\PSoC4/ADC_SAR_Seq_1_IRQ.c **** /*******************************************************************************
 221:.\Generated_Source\PSoC4/ADC_SAR_Seq_1_IRQ.c **** * Function Name: ADC_SAR_Seq_1_IRQ_SetPriority
 222:.\Generated_Source\PSoC4/ADC_SAR_Seq_1_IRQ.c **** ********************************************************************************
 223:.\Generated_Source\PSoC4/ADC_SAR_Seq_1_IRQ.c **** *
 224:.\Generated_Source\PSoC4/ADC_SAR_Seq_1_IRQ.c **** * Summary:
 225:.\Generated_Source\PSoC4/ADC_SAR_Seq_1_IRQ.c **** *   Sets the Priority of the Interrupt. 
 226:.\Generated_Source\PSoC4/ADC_SAR_Seq_1_IRQ.c **** *
 227:.\Generated_Source\PSoC4/ADC_SAR_Seq_1_IRQ.c **** *   Note calling ADC_SAR_Seq_1_IRQ_Start or ADC_SAR_Seq_1_IRQ_StartEx will 
 228:.\Generated_Source\PSoC4/ADC_SAR_Seq_1_IRQ.c **** *   override any effect this API would have had. This API should only be called
 229:.\Generated_Source\PSoC4/ADC_SAR_Seq_1_IRQ.c **** *   after ADC_SAR_Seq_1_IRQ_Start or ADC_SAR_Seq_1_IRQ_StartEx has been called. 
 230:.\Generated_Source\PSoC4/ADC_SAR_Seq_1_IRQ.c **** *   To set the initial priority for the component, use the Design-Wide Resources
 231:.\Generated_Source\PSoC4/ADC_SAR_Seq_1_IRQ.c **** *   Interrupt Editor.
 232:.\Generated_Source\PSoC4/ADC_SAR_Seq_1_IRQ.c **** *
 233:.\Generated_Source\PSoC4/ADC_SAR_Seq_1_IRQ.c **** *   Note This API has no effect on Non-maskable interrupt NMI).
 234:.\Generated_Source\PSoC4/ADC_SAR_Seq_1_IRQ.c **** *
 235:.\Generated_Source\PSoC4/ADC_SAR_Seq_1_IRQ.c **** * Parameters:
 236:.\Generated_Source\PSoC4/ADC_SAR_Seq_1_IRQ.c **** *   priority: Priority of the interrupt, 0 being the highest priority
 237:.\Generated_Source\PSoC4/ADC_SAR_Seq_1_IRQ.c **** *             PSoC 3 and PSoC 5LP: Priority is from 0 to 7.
 238:.\Generated_Source\PSoC4/ADC_SAR_Seq_1_IRQ.c **** *             PSoC 4: Priority is from 0 to 3.
 239:.\Generated_Source\PSoC4/ADC_SAR_Seq_1_IRQ.c **** *
 240:.\Generated_Source\PSoC4/ADC_SAR_Seq_1_IRQ.c **** * Return:
 241:.\Generated_Source\PSoC4/ADC_SAR_Seq_1_IRQ.c **** *   None
 242:.\Generated_Source\PSoC4/ADC_SAR_Seq_1_IRQ.c **** *
 243:.\Generated_Source\PSoC4/ADC_SAR_Seq_1_IRQ.c **** *******************************************************************************/
 244:.\Generated_Source\PSoC4/ADC_SAR_Seq_1_IRQ.c **** void ADC_SAR_Seq_1_IRQ_SetPriority(uint8 priority)
 245:.\Generated_Source\PSoC4/ADC_SAR_Seq_1_IRQ.c **** {
  89              		.loc 1 245 0
  90              		.cfi_startproc
  91              	.LVL1:
  92 0000 10B5     		push	{r4, lr}
  93              		.cfi_def_cfa_offset 8
  94              		.cfi_offset 4, -8
  95              		.cfi_offset 14, -4
  96 0002 041C     		mov	r4, r0
  97              	.LVL2:
ARM GAS  C:\Users\mitchell\AppData\Local\Temp\ccFuvMeF.s 			page 7


 246:.\Generated_Source\PSoC4/ADC_SAR_Seq_1_IRQ.c **** 	uint8 interruptState;
 247:.\Generated_Source\PSoC4/ADC_SAR_Seq_1_IRQ.c ****     uint32 priorityOffset = ((ADC_SAR_Seq_1_IRQ__INTC_NUMBER % 4u) * 8u) + 6u;
 248:.\Generated_Source\PSoC4/ADC_SAR_Seq_1_IRQ.c ****     
 249:.\Generated_Source\PSoC4/ADC_SAR_Seq_1_IRQ.c **** 	interruptState = CyEnterCriticalSection();
  98              		.loc 1 249 0
  99 0004 FFF7FEFF 		bl	CyEnterCriticalSection
 100              	.LVL3:
 250:.\Generated_Source\PSoC4/ADC_SAR_Seq_1_IRQ.c ****     *ADC_SAR_Seq_1_IRQ_INTC_PRIOR = (*ADC_SAR_Seq_1_IRQ_INTC_PRIOR & (uint32)(~ADC_SAR_Seq_1_IRQ__I
 101              		.loc 1 250 0
 102 0008 054B     		ldr	r3, .L9
 103 000a 1968     		ldr	r1, [r3]
 104 000c 054A     		ldr	r2, .L9+4
 105 000e 1140     		and	r1, r2
 251:.\Generated_Source\PSoC4/ADC_SAR_Seq_1_IRQ.c ****                                     ((uint32)priority << priorityOffset);
 106              		.loc 1 251 0
 107 0010 A205     		lsl	r2, r4, #22
 250:.\Generated_Source\PSoC4/ADC_SAR_Seq_1_IRQ.c ****     *ADC_SAR_Seq_1_IRQ_INTC_PRIOR = (*ADC_SAR_Seq_1_IRQ_INTC_PRIOR & (uint32)(~ADC_SAR_Seq_1_IRQ__I
 108              		.loc 1 250 0
 109 0012 0C1C     		mov	r4, r1
 110 0014 1443     		orr	r4, r2
 111 0016 1C60     		str	r4, [r3]
 252:.\Generated_Source\PSoC4/ADC_SAR_Seq_1_IRQ.c **** 	CyExitCriticalSection(interruptState);
 112              		.loc 1 252 0
 113 0018 FFF7FEFF 		bl	CyExitCriticalSection
 114              	.LVL4:
 253:.\Generated_Source\PSoC4/ADC_SAR_Seq_1_IRQ.c **** }
 115              		.loc 1 253 0
 116              		@ sp needed
 117 001c 10BD     		pop	{r4, pc}
 118              	.L10:
 119 001e C046     		.align	2
 120              	.L9:
 121 0020 0CE400E0 		.word	-536812532
 122 0024 FFFF3FFF 		.word	-12582913
 123              		.cfi_endproc
 124              	.LFE6:
 125              		.size	ADC_SAR_Seq_1_IRQ_SetPriority, .-ADC_SAR_Seq_1_IRQ_SetPriority
 126              		.section	.text.ADC_SAR_Seq_1_IRQ_GetPriority,"ax",%progbits
 127              		.align	2
 128              		.global	ADC_SAR_Seq_1_IRQ_GetPriority
 129              		.code	16
 130              		.thumb_func
 131              		.type	ADC_SAR_Seq_1_IRQ_GetPriority, %function
 132              	ADC_SAR_Seq_1_IRQ_GetPriority:
 133              	.LFB7:
 254:.\Generated_Source\PSoC4/ADC_SAR_Seq_1_IRQ.c **** 
 255:.\Generated_Source\PSoC4/ADC_SAR_Seq_1_IRQ.c **** 
 256:.\Generated_Source\PSoC4/ADC_SAR_Seq_1_IRQ.c **** /*******************************************************************************
 257:.\Generated_Source\PSoC4/ADC_SAR_Seq_1_IRQ.c **** * Function Name: ADC_SAR_Seq_1_IRQ_GetPriority
 258:.\Generated_Source\PSoC4/ADC_SAR_Seq_1_IRQ.c **** ********************************************************************************
 259:.\Generated_Source\PSoC4/ADC_SAR_Seq_1_IRQ.c **** *
 260:.\Generated_Source\PSoC4/ADC_SAR_Seq_1_IRQ.c **** * Summary:
 261:.\Generated_Source\PSoC4/ADC_SAR_Seq_1_IRQ.c **** *   Gets the Priority of the Interrupt.
 262:.\Generated_Source\PSoC4/ADC_SAR_Seq_1_IRQ.c **** *
 263:.\Generated_Source\PSoC4/ADC_SAR_Seq_1_IRQ.c **** * Parameters:
 264:.\Generated_Source\PSoC4/ADC_SAR_Seq_1_IRQ.c **** *   None
 265:.\Generated_Source\PSoC4/ADC_SAR_Seq_1_IRQ.c **** *
ARM GAS  C:\Users\mitchell\AppData\Local\Temp\ccFuvMeF.s 			page 8


 266:.\Generated_Source\PSoC4/ADC_SAR_Seq_1_IRQ.c **** * Return:
 267:.\Generated_Source\PSoC4/ADC_SAR_Seq_1_IRQ.c **** *   Priority of the interrupt, 0 being the highest priority
 268:.\Generated_Source\PSoC4/ADC_SAR_Seq_1_IRQ.c **** *    PSoC 3 and PSoC 5LP: Priority is from 0 to 7.
 269:.\Generated_Source\PSoC4/ADC_SAR_Seq_1_IRQ.c **** *    PSoC 4: Priority is from 0 to 3.
 270:.\Generated_Source\PSoC4/ADC_SAR_Seq_1_IRQ.c **** *
 271:.\Generated_Source\PSoC4/ADC_SAR_Seq_1_IRQ.c **** *******************************************************************************/
 272:.\Generated_Source\PSoC4/ADC_SAR_Seq_1_IRQ.c **** uint8 ADC_SAR_Seq_1_IRQ_GetPriority(void)
 273:.\Generated_Source\PSoC4/ADC_SAR_Seq_1_IRQ.c **** {
 134              		.loc 1 273 0
 135              		.cfi_startproc
 136              	.LVL5:
 274:.\Generated_Source\PSoC4/ADC_SAR_Seq_1_IRQ.c ****     uint32 priority;
 275:.\Generated_Source\PSoC4/ADC_SAR_Seq_1_IRQ.c **** 	uint32 priorityOffset = ((ADC_SAR_Seq_1_IRQ__INTC_NUMBER % 4u) * 8u) + 6u;
 276:.\Generated_Source\PSoC4/ADC_SAR_Seq_1_IRQ.c **** 
 277:.\Generated_Source\PSoC4/ADC_SAR_Seq_1_IRQ.c ****     priority = (*ADC_SAR_Seq_1_IRQ_INTC_PRIOR & ADC_SAR_Seq_1_IRQ__INTC_PRIOR_MASK) >> priorityOffs
 137              		.loc 1 277 0
 138 0000 024B     		ldr	r3, .L12
 139 0002 1868     		ldr	r0, [r3]
 140 0004 0002     		lsl	r0, r0, #8
 141              	.LVL6:
 278:.\Generated_Source\PSoC4/ADC_SAR_Seq_1_IRQ.c **** 
 279:.\Generated_Source\PSoC4/ADC_SAR_Seq_1_IRQ.c ****     return (uint8)priority;
 142              		.loc 1 279 0
 143 0006 800F     		lsr	r0, r0, #30
 144              	.LVL7:
 280:.\Generated_Source\PSoC4/ADC_SAR_Seq_1_IRQ.c **** }
 145              		.loc 1 280 0
 146              		@ sp needed
 147 0008 7047     		bx	lr
 148              	.L13:
 149 000a C046     		.align	2
 150              	.L12:
 151 000c 0CE400E0 		.word	-536812532
 152              		.cfi_endproc
 153              	.LFE7:
 154              		.size	ADC_SAR_Seq_1_IRQ_GetPriority, .-ADC_SAR_Seq_1_IRQ_GetPriority
 155              		.section	.text.ADC_SAR_Seq_1_IRQ_Enable,"ax",%progbits
 156              		.align	2
 157              		.global	ADC_SAR_Seq_1_IRQ_Enable
 158              		.code	16
 159              		.thumb_func
 160              		.type	ADC_SAR_Seq_1_IRQ_Enable, %function
 161              	ADC_SAR_Seq_1_IRQ_Enable:
 162              	.LFB8:
 281:.\Generated_Source\PSoC4/ADC_SAR_Seq_1_IRQ.c **** 
 282:.\Generated_Source\PSoC4/ADC_SAR_Seq_1_IRQ.c **** 
 283:.\Generated_Source\PSoC4/ADC_SAR_Seq_1_IRQ.c **** /*******************************************************************************
 284:.\Generated_Source\PSoC4/ADC_SAR_Seq_1_IRQ.c **** * Function Name: ADC_SAR_Seq_1_IRQ_Enable
 285:.\Generated_Source\PSoC4/ADC_SAR_Seq_1_IRQ.c **** ********************************************************************************
 286:.\Generated_Source\PSoC4/ADC_SAR_Seq_1_IRQ.c **** *
 287:.\Generated_Source\PSoC4/ADC_SAR_Seq_1_IRQ.c **** * Summary:
 288:.\Generated_Source\PSoC4/ADC_SAR_Seq_1_IRQ.c **** *   Enables the interrupt to the interrupt controller. Do not call this function
 289:.\Generated_Source\PSoC4/ADC_SAR_Seq_1_IRQ.c **** *   unless ISR_Start() has been called or the functionality of the ISR_Start() 
 290:.\Generated_Source\PSoC4/ADC_SAR_Seq_1_IRQ.c **** *   function, which sets the vector and the priority, has been called.
 291:.\Generated_Source\PSoC4/ADC_SAR_Seq_1_IRQ.c **** *
 292:.\Generated_Source\PSoC4/ADC_SAR_Seq_1_IRQ.c **** * Parameters:
 293:.\Generated_Source\PSoC4/ADC_SAR_Seq_1_IRQ.c **** *   None
ARM GAS  C:\Users\mitchell\AppData\Local\Temp\ccFuvMeF.s 			page 9


 294:.\Generated_Source\PSoC4/ADC_SAR_Seq_1_IRQ.c **** *
 295:.\Generated_Source\PSoC4/ADC_SAR_Seq_1_IRQ.c **** * Return:
 296:.\Generated_Source\PSoC4/ADC_SAR_Seq_1_IRQ.c **** *   None
 297:.\Generated_Source\PSoC4/ADC_SAR_Seq_1_IRQ.c **** *
 298:.\Generated_Source\PSoC4/ADC_SAR_Seq_1_IRQ.c **** *******************************************************************************/
 299:.\Generated_Source\PSoC4/ADC_SAR_Seq_1_IRQ.c **** void ADC_SAR_Seq_1_IRQ_Enable(void)
 300:.\Generated_Source\PSoC4/ADC_SAR_Seq_1_IRQ.c **** {
 163              		.loc 1 300 0
 164              		.cfi_startproc
 301:.\Generated_Source\PSoC4/ADC_SAR_Seq_1_IRQ.c ****     /* Enable the general interrupt. */
 302:.\Generated_Source\PSoC4/ADC_SAR_Seq_1_IRQ.c ****     *ADC_SAR_Seq_1_IRQ_INTC_SET_EN = ADC_SAR_Seq_1_IRQ__INTC_MASK;
 165              		.loc 1 302 0
 166 0000 8022     		mov	r2, #128
 167 0002 D201     		lsl	r2, r2, #7
 168 0004 014B     		ldr	r3, .L15
 169 0006 1A60     		str	r2, [r3]
 303:.\Generated_Source\PSoC4/ADC_SAR_Seq_1_IRQ.c **** }
 170              		.loc 1 303 0
 171              		@ sp needed
 172 0008 7047     		bx	lr
 173              	.L16:
 174 000a C046     		.align	2
 175              	.L15:
 176 000c 00E100E0 		.word	-536813312
 177              		.cfi_endproc
 178              	.LFE8:
 179              		.size	ADC_SAR_Seq_1_IRQ_Enable, .-ADC_SAR_Seq_1_IRQ_Enable
 180              		.section	.text.ADC_SAR_Seq_1_IRQ_GetState,"ax",%progbits
 181              		.align	2
 182              		.global	ADC_SAR_Seq_1_IRQ_GetState
 183              		.code	16
 184              		.thumb_func
 185              		.type	ADC_SAR_Seq_1_IRQ_GetState, %function
 186              	ADC_SAR_Seq_1_IRQ_GetState:
 187              	.LFB9:
 304:.\Generated_Source\PSoC4/ADC_SAR_Seq_1_IRQ.c **** 
 305:.\Generated_Source\PSoC4/ADC_SAR_Seq_1_IRQ.c **** 
 306:.\Generated_Source\PSoC4/ADC_SAR_Seq_1_IRQ.c **** /*******************************************************************************
 307:.\Generated_Source\PSoC4/ADC_SAR_Seq_1_IRQ.c **** * Function Name: ADC_SAR_Seq_1_IRQ_GetState
 308:.\Generated_Source\PSoC4/ADC_SAR_Seq_1_IRQ.c **** ********************************************************************************
 309:.\Generated_Source\PSoC4/ADC_SAR_Seq_1_IRQ.c **** *
 310:.\Generated_Source\PSoC4/ADC_SAR_Seq_1_IRQ.c **** * Summary:
 311:.\Generated_Source\PSoC4/ADC_SAR_Seq_1_IRQ.c **** *   Gets the state (enabled, disabled) of the Interrupt.
 312:.\Generated_Source\PSoC4/ADC_SAR_Seq_1_IRQ.c **** *
 313:.\Generated_Source\PSoC4/ADC_SAR_Seq_1_IRQ.c **** * Parameters:
 314:.\Generated_Source\PSoC4/ADC_SAR_Seq_1_IRQ.c **** *   None
 315:.\Generated_Source\PSoC4/ADC_SAR_Seq_1_IRQ.c **** *
 316:.\Generated_Source\PSoC4/ADC_SAR_Seq_1_IRQ.c **** * Return:
 317:.\Generated_Source\PSoC4/ADC_SAR_Seq_1_IRQ.c **** *   1 if enabled, 0 if disabled.
 318:.\Generated_Source\PSoC4/ADC_SAR_Seq_1_IRQ.c **** *
 319:.\Generated_Source\PSoC4/ADC_SAR_Seq_1_IRQ.c **** *******************************************************************************/
 320:.\Generated_Source\PSoC4/ADC_SAR_Seq_1_IRQ.c **** uint8 ADC_SAR_Seq_1_IRQ_GetState(void)
 321:.\Generated_Source\PSoC4/ADC_SAR_Seq_1_IRQ.c **** {
 188              		.loc 1 321 0
 189              		.cfi_startproc
 322:.\Generated_Source\PSoC4/ADC_SAR_Seq_1_IRQ.c ****     /* Get the state of the general interrupt. */
 323:.\Generated_Source\PSoC4/ADC_SAR_Seq_1_IRQ.c ****     return ((*ADC_SAR_Seq_1_IRQ_INTC_SET_EN & (uint32)ADC_SAR_Seq_1_IRQ__INTC_MASK) != 0u) ? 1u:0u;
ARM GAS  C:\Users\mitchell\AppData\Local\Temp\ccFuvMeF.s 			page 10


 190              		.loc 1 323 0
 191 0000 034B     		ldr	r3, .L20
 192 0002 1B68     		ldr	r3, [r3]
 193 0004 5A04     		lsl	r2, r3, #17
 194 0006 01D5     		bpl	.L19
 195 0008 0120     		mov	r0, #1
 196 000a 00E0     		b	.L18
 197              	.L19:
 198 000c 0020     		mov	r0, #0
 199              	.L18:
 324:.\Generated_Source\PSoC4/ADC_SAR_Seq_1_IRQ.c **** }
 200              		.loc 1 324 0 discriminator 3
 201              		@ sp needed
 202 000e 7047     		bx	lr
 203              	.L21:
 204              		.align	2
 205              	.L20:
 206 0010 00E100E0 		.word	-536813312
 207              		.cfi_endproc
 208              	.LFE9:
 209              		.size	ADC_SAR_Seq_1_IRQ_GetState, .-ADC_SAR_Seq_1_IRQ_GetState
 210              		.section	.text.ADC_SAR_Seq_1_IRQ_Disable,"ax",%progbits
 211              		.align	2
 212              		.global	ADC_SAR_Seq_1_IRQ_Disable
 213              		.code	16
 214              		.thumb_func
 215              		.type	ADC_SAR_Seq_1_IRQ_Disable, %function
 216              	ADC_SAR_Seq_1_IRQ_Disable:
 217              	.LFB10:
 325:.\Generated_Source\PSoC4/ADC_SAR_Seq_1_IRQ.c **** 
 326:.\Generated_Source\PSoC4/ADC_SAR_Seq_1_IRQ.c **** 
 327:.\Generated_Source\PSoC4/ADC_SAR_Seq_1_IRQ.c **** /*******************************************************************************
 328:.\Generated_Source\PSoC4/ADC_SAR_Seq_1_IRQ.c **** * Function Name: ADC_SAR_Seq_1_IRQ_Disable
 329:.\Generated_Source\PSoC4/ADC_SAR_Seq_1_IRQ.c **** ********************************************************************************
 330:.\Generated_Source\PSoC4/ADC_SAR_Seq_1_IRQ.c **** *
 331:.\Generated_Source\PSoC4/ADC_SAR_Seq_1_IRQ.c **** * Summary:
 332:.\Generated_Source\PSoC4/ADC_SAR_Seq_1_IRQ.c **** *   Disables the Interrupt in the interrupt controller.
 333:.\Generated_Source\PSoC4/ADC_SAR_Seq_1_IRQ.c **** *
 334:.\Generated_Source\PSoC4/ADC_SAR_Seq_1_IRQ.c **** * Parameters:
 335:.\Generated_Source\PSoC4/ADC_SAR_Seq_1_IRQ.c **** *   None
 336:.\Generated_Source\PSoC4/ADC_SAR_Seq_1_IRQ.c **** *
 337:.\Generated_Source\PSoC4/ADC_SAR_Seq_1_IRQ.c **** * Return:
 338:.\Generated_Source\PSoC4/ADC_SAR_Seq_1_IRQ.c **** *   None
 339:.\Generated_Source\PSoC4/ADC_SAR_Seq_1_IRQ.c **** *
 340:.\Generated_Source\PSoC4/ADC_SAR_Seq_1_IRQ.c **** *******************************************************************************/
 341:.\Generated_Source\PSoC4/ADC_SAR_Seq_1_IRQ.c **** void ADC_SAR_Seq_1_IRQ_Disable(void)
 342:.\Generated_Source\PSoC4/ADC_SAR_Seq_1_IRQ.c **** {
 218              		.loc 1 342 0
 219              		.cfi_startproc
 343:.\Generated_Source\PSoC4/ADC_SAR_Seq_1_IRQ.c ****     /* Disable the general interrupt. */
 344:.\Generated_Source\PSoC4/ADC_SAR_Seq_1_IRQ.c ****     *ADC_SAR_Seq_1_IRQ_INTC_CLR_EN = ADC_SAR_Seq_1_IRQ__INTC_MASK;
 220              		.loc 1 344 0
 221 0000 8022     		mov	r2, #128
 222 0002 D201     		lsl	r2, r2, #7
 223 0004 014B     		ldr	r3, .L23
 224 0006 1A60     		str	r2, [r3]
 345:.\Generated_Source\PSoC4/ADC_SAR_Seq_1_IRQ.c **** }
ARM GAS  C:\Users\mitchell\AppData\Local\Temp\ccFuvMeF.s 			page 11


 225              		.loc 1 345 0
 226              		@ sp needed
 227 0008 7047     		bx	lr
 228              	.L24:
 229 000a C046     		.align	2
 230              	.L23:
 231 000c 80E100E0 		.word	-536813184
 232              		.cfi_endproc
 233              	.LFE10:
 234              		.size	ADC_SAR_Seq_1_IRQ_Disable, .-ADC_SAR_Seq_1_IRQ_Disable
 235              		.section	.text.ADC_SAR_Seq_1_IRQ_Start,"ax",%progbits
 236              		.align	2
 237              		.global	ADC_SAR_Seq_1_IRQ_Start
 238              		.code	16
 239              		.thumb_func
 240              		.type	ADC_SAR_Seq_1_IRQ_Start, %function
 241              	ADC_SAR_Seq_1_IRQ_Start:
 242              	.LFB0:
  56:.\Generated_Source\PSoC4/ADC_SAR_Seq_1_IRQ.c **** {
 243              		.loc 1 56 0
 244              		.cfi_startproc
 245 0000 08B5     		push	{r3, lr}
 246              		.cfi_def_cfa_offset 8
 247              		.cfi_offset 3, -8
 248              		.cfi_offset 14, -4
  58:.\Generated_Source\PSoC4/ADC_SAR_Seq_1_IRQ.c ****     ADC_SAR_Seq_1_IRQ_Disable();
 249              		.loc 1 58 0
 250 0002 FFF7FEFF 		bl	ADC_SAR_Seq_1_IRQ_Disable
 251              	.LVL8:
  61:.\Generated_Source\PSoC4/ADC_SAR_Seq_1_IRQ.c ****     ADC_SAR_Seq_1_IRQ_SetVector(&ADC_SAR_Seq_1_IRQ_Interrupt);
 252              		.loc 1 61 0
 253 0006 0448     		ldr	r0, .L26
 254 0008 FFF7FEFF 		bl	ADC_SAR_Seq_1_IRQ_SetVector
 255              	.LVL9:
  64:.\Generated_Source\PSoC4/ADC_SAR_Seq_1_IRQ.c ****     ADC_SAR_Seq_1_IRQ_SetPriority((uint8)ADC_SAR_Seq_1_IRQ_INTC_PRIOR_NUMBER);
 256              		.loc 1 64 0
 257 000c 0320     		mov	r0, #3
 258 000e FFF7FEFF 		bl	ADC_SAR_Seq_1_IRQ_SetPriority
 259              	.LVL10:
  67:.\Generated_Source\PSoC4/ADC_SAR_Seq_1_IRQ.c ****     ADC_SAR_Seq_1_IRQ_Enable();
 260              		.loc 1 67 0
 261 0012 FFF7FEFF 		bl	ADC_SAR_Seq_1_IRQ_Enable
 262              	.LVL11:
  68:.\Generated_Source\PSoC4/ADC_SAR_Seq_1_IRQ.c **** }
 263              		.loc 1 68 0
 264              		@ sp needed
 265 0016 08BD     		pop	{r3, pc}
 266              	.L27:
 267              		.align	2
 268              	.L26:
 269 0018 00000000 		.word	ADC_SAR_Seq_1_IRQ_Interrupt
 270              		.cfi_endproc
 271              	.LFE0:
 272              		.size	ADC_SAR_Seq_1_IRQ_Start, .-ADC_SAR_Seq_1_IRQ_Start
 273              		.section	.text.ADC_SAR_Seq_1_IRQ_StartEx,"ax",%progbits
 274              		.align	2
 275              		.global	ADC_SAR_Seq_1_IRQ_StartEx
ARM GAS  C:\Users\mitchell\AppData\Local\Temp\ccFuvMeF.s 			page 12


 276              		.code	16
 277              		.thumb_func
 278              		.type	ADC_SAR_Seq_1_IRQ_StartEx, %function
 279              	ADC_SAR_Seq_1_IRQ_StartEx:
 280              	.LFB1:
  99:.\Generated_Source\PSoC4/ADC_SAR_Seq_1_IRQ.c **** {
 281              		.loc 1 99 0
 282              		.cfi_startproc
 283              	.LVL12:
 284 0000 10B5     		push	{r4, lr}
 285              		.cfi_def_cfa_offset 8
 286              		.cfi_offset 4, -8
 287              		.cfi_offset 14, -4
 288 0002 041C     		mov	r4, r0
 101:.\Generated_Source\PSoC4/ADC_SAR_Seq_1_IRQ.c ****     ADC_SAR_Seq_1_IRQ_Disable();
 289              		.loc 1 101 0
 290 0004 FFF7FEFF 		bl	ADC_SAR_Seq_1_IRQ_Disable
 291              	.LVL13:
 104:.\Generated_Source\PSoC4/ADC_SAR_Seq_1_IRQ.c ****     ADC_SAR_Seq_1_IRQ_SetVector(address);
 292              		.loc 1 104 0
 293 0008 201C     		mov	r0, r4
 294 000a FFF7FEFF 		bl	ADC_SAR_Seq_1_IRQ_SetVector
 295              	.LVL14:
 107:.\Generated_Source\PSoC4/ADC_SAR_Seq_1_IRQ.c ****     ADC_SAR_Seq_1_IRQ_SetPriority((uint8)ADC_SAR_Seq_1_IRQ_INTC_PRIOR_NUMBER);
 296              		.loc 1 107 0
 297 000e 0320     		mov	r0, #3
 298 0010 FFF7FEFF 		bl	ADC_SAR_Seq_1_IRQ_SetPriority
 299              	.LVL15:
 110:.\Generated_Source\PSoC4/ADC_SAR_Seq_1_IRQ.c ****     ADC_SAR_Seq_1_IRQ_Enable();
 300              		.loc 1 110 0
 301 0014 FFF7FEFF 		bl	ADC_SAR_Seq_1_IRQ_Enable
 302              	.LVL16:
 111:.\Generated_Source\PSoC4/ADC_SAR_Seq_1_IRQ.c **** }
 303              		.loc 1 111 0
 304              		@ sp needed
 305              	.LVL17:
 306 0018 10BD     		pop	{r4, pc}
 307              		.cfi_endproc
 308              	.LFE1:
 309              		.size	ADC_SAR_Seq_1_IRQ_StartEx, .-ADC_SAR_Seq_1_IRQ_StartEx
 310 001a C046     		.section	.text.ADC_SAR_Seq_1_IRQ_Stop,"ax",%progbits
 311              		.align	2
 312              		.global	ADC_SAR_Seq_1_IRQ_Stop
 313              		.code	16
 314              		.thumb_func
 315              		.type	ADC_SAR_Seq_1_IRQ_Stop, %function
 316              	ADC_SAR_Seq_1_IRQ_Stop:
 317              	.LFB2:
 129:.\Generated_Source\PSoC4/ADC_SAR_Seq_1_IRQ.c **** {
 318              		.loc 1 129 0
 319              		.cfi_startproc
 320 0000 08B5     		push	{r3, lr}
 321              		.cfi_def_cfa_offset 8
 322              		.cfi_offset 3, -8
 323              		.cfi_offset 14, -4
 131:.\Generated_Source\PSoC4/ADC_SAR_Seq_1_IRQ.c ****     ADC_SAR_Seq_1_IRQ_Disable();
 324              		.loc 1 131 0
ARM GAS  C:\Users\mitchell\AppData\Local\Temp\ccFuvMeF.s 			page 13


 325 0002 FFF7FEFF 		bl	ADC_SAR_Seq_1_IRQ_Disable
 326              	.LVL18:
 134:.\Generated_Source\PSoC4/ADC_SAR_Seq_1_IRQ.c ****     ADC_SAR_Seq_1_IRQ_SetVector(&IntDefaultHandler);
 327              		.loc 1 134 0
 328 0006 0248     		ldr	r0, .L30
 329 0008 FFF7FEFF 		bl	ADC_SAR_Seq_1_IRQ_SetVector
 330              	.LVL19:
 135:.\Generated_Source\PSoC4/ADC_SAR_Seq_1_IRQ.c **** }
 331              		.loc 1 135 0
 332              		@ sp needed
 333 000c 08BD     		pop	{r3, pc}
 334              	.L31:
 335 000e C046     		.align	2
 336              	.L30:
 337 0010 00000000 		.word	IntDefaultHandler
 338              		.cfi_endproc
 339              	.LFE2:
 340              		.size	ADC_SAR_Seq_1_IRQ_Stop, .-ADC_SAR_Seq_1_IRQ_Stop
 341              		.section	.text.ADC_SAR_Seq_1_IRQ_SetPending,"ax",%progbits
 342              		.align	2
 343              		.global	ADC_SAR_Seq_1_IRQ_SetPending
 344              		.code	16
 345              		.thumb_func
 346              		.type	ADC_SAR_Seq_1_IRQ_SetPending, %function
 347              	ADC_SAR_Seq_1_IRQ_SetPending:
 348              	.LFB11:
 346:.\Generated_Source\PSoC4/ADC_SAR_Seq_1_IRQ.c **** 
 347:.\Generated_Source\PSoC4/ADC_SAR_Seq_1_IRQ.c **** 
 348:.\Generated_Source\PSoC4/ADC_SAR_Seq_1_IRQ.c **** /*******************************************************************************
 349:.\Generated_Source\PSoC4/ADC_SAR_Seq_1_IRQ.c **** * Function Name: ADC_SAR_Seq_1_IRQ_SetPending
 350:.\Generated_Source\PSoC4/ADC_SAR_Seq_1_IRQ.c **** ********************************************************************************
 351:.\Generated_Source\PSoC4/ADC_SAR_Seq_1_IRQ.c **** *
 352:.\Generated_Source\PSoC4/ADC_SAR_Seq_1_IRQ.c **** * Summary:
 353:.\Generated_Source\PSoC4/ADC_SAR_Seq_1_IRQ.c **** *   Causes the Interrupt to enter the pending state, a software method of
 354:.\Generated_Source\PSoC4/ADC_SAR_Seq_1_IRQ.c **** *   generating the interrupt.
 355:.\Generated_Source\PSoC4/ADC_SAR_Seq_1_IRQ.c **** *
 356:.\Generated_Source\PSoC4/ADC_SAR_Seq_1_IRQ.c **** * Parameters:
 357:.\Generated_Source\PSoC4/ADC_SAR_Seq_1_IRQ.c **** *   None
 358:.\Generated_Source\PSoC4/ADC_SAR_Seq_1_IRQ.c **** *
 359:.\Generated_Source\PSoC4/ADC_SAR_Seq_1_IRQ.c **** * Return:
 360:.\Generated_Source\PSoC4/ADC_SAR_Seq_1_IRQ.c **** *   None
 361:.\Generated_Source\PSoC4/ADC_SAR_Seq_1_IRQ.c **** *
 362:.\Generated_Source\PSoC4/ADC_SAR_Seq_1_IRQ.c **** * Side Effects:
 363:.\Generated_Source\PSoC4/ADC_SAR_Seq_1_IRQ.c **** *   If interrupts are enabled and the interrupt is set up properly, the ISR is
 364:.\Generated_Source\PSoC4/ADC_SAR_Seq_1_IRQ.c **** *   entered (depending on the priority of this interrupt and other pending 
 365:.\Generated_Source\PSoC4/ADC_SAR_Seq_1_IRQ.c **** *   interrupts).
 366:.\Generated_Source\PSoC4/ADC_SAR_Seq_1_IRQ.c **** *
 367:.\Generated_Source\PSoC4/ADC_SAR_Seq_1_IRQ.c **** *******************************************************************************/
 368:.\Generated_Source\PSoC4/ADC_SAR_Seq_1_IRQ.c **** void ADC_SAR_Seq_1_IRQ_SetPending(void)
 369:.\Generated_Source\PSoC4/ADC_SAR_Seq_1_IRQ.c **** {
 349              		.loc 1 369 0
 350              		.cfi_startproc
 370:.\Generated_Source\PSoC4/ADC_SAR_Seq_1_IRQ.c ****     *ADC_SAR_Seq_1_IRQ_INTC_SET_PD = ADC_SAR_Seq_1_IRQ__INTC_MASK;
 351              		.loc 1 370 0
 352 0000 8022     		mov	r2, #128
 353 0002 D201     		lsl	r2, r2, #7
 354 0004 014B     		ldr	r3, .L33
ARM GAS  C:\Users\mitchell\AppData\Local\Temp\ccFuvMeF.s 			page 14


 355 0006 1A60     		str	r2, [r3]
 371:.\Generated_Source\PSoC4/ADC_SAR_Seq_1_IRQ.c **** }
 356              		.loc 1 371 0
 357              		@ sp needed
 358 0008 7047     		bx	lr
 359              	.L34:
 360 000a C046     		.align	2
 361              	.L33:
 362 000c 00E200E0 		.word	-536813056
 363              		.cfi_endproc
 364              	.LFE11:
 365              		.size	ADC_SAR_Seq_1_IRQ_SetPending, .-ADC_SAR_Seq_1_IRQ_SetPending
 366              		.section	.text.ADC_SAR_Seq_1_IRQ_ClearPending,"ax",%progbits
 367              		.align	2
 368              		.global	ADC_SAR_Seq_1_IRQ_ClearPending
 369              		.code	16
 370              		.thumb_func
 371              		.type	ADC_SAR_Seq_1_IRQ_ClearPending, %function
 372              	ADC_SAR_Seq_1_IRQ_ClearPending:
 373              	.LFB12:
 372:.\Generated_Source\PSoC4/ADC_SAR_Seq_1_IRQ.c **** 
 373:.\Generated_Source\PSoC4/ADC_SAR_Seq_1_IRQ.c **** 
 374:.\Generated_Source\PSoC4/ADC_SAR_Seq_1_IRQ.c **** /*******************************************************************************
 375:.\Generated_Source\PSoC4/ADC_SAR_Seq_1_IRQ.c **** * Function Name: ADC_SAR_Seq_1_IRQ_ClearPending
 376:.\Generated_Source\PSoC4/ADC_SAR_Seq_1_IRQ.c **** ********************************************************************************
 377:.\Generated_Source\PSoC4/ADC_SAR_Seq_1_IRQ.c **** *
 378:.\Generated_Source\PSoC4/ADC_SAR_Seq_1_IRQ.c **** * Summary:
 379:.\Generated_Source\PSoC4/ADC_SAR_Seq_1_IRQ.c **** *   Clears a pending interrupt in the interrupt controller.
 380:.\Generated_Source\PSoC4/ADC_SAR_Seq_1_IRQ.c **** *
 381:.\Generated_Source\PSoC4/ADC_SAR_Seq_1_IRQ.c **** *   Note Some interrupt sources are clear-on-read and require the block 
 382:.\Generated_Source\PSoC4/ADC_SAR_Seq_1_IRQ.c **** *   interrupt/status register to be read/cleared with the appropriate block API 
 383:.\Generated_Source\PSoC4/ADC_SAR_Seq_1_IRQ.c **** *   (GPIO, UART, and so on). Otherwise the ISR will continue to remain in 
 384:.\Generated_Source\PSoC4/ADC_SAR_Seq_1_IRQ.c **** *   pending state even though the interrupt itself is cleared using this API.
 385:.\Generated_Source\PSoC4/ADC_SAR_Seq_1_IRQ.c **** *
 386:.\Generated_Source\PSoC4/ADC_SAR_Seq_1_IRQ.c **** * Parameters:
 387:.\Generated_Source\PSoC4/ADC_SAR_Seq_1_IRQ.c **** *   None
 388:.\Generated_Source\PSoC4/ADC_SAR_Seq_1_IRQ.c **** *
 389:.\Generated_Source\PSoC4/ADC_SAR_Seq_1_IRQ.c **** * Return:
 390:.\Generated_Source\PSoC4/ADC_SAR_Seq_1_IRQ.c **** *   None
 391:.\Generated_Source\PSoC4/ADC_SAR_Seq_1_IRQ.c **** *
 392:.\Generated_Source\PSoC4/ADC_SAR_Seq_1_IRQ.c **** *******************************************************************************/
 393:.\Generated_Source\PSoC4/ADC_SAR_Seq_1_IRQ.c **** void ADC_SAR_Seq_1_IRQ_ClearPending(void)
 394:.\Generated_Source\PSoC4/ADC_SAR_Seq_1_IRQ.c **** {
 374              		.loc 1 394 0
 375              		.cfi_startproc
 395:.\Generated_Source\PSoC4/ADC_SAR_Seq_1_IRQ.c ****     *ADC_SAR_Seq_1_IRQ_INTC_CLR_PD = ADC_SAR_Seq_1_IRQ__INTC_MASK;
 376              		.loc 1 395 0
 377 0000 8022     		mov	r2, #128
 378 0002 D201     		lsl	r2, r2, #7
 379 0004 014B     		ldr	r3, .L36
 380 0006 1A60     		str	r2, [r3]
 396:.\Generated_Source\PSoC4/ADC_SAR_Seq_1_IRQ.c **** }
 381              		.loc 1 396 0
 382              		@ sp needed
 383 0008 7047     		bx	lr
 384              	.L37:
 385 000a C046     		.align	2
ARM GAS  C:\Users\mitchell\AppData\Local\Temp\ccFuvMeF.s 			page 15


 386              	.L36:
 387 000c 80E200E0 		.word	-536812928
 388              		.cfi_endproc
 389              	.LFE12:
 390              		.size	ADC_SAR_Seq_1_IRQ_ClearPending, .-ADC_SAR_Seq_1_IRQ_ClearPending
 391              		.text
 392              	.Letext0:
 393              		.file 2 "Generated_Source\\PSoC4/cytypes.h"
 394              		.file 3 "Generated_Source\\PSoC4/CyLib.h"