ARM GAS  C:\Users\mitchell\AppData\Local\Temp\ccgDSw8z.s 			page 1


   1              		.cpu cortex-m0
   2              		.fpu softvfp
   3              		.eabi_attribute 20, 1
   4              		.eabi_attribute 21, 1
   5              		.eabi_attribute 23, 3
   6              		.eabi_attribute 24, 1
   7              		.eabi_attribute 25, 1
   8              		.eabi_attribute 26, 1
   9              		.eabi_attribute 30, 1
  10              		.eabi_attribute 34, 0
  11              		.eabi_attribute 18, 4
  12              		.code	16
  13              		.file	"CyFlash.c"
  14              		.text
  15              	.Ltext0:
  16              		.cfi_sections	.debug_frame
  17              		.section	.text.CySysFlashClockBackup,"ax",%progbits
  18              		.align	2
  19              		.code	16
  20              		.thumb_func
  21              		.type	CySysFlashClockBackup, %function
  22              	CySysFlashClockBackup:
  23              	.LFB2:
  24              		.file 1 ".\\Generated_Source\\PSoC4\\CyFlash.c"
   1:.\Generated_Source\PSoC4/CyFlash.c **** /*******************************************************************************
   2:.\Generated_Source\PSoC4/CyFlash.c **** * File Name: CyFlash.c
   3:.\Generated_Source\PSoC4/CyFlash.c **** * Version 5.10
   4:.\Generated_Source\PSoC4/CyFlash.c **** *
   5:.\Generated_Source\PSoC4/CyFlash.c **** *  Description:
   6:.\Generated_Source\PSoC4/CyFlash.c **** *   Provides an API for the FLASH.
   7:.\Generated_Source\PSoC4/CyFlash.c **** *
   8:.\Generated_Source\PSoC4/CyFlash.c **** *  Note:
   9:.\Generated_Source\PSoC4/CyFlash.c **** *   This code is endian agnostic.
  10:.\Generated_Source\PSoC4/CyFlash.c **** *
  11:.\Generated_Source\PSoC4/CyFlash.c **** *  Note:
  12:.\Generated_Source\PSoC4/CyFlash.c **** *   Documentation of the API's in this file is located in the
  13:.\Generated_Source\PSoC4/CyFlash.c **** *   System Reference Guide provided with PSoC Creator.
  14:.\Generated_Source\PSoC4/CyFlash.c **** *
  15:.\Generated_Source\PSoC4/CyFlash.c **** ********************************************************************************
  16:.\Generated_Source\PSoC4/CyFlash.c **** * Copyright 2010-2015, Cypress Semiconductor Corporation.  All rights reserved.
  17:.\Generated_Source\PSoC4/CyFlash.c **** * You may use this file only in accordance with the license, terms, conditions,
  18:.\Generated_Source\PSoC4/CyFlash.c **** * disclaimers, and limitations in the end user license agreement accompanying
  19:.\Generated_Source\PSoC4/CyFlash.c **** * the software package with which this file was provided.
  20:.\Generated_Source\PSoC4/CyFlash.c **** *******************************************************************************/
  21:.\Generated_Source\PSoC4/CyFlash.c **** 
  22:.\Generated_Source\PSoC4/CyFlash.c **** #include "CyFlash.h"
  23:.\Generated_Source\PSoC4/CyFlash.c **** 
  24:.\Generated_Source\PSoC4/CyFlash.c **** 
  25:.\Generated_Source\PSoC4/CyFlash.c **** /*******************************************************************************
  26:.\Generated_Source\PSoC4/CyFlash.c **** * Cypress identified a defect with the Flash write functionality of the
  27:.\Generated_Source\PSoC4/CyFlash.c **** * PSoC 4000, PSoC 4100, and PSoC 4200 devices. The CySysFlashWriteRow() function
  28:.\Generated_Source\PSoC4/CyFlash.c **** * now checks the data to be written and, if necessary, modifies it to have a
  29:.\Generated_Source\PSoC4/CyFlash.c **** * non-zero checksum. After writing to Flash, the modified data is replaced
  30:.\Generated_Source\PSoC4/CyFlash.c **** * (Flash program) with the correct (original) data.
  31:.\Generated_Source\PSoC4/CyFlash.c **** *******************************************************************************/
  32:.\Generated_Source\PSoC4/CyFlash.c **** #define CY_FLASH_CHECKSUM_WORKAROUND    (CY_PSOC4_4000 || CY_PSOC4_4100 || CY_PSOC4_4200)
  33:.\Generated_Source\PSoC4/CyFlash.c **** 
ARM GAS  C:\Users\mitchell\AppData\Local\Temp\ccgDSw8z.s 			page 2


  34:.\Generated_Source\PSoC4/CyFlash.c **** #if (CY_IP_FM || ((!CY_PSOC4_4000) && CY_IP_SPCIF_SYNCHRONOUS) || (!CY_IP_FM) && CY_PSOC4_4000)
  35:.\Generated_Source\PSoC4/CyFlash.c ****     static CY_SYS_FLASH_CLOCK_BACKUP_STRUCT cySysFlashBackup;
  36:.\Generated_Source\PSoC4/CyFlash.c **** #endif /* (CY_IP_FM || ((!CY_PSOC4_4000) && CY_IP_SPCIF_SYNCHRONOUS) || (!CY_IP_FM) && CY_PSOC4_400
  37:.\Generated_Source\PSoC4/CyFlash.c **** 
  38:.\Generated_Source\PSoC4/CyFlash.c **** static cystatus CySysFlashClockBackup(void);
  39:.\Generated_Source\PSoC4/CyFlash.c **** static cystatus CySysFlashClockRestore(void);
  40:.\Generated_Source\PSoC4/CyFlash.c **** #if(CY_IP_SPCIF_SYNCHRONOUS)
  41:.\Generated_Source\PSoC4/CyFlash.c ****     static cystatus CySysFlashClockConfig(void);
  42:.\Generated_Source\PSoC4/CyFlash.c **** #endif  /* (CY_IP_SPCIF_SYNCHRONOUS) */
  43:.\Generated_Source\PSoC4/CyFlash.c **** 
  44:.\Generated_Source\PSoC4/CyFlash.c **** 
  45:.\Generated_Source\PSoC4/CyFlash.c **** /*******************************************************************************
  46:.\Generated_Source\PSoC4/CyFlash.c **** * Function Name: CySysFlashWriteRow
  47:.\Generated_Source\PSoC4/CyFlash.c **** ********************************************************************************
  48:.\Generated_Source\PSoC4/CyFlash.c **** *
  49:.\Generated_Source\PSoC4/CyFlash.c **** * Summary:
  50:.\Generated_Source\PSoC4/CyFlash.c **** *  Erases a row of Flash and programs it with the new data.
  51:.\Generated_Source\PSoC4/CyFlash.c **** *
  52:.\Generated_Source\PSoC4/CyFlash.c **** * Parameters:
  53:.\Generated_Source\PSoC4/CyFlash.c **** *  uint16 rowNum:
  54:.\Generated_Source\PSoC4/CyFlash.c **** *   The flash row number. The number of the flash rows is defined by the
  55:.\Generated_Source\PSoC4/CyFlash.c **** *   CY_FLASH_NUMBER_ROWS macro for the selected device. Refer to the device
  56:.\Generated_Source\PSoC4/CyFlash.c **** *   datasheet for the details.
  57:.\Generated_Source\PSoC4/CyFlash.c **** *
  58:.\Generated_Source\PSoC4/CyFlash.c **** *  uint8* rowData:
  59:.\Generated_Source\PSoC4/CyFlash.c **** *   Array of bytes to write. The size of the array must be equal to the flash
  60:.\Generated_Source\PSoC4/CyFlash.c **** *   row size. The flash row size for the selected device is defined by
  61:.\Generated_Source\PSoC4/CyFlash.c **** *   the CY_FLASH_SIZEOF_ROW macro. Refer to the device datasheet for the
  62:.\Generated_Source\PSoC4/CyFlash.c **** *   details.
  63:.\Generated_Source\PSoC4/CyFlash.c **** *
  64:.\Generated_Source\PSoC4/CyFlash.c **** * Return:
  65:.\Generated_Source\PSoC4/CyFlash.c **** *  Status
  66:.\Generated_Source\PSoC4/CyFlash.c **** *     Value                     Description
  67:.\Generated_Source\PSoC4/CyFlash.c **** *    CY_SYS_FLASH_SUCCESS           Successful
  68:.\Generated_Source\PSoC4/CyFlash.c **** *    CY_SYS_FLASH_INVALID_ADDR      Specified flash row address is invalid
  69:.\Generated_Source\PSoC4/CyFlash.c **** *    CY_SYS_FLASH_PROTECTED         Specified flash row is protected
  70:.\Generated_Source\PSoC4/CyFlash.c **** *    Other non-zero                 Failure
  71:.\Generated_Source\PSoC4/CyFlash.c **** *
  72:.\Generated_Source\PSoC4/CyFlash.c **** * Side Effects:
  73:.\Generated_Source\PSoC4/CyFlash.c **** *   The IMO must be enabled before calling this function. The operation of the
  74:.\Generated_Source\PSoC4/CyFlash.c **** *   flash writing hardware is dependent on the IMO.
  75:.\Generated_Source\PSoC4/CyFlash.c **** *
  76:.\Generated_Source\PSoC4/CyFlash.c **** *   For PSoC 4000, PSoC 4100 BLE and PSoC 4200 BLE devices (PSoC 4100 BLE and
  77:.\Generated_Source\PSoC4/CyFlash.c **** *   PSoC 4200 BLE devices with 256K of Flash memory are not affected), this API
  78:.\Generated_Source\PSoC4/CyFlash.c **** *   will automatically modify the clock settings for the device. Writing to
  79:.\Generated_Source\PSoC4/CyFlash.c **** *   flash requires that changes be made to the IMO and HFCLK settings. The
  80:.\Generated_Source\PSoC4/CyFlash.c **** *   configuration is restored before returning. This will impact the operation
  81:.\Generated_Source\PSoC4/CyFlash.c **** *   of most of the hardware in the device.
  82:.\Generated_Source\PSoC4/CyFlash.c **** *
  83:.\Generated_Source\PSoC4/CyFlash.c **** *   For PSoC 4000 devices this API will automatically modify the clock settings
  84:.\Generated_Source\PSoC4/CyFlash.c **** *   for the device. Writing to flash requires that changes be made to the IMO
  85:.\Generated_Source\PSoC4/CyFlash.c **** *   and HFCLK settings. The configuration is restored before returning. HFCLK
  86:.\Generated_Source\PSoC4/CyFlash.c **** *   will have several frequency changes during the operation of this API between
  87:.\Generated_Source\PSoC4/CyFlash.c **** *   a minimum frequency of the current IMO frequency divided by 8 and a maximum
  88:.\Generated_Source\PSoC4/CyFlash.c **** *   frequency of 12 MHz. This will impact the operation of most of the hardware
  89:.\Generated_Source\PSoC4/CyFlash.c **** *   in the device.
  90:.\Generated_Source\PSoC4/CyFlash.c **** *
ARM GAS  C:\Users\mitchell\AppData\Local\Temp\ccgDSw8z.s 			page 3


  91:.\Generated_Source\PSoC4/CyFlash.c **** *******************************************************************************/
  92:.\Generated_Source\PSoC4/CyFlash.c **** uint32 CySysFlashWriteRow(uint32 rowNum, const uint8 rowData[])
  93:.\Generated_Source\PSoC4/CyFlash.c **** {
  94:.\Generated_Source\PSoC4/CyFlash.c ****     volatile uint32 retValue = CY_SYS_FLASH_SUCCESS;
  95:.\Generated_Source\PSoC4/CyFlash.c ****     volatile uint32 clkCnfRetValue = CY_SYS_FLASH_SUCCESS;
  96:.\Generated_Source\PSoC4/CyFlash.c ****     volatile uint32 parameters[(CY_FLASH_SIZEOF_ROW + CY_FLASH_SRAM_ROM_DATA) / sizeof(uint32)];
  97:.\Generated_Source\PSoC4/CyFlash.c ****     uint8  interruptState;
  98:.\Generated_Source\PSoC4/CyFlash.c **** 
  99:.\Generated_Source\PSoC4/CyFlash.c ****     #if (CY_FLASH_CHECKSUM_WORKAROUND)
 100:.\Generated_Source\PSoC4/CyFlash.c ****         uint32 needChecksumWorkaround = 0u;
 101:.\Generated_Source\PSoC4/CyFlash.c ****         uint32 savedIndex = 0u;
 102:.\Generated_Source\PSoC4/CyFlash.c ****         uint32 savedValue = 0u;
 103:.\Generated_Source\PSoC4/CyFlash.c ****         uint32 checksum = 0u;
 104:.\Generated_Source\PSoC4/CyFlash.c ****         uint32 bits = 0u;
 105:.\Generated_Source\PSoC4/CyFlash.c ****         uint32 i;
 106:.\Generated_Source\PSoC4/CyFlash.c ****     #endif  /* (CY_FLASH_CHECKSUM_WORKAROUND) */
 107:.\Generated_Source\PSoC4/CyFlash.c **** 
 108:.\Generated_Source\PSoC4/CyFlash.c ****     if ((rowNum < CY_FLASH_NUMBER_ROWS) && (rowData != 0u))
 109:.\Generated_Source\PSoC4/CyFlash.c ****     {
 110:.\Generated_Source\PSoC4/CyFlash.c ****         /* Copy data to be written into internal variable */
 111:.\Generated_Source\PSoC4/CyFlash.c ****         (void)memcpy((void *)&parameters[2u], rowData, CY_FLASH_SIZEOF_ROW);
 112:.\Generated_Source\PSoC4/CyFlash.c **** 
 113:.\Generated_Source\PSoC4/CyFlash.c ****         #if (CY_FLASH_CHECKSUM_WORKAROUND)
 114:.\Generated_Source\PSoC4/CyFlash.c **** 
 115:.\Generated_Source\PSoC4/CyFlash.c ****             for (i = 2u; i < ((CY_FLASH_SIZEOF_ROW / sizeof(uint32)) + 2u); i++)
 116:.\Generated_Source\PSoC4/CyFlash.c ****             {
 117:.\Generated_Source\PSoC4/CyFlash.c ****                 uint32 tmp = parameters[i];
 118:.\Generated_Source\PSoC4/CyFlash.c ****                 if (tmp != 0u)
 119:.\Generated_Source\PSoC4/CyFlash.c ****                 {
 120:.\Generated_Source\PSoC4/CyFlash.c ****                     checksum += tmp;
 121:.\Generated_Source\PSoC4/CyFlash.c ****                     bits |= tmp;
 122:.\Generated_Source\PSoC4/CyFlash.c ****                     savedIndex = i;
 123:.\Generated_Source\PSoC4/CyFlash.c ****                 }
 124:.\Generated_Source\PSoC4/CyFlash.c ****             }
 125:.\Generated_Source\PSoC4/CyFlash.c **** 
 126:.\Generated_Source\PSoC4/CyFlash.c ****             needChecksumWorkaround = ((checksum == 0u) && (bits != 0u)) ? 1u : 0u;
 127:.\Generated_Source\PSoC4/CyFlash.c ****             if (needChecksumWorkaround != 0u)
 128:.\Generated_Source\PSoC4/CyFlash.c ****             {
 129:.\Generated_Source\PSoC4/CyFlash.c ****                 savedValue = parameters[savedIndex];
 130:.\Generated_Source\PSoC4/CyFlash.c ****                 parameters[savedIndex] = 0u;
 131:.\Generated_Source\PSoC4/CyFlash.c ****             }
 132:.\Generated_Source\PSoC4/CyFlash.c ****         #endif  /* (CY_FLASH_CHECKSUM_WORKAROUND) */
 133:.\Generated_Source\PSoC4/CyFlash.c **** 
 134:.\Generated_Source\PSoC4/CyFlash.c ****         /* Load Flash Bytes */
 135:.\Generated_Source\PSoC4/CyFlash.c ****         parameters[0u] = (uint32) (CY_FLASH_GET_MACRO_FROM_ROW(rowNum)        << CY_FLASH_PARAM_MAC
 136:.\Generated_Source\PSoC4/CyFlash.c ****                          (uint32) (CY_FLASH_PAGE_LATCH_START_ADDR             << CY_FLASH_PARAM_ADD
 137:.\Generated_Source\PSoC4/CyFlash.c ****                          (uint32) (CY_FLASH_KEY_TWO(CY_FLASH_API_OPCODE_LOAD) << CY_FLASH_PARAM_KEY
 138:.\Generated_Source\PSoC4/CyFlash.c ****                          CY_FLASH_KEY_ONE;
 139:.\Generated_Source\PSoC4/CyFlash.c ****         parameters[1u] = CY_FLASH_SIZEOF_ROW - 1u;
 140:.\Generated_Source\PSoC4/CyFlash.c **** 
 141:.\Generated_Source\PSoC4/CyFlash.c ****         CY_FLASH_CPUSS_SYSARG_REG = (uint32) &parameters[0u];
 142:.\Generated_Source\PSoC4/CyFlash.c ****         CY_FLASH_CPUSS_SYSREQ_REG = CY_FLASH_CPUSS_REQ_START | CY_FLASH_API_OPCODE_LOAD;
 143:.\Generated_Source\PSoC4/CyFlash.c ****         retValue = CY_FLASH_API_RETURN;
 144:.\Generated_Source\PSoC4/CyFlash.c **** 
 145:.\Generated_Source\PSoC4/CyFlash.c ****         if(retValue == CY_SYS_FLASH_SUCCESS)
 146:.\Generated_Source\PSoC4/CyFlash.c ****         {
 147:.\Generated_Source\PSoC4/CyFlash.c ****             /***************************************************************
ARM GAS  C:\Users\mitchell\AppData\Local\Temp\ccgDSw8z.s 			page 4


 148:.\Generated_Source\PSoC4/CyFlash.c ****             * Mask all the exceptions to guarantee that Flash write will
 149:.\Generated_Source\PSoC4/CyFlash.c ****             * occur in the atomic way. It will not affect system call
 150:.\Generated_Source\PSoC4/CyFlash.c ****             * execution (flash row write) since it is executed in the NMI
 151:.\Generated_Source\PSoC4/CyFlash.c ****             * context.
 152:.\Generated_Source\PSoC4/CyFlash.c ****             ***************************************************************/
 153:.\Generated_Source\PSoC4/CyFlash.c ****             interruptState = CyEnterCriticalSection();
 154:.\Generated_Source\PSoC4/CyFlash.c **** 
 155:.\Generated_Source\PSoC4/CyFlash.c ****             clkCnfRetValue = CySysFlashClockBackup();
 156:.\Generated_Source\PSoC4/CyFlash.c **** 
 157:.\Generated_Source\PSoC4/CyFlash.c ****         #if(CY_IP_SPCIF_SYNCHRONOUS)
 158:.\Generated_Source\PSoC4/CyFlash.c ****             if(clkCnfRetValue == CY_SYS_FLASH_SUCCESS)
 159:.\Generated_Source\PSoC4/CyFlash.c ****             {
 160:.\Generated_Source\PSoC4/CyFlash.c ****                 retValue = CySysFlashClockConfig();
 161:.\Generated_Source\PSoC4/CyFlash.c ****             }
 162:.\Generated_Source\PSoC4/CyFlash.c ****         #endif  /* (CY_IP_SPCIF_SYNCHRONOUS) */
 163:.\Generated_Source\PSoC4/CyFlash.c **** 
 164:.\Generated_Source\PSoC4/CyFlash.c ****             if(retValue == CY_SYS_FLASH_SUCCESS)
 165:.\Generated_Source\PSoC4/CyFlash.c ****             {
 166:.\Generated_Source\PSoC4/CyFlash.c ****                 /* Write Row */
 167:.\Generated_Source\PSoC4/CyFlash.c ****                 parameters[0u]  = (uint32) (((uint32) CY_FLASH_KEY_TWO(CY_FLASH_API_OPCODE_WRITE_RO
 168:.\Generated_Source\PSoC4/CyFlash.c ****                 parameters[0u] |= (uint32)(rowNum << 16u);
 169:.\Generated_Source\PSoC4/CyFlash.c **** 
 170:.\Generated_Source\PSoC4/CyFlash.c ****                 CY_FLASH_CPUSS_SYSARG_REG = (uint32) &parameters[0u];
 171:.\Generated_Source\PSoC4/CyFlash.c ****                 CY_FLASH_CPUSS_SYSREQ_REG = CY_FLASH_CPUSS_REQ_START | CY_FLASH_API_OPCODE_WRITE_RO
 172:.\Generated_Source\PSoC4/CyFlash.c ****                 retValue = CY_FLASH_API_RETURN;
 173:.\Generated_Source\PSoC4/CyFlash.c ****             }
 174:.\Generated_Source\PSoC4/CyFlash.c **** 
 175:.\Generated_Source\PSoC4/CyFlash.c ****             #if (CY_FLASH_CHECKSUM_WORKAROUND)
 176:.\Generated_Source\PSoC4/CyFlash.c **** 
 177:.\Generated_Source\PSoC4/CyFlash.c ****                 if ((retValue == CYRET_SUCCESS) && (needChecksumWorkaround != 0u))
 178:.\Generated_Source\PSoC4/CyFlash.c ****                 {
 179:.\Generated_Source\PSoC4/CyFlash.c ****                     (void)memset((void *)&parameters[2u], 0, CY_FLASH_SIZEOF_ROW);
 180:.\Generated_Source\PSoC4/CyFlash.c ****                     parameters[savedIndex] = savedValue;
 181:.\Generated_Source\PSoC4/CyFlash.c **** 
 182:.\Generated_Source\PSoC4/CyFlash.c ****                     /* Load Flash Bytes */
 183:.\Generated_Source\PSoC4/CyFlash.c ****                     parameters[0u] = (uint32) (CY_FLASH_GET_MACRO_FROM_ROW(rowNum)        << CY_FLA
 184:.\Generated_Source\PSoC4/CyFlash.c ****                                      (uint32) (CY_FLASH_PAGE_LATCH_START_ADDR             << CY_FLA
 185:.\Generated_Source\PSoC4/CyFlash.c ****                                      (uint32) (CY_FLASH_KEY_TWO(CY_FLASH_API_OPCODE_LOAD) << CY_FLA
 186:.\Generated_Source\PSoC4/CyFlash.c ****                                      CY_FLASH_KEY_ONE;
 187:.\Generated_Source\PSoC4/CyFlash.c ****                     parameters[1u] = CY_FLASH_SIZEOF_ROW - 1u;
 188:.\Generated_Source\PSoC4/CyFlash.c **** 
 189:.\Generated_Source\PSoC4/CyFlash.c ****                     CY_FLASH_CPUSS_SYSARG_REG = (uint32) &parameters[0u];
 190:.\Generated_Source\PSoC4/CyFlash.c ****                     CY_FLASH_CPUSS_SYSREQ_REG = CY_FLASH_CPUSS_REQ_START | CY_FLASH_API_OPCODE_LOAD
 191:.\Generated_Source\PSoC4/CyFlash.c ****                     retValue = CY_FLASH_API_RETURN;
 192:.\Generated_Source\PSoC4/CyFlash.c **** 
 193:.\Generated_Source\PSoC4/CyFlash.c **** 
 194:.\Generated_Source\PSoC4/CyFlash.c ****                     if(retValue == CY_SYS_FLASH_SUCCESS)
 195:.\Generated_Source\PSoC4/CyFlash.c ****                     {
 196:.\Generated_Source\PSoC4/CyFlash.c ****                         /* Program Row */
 197:.\Generated_Source\PSoC4/CyFlash.c ****                         parameters[0u]  =
 198:.\Generated_Source\PSoC4/CyFlash.c ****                             (uint32) (((uint32) CY_FLASH_KEY_TWO(CY_FLASH_API_OPCODE_PROGRAM_ROW) <
 199:.\Generated_Source\PSoC4/CyFlash.c ****                                                     CY_FLASH_PARAM_KEY_TWO_OFFSET) | CY_FLASH_KEY_O
 200:.\Generated_Source\PSoC4/CyFlash.c ****                         parameters[0u] |= (uint32)(rowNum << 16u);
 201:.\Generated_Source\PSoC4/CyFlash.c **** 
 202:.\Generated_Source\PSoC4/CyFlash.c ****                         CY_FLASH_CPUSS_SYSARG_REG = (uint32) &parameters[0u];
 203:.\Generated_Source\PSoC4/CyFlash.c ****                         CY_FLASH_CPUSS_SYSREQ_REG = CY_FLASH_CPUSS_REQ_START | CY_FLASH_API_OPCODE_
 204:.\Generated_Source\PSoC4/CyFlash.c ****                         retValue = CY_FLASH_API_RETURN;
ARM GAS  C:\Users\mitchell\AppData\Local\Temp\ccgDSw8z.s 			page 5


 205:.\Generated_Source\PSoC4/CyFlash.c ****                     }
 206:.\Generated_Source\PSoC4/CyFlash.c ****                 }
 207:.\Generated_Source\PSoC4/CyFlash.c ****             #endif  /* (CY_FLASH_CHECKSUM_WORKAROUND) */
 208:.\Generated_Source\PSoC4/CyFlash.c **** 
 209:.\Generated_Source\PSoC4/CyFlash.c ****             if(clkCnfRetValue == CY_SYS_FLASH_SUCCESS)
 210:.\Generated_Source\PSoC4/CyFlash.c ****             {
 211:.\Generated_Source\PSoC4/CyFlash.c ****                 clkCnfRetValue = CySysFlashClockRestore();
 212:.\Generated_Source\PSoC4/CyFlash.c ****             }
 213:.\Generated_Source\PSoC4/CyFlash.c **** 
 214:.\Generated_Source\PSoC4/CyFlash.c ****             CyExitCriticalSection(interruptState);
 215:.\Generated_Source\PSoC4/CyFlash.c ****         }
 216:.\Generated_Source\PSoC4/CyFlash.c ****     }
 217:.\Generated_Source\PSoC4/CyFlash.c ****     else
 218:.\Generated_Source\PSoC4/CyFlash.c ****     {
 219:.\Generated_Source\PSoC4/CyFlash.c ****         retValue = CY_SYS_FLASH_INVALID_ADDR;
 220:.\Generated_Source\PSoC4/CyFlash.c ****     }
 221:.\Generated_Source\PSoC4/CyFlash.c **** 
 222:.\Generated_Source\PSoC4/CyFlash.c ****     return (retValue);
 223:.\Generated_Source\PSoC4/CyFlash.c **** }
 224:.\Generated_Source\PSoC4/CyFlash.c **** 
 225:.\Generated_Source\PSoC4/CyFlash.c **** 
 226:.\Generated_Source\PSoC4/CyFlash.c **** /*******************************************************************************
 227:.\Generated_Source\PSoC4/CyFlash.c **** * Function Name: CySysFlashSetWaitCycles
 228:.\Generated_Source\PSoC4/CyFlash.c **** ********************************************************************************
 229:.\Generated_Source\PSoC4/CyFlash.c **** *
 230:.\Generated_Source\PSoC4/CyFlash.c **** * Summary:
 231:.\Generated_Source\PSoC4/CyFlash.c **** *  Sets the number of clock cycles the cache will wait before it samples data
 232:.\Generated_Source\PSoC4/CyFlash.c **** *  coming back from Flash. This function must be called before increasing the
 233:.\Generated_Source\PSoC4/CyFlash.c **** *  SYSCLK clock frequency. It can optionally be called after lowering SYSCLK
 234:.\Generated_Source\PSoC4/CyFlash.c **** *  clock frequency in order to improve the CPU performance.
 235:.\Generated_Source\PSoC4/CyFlash.c **** *
 236:.\Generated_Source\PSoC4/CyFlash.c **** * Parameters:
 237:.\Generated_Source\PSoC4/CyFlash.c **** *  freq: The System clock frequency in MHz. Note: Invalid frequency will be
 238:.\Generated_Source\PSoC4/CyFlash.c **** *  ignored in Release mode and the CPU will be halted if project is compiled in
 239:.\Generated_Source\PSoC4/CyFlash.c **** *  Debug mode.
 240:.\Generated_Source\PSoC4/CyFlash.c **** *
 241:.\Generated_Source\PSoC4/CyFlash.c **** * Return:
 242:.\Generated_Source\PSoC4/CyFlash.c **** *  None
 243:.\Generated_Source\PSoC4/CyFlash.c **** *
 244:.\Generated_Source\PSoC4/CyFlash.c **** *******************************************************************************/
 245:.\Generated_Source\PSoC4/CyFlash.c **** void CySysFlashSetWaitCycles(uint32 freq)
 246:.\Generated_Source\PSoC4/CyFlash.c **** {
 247:.\Generated_Source\PSoC4/CyFlash.c ****     uint8  interruptState;
 248:.\Generated_Source\PSoC4/CyFlash.c **** 
 249:.\Generated_Source\PSoC4/CyFlash.c ****     interruptState = CyEnterCriticalSection();
 250:.\Generated_Source\PSoC4/CyFlash.c **** 
 251:.\Generated_Source\PSoC4/CyFlash.c ****     #if (CY_IP_CPUSS)
 252:.\Generated_Source\PSoC4/CyFlash.c **** 
 253:.\Generated_Source\PSoC4/CyFlash.c ****         if ( freq <= CY_FLASH_SYSCLK_BOUNDARY_MHZ )
 254:.\Generated_Source\PSoC4/CyFlash.c ****         {
 255:.\Generated_Source\PSoC4/CyFlash.c ****             CY_SYS_CLK_SELECT_REG &= (uint32)(~CY_FLASH_WAIT_STATE_EN);
 256:.\Generated_Source\PSoC4/CyFlash.c ****         }
 257:.\Generated_Source\PSoC4/CyFlash.c ****         else
 258:.\Generated_Source\PSoC4/CyFlash.c ****         {
 259:.\Generated_Source\PSoC4/CyFlash.c ****             CY_SYS_CLK_SELECT_REG |= CY_FLASH_WAIT_STATE_EN;
 260:.\Generated_Source\PSoC4/CyFlash.c ****         }
 261:.\Generated_Source\PSoC4/CyFlash.c ****     #else /* CY_IP_CPUSSV2 */
ARM GAS  C:\Users\mitchell\AppData\Local\Temp\ccgDSw8z.s 			page 6


 262:.\Generated_Source\PSoC4/CyFlash.c **** 
 263:.\Generated_Source\PSoC4/CyFlash.c ****         /* CY_IP_FM and CY_IP_FS */
 264:.\Generated_Source\PSoC4/CyFlash.c ****         if (freq <= CY_FLASH_CTL_WS_0_FREQ_MAX)
 265:.\Generated_Source\PSoC4/CyFlash.c ****         {
 266:.\Generated_Source\PSoC4/CyFlash.c ****             CY_FLASH_CTL_REG = (CY_FLASH_CTL_REG & ~CY_FLASH_CTL_WS_MASK) | CY_FLASH_CTL_WS_0_VALUE
 267:.\Generated_Source\PSoC4/CyFlash.c ****         } else
 268:.\Generated_Source\PSoC4/CyFlash.c ****         if (freq <= CY_FLASH_CTL_WS_1_FREQ_MAX)
 269:.\Generated_Source\PSoC4/CyFlash.c ****         {
 270:.\Generated_Source\PSoC4/CyFlash.c ****             CY_FLASH_CTL_REG = (CY_FLASH_CTL_REG & ~CY_FLASH_CTL_WS_MASK) | CY_FLASH_CTL_WS_1_VALUE
 271:.\Generated_Source\PSoC4/CyFlash.c ****         } else
 272:.\Generated_Source\PSoC4/CyFlash.c ****     #if (CY_IP_FMLT || CY_IP_FSLT)
 273:.\Generated_Source\PSoC4/CyFlash.c ****         if (freq <= CY_FLASH_CTL_WS_2_FREQ_MAX)
 274:.\Generated_Source\PSoC4/CyFlash.c ****         {
 275:.\Generated_Source\PSoC4/CyFlash.c ****             CY_FLASH_CTL_REG = (CY_FLASH_CTL_REG & ~CY_FLASH_CTL_WS_MASK) | CY_FLASH_CTL_WS_2_VALUE
 276:.\Generated_Source\PSoC4/CyFlash.c ****         }
 277:.\Generated_Source\PSoC4/CyFlash.c ****         else
 278:.\Generated_Source\PSoC4/CyFlash.c ****     #endif  /* (CY_IP_FMLT || CY_IP_FSLT) */
 279:.\Generated_Source\PSoC4/CyFlash.c ****         {
 280:.\Generated_Source\PSoC4/CyFlash.c ****             /* Halt CPU in debug mode if frequency is invalid */
 281:.\Generated_Source\PSoC4/CyFlash.c ****             CYASSERT(0u != 0u);
 282:.\Generated_Source\PSoC4/CyFlash.c ****         }
 283:.\Generated_Source\PSoC4/CyFlash.c **** 
 284:.\Generated_Source\PSoC4/CyFlash.c ****     #endif  /* (CY_IP_CPUSS) */
 285:.\Generated_Source\PSoC4/CyFlash.c **** 
 286:.\Generated_Source\PSoC4/CyFlash.c ****     CyExitCriticalSection(interruptState);
 287:.\Generated_Source\PSoC4/CyFlash.c **** }
 288:.\Generated_Source\PSoC4/CyFlash.c **** 
 289:.\Generated_Source\PSoC4/CyFlash.c **** 
 290:.\Generated_Source\PSoC4/CyFlash.c **** /*******************************************************************************
 291:.\Generated_Source\PSoC4/CyFlash.c **** * Function Name: CySysFlashClockBackup
 292:.\Generated_Source\PSoC4/CyFlash.c **** ********************************************************************************
 293:.\Generated_Source\PSoC4/CyFlash.c **** *
 294:.\Generated_Source\PSoC4/CyFlash.c **** * Summary:
 295:.\Generated_Source\PSoC4/CyFlash.c **** *  Backups the device clock configuration.
 296:.\Generated_Source\PSoC4/CyFlash.c **** *
 297:.\Generated_Source\PSoC4/CyFlash.c **** * Parameters:
 298:.\Generated_Source\PSoC4/CyFlash.c **** *  None
 299:.\Generated_Source\PSoC4/CyFlash.c **** *
 300:.\Generated_Source\PSoC4/CyFlash.c **** * Return:
 301:.\Generated_Source\PSoC4/CyFlash.c **** *  The same as CySysFlashWriteRow().
 302:.\Generated_Source\PSoC4/CyFlash.c **** *
 303:.\Generated_Source\PSoC4/CyFlash.c **** *******************************************************************************/
 304:.\Generated_Source\PSoC4/CyFlash.c **** static cystatus CySysFlashClockBackup(void)
 305:.\Generated_Source\PSoC4/CyFlash.c **** {
  25              		.loc 1 305 0
  26              		.cfi_startproc
  27              	.LVL0:
 306:.\Generated_Source\PSoC4/CyFlash.c ****     cystatus retValue = CY_SYS_FLASH_SUCCESS;
 307:.\Generated_Source\PSoC4/CyFlash.c **** #if(!CY_IP_FM)
 308:.\Generated_Source\PSoC4/CyFlash.c ****     #if !(CY_PSOC4_4000)
 309:.\Generated_Source\PSoC4/CyFlash.c ****         #if (CY_IP_SPCIF_SYNCHRONOUS)
 310:.\Generated_Source\PSoC4/CyFlash.c ****             volatile uint32   parameters[2u];
 311:.\Generated_Source\PSoC4/CyFlash.c ****         #endif /* (CY_IP_SPCIF_SYNCHRONOUS) */
 312:.\Generated_Source\PSoC4/CyFlash.c ****     #endif  /* !(CY_PSOC4_4000) */
 313:.\Generated_Source\PSoC4/CyFlash.c **** #endif  /* (!CY_IP_FM) */
 314:.\Generated_Source\PSoC4/CyFlash.c **** 
 315:.\Generated_Source\PSoC4/CyFlash.c **** #if(CY_IP_FM)
ARM GAS  C:\Users\mitchell\AppData\Local\Temp\ccgDSw8z.s 			page 7


 316:.\Generated_Source\PSoC4/CyFlash.c **** 
 317:.\Generated_Source\PSoC4/CyFlash.c ****     /***************************************************************
 318:.\Generated_Source\PSoC4/CyFlash.c ****     * Preserve IMO configuration that could be changed during
 319:.\Generated_Source\PSoC4/CyFlash.c ****     * system call execution (Cypress ID #150448).
 320:.\Generated_Source\PSoC4/CyFlash.c ****     ***************************************************************/
 321:.\Generated_Source\PSoC4/CyFlash.c ****     cySysFlashBackup.imoConfigReg = CY_SYS_CLK_IMO_CONFIG_REG;
  28              		.loc 1 321 0
  29 0000 024B     		ldr	r3, .L2
  30 0002 1A68     		ldr	r2, [r3]
  31 0004 024B     		ldr	r3, .L2+4
  32 0006 1A60     		str	r2, [r3]
 322:.\Generated_Source\PSoC4/CyFlash.c **** 
 323:.\Generated_Source\PSoC4/CyFlash.c **** #else   /* (CY_IP_FMLT) */
 324:.\Generated_Source\PSoC4/CyFlash.c **** 
 325:.\Generated_Source\PSoC4/CyFlash.c ****     #if (CY_PSOC4_4000)
 326:.\Generated_Source\PSoC4/CyFlash.c **** 
 327:.\Generated_Source\PSoC4/CyFlash.c ****         /***************************************************************************
 328:.\Generated_Source\PSoC4/CyFlash.c ****         * Perform firmware clock settings backup for the PSOC4 4000 devices (the
 329:.\Generated_Source\PSoC4/CyFlash.c ****         * corresponding system call is not available).
 330:.\Generated_Source\PSoC4/CyFlash.c ****         ***************************************************************************/
 331:.\Generated_Source\PSoC4/CyFlash.c **** 
 332:.\Generated_Source\PSoC4/CyFlash.c ****         /***************************************************************************
 333:.\Generated_Source\PSoC4/CyFlash.c ****         * The registers listed below are modified by CySysFlashClockConfig().
 334:.\Generated_Source\PSoC4/CyFlash.c ****         *
 335:.\Generated_Source\PSoC4/CyFlash.c ****         * The registers to be saved:
 336:.\Generated_Source\PSoC4/CyFlash.c ****         * - CY_SYS_CLK_IMO_CONFIG_REG - IMO enable state.
 337:.\Generated_Source\PSoC4/CyFlash.c ****         * - CY_SYS_CLK_SELECT_REG     - HFCLK source, divider, pump source. Save
 338:.\Generated_Source\PSoC4/CyFlash.c ****         *                               entire register as it can be directly
 339:.\Generated_Source\PSoC4/CyFlash.c ****         *                               written on restore (no special
 340:.\Generated_Source\PSoC4/CyFlash.c ****         *                               requirements).
 341:.\Generated_Source\PSoC4/CyFlash.c ****         * - CY_SYS_CLK_IMO_SELECT_REG - Save IMO frequency.
 342:.\Generated_Source\PSoC4/CyFlash.c ****         *
 343:.\Generated_Source\PSoC4/CyFlash.c ****         * The registers not to be saved:
 344:.\Generated_Source\PSoC4/CyFlash.c ****         * - CY_SYS_CLK_IMO_TRIM1_REG  - No need to save. Function of frequency.
 345:.\Generated_Source\PSoC4/CyFlash.c ****         *                               Restored by CySysClkWriteImoFreq().
 346:.\Generated_Source\PSoC4/CyFlash.c ****         * - CY_SYS_CLK_IMO_TRIM3_REG  - No need to save. Function of frequency.
 347:.\Generated_Source\PSoC4/CyFlash.c ****         *                               Restored by CySysClkWriteImoFreq().
 348:.\Generated_Source\PSoC4/CyFlash.c ****         * - REG_CPUSS_FLASH_CTL       - Flash wait cycles. Unmodified due to system
 349:.\Generated_Source\PSoC4/CyFlash.c ****         *                               clock 16 MHz limit.
 350:.\Generated_Source\PSoC4/CyFlash.c ****         ***************************************************************************/
 351:.\Generated_Source\PSoC4/CyFlash.c **** 
 352:.\Generated_Source\PSoC4/CyFlash.c ****         cySysFlashBackup.clkSelectReg = CY_SYS_CLK_SELECT_REG;
 353:.\Generated_Source\PSoC4/CyFlash.c ****         cySysFlashBackup.clkImoEna    = CY_SYS_CLK_IMO_CONFIG_REG & CY_SYS_CLK_IMO_CONFIG_ENABLE;
 354:.\Generated_Source\PSoC4/CyFlash.c ****         cySysFlashBackup.clkImoFreq   = CY_SYS_CLK_IMO_MIN_FREQ_MHZ + (CY_SYS_CLK_IMO_SELECT_REG <<
 355:.\Generated_Source\PSoC4/CyFlash.c **** 
 356:.\Generated_Source\PSoC4/CyFlash.c ****     #else
 357:.\Generated_Source\PSoC4/CyFlash.c **** 
 358:.\Generated_Source\PSoC4/CyFlash.c ****         #if (CY_IP_SPCIF_SYNCHRONOUS)
 359:.\Generated_Source\PSoC4/CyFlash.c ****             /* FM-Lite Clock Backup System Call */
 360:.\Generated_Source\PSoC4/CyFlash.c ****             parameters[0u] =
 361:.\Generated_Source\PSoC4/CyFlash.c ****                 (uint32) ((CY_FLASH_KEY_TWO(CY_FLASH_API_OPCODE_CLK_BACKUP) <<  CY_FLASH_PARAM_KEY_
 362:.\Generated_Source\PSoC4/CyFlash.c ****                             CY_FLASH_KEY_ONE);
 363:.\Generated_Source\PSoC4/CyFlash.c ****             parameters[1u] = (uint32) &cySysFlashBackup.clockSettings[0u];
 364:.\Generated_Source\PSoC4/CyFlash.c ****             CY_FLASH_CPUSS_SYSARG_REG = (uint32) &parameters[0u];
 365:.\Generated_Source\PSoC4/CyFlash.c ****             CY_FLASH_CPUSS_SYSREQ_REG = CY_FLASH_CPUSS_REQ_START | CY_FLASH_API_OPCODE_CLK_BACKUP;
 366:.\Generated_Source\PSoC4/CyFlash.c ****             retValue = CY_FLASH_API_RETURN;
 367:.\Generated_Source\PSoC4/CyFlash.c ****         #endif /* (CY_IP_SPCIF_SYNCHRONOUS) */
ARM GAS  C:\Users\mitchell\AppData\Local\Temp\ccgDSw8z.s 			page 8


 368:.\Generated_Source\PSoC4/CyFlash.c **** 
 369:.\Generated_Source\PSoC4/CyFlash.c ****     #endif  /* (CY_PSOC4_4000) */
 370:.\Generated_Source\PSoC4/CyFlash.c **** 
 371:.\Generated_Source\PSoC4/CyFlash.c **** #endif  /* (CY_IP_FM) */
 372:.\Generated_Source\PSoC4/CyFlash.c **** 
 373:.\Generated_Source\PSoC4/CyFlash.c ****     return (retValue);
 374:.\Generated_Source\PSoC4/CyFlash.c **** }
  33              		.loc 1 374 0
  34 0008 0020     		mov	r0, #0
  35              		@ sp needed
  36 000a 7047     		bx	lr
  37              	.L3:
  38              		.align	2
  39              	.L2:
  40 000c 08010B40 		.word	1074462984
  41 0010 00000000 		.word	.LANCHOR0
  42              		.cfi_endproc
  43              	.LFE2:
  44              		.size	CySysFlashClockBackup, .-CySysFlashClockBackup
  45              		.section	.text.CySysFlashClockRestore,"ax",%progbits
  46              		.align	2
  47              		.code	16
  48              		.thumb_func
  49              		.type	CySysFlashClockRestore, %function
  50              	CySysFlashClockRestore:
  51              	.LFB3:
 375:.\Generated_Source\PSoC4/CyFlash.c **** 
 376:.\Generated_Source\PSoC4/CyFlash.c **** 
 377:.\Generated_Source\PSoC4/CyFlash.c **** #if(CY_IP_SPCIF_SYNCHRONOUS)
 378:.\Generated_Source\PSoC4/CyFlash.c **** /*******************************************************************************
 379:.\Generated_Source\PSoC4/CyFlash.c **** * Function Name: CySysFlashClockConfig
 380:.\Generated_Source\PSoC4/CyFlash.c **** ********************************************************************************
 381:.\Generated_Source\PSoC4/CyFlash.c **** *
 382:.\Generated_Source\PSoC4/CyFlash.c **** * Summary:
 383:.\Generated_Source\PSoC4/CyFlash.c **** *  Configures the device clocks for the flash writing.
 384:.\Generated_Source\PSoC4/CyFlash.c **** *
 385:.\Generated_Source\PSoC4/CyFlash.c **** * Parameters:
 386:.\Generated_Source\PSoC4/CyFlash.c **** *  None
 387:.\Generated_Source\PSoC4/CyFlash.c **** *
 388:.\Generated_Source\PSoC4/CyFlash.c **** * Return:
 389:.\Generated_Source\PSoC4/CyFlash.c **** *  The same as CySysFlashWriteRow().
 390:.\Generated_Source\PSoC4/CyFlash.c **** *
 391:.\Generated_Source\PSoC4/CyFlash.c **** *******************************************************************************/
 392:.\Generated_Source\PSoC4/CyFlash.c **** static cystatus CySysFlashClockConfig(void)
 393:.\Generated_Source\PSoC4/CyFlash.c **** {
 394:.\Generated_Source\PSoC4/CyFlash.c ****     cystatus retValue = CY_SYS_FLASH_SUCCESS;
 395:.\Generated_Source\PSoC4/CyFlash.c **** 
 396:.\Generated_Source\PSoC4/CyFlash.c ****     /***************************************************************************
 397:.\Generated_Source\PSoC4/CyFlash.c ****     * The FM-Lite IP uses the IMO at 48MHz for the pump clock and SPC timer
 398:.\Generated_Source\PSoC4/CyFlash.c ****     * clock. The PUMP_SEL and HF clock must be set to IMO before calling Flash
 399:.\Generated_Source\PSoC4/CyFlash.c ****     * write or erase operation.
 400:.\Generated_Source\PSoC4/CyFlash.c ****     ***************************************************************************/
 401:.\Generated_Source\PSoC4/CyFlash.c **** #if (CY_PSOC4_4000)
 402:.\Generated_Source\PSoC4/CyFlash.c **** 
 403:.\Generated_Source\PSoC4/CyFlash.c ****     /***************************************************************************
 404:.\Generated_Source\PSoC4/CyFlash.c ****     * Perform firmware clock settings setup for the PSOC4 4000 devices (the
 405:.\Generated_Source\PSoC4/CyFlash.c ****     * corresponding system call is not reliable):
ARM GAS  C:\Users\mitchell\AppData\Local\Temp\ccgDSw8z.s 			page 9


 406:.\Generated_Source\PSoC4/CyFlash.c ****     * - The IMO frequency should be 48 MHz
 407:.\Generated_Source\PSoC4/CyFlash.c ****     * - The IMO should be source for the HFCLK
 408:.\Generated_Source\PSoC4/CyFlash.c ****     * - The IMO should be the source for the charge pump clock
 409:.\Generated_Source\PSoC4/CyFlash.c ****     *
 410:.\Generated_Source\PSoC4/CyFlash.c ****     * Note The structure members used below are initialized by
 411:.\Generated_Source\PSoC4/CyFlash.c ****     * the CySysFlashClockBackup() function.
 412:.\Generated_Source\PSoC4/CyFlash.c ****     ***************************************************************************/
 413:.\Generated_Source\PSoC4/CyFlash.c ****     if ((cySysFlashBackup.clkImoFreq != 48u) ||
 414:.\Generated_Source\PSoC4/CyFlash.c ****         ((cySysFlashBackup.clkSelectReg & CY_SYS_CLK_SELECT_DIRECT_SEL_MASK) != CY_SYS_CLK_HFCLK_IM
 415:.\Generated_Source\PSoC4/CyFlash.c ****         (((cySysFlashBackup.clkSelectReg >> CY_SYS_CLK_SELECT_PUMP_SEL_SHIFT) & CY_SYS_CLK_SELECT_P
 416:.\Generated_Source\PSoC4/CyFlash.c ****             CY_SYS_CLK_SELECT_PUMP_SEL_IMO))
 417:.\Generated_Source\PSoC4/CyFlash.c ****     {
 418:.\Generated_Source\PSoC4/CyFlash.c ****         /***********************************************************************
 419:.\Generated_Source\PSoC4/CyFlash.c ****          Set HFCLK divider to divide-by-4 to ensure that System clock frequency
 420:.\Generated_Source\PSoC4/CyFlash.c ****         * is within the valid limit (16 MHz for the PSoC4 4000).
 421:.\Generated_Source\PSoC4/CyFlash.c ****         ***********************************************************************/
 422:.\Generated_Source\PSoC4/CyFlash.c ****         CySysClkWriteHfclkDiv(CY_SYS_CLK_HFCLK_DIV_4);
 423:.\Generated_Source\PSoC4/CyFlash.c **** 
 424:.\Generated_Source\PSoC4/CyFlash.c ****         /* The IMO frequency should be 48 MHz */
 425:.\Generated_Source\PSoC4/CyFlash.c ****         if (cySysFlashBackup.clkImoFreq != 48u)
 426:.\Generated_Source\PSoC4/CyFlash.c ****         {
 427:.\Generated_Source\PSoC4/CyFlash.c ****             CySysClkWriteImoFreq(48u);
 428:.\Generated_Source\PSoC4/CyFlash.c ****         }
 429:.\Generated_Source\PSoC4/CyFlash.c ****         CySysClkImoStart();
 430:.\Generated_Source\PSoC4/CyFlash.c **** 
 431:.\Generated_Source\PSoC4/CyFlash.c ****         /* The IMO should be source for the HFCLK */
 432:.\Generated_Source\PSoC4/CyFlash.c ****         CySysClkWriteHfclkDirect(CY_SYS_CLK_HFCLK_IMO);
 433:.\Generated_Source\PSoC4/CyFlash.c **** 
 434:.\Generated_Source\PSoC4/CyFlash.c ****         /* The IMO should be the source for the charge pump clock */
 435:.\Generated_Source\PSoC4/CyFlash.c ****         CY_SYS_CLK_SELECT_REG =  (CY_SYS_CLK_SELECT_REG &
 436:.\Generated_Source\PSoC4/CyFlash.c ****             ((uint32)~(uint32)(CY_SYS_CLK_SELECT_PUMP_SEL_MASK << CY_SYS_CLK_SELECT_PUMP_SEL_SHIFT)
 437:.\Generated_Source\PSoC4/CyFlash.c ****             ((uint32)((uint32)1u << CY_SYS_CLK_SELECT_PUMP_SEL_SHIFT));
 438:.\Generated_Source\PSoC4/CyFlash.c ****     }
 439:.\Generated_Source\PSoC4/CyFlash.c **** 
 440:.\Generated_Source\PSoC4/CyFlash.c **** #else
 441:.\Generated_Source\PSoC4/CyFlash.c **** 
 442:.\Generated_Source\PSoC4/CyFlash.c ****     /* FM-Lite Clock Configuration */
 443:.\Generated_Source\PSoC4/CyFlash.c ****     CY_FLASH_CPUSS_SYSARG_REG =
 444:.\Generated_Source\PSoC4/CyFlash.c ****         (uint32) ((CY_FLASH_KEY_TWO(CY_FLASH_API_OPCODE_CLK_CONFIG) <<  CY_FLASH_PARAM_KEY_TWO_OFFS
 445:.\Generated_Source\PSoC4/CyFlash.c ****                     CY_FLASH_KEY_ONE);
 446:.\Generated_Source\PSoC4/CyFlash.c ****     CY_FLASH_CPUSS_SYSREQ_REG = CY_FLASH_CPUSS_REQ_START | CY_FLASH_API_OPCODE_CLK_CONFIG;
 447:.\Generated_Source\PSoC4/CyFlash.c ****     retValue = CY_FLASH_API_RETURN;
 448:.\Generated_Source\PSoC4/CyFlash.c **** 
 449:.\Generated_Source\PSoC4/CyFlash.c **** #endif  /* (CY_PSOC4_4000) */
 450:.\Generated_Source\PSoC4/CyFlash.c **** 
 451:.\Generated_Source\PSoC4/CyFlash.c ****     return (retValue);
 452:.\Generated_Source\PSoC4/CyFlash.c **** }
 453:.\Generated_Source\PSoC4/CyFlash.c **** #endif  /* (CY_IP_SPCIF_SYNCHRONOUS) */
 454:.\Generated_Source\PSoC4/CyFlash.c **** 
 455:.\Generated_Source\PSoC4/CyFlash.c **** 
 456:.\Generated_Source\PSoC4/CyFlash.c **** /*******************************************************************************
 457:.\Generated_Source\PSoC4/CyFlash.c **** * Function Name: CySysFlashClockRestore
 458:.\Generated_Source\PSoC4/CyFlash.c **** ********************************************************************************
 459:.\Generated_Source\PSoC4/CyFlash.c **** *
 460:.\Generated_Source\PSoC4/CyFlash.c **** * Summary:
 461:.\Generated_Source\PSoC4/CyFlash.c **** *  Restores the device clock configuration.
 462:.\Generated_Source\PSoC4/CyFlash.c **** *
ARM GAS  C:\Users\mitchell\AppData\Local\Temp\ccgDSw8z.s 			page 10


 463:.\Generated_Source\PSoC4/CyFlash.c **** * Parameters:
 464:.\Generated_Source\PSoC4/CyFlash.c **** *  None
 465:.\Generated_Source\PSoC4/CyFlash.c **** *
 466:.\Generated_Source\PSoC4/CyFlash.c **** * Return:
 467:.\Generated_Source\PSoC4/CyFlash.c **** *  The same as CySysFlashWriteRow().
 468:.\Generated_Source\PSoC4/CyFlash.c **** *
 469:.\Generated_Source\PSoC4/CyFlash.c **** *******************************************************************************/
 470:.\Generated_Source\PSoC4/CyFlash.c **** static cystatus CySysFlashClockRestore(void)
 471:.\Generated_Source\PSoC4/CyFlash.c **** {
  52              		.loc 1 471 0
  53              		.cfi_startproc
  54              	.LVL1:
 472:.\Generated_Source\PSoC4/CyFlash.c ****     cystatus retValue = CY_SYS_FLASH_SUCCESS;
 473:.\Generated_Source\PSoC4/CyFlash.c **** #if(!CY_IP_FM)
 474:.\Generated_Source\PSoC4/CyFlash.c ****     #if !(CY_PSOC4_4000)
 475:.\Generated_Source\PSoC4/CyFlash.c ****         #if (CY_IP_SPCIF_SYNCHRONOUS)
 476:.\Generated_Source\PSoC4/CyFlash.c ****             volatile uint32   parameters[2u];
 477:.\Generated_Source\PSoC4/CyFlash.c ****         #endif /* (CY_IP_SPCIF_SYNCHRONOUS) */
 478:.\Generated_Source\PSoC4/CyFlash.c ****     #endif  /* !(CY_PSOC4_4000) */
 479:.\Generated_Source\PSoC4/CyFlash.c **** #endif  /* (!CY_IP_FM) */
 480:.\Generated_Source\PSoC4/CyFlash.c **** 
 481:.\Generated_Source\PSoC4/CyFlash.c **** #if(CY_IP_FM)
 482:.\Generated_Source\PSoC4/CyFlash.c **** 
 483:.\Generated_Source\PSoC4/CyFlash.c ****     /***************************************************************
 484:.\Generated_Source\PSoC4/CyFlash.c ****     * Restore IMO configuration that could be changed during
 485:.\Generated_Source\PSoC4/CyFlash.c ****     * system call execution (Cypress ID #150448).
 486:.\Generated_Source\PSoC4/CyFlash.c ****     ***************************************************************/
 487:.\Generated_Source\PSoC4/CyFlash.c ****     CY_SYS_CLK_IMO_CONFIG_REG = cySysFlashBackup.imoConfigReg;
  55              		.loc 1 487 0
  56 0000 024B     		ldr	r3, .L5
  57 0002 1A68     		ldr	r2, [r3]
  58 0004 024B     		ldr	r3, .L5+4
  59 0006 1A60     		str	r2, [r3]
 488:.\Generated_Source\PSoC4/CyFlash.c **** 
 489:.\Generated_Source\PSoC4/CyFlash.c **** #else
 490:.\Generated_Source\PSoC4/CyFlash.c **** 
 491:.\Generated_Source\PSoC4/CyFlash.c ****     #if (CY_PSOC4_4000)
 492:.\Generated_Source\PSoC4/CyFlash.c **** 
 493:.\Generated_Source\PSoC4/CyFlash.c ****         /***************************************************************************
 494:.\Generated_Source\PSoC4/CyFlash.c ****         * Perform firmware clock settings restore for the PSOC4 4000 devices (the
 495:.\Generated_Source\PSoC4/CyFlash.c ****         * corresponding system call is not available).
 496:.\Generated_Source\PSoC4/CyFlash.c ****         ***************************************************************************/
 497:.\Generated_Source\PSoC4/CyFlash.c **** 
 498:.\Generated_Source\PSoC4/CyFlash.c ****         /* Restore clock settings */
 499:.\Generated_Source\PSoC4/CyFlash.c ****         if ((cySysFlashBackup.clkImoFreq != 48u) ||
 500:.\Generated_Source\PSoC4/CyFlash.c ****             ((cySysFlashBackup.clkSelectReg & CY_SYS_CLK_SELECT_DIRECT_SEL_MASK) != CY_SYS_CLK_HFCL
 501:.\Generated_Source\PSoC4/CyFlash.c ****             (((cySysFlashBackup.clkSelectReg >> CY_SYS_CLK_SELECT_PUMP_SEL_SHIFT) & CY_SYS_CLK_SELE
 502:.\Generated_Source\PSoC4/CyFlash.c ****                 CY_SYS_CLK_SELECT_PUMP_SEL_IMO))
 503:.\Generated_Source\PSoC4/CyFlash.c ****         {
 504:.\Generated_Source\PSoC4/CyFlash.c ****             /* Restore IMO frequency if needed */
 505:.\Generated_Source\PSoC4/CyFlash.c ****             if (cySysFlashBackup.clkImoFreq != 48u)
 506:.\Generated_Source\PSoC4/CyFlash.c ****             {
 507:.\Generated_Source\PSoC4/CyFlash.c ****                 CySysClkWriteImoFreq(cySysFlashBackup.clkImoFreq);
 508:.\Generated_Source\PSoC4/CyFlash.c ****             }
 509:.\Generated_Source\PSoC4/CyFlash.c **** 
 510:.\Generated_Source\PSoC4/CyFlash.c ****             /* Restore HFCLK clock source */
 511:.\Generated_Source\PSoC4/CyFlash.c ****             CySysClkWriteHfclkDirect(cySysFlashBackup.clkSelectReg & CY_SYS_CLK_SELECT_DIRECT_SEL_M
ARM GAS  C:\Users\mitchell\AppData\Local\Temp\ccgDSw8z.s 			page 11


 512:.\Generated_Source\PSoC4/CyFlash.c **** 
 513:.\Generated_Source\PSoC4/CyFlash.c ****             /* Restore HFCLK divider and source for pump  */
 514:.\Generated_Source\PSoC4/CyFlash.c ****             CY_SYS_CLK_SELECT_REG = cySysFlashBackup.clkSelectReg;
 515:.\Generated_Source\PSoC4/CyFlash.c **** 
 516:.\Generated_Source\PSoC4/CyFlash.c ****             /* Stop IMO if needed */
 517:.\Generated_Source\PSoC4/CyFlash.c ****             if (0u == cySysFlashBackup.clkImoEna)
 518:.\Generated_Source\PSoC4/CyFlash.c ****             {
 519:.\Generated_Source\PSoC4/CyFlash.c ****                 CySysClkImoStop();
 520:.\Generated_Source\PSoC4/CyFlash.c ****             }
 521:.\Generated_Source\PSoC4/CyFlash.c ****         }
 522:.\Generated_Source\PSoC4/CyFlash.c **** 
 523:.\Generated_Source\PSoC4/CyFlash.c ****     #else
 524:.\Generated_Source\PSoC4/CyFlash.c **** 
 525:.\Generated_Source\PSoC4/CyFlash.c ****         #if (CY_IP_SPCIF_SYNCHRONOUS)
 526:.\Generated_Source\PSoC4/CyFlash.c ****             /* FM-Lite Clock Restore */
 527:.\Generated_Source\PSoC4/CyFlash.c ****             parameters[0u] =
 528:.\Generated_Source\PSoC4/CyFlash.c ****                 (uint32) ((CY_FLASH_KEY_TWO(CY_FLASH_API_OPCODE_CLK_RESTORE) <<  CY_FLASH_PARAM_KEY
 529:.\Generated_Source\PSoC4/CyFlash.c ****                             CY_FLASH_KEY_ONE);
 530:.\Generated_Source\PSoC4/CyFlash.c ****             parameters[1u] = (uint32) &cySysFlashBackup.clockSettings[0u];
 531:.\Generated_Source\PSoC4/CyFlash.c ****             CY_FLASH_CPUSS_SYSARG_REG = (uint32) &parameters[0u];
 532:.\Generated_Source\PSoC4/CyFlash.c ****             CY_FLASH_CPUSS_SYSREQ_REG = CY_FLASH_CPUSS_REQ_START | CY_FLASH_API_OPCODE_CLK_RESTORE;
 533:.\Generated_Source\PSoC4/CyFlash.c ****             retValue = CY_FLASH_API_RETURN;
 534:.\Generated_Source\PSoC4/CyFlash.c ****         #endif /* (CY_IP_SPCIF_SYNCHRONOUS) */
 535:.\Generated_Source\PSoC4/CyFlash.c **** 
 536:.\Generated_Source\PSoC4/CyFlash.c ****     #endif  /* (CY_PSOC4_4000) */
 537:.\Generated_Source\PSoC4/CyFlash.c **** 
 538:.\Generated_Source\PSoC4/CyFlash.c **** #endif  /* (CY_IP_FM) */
 539:.\Generated_Source\PSoC4/CyFlash.c **** 
 540:.\Generated_Source\PSoC4/CyFlash.c ****     return (retValue);
 541:.\Generated_Source\PSoC4/CyFlash.c **** }
  60              		.loc 1 541 0
  61 0008 0020     		mov	r0, #0
  62              		@ sp needed
  63 000a 7047     		bx	lr
  64              	.L6:
  65              		.align	2
  66              	.L5:
  67 000c 00000000 		.word	.LANCHOR0
  68 0010 08010B40 		.word	1074462984
  69              		.cfi_endproc
  70              	.LFE3:
  71              		.size	CySysFlashClockRestore, .-CySysFlashClockRestore
  72              		.section	.text.CySysFlashWriteRow,"ax",%progbits
  73              		.align	2
  74              		.global	CySysFlashWriteRow
  75              		.code	16
  76              		.thumb_func
  77              		.type	CySysFlashWriteRow, %function
  78              	CySysFlashWriteRow:
  79              	.LFB0:
  93:.\Generated_Source\PSoC4/CyFlash.c **** {
  80              		.loc 1 93 0
  81              		.cfi_startproc
  82              	.LVL2:
  83 0000 F0B5     		push	{r4, r5, r6, r7, lr}
  84              		.cfi_def_cfa_offset 20
  85              		.cfi_offset 4, -20
ARM GAS  C:\Users\mitchell\AppData\Local\Temp\ccgDSw8z.s 			page 12


  86              		.cfi_offset 5, -16
  87              		.cfi_offset 6, -12
  88              		.cfi_offset 7, -8
  89              		.cfi_offset 14, -4
  90 0002 4746     		mov	r7, r8
  91 0004 80B4     		push	{r7}
  92              		.cfi_def_cfa_offset 24
  93              		.cfi_offset 8, -24
  94 0006 A4B0     		sub	sp, sp, #144
  95              		.cfi_def_cfa_offset 168
  96 0008 061C     		mov	r6, r0
  94:.\Generated_Source\PSoC4/CyFlash.c ****     volatile uint32 retValue = CY_SYS_FLASH_SUCCESS;
  97              		.loc 1 94 0
  98 000a 0023     		mov	r3, #0
  99 000c 2393     		str	r3, [sp, #140]
  95:.\Generated_Source\PSoC4/CyFlash.c ****     volatile uint32 clkCnfRetValue = CY_SYS_FLASH_SUCCESS;
 100              		.loc 1 95 0
 101 000e 2293     		str	r3, [sp, #136]
 102              	.LVL3:
 108:.\Generated_Source\PSoC4/CyFlash.c ****     if ((rowNum < CY_FLASH_NUMBER_ROWS) && (rowData != 0u))
 103              		.loc 1 108 0
 104 0010 FF28     		cmp	r0, #255
 105 0012 00D9     		bls	.LCB77
 106 0014 A5E0     		b	.L8	@long jump
 107              	.LCB77:
 108:.\Generated_Source\PSoC4/CyFlash.c ****     if ((rowNum < CY_FLASH_NUMBER_ROWS) && (rowData != 0u))
 108              		.loc 1 108 0 is_stmt 0 discriminator 1
 109 0016 0029     		cmp	r1, #0
 110 0018 00D1     		bne	.LCB79
 111 001a A2E0     		b	.L8	@long jump
 112              	.LCB79:
 111:.\Generated_Source\PSoC4/CyFlash.c ****         (void)memcpy((void *)&parameters[2u], rowData, CY_FLASH_SIZEOF_ROW);
 113              		.loc 1 111 0 is_stmt 1
 114 001c 02A8     		add	r0, sp, #8
 115              	.LVL4:
 116 001e 8022     		mov	r2, #128
 117 0020 FFF7FEFF 		bl	memcpy
 118              	.LVL5:
 115:.\Generated_Source\PSoC4/CyFlash.c ****             for (i = 2u; i < ((CY_FLASH_SIZEOF_ROW / sizeof(uint32)) + 2u); i++)
 119              		.loc 1 115 0
 120 0024 0223     		mov	r3, #2
 104:.\Generated_Source\PSoC4/CyFlash.c ****         uint32 bits = 0u;
 121              		.loc 1 104 0
 122 0026 0024     		mov	r4, #0
 103:.\Generated_Source\PSoC4/CyFlash.c ****         uint32 checksum = 0u;
 123              		.loc 1 103 0
 124 0028 0021     		mov	r1, #0
 101:.\Generated_Source\PSoC4/CyFlash.c ****         uint32 savedIndex = 0u;
 125              		.loc 1 101 0
 126 002a 0025     		mov	r5, #0
 115:.\Generated_Source\PSoC4/CyFlash.c ****             for (i = 2u; i < ((CY_FLASH_SIZEOF_ROW / sizeof(uint32)) + 2u); i++)
 127              		.loc 1 115 0
 128 002c 08E0     		b	.L9
 129              	.LVL6:
 130              	.L11:
 131              	.LBB2:
 117:.\Generated_Source\PSoC4/CyFlash.c ****                 uint32 tmp = parameters[i];
ARM GAS  C:\Users\mitchell\AppData\Local\Temp\ccgDSw8z.s 			page 13


 132              		.loc 1 117 0
 133 002e 9A00     		lsl	r2, r3, #2
 134 0030 6846     		mov	r0, sp
 135 0032 1258     		ldr	r2, [r2, r0]
 136              	.LVL7:
 118:.\Generated_Source\PSoC4/CyFlash.c ****                 if (tmp != 0u)
 137              		.loc 1 118 0
 138 0034 002A     		cmp	r2, #0
 139 0036 02D0     		beq	.L10
 120:.\Generated_Source\PSoC4/CyFlash.c ****                     checksum += tmp;
 140              		.loc 1 120 0
 141 0038 8918     		add	r1, r1, r2
 142              	.LVL8:
 121:.\Generated_Source\PSoC4/CyFlash.c ****                     bits |= tmp;
 143              		.loc 1 121 0
 144 003a 1443     		orr	r4, r2
 145              	.LVL9:
 122:.\Generated_Source\PSoC4/CyFlash.c ****                     savedIndex = i;
 146              		.loc 1 122 0
 147 003c 1D1C     		mov	r5, r3
 148              	.LVL10:
 149              	.L10:
 150              	.LBE2:
 115:.\Generated_Source\PSoC4/CyFlash.c ****             for (i = 2u; i < ((CY_FLASH_SIZEOF_ROW / sizeof(uint32)) + 2u); i++)
 151              		.loc 1 115 0
 152 003e 0133     		add	r3, r3, #1
 153              	.LVL11:
 154              	.L9:
 115:.\Generated_Source\PSoC4/CyFlash.c ****             for (i = 2u; i < ((CY_FLASH_SIZEOF_ROW / sizeof(uint32)) + 2u); i++)
 155              		.loc 1 115 0 is_stmt 0 discriminator 1
 156 0040 212B     		cmp	r3, #33
 157 0042 F4D9     		bls	.L11
 126:.\Generated_Source\PSoC4/CyFlash.c ****             needChecksumWorkaround = ((checksum == 0u) && (bits != 0u)) ? 1u : 0u;
 158              		.loc 1 126 0 is_stmt 1
 159 0044 0029     		cmp	r1, #0
 160 0046 02D1     		bne	.L22
 126:.\Generated_Source\PSoC4/CyFlash.c ****             needChecksumWorkaround = ((checksum == 0u) && (bits != 0u)) ? 1u : 0u;
 161              		.loc 1 126 0 is_stmt 0 discriminator 1
 162 0048 002C     		cmp	r4, #0
 163 004a 02D1     		bne	.L23
 164 004c 02E0     		b	.L12
 165              	.L22:
 126:.\Generated_Source\PSoC4/CyFlash.c ****             needChecksumWorkaround = ((checksum == 0u) && (bits != 0u)) ? 1u : 0u;
 166              		.loc 1 126 0
 167 004e 0024     		mov	r4, #0
 168              	.LVL12:
 169 0050 00E0     		b	.L12
 170              	.LVL13:
 171              	.L23:
 172 0052 0124     		mov	r4, #1
 173              	.LVL14:
 174              	.L12:
 127:.\Generated_Source\PSoC4/CyFlash.c ****             if (needChecksumWorkaround != 0u)
 175              		.loc 1 127 0 is_stmt 1 discriminator 3
 176 0054 002C     		cmp	r4, #0
 177 0056 05D0     		beq	.L24
 129:.\Generated_Source\PSoC4/CyFlash.c ****                 savedValue = parameters[savedIndex];
ARM GAS  C:\Users\mitchell\AppData\Local\Temp\ccgDSw8z.s 			page 14


 178              		.loc 1 129 0
 179 0058 AB00     		lsl	r3, r5, #2
 180              	.LVL15:
 181 005a 6946     		mov	r1, sp
 182              	.LVL16:
 183 005c 5F58     		ldr	r7, [r3, r1]
 184              	.LVL17:
 130:.\Generated_Source\PSoC4/CyFlash.c ****                 parameters[savedIndex] = 0u;
 185              		.loc 1 130 0
 186 005e 0022     		mov	r2, #0
 187 0060 5A50     		str	r2, [r3, r1]
 188 0062 00E0     		b	.L13
 189              	.LVL18:
 190              	.L24:
 102:.\Generated_Source\PSoC4/CyFlash.c ****         uint32 savedValue = 0u;
 191              		.loc 1 102 0
 192 0064 0027     		mov	r7, #0
 193              	.LVL19:
 194              	.L13:
 135:.\Generated_Source\PSoC4/CyFlash.c ****         parameters[0u] = (uint32) (CY_FLASH_GET_MACRO_FROM_ROW(rowNum)        << CY_FLASH_PARAM_MAC
 195              		.loc 1 135 0
 196 0066 424B     		ldr	r3, .L29
 197 0068 0093     		str	r3, [sp]
 139:.\Generated_Source\PSoC4/CyFlash.c ****         parameters[1u] = CY_FLASH_SIZEOF_ROW - 1u;
 198              		.loc 1 139 0
 199 006a 7F23     		mov	r3, #127
 200 006c 0193     		str	r3, [sp, #4]
 141:.\Generated_Source\PSoC4/CyFlash.c ****         CY_FLASH_CPUSS_SYSARG_REG = (uint32) &parameters[0u];
 201              		.loc 1 141 0
 202 006e 414B     		ldr	r3, .L29+4
 203 0070 00AA     		add	r2, sp, #0
 204 0072 1A60     		str	r2, [r3]
 142:.\Generated_Source\PSoC4/CyFlash.c ****         CY_FLASH_CPUSS_SYSREQ_REG = CY_FLASH_CPUSS_REQ_START | CY_FLASH_API_OPCODE_LOAD;
 205              		.loc 1 142 0
 206 0074 4049     		ldr	r1, .L29+8
 207 0076 414A     		ldr	r2, .L29+12
 208 0078 1160     		str	r1, [r2]
 143:.\Generated_Source\PSoC4/CyFlash.c ****         retValue = CY_FLASH_API_RETURN;
 209              		.loc 1 143 0
 210 007a 1B68     		ldr	r3, [r3]
 211 007c 1B0F     		lsr	r3, r3, #28
 212 007e 0A2B     		cmp	r3, #10
 213 0080 04D0     		beq	.L25
 143:.\Generated_Source\PSoC4/CyFlash.c ****         retValue = CY_FLASH_API_RETURN;
 214              		.loc 1 143 0 is_stmt 0 discriminator 1
 215 0082 3C4B     		ldr	r3, .L29+4
 216 0084 1B68     		ldr	r3, [r3]
 217 0086 0F22     		mov	r2, #15
 218 0088 1340     		and	r3, r2
 219 008a 00E0     		b	.L14
 220              	.L25:
 143:.\Generated_Source\PSoC4/CyFlash.c ****         retValue = CY_FLASH_API_RETURN;
 221              		.loc 1 143 0
 222 008c 0023     		mov	r3, #0
 223              	.L14:
 143:.\Generated_Source\PSoC4/CyFlash.c ****         retValue = CY_FLASH_API_RETURN;
 224              		.loc 1 143 0 discriminator 3
ARM GAS  C:\Users\mitchell\AppData\Local\Temp\ccgDSw8z.s 			page 15


 225 008e 2393     		str	r3, [sp, #140]
 145:.\Generated_Source\PSoC4/CyFlash.c ****         if(retValue == CY_SYS_FLASH_SUCCESS)
 226              		.loc 1 145 0 is_stmt 1 discriminator 3
 227 0090 239B     		ldr	r3, [sp, #140]
 228 0092 002B     		cmp	r3, #0
 229 0094 67D1     		bne	.L15
 153:.\Generated_Source\PSoC4/CyFlash.c ****             interruptState = CyEnterCriticalSection();
 230              		.loc 1 153 0
 231 0096 FFF7FEFF 		bl	CyEnterCriticalSection
 232              	.LVL20:
 233 009a 8046     		mov	r8, r0
 234              	.LVL21:
 155:.\Generated_Source\PSoC4/CyFlash.c ****             clkCnfRetValue = CySysFlashClockBackup();
 235              		.loc 1 155 0
 236 009c FFF7FEFF 		bl	CySysFlashClockBackup
 237              	.LVL22:
 238 00a0 2290     		str	r0, [sp, #136]
 164:.\Generated_Source\PSoC4/CyFlash.c ****             if(retValue == CY_SYS_FLASH_SUCCESS)
 239              		.loc 1 164 0
 240 00a2 239B     		ldr	r3, [sp, #140]
 241 00a4 002B     		cmp	r3, #0
 242 00a6 16D1     		bne	.L16
 167:.\Generated_Source\PSoC4/CyFlash.c ****                 parameters[0u]  = (uint32) (((uint32) CY_FLASH_KEY_TWO(CY_FLASH_API_OPCODE_WRITE_RO
 243              		.loc 1 167 0
 244 00a8 354B     		ldr	r3, .L29+16
 245 00aa 0093     		str	r3, [sp]
 168:.\Generated_Source\PSoC4/CyFlash.c ****                 parameters[0u] |= (uint32)(rowNum << 16u);
 246              		.loc 1 168 0
 247 00ac 009A     		ldr	r2, [sp]
 248 00ae 3304     		lsl	r3, r6, #16
 249 00b0 1343     		orr	r3, r2
 250 00b2 0093     		str	r3, [sp]
 170:.\Generated_Source\PSoC4/CyFlash.c ****                 CY_FLASH_CPUSS_SYSARG_REG = (uint32) &parameters[0u];
 251              		.loc 1 170 0
 252 00b4 2F4B     		ldr	r3, .L29+4
 253 00b6 00A8     		add	r0, sp, #0
 254 00b8 1860     		str	r0, [r3]
 171:.\Generated_Source\PSoC4/CyFlash.c ****                 CY_FLASH_CPUSS_SYSREQ_REG = CY_FLASH_CPUSS_REQ_START | CY_FLASH_API_OPCODE_WRITE_RO
 255              		.loc 1 171 0
 256 00ba 3249     		ldr	r1, .L29+20
 257 00bc 2F4A     		ldr	r2, .L29+12
 258 00be 1160     		str	r1, [r2]
 172:.\Generated_Source\PSoC4/CyFlash.c ****                 retValue = CY_FLASH_API_RETURN;
 259              		.loc 1 172 0
 260 00c0 1B68     		ldr	r3, [r3]
 261 00c2 1B0F     		lsr	r3, r3, #28
 262 00c4 0A2B     		cmp	r3, #10
 263 00c6 04D0     		beq	.L26
 172:.\Generated_Source\PSoC4/CyFlash.c ****                 retValue = CY_FLASH_API_RETURN;
 264              		.loc 1 172 0 is_stmt 0 discriminator 1
 265 00c8 2A4B     		ldr	r3, .L29+4
 266 00ca 1B68     		ldr	r3, [r3]
 267 00cc 0F22     		mov	r2, #15
 268 00ce 1340     		and	r3, r2
 269 00d0 00E0     		b	.L17
 270              	.L26:
 172:.\Generated_Source\PSoC4/CyFlash.c ****                 retValue = CY_FLASH_API_RETURN;
ARM GAS  C:\Users\mitchell\AppData\Local\Temp\ccgDSw8z.s 			page 16


 271              		.loc 1 172 0
 272 00d2 0023     		mov	r3, #0
 273              	.L17:
 172:.\Generated_Source\PSoC4/CyFlash.c ****                 retValue = CY_FLASH_API_RETURN;
 274              		.loc 1 172 0 discriminator 3
 275 00d4 2393     		str	r3, [sp, #140]
 276              	.L16:
 177:.\Generated_Source\PSoC4/CyFlash.c ****                 if ((retValue == CYRET_SUCCESS) && (needChecksumWorkaround != 0u))
 277              		.loc 1 177 0 is_stmt 1
 278 00d6 239B     		ldr	r3, [sp, #140]
 279 00d8 002B     		cmp	r3, #0
 280 00da 38D1     		bne	.L18
 177:.\Generated_Source\PSoC4/CyFlash.c ****                 if ((retValue == CYRET_SUCCESS) && (needChecksumWorkaround != 0u))
 281              		.loc 1 177 0 is_stmt 0 discriminator 1
 282 00dc 002C     		cmp	r4, #0
 283 00de 36D0     		beq	.L18
 179:.\Generated_Source\PSoC4/CyFlash.c ****                     (void)memset((void *)&parameters[2u], 0, CY_FLASH_SIZEOF_ROW);
 284              		.loc 1 179 0 is_stmt 1
 285 00e0 02A8     		add	r0, sp, #8
 286 00e2 0021     		mov	r1, #0
 287 00e4 8022     		mov	r2, #128
 288 00e6 FFF7FEFF 		bl	memset
 289              	.LVL23:
 180:.\Generated_Source\PSoC4/CyFlash.c ****                     parameters[savedIndex] = savedValue;
 290              		.loc 1 180 0
 291 00ea AD00     		lsl	r5, r5, #2
 292              	.LVL24:
 293 00ec 6946     		mov	r1, sp
 294 00ee 6F50     		str	r7, [r5, r1]
 183:.\Generated_Source\PSoC4/CyFlash.c ****                     parameters[0u] = (uint32) (CY_FLASH_GET_MACRO_FROM_ROW(rowNum)        << CY_FLA
 295              		.loc 1 183 0
 296 00f0 1F4B     		ldr	r3, .L29
 297 00f2 0093     		str	r3, [sp]
 187:.\Generated_Source\PSoC4/CyFlash.c ****                     parameters[1u] = CY_FLASH_SIZEOF_ROW - 1u;
 298              		.loc 1 187 0
 299 00f4 7F23     		mov	r3, #127
 300 00f6 0193     		str	r3, [sp, #4]
 189:.\Generated_Source\PSoC4/CyFlash.c ****                     CY_FLASH_CPUSS_SYSARG_REG = (uint32) &parameters[0u];
 301              		.loc 1 189 0
 302 00f8 1E4B     		ldr	r3, .L29+4
 303 00fa 00AA     		add	r2, sp, #0
 304 00fc 1A60     		str	r2, [r3]
 190:.\Generated_Source\PSoC4/CyFlash.c ****                     CY_FLASH_CPUSS_SYSREQ_REG = CY_FLASH_CPUSS_REQ_START | CY_FLASH_API_OPCODE_LOAD
 305              		.loc 1 190 0
 306 00fe 1E49     		ldr	r1, .L29+8
 307 0100 1E4A     		ldr	r2, .L29+12
 308 0102 1160     		str	r1, [r2]
 191:.\Generated_Source\PSoC4/CyFlash.c ****                     retValue = CY_FLASH_API_RETURN;
 309              		.loc 1 191 0
 310 0104 1B68     		ldr	r3, [r3]
 311 0106 1B0F     		lsr	r3, r3, #28
 312 0108 0A2B     		cmp	r3, #10
 313 010a 04D0     		beq	.L27
 191:.\Generated_Source\PSoC4/CyFlash.c ****                     retValue = CY_FLASH_API_RETURN;
 314              		.loc 1 191 0 is_stmt 0 discriminator 1
 315 010c 194B     		ldr	r3, .L29+4
 316 010e 1B68     		ldr	r3, [r3]
ARM GAS  C:\Users\mitchell\AppData\Local\Temp\ccgDSw8z.s 			page 17


 317 0110 0F22     		mov	r2, #15
 318 0112 1340     		and	r3, r2
 319 0114 00E0     		b	.L19
 320              	.L27:
 191:.\Generated_Source\PSoC4/CyFlash.c ****                     retValue = CY_FLASH_API_RETURN;
 321              		.loc 1 191 0
 322 0116 0023     		mov	r3, #0
 323              	.L19:
 191:.\Generated_Source\PSoC4/CyFlash.c ****                     retValue = CY_FLASH_API_RETURN;
 324              		.loc 1 191 0 discriminator 3
 325 0118 2393     		str	r3, [sp, #140]
 194:.\Generated_Source\PSoC4/CyFlash.c ****                     if(retValue == CY_SYS_FLASH_SUCCESS)
 326              		.loc 1 194 0 is_stmt 1 discriminator 3
 327 011a 239B     		ldr	r3, [sp, #140]
 328 011c 002B     		cmp	r3, #0
 329 011e 16D1     		bne	.L18
 197:.\Generated_Source\PSoC4/CyFlash.c ****                         parameters[0u]  =
 330              		.loc 1 197 0
 331 0120 194B     		ldr	r3, .L29+24
 332 0122 0093     		str	r3, [sp]
 200:.\Generated_Source\PSoC4/CyFlash.c ****                         parameters[0u] |= (uint32)(rowNum << 16u);
 333              		.loc 1 200 0
 334 0124 009B     		ldr	r3, [sp]
 335 0126 3604     		lsl	r6, r6, #16
 336              	.LVL25:
 337 0128 1E43     		orr	r6, r3
 338 012a 0096     		str	r6, [sp]
 202:.\Generated_Source\PSoC4/CyFlash.c ****                         CY_FLASH_CPUSS_SYSARG_REG = (uint32) &parameters[0u];
 339              		.loc 1 202 0
 340 012c 114B     		ldr	r3, .L29+4
 341 012e 00A8     		add	r0, sp, #0
 342 0130 1860     		str	r0, [r3]
 203:.\Generated_Source\PSoC4/CyFlash.c ****                         CY_FLASH_CPUSS_SYSREQ_REG = CY_FLASH_CPUSS_REQ_START | CY_FLASH_API_OPCODE_
 343              		.loc 1 203 0
 344 0132 1649     		ldr	r1, .L29+28
 345 0134 114A     		ldr	r2, .L29+12
 346 0136 1160     		str	r1, [r2]
 204:.\Generated_Source\PSoC4/CyFlash.c ****                         retValue = CY_FLASH_API_RETURN;
 347              		.loc 1 204 0
 348 0138 1B68     		ldr	r3, [r3]
 349 013a 1B0F     		lsr	r3, r3, #28
 350 013c 0A2B     		cmp	r3, #10
 351 013e 04D0     		beq	.L28
 204:.\Generated_Source\PSoC4/CyFlash.c ****                         retValue = CY_FLASH_API_RETURN;
 352              		.loc 1 204 0 is_stmt 0 discriminator 1
 353 0140 0C4B     		ldr	r3, .L29+4
 354 0142 1B68     		ldr	r3, [r3]
 355 0144 0F22     		mov	r2, #15
 356 0146 1340     		and	r3, r2
 357 0148 00E0     		b	.L20
 358              	.L28:
 204:.\Generated_Source\PSoC4/CyFlash.c ****                         retValue = CY_FLASH_API_RETURN;
 359              		.loc 1 204 0
 360 014a 0023     		mov	r3, #0
 361              	.L20:
 204:.\Generated_Source\PSoC4/CyFlash.c ****                         retValue = CY_FLASH_API_RETURN;
 362              		.loc 1 204 0 discriminator 3
ARM GAS  C:\Users\mitchell\AppData\Local\Temp\ccgDSw8z.s 			page 18


 363 014c 2393     		str	r3, [sp, #140]
 364              	.L18:
 209:.\Generated_Source\PSoC4/CyFlash.c ****             if(clkCnfRetValue == CY_SYS_FLASH_SUCCESS)
 365              		.loc 1 209 0 is_stmt 1
 366 014e 229B     		ldr	r3, [sp, #136]
 367 0150 002B     		cmp	r3, #0
 368 0152 02D1     		bne	.L21
 211:.\Generated_Source\PSoC4/CyFlash.c ****                 clkCnfRetValue = CySysFlashClockRestore();
 369              		.loc 1 211 0
 370 0154 FFF7FEFF 		bl	CySysFlashClockRestore
 371              	.LVL26:
 372 0158 2290     		str	r0, [sp, #136]
 373              	.L21:
 214:.\Generated_Source\PSoC4/CyFlash.c ****             CyExitCriticalSection(interruptState);
 374              		.loc 1 214 0
 375 015a 4046     		mov	r0, r8
 376 015c FFF7FEFF 		bl	CyExitCriticalSection
 377              	.LVL27:
 378 0160 01E0     		b	.L15
 379              	.LVL28:
 380              	.L8:
 219:.\Generated_Source\PSoC4/CyFlash.c ****         retValue = CY_SYS_FLASH_INVALID_ADDR;
 381              		.loc 1 219 0
 382 0162 0423     		mov	r3, #4
 383 0164 2393     		str	r3, [sp, #140]
 384              	.LVL29:
 385              	.L15:
 222:.\Generated_Source\PSoC4/CyFlash.c ****     return (retValue);
 386              		.loc 1 222 0
 387 0166 2398     		ldr	r0, [sp, #140]
 223:.\Generated_Source\PSoC4/CyFlash.c **** }
 388              		.loc 1 223 0
 389 0168 24B0     		add	sp, sp, #144
 390              		@ sp needed
 391 016a 04BC     		pop	{r2}
 392 016c 9046     		mov	r8, r2
 393 016e F0BD     		pop	{r4, r5, r6, r7, pc}
 394              	.L30:
 395              		.align	2
 396              	.L29:
 397 0170 B6D70000 		.word	55222
 398 0174 08000040 		.word	1073741832
 399 0178 04000080 		.word	-2147483644
 400 017c 04000040 		.word	1073741828
 401 0180 B6D80000 		.word	55478
 402 0184 05000080 		.word	-2147483643
 403 0188 B6D90000 		.word	55734
 404 018c 06000080 		.word	-2147483642
 405              		.cfi_endproc
 406              	.LFE0:
 407              		.size	CySysFlashWriteRow, .-CySysFlashWriteRow
 408              		.section	.text.CySysFlashSetWaitCycles,"ax",%progbits
 409              		.align	2
 410              		.global	CySysFlashSetWaitCycles
 411              		.code	16
 412              		.thumb_func
 413              		.type	CySysFlashSetWaitCycles, %function
ARM GAS  C:\Users\mitchell\AppData\Local\Temp\ccgDSw8z.s 			page 19


 414              	CySysFlashSetWaitCycles:
 415              	.LFB1:
 246:.\Generated_Source\PSoC4/CyFlash.c **** {
 416              		.loc 1 246 0
 417              		.cfi_startproc
 418              	.LVL30:
 419 0000 10B5     		push	{r4, lr}
 420              		.cfi_def_cfa_offset 8
 421              		.cfi_offset 4, -8
 422              		.cfi_offset 14, -4
 423 0002 041C     		mov	r4, r0
 249:.\Generated_Source\PSoC4/CyFlash.c ****     interruptState = CyEnterCriticalSection();
 424              		.loc 1 249 0
 425 0004 FFF7FEFF 		bl	CyEnterCriticalSection
 426              	.LVL31:
 253:.\Generated_Source\PSoC4/CyFlash.c ****         if ( freq <= CY_FLASH_SYSCLK_BOUNDARY_MHZ )
 427              		.loc 1 253 0
 428 0008 182C     		cmp	r4, #24
 429 000a 05D8     		bhi	.L32
 255:.\Generated_Source\PSoC4/CyFlash.c ****             CY_SYS_CLK_SELECT_REG &= (uint32)(~CY_FLASH_WAIT_STATE_EN);
 430              		.loc 1 255 0
 431 000c 074B     		ldr	r3, .L34
 432 000e 1968     		ldr	r1, [r3]
 433 0010 074A     		ldr	r2, .L34+4
 434 0012 0A40     		and	r2, r1
 435 0014 1A60     		str	r2, [r3]
 436 0016 05E0     		b	.L33
 437              	.L32:
 259:.\Generated_Source\PSoC4/CyFlash.c ****             CY_SYS_CLK_SELECT_REG |= CY_FLASH_WAIT_STATE_EN;
 438              		.loc 1 259 0
 439 0018 044B     		ldr	r3, .L34
 440 001a 1968     		ldr	r1, [r3]
 441 001c 8022     		mov	r2, #128
 442 001e D202     		lsl	r2, r2, #11
 443 0020 0A43     		orr	r2, r1
 444 0022 1A60     		str	r2, [r3]
 445              	.L33:
 286:.\Generated_Source\PSoC4/CyFlash.c ****     CyExitCriticalSection(interruptState);
 446              		.loc 1 286 0
 447 0024 FFF7FEFF 		bl	CyExitCriticalSection
 448              	.LVL32:
 287:.\Generated_Source\PSoC4/CyFlash.c **** }
 449              		.loc 1 287 0
 450              		@ sp needed
 451              	.LVL33:
 452 0028 10BD     		pop	{r4, pc}
 453              	.L35:
 454 002a C046     		.align	2
 455              	.L34:
 456 002c 00010B40 		.word	1074462976
 457 0030 FFFFFBFF 		.word	-262145
 458              		.cfi_endproc
 459              	.LFE1:
 460              		.size	CySysFlashSetWaitCycles, .-CySysFlashSetWaitCycles
 461              		.bss
 462              		.align	2
 463              		.set	.LANCHOR0,. + 0
ARM GAS  C:\Users\mitchell\AppData\Local\Temp\ccgDSw8z.s 			page 20


 464              		.type	cySysFlashBackup, %object
 465              		.size	cySysFlashBackup, 4
 466              	cySysFlashBackup:
 467 0000 00000000 		.space	4
 468              		.text
 469              	.Letext0:
 470              		.file 2 ".\\Generated_Source\\PSoC4\\cytypes.h"
 471              		.file 3 ".\\Generated_Source\\PSoC4\\CyFlash.h"
 472              		.file 4 ".\\Generated_Source\\PSoC4\\CyLib.h"