ARM GAS  C:\Users\mitchell\AppData\Local\Temp\ccKXG5jd.s 			page 1


   1              		.cpu cortex-m0
   2              		.fpu softvfp
   3              		.eabi_attribute 20, 1
   4              		.eabi_attribute 21, 1
   5              		.eabi_attribute 23, 3
   6              		.eabi_attribute 24, 1
   7              		.eabi_attribute 25, 1
   8              		.eabi_attribute 26, 1
   9              		.eabi_attribute 30, 1
  10              		.eabi_attribute 34, 0
  11              		.eabi_attribute 18, 4
  12              		.code	16
  13              		.file	"CyLFClk.c"
  14              		.text
  15              	.Ltext0:
  16              		.cfi_sections	.debug_frame
  17              		.section	.text.CySysClkIloEnabled,"ax",%progbits
  18              		.align	2
  19              		.code	16
  20              		.thumb_func
  21              		.type	CySysClkIloEnabled, %function
  22              	CySysClkIloEnabled:
  23              	.LFB2:
  24              		.file 1 ".\\Generated_Source\\PSoC4\\CyLFClk.c"
   1:.\Generated_Source\PSoC4/CyLFClk.c **** /*******************************************************************************
   2:.\Generated_Source\PSoC4/CyLFClk.c **** * File Name: .c
   3:.\Generated_Source\PSoC4/CyLFClk.c **** * Version 1.0
   4:.\Generated_Source\PSoC4/CyLFClk.c **** *
   5:.\Generated_Source\PSoC4/CyLFClk.c **** * Description:
   6:.\Generated_Source\PSoC4/CyLFClk.c **** *  This file provides the source code to API for the cy_lfclk Component.
   7:.\Generated_Source\PSoC4/CyLFClk.c **** *
   8:.\Generated_Source\PSoC4/CyLFClk.c **** ********************************************************************************
   9:.\Generated_Source\PSoC4/CyLFClk.c **** * Copyright 2008-2015, Cypress Semiconductor Corporation.  All rights reserved.
  10:.\Generated_Source\PSoC4/CyLFClk.c **** * You may use this file only in accordance with the license, terms, conditions,
  11:.\Generated_Source\PSoC4/CyLFClk.c **** * disclaimers, and limitations in the end user license agreement accompanying
  12:.\Generated_Source\PSoC4/CyLFClk.c **** * the software package with which this file was provided.
  13:.\Generated_Source\PSoC4/CyLFClk.c **** *******************************************************************************/
  14:.\Generated_Source\PSoC4/CyLFClk.c **** 
  15:.\Generated_Source\PSoC4/CyLFClk.c **** 
  16:.\Generated_Source\PSoC4/CyLFClk.c **** #include "CyLFClk.h"
  17:.\Generated_Source\PSoC4/CyLFClk.c **** #include "CyLib.h"
  18:.\Generated_Source\PSoC4/CyLFClk.c **** 
  19:.\Generated_Source\PSoC4/CyLFClk.c **** 
  20:.\Generated_Source\PSoC4/CyLFClk.c **** #if (CY_IP_WCO)
  21:.\Generated_Source\PSoC4/CyLFClk.c ****     static uint32 CySysClkGetLfclkSource(void);
  22:.\Generated_Source\PSoC4/CyLFClk.c **** #endif /* (CY_IP_WCO) */
  23:.\Generated_Source\PSoC4/CyLFClk.c **** 
  24:.\Generated_Source\PSoC4/CyLFClk.c **** #if(CY_IP_SRSSV2)
  25:.\Generated_Source\PSoC4/CyLFClk.c ****     /* CySysClkLfclkPosedgeCatch() / CySysClkLfclkPosedgeRestore() */
  26:.\Generated_Source\PSoC4/CyLFClk.c ****     static uint32 lfclkPosedgeWdtCounter0Enabled = 0u;
  27:.\Generated_Source\PSoC4/CyLFClk.c ****     static uint32 lfclkPosedgeWdtCounter0Mode    = CY_SYS_WDT_MODE_NONE;
  28:.\Generated_Source\PSoC4/CyLFClk.c **** 
  29:.\Generated_Source\PSoC4/CyLFClk.c ****     static volatile uint32 disableServicedIsr = 0uL;
  30:.\Generated_Source\PSoC4/CyLFClk.c ****     static volatile uint32 wdtIsrMask = CY_SYS_WDT_COUNTER0_INT |\
  31:.\Generated_Source\PSoC4/CyLFClk.c ****                                         CY_SYS_WDT_COUNTER1_INT |\
  32:.\Generated_Source\PSoC4/CyLFClk.c ****                                         CY_SYS_WDT_COUNTER2_INT;
  33:.\Generated_Source\PSoC4/CyLFClk.c **** 
ARM GAS  C:\Users\mitchell\AppData\Local\Temp\ccKXG5jd.s 			page 2


  34:.\Generated_Source\PSoC4/CyLFClk.c ****     static const uint32 counterIntMaskTbl[CY_WDT_NUM_OF_WDT] = {CY_SYS_WDT_COUNTER0_INT,
  35:.\Generated_Source\PSoC4/CyLFClk.c ****                                                                 CY_SYS_WDT_COUNTER1_INT,
  36:.\Generated_Source\PSoC4/CyLFClk.c ****                                                                 CY_SYS_WDT_COUNTER2_INT};
  37:.\Generated_Source\PSoC4/CyLFClk.c **** 
  38:.\Generated_Source\PSoC4/CyLFClk.c ****     static void CySysClkLfclkPosedgeCatch(void);
  39:.\Generated_Source\PSoC4/CyLFClk.c ****     static void CySysClkLfclkPosedgeRestore(void);
  40:.\Generated_Source\PSoC4/CyLFClk.c **** 
  41:.\Generated_Source\PSoC4/CyLFClk.c ****     static uint32 CySysWdtLocked(void);
  42:.\Generated_Source\PSoC4/CyLFClk.c ****     static uint32 CySysClkIloEnabled(void);
  43:.\Generated_Source\PSoC4/CyLFClk.c **** #endif /* (CY_IP_SRSSV2) */
  44:.\Generated_Source\PSoC4/CyLFClk.c **** 
  45:.\Generated_Source\PSoC4/CyLFClk.c **** #if(CY_IP_SRSSV2)
  46:.\Generated_Source\PSoC4/CyLFClk.c ****     static cyWdtCallback cySysWdtCallback[CY_WDT_NUM_OF_WDT] = {(void *)0, (void *)0, (void *)0};
  47:.\Generated_Source\PSoC4/CyLFClk.c **** #else
  48:.\Generated_Source\PSoC4/CyLFClk.c ****     static cyWdtCallback cySysWdtCallback = (void *)0;
  49:.\Generated_Source\PSoC4/CyLFClk.c **** #endif /* (CY_IP_SRSSV2) */
  50:.\Generated_Source\PSoC4/CyLFClk.c **** 
  51:.\Generated_Source\PSoC4/CyLFClk.c **** /*******************************************************************************
  52:.\Generated_Source\PSoC4/CyLFClk.c **** * Function Name: CySysClkIloStart
  53:.\Generated_Source\PSoC4/CyLFClk.c **** ********************************************************************************
  54:.\Generated_Source\PSoC4/CyLFClk.c **** *
  55:.\Generated_Source\PSoC4/CyLFClk.c **** * Summary:
  56:.\Generated_Source\PSoC4/CyLFClk.c **** *  Enables ILO. Refer to the device datasheet for the ILO startup time.
  57:.\Generated_Source\PSoC4/CyLFClk.c **** *
  58:.\Generated_Source\PSoC4/CyLFClk.c **** * Parameters:
  59:.\Generated_Source\PSoC4/CyLFClk.c **** *  None
  60:.\Generated_Source\PSoC4/CyLFClk.c **** *
  61:.\Generated_Source\PSoC4/CyLFClk.c **** * Return:
  62:.\Generated_Source\PSoC4/CyLFClk.c **** *  None
  63:.\Generated_Source\PSoC4/CyLFClk.c **** *
  64:.\Generated_Source\PSoC4/CyLFClk.c **** *******************************************************************************/
  65:.\Generated_Source\PSoC4/CyLFClk.c **** void CySysClkIloStart(void)
  66:.\Generated_Source\PSoC4/CyLFClk.c **** {
  67:.\Generated_Source\PSoC4/CyLFClk.c ****     CY_SYS_CLK_ILO_CONFIG_REG |= CY_SYS_CLK_ILO_CONFIG_ENABLE;
  68:.\Generated_Source\PSoC4/CyLFClk.c **** }
  69:.\Generated_Source\PSoC4/CyLFClk.c **** 
  70:.\Generated_Source\PSoC4/CyLFClk.c **** 
  71:.\Generated_Source\PSoC4/CyLFClk.c **** /*******************************************************************************
  72:.\Generated_Source\PSoC4/CyLFClk.c **** * Function Name: CySysClkIloStop
  73:.\Generated_Source\PSoC4/CyLFClk.c **** ********************************************************************************
  74:.\Generated_Source\PSoC4/CyLFClk.c **** *
  75:.\Generated_Source\PSoC4/CyLFClk.c **** * Summary:
  76:.\Generated_Source\PSoC4/CyLFClk.c **** *  Disables ILO.
  77:.\Generated_Source\PSoC4/CyLFClk.c **** *
  78:.\Generated_Source\PSoC4/CyLFClk.c **** * Parameters:
  79:.\Generated_Source\PSoC4/CyLFClk.c **** *  None.
  80:.\Generated_Source\PSoC4/CyLFClk.c **** *
  81:.\Generated_Source\PSoC4/CyLFClk.c **** * Return:
  82:.\Generated_Source\PSoC4/CyLFClk.c **** *  None.
  83:.\Generated_Source\PSoC4/CyLFClk.c **** *
  84:.\Generated_Source\PSoC4/CyLFClk.c **** * Side Effects:
  85:.\Generated_Source\PSoC4/CyLFClk.c **** *  This function has no effect if WDT is locked (CySysWdtLock() is
  86:.\Generated_Source\PSoC4/CyLFClk.c **** *  called). Call CySysWdtUnlock() to unlock WDT and stop ILO.
  87:.\Generated_Source\PSoC4/CyLFClk.c **** *
  88:.\Generated_Source\PSoC4/CyLFClk.c **** *  PSoC 4100 / PSoC 4200: Note that ILO is required for WDT's operation.
  89:.\Generated_Source\PSoC4/CyLFClk.c **** *  ILO is required for WDT operation.
  90:.\Generated_Source\PSoC4/CyLFClk.c **** *
ARM GAS  C:\Users\mitchell\AppData\Local\Temp\ccKXG5jd.s 			page 3


  91:.\Generated_Source\PSoC4/CyLFClk.c **** *  PSoC 4100-BL / PSoC 4200-BL and PSoC 4100M / PSoC 4200M:
  92:.\Generated_Source\PSoC4/CyLFClk.c **** *  Stopping ILO affects the peripheral clocked by LFCLK, if
  93:.\Generated_Source\PSoC4/CyLFClk.c **** *  LFCLK is configured to be sourced by ILO.
  94:.\Generated_Source\PSoC4/CyLFClk.c **** *
  95:.\Generated_Source\PSoC4/CyLFClk.c **** *******************************************************************************/
  96:.\Generated_Source\PSoC4/CyLFClk.c **** void CySysClkIloStop(void)
  97:.\Generated_Source\PSoC4/CyLFClk.c **** {
  98:.\Generated_Source\PSoC4/CyLFClk.c ****     #if(CY_IP_SRSSV2)
  99:.\Generated_Source\PSoC4/CyLFClk.c ****         uint8  interruptState;
 100:.\Generated_Source\PSoC4/CyLFClk.c **** 
 101:.\Generated_Source\PSoC4/CyLFClk.c ****         /* Do nothing if WDT is locked or ILO is disabled */
 102:.\Generated_Source\PSoC4/CyLFClk.c ****         if (0u == CySysWdtLocked())
 103:.\Generated_Source\PSoC4/CyLFClk.c ****         {
 104:.\Generated_Source\PSoC4/CyLFClk.c ****             if (0u != CySysClkIloEnabled())
 105:.\Generated_Source\PSoC4/CyLFClk.c ****             {
 106:.\Generated_Source\PSoC4/CyLFClk.c **** 
 107:.\Generated_Source\PSoC4/CyLFClk.c ****             #if (CY_IP_WCO)
 108:.\Generated_Source\PSoC4/CyLFClk.c ****                 if (CY_SYS_CLK_LFCLK_SRC_ILO == CySysClkGetLfclkSource())
 109:.\Generated_Source\PSoC4/CyLFClk.c ****                 {
 110:.\Generated_Source\PSoC4/CyLFClk.c ****             #endif /* (CY_IP_WCO) */
 111:.\Generated_Source\PSoC4/CyLFClk.c **** 
 112:.\Generated_Source\PSoC4/CyLFClk.c ****                 interruptState = CyEnterCriticalSection();
 113:.\Generated_Source\PSoC4/CyLFClk.c ****                 CySysClkLfclkPosedgeCatch();
 114:.\Generated_Source\PSoC4/CyLFClk.c ****                 CY_SYS_CLK_ILO_CONFIG_REG &= ( uint32 ) ( ~( uint32 )CY_SYS_CLK_ILO_CONFIG_ENABLE);
 115:.\Generated_Source\PSoC4/CyLFClk.c ****                 CySysClkLfclkPosedgeRestore();
 116:.\Generated_Source\PSoC4/CyLFClk.c ****                 CyExitCriticalSection(interruptState);
 117:.\Generated_Source\PSoC4/CyLFClk.c **** 
 118:.\Generated_Source\PSoC4/CyLFClk.c ****             #if (CY_IP_WCO)
 119:.\Generated_Source\PSoC4/CyLFClk.c ****                 }
 120:.\Generated_Source\PSoC4/CyLFClk.c ****                 else /* Safe to disable - shortened pulse does not impact peripheral */
 121:.\Generated_Source\PSoC4/CyLFClk.c ****                 {
 122:.\Generated_Source\PSoC4/CyLFClk.c ****                     CY_SYS_CLK_ILO_CONFIG_REG &= ( uint32 ) ( ~( uint32 )CY_SYS_CLK_ILO_CONFIG_ENAB
 123:.\Generated_Source\PSoC4/CyLFClk.c ****                 }
 124:.\Generated_Source\PSoC4/CyLFClk.c ****             #endif /* (CY_IP_WCO) */
 125:.\Generated_Source\PSoC4/CyLFClk.c **** 
 126:.\Generated_Source\PSoC4/CyLFClk.c ****             }
 127:.\Generated_Source\PSoC4/CyLFClk.c ****         }
 128:.\Generated_Source\PSoC4/CyLFClk.c ****     #else
 129:.\Generated_Source\PSoC4/CyLFClk.c ****         CY_SYS_CLK_ILO_CONFIG_REG &= ( uint32 ) ( ~( uint32 )CY_SYS_CLK_ILO_CONFIG_ENABLE);
 130:.\Generated_Source\PSoC4/CyLFClk.c ****     #endif /* (CY_IP_SRSSV2) */
 131:.\Generated_Source\PSoC4/CyLFClk.c **** }
 132:.\Generated_Source\PSoC4/CyLFClk.c **** 
 133:.\Generated_Source\PSoC4/CyLFClk.c **** #if(CY_IP_SRSSV2)
 134:.\Generated_Source\PSoC4/CyLFClk.c ****     /*******************************************************************************
 135:.\Generated_Source\PSoC4/CyLFClk.c ****     * Function Name: CySysClkIloEnabled
 136:.\Generated_Source\PSoC4/CyLFClk.c ****     ********************************************************************************
 137:.\Generated_Source\PSoC4/CyLFClk.c ****     *
 138:.\Generated_Source\PSoC4/CyLFClk.c ****     * Summary:
 139:.\Generated_Source\PSoC4/CyLFClk.c ****     *  Reports the ILO enable state.
 140:.\Generated_Source\PSoC4/CyLFClk.c ****     *
 141:.\Generated_Source\PSoC4/CyLFClk.c ****     * Parameters:
 142:.\Generated_Source\PSoC4/CyLFClk.c ****     *  None.
 143:.\Generated_Source\PSoC4/CyLFClk.c ****     *
 144:.\Generated_Source\PSoC4/CyLFClk.c ****     * Return:
 145:.\Generated_Source\PSoC4/CyLFClk.c ****     *  1 if ILO is enabled, and 0 if ILO is disabled.
 146:.\Generated_Source\PSoC4/CyLFClk.c ****     *
 147:.\Generated_Source\PSoC4/CyLFClk.c ****     *******************************************************************************/
ARM GAS  C:\Users\mitchell\AppData\Local\Temp\ccKXG5jd.s 			page 4


 148:.\Generated_Source\PSoC4/CyLFClk.c ****     static uint32 CySysClkIloEnabled(void)
 149:.\Generated_Source\PSoC4/CyLFClk.c ****     {
  25              		.loc 1 149 0
  26              		.cfi_startproc
 150:.\Generated_Source\PSoC4/CyLFClk.c ****         /* Prohibits writing to WDT registers and ILO/WCO registers when not equal to 0 */
 151:.\Generated_Source\PSoC4/CyLFClk.c ****         return ((0u != (CY_SYS_CLK_ILO_CONFIG_REG & (uint32)(CY_SYS_CLK_ILO_CONFIG_ENABLE))) ?
  27              		.loc 1 151 0
  28 0000 034B     		ldr	r3, .L4
  29 0002 1B68     		ldr	r3, [r3]
 152:.\Generated_Source\PSoC4/CyLFClk.c ****             (uint32) 1u :
  30              		.loc 1 152 0
  31 0004 002B     		cmp	r3, #0
  32 0006 01DA     		bge	.L3
  33 0008 0120     		mov	r0, #1
  34 000a 00E0     		b	.L2
  35              	.L3:
  36 000c 0020     		mov	r0, #0
  37              	.L2:
 153:.\Generated_Source\PSoC4/CyLFClk.c ****             (uint32) 0u);
 154:.\Generated_Source\PSoC4/CyLFClk.c ****     }
  38              		.loc 1 154 0
  39              		@ sp needed
  40 000e 7047     		bx	lr
  41              	.L5:
  42              		.align	2
  43              	.L4:
  44 0010 04010B40 		.word	1074462980
  45              		.cfi_endproc
  46              	.LFE2:
  47              		.size	CySysClkIloEnabled, .-CySysClkIloEnabled
  48              		.section	.text.CySysWdtLocked,"ax",%progbits
  49              		.align	2
  50              		.code	16
  51              		.thumb_func
  52              		.type	CySysWdtLocked, %function
  53              	CySysWdtLocked:
  54              	.LFB4:
 155:.\Generated_Source\PSoC4/CyLFClk.c **** #endif /* (CY_IP_SRSSV2) */
 156:.\Generated_Source\PSoC4/CyLFClk.c **** 
 157:.\Generated_Source\PSoC4/CyLFClk.c **** 
 158:.\Generated_Source\PSoC4/CyLFClk.c **** /*******************************************************************************
 159:.\Generated_Source\PSoC4/CyLFClk.c **** * Function Name: CySysClkGetLfclkSource
 160:.\Generated_Source\PSoC4/CyLFClk.c **** ********************************************************************************
 161:.\Generated_Source\PSoC4/CyLFClk.c **** *
 162:.\Generated_Source\PSoC4/CyLFClk.c **** * Summary:
 163:.\Generated_Source\PSoC4/CyLFClk.c **** *  Gets the clock source for the LFCLK clock.
 164:.\Generated_Source\PSoC4/CyLFClk.c **** *  The function is applicable only for PSoC 4100-BL and PSoC 4200-BL.
 165:.\Generated_Source\PSoC4/CyLFClk.c **** *
 166:.\Generated_Source\PSoC4/CyLFClk.c **** * Parameters:
 167:.\Generated_Source\PSoC4/CyLFClk.c **** *  None.
 168:.\Generated_Source\PSoC4/CyLFClk.c **** *
 169:.\Generated_Source\PSoC4/CyLFClk.c **** * Return:
 170:.\Generated_Source\PSoC4/CyLFClk.c **** *  The LFCLK source:
 171:.\Generated_Source\PSoC4/CyLFClk.c **** *   CY_SYS_CLK_LFCLK_SRC_ILO    Internal Low Frequency (32 kHz) Oscillator (ILO)
 172:.\Generated_Source\PSoC4/CyLFClk.c **** *   CY_SYS_CLK_LFCLK_SRC_WCO    Low Frequency Watch Crystal Oscillator (WCO)
 173:.\Generated_Source\PSoC4/CyLFClk.c **** *
 174:.\Generated_Source\PSoC4/CyLFClk.c **** *******************************************************************************/
ARM GAS  C:\Users\mitchell\AppData\Local\Temp\ccKXG5jd.s 			page 5


 175:.\Generated_Source\PSoC4/CyLFClk.c **** #if (CY_IP_WCO)
 176:.\Generated_Source\PSoC4/CyLFClk.c ****     static uint32 CySysClkGetLfclkSource(void)
 177:.\Generated_Source\PSoC4/CyLFClk.c ****     {
 178:.\Generated_Source\PSoC4/CyLFClk.c ****         uint32 lfclkSource;
 179:.\Generated_Source\PSoC4/CyLFClk.c ****         lfclkSource = CY_SYS_WDT_CONFIG_REG & CY_SYS_CLK_LFCLK_SEL_MASK;
 180:.\Generated_Source\PSoC4/CyLFClk.c ****         return (lfclkSource);
 181:.\Generated_Source\PSoC4/CyLFClk.c ****     }
 182:.\Generated_Source\PSoC4/CyLFClk.c **** #endif /* (CY_IP_WCO) */
 183:.\Generated_Source\PSoC4/CyLFClk.c **** 
 184:.\Generated_Source\PSoC4/CyLFClk.c **** 
 185:.\Generated_Source\PSoC4/CyLFClk.c **** /*******************************************************************************
 186:.\Generated_Source\PSoC4/CyLFClk.c **** * Function Name: CySysClkSetLfclkSource
 187:.\Generated_Source\PSoC4/CyLFClk.c **** ********************************************************************************
 188:.\Generated_Source\PSoC4/CyLFClk.c **** *
 189:.\Generated_Source\PSoC4/CyLFClk.c **** * Summary:
 190:.\Generated_Source\PSoC4/CyLFClk.c **** *  Sets the clock source for the LFCLK clock.
 191:.\Generated_Source\PSoC4/CyLFClk.c **** *
 192:.\Generated_Source\PSoC4/CyLFClk.c **** *  The switch between LFCLK sources must be done between the positive edges of
 193:.\Generated_Source\PSoC4/CyLFClk.c **** *  LFCLK, because the glitch risk is around the LFCLK positive edge. To ensure
 194:.\Generated_Source\PSoC4/CyLFClk.c **** *  that the switch can be done safely, the WDT counter value is read until it
 195:.\Generated_Source\PSoC4/CyLFClk.c **** *  changes.
 196:.\Generated_Source\PSoC4/CyLFClk.c **** *
 197:.\Generated_Source\PSoC4/CyLFClk.c **** *  That means that the positive edge just finished and the switch is performed.
 198:.\Generated_Source\PSoC4/CyLFClk.c **** *  The enabled WDT counter is used for that purpose. If no counters are enabled,
 199:.\Generated_Source\PSoC4/CyLFClk.c **** *  counter 0 is enabled. And after the LFCLK source is switched, counter 0
 200:.\Generated_Source\PSoC4/CyLFClk.c **** *  configuration is restored.
 201:.\Generated_Source\PSoC4/CyLFClk.c **** *
 202:.\Generated_Source\PSoC4/CyLFClk.c **** *  The function is applicable only for PSoC 4100-BL and PSoC 4200-BL.
 203:.\Generated_Source\PSoC4/CyLFClk.c **** *
 204:.\Generated_Source\PSoC4/CyLFClk.c **** * Parameters:
 205:.\Generated_Source\PSoC4/CyLFClk.c **** *  source: One of the available LFCLK sources.
 206:.\Generated_Source\PSoC4/CyLFClk.c **** *   CY_SYS_CLK_LFCLK_SRC_ILO    Internal Low Frequency (32 kHz) Oscillator (ILO)
 207:.\Generated_Source\PSoC4/CyLFClk.c **** *   CY_SYS_CLK_LFCLK_SRC_WCO    Low Frequency Watch Crystal Oscillator (WCO)
 208:.\Generated_Source\PSoC4/CyLFClk.c **** *
 209:.\Generated_Source\PSoC4/CyLFClk.c **** * Return:
 210:.\Generated_Source\PSoC4/CyLFClk.c **** *  None
 211:.\Generated_Source\PSoC4/CyLFClk.c **** *
 212:.\Generated_Source\PSoC4/CyLFClk.c **** * Side Effects:
 213:.\Generated_Source\PSoC4/CyLFClk.c **** *  This function has no effect if WDT is locked (CySysWdtLock() is
 214:.\Generated_Source\PSoC4/CyLFClk.c **** *  called). Call CySysWdtUnlock() to unlock WDT.
 215:.\Generated_Source\PSoC4/CyLFClk.c **** *
 216:.\Generated_Source\PSoC4/CyLFClk.c **** *  Both the current source and the new source must be running and stable before
 217:.\Generated_Source\PSoC4/CyLFClk.c **** *  calling this function.
 218:.\Generated_Source\PSoC4/CyLFClk.c **** *
 219:.\Generated_Source\PSoC4/CyLFClk.c **** *  Changing the LFCLK clock source may change the LFCLK clock frequency and
 220:.\Generated_Source\PSoC4/CyLFClk.c **** *  affect the functionality that uses this clock. For example, watchdog timer
 221:.\Generated_Source\PSoC4/CyLFClk.c **** *  "uses this clock" or "this clock uses" (WDT) is clocked by LFCLK.
 222:.\Generated_Source\PSoC4/CyLFClk.c **** *
 223:.\Generated_Source\PSoC4/CyLFClk.c **** *******************************************************************************/
 224:.\Generated_Source\PSoC4/CyLFClk.c **** #if (CY_IP_WCO)
 225:.\Generated_Source\PSoC4/CyLFClk.c ****     void CySysClkSetLfclkSource(uint32 source)
 226:.\Generated_Source\PSoC4/CyLFClk.c ****     {
 227:.\Generated_Source\PSoC4/CyLFClk.c ****         uint8  interruptState;
 228:.\Generated_Source\PSoC4/CyLFClk.c **** 
 229:.\Generated_Source\PSoC4/CyLFClk.c ****         if (CySysClkGetLfclkSource() != source)
 230:.\Generated_Source\PSoC4/CyLFClk.c ****         {
 231:.\Generated_Source\PSoC4/CyLFClk.c ****             interruptState = CyEnterCriticalSection();
ARM GAS  C:\Users\mitchell\AppData\Local\Temp\ccKXG5jd.s 			page 6


 232:.\Generated_Source\PSoC4/CyLFClk.c **** 
 233:.\Generated_Source\PSoC4/CyLFClk.c ****             CySysClkLfclkPosedgeCatch();
 234:.\Generated_Source\PSoC4/CyLFClk.c **** 
 235:.\Generated_Source\PSoC4/CyLFClk.c ****             CY_SYS_WDT_CONFIG_REG = (CY_SYS_WDT_CONFIG_REG & (uint32)(~CY_SYS_CLK_LFCLK_SEL_MASK)) 
 236:.\Generated_Source\PSoC4/CyLFClk.c ****                                     (source & CY_SYS_CLK_LFCLK_SEL_MASK);
 237:.\Generated_Source\PSoC4/CyLFClk.c **** 
 238:.\Generated_Source\PSoC4/CyLFClk.c ****             CySysClkLfclkPosedgeRestore();
 239:.\Generated_Source\PSoC4/CyLFClk.c **** 
 240:.\Generated_Source\PSoC4/CyLFClk.c ****             CyExitCriticalSection(interruptState);
 241:.\Generated_Source\PSoC4/CyLFClk.c ****         }
 242:.\Generated_Source\PSoC4/CyLFClk.c ****     }
 243:.\Generated_Source\PSoC4/CyLFClk.c **** #endif /* (CY_IP_WCO) */
 244:.\Generated_Source\PSoC4/CyLFClk.c **** 
 245:.\Generated_Source\PSoC4/CyLFClk.c **** 
 246:.\Generated_Source\PSoC4/CyLFClk.c **** #if (CY_IP_WCO)
 247:.\Generated_Source\PSoC4/CyLFClk.c ****     /*******************************************************************************
 248:.\Generated_Source\PSoC4/CyLFClk.c ****     * Function Name: CySysClkWcoStart
 249:.\Generated_Source\PSoC4/CyLFClk.c ****     ********************************************************************************
 250:.\Generated_Source\PSoC4/CyLFClk.c ****     *
 251:.\Generated_Source\PSoC4/CyLFClk.c ****     * Summary:
 252:.\Generated_Source\PSoC4/CyLFClk.c ****     *  Enables Watch Crystal Oscillator (WCO). WCO is used as a source for
 253:.\Generated_Source\PSoC4/CyLFClk.c ****     *  LFCLK.  Similar to ILO, WCO is also available in all modes except Hibernate
 254:.\Generated_Source\PSoC4/CyLFClk.c ****     *  and Stop modes.
 255:.\Generated_Source\PSoC4/CyLFClk.c ****     *
 256:.\Generated_Source\PSoC4/CyLFClk.c ****     *  WCO is always enabled in High Power Mode (HPM). Refer to the device
 257:.\Generated_Source\PSoC4/CyLFClk.c ****     *  datasheet for the  WCO startup time. Once WCO becomes stable it can be
 258:.\Generated_Source\PSoC4/CyLFClk.c ****     *  switched to Low Power Mode (LPM). Note that oscillator can be unstable
 259:.\Generated_Source\PSoC4/CyLFClk.c ****     *  during a switch and hence its output should not be used at that moment.
 260:.\Generated_Source\PSoC4/CyLFClk.c ****     *
 261:.\Generated_Source\PSoC4/CyLFClk.c ****     *  The CySysClkWcoSetPowerMode() function configures the WCO power mode.
 262:.\Generated_Source\PSoC4/CyLFClk.c ****     *
 263:.\Generated_Source\PSoC4/CyLFClk.c ****     * Parameters:
 264:.\Generated_Source\PSoC4/CyLFClk.c ****     *  None.
 265:.\Generated_Source\PSoC4/CyLFClk.c ****     *
 266:.\Generated_Source\PSoC4/CyLFClk.c ****     * Return:
 267:.\Generated_Source\PSoC4/CyLFClk.c ****     *  None.
 268:.\Generated_Source\PSoC4/CyLFClk.c ****     *
 269:.\Generated_Source\PSoC4/CyLFClk.c ****     *******************************************************************************/
 270:.\Generated_Source\PSoC4/CyLFClk.c ****     void CySysClkWcoStart(void)
 271:.\Generated_Source\PSoC4/CyLFClk.c ****     {
 272:.\Generated_Source\PSoC4/CyLFClk.c ****         CySysClkWcoSetHighPowerMode();
 273:.\Generated_Source\PSoC4/CyLFClk.c ****         CY_SYS_CLK_WCO_CONFIG_REG |= CY_SYS_CLK_WCO_CONFIG_LPM_ENABLE;
 274:.\Generated_Source\PSoC4/CyLFClk.c ****     }
 275:.\Generated_Source\PSoC4/CyLFClk.c **** 
 276:.\Generated_Source\PSoC4/CyLFClk.c **** 
 277:.\Generated_Source\PSoC4/CyLFClk.c ****     /*******************************************************************************
 278:.\Generated_Source\PSoC4/CyLFClk.c ****     * Function Name: CySysClkWcoStop
 279:.\Generated_Source\PSoC4/CyLFClk.c ****     ********************************************************************************
 280:.\Generated_Source\PSoC4/CyLFClk.c ****     *
 281:.\Generated_Source\PSoC4/CyLFClk.c ****     * Summary:
 282:.\Generated_Source\PSoC4/CyLFClk.c ****     *  Disables the 32KHz Crystal Oscillator.
 283:.\Generated_Source\PSoC4/CyLFClk.c ****     *
 284:.\Generated_Source\PSoC4/CyLFClk.c ****     * Parameters:
 285:.\Generated_Source\PSoC4/CyLFClk.c ****     *  None.
 286:.\Generated_Source\PSoC4/CyLFClk.c ****     *
 287:.\Generated_Source\PSoC4/CyLFClk.c ****     * Return:
 288:.\Generated_Source\PSoC4/CyLFClk.c ****     *  None.
ARM GAS  C:\Users\mitchell\AppData\Local\Temp\ccKXG5jd.s 			page 7


 289:.\Generated_Source\PSoC4/CyLFClk.c ****     *
 290:.\Generated_Source\PSoC4/CyLFClk.c ****     *******************************************************************************/
 291:.\Generated_Source\PSoC4/CyLFClk.c ****     void  CySysClkWcoStop(void)
 292:.\Generated_Source\PSoC4/CyLFClk.c ****     {
 293:.\Generated_Source\PSoC4/CyLFClk.c ****         uint8  interruptState;
 294:.\Generated_Source\PSoC4/CyLFClk.c **** 
 295:.\Generated_Source\PSoC4/CyLFClk.c ****         if (0u != CySysClkWcoEnabled())
 296:.\Generated_Source\PSoC4/CyLFClk.c ****         {
 297:.\Generated_Source\PSoC4/CyLFClk.c **** 
 298:.\Generated_Source\PSoC4/CyLFClk.c ****             if (CY_SYS_CLK_LFCLK_SRC_WCO == CySysClkGetLfclkSource())
 299:.\Generated_Source\PSoC4/CyLFClk.c ****             {
 300:.\Generated_Source\PSoC4/CyLFClk.c ****                 interruptState = CyEnterCriticalSection();
 301:.\Generated_Source\PSoC4/CyLFClk.c ****                 CySysClkLfclkPosedgeCatch();
 302:.\Generated_Source\PSoC4/CyLFClk.c ****                 CY_SYS_CLK_WCO_CONFIG_REG &= (uint32) ~CY_SYS_CLK_WCO_CONFIG_LPM_ENABLE;
 303:.\Generated_Source\PSoC4/CyLFClk.c ****                 CySysClkLfclkPosedgeRestore();
 304:.\Generated_Source\PSoC4/CyLFClk.c ****                 CyExitCriticalSection(interruptState);
 305:.\Generated_Source\PSoC4/CyLFClk.c ****             }
 306:.\Generated_Source\PSoC4/CyLFClk.c ****             else /* Safe to disable - shortened pulse does not impact peripheral */
 307:.\Generated_Source\PSoC4/CyLFClk.c ****             {
 308:.\Generated_Source\PSoC4/CyLFClk.c ****                 CY_SYS_CLK_WCO_CONFIG_REG &= (uint32) ~CY_SYS_CLK_WCO_CONFIG_LPM_ENABLE;
 309:.\Generated_Source\PSoC4/CyLFClk.c ****             }
 310:.\Generated_Source\PSoC4/CyLFClk.c ****         } /* Otherwise do nothing. WCO configuration cannot be changed. */
 311:.\Generated_Source\PSoC4/CyLFClk.c ****     }
 312:.\Generated_Source\PSoC4/CyLFClk.c **** 
 313:.\Generated_Source\PSoC4/CyLFClk.c **** 
 314:.\Generated_Source\PSoC4/CyLFClk.c ****     /*******************************************************************************
 315:.\Generated_Source\PSoC4/CyLFClk.c ****     * Function Name: CySysClkWcoEnabled
 316:.\Generated_Source\PSoC4/CyLFClk.c ****     ********************************************************************************
 317:.\Generated_Source\PSoC4/CyLFClk.c ****     *
 318:.\Generated_Source\PSoC4/CyLFClk.c ****     * Summary:
 319:.\Generated_Source\PSoC4/CyLFClk.c ****     *  Reports the WCO enable state.
 320:.\Generated_Source\PSoC4/CyLFClk.c ****     *
 321:.\Generated_Source\PSoC4/CyLFClk.c ****     * Parameters:
 322:.\Generated_Source\PSoC4/CyLFClk.c ****     *  None.
 323:.\Generated_Source\PSoC4/CyLFClk.c ****     *
 324:.\Generated_Source\PSoC4/CyLFClk.c ****     * Return:
 325:.\Generated_Source\PSoC4/CyLFClk.c ****     *  1 if WCO is enabled, and 0 if WCO is disabled.
 326:.\Generated_Source\PSoC4/CyLFClk.c ****     *
 327:.\Generated_Source\PSoC4/CyLFClk.c ****     *******************************************************************************/
 328:.\Generated_Source\PSoC4/CyLFClk.c ****     uint32 CySysClkWcoEnabled(void)
 329:.\Generated_Source\PSoC4/CyLFClk.c ****     {
 330:.\Generated_Source\PSoC4/CyLFClk.c ****         return ((0u != (CY_SYS_CLK_WCO_CONFIG_REG & (uint32)(CY_SYS_CLK_WCO_CONFIG_LPM_ENABLE))) ?
 331:.\Generated_Source\PSoC4/CyLFClk.c ****                 (uint32) 1u :
 332:.\Generated_Source\PSoC4/CyLFClk.c ****                 (uint32) 0u);
 333:.\Generated_Source\PSoC4/CyLFClk.c ****     }
 334:.\Generated_Source\PSoC4/CyLFClk.c **** 
 335:.\Generated_Source\PSoC4/CyLFClk.c **** 
 336:.\Generated_Source\PSoC4/CyLFClk.c ****     /*******************************************************************************
 337:.\Generated_Source\PSoC4/CyLFClk.c ****     * Function Name: CySysClkWcoSetPowerMode
 338:.\Generated_Source\PSoC4/CyLFClk.c ****     ********************************************************************************
 339:.\Generated_Source\PSoC4/CyLFClk.c ****     *
 340:.\Generated_Source\PSoC4/CyLFClk.c ****     * Summary:
 341:.\Generated_Source\PSoC4/CyLFClk.c ****     *  Sets the power mode for the 32 KHz WCO.
 342:.\Generated_Source\PSoC4/CyLFClk.c ****     *
 343:.\Generated_Source\PSoC4/CyLFClk.c ****     * Parameters:
 344:.\Generated_Source\PSoC4/CyLFClk.c ****     *  uint32 mode:
 345:.\Generated_Source\PSoC4/CyLFClk.c ****     *   CY_SYS_CLK_WCO_HPM  - The High Power mode
ARM GAS  C:\Users\mitchell\AppData\Local\Temp\ccKXG5jd.s 			page 8


 346:.\Generated_Source\PSoC4/CyLFClk.c ****     *   CY_SYS_CLK_WCO_LPM  - The Low Power mode(not applicable for
 347:.\Generated_Source\PSoC4/CyLFClk.c ****     *                         PSoC 4100M / PSoC 4200M devices)
 348:.\Generated_Source\PSoC4/CyLFClk.c ****     *
 349:.\Generated_Source\PSoC4/CyLFClk.c ****     * Return:
 350:.\Generated_Source\PSoC4/CyLFClk.c ****     *  A previous power mode. The same as the parameters.
 351:.\Generated_Source\PSoC4/CyLFClk.c ****     *
 352:.\Generated_Source\PSoC4/CyLFClk.c ****     * Note:
 353:.\Generated_Source\PSoC4/CyLFClk.c ****     *  The WCO Low power mode is not applicable for the PSoC 4100M/PSoC 4200M
 354:.\Generated_Source\PSoC4/CyLFClk.c ****     *  devices.
 355:.\Generated_Source\PSoC4/CyLFClk.c ****     *
 356:.\Generated_Source\PSoC4/CyLFClk.c ****     *******************************************************************************/
 357:.\Generated_Source\PSoC4/CyLFClk.c ****     uint32 CySysClkWcoSetPowerMode(uint32 mode)
 358:.\Generated_Source\PSoC4/CyLFClk.c ****     {
 359:.\Generated_Source\PSoC4/CyLFClk.c ****         uint32 status;
 360:.\Generated_Source\PSoC4/CyLFClk.c **** 
 361:.\Generated_Source\PSoC4/CyLFClk.c ****         status = CY_SYS_CLK_WCO_CONFIG_REG & CY_SYS_CLK_WCO_CONFIG_LPM_EN;
 362:.\Generated_Source\PSoC4/CyLFClk.c **** 
 363:.\Generated_Source\PSoC4/CyLFClk.c ****         switch(mode)
 364:.\Generated_Source\PSoC4/CyLFClk.c ****         {
 365:.\Generated_Source\PSoC4/CyLFClk.c ****         case CY_SYS_CLK_WCO_HPM:
 366:.\Generated_Source\PSoC4/CyLFClk.c ****                 CySysClkWcoSetHighPowerMode();
 367:.\Generated_Source\PSoC4/CyLFClk.c ****             break;
 368:.\Generated_Source\PSoC4/CyLFClk.c **** 
 369:.\Generated_Source\PSoC4/CyLFClk.c ****         #if(!CY_PSOC4_4100M && !CY_PSOC4_4200M)
 370:.\Generated_Source\PSoC4/CyLFClk.c ****             case CY_SYS_CLK_WCO_LPM:
 371:.\Generated_Source\PSoC4/CyLFClk.c ****                     CySysClkWcoSetLowPowerMode();
 372:.\Generated_Source\PSoC4/CyLFClk.c ****                 break;
 373:.\Generated_Source\PSoC4/CyLFClk.c ****         #endif /* (!CY_PSOC4_4100M && !CY_PSOC4_4200M) */
 374:.\Generated_Source\PSoC4/CyLFClk.c **** 
 375:.\Generated_Source\PSoC4/CyLFClk.c ****         default:
 376:.\Generated_Source\PSoC4/CyLFClk.c ****             CYASSERT(0u != 0u);
 377:.\Generated_Source\PSoC4/CyLFClk.c ****             break;
 378:.\Generated_Source\PSoC4/CyLFClk.c ****         }
 379:.\Generated_Source\PSoC4/CyLFClk.c **** 
 380:.\Generated_Source\PSoC4/CyLFClk.c ****         return (status);
 381:.\Generated_Source\PSoC4/CyLFClk.c ****     }
 382:.\Generated_Source\PSoC4/CyLFClk.c **** 
 383:.\Generated_Source\PSoC4/CyLFClk.c **** #endif  /* (CY_IP_WCO) */
 384:.\Generated_Source\PSoC4/CyLFClk.c **** 
 385:.\Generated_Source\PSoC4/CyLFClk.c **** 
 386:.\Generated_Source\PSoC4/CyLFClk.c **** #if(CY_IP_SRSSV2)
 387:.\Generated_Source\PSoC4/CyLFClk.c **** 
 388:.\Generated_Source\PSoC4/CyLFClk.c **** 
 389:.\Generated_Source\PSoC4/CyLFClk.c ****     /*******************************************************************************
 390:.\Generated_Source\PSoC4/CyLFClk.c ****     * Function Name: CySysWdtLock
 391:.\Generated_Source\PSoC4/CyLFClk.c ****     ********************************************************************************
 392:.\Generated_Source\PSoC4/CyLFClk.c ****     *
 393:.\Generated_Source\PSoC4/CyLFClk.c ****     * Summary:
 394:.\Generated_Source\PSoC4/CyLFClk.c ****     *  Locks out configuration changes to the Watchdog timer registers and ILO
 395:.\Generated_Source\PSoC4/CyLFClk.c ****     *  configuration register.
 396:.\Generated_Source\PSoC4/CyLFClk.c ****     *
 397:.\Generated_Source\PSoC4/CyLFClk.c ****     * Parameters:
 398:.\Generated_Source\PSoC4/CyLFClk.c ****     *  None.
 399:.\Generated_Source\PSoC4/CyLFClk.c ****     *
 400:.\Generated_Source\PSoC4/CyLFClk.c ****     * Return:
 401:.\Generated_Source\PSoC4/CyLFClk.c ****     *  None.
 402:.\Generated_Source\PSoC4/CyLFClk.c ****     *
ARM GAS  C:\Users\mitchell\AppData\Local\Temp\ccKXG5jd.s 			page 9


 403:.\Generated_Source\PSoC4/CyLFClk.c ****     * Side effects:
 404:.\Generated_Source\PSoC4/CyLFClk.c ****     *  After this function is called, ILO clock can't be disabled until
 405:.\Generated_Source\PSoC4/CyLFClk.c ****     *  CySysWdtUnlock() is called.
 406:.\Generated_Source\PSoC4/CyLFClk.c ****     *
 407:.\Generated_Source\PSoC4/CyLFClk.c ****     *******************************************************************************/
 408:.\Generated_Source\PSoC4/CyLFClk.c ****     void CySysWdtLock(void)
 409:.\Generated_Source\PSoC4/CyLFClk.c ****     {
 410:.\Generated_Source\PSoC4/CyLFClk.c ****         uint8 interruptState;
 411:.\Generated_Source\PSoC4/CyLFClk.c ****         interruptState = CyEnterCriticalSection();
 412:.\Generated_Source\PSoC4/CyLFClk.c **** 
 413:.\Generated_Source\PSoC4/CyLFClk.c ****         CY_SYS_CLK_SELECT_REG = (CY_SYS_CLK_SELECT_REG & (uint32)(~CY_SYS_WDT_CLK_LOCK_BITS_MASK)) 
 414:.\Generated_Source\PSoC4/CyLFClk.c ****                  CY_SYS_WDT_CLK_LOCK_BITS_MASK;
 415:.\Generated_Source\PSoC4/CyLFClk.c **** 
 416:.\Generated_Source\PSoC4/CyLFClk.c ****         CyExitCriticalSection(interruptState);
 417:.\Generated_Source\PSoC4/CyLFClk.c ****     }
 418:.\Generated_Source\PSoC4/CyLFClk.c **** 
 419:.\Generated_Source\PSoC4/CyLFClk.c **** 
 420:.\Generated_Source\PSoC4/CyLFClk.c ****     /*******************************************************************************
 421:.\Generated_Source\PSoC4/CyLFClk.c ****     * Function Name: CySysWdtLocked
 422:.\Generated_Source\PSoC4/CyLFClk.c ****     ********************************************************************************
 423:.\Generated_Source\PSoC4/CyLFClk.c ****     *
 424:.\Generated_Source\PSoC4/CyLFClk.c ****     * Summary:
 425:.\Generated_Source\PSoC4/CyLFClk.c ****     *  Reports the WDT lock state.
 426:.\Generated_Source\PSoC4/CyLFClk.c ****     *
 427:.\Generated_Source\PSoC4/CyLFClk.c ****     * Parameters:
 428:.\Generated_Source\PSoC4/CyLFClk.c ****     *  None
 429:.\Generated_Source\PSoC4/CyLFClk.c ****     *
 430:.\Generated_Source\PSoC4/CyLFClk.c ****     * Return:
 431:.\Generated_Source\PSoC4/CyLFClk.c ****     *  1 - WDT is locked, and 0 - WDT is unlocked.
 432:.\Generated_Source\PSoC4/CyLFClk.c ****     *
 433:.\Generated_Source\PSoC4/CyLFClk.c ****     *******************************************************************************/
 434:.\Generated_Source\PSoC4/CyLFClk.c ****     static uint32 CySysWdtLocked(void)
 435:.\Generated_Source\PSoC4/CyLFClk.c ****     {
  55              		.loc 1 435 0
  56              		.cfi_startproc
 436:.\Generated_Source\PSoC4/CyLFClk.c ****         /* Prohibits writing to WDT registers and ILO/WCO registers when not equal 0 */
 437:.\Generated_Source\PSoC4/CyLFClk.c ****         return ((0u != (CY_SYS_CLK_SELECT_REG & (uint32)(CY_SYS_WDT_CLK_LOCK_BITS_MASK))) ? (uint32
  57              		.loc 1 437 0
  58 0000 044B     		ldr	r3, .L9
  59 0002 1A68     		ldr	r2, [r3]
  60 0004 C023     		mov	r3, #192
  61 0006 1B02     		lsl	r3, r3, #8
  62 0008 1A42     		tst	r2, r3
  63 000a 01D0     		beq	.L8
  64 000c 0120     		mov	r0, #1
  65 000e 00E0     		b	.L7
  66              	.L8:
  67 0010 0020     		mov	r0, #0
  68              	.L7:
 438:.\Generated_Source\PSoC4/CyLFClk.c ****     }
  69              		.loc 1 438 0 discriminator 3
  70              		@ sp needed
  71 0012 7047     		bx	lr
  72              	.L10:
  73              		.align	2
  74              	.L9:
  75 0014 00010B40 		.word	1074462976
ARM GAS  C:\Users\mitchell\AppData\Local\Temp\ccKXG5jd.s 			page 10


  76              		.cfi_endproc
  77              	.LFE4:
  78              		.size	CySysWdtLocked, .-CySysWdtLocked
  79              		.section	.text.CySysClkIloStart,"ax",%progbits
  80              		.align	2
  81              		.global	CySysClkIloStart
  82              		.code	16
  83              		.thumb_func
  84              		.type	CySysClkIloStart, %function
  85              	CySysClkIloStart:
  86              	.LFB0:
  66:.\Generated_Source\PSoC4/CyLFClk.c **** {
  87              		.loc 1 66 0
  88              		.cfi_startproc
  67:.\Generated_Source\PSoC4/CyLFClk.c ****     CY_SYS_CLK_ILO_CONFIG_REG |= CY_SYS_CLK_ILO_CONFIG_ENABLE;
  89              		.loc 1 67 0
  90 0000 034B     		ldr	r3, .L12
  91 0002 1968     		ldr	r1, [r3]
  92 0004 8022     		mov	r2, #128
  93 0006 1206     		lsl	r2, r2, #24
  94 0008 0A43     		orr	r2, r1
  95 000a 1A60     		str	r2, [r3]
  68:.\Generated_Source\PSoC4/CyLFClk.c **** }
  96              		.loc 1 68 0
  97              		@ sp needed
  98 000c 7047     		bx	lr
  99              	.L13:
 100 000e C046     		.align	2
 101              	.L12:
 102 0010 04010B40 		.word	1074462980
 103              		.cfi_endproc
 104              	.LFE0:
 105              		.size	CySysClkIloStart, .-CySysClkIloStart
 106              		.section	.text.CySysWdtLock,"ax",%progbits
 107              		.align	2
 108              		.global	CySysWdtLock
 109              		.code	16
 110              		.thumb_func
 111              		.type	CySysWdtLock, %function
 112              	CySysWdtLock:
 113              	.LFB3:
 409:.\Generated_Source\PSoC4/CyLFClk.c ****     {
 114              		.loc 1 409 0
 115              		.cfi_startproc
 116 0000 08B5     		push	{r3, lr}
 117              		.cfi_def_cfa_offset 8
 118              		.cfi_offset 3, -8
 119              		.cfi_offset 14, -4
 411:.\Generated_Source\PSoC4/CyLFClk.c ****         interruptState = CyEnterCriticalSection();
 120              		.loc 1 411 0
 121 0002 FFF7FEFF 		bl	CyEnterCriticalSection
 122              	.LVL0:
 413:.\Generated_Source\PSoC4/CyLFClk.c ****         CY_SYS_CLK_SELECT_REG = (CY_SYS_CLK_SELECT_REG & (uint32)(~CY_SYS_WDT_CLK_LOCK_BITS_MASK)) 
 123              		.loc 1 413 0
 124 0006 044B     		ldr	r3, .L15
 125 0008 1968     		ldr	r1, [r3]
 126 000a C022     		mov	r2, #192
ARM GAS  C:\Users\mitchell\AppData\Local\Temp\ccKXG5jd.s 			page 11


 127 000c 1202     		lsl	r2, r2, #8
 128 000e 0A43     		orr	r2, r1
 129 0010 1A60     		str	r2, [r3]
 416:.\Generated_Source\PSoC4/CyLFClk.c ****         CyExitCriticalSection(interruptState);
 130              		.loc 1 416 0
 131 0012 FFF7FEFF 		bl	CyExitCriticalSection
 132              	.LVL1:
 417:.\Generated_Source\PSoC4/CyLFClk.c ****     }
 133              		.loc 1 417 0
 134              		@ sp needed
 135 0016 08BD     		pop	{r3, pc}
 136              	.L16:
 137              		.align	2
 138              	.L15:
 139 0018 00010B40 		.word	1074462976
 140              		.cfi_endproc
 141              	.LFE3:
 142              		.size	CySysWdtLock, .-CySysWdtLock
 143              		.section	.text.CySysWdtUnlock,"ax",%progbits
 144              		.align	2
 145              		.global	CySysWdtUnlock
 146              		.code	16
 147              		.thumb_func
 148              		.type	CySysWdtUnlock, %function
 149              	CySysWdtUnlock:
 150              	.LFB5:
 439:.\Generated_Source\PSoC4/CyLFClk.c **** 
 440:.\Generated_Source\PSoC4/CyLFClk.c **** 
 441:.\Generated_Source\PSoC4/CyLFClk.c ****     /*******************************************************************************
 442:.\Generated_Source\PSoC4/CyLFClk.c ****     * Function Name: CySysWdtUnlock
 443:.\Generated_Source\PSoC4/CyLFClk.c ****     ********************************************************************************
 444:.\Generated_Source\PSoC4/CyLFClk.c ****     *
 445:.\Generated_Source\PSoC4/CyLFClk.c ****     * Summary:
 446:.\Generated_Source\PSoC4/CyLFClk.c ****     *  Unlocks the Watchdog Timer configuration register.
 447:.\Generated_Source\PSoC4/CyLFClk.c ****     *
 448:.\Generated_Source\PSoC4/CyLFClk.c ****     * Parameters:
 449:.\Generated_Source\PSoC4/CyLFClk.c ****     *  None.
 450:.\Generated_Source\PSoC4/CyLFClk.c ****     *
 451:.\Generated_Source\PSoC4/CyLFClk.c ****     * Return:
 452:.\Generated_Source\PSoC4/CyLFClk.c ****     *  None.
 453:.\Generated_Source\PSoC4/CyLFClk.c ****     *
 454:.\Generated_Source\PSoC4/CyLFClk.c ****     *******************************************************************************/
 455:.\Generated_Source\PSoC4/CyLFClk.c ****     void CySysWdtUnlock(void)
 456:.\Generated_Source\PSoC4/CyLFClk.c ****     {
 151              		.loc 1 456 0
 152              		.cfi_startproc
 153 0000 10B5     		push	{r4, lr}
 154              		.cfi_def_cfa_offset 8
 155              		.cfi_offset 4, -8
 156              		.cfi_offset 14, -4
 457:.\Generated_Source\PSoC4/CyLFClk.c ****         uint8 interruptState;
 458:.\Generated_Source\PSoC4/CyLFClk.c ****         interruptState = CyEnterCriticalSection();
 157              		.loc 1 458 0
 158 0002 FFF7FEFF 		bl	CyEnterCriticalSection
 159              	.LVL2:
 459:.\Generated_Source\PSoC4/CyLFClk.c **** 
 460:.\Generated_Source\PSoC4/CyLFClk.c ****         /* Removing WDT lock requires two writes */
ARM GAS  C:\Users\mitchell\AppData\Local\Temp\ccKXG5jd.s 			page 12


 461:.\Generated_Source\PSoC4/CyLFClk.c ****         CY_SYS_CLK_SELECT_REG = ((CY_SYS_CLK_SELECT_REG & (uint32)(~CY_SYS_WDT_CLK_LOCK_BITS_MASK))
 160              		.loc 1 461 0
 161 0006 084B     		ldr	r3, .L18
 162 0008 1968     		ldr	r1, [r3]
 163 000a 084A     		ldr	r2, .L18+4
 164 000c 1140     		and	r1, r2
 165 000e 8024     		mov	r4, #128
 166 0010 E401     		lsl	r4, r4, #7
 167 0012 2143     		orr	r1, r4
 168 0014 1960     		str	r1, [r3]
 462:.\Generated_Source\PSoC4/CyLFClk.c ****                 CY_SYS_WDT_CLK_LOCK_BIT0);
 463:.\Generated_Source\PSoC4/CyLFClk.c **** 
 464:.\Generated_Source\PSoC4/CyLFClk.c ****         CY_SYS_CLK_SELECT_REG = ((CY_SYS_CLK_SELECT_REG & (uint32)(~CY_SYS_WDT_CLK_LOCK_BITS_MASK))
 169              		.loc 1 464 0
 170 0016 1968     		ldr	r1, [r3]
 171 0018 0A40     		and	r2, r1
 172 001a 8021     		mov	r1, #128
 173 001c 0902     		lsl	r1, r1, #8
 174 001e 0A43     		orr	r2, r1
 175 0020 1A60     		str	r2, [r3]
 465:.\Generated_Source\PSoC4/CyLFClk.c ****                 CY_SYS_WDT_CLK_LOCK_BIT1);
 466:.\Generated_Source\PSoC4/CyLFClk.c **** 
 467:.\Generated_Source\PSoC4/CyLFClk.c ****         CyExitCriticalSection(interruptState);
 176              		.loc 1 467 0
 177 0022 FFF7FEFF 		bl	CyExitCriticalSection
 178              	.LVL3:
 468:.\Generated_Source\PSoC4/CyLFClk.c ****     }
 179              		.loc 1 468 0
 180              		@ sp needed
 181 0026 10BD     		pop	{r4, pc}
 182              	.L19:
 183              		.align	2
 184              	.L18:
 185 0028 00010B40 		.word	1074462976
 186 002c FF3FFFFF 		.word	-49153
 187              		.cfi_endproc
 188              	.LFE5:
 189              		.size	CySysWdtUnlock, .-CySysWdtUnlock
 190              		.section	.text.CySysWdtGetEnabledStatus,"ax",%progbits
 191              		.align	2
 192              		.global	CySysWdtGetEnabledStatus
 193              		.code	16
 194              		.thumb_func
 195              		.type	CySysWdtGetEnabledStatus, %function
 196              	CySysWdtGetEnabledStatus:
 197              	.LFB6:
 469:.\Generated_Source\PSoC4/CyLFClk.c **** 
 470:.\Generated_Source\PSoC4/CyLFClk.c **** 
 471:.\Generated_Source\PSoC4/CyLFClk.c ****     /*******************************************************************************
 472:.\Generated_Source\PSoC4/CyLFClk.c ****     * Function Name: CySysWdtGetEnabledStatus
 473:.\Generated_Source\PSoC4/CyLFClk.c ****     ********************************************************************************
 474:.\Generated_Source\PSoC4/CyLFClk.c ****     *
 475:.\Generated_Source\PSoC4/CyLFClk.c ****     * Summary:
 476:.\Generated_Source\PSoC4/CyLFClk.c ****     *  Reads the enabled status of one of the three WDT counters.
 477:.\Generated_Source\PSoC4/CyLFClk.c ****     *
 478:.\Generated_Source\PSoC4/CyLFClk.c ****     * Parameters:
 479:.\Generated_Source\PSoC4/CyLFClk.c ****     *  counterNum: Valid range [0-2].  the number of the WDT counter.
ARM GAS  C:\Users\mitchell\AppData\Local\Temp\ccKXG5jd.s 			page 13


 480:.\Generated_Source\PSoC4/CyLFClk.c ****     *
 481:.\Generated_Source\PSoC4/CyLFClk.c ****     * Return:
 482:.\Generated_Source\PSoC4/CyLFClk.c ****     *  The status of the WDT counter:
 483:.\Generated_Source\PSoC4/CyLFClk.c ****     *   0 - The counter is disabled.
 484:.\Generated_Source\PSoC4/CyLFClk.c ****     *   1 - The counter is enabled.
 485:.\Generated_Source\PSoC4/CyLFClk.c ****     *
 486:.\Generated_Source\PSoC4/CyLFClk.c ****     * Side Effects:
 487:.\Generated_Source\PSoC4/CyLFClk.c ****     *  This function returns an actual WDT counter status from the status register. It may
 488:.\Generated_Source\PSoC4/CyLFClk.c ****     *  take up to 3 LFCLK cycles for the WDT status register to contain actual data
 489:.\Generated_Source\PSoC4/CyLFClk.c ****     *  after the WDT counter is enabled.
 490:.\Generated_Source\PSoC4/CyLFClk.c ****     *
 491:.\Generated_Source\PSoC4/CyLFClk.c ****     *
 492:.\Generated_Source\PSoC4/CyLFClk.c ****     *******************************************************************************/
 493:.\Generated_Source\PSoC4/CyLFClk.c ****     uint32 CySysWdtGetEnabledStatus(uint32 counterNum)
 494:.\Generated_Source\PSoC4/CyLFClk.c ****     {
 198              		.loc 1 494 0
 199              		.cfi_startproc
 200              	.LVL4:
 201 0000 10B5     		push	{r4, lr}
 202              		.cfi_def_cfa_offset 8
 203              		.cfi_offset 4, -8
 204              		.cfi_offset 14, -4
 205 0002 041E     		sub	r4, r0, #0
 495:.\Generated_Source\PSoC4/CyLFClk.c ****         CYASSERT(counterNum < CY_SYS_WDT_COUNTERS_MAX);
 206              		.loc 1 495 0
 207 0004 022C     		cmp	r4, #2
 208 0006 02D9     		bls	.L21
 209              		.loc 1 495 0 is_stmt 0 discriminator 1
 210 0008 0020     		mov	r0, #0
 211              	.LVL5:
 212 000a FFF7FEFF 		bl	CyHalt
 213              	.LVL6:
 214              	.L21:
 496:.\Generated_Source\PSoC4/CyLFClk.c ****         return ((CY_SYS_WDT_CONTROL_REG >> ((CY_SYS_WDT_CNT_SHIFT * counterNum) + CY_SYS_WDT_CNT_ST
 215              		.loc 1 496 0 is_stmt 1
 216 000e 044B     		ldr	r3, .L22
 217 0010 1868     		ldr	r0, [r3]
 218 0012 E400     		lsl	r4, r4, #3
 219              	.LVL7:
 220 0014 0134     		add	r4, r4, #1
 221 0016 E040     		lsr	r0, r0, r4
 222 0018 0124     		mov	r4, #1
 223 001a 2040     		and	r0, r4
 497:.\Generated_Source\PSoC4/CyLFClk.c ****     }
 224              		.loc 1 497 0
 225              		@ sp needed
 226 001c 10BD     		pop	{r4, pc}
 227              	.L23:
 228 001e C046     		.align	2
 229              	.L22:
 230 0020 10020B40 		.word	1074463248
 231              		.cfi_endproc
 232              	.LFE6:
 233              		.size	CySysWdtGetEnabledStatus, .-CySysWdtGetEnabledStatus
 234              		.section	.text.CySysWdtSetMode,"ax",%progbits
 235              		.align	2
 236              		.global	CySysWdtSetMode
ARM GAS  C:\Users\mitchell\AppData\Local\Temp\ccKXG5jd.s 			page 14


 237              		.code	16
 238              		.thumb_func
 239              		.type	CySysWdtSetMode, %function
 240              	CySysWdtSetMode:
 241              	.LFB7:
 498:.\Generated_Source\PSoC4/CyLFClk.c **** 
 499:.\Generated_Source\PSoC4/CyLFClk.c **** 
 500:.\Generated_Source\PSoC4/CyLFClk.c ****     /*******************************************************************************
 501:.\Generated_Source\PSoC4/CyLFClk.c ****     * Function Name: CySysWdtSetMode
 502:.\Generated_Source\PSoC4/CyLFClk.c ****     ********************************************************************************
 503:.\Generated_Source\PSoC4/CyLFClk.c ****     *
 504:.\Generated_Source\PSoC4/CyLFClk.c ****     * Summary:
 505:.\Generated_Source\PSoC4/CyLFClk.c ****     *   Writes the mode of one of the three WDT counters.
 506:.\Generated_Source\PSoC4/CyLFClk.c ****     *
 507:.\Generated_Source\PSoC4/CyLFClk.c ****     * Parameters:
 508:.\Generated_Source\PSoC4/CyLFClk.c ****     *   counterNum: Valid range [0-2].  The number of the WDT counter.
 509:.\Generated_Source\PSoC4/CyLFClk.c ****     *   mode:       Mode of operation for the counter.
 510:.\Generated_Source\PSoC4/CyLFClk.c ****     *       Define                     Mode
 511:.\Generated_Source\PSoC4/CyLFClk.c ****     *        CY_SYS_WDT_MODE_NONE       Free running
 512:.\Generated_Source\PSoC4/CyLFClk.c ****     *        CY_SYS_WDT_MODE_INT        The interrupt generated on match for counter 0
 513:.\Generated_Source\PSoC4/CyLFClk.c ****     *                                   and 1, and on bit toggle for counter 2.
 514:.\Generated_Source\PSoC4/CyLFClk.c ****     *        CY_SYS_WDT_MODE_RESET      Reset on match (valid for counter 0 and 1
 515:.\Generated_Source\PSoC4/CyLFClk.c ****     *                                   only)
 516:.\Generated_Source\PSoC4/CyLFClk.c ****     *        CY_SYS_WDT_MODE_INT_RESET  Generate an interrupt.  Generate a reset on
 517:.\Generated_Source\PSoC4/CyLFClk.c ****     *                                   the 3rd non-handled interrupt.
 518:.\Generated_Source\PSoC4/CyLFClk.c ****     *                                   (valid for counter 0 and 1 only)
 519:.\Generated_Source\PSoC4/CyLFClk.c ****     * Return:
 520:.\Generated_Source\PSoC4/CyLFClk.c ****     *   None.
 521:.\Generated_Source\PSoC4/CyLFClk.c ****     *
 522:.\Generated_Source\PSoC4/CyLFClk.c ****     * Side Effects:
 523:.\Generated_Source\PSoC4/CyLFClk.c ****     *   WDT counter counterNum should be disabled to set a mode. Otherwise, this
 524:.\Generated_Source\PSoC4/CyLFClk.c ****     *   function call has no effect. If the specified counter is enabled,
 525:.\Generated_Source\PSoC4/CyLFClk.c ****     *   call the CySysWdtDisable() function with the corresponding parameter to
 526:.\Generated_Source\PSoC4/CyLFClk.c ****     *   disable the specified counter and wait for it to stop.
 527:.\Generated_Source\PSoC4/CyLFClk.c ****     *
 528:.\Generated_Source\PSoC4/CyLFClk.c ****     *******************************************************************************/
 529:.\Generated_Source\PSoC4/CyLFClk.c ****     void CySysWdtSetMode(uint32 counterNum, uint32 mode)
 530:.\Generated_Source\PSoC4/CyLFClk.c ****     {
 242              		.loc 1 530 0
 243              		.cfi_startproc
 244              	.LVL8:
 245 0000 38B5     		push	{r3, r4, r5, lr}
 246              		.cfi_def_cfa_offset 16
 247              		.cfi_offset 3, -16
 248              		.cfi_offset 4, -12
 249              		.cfi_offset 5, -8
 250              		.cfi_offset 14, -4
 251 0002 041C     		mov	r4, r0
 252 0004 0D1C     		mov	r5, r1
 531:.\Generated_Source\PSoC4/CyLFClk.c ****         uint32 configRegValue;
 532:.\Generated_Source\PSoC4/CyLFClk.c **** 
 533:.\Generated_Source\PSoC4/CyLFClk.c ****         CYASSERT(counterNum < CY_SYS_WDT_COUNTERS_MAX);
 253              		.loc 1 533 0
 254 0006 0228     		cmp	r0, #2
 255 0008 02D9     		bls	.L25
 256              		.loc 1 533 0 is_stmt 0 discriminator 1
 257 000a 0020     		mov	r0, #0
ARM GAS  C:\Users\mitchell\AppData\Local\Temp\ccKXG5jd.s 			page 15


 258              	.LVL9:
 259 000c FFF7FEFF 		bl	CyHalt
 260              	.LVL10:
 261              	.L25:
 534:.\Generated_Source\PSoC4/CyLFClk.c **** 
 535:.\Generated_Source\PSoC4/CyLFClk.c ****         if(0u == CySysWdtGetEnabledStatus(counterNum))
 262              		.loc 1 535 0 is_stmt 1
 263 0010 201C     		mov	r0, r4
 264 0012 FFF7FEFF 		bl	CySysWdtGetEnabledStatus
 265              	.LVL11:
 266 0016 0028     		cmp	r0, #0
 267 0018 0BD1     		bne	.L24
 536:.\Generated_Source\PSoC4/CyLFClk.c ****         {
 537:.\Generated_Source\PSoC4/CyLFClk.c ****             configRegValue = CY_SYS_WDT_CONFIG_REG &
 268              		.loc 1 537 0
 269 001a 064B     		ldr	r3, .L27
 270 001c 1968     		ldr	r1, [r3]
 538:.\Generated_Source\PSoC4/CyLFClk.c ****                                 (uint32)~((uint32)(CY_SYS_WDT_MODE_MASK << (counterNum * CY_SYS_WDT
 271              		.loc 1 538 0
 272 001e E400     		lsl	r4, r4, #3
 273              	.LVL12:
 274 0020 0322     		mov	r2, #3
 275 0022 101C     		mov	r0, r2
 276 0024 A040     		lsl	r0, r0, r4
 537:.\Generated_Source\PSoC4/CyLFClk.c ****             configRegValue = CY_SYS_WDT_CONFIG_REG &
 277              		.loc 1 537 0
 278 0026 8143     		bic	r1, r0
 279              	.LVL13:
 539:.\Generated_Source\PSoC4/CyLFClk.c ****             configRegValue |= (uint32)((mode & CY_SYS_WDT_MODE_MASK) << (counterNum * CY_SYS_WDT_CN
 280              		.loc 1 539 0
 281 0028 2A40     		and	r2, r5
 282 002a A240     		lsl	r2, r2, r4
 283 002c 141C     		mov	r4, r2
 284 002e 0C43     		orr	r4, r1
 285              	.LVL14:
 540:.\Generated_Source\PSoC4/CyLFClk.c ****             CY_SYS_WDT_CONFIG_REG = configRegValue;
 286              		.loc 1 540 0
 287 0030 1C60     		str	r4, [r3]
 288              	.LVL15:
 289              	.L24:
 541:.\Generated_Source\PSoC4/CyLFClk.c ****         }
 542:.\Generated_Source\PSoC4/CyLFClk.c ****     }
 290              		.loc 1 542 0
 291              		@ sp needed
 292              	.LVL16:
 293 0032 38BD     		pop	{r3, r4, r5, pc}
 294              	.L28:
 295              		.align	2
 296              	.L27:
 297 0034 0C020B40 		.word	1074463244
 298              		.cfi_endproc
 299              	.LFE7:
 300              		.size	CySysWdtSetMode, .-CySysWdtSetMode
 301              		.section	.text.CySysClkLfclkPosedgeRestore,"ax",%progbits
 302              		.align	2
 303              		.code	16
 304              		.thumb_func
ARM GAS  C:\Users\mitchell\AppData\Local\Temp\ccKXG5jd.s 			page 16


 305              		.type	CySysClkLfclkPosedgeRestore, %function
 306              	CySysClkLfclkPosedgeRestore:
 307              	.LFB32:
 543:.\Generated_Source\PSoC4/CyLFClk.c **** 
 544:.\Generated_Source\PSoC4/CyLFClk.c **** 
 545:.\Generated_Source\PSoC4/CyLFClk.c ****     /*******************************************************************************
 546:.\Generated_Source\PSoC4/CyLFClk.c ****     * Function Name: CySysWdtGetMode
 547:.\Generated_Source\PSoC4/CyLFClk.c ****     ********************************************************************************
 548:.\Generated_Source\PSoC4/CyLFClk.c ****     *
 549:.\Generated_Source\PSoC4/CyLFClk.c ****     * Summary:
 550:.\Generated_Source\PSoC4/CyLFClk.c ****     *  Reads the mode of one of the three WDT counters.
 551:.\Generated_Source\PSoC4/CyLFClk.c ****     *
 552:.\Generated_Source\PSoC4/CyLFClk.c ****     * Parameters:
 553:.\Generated_Source\PSoC4/CyLFClk.c ****     *  counterNum: Valid range [0-2].  The number of the WDT counter.
 554:.\Generated_Source\PSoC4/CyLFClk.c ****     *
 555:.\Generated_Source\PSoC4/CyLFClk.c ****     * Return:
 556:.\Generated_Source\PSoC4/CyLFClk.c ****     *  The mode of the counter.  The same enumerated values as the mode parameter used in
 557:.\Generated_Source\PSoC4/CyLFClk.c ****     *  CySysWdtSetMode().
 558:.\Generated_Source\PSoC4/CyLFClk.c ****     *
 559:.\Generated_Source\PSoC4/CyLFClk.c ****     *******************************************************************************/
 560:.\Generated_Source\PSoC4/CyLFClk.c ****     uint32 CySysWdtGetMode(uint32 counterNum)
 561:.\Generated_Source\PSoC4/CyLFClk.c ****     {
 562:.\Generated_Source\PSoC4/CyLFClk.c ****         return ((CY_SYS_WDT_CONFIG_REG >> (counterNum * CY_SYS_WDT_CNT_SHIFT)) & CY_SYS_WDT_MODE_MA
 563:.\Generated_Source\PSoC4/CyLFClk.c ****     }
 564:.\Generated_Source\PSoC4/CyLFClk.c **** 
 565:.\Generated_Source\PSoC4/CyLFClk.c **** 
 566:.\Generated_Source\PSoC4/CyLFClk.c ****     /*******************************************************************************
 567:.\Generated_Source\PSoC4/CyLFClk.c ****     * Function Name: CySysWdtSetClearOnMatch
 568:.\Generated_Source\PSoC4/CyLFClk.c ****     ********************************************************************************
 569:.\Generated_Source\PSoC4/CyLFClk.c ****     *
 570:.\Generated_Source\PSoC4/CyLFClk.c ****     * Summary:
 571:.\Generated_Source\PSoC4/CyLFClk.c ****     *  Configures the WDT counter "clear on match" setting.  If configured to "clear
 572:.\Generated_Source\PSoC4/CyLFClk.c ****     *  on match", the counter counts from 0 to MatchValue giving it a
 573:.\Generated_Source\PSoC4/CyLFClk.c ****     *  period of (MatchValue + 1).
 574:.\Generated_Source\PSoC4/CyLFClk.c ****     *
 575:.\Generated_Source\PSoC4/CyLFClk.c ****     * Parameters:
 576:.\Generated_Source\PSoC4/CyLFClk.c ****     *  counterNum:
 577:.\Generated_Source\PSoC4/CyLFClk.c ****     *   Valid range [0-1].  The number of the WDT counter.  The match values are not
 578:.\Generated_Source\PSoC4/CyLFClk.c ****     *   supported by counter 2.
 579:.\Generated_Source\PSoC4/CyLFClk.c ****     *
 580:.\Generated_Source\PSoC4/CyLFClk.c ****     * enable:
 581:.\Generated_Source\PSoC4/CyLFClk.c ****     *   0 to disable, 1 to enable
 582:.\Generated_Source\PSoC4/CyLFClk.c ****     *
 583:.\Generated_Source\PSoC4/CyLFClk.c ****     * Return:
 584:.\Generated_Source\PSoC4/CyLFClk.c ****     *   None.
 585:.\Generated_Source\PSoC4/CyLFClk.c ****     *
 586:.\Generated_Source\PSoC4/CyLFClk.c ****     * Side Effects:
 587:.\Generated_Source\PSoC4/CyLFClk.c ****     *   WDT counter counterNum should be disabled. Otherwise this function call
 588:.\Generated_Source\PSoC4/CyLFClk.c ****     *   has no effect. If the specified counter is enabled, call the CySysWdtDisable()
 589:.\Generated_Source\PSoC4/CyLFClk.c ****     *   function with the corresponding parameter to disable the specified counter and
 590:.\Generated_Source\PSoC4/CyLFClk.c ****     *   wait for it to stop. This may take up to three LFCLK cycles.
 591:.\Generated_Source\PSoC4/CyLFClk.c ****     *
 592:.\Generated_Source\PSoC4/CyLFClk.c ****     *******************************************************************************/
 593:.\Generated_Source\PSoC4/CyLFClk.c ****     void CySysWdtSetClearOnMatch(uint32 counterNum, uint32 enable)
 594:.\Generated_Source\PSoC4/CyLFClk.c ****     {
 595:.\Generated_Source\PSoC4/CyLFClk.c ****         uint32 configRegValue;
 596:.\Generated_Source\PSoC4/CyLFClk.c **** 
ARM GAS  C:\Users\mitchell\AppData\Local\Temp\ccKXG5jd.s 			page 17


 597:.\Generated_Source\PSoC4/CyLFClk.c ****         CYASSERT((counterNum == CY_SYS_WDT_COUNTER0) ||
 598:.\Generated_Source\PSoC4/CyLFClk.c ****                  (counterNum == CY_SYS_WDT_COUNTER1));
 599:.\Generated_Source\PSoC4/CyLFClk.c **** 
 600:.\Generated_Source\PSoC4/CyLFClk.c ****         if(0u == CySysWdtGetEnabledStatus(counterNum))
 601:.\Generated_Source\PSoC4/CyLFClk.c ****         {
 602:.\Generated_Source\PSoC4/CyLFClk.c ****             configRegValue = CY_SYS_WDT_CONFIG_REG &
 603:.\Generated_Source\PSoC4/CyLFClk.c ****                 (uint32)~((uint32)((uint32)1u << ((counterNum * CY_SYS_WDT_CNT_SHIFT) + CY_SYS_WDT_
 604:.\Generated_Source\PSoC4/CyLFClk.c **** 
 605:.\Generated_Source\PSoC4/CyLFClk.c ****             configRegValue
 606:.\Generated_Source\PSoC4/CyLFClk.c ****                 |= (uint32)(enable << ((counterNum * CY_SYS_WDT_CNT_SHIFT) + CY_SYS_WDT_CNT_MATCH_C
 607:.\Generated_Source\PSoC4/CyLFClk.c **** 
 608:.\Generated_Source\PSoC4/CyLFClk.c ****             CY_SYS_WDT_CONFIG_REG = configRegValue;
 609:.\Generated_Source\PSoC4/CyLFClk.c ****         }
 610:.\Generated_Source\PSoC4/CyLFClk.c ****     }
 611:.\Generated_Source\PSoC4/CyLFClk.c **** 
 612:.\Generated_Source\PSoC4/CyLFClk.c **** 
 613:.\Generated_Source\PSoC4/CyLFClk.c ****     /*******************************************************************************
 614:.\Generated_Source\PSoC4/CyLFClk.c ****     * Function Name: CySysWdtGetClearOnMatch
 615:.\Generated_Source\PSoC4/CyLFClk.c ****     ********************************************************************************
 616:.\Generated_Source\PSoC4/CyLFClk.c ****     *
 617:.\Generated_Source\PSoC4/CyLFClk.c ****     * Summary:
 618:.\Generated_Source\PSoC4/CyLFClk.c ****     *  Reads the "clear on match" setting for the specified counter.
 619:.\Generated_Source\PSoC4/CyLFClk.c ****     *
 620:.\Generated_Source\PSoC4/CyLFClk.c ****     * Parameters:
 621:.\Generated_Source\PSoC4/CyLFClk.c ****     *   counterNum: Valid range [0-1].  The number of the WDT counter.  The match values are
 622:.\Generated_Source\PSoC4/CyLFClk.c ****     *               not supported by counter 2.
 623:.\Generated_Source\PSoC4/CyLFClk.c ****     *
 624:.\Generated_Source\PSoC4/CyLFClk.c ****     * Return:
 625:.\Generated_Source\PSoC4/CyLFClk.c ****     *   The "clear on match" status: 1 if enabled, 0 if disabled
 626:.\Generated_Source\PSoC4/CyLFClk.c ****     *
 627:.\Generated_Source\PSoC4/CyLFClk.c ****     *******************************************************************************/
 628:.\Generated_Source\PSoC4/CyLFClk.c ****     uint32 CySysWdtGetClearOnMatch(uint32 counterNum)
 629:.\Generated_Source\PSoC4/CyLFClk.c ****     {
 630:.\Generated_Source\PSoC4/CyLFClk.c ****         CYASSERT((counterNum == CY_SYS_WDT_COUNTER0) ||
 631:.\Generated_Source\PSoC4/CyLFClk.c ****                  (counterNum == CY_SYS_WDT_COUNTER1));
 632:.\Generated_Source\PSoC4/CyLFClk.c **** 
 633:.\Generated_Source\PSoC4/CyLFClk.c ****         return (uint32)((CY_SYS_WDT_CONFIG_REG >>
 634:.\Generated_Source\PSoC4/CyLFClk.c ****                         ((counterNum * CY_SYS_WDT_CNT_SHIFT) + CY_SYS_WDT_CNT_MATCH_CLR_SHIFT)) & 0
 635:.\Generated_Source\PSoC4/CyLFClk.c ****     }
 636:.\Generated_Source\PSoC4/CyLFClk.c **** 
 637:.\Generated_Source\PSoC4/CyLFClk.c **** 
 638:.\Generated_Source\PSoC4/CyLFClk.c ****     /*******************************************************************************
 639:.\Generated_Source\PSoC4/CyLFClk.c ****     * Function Name: CySysWdtEnable
 640:.\Generated_Source\PSoC4/CyLFClk.c ****     ********************************************************************************
 641:.\Generated_Source\PSoC4/CyLFClk.c ****     *
 642:.\Generated_Source\PSoC4/CyLFClk.c ****     * Summary:
 643:.\Generated_Source\PSoC4/CyLFClk.c ****     *  Enables the specified WDT counters.  All the counters specified in the mask
 644:.\Generated_Source\PSoC4/CyLFClk.c ****     *  are enabled.
 645:.\Generated_Source\PSoC4/CyLFClk.c ****     *
 646:.\Generated_Source\PSoC4/CyLFClk.c ****     * Parameters:
 647:.\Generated_Source\PSoC4/CyLFClk.c ****     *  counterMask: The mask of all counters to enable.
 648:.\Generated_Source\PSoC4/CyLFClk.c ****     *       Define                       Counter
 649:.\Generated_Source\PSoC4/CyLFClk.c ****     *      CY_SYS_WDT_COUNTER0_MASK      0
 650:.\Generated_Source\PSoC4/CyLFClk.c ****     *      CY_SYS_WDT_COUNTER1_MASK      1
 651:.\Generated_Source\PSoC4/CyLFClk.c ****     *      CY_SYS_WDT_COUNTER2_MASK      2
 652:.\Generated_Source\PSoC4/CyLFClk.c ****     *
 653:.\Generated_Source\PSoC4/CyLFClk.c ****     * Return:
ARM GAS  C:\Users\mitchell\AppData\Local\Temp\ccKXG5jd.s 			page 18


 654:.\Generated_Source\PSoC4/CyLFClk.c ****     *  None
 655:.\Generated_Source\PSoC4/CyLFClk.c ****     *
 656:.\Generated_Source\PSoC4/CyLFClk.c ****     * Side Effects:
 657:.\Generated_Source\PSoC4/CyLFClk.c ****     *  Enabling or disabling WDT requires 3 LFCLK cycles to come into effect.
 658:.\Generated_Source\PSoC4/CyLFClk.c ****     *  Therefore, the WDT enable state must not be changed more than once in
 659:.\Generated_Source\PSoC4/CyLFClk.c ****     *  that period.
 660:.\Generated_Source\PSoC4/CyLFClk.c ****     *
 661:.\Generated_Source\PSoC4/CyLFClk.c ****     *  After WDT is enabled, it is illegal to write WDT configuration (WDT_CONFIG)
 662:.\Generated_Source\PSoC4/CyLFClk.c ****     *  and control (WDT_CONTROL) registers. This means that all WDT functions that
 663:.\Generated_Source\PSoC4/CyLFClk.c ****     *  contain 'write' in the name (with the exception of CySysWdtSetMatch()
 664:.\Generated_Source\PSoC4/CyLFClk.c ****     *  function) are illegal to call once WDT enabled.
 665:.\Generated_Source\PSoC4/CyLFClk.c ****     *
 666:.\Generated_Source\PSoC4/CyLFClk.c ****     *  PSoC 4100 / PSoC 4200:
 667:.\Generated_Source\PSoC4/CyLFClk.c ****     *  This function enables ILO.
 668:.\Generated_Source\PSoC4/CyLFClk.c ****     *
 669:.\Generated_Source\PSoC4/CyLFClk.c ****     *  PSoC 4100-BL / PSoC 4200-BL and PSoC 4100M / PSoC 4200M:
 670:.\Generated_Source\PSoC4/CyLFClk.c ****     *  LFLCK should be configured before calling this function. The desired
 671:.\Generated_Source\PSoC4/CyLFClk.c ****     *  source should be enabled and configured to be the source for LFCLK.
 672:.\Generated_Source\PSoC4/CyLFClk.c ****     *
 673:.\Generated_Source\PSoC4/CyLFClk.c ****     *******************************************************************************/
 674:.\Generated_Source\PSoC4/CyLFClk.c ****     void CySysWdtEnable(uint32 counterMask)
 675:.\Generated_Source\PSoC4/CyLFClk.c ****     {
 676:.\Generated_Source\PSoC4/CyLFClk.c ****         #if (!CY_IP_WCO)
 677:.\Generated_Source\PSoC4/CyLFClk.c ****             CySysClkIloStart();
 678:.\Generated_Source\PSoC4/CyLFClk.c ****         #endif /* (!CY_IP_WCO) */
 679:.\Generated_Source\PSoC4/CyLFClk.c **** 
 680:.\Generated_Source\PSoC4/CyLFClk.c ****         CY_SYS_WDT_CONTROL_REG |= counterMask;
 681:.\Generated_Source\PSoC4/CyLFClk.c **** 
 682:.\Generated_Source\PSoC4/CyLFClk.c ****         if(0u != (counterMask & CY_SYS_WDT_COUNTER0_MASK))
 683:.\Generated_Source\PSoC4/CyLFClk.c ****         {
 684:.\Generated_Source\PSoC4/CyLFClk.c ****             while (0u == CySysWdtGetEnabledStatus(CY_SYS_WDT_COUNTER0))
 685:.\Generated_Source\PSoC4/CyLFClk.c ****             {
 686:.\Generated_Source\PSoC4/CyLFClk.c ****                 /* Wait for changes to come into effect */
 687:.\Generated_Source\PSoC4/CyLFClk.c ****             }
 688:.\Generated_Source\PSoC4/CyLFClk.c ****         }
 689:.\Generated_Source\PSoC4/CyLFClk.c **** 
 690:.\Generated_Source\PSoC4/CyLFClk.c ****         if(0u != (counterMask & CY_SYS_WDT_COUNTER1_MASK))
 691:.\Generated_Source\PSoC4/CyLFClk.c ****         {
 692:.\Generated_Source\PSoC4/CyLFClk.c ****             while (0u == CySysWdtGetEnabledStatus(CY_SYS_WDT_COUNTER1))
 693:.\Generated_Source\PSoC4/CyLFClk.c ****             {
 694:.\Generated_Source\PSoC4/CyLFClk.c ****                 /* Wait for changes to come into effect */
 695:.\Generated_Source\PSoC4/CyLFClk.c ****             }
 696:.\Generated_Source\PSoC4/CyLFClk.c ****         }
 697:.\Generated_Source\PSoC4/CyLFClk.c **** 
 698:.\Generated_Source\PSoC4/CyLFClk.c ****         if(0u != (counterMask & CY_SYS_WDT_COUNTER2_MASK))
 699:.\Generated_Source\PSoC4/CyLFClk.c ****         {
 700:.\Generated_Source\PSoC4/CyLFClk.c ****             while (0u == CySysWdtGetEnabledStatus(CY_SYS_WDT_COUNTER2))
 701:.\Generated_Source\PSoC4/CyLFClk.c ****             {
 702:.\Generated_Source\PSoC4/CyLFClk.c ****                 /* Wait for changes to come into effect */
 703:.\Generated_Source\PSoC4/CyLFClk.c ****             }
 704:.\Generated_Source\PSoC4/CyLFClk.c ****         }
 705:.\Generated_Source\PSoC4/CyLFClk.c ****     }
 706:.\Generated_Source\PSoC4/CyLFClk.c **** 
 707:.\Generated_Source\PSoC4/CyLFClk.c **** 
 708:.\Generated_Source\PSoC4/CyLFClk.c ****     /*******************************************************************************
 709:.\Generated_Source\PSoC4/CyLFClk.c ****     * Function Name: CySysWdtDisable
 710:.\Generated_Source\PSoC4/CyLFClk.c ****     ********************************************************************************
ARM GAS  C:\Users\mitchell\AppData\Local\Temp\ccKXG5jd.s 			page 19


 711:.\Generated_Source\PSoC4/CyLFClk.c ****     *
 712:.\Generated_Source\PSoC4/CyLFClk.c ****     * Summary:
 713:.\Generated_Source\PSoC4/CyLFClk.c ****     *  Disables the specified WDT counters. All the counters specified in the mask
 714:.\Generated_Source\PSoC4/CyLFClk.c ****     *  are disabled. The function waits for the changes to come into effect.
 715:.\Generated_Source\PSoC4/CyLFClk.c ****     *
 716:.\Generated_Source\PSoC4/CyLFClk.c ****     * Parameters:
 717:.\Generated_Source\PSoC4/CyLFClk.c ****     *  uint32 counterMask: The mask of all counters to disable
 718:.\Generated_Source\PSoC4/CyLFClk.c ****     *    Define                       Counter
 719:.\Generated_Source\PSoC4/CyLFClk.c ****     *   CY_SYS_WDT_COUNTER0_MASK      0
 720:.\Generated_Source\PSoC4/CyLFClk.c ****     *   CY_SYS_WDT_COUNTER1_MASK      1
 721:.\Generated_Source\PSoC4/CyLFClk.c ****     *   CY_SYS_WDT_COUNTER2_MASK      2
 722:.\Generated_Source\PSoC4/CyLFClk.c ****     *
 723:.\Generated_Source\PSoC4/CyLFClk.c ****     * Return:
 724:.\Generated_Source\PSoC4/CyLFClk.c ****     *   None.
 725:.\Generated_Source\PSoC4/CyLFClk.c ****     *
 726:.\Generated_Source\PSoC4/CyLFClk.c ****     *******************************************************************************/
 727:.\Generated_Source\PSoC4/CyLFClk.c ****     void CySysWdtDisable(uint32 counterMask)
 728:.\Generated_Source\PSoC4/CyLFClk.c ****     {
 729:.\Generated_Source\PSoC4/CyLFClk.c ****         if (0uL == CySysWdtLocked())
 730:.\Generated_Source\PSoC4/CyLFClk.c ****         {
 731:.\Generated_Source\PSoC4/CyLFClk.c ****             CY_SYS_WDT_CONTROL_REG &= ~counterMask;
 732:.\Generated_Source\PSoC4/CyLFClk.c **** 
 733:.\Generated_Source\PSoC4/CyLFClk.c ****             if(0u != (counterMask & CY_SYS_WDT_COUNTER0_MASK))
 734:.\Generated_Source\PSoC4/CyLFClk.c ****             {
 735:.\Generated_Source\PSoC4/CyLFClk.c ****                 while (0u != CySysWdtGetEnabledStatus(CY_SYS_WDT_COUNTER0))
 736:.\Generated_Source\PSoC4/CyLFClk.c ****                 {
 737:.\Generated_Source\PSoC4/CyLFClk.c ****                     /* Wait for changes to come into effect */
 738:.\Generated_Source\PSoC4/CyLFClk.c ****                 }
 739:.\Generated_Source\PSoC4/CyLFClk.c ****             }
 740:.\Generated_Source\PSoC4/CyLFClk.c **** 
 741:.\Generated_Source\PSoC4/CyLFClk.c ****             if(0u != (counterMask & CY_SYS_WDT_COUNTER1_MASK))
 742:.\Generated_Source\PSoC4/CyLFClk.c ****             {
 743:.\Generated_Source\PSoC4/CyLFClk.c ****                 while (0u != CySysWdtGetEnabledStatus(CY_SYS_WDT_COUNTER1))
 744:.\Generated_Source\PSoC4/CyLFClk.c ****                 {
 745:.\Generated_Source\PSoC4/CyLFClk.c ****                     /* Wait for changes to come into effect */
 746:.\Generated_Source\PSoC4/CyLFClk.c ****                 }
 747:.\Generated_Source\PSoC4/CyLFClk.c ****             }
 748:.\Generated_Source\PSoC4/CyLFClk.c **** 
 749:.\Generated_Source\PSoC4/CyLFClk.c ****             if(0u != (counterMask & CY_SYS_WDT_COUNTER2_MASK))
 750:.\Generated_Source\PSoC4/CyLFClk.c ****             {
 751:.\Generated_Source\PSoC4/CyLFClk.c ****                 while (0u != CySysWdtGetEnabledStatus(CY_SYS_WDT_COUNTER2))
 752:.\Generated_Source\PSoC4/CyLFClk.c ****                 {
 753:.\Generated_Source\PSoC4/CyLFClk.c ****                     /* Wait for changes to come into effect */
 754:.\Generated_Source\PSoC4/CyLFClk.c ****                 }
 755:.\Generated_Source\PSoC4/CyLFClk.c ****             }
 756:.\Generated_Source\PSoC4/CyLFClk.c ****         }
 757:.\Generated_Source\PSoC4/CyLFClk.c ****     }
 758:.\Generated_Source\PSoC4/CyLFClk.c **** 
 759:.\Generated_Source\PSoC4/CyLFClk.c **** 
 760:.\Generated_Source\PSoC4/CyLFClk.c ****     /*******************************************************************************
 761:.\Generated_Source\PSoC4/CyLFClk.c ****     * Function Name: CySysWdtSetCascade
 762:.\Generated_Source\PSoC4/CyLFClk.c ****     ********************************************************************************
 763:.\Generated_Source\PSoC4/CyLFClk.c ****     *
 764:.\Generated_Source\PSoC4/CyLFClk.c ****     * Summary:
 765:.\Generated_Source\PSoC4/CyLFClk.c ****     *   Writes the two WDT cascade values based on the combination of mask values
 766:.\Generated_Source\PSoC4/CyLFClk.c ****     *   specified.
 767:.\Generated_Source\PSoC4/CyLFClk.c ****     *
ARM GAS  C:\Users\mitchell\AppData\Local\Temp\ccKXG5jd.s 			page 20


 768:.\Generated_Source\PSoC4/CyLFClk.c ****     * Parameters:
 769:.\Generated_Source\PSoC4/CyLFClk.c ****     *   cascadeMask: The mask value used to set or clear the cascade values.
 770:.\Generated_Source\PSoC4/CyLFClk.c ****     *   Define                     Cascade
 771:.\Generated_Source\PSoC4/CyLFClk.c ****     *   CY_SYS_WDT_CASCADE_NONE    Neither
 772:.\Generated_Source\PSoC4/CyLFClk.c ****     *   CY_SYS_WDT_CASCADE_01      Cascade 01
 773:.\Generated_Source\PSoC4/CyLFClk.c ****     *   CY_SYS_WDT_CASCADE_12      Cascade 12
 774:.\Generated_Source\PSoC4/CyLFClk.c ****     *
 775:.\Generated_Source\PSoC4/CyLFClk.c ****     *   To set both cascade modes, two defines should be ORed:
 776:.\Generated_Source\PSoC4/CyLFClk.c ****     *   (CY_SYS_WDT_CASCADE_01 | CY_SYS_WDT_CASCADE_12)
 777:.\Generated_Source\PSoC4/CyLFClk.c ****     *
 778:.\Generated_Source\PSoC4/CyLFClk.c ****     * Return:
 779:.\Generated_Source\PSoC4/CyLFClk.c ****     *   None.
 780:.\Generated_Source\PSoC4/CyLFClk.c ****     *
 781:.\Generated_Source\PSoC4/CyLFClk.c ****     * Side effects:
 782:.\Generated_Source\PSoC4/CyLFClk.c ****     *   If only one cascade mask is specified, the second cascade is disabled.
 783:.\Generated_Source\PSoC4/CyLFClk.c ****     *   To set both cascade modes, two defines should be ORed:
 784:.\Generated_Source\PSoC4/CyLFClk.c ****     *    (CY_SYS_WDT_CASCADE_01 | CY_SYS_WDT_CASCADE_12).
 785:.\Generated_Source\PSoC4/CyLFClk.c ****     *
 786:.\Generated_Source\PSoC4/CyLFClk.c ****     *   WDT counters that are part of the specified cascade should be disabled.
 787:.\Generated_Source\PSoC4/CyLFClk.c ****     *   Otherwise this function call has no effect. If the specified
 788:.\Generated_Source\PSoC4/CyLFClk.c ****     *   counter is enabled, call CySysWdtDisable() function with the corresponding
 789:.\Generated_Source\PSoC4/CyLFClk.c ****     *   parameter to disable the specified counter and wait for it to stop. This may
 790:.\Generated_Source\PSoC4/CyLFClk.c ****     *   take up to 3 LFCLK cycles.
 791:.\Generated_Source\PSoC4/CyLFClk.c ****     *
 792:.\Generated_Source\PSoC4/CyLFClk.c ****     *******************************************************************************/
 793:.\Generated_Source\PSoC4/CyLFClk.c ****     void CySysWdtSetCascade(uint32 cascadeMask)
 794:.\Generated_Source\PSoC4/CyLFClk.c ****     {
 795:.\Generated_Source\PSoC4/CyLFClk.c ****         uint32 configRegValue;
 796:.\Generated_Source\PSoC4/CyLFClk.c ****         uint32 countersEnableStatus;
 797:.\Generated_Source\PSoC4/CyLFClk.c **** 
 798:.\Generated_Source\PSoC4/CyLFClk.c ****         countersEnableStatus = CySysWdtGetEnabledStatus(CY_SYS_WDT_COUNTER0) |
 799:.\Generated_Source\PSoC4/CyLFClk.c ****                             CySysWdtGetEnabledStatus(CY_SYS_WDT_COUNTER1) |
 800:.\Generated_Source\PSoC4/CyLFClk.c ****                             CySysWdtGetEnabledStatus(CY_SYS_WDT_COUNTER2);
 801:.\Generated_Source\PSoC4/CyLFClk.c **** 
 802:.\Generated_Source\PSoC4/CyLFClk.c ****         if (0u == countersEnableStatus)
 803:.\Generated_Source\PSoC4/CyLFClk.c ****         {
 804:.\Generated_Source\PSoC4/CyLFClk.c ****             configRegValue = CY_SYS_WDT_CONFIG_REG;
 805:.\Generated_Source\PSoC4/CyLFClk.c ****             configRegValue &= ((uint32)(~(CY_SYS_WDT_CASCADE_01|CY_SYS_WDT_CASCADE_12)));
 806:.\Generated_Source\PSoC4/CyLFClk.c ****             configRegValue |= cascadeMask;
 807:.\Generated_Source\PSoC4/CyLFClk.c ****             CY_SYS_WDT_CONFIG_REG = configRegValue;
 808:.\Generated_Source\PSoC4/CyLFClk.c ****         }
 809:.\Generated_Source\PSoC4/CyLFClk.c ****     }
 810:.\Generated_Source\PSoC4/CyLFClk.c **** 
 811:.\Generated_Source\PSoC4/CyLFClk.c **** 
 812:.\Generated_Source\PSoC4/CyLFClk.c ****     /*******************************************************************************
 813:.\Generated_Source\PSoC4/CyLFClk.c ****     * Function Name: CySysWdtGetCascade
 814:.\Generated_Source\PSoC4/CyLFClk.c ****     ********************************************************************************
 815:.\Generated_Source\PSoC4/CyLFClk.c ****     *
 816:.\Generated_Source\PSoC4/CyLFClk.c ****     * Summary:
 817:.\Generated_Source\PSoC4/CyLFClk.c ****     *   Reads the two WDT cascade values returning a mask of the bits set.
 818:.\Generated_Source\PSoC4/CyLFClk.c ****     *
 819:.\Generated_Source\PSoC4/CyLFClk.c ****     * Parameters:
 820:.\Generated_Source\PSoC4/CyLFClk.c ****     *   None.
 821:.\Generated_Source\PSoC4/CyLFClk.c ****     *
 822:.\Generated_Source\PSoC4/CyLFClk.c ****     * Return:
 823:.\Generated_Source\PSoC4/CyLFClk.c ****     *   The mask of the cascade values set.
 824:.\Generated_Source\PSoC4/CyLFClk.c ****     *   Define                     Cascade
ARM GAS  C:\Users\mitchell\AppData\Local\Temp\ccKXG5jd.s 			page 21


 825:.\Generated_Source\PSoC4/CyLFClk.c ****     *   CY_SYS_WDT_CASCADE_NONE    Neither
 826:.\Generated_Source\PSoC4/CyLFClk.c ****     *   CY_SYS_WDT_CASCADE_01      Cascade 01
 827:.\Generated_Source\PSoC4/CyLFClk.c ****     *   CY_SYS_WDT_CASCADE_12      Cascade 12
 828:.\Generated_Source\PSoC4/CyLFClk.c ****     *
 829:.\Generated_Source\PSoC4/CyLFClk.c ****     *******************************************************************************/
 830:.\Generated_Source\PSoC4/CyLFClk.c ****     uint32 CySysWdtGetCascade(void)
 831:.\Generated_Source\PSoC4/CyLFClk.c ****     {
 832:.\Generated_Source\PSoC4/CyLFClk.c ****         return (CY_SYS_WDT_CONFIG_REG & (CY_SYS_WDT_CASCADE_01 | CY_SYS_WDT_CASCADE_12));
 833:.\Generated_Source\PSoC4/CyLFClk.c ****     }
 834:.\Generated_Source\PSoC4/CyLFClk.c **** 
 835:.\Generated_Source\PSoC4/CyLFClk.c **** 
 836:.\Generated_Source\PSoC4/CyLFClk.c ****     /*******************************************************************************
 837:.\Generated_Source\PSoC4/CyLFClk.c ****     * Function Name: CySysWdtSetMatch
 838:.\Generated_Source\PSoC4/CyLFClk.c ****     ********************************************************************************
 839:.\Generated_Source\PSoC4/CyLFClk.c ****     *
 840:.\Generated_Source\PSoC4/CyLFClk.c ****     * Summary:
 841:.\Generated_Source\PSoC4/CyLFClk.c ****     *  Configures the WDT counter match comparison value.
 842:.\Generated_Source\PSoC4/CyLFClk.c ****     *
 843:.\Generated_Source\PSoC4/CyLFClk.c ****     * Parameters:
 844:.\Generated_Source\PSoC4/CyLFClk.c ****     *  counterNum:
 845:.\Generated_Source\PSoC4/CyLFClk.c ****     *   Valid range [0-1]. The number of the WDT counter. The match values are not
 846:.\Generated_Source\PSoC4/CyLFClk.c ****     *   supported by counter 2.
 847:.\Generated_Source\PSoC4/CyLFClk.c ****     *
 848:.\Generated_Source\PSoC4/CyLFClk.c ****     *  match:
 849:.\Generated_Source\PSoC4/CyLFClk.c ****     *   Valid range [0-65535]. The value to be used to match against the counter.
 850:.\Generated_Source\PSoC4/CyLFClk.c ****     *
 851:.\Generated_Source\PSoC4/CyLFClk.c ****     * Return:
 852:.\Generated_Source\PSoC4/CyLFClk.c ****     *   None.
 853:.\Generated_Source\PSoC4/CyLFClk.c ****     *
 854:.\Generated_Source\PSoC4/CyLFClk.c ****     *******************************************************************************/
 855:.\Generated_Source\PSoC4/CyLFClk.c ****     void CySysWdtSetMatch(uint32 counterNum, uint32 match)
 856:.\Generated_Source\PSoC4/CyLFClk.c ****     {
 857:.\Generated_Source\PSoC4/CyLFClk.c ****         uint32 regValue;
 858:.\Generated_Source\PSoC4/CyLFClk.c **** 
 859:.\Generated_Source\PSoC4/CyLFClk.c ****         CYASSERT((counterNum == CY_SYS_WDT_COUNTER0) ||
 860:.\Generated_Source\PSoC4/CyLFClk.c ****                  (counterNum == CY_SYS_WDT_COUNTER1));
 861:.\Generated_Source\PSoC4/CyLFClk.c **** 
 862:.\Generated_Source\PSoC4/CyLFClk.c ****         /* Wait for previous changes to come into effect */
 863:.\Generated_Source\PSoC4/CyLFClk.c ****         CyDelayUs(CY_SYS_WDT_3LFCLK_DELAY_US);
 864:.\Generated_Source\PSoC4/CyLFClk.c **** 
 865:.\Generated_Source\PSoC4/CyLFClk.c ****         regValue = CY_SYS_WDT_MATCH_REG;
 866:.\Generated_Source\PSoC4/CyLFClk.c ****         regValue &= (uint32)~((uint32)(CY_SYS_WDT_LOWER_16BITS_MASK << (counterNum * CY_SYS_WDT_CNT
 867:.\Generated_Source\PSoC4/CyLFClk.c ****         CY_SYS_WDT_MATCH_REG = (regValue | (match << (counterNum * CY_SYS_WDT_CNT_MATCH_SHIFT)));
 868:.\Generated_Source\PSoC4/CyLFClk.c **** 
 869:.\Generated_Source\PSoC4/CyLFClk.c ****         /* Make sure match synchronization has started */
 870:.\Generated_Source\PSoC4/CyLFClk.c ****         CyDelayUs(CY_SYS_WDT_1LFCLK_DELAY_US);
 871:.\Generated_Source\PSoC4/CyLFClk.c ****     }
 872:.\Generated_Source\PSoC4/CyLFClk.c **** 
 873:.\Generated_Source\PSoC4/CyLFClk.c **** 
 874:.\Generated_Source\PSoC4/CyLFClk.c ****     /*******************************************************************************
 875:.\Generated_Source\PSoC4/CyLFClk.c ****     * Function Name: CySysWdtSetToggleBit
 876:.\Generated_Source\PSoC4/CyLFClk.c ****     ********************************************************************************
 877:.\Generated_Source\PSoC4/CyLFClk.c ****     *
 878:.\Generated_Source\PSoC4/CyLFClk.c ****     * Summary:
 879:.\Generated_Source\PSoC4/CyLFClk.c ****     *  Configures which bit in WDT counter 2 to monitor for a toggle. When that
 880:.\Generated_Source\PSoC4/CyLFClk.c ****     *  bit toggles, an interrupt is generated if the mode for counter 2 has
 881:.\Generated_Source\PSoC4/CyLFClk.c ****     *  enabled interrupts.
ARM GAS  C:\Users\mitchell\AppData\Local\Temp\ccKXG5jd.s 			page 22


 882:.\Generated_Source\PSoC4/CyLFClk.c ****     *
 883:.\Generated_Source\PSoC4/CyLFClk.c ****     * Parameters:
 884:.\Generated_Source\PSoC4/CyLFClk.c ****     *  bit:
 885:.\Generated_Source\PSoC4/CyLFClk.c ****     *   Valid range [0-31].  Counter 2 bit to monitor for a toggle.
 886:.\Generated_Source\PSoC4/CyLFClk.c ****     *
 887:.\Generated_Source\PSoC4/CyLFClk.c ****     * Return:
 888:.\Generated_Source\PSoC4/CyLFClk.c ****     *   None.
 889:.\Generated_Source\PSoC4/CyLFClk.c ****     *
 890:.\Generated_Source\PSoC4/CyLFClk.c ****     * Side effects:
 891:.\Generated_Source\PSoC4/CyLFClk.c ****     *   WDT Counter 2 should be disabled. Otherwise this function call has no
 892:.\Generated_Source\PSoC4/CyLFClk.c ****     *   effect.
 893:.\Generated_Source\PSoC4/CyLFClk.c ****     *
 894:.\Generated_Source\PSoC4/CyLFClk.c ****     *   If the specified counter is enabled, call the CySysWdtDisable() function with
 895:.\Generated_Source\PSoC4/CyLFClk.c ****     *   the corresponding parameter to disable the specified counter and wait for it to
 896:.\Generated_Source\PSoC4/CyLFClk.c ****     *   stop. This may take up to 3 LFCLK cycles.
 897:.\Generated_Source\PSoC4/CyLFClk.c ****     *
 898:.\Generated_Source\PSoC4/CyLFClk.c ****     *******************************************************************************/
 899:.\Generated_Source\PSoC4/CyLFClk.c ****     void CySysWdtSetToggleBit(uint32 bits)
 900:.\Generated_Source\PSoC4/CyLFClk.c ****     {
 901:.\Generated_Source\PSoC4/CyLFClk.c ****         uint32 configRegValue;
 902:.\Generated_Source\PSoC4/CyLFClk.c **** 
 903:.\Generated_Source\PSoC4/CyLFClk.c ****         if (0u == CySysWdtGetEnabledStatus(CY_SYS_WDT_COUNTER2))
 904:.\Generated_Source\PSoC4/CyLFClk.c ****         {
 905:.\Generated_Source\PSoC4/CyLFClk.c ****             configRegValue = CY_SYS_WDT_CONFIG_REG;
 906:.\Generated_Source\PSoC4/CyLFClk.c ****             configRegValue &= (uint32)(~((uint32)(CY_SYS_WDT_CONFIG_BITS2_MASK << CY_SYS_WDT_CONFIG
 907:.\Generated_Source\PSoC4/CyLFClk.c ****             configRegValue |= ((bits & CY_SYS_WDT_CONFIG_BITS2_MASK) << CY_SYS_WDT_CONFIG_BITS2_POS
 908:.\Generated_Source\PSoC4/CyLFClk.c ****             CY_SYS_WDT_CONFIG_REG = configRegValue;
 909:.\Generated_Source\PSoC4/CyLFClk.c ****         }
 910:.\Generated_Source\PSoC4/CyLFClk.c ****     }
 911:.\Generated_Source\PSoC4/CyLFClk.c **** 
 912:.\Generated_Source\PSoC4/CyLFClk.c **** 
 913:.\Generated_Source\PSoC4/CyLFClk.c ****     /*******************************************************************************
 914:.\Generated_Source\PSoC4/CyLFClk.c ****     * Function Name: CySysWdtGetToggleBit
 915:.\Generated_Source\PSoC4/CyLFClk.c ****     ********************************************************************************
 916:.\Generated_Source\PSoC4/CyLFClk.c ****     *
 917:.\Generated_Source\PSoC4/CyLFClk.c ****     * Summary:
 918:.\Generated_Source\PSoC4/CyLFClk.c ****     *  Reads which bit in WDT counter 2 is monitored for a toggle.
 919:.\Generated_Source\PSoC4/CyLFClk.c ****     *
 920:.\Generated_Source\PSoC4/CyLFClk.c ****     * Parameters:
 921:.\Generated_Source\PSoC4/CyLFClk.c ****     *  None.
 922:.\Generated_Source\PSoC4/CyLFClk.c ****     *
 923:.\Generated_Source\PSoC4/CyLFClk.c ****     * Return:
 924:.\Generated_Source\PSoC4/CyLFClk.c ****     *  The bit that is monitored (range of 0 to 31)
 925:.\Generated_Source\PSoC4/CyLFClk.c ****     *
 926:.\Generated_Source\PSoC4/CyLFClk.c ****     *******************************************************************************/
 927:.\Generated_Source\PSoC4/CyLFClk.c ****     uint32 CySysWdtGetToggleBit(void)
 928:.\Generated_Source\PSoC4/CyLFClk.c ****     {
 929:.\Generated_Source\PSoC4/CyLFClk.c ****         return ((CY_SYS_WDT_CONFIG_REG >> CY_SYS_WDT_CONFIG_BITS2_POS) & CY_SYS_WDT_CONFIG_BITS2_MA
 930:.\Generated_Source\PSoC4/CyLFClk.c ****     }
 931:.\Generated_Source\PSoC4/CyLFClk.c **** 
 932:.\Generated_Source\PSoC4/CyLFClk.c **** 
 933:.\Generated_Source\PSoC4/CyLFClk.c ****     /*******************************************************************************
 934:.\Generated_Source\PSoC4/CyLFClk.c ****     * Function Name: CySysWdtGetMatch
 935:.\Generated_Source\PSoC4/CyLFClk.c ****     ********************************************************************************
 936:.\Generated_Source\PSoC4/CyLFClk.c ****     *
 937:.\Generated_Source\PSoC4/CyLFClk.c ****     * Summary:
 938:.\Generated_Source\PSoC4/CyLFClk.c ****     *  Reads the WDT counter match comparison value.
ARM GAS  C:\Users\mitchell\AppData\Local\Temp\ccKXG5jd.s 			page 23


 939:.\Generated_Source\PSoC4/CyLFClk.c ****     *
 940:.\Generated_Source\PSoC4/CyLFClk.c ****     * Parameters:
 941:.\Generated_Source\PSoC4/CyLFClk.c ****     *  counterNum: Valid range [0-1].  The number of the WDT counter.  The match values
 942:.\Generated_Source\PSoC4/CyLFClk.c ****     *               are not supported by counter 2.
 943:.\Generated_Source\PSoC4/CyLFClk.c ****     *
 944:.\Generated_Source\PSoC4/CyLFClk.c ****     * Return:
 945:.\Generated_Source\PSoC4/CyLFClk.c ****     *  A 16-bit match value.
 946:.\Generated_Source\PSoC4/CyLFClk.c ****     *
 947:.\Generated_Source\PSoC4/CyLFClk.c ****     *******************************************************************************/
 948:.\Generated_Source\PSoC4/CyLFClk.c ****     uint32 CySysWdtGetMatch(uint32 counterNum)
 949:.\Generated_Source\PSoC4/CyLFClk.c ****     {
 950:.\Generated_Source\PSoC4/CyLFClk.c ****         CYASSERT((counterNum == CY_SYS_WDT_COUNTER0) ||
 951:.\Generated_Source\PSoC4/CyLFClk.c ****                  (counterNum == CY_SYS_WDT_COUNTER1));
 952:.\Generated_Source\PSoC4/CyLFClk.c **** 
 953:.\Generated_Source\PSoC4/CyLFClk.c ****         return ((uint32)(CY_SYS_WDT_MATCH_REG >> (counterNum * CY_SYS_WDT_CNT_MATCH_SHIFT)) & CY_SY
 954:.\Generated_Source\PSoC4/CyLFClk.c ****     }
 955:.\Generated_Source\PSoC4/CyLFClk.c **** 
 956:.\Generated_Source\PSoC4/CyLFClk.c **** 
 957:.\Generated_Source\PSoC4/CyLFClk.c ****     /*******************************************************************************
 958:.\Generated_Source\PSoC4/CyLFClk.c ****     * Function Name: CySysWdtGetCount
 959:.\Generated_Source\PSoC4/CyLFClk.c ****     ********************************************************************************
 960:.\Generated_Source\PSoC4/CyLFClk.c ****     *
 961:.\Generated_Source\PSoC4/CyLFClk.c ****     * Summary:
 962:.\Generated_Source\PSoC4/CyLFClk.c ****     *  Reads the current WDT counter value.
 963:.\Generated_Source\PSoC4/CyLFClk.c ****     *
 964:.\Generated_Source\PSoC4/CyLFClk.c ****     * Parameters:
 965:.\Generated_Source\PSoC4/CyLFClk.c ****     *  counterNum: Valid range [0-2].  The number of the WDT counter.
 966:.\Generated_Source\PSoC4/CyLFClk.c ****     *
 967:.\Generated_Source\PSoC4/CyLFClk.c ****     * Return:
 968:.\Generated_Source\PSoC4/CyLFClk.c ****     *  A live counter value.  Counter 0 and 1 are 16 bit counters and counter
 969:.\Generated_Source\PSoC4/CyLFClk.c ****     *  2 is a 32 bit counter.
 970:.\Generated_Source\PSoC4/CyLFClk.c ****     *
 971:.\Generated_Source\PSoC4/CyLFClk.c ****     *******************************************************************************/
 972:.\Generated_Source\PSoC4/CyLFClk.c ****     uint32 CySysWdtGetCount(uint32 counterNum)
 973:.\Generated_Source\PSoC4/CyLFClk.c ****     {
 974:.\Generated_Source\PSoC4/CyLFClk.c ****         uint32 regValue = 0u;
 975:.\Generated_Source\PSoC4/CyLFClk.c **** 
 976:.\Generated_Source\PSoC4/CyLFClk.c ****         switch(counterNum)
 977:.\Generated_Source\PSoC4/CyLFClk.c ****         {
 978:.\Generated_Source\PSoC4/CyLFClk.c ****             /* WDT Counter 0 */
 979:.\Generated_Source\PSoC4/CyLFClk.c ****             case 0u:
 980:.\Generated_Source\PSoC4/CyLFClk.c ****                 regValue = CY_SYS_WDT_CTRLOW_REG & CY_SYS_WDT_LOWER_16BITS_MASK;
 981:.\Generated_Source\PSoC4/CyLFClk.c ****             break;
 982:.\Generated_Source\PSoC4/CyLFClk.c **** 
 983:.\Generated_Source\PSoC4/CyLFClk.c ****             /* WDT Counter 1 */
 984:.\Generated_Source\PSoC4/CyLFClk.c ****             case 1u:
 985:.\Generated_Source\PSoC4/CyLFClk.c ****                 regValue = (CY_SYS_WDT_CTRLOW_REG >> CY_SYS_WDT_CNT_MATCH_SHIFT) & CY_SYS_WDT_LOWER
 986:.\Generated_Source\PSoC4/CyLFClk.c ****             break;
 987:.\Generated_Source\PSoC4/CyLFClk.c **** 
 988:.\Generated_Source\PSoC4/CyLFClk.c ****             /* WDT Counter 2 */
 989:.\Generated_Source\PSoC4/CyLFClk.c ****             case 2u:
 990:.\Generated_Source\PSoC4/CyLFClk.c ****                 regValue = CY_SYS_WDT_CTRHIGH_REG;
 991:.\Generated_Source\PSoC4/CyLFClk.c ****             break;
 992:.\Generated_Source\PSoC4/CyLFClk.c **** 
 993:.\Generated_Source\PSoC4/CyLFClk.c ****             default:
 994:.\Generated_Source\PSoC4/CyLFClk.c ****                 CYASSERT(0u != 0u);
 995:.\Generated_Source\PSoC4/CyLFClk.c ****             break;
ARM GAS  C:\Users\mitchell\AppData\Local\Temp\ccKXG5jd.s 			page 24


 996:.\Generated_Source\PSoC4/CyLFClk.c ****         }
 997:.\Generated_Source\PSoC4/CyLFClk.c **** 
 998:.\Generated_Source\PSoC4/CyLFClk.c ****         return (regValue);
 999:.\Generated_Source\PSoC4/CyLFClk.c ****     }
1000:.\Generated_Source\PSoC4/CyLFClk.c **** 
1001:.\Generated_Source\PSoC4/CyLFClk.c **** 
1002:.\Generated_Source\PSoC4/CyLFClk.c ****     /*******************************************************************************
1003:.\Generated_Source\PSoC4/CyLFClk.c ****     * Function Name: CySysWdtGetInterruptSource
1004:.\Generated_Source\PSoC4/CyLFClk.c ****     ********************************************************************************
1005:.\Generated_Source\PSoC4/CyLFClk.c ****     *
1006:.\Generated_Source\PSoC4/CyLFClk.c ****     * Summary:
1007:.\Generated_Source\PSoC4/CyLFClk.c ****     *   Reads a mask containing all the WDT counters interrupts that are currently
1008:.\Generated_Source\PSoC4/CyLFClk.c ****     *   set by the hardware, if a corresponding mode is selected.
1009:.\Generated_Source\PSoC4/CyLFClk.c ****     *
1010:.\Generated_Source\PSoC4/CyLFClk.c ****     * Parameters:
1011:.\Generated_Source\PSoC4/CyLFClk.c ****     *   None.
1012:.\Generated_Source\PSoC4/CyLFClk.c ****     *
1013:.\Generated_Source\PSoC4/CyLFClk.c ****     * Return:
1014:.\Generated_Source\PSoC4/CyLFClk.c ****     *   The mask of interrupts set.
1015:.\Generated_Source\PSoC4/CyLFClk.c ****     *   Define                    Counter
1016:.\Generated_Source\PSoC4/CyLFClk.c ****     *   CY_SYS_WDT_COUNTER0_INT    0
1017:.\Generated_Source\PSoC4/CyLFClk.c ****     *   CY_SYS_WDT_COUNTER1_INT    1
1018:.\Generated_Source\PSoC4/CyLFClk.c ****     *   CY_SYS_WDT_COUNTER2_INT    2
1019:.\Generated_Source\PSoC4/CyLFClk.c ****     *
1020:.\Generated_Source\PSoC4/CyLFClk.c ****     *******************************************************************************/
1021:.\Generated_Source\PSoC4/CyLFClk.c ****     uint32 CySysWdtGetInterruptSource(void)
1022:.\Generated_Source\PSoC4/CyLFClk.c ****     {
1023:.\Generated_Source\PSoC4/CyLFClk.c ****         return (CY_SYS_WDT_CONTROL_REG & (CY_SYS_WDT_COUNTER0_INT | CY_SYS_WDT_COUNTER1_INT | CY_SY
1024:.\Generated_Source\PSoC4/CyLFClk.c ****     }
1025:.\Generated_Source\PSoC4/CyLFClk.c **** 
1026:.\Generated_Source\PSoC4/CyLFClk.c **** 
1027:.\Generated_Source\PSoC4/CyLFClk.c ****     /*******************************************************************************
1028:.\Generated_Source\PSoC4/CyLFClk.c ****     * Function Name: CySysWdtClearInterrupt
1029:.\Generated_Source\PSoC4/CyLFClk.c ****     ********************************************************************************
1030:.\Generated_Source\PSoC4/CyLFClk.c ****     *
1031:.\Generated_Source\PSoC4/CyLFClk.c ****     * Summary:
1032:.\Generated_Source\PSoC4/CyLFClk.c ****     *   Clears all the WDT counter interrupts set in the mask. Calling this function
1033:.\Generated_Source\PSoC4/CyLFClk.c ****     *   also prevents from Reset when the counter mode is set to generate
1034:.\Generated_Source\PSoC4/CyLFClk.c ****     *   3 interrupts and then the device resets.
1035:.\Generated_Source\PSoC4/CyLFClk.c ****     *
1036:.\Generated_Source\PSoC4/CyLFClk.c ****     *   All the WDT interrupts are to be cleared by the firmware, otherwise
1037:.\Generated_Source\PSoC4/CyLFClk.c ****     *   interrupts are generated continuously.
1038:.\Generated_Source\PSoC4/CyLFClk.c ****     *
1039:.\Generated_Source\PSoC4/CyLFClk.c ****     * Parameters:
1040:.\Generated_Source\PSoC4/CyLFClk.c ****     *   counterMask: The mask of all the counters to enable.
1041:.\Generated_Source\PSoC4/CyLFClk.c ****     *   Define                    Counter
1042:.\Generated_Source\PSoC4/CyLFClk.c ****     *   CY_SYS_WDT_COUNTER0_INT    0
1043:.\Generated_Source\PSoC4/CyLFClk.c ****     *   CY_SYS_WDT_COUNTER1_INT    1
1044:.\Generated_Source\PSoC4/CyLFClk.c ****     *   CY_SYS_WDT_COUNTER2_INT    2
1045:.\Generated_Source\PSoC4/CyLFClk.c ****     *
1046:.\Generated_Source\PSoC4/CyLFClk.c ****     * Return:
1047:.\Generated_Source\PSoC4/CyLFClk.c ****     *   None
1048:.\Generated_Source\PSoC4/CyLFClk.c ****     *
1049:.\Generated_Source\PSoC4/CyLFClk.c ****     * Side effects:
1050:.\Generated_Source\PSoC4/CyLFClk.c ****     *   This function temporary removes the watchdog lock, if it was set, and
1051:.\Generated_Source\PSoC4/CyLFClk.c ****     *   restores the lock state after cleaning the WDT interrupts that are set in
1052:.\Generated_Source\PSoC4/CyLFClk.c ****     *   a mask.
ARM GAS  C:\Users\mitchell\AppData\Local\Temp\ccKXG5jd.s 			page 25


1053:.\Generated_Source\PSoC4/CyLFClk.c ****     *
1054:.\Generated_Source\PSoC4/CyLFClk.c ****     *******************************************************************************/
1055:.\Generated_Source\PSoC4/CyLFClk.c ****     void CySysWdtClearInterrupt(uint32 counterMask)
1056:.\Generated_Source\PSoC4/CyLFClk.c ****     {
1057:.\Generated_Source\PSoC4/CyLFClk.c ****         uint8 interruptState;
1058:.\Generated_Source\PSoC4/CyLFClk.c ****         uint32 wdtLockState;
1059:.\Generated_Source\PSoC4/CyLFClk.c **** 
1060:.\Generated_Source\PSoC4/CyLFClk.c ****         interruptState = CyEnterCriticalSection();
1061:.\Generated_Source\PSoC4/CyLFClk.c **** 
1062:.\Generated_Source\PSoC4/CyLFClk.c ****         if (0u != CySysWdtLocked())
1063:.\Generated_Source\PSoC4/CyLFClk.c ****         {
1064:.\Generated_Source\PSoC4/CyLFClk.c ****             wdtLockState = 1u;
1065:.\Generated_Source\PSoC4/CyLFClk.c ****             CySysWdtUnlock();
1066:.\Generated_Source\PSoC4/CyLFClk.c ****         }
1067:.\Generated_Source\PSoC4/CyLFClk.c ****         else
1068:.\Generated_Source\PSoC4/CyLFClk.c ****         {
1069:.\Generated_Source\PSoC4/CyLFClk.c ****             wdtLockState = 0u;
1070:.\Generated_Source\PSoC4/CyLFClk.c ****         }
1071:.\Generated_Source\PSoC4/CyLFClk.c **** 
1072:.\Generated_Source\PSoC4/CyLFClk.c ****         /* Set new WDT control register value */
1073:.\Generated_Source\PSoC4/CyLFClk.c ****         counterMask &= (CY_SYS_WDT_COUNTER0_INT |
1074:.\Generated_Source\PSoC4/CyLFClk.c ****                         CY_SYS_WDT_COUNTER1_INT |
1075:.\Generated_Source\PSoC4/CyLFClk.c ****                         CY_SYS_WDT_COUNTER2_INT);
1076:.\Generated_Source\PSoC4/CyLFClk.c **** 
1077:.\Generated_Source\PSoC4/CyLFClk.c ****         CY_SYS_WDT_CONTROL_REG = counterMask | (CY_SYS_WDT_CONTROL_REG & ~(CY_SYS_WDT_COUNTER0_INT 
1078:.\Generated_Source\PSoC4/CyLFClk.c ****                                                                            CY_SYS_WDT_COUNTER1_INT 
1079:.\Generated_Source\PSoC4/CyLFClk.c ****                                                                            CY_SYS_WDT_COUNTER2_INT)
1080:.\Generated_Source\PSoC4/CyLFClk.c **** 
1081:.\Generated_Source\PSoC4/CyLFClk.c ****         /* Read the CY_SYS_WDT_CONTROL_REG to clear the interrupt request.
1082:.\Generated_Source\PSoC4/CyLFClk.c ****          * Cypress ID #207093, #206231
1083:.\Generated_Source\PSoC4/CyLFClk.c ****         */
1084:.\Generated_Source\PSoC4/CyLFClk.c ****         (void)CY_SYS_WDT_CONTROL_REG;
1085:.\Generated_Source\PSoC4/CyLFClk.c **** 
1086:.\Generated_Source\PSoC4/CyLFClk.c ****         if (1u == wdtLockState)
1087:.\Generated_Source\PSoC4/CyLFClk.c ****         {
1088:.\Generated_Source\PSoC4/CyLFClk.c ****             CySysWdtLock();
1089:.\Generated_Source\PSoC4/CyLFClk.c ****         }
1090:.\Generated_Source\PSoC4/CyLFClk.c **** 
1091:.\Generated_Source\PSoC4/CyLFClk.c ****         CyExitCriticalSection(interruptState);
1092:.\Generated_Source\PSoC4/CyLFClk.c ****     }
1093:.\Generated_Source\PSoC4/CyLFClk.c **** 
1094:.\Generated_Source\PSoC4/CyLFClk.c **** 
1095:.\Generated_Source\PSoC4/CyLFClk.c ****     /*******************************************************************************
1096:.\Generated_Source\PSoC4/CyLFClk.c ****     * Function Name: CySysWdtResetCounters
1097:.\Generated_Source\PSoC4/CyLFClk.c ****     ********************************************************************************
1098:.\Generated_Source\PSoC4/CyLFClk.c ****     *
1099:.\Generated_Source\PSoC4/CyLFClk.c ****     * Summary:
1100:.\Generated_Source\PSoC4/CyLFClk.c ****     *  Resets all the WDT counters set in the mask.
1101:.\Generated_Source\PSoC4/CyLFClk.c ****     *
1102:.\Generated_Source\PSoC4/CyLFClk.c ****     * Parameters:
1103:.\Generated_Source\PSoC4/CyLFClk.c ****     *  counterMask: The mask of all the counters to reset.
1104:.\Generated_Source\PSoC4/CyLFClk.c ****     *   Define                       Counter
1105:.\Generated_Source\PSoC4/CyLFClk.c ****     *   CY_SYS_WDT_COUNTER0_RESET    0
1106:.\Generated_Source\PSoC4/CyLFClk.c ****     *   CY_SYS_WDT_COUNTER1_RESET    1
1107:.\Generated_Source\PSoC4/CyLFClk.c ****     *   CY_SYS_WDT_COUNTER2_RESET    2
1108:.\Generated_Source\PSoC4/CyLFClk.c ****     *
1109:.\Generated_Source\PSoC4/CyLFClk.c ****     * Return:
ARM GAS  C:\Users\mitchell\AppData\Local\Temp\ccKXG5jd.s 			page 26


1110:.\Generated_Source\PSoC4/CyLFClk.c ****     *   None
1111:.\Generated_Source\PSoC4/CyLFClk.c ****     *
1112:.\Generated_Source\PSoC4/CyLFClk.c ****     * Side effects:
1113:.\Generated_Source\PSoC4/CyLFClk.c ****     *   This function does not reset counter values if the Watchdog is locked.
1114:.\Generated_Source\PSoC4/CyLFClk.c ****     *   This function waits while corresponding counters will be reset. This may
1115:.\Generated_Source\PSoC4/CyLFClk.c ****     *   take up to 3 LFCLK cycles.
1116:.\Generated_Source\PSoC4/CyLFClk.c ****     *   The LFCLK source must be enabled. Otherwise, the function will never exit.
1117:.\Generated_Source\PSoC4/CyLFClk.c ****     *
1118:.\Generated_Source\PSoC4/CyLFClk.c ****     *******************************************************************************/
1119:.\Generated_Source\PSoC4/CyLFClk.c ****     void CySysWdtResetCounters(uint32 countersMask)
1120:.\Generated_Source\PSoC4/CyLFClk.c ****     {
1121:.\Generated_Source\PSoC4/CyLFClk.c ****         /* Set new WDT reset value */
1122:.\Generated_Source\PSoC4/CyLFClk.c ****         CY_SYS_WDT_CONTROL_REG |= (countersMask & CY_SYS_WDT_COUNTERS_RESET);
1123:.\Generated_Source\PSoC4/CyLFClk.c **** 
1124:.\Generated_Source\PSoC4/CyLFClk.c ****         while (0uL != (CY_SYS_WDT_CONTROL_REG & CY_SYS_WDT_COUNTERS_RESET))
1125:.\Generated_Source\PSoC4/CyLFClk.c ****         {
1126:.\Generated_Source\PSoC4/CyLFClk.c ****             /* Wait for reset to come into effect */
1127:.\Generated_Source\PSoC4/CyLFClk.c ****         }
1128:.\Generated_Source\PSoC4/CyLFClk.c ****     }
1129:.\Generated_Source\PSoC4/CyLFClk.c **** 
1130:.\Generated_Source\PSoC4/CyLFClk.c **** 
1131:.\Generated_Source\PSoC4/CyLFClk.c ****     /*******************************************************************************
1132:.\Generated_Source\PSoC4/CyLFClk.c ****     * Function Name: CySysWdtSetInterruptCallback
1133:.\Generated_Source\PSoC4/CyLFClk.c ****     ********************************************************************************
1134:.\Generated_Source\PSoC4/CyLFClk.c ****     *
1135:.\Generated_Source\PSoC4/CyLFClk.c ****     * Summary:
1136:.\Generated_Source\PSoC4/CyLFClk.c ****     *  Sets the ISR callback function for the particular WDT counter.
1137:.\Generated_Source\PSoC4/CyLFClk.c ****     *  These functions are called on the WDT interrupt.
1138:.\Generated_Source\PSoC4/CyLFClk.c ****     *
1139:.\Generated_Source\PSoC4/CyLFClk.c ****     * Parameters:
1140:.\Generated_Source\PSoC4/CyLFClk.c ****     *  counterNum : The number of the WDT counter.
1141:.\Generated_Source\PSoC4/CyLFClk.c ****     *  function   : The pointer to the callback function.
1142:.\Generated_Source\PSoC4/CyLFClk.c ****     *
1143:.\Generated_Source\PSoC4/CyLFClk.c ****     * Return:
1144:.\Generated_Source\PSoC4/CyLFClk.c ****     *  The pointer to the previous callback function.
1145:.\Generated_Source\PSoC4/CyLFClk.c ****     *  NULL is returned if the specified address is not set.
1146:.\Generated_Source\PSoC4/CyLFClk.c ****     *
1147:.\Generated_Source\PSoC4/CyLFClk.c ****     *******************************************************************************/
1148:.\Generated_Source\PSoC4/CyLFClk.c ****     cyWdtCallback CySysWdtSetInterruptCallback(uint32 counterNum, cyWdtCallback function)
1149:.\Generated_Source\PSoC4/CyLFClk.c ****     {
1150:.\Generated_Source\PSoC4/CyLFClk.c ****         cyWdtCallback prevCallback = (void *)0;
1151:.\Generated_Source\PSoC4/CyLFClk.c **** 
1152:.\Generated_Source\PSoC4/CyLFClk.c ****         if(counterNum < CY_WDT_NUM_OF_WDT)
1153:.\Generated_Source\PSoC4/CyLFClk.c ****         {
1154:.\Generated_Source\PSoC4/CyLFClk.c ****             prevCallback = cySysWdtCallback[counterNum];
1155:.\Generated_Source\PSoC4/CyLFClk.c ****             cySysWdtCallback[counterNum] = function;
1156:.\Generated_Source\PSoC4/CyLFClk.c ****         }
1157:.\Generated_Source\PSoC4/CyLFClk.c ****         else
1158:.\Generated_Source\PSoC4/CyLFClk.c ****         {
1159:.\Generated_Source\PSoC4/CyLFClk.c ****             CYASSERT(0u != 0u);
1160:.\Generated_Source\PSoC4/CyLFClk.c ****         }
1161:.\Generated_Source\PSoC4/CyLFClk.c **** 
1162:.\Generated_Source\PSoC4/CyLFClk.c ****         return((cyWdtCallback)prevCallback);
1163:.\Generated_Source\PSoC4/CyLFClk.c ****     }
1164:.\Generated_Source\PSoC4/CyLFClk.c **** 
1165:.\Generated_Source\PSoC4/CyLFClk.c **** 
1166:.\Generated_Source\PSoC4/CyLFClk.c ****     /*******************************************************************************
ARM GAS  C:\Users\mitchell\AppData\Local\Temp\ccKXG5jd.s 			page 27


1167:.\Generated_Source\PSoC4/CyLFClk.c ****     * Function Name: CySysWdtGetInterruptCallback
1168:.\Generated_Source\PSoC4/CyLFClk.c ****     ********************************************************************************
1169:.\Generated_Source\PSoC4/CyLFClk.c ****     *
1170:.\Generated_Source\PSoC4/CyLFClk.c ****     * Summary:
1171:.\Generated_Source\PSoC4/CyLFClk.c ****     *  Gets the ISR callback function for the particular WDT counter.
1172:.\Generated_Source\PSoC4/CyLFClk.c ****     *
1173:.\Generated_Source\PSoC4/CyLFClk.c ****     * Parameters:
1174:.\Generated_Source\PSoC4/CyLFClk.c ****     *  counterNum : The number of the WDT counter.
1175:.\Generated_Source\PSoC4/CyLFClk.c ****     *
1176:.\Generated_Source\PSoC4/CyLFClk.c ****     * Return:
1177:.\Generated_Source\PSoC4/CyLFClk.c ****     *  The pointer to the callback function registered for a particular WDT by
1178:.\Generated_Source\PSoC4/CyLFClk.c ****     *  a particular address that are passed through arguments.
1179:.\Generated_Source\PSoC4/CyLFClk.c ****     *
1180:.\Generated_Source\PSoC4/CyLFClk.c ****     *******************************************************************************/
1181:.\Generated_Source\PSoC4/CyLFClk.c ****     cyWdtCallback CySysWdtGetInterruptCallback(uint32 counterNum)
1182:.\Generated_Source\PSoC4/CyLFClk.c ****     {
1183:.\Generated_Source\PSoC4/CyLFClk.c ****         cyWdtCallback retCallback = (void *)0;
1184:.\Generated_Source\PSoC4/CyLFClk.c **** 
1185:.\Generated_Source\PSoC4/CyLFClk.c ****         if(counterNum < CY_WDT_NUM_OF_WDT)
1186:.\Generated_Source\PSoC4/CyLFClk.c ****         {
1187:.\Generated_Source\PSoC4/CyLFClk.c ****             retCallback = (cyWdtCallback)cySysWdtCallback[counterNum];
1188:.\Generated_Source\PSoC4/CyLFClk.c ****         }
1189:.\Generated_Source\PSoC4/CyLFClk.c ****         else
1190:.\Generated_Source\PSoC4/CyLFClk.c ****         {
1191:.\Generated_Source\PSoC4/CyLFClk.c ****             CYASSERT(0u != 0u);
1192:.\Generated_Source\PSoC4/CyLFClk.c ****         }
1193:.\Generated_Source\PSoC4/CyLFClk.c **** 
1194:.\Generated_Source\PSoC4/CyLFClk.c ****         return(retCallback);
1195:.\Generated_Source\PSoC4/CyLFClk.c ****     }
1196:.\Generated_Source\PSoC4/CyLFClk.c **** 
1197:.\Generated_Source\PSoC4/CyLFClk.c **** 
1198:.\Generated_Source\PSoC4/CyLFClk.c ****     /*******************************************************************************
1199:.\Generated_Source\PSoC4/CyLFClk.c ****     * Function Name: CySysWdtEnableCounterIsr
1200:.\Generated_Source\PSoC4/CyLFClk.c ****     ********************************************************************************
1201:.\Generated_Source\PSoC4/CyLFClk.c ****     *
1202:.\Generated_Source\PSoC4/CyLFClk.c ****     * Summary:
1203:.\Generated_Source\PSoC4/CyLFClk.c ****     *  Enables the ISR callback servicing for the particular WDT counter
1204:.\Generated_Source\PSoC4/CyLFClk.c ****     *
1205:.\Generated_Source\PSoC4/CyLFClk.c ****     * Parameters:
1206:.\Generated_Source\PSoC4/CyLFClk.c ****     *  counterNum: Valid range [0-2].  The number of the WDT counter.
1207:.\Generated_Source\PSoC4/CyLFClk.c ****     *
1208:.\Generated_Source\PSoC4/CyLFClk.c ****     *******************************************************************************/
1209:.\Generated_Source\PSoC4/CyLFClk.c ****     void CySysWdtEnableCounterIsr(uint32 counterNum)
1210:.\Generated_Source\PSoC4/CyLFClk.c ****     {
1211:.\Generated_Source\PSoC4/CyLFClk.c ****         if(counterNum <= CY_SYS_WDT_COUNTER2)
1212:.\Generated_Source\PSoC4/CyLFClk.c ****         {
1213:.\Generated_Source\PSoC4/CyLFClk.c ****             disableServicedIsr &= ~counterIntMaskTbl[counterNum];
1214:.\Generated_Source\PSoC4/CyLFClk.c ****             wdtIsrMask |= counterIntMaskTbl[counterNum];
1215:.\Generated_Source\PSoC4/CyLFClk.c ****         }
1216:.\Generated_Source\PSoC4/CyLFClk.c ****         else
1217:.\Generated_Source\PSoC4/CyLFClk.c ****         {
1218:.\Generated_Source\PSoC4/CyLFClk.c ****             CYASSERT(0u != 0u);
1219:.\Generated_Source\PSoC4/CyLFClk.c ****         }
1220:.\Generated_Source\PSoC4/CyLFClk.c ****     }
1221:.\Generated_Source\PSoC4/CyLFClk.c **** 
1222:.\Generated_Source\PSoC4/CyLFClk.c **** 
1223:.\Generated_Source\PSoC4/CyLFClk.c ****     /*******************************************************************************
ARM GAS  C:\Users\mitchell\AppData\Local\Temp\ccKXG5jd.s 			page 28


1224:.\Generated_Source\PSoC4/CyLFClk.c ****     * Function Name: CySysWdtDisableCounterIsr
1225:.\Generated_Source\PSoC4/CyLFClk.c ****     ********************************************************************************
1226:.\Generated_Source\PSoC4/CyLFClk.c ****     *
1227:.\Generated_Source\PSoC4/CyLFClk.c ****     * Summary:
1228:.\Generated_Source\PSoC4/CyLFClk.c ****     *  Disables the ISR callback servicing for the particular WDT counter
1229:.\Generated_Source\PSoC4/CyLFClk.c ****     *
1230:.\Generated_Source\PSoC4/CyLFClk.c ****     * Parameters:
1231:.\Generated_Source\PSoC4/CyLFClk.c ****     *  counterNum: Valid range [0-2].  The number of the WDT counter.
1232:.\Generated_Source\PSoC4/CyLFClk.c ****     *
1233:.\Generated_Source\PSoC4/CyLFClk.c ****     *******************************************************************************/
1234:.\Generated_Source\PSoC4/CyLFClk.c ****     void CySysWdtDisableCounterIsr(uint32 counterNum)
1235:.\Generated_Source\PSoC4/CyLFClk.c ****     {
1236:.\Generated_Source\PSoC4/CyLFClk.c ****         if(counterNum <= CY_SYS_WDT_COUNTER2)
1237:.\Generated_Source\PSoC4/CyLFClk.c ****         {
1238:.\Generated_Source\PSoC4/CyLFClk.c ****             wdtIsrMask &= ~counterIntMaskTbl[counterNum];
1239:.\Generated_Source\PSoC4/CyLFClk.c ****         }
1240:.\Generated_Source\PSoC4/CyLFClk.c ****         else
1241:.\Generated_Source\PSoC4/CyLFClk.c ****         {
1242:.\Generated_Source\PSoC4/CyLFClk.c ****             CYASSERT(0u != 0u);
1243:.\Generated_Source\PSoC4/CyLFClk.c ****         }
1244:.\Generated_Source\PSoC4/CyLFClk.c ****     }
1245:.\Generated_Source\PSoC4/CyLFClk.c **** 
1246:.\Generated_Source\PSoC4/CyLFClk.c **** 
1247:.\Generated_Source\PSoC4/CyLFClk.c ****     /*******************************************************************************
1248:.\Generated_Source\PSoC4/CyLFClk.c ****     * Function Name: CySysWdtIsr
1249:.\Generated_Source\PSoC4/CyLFClk.c ****     ********************************************************************************
1250:.\Generated_Source\PSoC4/CyLFClk.c ****     *
1251:.\Generated_Source\PSoC4/CyLFClk.c ****     * Summary:
1252:.\Generated_Source\PSoC4/CyLFClk.c ****     *  This is the handler of the WDT interrupt in CPU NVIC. The handler checks
1253:.\Generated_Source\PSoC4/CyLFClk.c ****     *  which WDT triggered in the interrupt and calls the respective callback
1254:.\Generated_Source\PSoC4/CyLFClk.c ****     *  functions configured by the user by using CySysWdtSetIsrCallback() API.
1255:.\Generated_Source\PSoC4/CyLFClk.c ****     *
1256:.\Generated_Source\PSoC4/CyLFClk.c ****     *  The order of the callback execution is incremental. Callback-0 is
1257:.\Generated_Source\PSoC4/CyLFClk.c ****     *  run as the first one and callback-2 is called as the last one.
1258:.\Generated_Source\PSoC4/CyLFClk.c ****     *
1259:.\Generated_Source\PSoC4/CyLFClk.c ****     * Parameters:
1260:.\Generated_Source\PSoC4/CyLFClk.c ****     *  None.
1261:.\Generated_Source\PSoC4/CyLFClk.c ****     *
1262:.\Generated_Source\PSoC4/CyLFClk.c ****     * Return:
1263:.\Generated_Source\PSoC4/CyLFClk.c ****     *  None.
1264:.\Generated_Source\PSoC4/CyLFClk.c ****     *
1265:.\Generated_Source\PSoC4/CyLFClk.c ****     * Side Effects:
1266:.\Generated_Source\PSoC4/CyLFClk.c ****     *  This function clears the WDT interrupt every time when it is called.
1267:.\Generated_Source\PSoC4/CyLFClk.c ****     *  Reset after the 3rd interrupt does not happen if this function is registered
1268:.\Generated_Source\PSoC4/CyLFClk.c ****     *  as the interrupt handler even if the "Watchdog with Interrupt" mode is
1269:.\Generated_Source\PSoC4/CyLFClk.c ****     *  selected on the "Low Frequency Clocks" tab.
1270:.\Generated_Source\PSoC4/CyLFClk.c ****     *
1271:.\Generated_Source\PSoC4/CyLFClk.c ****     *******************************************************************************/
1272:.\Generated_Source\PSoC4/CyLFClk.c ****     void CySysWdtIsr(void)
1273:.\Generated_Source\PSoC4/CyLFClk.c ****     {
1274:.\Generated_Source\PSoC4/CyLFClk.c ****         if(0u != (CY_SYS_WDT_COUNTER0_INT & CY_SYS_WDT_CONTROL_REG))
1275:.\Generated_Source\PSoC4/CyLFClk.c ****         {
1276:.\Generated_Source\PSoC4/CyLFClk.c ****             if(0u != (CY_SYS_WDT_COUNTER0_INT & wdtIsrMask))
1277:.\Generated_Source\PSoC4/CyLFClk.c ****             {
1278:.\Generated_Source\PSoC4/CyLFClk.c ****                 wdtIsrMask &= ~(disableServicedIsr & CY_SYS_WDT_COUNTER0_INT);
1279:.\Generated_Source\PSoC4/CyLFClk.c ****                 disableServicedIsr  &= ~CY_SYS_WDT_COUNTER0_INT;
1280:.\Generated_Source\PSoC4/CyLFClk.c ****                 if(cySysWdtCallback[CY_SYS_WDT_COUNTER0] != (void *) 0)
ARM GAS  C:\Users\mitchell\AppData\Local\Temp\ccKXG5jd.s 			page 29


1281:.\Generated_Source\PSoC4/CyLFClk.c ****                 {
1282:.\Generated_Source\PSoC4/CyLFClk.c ****                     (void)(cySysWdtCallback[CY_SYS_WDT_COUNTER0])();
1283:.\Generated_Source\PSoC4/CyLFClk.c ****                 }
1284:.\Generated_Source\PSoC4/CyLFClk.c ****             }
1285:.\Generated_Source\PSoC4/CyLFClk.c ****             CySysWdtClearInterrupt(CY_SYS_WDT_COUNTER0_INT);
1286:.\Generated_Source\PSoC4/CyLFClk.c ****         }
1287:.\Generated_Source\PSoC4/CyLFClk.c **** 
1288:.\Generated_Source\PSoC4/CyLFClk.c ****         if(0u != (CY_SYS_WDT_COUNTER1_INT & CY_SYS_WDT_CONTROL_REG))
1289:.\Generated_Source\PSoC4/CyLFClk.c ****         {
1290:.\Generated_Source\PSoC4/CyLFClk.c ****             if(0u != (CY_SYS_WDT_COUNTER1_INT & wdtIsrMask))
1291:.\Generated_Source\PSoC4/CyLFClk.c ****             {
1292:.\Generated_Source\PSoC4/CyLFClk.c ****                 wdtIsrMask &= ~(disableServicedIsr & CY_SYS_WDT_COUNTER1_INT);
1293:.\Generated_Source\PSoC4/CyLFClk.c ****                 disableServicedIsr  &= ~CY_SYS_WDT_COUNTER1_INT;
1294:.\Generated_Source\PSoC4/CyLFClk.c ****                 if(cySysWdtCallback[CY_SYS_WDT_COUNTER1] != (void *) 0)
1295:.\Generated_Source\PSoC4/CyLFClk.c ****                 {
1296:.\Generated_Source\PSoC4/CyLFClk.c ****                     (void)(cySysWdtCallback[CY_SYS_WDT_COUNTER1])();
1297:.\Generated_Source\PSoC4/CyLFClk.c ****                 }
1298:.\Generated_Source\PSoC4/CyLFClk.c ****             }
1299:.\Generated_Source\PSoC4/CyLFClk.c ****             CySysWdtClearInterrupt(CY_SYS_WDT_COUNTER1_INT);
1300:.\Generated_Source\PSoC4/CyLFClk.c ****         }
1301:.\Generated_Source\PSoC4/CyLFClk.c **** 
1302:.\Generated_Source\PSoC4/CyLFClk.c ****         if(0u != (CY_SYS_WDT_COUNTER2_INT & CY_SYS_WDT_CONTROL_REG))
1303:.\Generated_Source\PSoC4/CyLFClk.c ****         {
1304:.\Generated_Source\PSoC4/CyLFClk.c ****             if(0u != (CY_SYS_WDT_COUNTER2_INT & wdtIsrMask))
1305:.\Generated_Source\PSoC4/CyLFClk.c ****             {
1306:.\Generated_Source\PSoC4/CyLFClk.c ****                 if(cySysWdtCallback[CY_SYS_WDT_COUNTER2] != (void *) 0)
1307:.\Generated_Source\PSoC4/CyLFClk.c ****                 {
1308:.\Generated_Source\PSoC4/CyLFClk.c ****                     (void)(cySysWdtCallback[CY_SYS_WDT_COUNTER2])();
1309:.\Generated_Source\PSoC4/CyLFClk.c ****                 }
1310:.\Generated_Source\PSoC4/CyLFClk.c ****             }
1311:.\Generated_Source\PSoC4/CyLFClk.c ****             CySysWdtClearInterrupt(CY_SYS_WDT_COUNTER2_INT);
1312:.\Generated_Source\PSoC4/CyLFClk.c ****         }
1313:.\Generated_Source\PSoC4/CyLFClk.c ****     }
1314:.\Generated_Source\PSoC4/CyLFClk.c **** 
1315:.\Generated_Source\PSoC4/CyLFClk.c **** 
1316:.\Generated_Source\PSoC4/CyLFClk.c ****     /*******************************************************************************
1317:.\Generated_Source\PSoC4/CyLFClk.c ****     * Function Name: CySysTimerDelay
1318:.\Generated_Source\PSoC4/CyLFClk.c ****     ********************************************************************************
1319:.\Generated_Source\PSoC4/CyLFClk.c ****     *
1320:.\Generated_Source\PSoC4/CyLFClk.c ****     * Summary:
1321:.\Generated_Source\PSoC4/CyLFClk.c ****     *  The function implements the delay specified in the LFCLK clock ticks. The
1322:.\Generated_Source\PSoC4/CyLFClk.c ****     *  specified WDT counter should be configured as described below and started.
1323:.\Generated_Source\PSoC4/CyLFClk.c ****     *
1324:.\Generated_Source\PSoC4/CyLFClk.c ****     *  This function can operate in two modes: the "WAIT" and "INTERRUPT" modes. In
1325:.\Generated_Source\PSoC4/CyLFClk.c ****     *  the "WAIT" mode, the function waits for the specified number of ticks. In the
1326:.\Generated_Source\PSoC4/CyLFClk.c ****     *  "INTERRUPT" mode, the interrupt is generated after the specified number of
1327:.\Generated_Source\PSoC4/CyLFClk.c ****     *  ticks.
1328:.\Generated_Source\PSoC4/CyLFClk.c ****     *
1329:.\Generated_Source\PSoC4/CyLFClk.c ****     *  For the correct function operation, the "Clear On Match" option should be
1330:.\Generated_Source\PSoC4/CyLFClk.c ****     *  disabled for the specified WDT counter. Use CySysWdtSetClearOnMatch()
1331:.\Generated_Source\PSoC4/CyLFClk.c ****     *  function with the "enable" parameter equal to zero for the used WDT counter.
1332:.\Generated_Source\PSoC4/CyLFClk.c ****     *
1333:.\Generated_Source\PSoC4/CyLFClk.c ****     *  The corresponding WDT counter should be configured to match the selected
1334:.\Generated_Source\PSoC4/CyLFClk.c ****     *  mode: "Free running Timer" for the "WAIT" mode, and
1335:.\Generated_Source\PSoC4/CyLFClk.c ****     *  "Periodic Timer" / "Watchdog (w/Interrupt)" for the "INTERRUPT" mode.
1336:.\Generated_Source\PSoC4/CyLFClk.c ****     *
1337:.\Generated_Source\PSoC4/CyLFClk.c ****     *  This can be configured in two ways:
ARM GAS  C:\Users\mitchell\AppData\Local\Temp\ccKXG5jd.s 			page 30


1338:.\Generated_Source\PSoC4/CyLFClk.c ****     *  - Through the DWR page. Open the "Clocks" tab, click the "Edit Clocks..."
1339:.\Generated_Source\PSoC4/CyLFClk.c ****     *    button, in the "Configure System Clocks" window click on the
1340:.\Generated_Source\PSoC4/CyLFClk.c ****     *    "Low Frequency Clocks" tab and choose the appropriate option for the used
1341:.\Generated_Source\PSoC4/CyLFClk.c ****     *    WDT counter.
1342:.\Generated_Source\PSoC4/CyLFClk.c ****     *
1343:.\Generated_Source\PSoC4/CyLFClk.c ****     *  - Through the CySysWdtSetMode() function. Call it with the appropriate mode
1344:.\Generated_Source\PSoC4/CyLFClk.c ****     *    parameter for the used WDT counter.
1345:.\Generated_Source\PSoC4/CyLFClk.c ****     *
1346:.\Generated_Source\PSoC4/CyLFClk.c ****     *  For the "INTERRUPT" mode, the recommended sequence is the following:
1347:.\Generated_Source\PSoC4/CyLFClk.c ****     *  - Call the CySysWdtDisableCounterIsr() function to disable servicing
1348:.\Generated_Source\PSoC4/CyLFClk.c ****     *    interrupts of the specified WDT counter.
1349:.\Generated_Source\PSoC4/CyLFClk.c ****     *
1350:.\Generated_Source\PSoC4/CyLFClk.c ****     *  - Call the CySysWdtSetInterruptCallback() function to register the callback
1351:.\Generated_Source\PSoC4/CyLFClk.c ****     *    function for the corresponding WDT counter.
1352:.\Generated_Source\PSoC4/CyLFClk.c ****     *
1353:.\Generated_Source\PSoC4/CyLFClk.c ****     *  - Call the CySysTimerDelay() function.
1354:.\Generated_Source\PSoC4/CyLFClk.c ****     *
1355:.\Generated_Source\PSoC4/CyLFClk.c ****     * Parameters:
1356:.\Generated_Source\PSoC4/CyLFClk.c ****     *  counterNum: Valid range [0-1]. The number of the WDT counter (WDT0 or WDT1).
1357:.\Generated_Source\PSoC4/CyLFClk.c ****     *  delayType : Defines the operation mode.
1358:.\Generated_Source\PSoC4/CyLFClk.c ****     *               CY_SYS_TIMER_WAIT       "WAIT" mode.
1359:.\Generated_Source\PSoC4/CyLFClk.c ****     *               CY_SYS_TIMER_INTERRUPT  "INTERRUPT" mode.
1360:.\Generated_Source\PSoC4/CyLFClk.c ****     *  delay:  The delay value in the LFCLK ticks (allowable range - 16-bit value).
1361:.\Generated_Source\PSoC4/CyLFClk.c ****     *
1362:.\Generated_Source\PSoC4/CyLFClk.c ****     * Return:
1363:.\Generated_Source\PSoC4/CyLFClk.c ****     *  None
1364:.\Generated_Source\PSoC4/CyLFClk.c ****     *
1365:.\Generated_Source\PSoC4/CyLFClk.c ****     * Side effects:
1366:.\Generated_Source\PSoC4/CyLFClk.c ****     *  In the "INTERRUPT" mode, this function enables ISR callback servicing
1367:.\Generated_Source\PSoC4/CyLFClk.c ****     *  from the corresponding WDT counter. Servicing of this ISR callback will be
1368:.\Generated_Source\PSoC4/CyLFClk.c ****     *  disabled after the expiration of the delay time.
1369:.\Generated_Source\PSoC4/CyLFClk.c ****     *
1370:.\Generated_Source\PSoC4/CyLFClk.c ****     *******************************************************************************/
1371:.\Generated_Source\PSoC4/CyLFClk.c ****     void CySysTimerDelay(uint32 counterNum, cy_sys_timer_delaytype_enum delayType, uint32 delay)
1372:.\Generated_Source\PSoC4/CyLFClk.c ****     {
1373:.\Generated_Source\PSoC4/CyLFClk.c ****         uint32 regValue;
1374:.\Generated_Source\PSoC4/CyLFClk.c ****         uint32 matchValue;
1375:.\Generated_Source\PSoC4/CyLFClk.c **** 
1376:.\Generated_Source\PSoC4/CyLFClk.c ****         if((counterNum < CY_SYS_WDT_COUNTER2) && (0uL == CySysWdtGetClearOnMatch(counterNum)) && (d
1377:.\Generated_Source\PSoC4/CyLFClk.c ****         {
1378:.\Generated_Source\PSoC4/CyLFClk.c ****             regValue   = CySysWdtGetCount(counterNum);
1379:.\Generated_Source\PSoC4/CyLFClk.c ****             matchValue = (regValue + delay) & (uint32)UINT16_MAX_VAL;
1380:.\Generated_Source\PSoC4/CyLFClk.c **** 
1381:.\Generated_Source\PSoC4/CyLFClk.c ****             CySysTimerDelayUntilMatch(counterNum, delayType, matchValue);
1382:.\Generated_Source\PSoC4/CyLFClk.c ****         }
1383:.\Generated_Source\PSoC4/CyLFClk.c ****         else
1384:.\Generated_Source\PSoC4/CyLFClk.c ****         {
1385:.\Generated_Source\PSoC4/CyLFClk.c ****             CYASSERT(0u != 0u);
1386:.\Generated_Source\PSoC4/CyLFClk.c ****         }
1387:.\Generated_Source\PSoC4/CyLFClk.c ****     }
1388:.\Generated_Source\PSoC4/CyLFClk.c **** 
1389:.\Generated_Source\PSoC4/CyLFClk.c **** 
1390:.\Generated_Source\PSoC4/CyLFClk.c ****     /*******************************************************************************
1391:.\Generated_Source\PSoC4/CyLFClk.c ****     * Function Name: CySysTimerDelayUntilMatch
1392:.\Generated_Source\PSoC4/CyLFClk.c ****     ********************************************************************************
1393:.\Generated_Source\PSoC4/CyLFClk.c ****     *
1394:.\Generated_Source\PSoC4/CyLFClk.c ****     * Summary:
ARM GAS  C:\Users\mitchell\AppData\Local\Temp\ccKXG5jd.s 			page 31


1395:.\Generated_Source\PSoC4/CyLFClk.c ****     *  The function implements the delay specified as the number of LFCLK ticks
1396:.\Generated_Source\PSoC4/CyLFClk.c ****     *  between the specified WDT counter's current value and the "match" passed as
1397:.\Generated_Source\PSoC4/CyLFClk.c ****     *  the parameter to this function. The current WDT counter value can be obtained
1398:.\Generated_Source\PSoC4/CyLFClk.c ****     *  using the CySysWdtGetCount() function.
1399:.\Generated_Source\PSoC4/CyLFClk.c ****     *
1400:.\Generated_Source\PSoC4/CyLFClk.c ****     *  This function can operate in two modes: the "WAIT" and "INTERRUPT" mode. In
1401:.\Generated_Source\PSoC4/CyLFClk.c ****     *  the "WAIT" mode, the function waits while the used WDT counter value becomes
1402:.\Generated_Source\PSoC4/CyLFClk.c ****     *  equal to the match value. In the "INTERRUPT" mode, the interrupt is generated
1403:.\Generated_Source\PSoC4/CyLFClk.c ****     *  when the used WDT counter became equal to the "match" value.
1404:.\Generated_Source\PSoC4/CyLFClk.c ****     *
1405:.\Generated_Source\PSoC4/CyLFClk.c ****     *  For the correct function operation, the "Clear On Match" option should be
1406:.\Generated_Source\PSoC4/CyLFClk.c ****     *  disabled for the specified WDT counter. Use CySysWdtSetClearOnMatch()
1407:.\Generated_Source\PSoC4/CyLFClk.c ****     *  function with the "enable" parameter equal to zero for the used WDT counter.
1408:.\Generated_Source\PSoC4/CyLFClk.c ****     *
1409:.\Generated_Source\PSoC4/CyLFClk.c ****     *  The corresponding WDT counter should be configured to match the selected mode:
1410:.\Generated_Source\PSoC4/CyLFClk.c ****     *  "Free running Timer" for the "WAIT" mode, and "Periodic Timer" / "Watchdog
1411:.\Generated_Source\PSoC4/CyLFClk.c ****     *  (w/Interrupt)" for the "INTERRUPT" mode.
1412:.\Generated_Source\PSoC4/CyLFClk.c ****     *
1413:.\Generated_Source\PSoC4/CyLFClk.c ****     *  This can be configured in two ways:
1414:.\Generated_Source\PSoC4/CyLFClk.c ****     *  - Through the DWR page. Open the "Clocks" tab, click the "Edit Clocks..."
1415:.\Generated_Source\PSoC4/CyLFClk.c ****     *    button, in the "Configure System Clocks" window click on the
1416:.\Generated_Source\PSoC4/CyLFClk.c ****     *    "Low Frequency Clocks" tab and choose the appropriate option for the used
1417:.\Generated_Source\PSoC4/CyLFClk.c ****     *    WDT counter.
1418:.\Generated_Source\PSoC4/CyLFClk.c ****     *
1419:.\Generated_Source\PSoC4/CyLFClk.c ****     *  - Through the CySysWdtSetMode() function. Call it with the appropriate "mode"
1420:.\Generated_Source\PSoC4/CyLFClk.c ****     *    parameter for the used WDT counter.
1421:.\Generated_Source\PSoC4/CyLFClk.c ****     *
1422:.\Generated_Source\PSoC4/CyLFClk.c ****     *  For the "INTERRUPT" mode, the recommended sequence is the following:
1423:.\Generated_Source\PSoC4/CyLFClk.c ****     *  - Call the CySysWdtDisableCounterIsr() function to disable servicing
1424:.\Generated_Source\PSoC4/CyLFClk.c ****     *    interrupts of the specified WDT counter.
1425:.\Generated_Source\PSoC4/CyLFClk.c ****     *
1426:.\Generated_Source\PSoC4/CyLFClk.c ****     *  - Call the CySysWdtSetInterruptCallback() function to register the callback
1427:.\Generated_Source\PSoC4/CyLFClk.c ****     *    function for the corresponding WDT counter.
1428:.\Generated_Source\PSoC4/CyLFClk.c ****     *
1429:.\Generated_Source\PSoC4/CyLFClk.c ****     *  - Call the CySysTimerDelay() function.
1430:.\Generated_Source\PSoC4/CyLFClk.c ****     *
1431:.\Generated_Source\PSoC4/CyLFClk.c ****     * Parameters:
1432:.\Generated_Source\PSoC4/CyLFClk.c ****     *  counterNum: Valid range [0-1]. The number of the WDT counter (WDT0 or WDT1).
1433:.\Generated_Source\PSoC4/CyLFClk.c ****     *  delayType : Defines the operation mode.
1434:.\Generated_Source\PSoC4/CyLFClk.c ****     *               CY_SYS_TIMER_WAIT       "WAIT" mode.
1435:.\Generated_Source\PSoC4/CyLFClk.c ****     *               CY_SYS_TIMER_INTERRUPT  "INTERRUPT" mode.
1436:.\Generated_Source\PSoC4/CyLFClk.c ****     *  delay:  The delay value in the LFCLK ticks (allowable range - 16-bit value).
1437:.\Generated_Source\PSoC4/CyLFClk.c ****     *
1438:.\Generated_Source\PSoC4/CyLFClk.c ****     * Return:
1439:.\Generated_Source\PSoC4/CyLFClk.c ****     *  None
1440:.\Generated_Source\PSoC4/CyLFClk.c ****     *
1441:.\Generated_Source\PSoC4/CyLFClk.c ****     * Side effects:
1442:.\Generated_Source\PSoC4/CyLFClk.c ****     *  In the "INTERRUPT" mode, this function enables ISR callback servicing
1443:.\Generated_Source\PSoC4/CyLFClk.c ****     *  from the corresponding WDT counter. Servicing of this ISR callback will be
1444:.\Generated_Source\PSoC4/CyLFClk.c ****     *  disabled after the expiration of the delay time.
1445:.\Generated_Source\PSoC4/CyLFClk.c ****     *
1446:.\Generated_Source\PSoC4/CyLFClk.c ****     *******************************************************************************/
1447:.\Generated_Source\PSoC4/CyLFClk.c ****     void CySysTimerDelayUntilMatch(uint32 counterNum, cy_sys_timer_delaytype_enum delayType, uint32
1448:.\Generated_Source\PSoC4/CyLFClk.c ****     {
1449:.\Generated_Source\PSoC4/CyLFClk.c ****         uint32 tmpValue;
1450:.\Generated_Source\PSoC4/CyLFClk.c **** 
1451:.\Generated_Source\PSoC4/CyLFClk.c ****         if((counterNum < CY_SYS_WDT_COUNTER2) && (0uL == CySysWdtGetClearOnMatch(counterNum)) && (m
ARM GAS  C:\Users\mitchell\AppData\Local\Temp\ccKXG5jd.s 			page 32


1452:.\Generated_Source\PSoC4/CyLFClk.c ****         {
1453:.\Generated_Source\PSoC4/CyLFClk.c ****             if(delayType == CY_SYS_TIMER_WAIT)
1454:.\Generated_Source\PSoC4/CyLFClk.c ****             {
1455:.\Generated_Source\PSoC4/CyLFClk.c ****                 do
1456:.\Generated_Source\PSoC4/CyLFClk.c ****                 {
1457:.\Generated_Source\PSoC4/CyLFClk.c ****                     tmpValue = CySysWdtGetCount(counterNum);
1458:.\Generated_Source\PSoC4/CyLFClk.c ****                 }while(tmpValue > match);
1459:.\Generated_Source\PSoC4/CyLFClk.c **** 
1460:.\Generated_Source\PSoC4/CyLFClk.c ****                 do
1461:.\Generated_Source\PSoC4/CyLFClk.c ****                 {
1462:.\Generated_Source\PSoC4/CyLFClk.c ****                     tmpValue = CySysWdtGetCount(counterNum);
1463:.\Generated_Source\PSoC4/CyLFClk.c ****                 }while(tmpValue < match);
1464:.\Generated_Source\PSoC4/CyLFClk.c ****             }
1465:.\Generated_Source\PSoC4/CyLFClk.c ****             else
1466:.\Generated_Source\PSoC4/CyLFClk.c ****             {
1467:.\Generated_Source\PSoC4/CyLFClk.c ****                 tmpValue = counterIntMaskTbl[counterNum];
1468:.\Generated_Source\PSoC4/CyLFClk.c ****                 CySysWdtSetMatch(counterNum, match);
1469:.\Generated_Source\PSoC4/CyLFClk.c **** 
1470:.\Generated_Source\PSoC4/CyLFClk.c ****                 disableServicedIsr  |= tmpValue;
1471:.\Generated_Source\PSoC4/CyLFClk.c ****                 wdtIsrMask |= tmpValue;
1472:.\Generated_Source\PSoC4/CyLFClk.c ****             }
1473:.\Generated_Source\PSoC4/CyLFClk.c ****         }
1474:.\Generated_Source\PSoC4/CyLFClk.c ****         else
1475:.\Generated_Source\PSoC4/CyLFClk.c ****         {
1476:.\Generated_Source\PSoC4/CyLFClk.c ****             CYASSERT(0u != 0u);
1477:.\Generated_Source\PSoC4/CyLFClk.c ****         }
1478:.\Generated_Source\PSoC4/CyLFClk.c ****     }
1479:.\Generated_Source\PSoC4/CyLFClk.c **** 
1480:.\Generated_Source\PSoC4/CyLFClk.c **** 
1481:.\Generated_Source\PSoC4/CyLFClk.c ****     /*******************************************************************************
1482:.\Generated_Source\PSoC4/CyLFClk.c ****     * Function Name: CySysWatchdogFeed
1483:.\Generated_Source\PSoC4/CyLFClk.c ****     ********************************************************************************
1484:.\Generated_Source\PSoC4/CyLFClk.c ****     *
1485:.\Generated_Source\PSoC4/CyLFClk.c ****     * Summary:
1486:.\Generated_Source\PSoC4/CyLFClk.c ****     *  Feeds the watchdog counter before it causes the device reset. Supported only
1487:.\Generated_Source\PSoC4/CyLFClk.c ****     *  for WDT0 and WDT1 in the "Watchdog" or "Watchdog w/ Interrupts" modes.
1488:.\Generated_Source\PSoC4/CyLFClk.c ****     *
1489:.\Generated_Source\PSoC4/CyLFClk.c ****     * Parameters:
1490:.\Generated_Source\PSoC4/CyLFClk.c ****     *  counterNum:    The number of the WDT counter.
1491:.\Generated_Source\PSoC4/CyLFClk.c ****     *
1492:.\Generated_Source\PSoC4/CyLFClk.c ****     * Return:
1493:.\Generated_Source\PSoC4/CyLFClk.c ****     *  None.
1494:.\Generated_Source\PSoC4/CyLFClk.c ****     *
1495:.\Generated_Source\PSoC4/CyLFClk.c ****     * Side effects:
1496:.\Generated_Source\PSoC4/CyLFClk.c ****     *  Clears the WDT counter in the "Watchdog" mode or clears the WDT interrupt in
1497:.\Generated_Source\PSoC4/CyLFClk.c ****     *  "Watchdog w/ Interrupts" mode. Does nothing in other modes.
1498:.\Generated_Source\PSoC4/CyLFClk.c ****     *
1499:.\Generated_Source\PSoC4/CyLFClk.c ****     *******************************************************************************/
1500:.\Generated_Source\PSoC4/CyLFClk.c ****     void CySysWatchdogFeed(uint32 counterNum)
1501:.\Generated_Source\PSoC4/CyLFClk.c ****     {
1502:.\Generated_Source\PSoC4/CyLFClk.c ****         if(counterNum == CY_SYS_WDT_COUNTER0)
1503:.\Generated_Source\PSoC4/CyLFClk.c ****         {
1504:.\Generated_Source\PSoC4/CyLFClk.c ****             if(CY_SYS_WDT_MODE_INT_RESET == CySysWdtGetMode(counterNum))
1505:.\Generated_Source\PSoC4/CyLFClk.c ****             {
1506:.\Generated_Source\PSoC4/CyLFClk.c ****                 CySysWdtClearInterrupt(CY_SYS_WDT_COUNTER0_MASK);
1507:.\Generated_Source\PSoC4/CyLFClk.c ****             }
1508:.\Generated_Source\PSoC4/CyLFClk.c ****             else if(CY_SYS_WDT_MODE_RESET == CySysWdtGetMode(counterNum))
ARM GAS  C:\Users\mitchell\AppData\Local\Temp\ccKXG5jd.s 			page 33


1509:.\Generated_Source\PSoC4/CyLFClk.c ****             {
1510:.\Generated_Source\PSoC4/CyLFClk.c ****                 CySysWdtResetCounters(CY_SYS_WDT_COUNTER0_RESET);
1511:.\Generated_Source\PSoC4/CyLFClk.c ****                 CySysWdtClearInterrupt(CY_SYS_WDT_COUNTER0_MASK);
1512:.\Generated_Source\PSoC4/CyLFClk.c ****             }
1513:.\Generated_Source\PSoC4/CyLFClk.c ****             else
1514:.\Generated_Source\PSoC4/CyLFClk.c ****             {
1515:.\Generated_Source\PSoC4/CyLFClk.c ****                 /* Do nothing. */
1516:.\Generated_Source\PSoC4/CyLFClk.c ****             }
1517:.\Generated_Source\PSoC4/CyLFClk.c ****         }
1518:.\Generated_Source\PSoC4/CyLFClk.c ****         else if(counterNum == CY_SYS_WDT_COUNTER1)
1519:.\Generated_Source\PSoC4/CyLFClk.c ****         {
1520:.\Generated_Source\PSoC4/CyLFClk.c ****             if(CY_SYS_WDT_MODE_INT_RESET == CySysWdtGetMode(counterNum))
1521:.\Generated_Source\PSoC4/CyLFClk.c ****             {
1522:.\Generated_Source\PSoC4/CyLFClk.c ****                 CySysWdtClearInterrupt(CY_SYS_WDT_COUNTER1_MASK);
1523:.\Generated_Source\PSoC4/CyLFClk.c ****             }
1524:.\Generated_Source\PSoC4/CyLFClk.c ****             else if(CY_SYS_WDT_MODE_RESET == CySysWdtGetMode(counterNum))
1525:.\Generated_Source\PSoC4/CyLFClk.c ****             {
1526:.\Generated_Source\PSoC4/CyLFClk.c ****                 CySysWdtResetCounters(CY_SYS_WDT_COUNTER1_RESET);
1527:.\Generated_Source\PSoC4/CyLFClk.c ****                 CySysWdtClearInterrupt(CY_SYS_WDT_COUNTER1_MASK);
1528:.\Generated_Source\PSoC4/CyLFClk.c ****             }
1529:.\Generated_Source\PSoC4/CyLFClk.c ****             else
1530:.\Generated_Source\PSoC4/CyLFClk.c ****             {
1531:.\Generated_Source\PSoC4/CyLFClk.c ****                 /* Do nothing. */
1532:.\Generated_Source\PSoC4/CyLFClk.c ****             }
1533:.\Generated_Source\PSoC4/CyLFClk.c ****         }
1534:.\Generated_Source\PSoC4/CyLFClk.c ****         else
1535:.\Generated_Source\PSoC4/CyLFClk.c ****         {
1536:.\Generated_Source\PSoC4/CyLFClk.c ****             /* Do nothing. */
1537:.\Generated_Source\PSoC4/CyLFClk.c ****         }
1538:.\Generated_Source\PSoC4/CyLFClk.c ****     }
1539:.\Generated_Source\PSoC4/CyLFClk.c **** 
1540:.\Generated_Source\PSoC4/CyLFClk.c **** 
1541:.\Generated_Source\PSoC4/CyLFClk.c ****     /*******************************************************************************
1542:.\Generated_Source\PSoC4/CyLFClk.c ****     * Function Name: CySysClkLfclkPosedgeCatch
1543:.\Generated_Source\PSoC4/CyLFClk.c ****     ********************************************************************************
1544:.\Generated_Source\PSoC4/CyLFClk.c ****     *
1545:.\Generated_Source\PSoC4/CyLFClk.c ****     * Summary:
1546:.\Generated_Source\PSoC4/CyLFClk.c ****     *  Returns once the LFCLK positive edge occurred.
1547:.\Generated_Source\PSoC4/CyLFClk.c ****     *
1548:.\Generated_Source\PSoC4/CyLFClk.c ****     *  CySysClkLfclkPosedgeRestore() should be called after this function
1549:.\Generated_Source\PSoC4/CyLFClk.c ****     *  to restore the WDT configuration.
1550:.\Generated_Source\PSoC4/CyLFClk.c ****     *
1551:.\Generated_Source\PSoC4/CyLFClk.c ****     *  A pair of the CySysClkLfclkPosedgeCatch() and CySysClkLfclkPosedgeRestore()
1552:.\Generated_Source\PSoC4/CyLFClk.c ****     *  functions is expected to be called inside a critical section.
1553:.\Generated_Source\PSoC4/CyLFClk.c ****     *
1554:.\Generated_Source\PSoC4/CyLFClk.c ****     *  To ensure that the WDT counter value is read until it changes, the enabled
1555:.\Generated_Source\PSoC4/CyLFClk.c ****     *  WDT counter is used. If no counter is enabled, counter 0 is enabled.
1556:.\Generated_Source\PSoC4/CyLFClk.c ****     *  And after the LFCLK source is switched, the counter 0 configuration
1557:.\Generated_Source\PSoC4/CyLFClk.c ****     *  is restored.
1558:.\Generated_Source\PSoC4/CyLFClk.c ****     *
1559:.\Generated_Source\PSoC4/CyLFClk.c ****     *  Not applicable for the PSoC 4000 devices.
1560:.\Generated_Source\PSoC4/CyLFClk.c ****     *
1561:.\Generated_Source\PSoC4/CyLFClk.c ****     * Parameters:
1562:.\Generated_Source\PSoC4/CyLFClk.c ****     *  None.
1563:.\Generated_Source\PSoC4/CyLFClk.c ****     *
1564:.\Generated_Source\PSoC4/CyLFClk.c ****     * Return:
1565:.\Generated_Source\PSoC4/CyLFClk.c ****     *  None.
ARM GAS  C:\Users\mitchell\AppData\Local\Temp\ccKXG5jd.s 			page 34


1566:.\Generated_Source\PSoC4/CyLFClk.c ****     *
1567:.\Generated_Source\PSoC4/CyLFClk.c ****     * Side Effects:
1568:.\Generated_Source\PSoC4/CyLFClk.c ****     *  This function has no effect if WDT is locked (CySysWdtLock() is
1569:.\Generated_Source\PSoC4/CyLFClk.c ****     *  called). Call CySysWdtUnlock() to unlock WDT.
1570:.\Generated_Source\PSoC4/CyLFClk.c ****     *
1571:.\Generated_Source\PSoC4/CyLFClk.c ****     *******************************************************************************/
1572:.\Generated_Source\PSoC4/CyLFClk.c ****     static void CySysClkLfclkPosedgeCatch(void)
1573:.\Generated_Source\PSoC4/CyLFClk.c ****     {
1574:.\Generated_Source\PSoC4/CyLFClk.c ****         uint32 firstCount;
1575:.\Generated_Source\PSoC4/CyLFClk.c ****         static uint32 lfclkPosedgeEnabledWdtCounter = 0u;
1576:.\Generated_Source\PSoC4/CyLFClk.c **** 
1577:.\Generated_Source\PSoC4/CyLFClk.c ****         if (0u != CySysWdtGetEnabledStatus(CY_SYS_WDT_COUNTER0))
1578:.\Generated_Source\PSoC4/CyLFClk.c ****         {
1579:.\Generated_Source\PSoC4/CyLFClk.c ****             lfclkPosedgeEnabledWdtCounter = CY_SYS_WDT_COUNTER0;
1580:.\Generated_Source\PSoC4/CyLFClk.c ****         }
1581:.\Generated_Source\PSoC4/CyLFClk.c ****         else if (0u != CySysWdtGetEnabledStatus(CY_SYS_WDT_COUNTER1))
1582:.\Generated_Source\PSoC4/CyLFClk.c ****         {
1583:.\Generated_Source\PSoC4/CyLFClk.c ****             lfclkPosedgeEnabledWdtCounter = CY_SYS_WDT_COUNTER1;
1584:.\Generated_Source\PSoC4/CyLFClk.c ****         }
1585:.\Generated_Source\PSoC4/CyLFClk.c ****         else if (0u != CySysWdtGetEnabledStatus(CY_SYS_WDT_COUNTER2))
1586:.\Generated_Source\PSoC4/CyLFClk.c ****         {
1587:.\Generated_Source\PSoC4/CyLFClk.c ****             lfclkPosedgeEnabledWdtCounter = CY_SYS_WDT_COUNTER2;
1588:.\Generated_Source\PSoC4/CyLFClk.c ****         }
1589:.\Generated_Source\PSoC4/CyLFClk.c ****         else /* All WDT counters are disabled */
1590:.\Generated_Source\PSoC4/CyLFClk.c ****         {
1591:.\Generated_Source\PSoC4/CyLFClk.c ****             /* Configure WDT counter # 0 */
1592:.\Generated_Source\PSoC4/CyLFClk.c ****             lfclkPosedgeWdtCounter0Enabled = 1u;
1593:.\Generated_Source\PSoC4/CyLFClk.c ****             lfclkPosedgeEnabledWdtCounter = CY_SYS_WDT_COUNTER0;
1594:.\Generated_Source\PSoC4/CyLFClk.c **** 
1595:.\Generated_Source\PSoC4/CyLFClk.c ****             lfclkPosedgeWdtCounter0Mode = CySysWdtGetMode(CY_SYS_WDT_COUNTER0);
1596:.\Generated_Source\PSoC4/CyLFClk.c ****             CySysWdtSetMode(CY_SYS_WDT_COUNTER0, CY_SYS_WDT_MODE_NONE);
1597:.\Generated_Source\PSoC4/CyLFClk.c ****             CySysWdtEnable(CY_SYS_WDT_COUNTER0_MASK);
1598:.\Generated_Source\PSoC4/CyLFClk.c ****         }
1599:.\Generated_Source\PSoC4/CyLFClk.c **** 
1600:.\Generated_Source\PSoC4/CyLFClk.c ****         firstCount = CySysWdtGetCount(lfclkPosedgeEnabledWdtCounter);
1601:.\Generated_Source\PSoC4/CyLFClk.c ****         while (CySysWdtGetCount(lfclkPosedgeEnabledWdtCounter) == firstCount)
1602:.\Generated_Source\PSoC4/CyLFClk.c ****         {
1603:.\Generated_Source\PSoC4/CyLFClk.c ****             /* Wait for counter to increment */
1604:.\Generated_Source\PSoC4/CyLFClk.c ****         }
1605:.\Generated_Source\PSoC4/CyLFClk.c ****     }
1606:.\Generated_Source\PSoC4/CyLFClk.c **** 
1607:.\Generated_Source\PSoC4/CyLFClk.c **** 
1608:.\Generated_Source\PSoC4/CyLFClk.c ****     /*******************************************************************************
1609:.\Generated_Source\PSoC4/CyLFClk.c ****     * Function Name: CySysClkLfclkPosedgeRestore
1610:.\Generated_Source\PSoC4/CyLFClk.c ****     ********************************************************************************
1611:.\Generated_Source\PSoC4/CyLFClk.c ****     *
1612:.\Generated_Source\PSoC4/CyLFClk.c ****     * Summary:
1613:.\Generated_Source\PSoC4/CyLFClk.c ****     *  Restores the WDT configuration after a CySysClkLfclkPosedgeCatch() call.
1614:.\Generated_Source\PSoC4/CyLFClk.c ****     *
1615:.\Generated_Source\PSoC4/CyLFClk.c ****     *  A pair of the CySysClkLfclkPosedgeCatch() and CySysClkLfclkPosedgeRestore()
1616:.\Generated_Source\PSoC4/CyLFClk.c ****     *  functions is expected to be called inside a critical section.
1617:.\Generated_Source\PSoC4/CyLFClk.c ****     *
1618:.\Generated_Source\PSoC4/CyLFClk.c ****     *  Not applicable for the PSoC 4000 devices.
1619:.\Generated_Source\PSoC4/CyLFClk.c ****     *
1620:.\Generated_Source\PSoC4/CyLFClk.c ****     * Parameters:
1621:.\Generated_Source\PSoC4/CyLFClk.c ****     *  None.
1622:.\Generated_Source\PSoC4/CyLFClk.c ****     *
ARM GAS  C:\Users\mitchell\AppData\Local\Temp\ccKXG5jd.s 			page 35


1623:.\Generated_Source\PSoC4/CyLFClk.c ****     * Return:
1624:.\Generated_Source\PSoC4/CyLFClk.c ****     *  None.
1625:.\Generated_Source\PSoC4/CyLFClk.c ****     *
1626:.\Generated_Source\PSoC4/CyLFClk.c ****     * Side Effects:
1627:.\Generated_Source\PSoC4/CyLFClk.c ****     *  This function has no effect if WDT is locked (CySysWdtLock() is
1628:.\Generated_Source\PSoC4/CyLFClk.c ****     *  called). Call CySysWdtUnlock() to unlock WDT.
1629:.\Generated_Source\PSoC4/CyLFClk.c ****     *
1630:.\Generated_Source\PSoC4/CyLFClk.c ****     *******************************************************************************/
1631:.\Generated_Source\PSoC4/CyLFClk.c ****     static void CySysClkLfclkPosedgeRestore(void)
1632:.\Generated_Source\PSoC4/CyLFClk.c ****     {
 308              		.loc 1 1632 0
 309              		.cfi_startproc
 310 0000 10B5     		push	{r4, lr}
 311              		.cfi_def_cfa_offset 8
 312              		.cfi_offset 4, -8
 313              		.cfi_offset 14, -4
1633:.\Generated_Source\PSoC4/CyLFClk.c ****         if (lfclkPosedgeWdtCounter0Enabled != 0u)
 314              		.loc 1 1633 0
 315 0002 084B     		ldr	r3, .L31
 316 0004 1B68     		ldr	r3, [r3]
 317 0006 002B     		cmp	r3, #0
 318 0008 0BD0     		beq	.L29
1634:.\Generated_Source\PSoC4/CyLFClk.c ****         {
1635:.\Generated_Source\PSoC4/CyLFClk.c ****             /* Restore counter # 0 configuration and force its shutdown */
1636:.\Generated_Source\PSoC4/CyLFClk.c ****             CY_SYS_WDT_CONTROL_REG &= (uint32)(~CY_SYS_WDT_COUNTER0_MASK);
 319              		.loc 1 1636 0
 320 000a 074B     		ldr	r3, .L31+4
 321 000c 1A68     		ldr	r2, [r3]
 322 000e 0121     		mov	r1, #1
 323 0010 8A43     		bic	r2, r1
 324 0012 1A60     		str	r2, [r3]
1637:.\Generated_Source\PSoC4/CyLFClk.c ****             CySysWdtSetMode(CY_SYS_WDT_COUNTER0, lfclkPosedgeWdtCounter0Mode);
 325              		.loc 1 1637 0
 326 0014 034C     		ldr	r4, .L31
 327 0016 0020     		mov	r0, #0
 328 0018 6168     		ldr	r1, [r4, #4]
 329 001a FFF7FEFF 		bl	CySysWdtSetMode
 330              	.LVL17:
1638:.\Generated_Source\PSoC4/CyLFClk.c ****             lfclkPosedgeWdtCounter0Enabled = 0u;
 331              		.loc 1 1638 0
 332 001e 0023     		mov	r3, #0
 333 0020 2360     		str	r3, [r4]
 334              	.L29:
1639:.\Generated_Source\PSoC4/CyLFClk.c ****         }
1640:.\Generated_Source\PSoC4/CyLFClk.c ****     }
 335              		.loc 1 1640 0
 336              		@ sp needed
 337 0022 10BD     		pop	{r4, pc}
 338              	.L32:
 339              		.align	2
 340              	.L31:
 341 0024 00000000 		.word	.LANCHOR0
 342 0028 10020B40 		.word	1074463248
 343              		.cfi_endproc
 344              	.LFE32:
 345              		.size	CySysClkLfclkPosedgeRestore, .-CySysClkLfclkPosedgeRestore
 346              		.section	.text.CySysWdtGetMode,"ax",%progbits
ARM GAS  C:\Users\mitchell\AppData\Local\Temp\ccKXG5jd.s 			page 36


 347              		.align	2
 348              		.global	CySysWdtGetMode
 349              		.code	16
 350              		.thumb_func
 351              		.type	CySysWdtGetMode, %function
 352              	CySysWdtGetMode:
 353              	.LFB8:
 561:.\Generated_Source\PSoC4/CyLFClk.c ****     {
 354              		.loc 1 561 0
 355              		.cfi_startproc
 356              	.LVL18:
 562:.\Generated_Source\PSoC4/CyLFClk.c ****         return ((CY_SYS_WDT_CONFIG_REG >> (counterNum * CY_SYS_WDT_CNT_SHIFT)) & CY_SYS_WDT_MODE_MA
 357              		.loc 1 562 0
 358 0000 034B     		ldr	r3, .L34
 359 0002 1B68     		ldr	r3, [r3]
 360 0004 C000     		lsl	r0, r0, #3
 361              	.LVL19:
 362 0006 C340     		lsr	r3, r3, r0
 363 0008 181C     		mov	r0, r3
 364 000a 0323     		mov	r3, #3
 365 000c 1840     		and	r0, r3
 563:.\Generated_Source\PSoC4/CyLFClk.c ****     }
 366              		.loc 1 563 0
 367              		@ sp needed
 368 000e 7047     		bx	lr
 369              	.L35:
 370              		.align	2
 371              	.L34:
 372 0010 0C020B40 		.word	1074463244
 373              		.cfi_endproc
 374              	.LFE8:
 375              		.size	CySysWdtGetMode, .-CySysWdtGetMode
 376              		.section	.text.CySysWdtSetClearOnMatch,"ax",%progbits
 377              		.align	2
 378              		.global	CySysWdtSetClearOnMatch
 379              		.code	16
 380              		.thumb_func
 381              		.type	CySysWdtSetClearOnMatch, %function
 382              	CySysWdtSetClearOnMatch:
 383              	.LFB9:
 594:.\Generated_Source\PSoC4/CyLFClk.c ****     {
 384              		.loc 1 594 0
 385              		.cfi_startproc
 386              	.LVL20:
 387 0000 38B5     		push	{r3, r4, r5, lr}
 388              		.cfi_def_cfa_offset 16
 389              		.cfi_offset 3, -16
 390              		.cfi_offset 4, -12
 391              		.cfi_offset 5, -8
 392              		.cfi_offset 14, -4
 393 0002 041C     		mov	r4, r0
 394 0004 0D1C     		mov	r5, r1
 597:.\Generated_Source\PSoC4/CyLFClk.c ****         CYASSERT((counterNum == CY_SYS_WDT_COUNTER0) ||
 395              		.loc 1 597 0
 396 0006 0128     		cmp	r0, #1
 397 0008 02D9     		bls	.L37
 597:.\Generated_Source\PSoC4/CyLFClk.c ****         CYASSERT((counterNum == CY_SYS_WDT_COUNTER0) ||
ARM GAS  C:\Users\mitchell\AppData\Local\Temp\ccKXG5jd.s 			page 37


 398              		.loc 1 597 0 is_stmt 0 discriminator 1
 399 000a 0020     		mov	r0, #0
 400              	.LVL21:
 401 000c FFF7FEFF 		bl	CyHalt
 402              	.LVL22:
 403              	.L37:
 600:.\Generated_Source\PSoC4/CyLFClk.c ****         if(0u == CySysWdtGetEnabledStatus(counterNum))
 404              		.loc 1 600 0 is_stmt 1
 405 0010 201C     		mov	r0, r4
 406 0012 FFF7FEFF 		bl	CySysWdtGetEnabledStatus
 407              	.LVL23:
 408 0016 0028     		cmp	r0, #0
 409 0018 0AD1     		bne	.L36
 602:.\Generated_Source\PSoC4/CyLFClk.c ****             configRegValue = CY_SYS_WDT_CONFIG_REG &
 410              		.loc 1 602 0
 411 001a 064B     		ldr	r3, .L39
 412 001c 1A68     		ldr	r2, [r3]
 603:.\Generated_Source\PSoC4/CyLFClk.c ****                 (uint32)~((uint32)((uint32)1u << ((counterNum * CY_SYS_WDT_CNT_SHIFT) + CY_SYS_WDT_
 413              		.loc 1 603 0
 414 001e E400     		lsl	r4, r4, #3
 415              	.LVL24:
 416 0020 0234     		add	r4, r4, #2
 417 0022 0121     		mov	r1, #1
 418 0024 A140     		lsl	r1, r1, r4
 602:.\Generated_Source\PSoC4/CyLFClk.c ****             configRegValue = CY_SYS_WDT_CONFIG_REG &
 419              		.loc 1 602 0
 420 0026 8A43     		bic	r2, r1
 421              	.LVL25:
 606:.\Generated_Source\PSoC4/CyLFClk.c ****                 |= (uint32)(enable << ((counterNum * CY_SYS_WDT_CNT_SHIFT) + CY_SYS_WDT_CNT_MATCH_C
 422              		.loc 1 606 0
 423 0028 A540     		lsl	r5, r5, r4
 424              	.LVL26:
 425 002a 2C1C     		mov	r4, r5
 426 002c 1443     		orr	r4, r2
 427              	.LVL27:
 608:.\Generated_Source\PSoC4/CyLFClk.c ****             CY_SYS_WDT_CONFIG_REG = configRegValue;
 428              		.loc 1 608 0
 429 002e 1C60     		str	r4, [r3]
 430              	.LVL28:
 431              	.L36:
 610:.\Generated_Source\PSoC4/CyLFClk.c ****     }
 432              		.loc 1 610 0
 433              		@ sp needed
 434 0030 38BD     		pop	{r3, r4, r5, pc}
 435              	.L40:
 436 0032 C046     		.align	2
 437              	.L39:
 438 0034 0C020B40 		.word	1074463244
 439              		.cfi_endproc
 440              	.LFE9:
 441              		.size	CySysWdtSetClearOnMatch, .-CySysWdtSetClearOnMatch
 442              		.section	.text.CySysWdtGetClearOnMatch,"ax",%progbits
 443              		.align	2
 444              		.global	CySysWdtGetClearOnMatch
 445              		.code	16
 446              		.thumb_func
 447              		.type	CySysWdtGetClearOnMatch, %function
ARM GAS  C:\Users\mitchell\AppData\Local\Temp\ccKXG5jd.s 			page 38


 448              	CySysWdtGetClearOnMatch:
 449              	.LFB10:
 629:.\Generated_Source\PSoC4/CyLFClk.c ****     {
 450              		.loc 1 629 0
 451              		.cfi_startproc
 452              	.LVL29:
 453 0000 10B5     		push	{r4, lr}
 454              		.cfi_def_cfa_offset 8
 455              		.cfi_offset 4, -8
 456              		.cfi_offset 14, -4
 457 0002 041E     		sub	r4, r0, #0
 630:.\Generated_Source\PSoC4/CyLFClk.c ****         CYASSERT((counterNum == CY_SYS_WDT_COUNTER0) ||
 458              		.loc 1 630 0
 459 0004 012C     		cmp	r4, #1
 460 0006 02D9     		bls	.L42
 630:.\Generated_Source\PSoC4/CyLFClk.c ****         CYASSERT((counterNum == CY_SYS_WDT_COUNTER0) ||
 461              		.loc 1 630 0 is_stmt 0 discriminator 1
 462 0008 0020     		mov	r0, #0
 463              	.LVL30:
 464 000a FFF7FEFF 		bl	CyHalt
 465              	.LVL31:
 466              	.L42:
 633:.\Generated_Source\PSoC4/CyLFClk.c ****         return (uint32)((CY_SYS_WDT_CONFIG_REG >>
 467              		.loc 1 633 0 is_stmt 1
 468 000e 044B     		ldr	r3, .L43
 469 0010 1868     		ldr	r0, [r3]
 634:.\Generated_Source\PSoC4/CyLFClk.c ****                         ((counterNum * CY_SYS_WDT_CNT_SHIFT) + CY_SYS_WDT_CNT_MATCH_CLR_SHIFT)) & 0
 470              		.loc 1 634 0
 471 0012 E400     		lsl	r4, r4, #3
 472              	.LVL32:
 473 0014 0234     		add	r4, r4, #2
 633:.\Generated_Source\PSoC4/CyLFClk.c ****         return (uint32)((CY_SYS_WDT_CONFIG_REG >>
 474              		.loc 1 633 0
 475 0016 E040     		lsr	r0, r0, r4
 476 0018 0124     		mov	r4, #1
 477 001a 2040     		and	r0, r4
 635:.\Generated_Source\PSoC4/CyLFClk.c ****     }
 478              		.loc 1 635 0
 479              		@ sp needed
 480 001c 10BD     		pop	{r4, pc}
 481              	.L44:
 482 001e C046     		.align	2
 483              	.L43:
 484 0020 0C020B40 		.word	1074463244
 485              		.cfi_endproc
 486              	.LFE10:
 487              		.size	CySysWdtGetClearOnMatch, .-CySysWdtGetClearOnMatch
 488              		.section	.text.CySysWdtEnable,"ax",%progbits
 489              		.align	2
 490              		.global	CySysWdtEnable
 491              		.code	16
 492              		.thumb_func
 493              		.type	CySysWdtEnable, %function
 494              	CySysWdtEnable:
 495              	.LFB11:
 675:.\Generated_Source\PSoC4/CyLFClk.c ****     {
 496              		.loc 1 675 0
ARM GAS  C:\Users\mitchell\AppData\Local\Temp\ccKXG5jd.s 			page 39


 497              		.cfi_startproc
 498              	.LVL33:
 499 0000 10B5     		push	{r4, lr}
 500              		.cfi_def_cfa_offset 8
 501              		.cfi_offset 4, -8
 502              		.cfi_offset 14, -4
 503 0002 041C     		mov	r4, r0
 677:.\Generated_Source\PSoC4/CyLFClk.c ****             CySysClkIloStart();
 504              		.loc 1 677 0
 505 0004 FFF7FEFF 		bl	CySysClkIloStart
 506              	.LVL34:
 680:.\Generated_Source\PSoC4/CyLFClk.c ****         CY_SYS_WDT_CONTROL_REG |= counterMask;
 507              		.loc 1 680 0
 508 0008 0C4B     		ldr	r3, .L58
 509 000a 1A68     		ldr	r2, [r3]
 510 000c 2243     		orr	r2, r4
 511 000e 1A60     		str	r2, [r3]
 682:.\Generated_Source\PSoC4/CyLFClk.c ****         if(0u != (counterMask & CY_SYS_WDT_COUNTER0_MASK))
 512              		.loc 1 682 0
 513 0010 E307     		lsl	r3, r4, #31
 514 0012 04D5     		bpl	.L46
 515              	.L54:
 684:.\Generated_Source\PSoC4/CyLFClk.c ****             while (0u == CySysWdtGetEnabledStatus(CY_SYS_WDT_COUNTER0))
 516              		.loc 1 684 0 discriminator 1
 517 0014 0020     		mov	r0, #0
 518 0016 FFF7FEFF 		bl	CySysWdtGetEnabledStatus
 519              	.LVL35:
 520 001a 0028     		cmp	r0, #0
 521 001c FAD0     		beq	.L54
 522              	.L46:
 690:.\Generated_Source\PSoC4/CyLFClk.c ****         if(0u != (counterMask & CY_SYS_WDT_COUNTER1_MASK))
 523              		.loc 1 690 0
 524 001e E305     		lsl	r3, r4, #23
 525 0020 04D5     		bpl	.L48
 526              	.L53:
 692:.\Generated_Source\PSoC4/CyLFClk.c ****             while (0u == CySysWdtGetEnabledStatus(CY_SYS_WDT_COUNTER1))
 527              		.loc 1 692 0 discriminator 1
 528 0022 0120     		mov	r0, #1
 529 0024 FFF7FEFF 		bl	CySysWdtGetEnabledStatus
 530              	.LVL36:
 531 0028 0028     		cmp	r0, #0
 532 002a FAD0     		beq	.L53
 533              	.L48:
 698:.\Generated_Source\PSoC4/CyLFClk.c ****         if(0u != (counterMask & CY_SYS_WDT_COUNTER2_MASK))
 534              		.loc 1 698 0
 535 002c E303     		lsl	r3, r4, #15
 536 002e 04D5     		bpl	.L45
 537              	.L52:
 700:.\Generated_Source\PSoC4/CyLFClk.c ****             while (0u == CySysWdtGetEnabledStatus(CY_SYS_WDT_COUNTER2))
 538              		.loc 1 700 0 discriminator 1
 539 0030 0220     		mov	r0, #2
 540 0032 FFF7FEFF 		bl	CySysWdtGetEnabledStatus
 541              	.LVL37:
 542 0036 0028     		cmp	r0, #0
 543 0038 FAD0     		beq	.L52
 544              	.L45:
 705:.\Generated_Source\PSoC4/CyLFClk.c ****     }
ARM GAS  C:\Users\mitchell\AppData\Local\Temp\ccKXG5jd.s 			page 40


 545              		.loc 1 705 0
 546              		@ sp needed
 547              	.LVL38:
 548 003a 10BD     		pop	{r4, pc}
 549              	.L59:
 550              		.align	2
 551              	.L58:
 552 003c 10020B40 		.word	1074463248
 553              		.cfi_endproc
 554              	.LFE11:
 555              		.size	CySysWdtEnable, .-CySysWdtEnable
 556              		.section	.text.CySysWdtDisable,"ax",%progbits
 557              		.align	2
 558              		.global	CySysWdtDisable
 559              		.code	16
 560              		.thumb_func
 561              		.type	CySysWdtDisable, %function
 562              	CySysWdtDisable:
 563              	.LFB12:
 728:.\Generated_Source\PSoC4/CyLFClk.c ****     {
 564              		.loc 1 728 0
 565              		.cfi_startproc
 566              	.LVL39:
 567 0000 10B5     		push	{r4, lr}
 568              		.cfi_def_cfa_offset 8
 569              		.cfi_offset 4, -8
 570              		.cfi_offset 14, -4
 571 0002 041C     		mov	r4, r0
 729:.\Generated_Source\PSoC4/CyLFClk.c ****         if (0uL == CySysWdtLocked())
 572              		.loc 1 729 0
 573 0004 FFF7FEFF 		bl	CySysWdtLocked
 574              	.LVL40:
 575 0008 0028     		cmp	r0, #0
 576 000a 18D1     		bne	.L60
 731:.\Generated_Source\PSoC4/CyLFClk.c ****             CY_SYS_WDT_CONTROL_REG &= ~counterMask;
 577              		.loc 1 731 0
 578 000c 0C4B     		ldr	r3, .L73
 579 000e 1A68     		ldr	r2, [r3]
 580 0010 A243     		bic	r2, r4
 581 0012 1A60     		str	r2, [r3]
 733:.\Generated_Source\PSoC4/CyLFClk.c ****             if(0u != (counterMask & CY_SYS_WDT_COUNTER0_MASK))
 582              		.loc 1 733 0
 583 0014 E307     		lsl	r3, r4, #31
 584 0016 04D5     		bpl	.L62
 585              	.L69:
 735:.\Generated_Source\PSoC4/CyLFClk.c ****                 while (0u != CySysWdtGetEnabledStatus(CY_SYS_WDT_COUNTER0))
 586              		.loc 1 735 0 discriminator 1
 587 0018 0020     		mov	r0, #0
 588 001a FFF7FEFF 		bl	CySysWdtGetEnabledStatus
 589              	.LVL41:
 590 001e 0028     		cmp	r0, #0
 591 0020 FAD1     		bne	.L69
 592              	.L62:
 741:.\Generated_Source\PSoC4/CyLFClk.c ****             if(0u != (counterMask & CY_SYS_WDT_COUNTER1_MASK))
 593              		.loc 1 741 0
 594 0022 E305     		lsl	r3, r4, #23
 595 0024 04D5     		bpl	.L64
ARM GAS  C:\Users\mitchell\AppData\Local\Temp\ccKXG5jd.s 			page 41


 596              	.L68:
 743:.\Generated_Source\PSoC4/CyLFClk.c ****                 while (0u != CySysWdtGetEnabledStatus(CY_SYS_WDT_COUNTER1))
 597              		.loc 1 743 0 discriminator 1
 598 0026 0120     		mov	r0, #1
 599 0028 FFF7FEFF 		bl	CySysWdtGetEnabledStatus
 600              	.LVL42:
 601 002c 0028     		cmp	r0, #0
 602 002e FAD1     		bne	.L68
 603              	.L64:
 749:.\Generated_Source\PSoC4/CyLFClk.c ****             if(0u != (counterMask & CY_SYS_WDT_COUNTER2_MASK))
 604              		.loc 1 749 0
 605 0030 E303     		lsl	r3, r4, #15
 606 0032 04D5     		bpl	.L60
 607              	.L67:
 751:.\Generated_Source\PSoC4/CyLFClk.c ****                 while (0u != CySysWdtGetEnabledStatus(CY_SYS_WDT_COUNTER2))
 608              		.loc 1 751 0 discriminator 1
 609 0034 0220     		mov	r0, #2
 610 0036 FFF7FEFF 		bl	CySysWdtGetEnabledStatus
 611              	.LVL43:
 612 003a 0028     		cmp	r0, #0
 613 003c FAD1     		bne	.L67
 614              	.L60:
 757:.\Generated_Source\PSoC4/CyLFClk.c ****     }
 615              		.loc 1 757 0
 616              		@ sp needed
 617              	.LVL44:
 618 003e 10BD     		pop	{r4, pc}
 619              	.L74:
 620              		.align	2
 621              	.L73:
 622 0040 10020B40 		.word	1074463248
 623              		.cfi_endproc
 624              	.LFE12:
 625              		.size	CySysWdtDisable, .-CySysWdtDisable
 626              		.section	.text.CySysWdtSetCascade,"ax",%progbits
 627              		.align	2
 628              		.global	CySysWdtSetCascade
 629              		.code	16
 630              		.thumb_func
 631              		.type	CySysWdtSetCascade, %function
 632              	CySysWdtSetCascade:
 633              	.LFB13:
 794:.\Generated_Source\PSoC4/CyLFClk.c ****     {
 634              		.loc 1 794 0
 635              		.cfi_startproc
 636              	.LVL45:
 637 0000 38B5     		push	{r3, r4, r5, lr}
 638              		.cfi_def_cfa_offset 16
 639              		.cfi_offset 3, -16
 640              		.cfi_offset 4, -12
 641              		.cfi_offset 5, -8
 642              		.cfi_offset 14, -4
 643 0002 051C     		mov	r5, r0
 798:.\Generated_Source\PSoC4/CyLFClk.c ****         countersEnableStatus = CySysWdtGetEnabledStatus(CY_SYS_WDT_COUNTER0) |
 644              		.loc 1 798 0
 645 0004 0020     		mov	r0, #0
 646              	.LVL46:
ARM GAS  C:\Users\mitchell\AppData\Local\Temp\ccKXG5jd.s 			page 42


 647 0006 FFF7FEFF 		bl	CySysWdtGetEnabledStatus
 648              	.LVL47:
 649 000a 041C     		mov	r4, r0
 799:.\Generated_Source\PSoC4/CyLFClk.c ****                             CySysWdtGetEnabledStatus(CY_SYS_WDT_COUNTER1) |
 650              		.loc 1 799 0
 651 000c 0120     		mov	r0, #1
 652 000e FFF7FEFF 		bl	CySysWdtGetEnabledStatus
 653              	.LVL48:
 798:.\Generated_Source\PSoC4/CyLFClk.c ****         countersEnableStatus = CySysWdtGetEnabledStatus(CY_SYS_WDT_COUNTER0) |
 654              		.loc 1 798 0
 655 0012 0443     		orr	r4, r0
 800:.\Generated_Source\PSoC4/CyLFClk.c ****                             CySysWdtGetEnabledStatus(CY_SYS_WDT_COUNTER2);
 656              		.loc 1 800 0
 657 0014 0220     		mov	r0, #2
 658 0016 FFF7FEFF 		bl	CySysWdtGetEnabledStatus
 659              	.LVL49:
 798:.\Generated_Source\PSoC4/CyLFClk.c ****         countersEnableStatus = CySysWdtGetEnabledStatus(CY_SYS_WDT_COUNTER0) |
 660              		.loc 1 798 0
 661 001a 0443     		orr	r4, r0
 662              	.LVL50:
 802:.\Generated_Source\PSoC4/CyLFClk.c ****         if (0u == countersEnableStatus)
 663              		.loc 1 802 0
 664 001c 05D1     		bne	.L75
 804:.\Generated_Source\PSoC4/CyLFClk.c ****             configRegValue = CY_SYS_WDT_CONFIG_REG;
 665              		.loc 1 804 0
 666 001e 034B     		ldr	r3, .L77
 667 0020 1968     		ldr	r1, [r3]
 668              	.LVL51:
 805:.\Generated_Source\PSoC4/CyLFClk.c ****             configRegValue &= ((uint32)(~(CY_SYS_WDT_CASCADE_01|CY_SYS_WDT_CASCADE_12)));
 669              		.loc 1 805 0
 670 0022 034A     		ldr	r2, .L77+4
 671 0024 0A40     		and	r2, r1
 672              	.LVL52:
 806:.\Generated_Source\PSoC4/CyLFClk.c ****             configRegValue |= cascadeMask;
 673              		.loc 1 806 0
 674 0026 1543     		orr	r5, r2
 675              	.LVL53:
 807:.\Generated_Source\PSoC4/CyLFClk.c ****             CY_SYS_WDT_CONFIG_REG = configRegValue;
 676              		.loc 1 807 0
 677 0028 1D60     		str	r5, [r3]
 678              	.LVL54:
 679              	.L75:
 809:.\Generated_Source\PSoC4/CyLFClk.c ****     }
 680              		.loc 1 809 0
 681              		@ sp needed
 682              	.LVL55:
 683 002a 38BD     		pop	{r3, r4, r5, pc}
 684              	.L78:
 685              		.align	2
 686              	.L77:
 687 002c 0C020B40 		.word	1074463244
 688 0030 F7F7FFFF 		.word	-2057
 689              		.cfi_endproc
 690              	.LFE13:
 691              		.size	CySysWdtSetCascade, .-CySysWdtSetCascade
 692              		.section	.text.CySysWdtGetCascade,"ax",%progbits
 693              		.align	2
ARM GAS  C:\Users\mitchell\AppData\Local\Temp\ccKXG5jd.s 			page 43


 694              		.global	CySysWdtGetCascade
 695              		.code	16
 696              		.thumb_func
 697              		.type	CySysWdtGetCascade, %function
 698              	CySysWdtGetCascade:
 699              	.LFB14:
 831:.\Generated_Source\PSoC4/CyLFClk.c ****     {
 700              		.loc 1 831 0
 701              		.cfi_startproc
 832:.\Generated_Source\PSoC4/CyLFClk.c ****         return (CY_SYS_WDT_CONFIG_REG & (CY_SYS_WDT_CASCADE_01 | CY_SYS_WDT_CASCADE_12));
 702              		.loc 1 832 0
 703 0000 024B     		ldr	r3, .L80
 704 0002 1868     		ldr	r0, [r3]
 705 0004 024B     		ldr	r3, .L80+4
 706 0006 1840     		and	r0, r3
 833:.\Generated_Source\PSoC4/CyLFClk.c ****     }
 707              		.loc 1 833 0
 708              		@ sp needed
 709 0008 7047     		bx	lr
 710              	.L81:
 711 000a C046     		.align	2
 712              	.L80:
 713 000c 0C020B40 		.word	1074463244
 714 0010 08080000 		.word	2056
 715              		.cfi_endproc
 716              	.LFE14:
 717              		.size	CySysWdtGetCascade, .-CySysWdtGetCascade
 718              		.section	.text.CySysWdtSetMatch,"ax",%progbits
 719              		.align	2
 720              		.global	CySysWdtSetMatch
 721              		.code	16
 722              		.thumb_func
 723              		.type	CySysWdtSetMatch, %function
 724              	CySysWdtSetMatch:
 725              	.LFB15:
 856:.\Generated_Source\PSoC4/CyLFClk.c ****     {
 726              		.loc 1 856 0
 727              		.cfi_startproc
 728              	.LVL56:
 729 0000 38B5     		push	{r3, r4, r5, lr}
 730              		.cfi_def_cfa_offset 16
 731              		.cfi_offset 3, -16
 732              		.cfi_offset 4, -12
 733              		.cfi_offset 5, -8
 734              		.cfi_offset 14, -4
 735 0002 041C     		mov	r4, r0
 736 0004 0D1C     		mov	r5, r1
 859:.\Generated_Source\PSoC4/CyLFClk.c ****         CYASSERT((counterNum == CY_SYS_WDT_COUNTER0) ||
 737              		.loc 1 859 0
 738 0006 0128     		cmp	r0, #1
 739 0008 02D9     		bls	.L83
 859:.\Generated_Source\PSoC4/CyLFClk.c ****         CYASSERT((counterNum == CY_SYS_WDT_COUNTER0) ||
 740              		.loc 1 859 0 is_stmt 0 discriminator 1
 741 000a 0020     		mov	r0, #0
 742              	.LVL57:
 743 000c FFF7FEFF 		bl	CyHalt
 744              	.LVL58:
ARM GAS  C:\Users\mitchell\AppData\Local\Temp\ccKXG5jd.s 			page 44


 745              	.L83:
 863:.\Generated_Source\PSoC4/CyLFClk.c ****         CyDelayUs(CY_SYS_WDT_3LFCLK_DELAY_US);
 746              		.loc 1 863 0 is_stmt 1
 747 0010 C920     		mov	r0, #201
 748 0012 FFF7FEFF 		bl	CyDelayUs
 749              	.LVL59:
 865:.\Generated_Source\PSoC4/CyLFClk.c ****         regValue = CY_SYS_WDT_MATCH_REG;
 750              		.loc 1 865 0
 751 0016 074B     		ldr	r3, .L84
 752 0018 1A68     		ldr	r2, [r3]
 753              	.LVL60:
 866:.\Generated_Source\PSoC4/CyLFClk.c ****         regValue &= (uint32)~((uint32)(CY_SYS_WDT_LOWER_16BITS_MASK << (counterNum * CY_SYS_WDT_CNT
 754              		.loc 1 866 0
 755 001a 2401     		lsl	r4, r4, #4
 756              	.LVL61:
 757 001c 0649     		ldr	r1, .L84+4
 758 001e A140     		lsl	r1, r1, r4
 759 0020 8A43     		bic	r2, r1
 760              	.LVL62:
 867:.\Generated_Source\PSoC4/CyLFClk.c ****         CY_SYS_WDT_MATCH_REG = (regValue | (match << (counterNum * CY_SYS_WDT_CNT_MATCH_SHIFT)));
 761              		.loc 1 867 0
 762 0022 A540     		lsl	r5, r5, r4
 763              	.LVL63:
 764 0024 2C1C     		mov	r4, r5
 765 0026 1443     		orr	r4, r2
 766 0028 1C60     		str	r4, [r3]
 870:.\Generated_Source\PSoC4/CyLFClk.c ****         CyDelayUs(CY_SYS_WDT_1LFCLK_DELAY_US);
 767              		.loc 1 870 0
 768 002a 4320     		mov	r0, #67
 769 002c FFF7FEFF 		bl	CyDelayUs
 770              	.LVL64:
 871:.\Generated_Source\PSoC4/CyLFClk.c ****     }
 771              		.loc 1 871 0
 772              		@ sp needed
 773 0030 38BD     		pop	{r3, r4, r5, pc}
 774              	.L85:
 775 0032 C046     		.align	2
 776              	.L84:
 777 0034 08020B40 		.word	1074463240
 778 0038 FFFF0000 		.word	65535
 779              		.cfi_endproc
 780              	.LFE15:
 781              		.size	CySysWdtSetMatch, .-CySysWdtSetMatch
 782              		.section	.text.CySysWdtSetToggleBit,"ax",%progbits
 783              		.align	2
 784              		.global	CySysWdtSetToggleBit
 785              		.code	16
 786              		.thumb_func
 787              		.type	CySysWdtSetToggleBit, %function
 788              	CySysWdtSetToggleBit:
 789              	.LFB16:
 900:.\Generated_Source\PSoC4/CyLFClk.c ****     {
 790              		.loc 1 900 0
 791              		.cfi_startproc
 792              	.LVL65:
 793 0000 10B5     		push	{r4, lr}
 794              		.cfi_def_cfa_offset 8
ARM GAS  C:\Users\mitchell\AppData\Local\Temp\ccKXG5jd.s 			page 45


 795              		.cfi_offset 4, -8
 796              		.cfi_offset 14, -4
 797 0002 041C     		mov	r4, r0
 903:.\Generated_Source\PSoC4/CyLFClk.c ****         if (0u == CySysWdtGetEnabledStatus(CY_SYS_WDT_COUNTER2))
 798              		.loc 1 903 0
 799 0004 0220     		mov	r0, #2
 800              	.LVL66:
 801 0006 FFF7FEFF 		bl	CySysWdtGetEnabledStatus
 802              	.LVL67:
 803 000a 0028     		cmp	r0, #0
 804 000c 08D1     		bne	.L86
 905:.\Generated_Source\PSoC4/CyLFClk.c ****             configRegValue = CY_SYS_WDT_CONFIG_REG;
 805              		.loc 1 905 0
 806 000e 054B     		ldr	r3, .L88
 807 0010 1968     		ldr	r1, [r3]
 808              	.LVL68:
 906:.\Generated_Source\PSoC4/CyLFClk.c ****             configRegValue &= (uint32)(~((uint32)(CY_SYS_WDT_CONFIG_BITS2_MASK << CY_SYS_WDT_CONFIG
 809              		.loc 1 906 0
 810 0012 054A     		ldr	r2, .L88+4
 811 0014 0A40     		and	r2, r1
 812              	.LVL69:
 907:.\Generated_Source\PSoC4/CyLFClk.c ****             configRegValue |= ((bits & CY_SYS_WDT_CONFIG_BITS2_MASK) << CY_SYS_WDT_CONFIG_BITS2_POS
 813              		.loc 1 907 0
 814 0016 1F21     		mov	r1, #31
 815 0018 0C40     		and	r4, r1
 816              	.LVL70:
 817 001a 2406     		lsl	r4, r4, #24
 818 001c 1443     		orr	r4, r2
 819              	.LVL71:
 908:.\Generated_Source\PSoC4/CyLFClk.c ****             CY_SYS_WDT_CONFIG_REG = configRegValue;
 820              		.loc 1 908 0
 821 001e 1C60     		str	r4, [r3]
 822              	.LVL72:
 823              	.L86:
 910:.\Generated_Source\PSoC4/CyLFClk.c ****     }
 824              		.loc 1 910 0
 825              		@ sp needed
 826 0020 10BD     		pop	{r4, pc}
 827              	.L89:
 828 0022 C046     		.align	2
 829              	.L88:
 830 0024 0C020B40 		.word	1074463244
 831 0028 FFFFFFE0 		.word	-520093697
 832              		.cfi_endproc
 833              	.LFE16:
 834              		.size	CySysWdtSetToggleBit, .-CySysWdtSetToggleBit
 835              		.section	.text.CySysWdtGetToggleBit,"ax",%progbits
 836              		.align	2
 837              		.global	CySysWdtGetToggleBit
 838              		.code	16
 839              		.thumb_func
 840              		.type	CySysWdtGetToggleBit, %function
 841              	CySysWdtGetToggleBit:
 842              	.LFB17:
 928:.\Generated_Source\PSoC4/CyLFClk.c ****     {
 843              		.loc 1 928 0
 844              		.cfi_startproc
ARM GAS  C:\Users\mitchell\AppData\Local\Temp\ccKXG5jd.s 			page 46


 929:.\Generated_Source\PSoC4/CyLFClk.c ****         return ((CY_SYS_WDT_CONFIG_REG >> CY_SYS_WDT_CONFIG_BITS2_POS) & CY_SYS_WDT_CONFIG_BITS2_MA
 845              		.loc 1 929 0
 846 0000 024B     		ldr	r3, .L91
 847 0002 1868     		ldr	r0, [r3]
 848 0004 C000     		lsl	r0, r0, #3
 849 0006 C00E     		lsr	r0, r0, #27
 930:.\Generated_Source\PSoC4/CyLFClk.c ****     }
 850              		.loc 1 930 0
 851              		@ sp needed
 852 0008 7047     		bx	lr
 853              	.L92:
 854 000a C046     		.align	2
 855              	.L91:
 856 000c 0C020B40 		.word	1074463244
 857              		.cfi_endproc
 858              	.LFE17:
 859              		.size	CySysWdtGetToggleBit, .-CySysWdtGetToggleBit
 860              		.section	.text.CySysWdtGetMatch,"ax",%progbits
 861              		.align	2
 862              		.global	CySysWdtGetMatch
 863              		.code	16
 864              		.thumb_func
 865              		.type	CySysWdtGetMatch, %function
 866              	CySysWdtGetMatch:
 867              	.LFB18:
 949:.\Generated_Source\PSoC4/CyLFClk.c ****     {
 868              		.loc 1 949 0
 869              		.cfi_startproc
 870              	.LVL73:
 871 0000 10B5     		push	{r4, lr}
 872              		.cfi_def_cfa_offset 8
 873              		.cfi_offset 4, -8
 874              		.cfi_offset 14, -4
 875 0002 041E     		sub	r4, r0, #0
 950:.\Generated_Source\PSoC4/CyLFClk.c ****         CYASSERT((counterNum == CY_SYS_WDT_COUNTER0) ||
 876              		.loc 1 950 0
 877 0004 012C     		cmp	r4, #1
 878 0006 02D9     		bls	.L94
 950:.\Generated_Source\PSoC4/CyLFClk.c ****         CYASSERT((counterNum == CY_SYS_WDT_COUNTER0) ||
 879              		.loc 1 950 0 is_stmt 0 discriminator 1
 880 0008 0020     		mov	r0, #0
 881              	.LVL74:
 882 000a FFF7FEFF 		bl	CyHalt
 883              	.LVL75:
 884              	.L94:
 953:.\Generated_Source\PSoC4/CyLFClk.c ****         return ((uint32)(CY_SYS_WDT_MATCH_REG >> (counterNum * CY_SYS_WDT_CNT_MATCH_SHIFT)) & CY_SY
 885              		.loc 1 953 0 is_stmt 1
 886 000e 034B     		ldr	r3, .L95
 887 0010 1868     		ldr	r0, [r3]
 888 0012 2401     		lsl	r4, r4, #4
 889              	.LVL76:
 890 0014 E040     		lsr	r0, r0, r4
 891 0016 0004     		lsl	r0, r0, #16
 892 0018 000C     		lsr	r0, r0, #16
 954:.\Generated_Source\PSoC4/CyLFClk.c ****     }
 893              		.loc 1 954 0
 894              		@ sp needed
ARM GAS  C:\Users\mitchell\AppData\Local\Temp\ccKXG5jd.s 			page 47


 895 001a 10BD     		pop	{r4, pc}
 896              	.L96:
 897              		.align	2
 898              	.L95:
 899 001c 08020B40 		.word	1074463240
 900              		.cfi_endproc
 901              	.LFE18:
 902              		.size	CySysWdtGetMatch, .-CySysWdtGetMatch
 903              		.section	.text.CySysWdtGetCount,"ax",%progbits
 904              		.align	2
 905              		.global	CySysWdtGetCount
 906              		.code	16
 907              		.thumb_func
 908              		.type	CySysWdtGetCount, %function
 909              	CySysWdtGetCount:
 910              	.LFB19:
 973:.\Generated_Source\PSoC4/CyLFClk.c ****     {
 911              		.loc 1 973 0
 912              		.cfi_startproc
 913              	.LVL77:
 914 0000 08B5     		push	{r3, lr}
 915              		.cfi_def_cfa_offset 8
 916              		.cfi_offset 3, -8
 917              		.cfi_offset 14, -4
 918              	.LVL78:
 976:.\Generated_Source\PSoC4/CyLFClk.c ****         switch(counterNum)
 919              		.loc 1 976 0
 920 0002 0128     		cmp	r0, #1
 921 0004 09D0     		beq	.L99
 922 0006 0028     		cmp	r0, #0
 923 0008 02D0     		beq	.L100
 924 000a 0228     		cmp	r0, #2
 925 000c 09D0     		beq	.L101
 926 000e 0BE0     		b	.L103
 927              	.L100:
 980:.\Generated_Source\PSoC4/CyLFClk.c ****                 regValue = CY_SYS_WDT_CTRLOW_REG & CY_SYS_WDT_LOWER_16BITS_MASK;
 928              		.loc 1 980 0
 929 0010 084B     		ldr	r3, .L104
 930 0012 1868     		ldr	r0, [r3]
 931              	.LVL79:
 932 0014 0004     		lsl	r0, r0, #16
 933 0016 000C     		lsr	r0, r0, #16
 934              	.LVL80:
 981:.\Generated_Source\PSoC4/CyLFClk.c ****             break;
 935              		.loc 1 981 0
 936 0018 0AE0     		b	.L102
 937              	.LVL81:
 938              	.L99:
 985:.\Generated_Source\PSoC4/CyLFClk.c ****                 regValue = (CY_SYS_WDT_CTRLOW_REG >> CY_SYS_WDT_CNT_MATCH_SHIFT) & CY_SYS_WDT_LOWER
 939              		.loc 1 985 0
 940 001a 064B     		ldr	r3, .L104
 941 001c 1868     		ldr	r0, [r3]
 942              	.LVL82:
 943 001e 000C     		lsr	r0, r0, #16
 944              	.LVL83:
 986:.\Generated_Source\PSoC4/CyLFClk.c ****             break;
 945              		.loc 1 986 0
ARM GAS  C:\Users\mitchell\AppData\Local\Temp\ccKXG5jd.s 			page 48


 946 0020 06E0     		b	.L102
 947              	.LVL84:
 948              	.L101:
 990:.\Generated_Source\PSoC4/CyLFClk.c ****                 regValue = CY_SYS_WDT_CTRHIGH_REG;
 949              		.loc 1 990 0
 950 0022 054B     		ldr	r3, .L104+4
 951 0024 1868     		ldr	r0, [r3]
 952              	.LVL85:
 991:.\Generated_Source\PSoC4/CyLFClk.c ****             break;
 953              		.loc 1 991 0
 954 0026 03E0     		b	.L102
 955              	.LVL86:
 956              	.L103:
 994:.\Generated_Source\PSoC4/CyLFClk.c ****                 CYASSERT(0u != 0u);
 957              		.loc 1 994 0 discriminator 1
 958 0028 0020     		mov	r0, #0
 959              	.LVL87:
 960 002a FFF7FEFF 		bl	CyHalt
 961              	.LVL88:
 974:.\Generated_Source\PSoC4/CyLFClk.c ****         uint32 regValue = 0u;
 962              		.loc 1 974 0 discriminator 1
 963 002e 0020     		mov	r0, #0
 964              	.LVL89:
 965              	.L102:
 999:.\Generated_Source\PSoC4/CyLFClk.c ****     }
 966              		.loc 1 999 0
 967              		@ sp needed
 968 0030 08BD     		pop	{r3, pc}
 969              	.L105:
 970 0032 C046     		.align	2
 971              	.L104:
 972 0034 00020B40 		.word	1074463232
 973 0038 04020B40 		.word	1074463236
 974              		.cfi_endproc
 975              	.LFE19:
 976              		.size	CySysWdtGetCount, .-CySysWdtGetCount
 977              		.section	.text.CySysClkLfclkPosedgeCatch,"ax",%progbits
 978              		.align	2
 979              		.code	16
 980              		.thumb_func
 981              		.type	CySysClkLfclkPosedgeCatch, %function
 982              	CySysClkLfclkPosedgeCatch:
 983              	.LFB31:
1573:.\Generated_Source\PSoC4/CyLFClk.c ****     {
 984              		.loc 1 1573 0
 985              		.cfi_startproc
 986 0000 38B5     		push	{r3, r4, r5, lr}
 987              		.cfi_def_cfa_offset 16
 988              		.cfi_offset 3, -16
 989              		.cfi_offset 4, -12
 990              		.cfi_offset 5, -8
 991              		.cfi_offset 14, -4
1577:.\Generated_Source\PSoC4/CyLFClk.c ****         if (0u != CySysWdtGetEnabledStatus(CY_SYS_WDT_COUNTER0))
 992              		.loc 1 1577 0
 993 0002 0020     		mov	r0, #0
 994 0004 FFF7FEFF 		bl	CySysWdtGetEnabledStatus
 995              	.LVL90:
ARM GAS  C:\Users\mitchell\AppData\Local\Temp\ccKXG5jd.s 			page 49


 996 0008 0028     		cmp	r0, #0
 997 000a 03D0     		beq	.L107
1579:.\Generated_Source\PSoC4/CyLFClk.c ****             lfclkPosedgeEnabledWdtCounter = CY_SYS_WDT_COUNTER0;
 998              		.loc 1 1579 0
 999 000c 0022     		mov	r2, #0
 1000 000e 184B     		ldr	r3, .L113
 1001 0010 9A60     		str	r2, [r3, #8]
 1002 0012 21E0     		b	.L108
 1003              	.L107:
1581:.\Generated_Source\PSoC4/CyLFClk.c ****         else if (0u != CySysWdtGetEnabledStatus(CY_SYS_WDT_COUNTER1))
 1004              		.loc 1 1581 0
 1005 0014 0120     		mov	r0, #1
 1006 0016 FFF7FEFF 		bl	CySysWdtGetEnabledStatus
 1007              	.LVL91:
 1008 001a 0028     		cmp	r0, #0
 1009 001c 03D0     		beq	.L109
1583:.\Generated_Source\PSoC4/CyLFClk.c ****             lfclkPosedgeEnabledWdtCounter = CY_SYS_WDT_COUNTER1;
 1010              		.loc 1 1583 0
 1011 001e 0122     		mov	r2, #1
 1012 0020 134B     		ldr	r3, .L113
 1013 0022 9A60     		str	r2, [r3, #8]
 1014 0024 18E0     		b	.L108
 1015              	.L109:
1585:.\Generated_Source\PSoC4/CyLFClk.c ****         else if (0u != CySysWdtGetEnabledStatus(CY_SYS_WDT_COUNTER2))
 1016              		.loc 1 1585 0
 1017 0026 0220     		mov	r0, #2
 1018 0028 FFF7FEFF 		bl	CySysWdtGetEnabledStatus
 1019              	.LVL92:
 1020 002c 0028     		cmp	r0, #0
 1021 002e 03D0     		beq	.L110
1587:.\Generated_Source\PSoC4/CyLFClk.c ****             lfclkPosedgeEnabledWdtCounter = CY_SYS_WDT_COUNTER2;
 1022              		.loc 1 1587 0
 1023 0030 0222     		mov	r2, #2
 1024 0032 0F4B     		ldr	r3, .L113
 1025 0034 9A60     		str	r2, [r3, #8]
 1026 0036 0FE0     		b	.L108
 1027              	.L110:
1592:.\Generated_Source\PSoC4/CyLFClk.c ****             lfclkPosedgeWdtCounter0Enabled = 1u;
 1028              		.loc 1 1592 0
 1029 0038 0D4C     		ldr	r4, .L113
 1030 003a 0123     		mov	r3, #1
 1031 003c 2360     		str	r3, [r4]
1593:.\Generated_Source\PSoC4/CyLFClk.c ****             lfclkPosedgeEnabledWdtCounter = CY_SYS_WDT_COUNTER0;
 1032              		.loc 1 1593 0
 1033 003e 0023     		mov	r3, #0
 1034 0040 A360     		str	r3, [r4, #8]
1595:.\Generated_Source\PSoC4/CyLFClk.c ****             lfclkPosedgeWdtCounter0Mode = CySysWdtGetMode(CY_SYS_WDT_COUNTER0);
 1035              		.loc 1 1595 0
 1036 0042 0020     		mov	r0, #0
 1037 0044 FFF7FEFF 		bl	CySysWdtGetMode
 1038              	.LVL93:
 1039 0048 6060     		str	r0, [r4, #4]
1596:.\Generated_Source\PSoC4/CyLFClk.c ****             CySysWdtSetMode(CY_SYS_WDT_COUNTER0, CY_SYS_WDT_MODE_NONE);
 1040              		.loc 1 1596 0
 1041 004a 0020     		mov	r0, #0
 1042 004c 0021     		mov	r1, #0
 1043 004e FFF7FEFF 		bl	CySysWdtSetMode
ARM GAS  C:\Users\mitchell\AppData\Local\Temp\ccKXG5jd.s 			page 50


 1044              	.LVL94:
1597:.\Generated_Source\PSoC4/CyLFClk.c ****             CySysWdtEnable(CY_SYS_WDT_COUNTER0_MASK);
 1045              		.loc 1 1597 0
 1046 0052 0120     		mov	r0, #1
 1047 0054 FFF7FEFF 		bl	CySysWdtEnable
 1048              	.LVL95:
 1049              	.L108:
1600:.\Generated_Source\PSoC4/CyLFClk.c ****         firstCount = CySysWdtGetCount(lfclkPosedgeEnabledWdtCounter);
 1050              		.loc 1 1600 0
 1051 0058 054B     		ldr	r3, .L113
 1052 005a 9868     		ldr	r0, [r3, #8]
 1053 005c FFF7FEFF 		bl	CySysWdtGetCount
 1054              	.LVL96:
 1055 0060 051C     		mov	r5, r0
 1056              	.LVL97:
1601:.\Generated_Source\PSoC4/CyLFClk.c ****         while (CySysWdtGetCount(lfclkPosedgeEnabledWdtCounter) == firstCount)
 1057              		.loc 1 1601 0
 1058 0062 034C     		ldr	r4, .L113
 1059              	.LVL98:
 1060              	.L111:
1601:.\Generated_Source\PSoC4/CyLFClk.c ****         while (CySysWdtGetCount(lfclkPosedgeEnabledWdtCounter) == firstCount)
 1061              		.loc 1 1601 0 is_stmt 0 discriminator 1
 1062 0064 A068     		ldr	r0, [r4, #8]
 1063 0066 FFF7FEFF 		bl	CySysWdtGetCount
 1064              	.LVL99:
 1065 006a A842     		cmp	r0, r5
 1066 006c FAD0     		beq	.L111
1605:.\Generated_Source\PSoC4/CyLFClk.c ****     }
 1067              		.loc 1 1605 0 is_stmt 1
 1068              		@ sp needed
 1069              	.LVL100:
 1070 006e 38BD     		pop	{r3, r4, r5, pc}
 1071              	.L114:
 1072              		.align	2
 1073              	.L113:
 1074 0070 00000000 		.word	.LANCHOR0
 1075              		.cfi_endproc
 1076              	.LFE31:
 1077              		.size	CySysClkLfclkPosedgeCatch, .-CySysClkLfclkPosedgeCatch
 1078              		.section	.text.CySysClkIloStop,"ax",%progbits
 1079              		.align	2
 1080              		.global	CySysClkIloStop
 1081              		.code	16
 1082              		.thumb_func
 1083              		.type	CySysClkIloStop, %function
 1084              	CySysClkIloStop:
 1085              	.LFB1:
  97:.\Generated_Source\PSoC4/CyLFClk.c **** {
 1086              		.loc 1 97 0
 1087              		.cfi_startproc
 1088 0000 10B5     		push	{r4, lr}
 1089              		.cfi_def_cfa_offset 8
 1090              		.cfi_offset 4, -8
 1091              		.cfi_offset 14, -4
 102:.\Generated_Source\PSoC4/CyLFClk.c ****         if (0u == CySysWdtLocked())
 1092              		.loc 1 102 0
 1093 0002 FFF7FEFF 		bl	CySysWdtLocked
ARM GAS  C:\Users\mitchell\AppData\Local\Temp\ccKXG5jd.s 			page 51


 1094              	.LVL101:
 1095 0006 0028     		cmp	r0, #0
 1096 0008 12D1     		bne	.L115
 104:.\Generated_Source\PSoC4/CyLFClk.c ****             if (0u != CySysClkIloEnabled())
 1097              		.loc 1 104 0
 1098 000a FFF7FEFF 		bl	CySysClkIloEnabled
 1099              	.LVL102:
 1100 000e 0028     		cmp	r0, #0
 1101 0010 0ED0     		beq	.L115
 112:.\Generated_Source\PSoC4/CyLFClk.c ****                 interruptState = CyEnterCriticalSection();
 1102              		.loc 1 112 0
 1103 0012 FFF7FEFF 		bl	CyEnterCriticalSection
 1104              	.LVL103:
 1105 0016 041C     		mov	r4, r0
 1106              	.LVL104:
 113:.\Generated_Source\PSoC4/CyLFClk.c ****                 CySysClkLfclkPosedgeCatch();
 1107              		.loc 1 113 0
 1108 0018 FFF7FEFF 		bl	CySysClkLfclkPosedgeCatch
 1109              	.LVL105:
 114:.\Generated_Source\PSoC4/CyLFClk.c ****                 CY_SYS_CLK_ILO_CONFIG_REG &= ( uint32 ) ( ~( uint32 )CY_SYS_CLK_ILO_CONFIG_ENABLE);
 1110              		.loc 1 114 0
 1111 001c 054B     		ldr	r3, .L117
 1112 001e 1A68     		ldr	r2, [r3]
 1113 0020 5200     		lsl	r2, r2, #1
 1114 0022 5208     		lsr	r2, r2, #1
 1115 0024 1A60     		str	r2, [r3]
 115:.\Generated_Source\PSoC4/CyLFClk.c ****                 CySysClkLfclkPosedgeRestore();
 1116              		.loc 1 115 0
 1117 0026 FFF7FEFF 		bl	CySysClkLfclkPosedgeRestore
 1118              	.LVL106:
 116:.\Generated_Source\PSoC4/CyLFClk.c ****                 CyExitCriticalSection(interruptState);
 1119              		.loc 1 116 0
 1120 002a 201C     		mov	r0, r4
 1121 002c FFF7FEFF 		bl	CyExitCriticalSection
 1122              	.LVL107:
 1123              	.L115:
 131:.\Generated_Source\PSoC4/CyLFClk.c **** }
 1124              		.loc 1 131 0
 1125              		@ sp needed
 1126 0030 10BD     		pop	{r4, pc}
 1127              	.L118:
 1128 0032 C046     		.align	2
 1129              	.L117:
 1130 0034 04010B40 		.word	1074462980
 1131              		.cfi_endproc
 1132              	.LFE1:
 1133              		.size	CySysClkIloStop, .-CySysClkIloStop
 1134              		.section	.text.CySysWdtGetInterruptSource,"ax",%progbits
 1135              		.align	2
 1136              		.global	CySysWdtGetInterruptSource
 1137              		.code	16
 1138              		.thumb_func
 1139              		.type	CySysWdtGetInterruptSource, %function
 1140              	CySysWdtGetInterruptSource:
 1141              	.LFB20:
1022:.\Generated_Source\PSoC4/CyLFClk.c ****     {
 1142              		.loc 1 1022 0
ARM GAS  C:\Users\mitchell\AppData\Local\Temp\ccKXG5jd.s 			page 52


 1143              		.cfi_startproc
1023:.\Generated_Source\PSoC4/CyLFClk.c ****         return (CY_SYS_WDT_CONTROL_REG & (CY_SYS_WDT_COUNTER0_INT | CY_SYS_WDT_COUNTER1_INT | CY_SY
 1144              		.loc 1 1023 0
 1145 0000 024B     		ldr	r3, .L120
 1146 0002 1868     		ldr	r0, [r3]
 1147 0004 024B     		ldr	r3, .L120+4
 1148 0006 1840     		and	r0, r3
1024:.\Generated_Source\PSoC4/CyLFClk.c ****     }
 1149              		.loc 1 1024 0
 1150              		@ sp needed
 1151 0008 7047     		bx	lr
 1152              	.L121:
 1153 000a C046     		.align	2
 1154              	.L120:
 1155 000c 10020B40 		.word	1074463248
 1156 0010 04040400 		.word	263172
 1157              		.cfi_endproc
 1158              	.LFE20:
 1159              		.size	CySysWdtGetInterruptSource, .-CySysWdtGetInterruptSource
 1160              		.section	.text.CySysWdtClearInterrupt,"ax",%progbits
 1161              		.align	2
 1162              		.global	CySysWdtClearInterrupt
 1163              		.code	16
 1164              		.thumb_func
 1165              		.type	CySysWdtClearInterrupt, %function
 1166              	CySysWdtClearInterrupt:
 1167              	.LFB21:
1056:.\Generated_Source\PSoC4/CyLFClk.c ****     {
 1168              		.loc 1 1056 0
 1169              		.cfi_startproc
 1170              	.LVL108:
 1171 0000 38B5     		push	{r3, r4, r5, lr}
 1172              		.cfi_def_cfa_offset 16
 1173              		.cfi_offset 3, -16
 1174              		.cfi_offset 4, -12
 1175              		.cfi_offset 5, -8
 1176              		.cfi_offset 14, -4
 1177 0002 051C     		mov	r5, r0
1060:.\Generated_Source\PSoC4/CyLFClk.c ****         interruptState = CyEnterCriticalSection();
 1178              		.loc 1 1060 0
 1179 0004 FFF7FEFF 		bl	CyEnterCriticalSection
 1180              	.LVL109:
 1181 0008 041C     		mov	r4, r0
 1182              	.LVL110:
1062:.\Generated_Source\PSoC4/CyLFClk.c ****         if (0u != CySysWdtLocked())
 1183              		.loc 1 1062 0
 1184 000a FFF7FEFF 		bl	CySysWdtLocked
 1185              	.LVL111:
 1186 000e 0028     		cmp	r0, #0
 1187 0010 03D0     		beq	.L125
 1188              	.LVL112:
1065:.\Generated_Source\PSoC4/CyLFClk.c ****             CySysWdtUnlock();
 1189              		.loc 1 1065 0
 1190 0012 FFF7FEFF 		bl	CySysWdtUnlock
 1191              	.LVL113:
1064:.\Generated_Source\PSoC4/CyLFClk.c ****             wdtLockState = 1u;
 1192              		.loc 1 1064 0
ARM GAS  C:\Users\mitchell\AppData\Local\Temp\ccKXG5jd.s 			page 53


 1193 0016 0122     		mov	r2, #1
 1194 0018 00E0     		b	.L123
 1195              	.LVL114:
 1196              	.L125:
1069:.\Generated_Source\PSoC4/CyLFClk.c ****             wdtLockState = 0u;
 1197              		.loc 1 1069 0
 1198 001a 0022     		mov	r2, #0
 1199              	.L123:
 1200              	.LVL115:
1073:.\Generated_Source\PSoC4/CyLFClk.c ****         counterMask &= (CY_SYS_WDT_COUNTER0_INT |
 1201              		.loc 1 1073 0
 1202 001c 084B     		ldr	r3, .L126
 1203 001e 1D40     		and	r5, r3
 1204              	.LVL116:
1077:.\Generated_Source\PSoC4/CyLFClk.c ****         CY_SYS_WDT_CONTROL_REG = counterMask | (CY_SYS_WDT_CONTROL_REG & ~(CY_SYS_WDT_COUNTER0_INT 
 1205              		.loc 1 1077 0
 1206 0020 084B     		ldr	r3, .L126+4
 1207 0022 1868     		ldr	r0, [r3]
 1208 0024 0849     		ldr	r1, .L126+8
 1209 0026 0140     		and	r1, r0
 1210 0028 0D43     		orr	r5, r1
 1211              	.LVL117:
 1212 002a 1D60     		str	r5, [r3]
1084:.\Generated_Source\PSoC4/CyLFClk.c ****         (void)CY_SYS_WDT_CONTROL_REG;
 1213              		.loc 1 1084 0
 1214 002c 1B68     		ldr	r3, [r3]
1086:.\Generated_Source\PSoC4/CyLFClk.c ****         if (1u == wdtLockState)
 1215              		.loc 1 1086 0
 1216 002e 012A     		cmp	r2, #1
 1217 0030 01D1     		bne	.L124
1088:.\Generated_Source\PSoC4/CyLFClk.c ****             CySysWdtLock();
 1218              		.loc 1 1088 0
 1219 0032 FFF7FEFF 		bl	CySysWdtLock
 1220              	.LVL118:
 1221              	.L124:
1091:.\Generated_Source\PSoC4/CyLFClk.c ****         CyExitCriticalSection(interruptState);
 1222              		.loc 1 1091 0
 1223 0036 201C     		mov	r0, r4
 1224 0038 FFF7FEFF 		bl	CyExitCriticalSection
 1225              	.LVL119:
1092:.\Generated_Source\PSoC4/CyLFClk.c ****     }
 1226              		.loc 1 1092 0
 1227              		@ sp needed
 1228              	.LVL120:
 1229 003c 38BD     		pop	{r3, r4, r5, pc}
 1230              	.L127:
 1231 003e C046     		.align	2
 1232              	.L126:
 1233 0040 04040400 		.word	263172
 1234 0044 10020B40 		.word	1074463248
 1235 0048 FBFBFBFF 		.word	-263173
 1236              		.cfi_endproc
 1237              	.LFE21:
 1238              		.size	CySysWdtClearInterrupt, .-CySysWdtClearInterrupt
 1239              		.section	.text.CySysWdtResetCounters,"ax",%progbits
 1240              		.align	2
 1241              		.global	CySysWdtResetCounters
ARM GAS  C:\Users\mitchell\AppData\Local\Temp\ccKXG5jd.s 			page 54


 1242              		.code	16
 1243              		.thumb_func
 1244              		.type	CySysWdtResetCounters, %function
 1245              	CySysWdtResetCounters:
 1246              	.LFB22:
1120:.\Generated_Source\PSoC4/CyLFClk.c ****     {
 1247              		.loc 1 1120 0
 1248              		.cfi_startproc
 1249              	.LVL121:
1122:.\Generated_Source\PSoC4/CyLFClk.c ****         CY_SYS_WDT_CONTROL_REG |= (countersMask & CY_SYS_WDT_COUNTERS_RESET);
 1250              		.loc 1 1122 0
 1251 0000 054B     		ldr	r3, .L131
 1252 0002 1A68     		ldr	r2, [r3]
 1253 0004 0549     		ldr	r1, .L131+4
 1254 0006 0840     		and	r0, r1
 1255              	.LVL122:
 1256 0008 1043     		orr	r0, r2
 1257 000a 1860     		str	r0, [r3]
1124:.\Generated_Source\PSoC4/CyLFClk.c ****         while (0uL != (CY_SYS_WDT_CONTROL_REG & CY_SYS_WDT_COUNTERS_RESET))
 1258              		.loc 1 1124 0
 1259 000c 191C     		mov	r1, r3
 1260 000e 034A     		ldr	r2, .L131+4
 1261              	.L129:
1124:.\Generated_Source\PSoC4/CyLFClk.c ****         while (0uL != (CY_SYS_WDT_CONTROL_REG & CY_SYS_WDT_COUNTERS_RESET))
 1262              		.loc 1 1124 0 is_stmt 0 discriminator 1
 1263 0010 0B68     		ldr	r3, [r1]
 1264 0012 1342     		tst	r3, r2
 1265 0014 FCD1     		bne	.L129
1128:.\Generated_Source\PSoC4/CyLFClk.c ****     }
 1266              		.loc 1 1128 0 is_stmt 1
 1267              		@ sp needed
 1268 0016 7047     		bx	lr
 1269              	.L132:
 1270              		.align	2
 1271              	.L131:
 1272 0018 10020B40 		.word	1074463248
 1273 001c 08080800 		.word	526344
 1274              		.cfi_endproc
 1275              	.LFE22:
 1276              		.size	CySysWdtResetCounters, .-CySysWdtResetCounters
 1277              		.section	.text.CySysWdtSetInterruptCallback,"ax",%progbits
 1278              		.align	2
 1279              		.global	CySysWdtSetInterruptCallback
 1280              		.code	16
 1281              		.thumb_func
 1282              		.type	CySysWdtSetInterruptCallback, %function
 1283              	CySysWdtSetInterruptCallback:
 1284              	.LFB23:
1149:.\Generated_Source\PSoC4/CyLFClk.c ****     {
 1285              		.loc 1 1149 0
 1286              		.cfi_startproc
 1287              	.LVL123:
 1288 0000 08B5     		push	{r3, lr}
 1289              		.cfi_def_cfa_offset 8
 1290              		.cfi_offset 3, -8
 1291              		.cfi_offset 14, -4
 1292              	.LVL124:
ARM GAS  C:\Users\mitchell\AppData\Local\Temp\ccKXG5jd.s 			page 55


1152:.\Generated_Source\PSoC4/CyLFClk.c ****         if(counterNum < CY_WDT_NUM_OF_WDT)
 1293              		.loc 1 1152 0
 1294 0002 0228     		cmp	r0, #2
 1295 0004 05D8     		bhi	.L134
1154:.\Generated_Source\PSoC4/CyLFClk.c ****             prevCallback = cySysWdtCallback[counterNum];
 1296              		.loc 1 1154 0
 1297 0006 8000     		lsl	r0, r0, #2
 1298              	.LVL125:
 1299 0008 044B     		ldr	r3, .L136
 1300 000a 1B18     		add	r3, r3, r0
 1301 000c D868     		ldr	r0, [r3, #12]
 1302              	.LVL126:
1155:.\Generated_Source\PSoC4/CyLFClk.c ****             cySysWdtCallback[counterNum] = function;
 1303              		.loc 1 1155 0
 1304 000e D960     		str	r1, [r3, #12]
 1305 0010 03E0     		b	.L135
 1306              	.LVL127:
 1307              	.L134:
1159:.\Generated_Source\PSoC4/CyLFClk.c ****             CYASSERT(0u != 0u);
 1308              		.loc 1 1159 0 discriminator 1
 1309 0012 0020     		mov	r0, #0
 1310              	.LVL128:
 1311 0014 FFF7FEFF 		bl	CyHalt
 1312              	.LVL129:
1150:.\Generated_Source\PSoC4/CyLFClk.c ****         cyWdtCallback prevCallback = (void *)0;
 1313              		.loc 1 1150 0 discriminator 1
 1314 0018 0020     		mov	r0, #0
 1315              	.LVL130:
 1316              	.L135:
1163:.\Generated_Source\PSoC4/CyLFClk.c ****     }
 1317              		.loc 1 1163 0
 1318              		@ sp needed
 1319 001a 08BD     		pop	{r3, pc}
 1320              	.L137:
 1321              		.align	2
 1322              	.L136:
 1323 001c 00000000 		.word	.LANCHOR0
 1324              		.cfi_endproc
 1325              	.LFE23:
 1326              		.size	CySysWdtSetInterruptCallback, .-CySysWdtSetInterruptCallback
 1327              		.section	.text.CySysWdtGetInterruptCallback,"ax",%progbits
 1328              		.align	2
 1329              		.global	CySysWdtGetInterruptCallback
 1330              		.code	16
 1331              		.thumb_func
 1332              		.type	CySysWdtGetInterruptCallback, %function
 1333              	CySysWdtGetInterruptCallback:
 1334              	.LFB24:
1182:.\Generated_Source\PSoC4/CyLFClk.c ****     {
 1335              		.loc 1 1182 0
 1336              		.cfi_startproc
 1337              	.LVL131:
 1338 0000 08B5     		push	{r3, lr}
 1339              		.cfi_def_cfa_offset 8
 1340              		.cfi_offset 3, -8
 1341              		.cfi_offset 14, -4
 1342              	.LVL132:
ARM GAS  C:\Users\mitchell\AppData\Local\Temp\ccKXG5jd.s 			page 56


1185:.\Generated_Source\PSoC4/CyLFClk.c ****         if(counterNum < CY_WDT_NUM_OF_WDT)
 1343              		.loc 1 1185 0
 1344 0002 0228     		cmp	r0, #2
 1345 0004 04D8     		bhi	.L139
1187:.\Generated_Source\PSoC4/CyLFClk.c ****             retCallback = (cyWdtCallback)cySysWdtCallback[counterNum];
 1346              		.loc 1 1187 0
 1347 0006 8000     		lsl	r0, r0, #2
 1348              	.LVL133:
 1349 0008 044B     		ldr	r3, .L141
 1350 000a 1818     		add	r0, r3, r0
 1351 000c C068     		ldr	r0, [r0, #12]
 1352              	.LVL134:
 1353 000e 03E0     		b	.L140
 1354              	.LVL135:
 1355              	.L139:
1191:.\Generated_Source\PSoC4/CyLFClk.c ****             CYASSERT(0u != 0u);
 1356              		.loc 1 1191 0 discriminator 1
 1357 0010 0020     		mov	r0, #0
 1358              	.LVL136:
 1359 0012 FFF7FEFF 		bl	CyHalt
 1360              	.LVL137:
1183:.\Generated_Source\PSoC4/CyLFClk.c ****         cyWdtCallback retCallback = (void *)0;
 1361              		.loc 1 1183 0 discriminator 1
 1362 0016 0020     		mov	r0, #0
 1363              	.LVL138:
 1364              	.L140:
1195:.\Generated_Source\PSoC4/CyLFClk.c ****     }
 1365              		.loc 1 1195 0
 1366              		@ sp needed
 1367 0018 08BD     		pop	{r3, pc}
 1368              	.L142:
 1369 001a C046     		.align	2
 1370              	.L141:
 1371 001c 00000000 		.word	.LANCHOR0
 1372              		.cfi_endproc
 1373              	.LFE24:
 1374              		.size	CySysWdtGetInterruptCallback, .-CySysWdtGetInterruptCallback
 1375              		.section	.text.CySysWdtEnableCounterIsr,"ax",%progbits
 1376              		.align	2
 1377              		.global	CySysWdtEnableCounterIsr
 1378              		.code	16
 1379              		.thumb_func
 1380              		.type	CySysWdtEnableCounterIsr, %function
 1381              	CySysWdtEnableCounterIsr:
 1382              	.LFB25:
1210:.\Generated_Source\PSoC4/CyLFClk.c ****     {
 1383              		.loc 1 1210 0
 1384              		.cfi_startproc
 1385              	.LVL139:
 1386 0000 08B5     		push	{r3, lr}
 1387              		.cfi_def_cfa_offset 8
 1388              		.cfi_offset 3, -8
 1389              		.cfi_offset 14, -4
1211:.\Generated_Source\PSoC4/CyLFClk.c ****         if(counterNum <= CY_SYS_WDT_COUNTER2)
 1390              		.loc 1 1211 0
 1391 0002 0228     		cmp	r0, #2
 1392 0004 0BD8     		bhi	.L144
ARM GAS  C:\Users\mitchell\AppData\Local\Temp\ccKXG5jd.s 			page 57


1213:.\Generated_Source\PSoC4/CyLFClk.c ****             disableServicedIsr &= ~counterIntMaskTbl[counterNum];
 1393              		.loc 1 1213 0
 1394 0006 8000     		lsl	r0, r0, #2
 1395              	.LVL140:
 1396 0008 074B     		ldr	r3, .L146
 1397 000a C258     		ldr	r2, [r0, r3]
 1398 000c 074B     		ldr	r3, .L146+4
 1399 000e 9969     		ldr	r1, [r3, #24]
 1400 0010 9143     		bic	r1, r2
 1401 0012 9961     		str	r1, [r3, #24]
1214:.\Generated_Source\PSoC4/CyLFClk.c ****             wdtIsrMask |= counterIntMaskTbl[counterNum];
 1402              		.loc 1 1214 0
 1403 0014 064B     		ldr	r3, .L146+8
 1404 0016 1968     		ldr	r1, [r3]
 1405 0018 0A43     		orr	r2, r1
 1406 001a 1A60     		str	r2, [r3]
 1407 001c 02E0     		b	.L143
 1408              	.LVL141:
 1409              	.L144:
1218:.\Generated_Source\PSoC4/CyLFClk.c ****             CYASSERT(0u != 0u);
 1410              		.loc 1 1218 0 discriminator 1
 1411 001e 0020     		mov	r0, #0
 1412              	.LVL142:
 1413 0020 FFF7FEFF 		bl	CyHalt
 1414              	.LVL143:
 1415              	.L143:
1220:.\Generated_Source\PSoC4/CyLFClk.c ****     }
 1416              		.loc 1 1220 0
 1417              		@ sp needed
 1418 0024 08BD     		pop	{r3, pc}
 1419              	.L147:
 1420 0026 C046     		.align	2
 1421              	.L146:
 1422 0028 00000000 		.word	.LANCHOR1
 1423 002c 00000000 		.word	.LANCHOR0
 1424 0030 00000000 		.word	.LANCHOR2
 1425              		.cfi_endproc
 1426              	.LFE25:
 1427              		.size	CySysWdtEnableCounterIsr, .-CySysWdtEnableCounterIsr
 1428              		.section	.text.CySysWdtDisableCounterIsr,"ax",%progbits
 1429              		.align	2
 1430              		.global	CySysWdtDisableCounterIsr
 1431              		.code	16
 1432              		.thumb_func
 1433              		.type	CySysWdtDisableCounterIsr, %function
 1434              	CySysWdtDisableCounterIsr:
 1435              	.LFB26:
1235:.\Generated_Source\PSoC4/CyLFClk.c ****     {
 1436              		.loc 1 1235 0
 1437              		.cfi_startproc
 1438              	.LVL144:
 1439 0000 08B5     		push	{r3, lr}
 1440              		.cfi_def_cfa_offset 8
 1441              		.cfi_offset 3, -8
 1442              		.cfi_offset 14, -4
1236:.\Generated_Source\PSoC4/CyLFClk.c ****         if(counterNum <= CY_SYS_WDT_COUNTER2)
 1443              		.loc 1 1236 0
ARM GAS  C:\Users\mitchell\AppData\Local\Temp\ccKXG5jd.s 			page 58


 1444 0002 0228     		cmp	r0, #2
 1445 0004 07D8     		bhi	.L149
1238:.\Generated_Source\PSoC4/CyLFClk.c ****             wdtIsrMask &= ~counterIntMaskTbl[counterNum];
 1446              		.loc 1 1238 0
 1447 0006 8000     		lsl	r0, r0, #2
 1448              	.LVL145:
 1449 0008 054B     		ldr	r3, .L151
 1450 000a C158     		ldr	r1, [r0, r3]
 1451 000c 054B     		ldr	r3, .L151+4
 1452 000e 1A68     		ldr	r2, [r3]
 1453 0010 8A43     		bic	r2, r1
 1454 0012 1A60     		str	r2, [r3]
 1455 0014 02E0     		b	.L148
 1456              	.LVL146:
 1457              	.L149:
1242:.\Generated_Source\PSoC4/CyLFClk.c ****             CYASSERT(0u != 0u);
 1458              		.loc 1 1242 0 discriminator 1
 1459 0016 0020     		mov	r0, #0
 1460              	.LVL147:
 1461 0018 FFF7FEFF 		bl	CyHalt
 1462              	.LVL148:
 1463              	.L148:
1244:.\Generated_Source\PSoC4/CyLFClk.c ****     }
 1464              		.loc 1 1244 0
 1465              		@ sp needed
 1466 001c 08BD     		pop	{r3, pc}
 1467              	.L152:
 1468 001e C046     		.align	2
 1469              	.L151:
 1470 0020 00000000 		.word	.LANCHOR1
 1471 0024 00000000 		.word	.LANCHOR2
 1472              		.cfi_endproc
 1473              	.LFE26:
 1474              		.size	CySysWdtDisableCounterIsr, .-CySysWdtDisableCounterIsr
 1475              		.section	.text.CySysWdtIsr,"ax",%progbits
 1476              		.align	2
 1477              		.global	CySysWdtIsr
 1478              		.code	16
 1479              		.thumb_func
 1480              		.type	CySysWdtIsr, %function
 1481              	CySysWdtIsr:
 1482              	.LFB27:
1273:.\Generated_Source\PSoC4/CyLFClk.c ****     {
 1483              		.loc 1 1273 0
 1484              		.cfi_startproc
 1485 0000 10B5     		push	{r4, lr}
 1486              		.cfi_def_cfa_offset 8
 1487              		.cfi_offset 4, -8
 1488              		.cfi_offset 14, -4
1274:.\Generated_Source\PSoC4/CyLFClk.c ****         if(0u != (CY_SYS_WDT_COUNTER0_INT & CY_SYS_WDT_CONTROL_REG))
 1489              		.loc 1 1274 0
 1490 0002 244B     		ldr	r3, .L160
 1491 0004 1B68     		ldr	r3, [r3]
 1492 0006 5A07     		lsl	r2, r3, #29
 1493 0008 15D5     		bpl	.L154
1276:.\Generated_Source\PSoC4/CyLFClk.c ****             if(0u != (CY_SYS_WDT_COUNTER0_INT & wdtIsrMask))
 1494              		.loc 1 1276 0
ARM GAS  C:\Users\mitchell\AppData\Local\Temp\ccKXG5jd.s 			page 59


 1495 000a 234B     		ldr	r3, .L160+4
 1496 000c 1B68     		ldr	r3, [r3]
 1497 000e 5A07     		lsl	r2, r3, #29
 1498 0010 0ED5     		bpl	.L155
1278:.\Generated_Source\PSoC4/CyLFClk.c ****                 wdtIsrMask &= ~(disableServicedIsr & CY_SYS_WDT_COUNTER0_INT);
 1499              		.loc 1 1278 0
 1500 0012 224B     		ldr	r3, .L160+8
 1501 0014 9C69     		ldr	r4, [r3, #24]
 1502 0016 0422     		mov	r2, #4
 1503 0018 1440     		and	r4, r2
 1504 001a 1F49     		ldr	r1, .L160+4
 1505 001c 0868     		ldr	r0, [r1]
 1506 001e A043     		bic	r0, r4
 1507 0020 0860     		str	r0, [r1]
1279:.\Generated_Source\PSoC4/CyLFClk.c ****                 disableServicedIsr  &= ~CY_SYS_WDT_COUNTER0_INT;
 1508              		.loc 1 1279 0
 1509 0022 9969     		ldr	r1, [r3, #24]
 1510 0024 9143     		bic	r1, r2
 1511 0026 9961     		str	r1, [r3, #24]
1280:.\Generated_Source\PSoC4/CyLFClk.c ****                 if(cySysWdtCallback[CY_SYS_WDT_COUNTER0] != (void *) 0)
 1512              		.loc 1 1280 0
 1513 0028 DB68     		ldr	r3, [r3, #12]
 1514 002a 002B     		cmp	r3, #0
 1515 002c 00D0     		beq	.L155
1282:.\Generated_Source\PSoC4/CyLFClk.c ****                     (void)(cySysWdtCallback[CY_SYS_WDT_COUNTER0])();
 1516              		.loc 1 1282 0
 1517 002e 9847     		blx	r3
 1518              	.LVL149:
 1519              	.L155:
1285:.\Generated_Source\PSoC4/CyLFClk.c ****             CySysWdtClearInterrupt(CY_SYS_WDT_COUNTER0_INT);
 1520              		.loc 1 1285 0
 1521 0030 0420     		mov	r0, #4
 1522 0032 FFF7FEFF 		bl	CySysWdtClearInterrupt
 1523              	.LVL150:
 1524              	.L154:
1288:.\Generated_Source\PSoC4/CyLFClk.c ****         if(0u != (CY_SYS_WDT_COUNTER1_INT & CY_SYS_WDT_CONTROL_REG))
 1525              		.loc 1 1288 0
 1526 0036 174B     		ldr	r3, .L160
 1527 0038 1B68     		ldr	r3, [r3]
 1528 003a 5A05     		lsl	r2, r3, #21
 1529 003c 18D5     		bpl	.L156
1290:.\Generated_Source\PSoC4/CyLFClk.c ****             if(0u != (CY_SYS_WDT_COUNTER1_INT & wdtIsrMask))
 1530              		.loc 1 1290 0
 1531 003e 164B     		ldr	r3, .L160+4
 1532 0040 1B68     		ldr	r3, [r3]
 1533 0042 5A05     		lsl	r2, r3, #21
 1534 0044 10D5     		bpl	.L157
1292:.\Generated_Source\PSoC4/CyLFClk.c ****                 wdtIsrMask &= ~(disableServicedIsr & CY_SYS_WDT_COUNTER1_INT);
 1535              		.loc 1 1292 0
 1536 0046 154B     		ldr	r3, .L160+8
 1537 0048 9A69     		ldr	r2, [r3, #24]
 1538 004a 8020     		mov	r0, #128
 1539 004c C000     		lsl	r0, r0, #3
 1540 004e 1040     		and	r0, r2
 1541 0050 114A     		ldr	r2, .L160+4
 1542 0052 1168     		ldr	r1, [r2]
 1543 0054 8143     		bic	r1, r0
ARM GAS  C:\Users\mitchell\AppData\Local\Temp\ccKXG5jd.s 			page 60


 1544 0056 1160     		str	r1, [r2]
1293:.\Generated_Source\PSoC4/CyLFClk.c ****                 disableServicedIsr  &= ~CY_SYS_WDT_COUNTER1_INT;
 1545              		.loc 1 1293 0
 1546 0058 9969     		ldr	r1, [r3, #24]
 1547 005a 114A     		ldr	r2, .L160+12
 1548 005c 0A40     		and	r2, r1
 1549 005e 9A61     		str	r2, [r3, #24]
1294:.\Generated_Source\PSoC4/CyLFClk.c ****                 if(cySysWdtCallback[CY_SYS_WDT_COUNTER1] != (void *) 0)
 1550              		.loc 1 1294 0
 1551 0060 1B69     		ldr	r3, [r3, #16]
 1552 0062 002B     		cmp	r3, #0
 1553 0064 00D0     		beq	.L157
1296:.\Generated_Source\PSoC4/CyLFClk.c ****                     (void)(cySysWdtCallback[CY_SYS_WDT_COUNTER1])();
 1554              		.loc 1 1296 0
 1555 0066 9847     		blx	r3
 1556              	.LVL151:
 1557              	.L157:
1299:.\Generated_Source\PSoC4/CyLFClk.c ****             CySysWdtClearInterrupt(CY_SYS_WDT_COUNTER1_INT);
 1558              		.loc 1 1299 0
 1559 0068 8020     		mov	r0, #128
 1560 006a C000     		lsl	r0, r0, #3
 1561 006c FFF7FEFF 		bl	CySysWdtClearInterrupt
 1562              	.LVL152:
 1563              	.L156:
1302:.\Generated_Source\PSoC4/CyLFClk.c ****         if(0u != (CY_SYS_WDT_COUNTER2_INT & CY_SYS_WDT_CONTROL_REG))
 1564              		.loc 1 1302 0
 1565 0070 084B     		ldr	r3, .L160
 1566 0072 1B68     		ldr	r3, [r3]
 1567 0074 5A03     		lsl	r2, r3, #13
 1568 0076 0CD5     		bpl	.L153
1304:.\Generated_Source\PSoC4/CyLFClk.c ****             if(0u != (CY_SYS_WDT_COUNTER2_INT & wdtIsrMask))
 1569              		.loc 1 1304 0
 1570 0078 074B     		ldr	r3, .L160+4
 1571 007a 1B68     		ldr	r3, [r3]
 1572 007c 5A03     		lsl	r2, r3, #13
 1573 007e 04D5     		bpl	.L159
1306:.\Generated_Source\PSoC4/CyLFClk.c ****                 if(cySysWdtCallback[CY_SYS_WDT_COUNTER2] != (void *) 0)
 1574              		.loc 1 1306 0
 1575 0080 064B     		ldr	r3, .L160+8
 1576 0082 5B69     		ldr	r3, [r3, #20]
 1577 0084 002B     		cmp	r3, #0
 1578 0086 00D0     		beq	.L159
1308:.\Generated_Source\PSoC4/CyLFClk.c ****                     (void)(cySysWdtCallback[CY_SYS_WDT_COUNTER2])();
 1579              		.loc 1 1308 0
 1580 0088 9847     		blx	r3
 1581              	.LVL153:
 1582              	.L159:
1311:.\Generated_Source\PSoC4/CyLFClk.c ****             CySysWdtClearInterrupt(CY_SYS_WDT_COUNTER2_INT);
 1583              		.loc 1 1311 0
 1584 008a 8020     		mov	r0, #128
 1585 008c C002     		lsl	r0, r0, #11
 1586 008e FFF7FEFF 		bl	CySysWdtClearInterrupt
 1587              	.LVL154:
 1588              	.L153:
1313:.\Generated_Source\PSoC4/CyLFClk.c ****     }
 1589              		.loc 1 1313 0
 1590              		@ sp needed
ARM GAS  C:\Users\mitchell\AppData\Local\Temp\ccKXG5jd.s 			page 61


 1591 0092 10BD     		pop	{r4, pc}
 1592              	.L161:
 1593              		.align	2
 1594              	.L160:
 1595 0094 10020B40 		.word	1074463248
 1596 0098 00000000 		.word	.LANCHOR2
 1597 009c 00000000 		.word	.LANCHOR0
 1598 00a0 FFFBFFFF 		.word	-1025
 1599              		.cfi_endproc
 1600              	.LFE27:
 1601              		.size	CySysWdtIsr, .-CySysWdtIsr
 1602              		.section	.text.CySysTimerDelayUntilMatch,"ax",%progbits
 1603              		.align	2
 1604              		.global	CySysTimerDelayUntilMatch
 1605              		.code	16
 1606              		.thumb_func
 1607              		.type	CySysTimerDelayUntilMatch, %function
 1608              	CySysTimerDelayUntilMatch:
 1609              	.LFB29:
1448:.\Generated_Source\PSoC4/CyLFClk.c ****     {
 1610              		.loc 1 1448 0
 1611              		.cfi_startproc
 1612              	.LVL155:
 1613 0000 70B5     		push	{r4, r5, r6, lr}
 1614              		.cfi_def_cfa_offset 16
 1615              		.cfi_offset 4, -16
 1616              		.cfi_offset 5, -12
 1617              		.cfi_offset 6, -8
 1618              		.cfi_offset 14, -4
 1619 0002 041C     		mov	r4, r0
 1620 0004 0E1C     		mov	r6, r1
 1621 0006 151C     		mov	r5, r2
1451:.\Generated_Source\PSoC4/CyLFClk.c ****         if((counterNum < CY_SYS_WDT_COUNTER2) && (0uL == CySysWdtGetClearOnMatch(counterNum)) && (m
 1622              		.loc 1 1451 0
 1623 0008 0128     		cmp	r0, #1
 1624 000a 23D8     		bhi	.L163
1451:.\Generated_Source\PSoC4/CyLFClk.c ****         if((counterNum < CY_SYS_WDT_COUNTER2) && (0uL == CySysWdtGetClearOnMatch(counterNum)) && (m
 1625              		.loc 1 1451 0 is_stmt 0 discriminator 1
 1626 000c FFF7FEFF 		bl	CySysWdtGetClearOnMatch
 1627              	.LVL156:
 1628 0010 0028     		cmp	r0, #0
 1629 0012 1FD1     		bne	.L163
 1630 0014 114B     		ldr	r3, .L172
 1631 0016 9D42     		cmp	r5, r3
 1632 0018 1CD8     		bhi	.L163
1453:.\Generated_Source\PSoC4/CyLFClk.c ****             if(delayType == CY_SYS_TIMER_WAIT)
 1633              		.loc 1 1453 0 is_stmt 1
 1634 001a 002E     		cmp	r6, #0
 1635 001c 0AD1     		bne	.L164
 1636              	.L169:
1457:.\Generated_Source\PSoC4/CyLFClk.c ****                     tmpValue = CySysWdtGetCount(counterNum);
 1637              		.loc 1 1457 0 discriminator 1
 1638 001e 201C     		mov	r0, r4
 1639 0020 FFF7FEFF 		bl	CySysWdtGetCount
 1640              	.LVL157:
1458:.\Generated_Source\PSoC4/CyLFClk.c ****                 }while(tmpValue > match);
 1641              		.loc 1 1458 0 discriminator 1
ARM GAS  C:\Users\mitchell\AppData\Local\Temp\ccKXG5jd.s 			page 62


 1642 0024 A842     		cmp	r0, r5
 1643 0026 FAD8     		bhi	.L169
 1644              	.L168:
1462:.\Generated_Source\PSoC4/CyLFClk.c ****                     tmpValue = CySysWdtGetCount(counterNum);
 1645              		.loc 1 1462 0 discriminator 1
 1646 0028 201C     		mov	r0, r4
 1647              	.LVL158:
 1648 002a FFF7FEFF 		bl	CySysWdtGetCount
 1649              	.LVL159:
1463:.\Generated_Source\PSoC4/CyLFClk.c ****                 }while(tmpValue < match);
 1650              		.loc 1 1463 0 discriminator 1
 1651 002e A842     		cmp	r0, r5
 1652 0030 FAD3     		bcc	.L168
 1653 0032 12E0     		b	.L162
 1654              	.LVL160:
 1655              	.L164:
1467:.\Generated_Source\PSoC4/CyLFClk.c ****                 tmpValue = counterIntMaskTbl[counterNum];
 1656              		.loc 1 1467 0
 1657 0034 A200     		lsl	r2, r4, #2
 1658 0036 0A4B     		ldr	r3, .L172+4
 1659 0038 D658     		ldr	r6, [r2, r3]
 1660              	.LVL161:
1468:.\Generated_Source\PSoC4/CyLFClk.c ****                 CySysWdtSetMatch(counterNum, match);
 1661              		.loc 1 1468 0
 1662 003a 201C     		mov	r0, r4
 1663 003c 291C     		mov	r1, r5
 1664 003e FFF7FEFF 		bl	CySysWdtSetMatch
 1665              	.LVL162:
1470:.\Generated_Source\PSoC4/CyLFClk.c ****                 disableServicedIsr  |= tmpValue;
 1666              		.loc 1 1470 0
 1667 0042 084B     		ldr	r3, .L172+8
 1668 0044 9A69     		ldr	r2, [r3, #24]
 1669 0046 3243     		orr	r2, r6
 1670 0048 9A61     		str	r2, [r3, #24]
1471:.\Generated_Source\PSoC4/CyLFClk.c ****                 wdtIsrMask |= tmpValue;
 1671              		.loc 1 1471 0
 1672 004a 074B     		ldr	r3, .L172+12
 1673 004c 1A68     		ldr	r2, [r3]
 1674 004e 1643     		orr	r6, r2
 1675              	.LVL163:
 1676 0050 1E60     		str	r6, [r3]
 1677 0052 02E0     		b	.L162
 1678              	.LVL164:
 1679              	.L163:
1476:.\Generated_Source\PSoC4/CyLFClk.c ****             CYASSERT(0u != 0u);
 1680              		.loc 1 1476 0 discriminator 1
 1681 0054 0020     		mov	r0, #0
 1682 0056 FFF7FEFF 		bl	CyHalt
 1683              	.LVL165:
 1684              	.L162:
1478:.\Generated_Source\PSoC4/CyLFClk.c ****     }
 1685              		.loc 1 1478 0
 1686              		@ sp needed
 1687              	.LVL166:
 1688              	.LVL167:
 1689 005a 70BD     		pop	{r4, r5, r6, pc}
 1690              	.L173:
ARM GAS  C:\Users\mitchell\AppData\Local\Temp\ccKXG5jd.s 			page 63


 1691              		.align	2
 1692              	.L172:
 1693 005c FFFF0000 		.word	65535
 1694 0060 00000000 		.word	.LANCHOR1
 1695 0064 00000000 		.word	.LANCHOR0
 1696 0068 00000000 		.word	.LANCHOR2
 1697              		.cfi_endproc
 1698              	.LFE29:
 1699              		.size	CySysTimerDelayUntilMatch, .-CySysTimerDelayUntilMatch
 1700              		.section	.text.CySysTimerDelay,"ax",%progbits
 1701              		.align	2
 1702              		.global	CySysTimerDelay
 1703              		.code	16
 1704              		.thumb_func
 1705              		.type	CySysTimerDelay, %function
 1706              	CySysTimerDelay:
 1707              	.LFB28:
1372:.\Generated_Source\PSoC4/CyLFClk.c ****     {
 1708              		.loc 1 1372 0
 1709              		.cfi_startproc
 1710              	.LVL168:
 1711 0000 70B5     		push	{r4, r5, r6, lr}
 1712              		.cfi_def_cfa_offset 16
 1713              		.cfi_offset 4, -16
 1714              		.cfi_offset 5, -12
 1715              		.cfi_offset 6, -8
 1716              		.cfi_offset 14, -4
 1717 0002 041C     		mov	r4, r0
 1718 0004 0E1C     		mov	r6, r1
 1719 0006 151C     		mov	r5, r2
1376:.\Generated_Source\PSoC4/CyLFClk.c ****         if((counterNum < CY_SYS_WDT_COUNTER2) && (0uL == CySysWdtGetClearOnMatch(counterNum)) && (d
 1720              		.loc 1 1376 0
 1721 0008 0128     		cmp	r0, #1
 1722 000a 11D8     		bhi	.L175
1376:.\Generated_Source\PSoC4/CyLFClk.c ****         if((counterNum < CY_SYS_WDT_COUNTER2) && (0uL == CySysWdtGetClearOnMatch(counterNum)) && (d
 1723              		.loc 1 1376 0 is_stmt 0 discriminator 1
 1724 000c FFF7FEFF 		bl	CySysWdtGetClearOnMatch
 1725              	.LVL169:
 1726 0010 0028     		cmp	r0, #0
 1727 0012 0DD1     		bne	.L175
 1728 0014 084B     		ldr	r3, .L177
 1729 0016 9D42     		cmp	r5, r3
 1730 0018 0AD8     		bhi	.L175
1378:.\Generated_Source\PSoC4/CyLFClk.c ****             regValue   = CySysWdtGetCount(counterNum);
 1731              		.loc 1 1378 0 is_stmt 1
 1732 001a 201C     		mov	r0, r4
 1733 001c FFF7FEFF 		bl	CySysWdtGetCount
 1734              	.LVL170:
1379:.\Generated_Source\PSoC4/CyLFClk.c ****             matchValue = (regValue + delay) & (uint32)UINT16_MAX_VAL;
 1735              		.loc 1 1379 0
 1736 0020 4219     		add	r2, r0, r5
 1737 0022 1204     		lsl	r2, r2, #16
 1738 0024 120C     		lsr	r2, r2, #16
 1739              	.LVL171:
1381:.\Generated_Source\PSoC4/CyLFClk.c ****             CySysTimerDelayUntilMatch(counterNum, delayType, matchValue);
 1740              		.loc 1 1381 0
 1741 0026 201C     		mov	r0, r4
ARM GAS  C:\Users\mitchell\AppData\Local\Temp\ccKXG5jd.s 			page 64


 1742              	.LVL172:
 1743 0028 311C     		mov	r1, r6
 1744 002a FFF7FEFF 		bl	CySysTimerDelayUntilMatch
 1745              	.LVL173:
 1746 002e 02E0     		b	.L174
 1747              	.L175:
1385:.\Generated_Source\PSoC4/CyLFClk.c ****             CYASSERT(0u != 0u);
 1748              		.loc 1 1385 0 discriminator 1
 1749 0030 0020     		mov	r0, #0
 1750 0032 FFF7FEFF 		bl	CyHalt
 1751              	.LVL174:
 1752              	.L174:
1387:.\Generated_Source\PSoC4/CyLFClk.c ****     }
 1753              		.loc 1 1387 0
 1754              		@ sp needed
 1755              	.LVL175:
 1756              	.LVL176:
 1757 0036 70BD     		pop	{r4, r5, r6, pc}
 1758              	.L178:
 1759              		.align	2
 1760              	.L177:
 1761 0038 FFFF0000 		.word	65535
 1762              		.cfi_endproc
 1763              	.LFE28:
 1764              		.size	CySysTimerDelay, .-CySysTimerDelay
 1765              		.section	.text.CySysWatchdogFeed,"ax",%progbits
 1766              		.align	2
 1767              		.global	CySysWatchdogFeed
 1768              		.code	16
 1769              		.thumb_func
 1770              		.type	CySysWatchdogFeed, %function
 1771              	CySysWatchdogFeed:
 1772              	.LFB30:
1501:.\Generated_Source\PSoC4/CyLFClk.c ****     {
 1773              		.loc 1 1501 0
 1774              		.cfi_startproc
 1775              	.LVL177:
 1776 0000 10B5     		push	{r4, lr}
 1777              		.cfi_def_cfa_offset 8
 1778              		.cfi_offset 4, -8
 1779              		.cfi_offset 14, -4
 1780 0002 041E     		sub	r4, r0, #0
1502:.\Generated_Source\PSoC4/CyLFClk.c ****         if(counterNum == CY_SYS_WDT_COUNTER0)
 1781              		.loc 1 1502 0
 1782 0004 13D1     		bne	.L180
1504:.\Generated_Source\PSoC4/CyLFClk.c ****             if(CY_SYS_WDT_MODE_INT_RESET == CySysWdtGetMode(counterNum))
 1783              		.loc 1 1504 0
 1784 0006 FFF7FEFF 		bl	CySysWdtGetMode
 1785              	.LVL178:
 1786 000a 0328     		cmp	r0, #3
 1787 000c 03D1     		bne	.L181
1506:.\Generated_Source\PSoC4/CyLFClk.c ****                 CySysWdtClearInterrupt(CY_SYS_WDT_COUNTER0_MASK);
 1788              		.loc 1 1506 0
 1789 000e 0120     		mov	r0, #1
 1790 0010 FFF7FEFF 		bl	CySysWdtClearInterrupt
 1791              	.LVL179:
 1792 0014 23E0     		b	.L179
ARM GAS  C:\Users\mitchell\AppData\Local\Temp\ccKXG5jd.s 			page 65


 1793              	.L181:
1508:.\Generated_Source\PSoC4/CyLFClk.c ****             else if(CY_SYS_WDT_MODE_RESET == CySysWdtGetMode(counterNum))
 1794              		.loc 1 1508 0
 1795 0016 201C     		mov	r0, r4
 1796 0018 FFF7FEFF 		bl	CySysWdtGetMode
 1797              	.LVL180:
 1798 001c 0228     		cmp	r0, #2
 1799 001e 1ED1     		bne	.L179
1510:.\Generated_Source\PSoC4/CyLFClk.c ****                 CySysWdtResetCounters(CY_SYS_WDT_COUNTER0_RESET);
 1800              		.loc 1 1510 0
 1801 0020 0820     		mov	r0, #8
 1802 0022 FFF7FEFF 		bl	CySysWdtResetCounters
 1803              	.LVL181:
1511:.\Generated_Source\PSoC4/CyLFClk.c ****                 CySysWdtClearInterrupt(CY_SYS_WDT_COUNTER0_MASK);
 1804              		.loc 1 1511 0
 1805 0026 0120     		mov	r0, #1
 1806 0028 FFF7FEFF 		bl	CySysWdtClearInterrupt
 1807              	.LVL182:
 1808 002c 17E0     		b	.L179
 1809              	.LVL183:
 1810              	.L180:
1518:.\Generated_Source\PSoC4/CyLFClk.c ****         else if(counterNum == CY_SYS_WDT_COUNTER1)
 1811              		.loc 1 1518 0
 1812 002e 0128     		cmp	r0, #1
 1813 0030 15D1     		bne	.L179
1520:.\Generated_Source\PSoC4/CyLFClk.c ****             if(CY_SYS_WDT_MODE_INT_RESET == CySysWdtGetMode(counterNum))
 1814              		.loc 1 1520 0
 1815 0032 FFF7FEFF 		bl	CySysWdtGetMode
 1816              	.LVL184:
 1817 0036 0328     		cmp	r0, #3
 1818 0038 04D1     		bne	.L183
1522:.\Generated_Source\PSoC4/CyLFClk.c ****                 CySysWdtClearInterrupt(CY_SYS_WDT_COUNTER1_MASK);
 1819              		.loc 1 1522 0
 1820 003a 8020     		mov	r0, #128
 1821 003c 4000     		lsl	r0, r0, #1
 1822 003e FFF7FEFF 		bl	CySysWdtClearInterrupt
 1823              	.LVL185:
 1824 0042 0CE0     		b	.L179
 1825              	.L183:
1524:.\Generated_Source\PSoC4/CyLFClk.c ****             else if(CY_SYS_WDT_MODE_RESET == CySysWdtGetMode(counterNum))
 1826              		.loc 1 1524 0
 1827 0044 201C     		mov	r0, r4
 1828 0046 FFF7FEFF 		bl	CySysWdtGetMode
 1829              	.LVL186:
 1830 004a 0228     		cmp	r0, #2
 1831 004c 07D1     		bne	.L179
1526:.\Generated_Source\PSoC4/CyLFClk.c ****                 CySysWdtResetCounters(CY_SYS_WDT_COUNTER1_RESET);
 1832              		.loc 1 1526 0
 1833 004e 8020     		mov	r0, #128
 1834 0050 0001     		lsl	r0, r0, #4
 1835 0052 FFF7FEFF 		bl	CySysWdtResetCounters
 1836              	.LVL187:
1527:.\Generated_Source\PSoC4/CyLFClk.c ****                 CySysWdtClearInterrupt(CY_SYS_WDT_COUNTER1_MASK);
 1837              		.loc 1 1527 0
 1838 0056 8020     		mov	r0, #128
 1839 0058 4000     		lsl	r0, r0, #1
 1840 005a FFF7FEFF 		bl	CySysWdtClearInterrupt
ARM GAS  C:\Users\mitchell\AppData\Local\Temp\ccKXG5jd.s 			page 66


 1841              	.LVL188:
 1842              	.L179:
1538:.\Generated_Source\PSoC4/CyLFClk.c ****     }
 1843              		.loc 1 1538 0
 1844              		@ sp needed
 1845              	.LVL189:
 1846 005e 10BD     		pop	{r4, pc}
 1847              		.cfi_endproc
 1848              	.LFE30:
 1849              		.size	CySysWatchdogFeed, .-CySysWatchdogFeed
 1850              		.section	.rodata
 1851              		.align	2
 1852              		.set	.LANCHOR1,. + 0
 1853              		.type	counterIntMaskTbl, %object
 1854              		.size	counterIntMaskTbl, 12
 1855              	counterIntMaskTbl:
 1856 0000 04000000 		.word	4
 1857 0004 00040000 		.word	1024
 1858 0008 00000400 		.word	262144
 1859              		.data
 1860              		.align	2
 1861              		.set	.LANCHOR2,. + 0
 1862              		.type	wdtIsrMask, %object
 1863              		.size	wdtIsrMask, 4
 1864              	wdtIsrMask:
 1865 0000 04040400 		.word	263172
 1866              		.bss
 1867              		.align	2
 1868              		.set	.LANCHOR0,. + 0
 1869              		.type	lfclkPosedgeWdtCounter0Enabled, %object
 1870              		.size	lfclkPosedgeWdtCounter0Enabled, 4
 1871              	lfclkPosedgeWdtCounter0Enabled:
 1872 0000 00000000 		.space	4
 1873              		.type	lfclkPosedgeWdtCounter0Mode, %object
 1874              		.size	lfclkPosedgeWdtCounter0Mode, 4
 1875              	lfclkPosedgeWdtCounter0Mode:
 1876 0004 00000000 		.space	4
 1877              		.type	lfclkPosedgeEnabledWdtCounter.4839, %object
 1878              		.size	lfclkPosedgeEnabledWdtCounter.4839, 4
 1879              	lfclkPosedgeEnabledWdtCounter.4839:
 1880 0008 00000000 		.space	4
 1881              		.type	cySysWdtCallback, %object
 1882              		.size	cySysWdtCallback, 12
 1883              	cySysWdtCallback:
 1884 000c 00000000 		.space	12
 1884      00000000 
 1884      00000000 
 1885              		.type	disableServicedIsr, %object
 1886              		.size	disableServicedIsr, 4
 1887              	disableServicedIsr:
 1888 0018 00000000 		.space	4
 1889              		.text
 1890              	.Letext0:
 1891              		.file 2 ".\\Generated_Source\\PSoC4\\cytypes.h"
 1892              		.file 3 ".\\Generated_Source\\PSoC4\\CyLFClk.h"
 1893              		.file 4 ".\\Generated_Source\\PSoC4\\CyLib.h"