ARM GAS  C:\Users\mitchell\AppData\Local\Temp\ccVCeklk.s 			page 1


   1              		.cpu cortex-m0
   2              		.fpu softvfp
   3              		.eabi_attribute 20, 1
   4              		.eabi_attribute 21, 1
   5              		.eabi_attribute 23, 3
   6              		.eabi_attribute 24, 1
   7              		.eabi_attribute 25, 1
   8              		.eabi_attribute 26, 1
   9              		.eabi_attribute 30, 1
  10              		.eabi_attribute 34, 0
  11              		.eabi_attribute 18, 4
  12              		.code	16
  13              		.file	"cyfitter_cfg.c"
  14              		.text
  15              	.Ltext0:
  16              		.cfi_sections	.debug_frame
  17              		.section	.text.cfg_write_bytes32,"ax",%progbits
  18              		.align	2
  19              		.code	16
  20              		.thumb_func
  21              		.type	cfg_write_bytes32, %function
  22              	cfg_write_bytes32:
  23              	.LFB5:
  24              		.file 1 ".\\Generated_Source\\PSoC4\\cyfitter_cfg.c"
   1:.\Generated_Source\PSoC4/cyfitter_cfg.c **** /*******************************************************************************
   2:.\Generated_Source\PSoC4/cyfitter_cfg.c **** * FILENAME: cyfitter_cfg.c
   3:.\Generated_Source\PSoC4/cyfitter_cfg.c **** * 
   4:.\Generated_Source\PSoC4/cyfitter_cfg.c **** * PSoC Creator  3.2 SP1
   5:.\Generated_Source\PSoC4/cyfitter_cfg.c **** *
   6:.\Generated_Source\PSoC4/cyfitter_cfg.c **** * DESCRIPTION:
   7:.\Generated_Source\PSoC4/cyfitter_cfg.c **** * This file contains device initialization code.
   8:.\Generated_Source\PSoC4/cyfitter_cfg.c **** * Except for the user defined sections in CyClockStartupError(), this file should not be modified.
   9:.\Generated_Source\PSoC4/cyfitter_cfg.c **** * This file is automatically generated by PSoC Creator.
  10:.\Generated_Source\PSoC4/cyfitter_cfg.c **** *
  11:.\Generated_Source\PSoC4/cyfitter_cfg.c **** ********************************************************************************
  12:.\Generated_Source\PSoC4/cyfitter_cfg.c **** * Copyright (c) 2007-2015 Cypress Semiconductor.  All rights reserved.
  13:.\Generated_Source\PSoC4/cyfitter_cfg.c **** * You may use this file only in accordance with the license, terms, conditions, 
  14:.\Generated_Source\PSoC4/cyfitter_cfg.c **** * disclaimers, and limitations in the end user license agreement accompanying 
  15:.\Generated_Source\PSoC4/cyfitter_cfg.c **** * the software package with which this file was provided.
  16:.\Generated_Source\PSoC4/cyfitter_cfg.c **** ********************************************************************************/
  17:.\Generated_Source\PSoC4/cyfitter_cfg.c **** 
  18:.\Generated_Source\PSoC4/cyfitter_cfg.c **** #include <string.h>
  19:.\Generated_Source\PSoC4/cyfitter_cfg.c **** #include "cytypes.h"
  20:.\Generated_Source\PSoC4/cyfitter_cfg.c **** #include "cydevice_trm.h"
  21:.\Generated_Source\PSoC4/cyfitter_cfg.c **** #include "cyfitter.h"
  22:.\Generated_Source\PSoC4/cyfitter_cfg.c **** #include "CyLib.h"
  23:.\Generated_Source\PSoC4/cyfitter_cfg.c **** #include "CyLFClk.h"
  24:.\Generated_Source\PSoC4/cyfitter_cfg.c **** #include "cyfitter_cfg.h"
  25:.\Generated_Source\PSoC4/cyfitter_cfg.c **** 
  26:.\Generated_Source\PSoC4/cyfitter_cfg.c **** 
  27:.\Generated_Source\PSoC4/cyfitter_cfg.c **** #if defined(__GNUC__) || defined(__ARMCC_VERSION)
  28:.\Generated_Source\PSoC4/cyfitter_cfg.c ****     #define CYPACKED 
  29:.\Generated_Source\PSoC4/cyfitter_cfg.c ****     #define CYPACKED_ATTR __attribute__ ((packed))
  30:.\Generated_Source\PSoC4/cyfitter_cfg.c ****     #define CYALIGNED __attribute__ ((aligned))
  31:.\Generated_Source\PSoC4/cyfitter_cfg.c ****     #define CY_CFG_UNUSED __attribute__ ((unused))
  32:.\Generated_Source\PSoC4/cyfitter_cfg.c ****     #define CY_CFG_SECTION __attribute__ ((section(".psocinit")))
  33:.\Generated_Source\PSoC4/cyfitter_cfg.c ****     
ARM GAS  C:\Users\mitchell\AppData\Local\Temp\ccVCeklk.s 			page 2


  34:.\Generated_Source\PSoC4/cyfitter_cfg.c ****     #if defined(__ARMCC_VERSION)
  35:.\Generated_Source\PSoC4/cyfitter_cfg.c ****         #define CY_CFG_MEMORY_BARRIER() __memory_changed()
  36:.\Generated_Source\PSoC4/cyfitter_cfg.c ****     #else
  37:.\Generated_Source\PSoC4/cyfitter_cfg.c ****         #define CY_CFG_MEMORY_BARRIER() __sync_synchronize()
  38:.\Generated_Source\PSoC4/cyfitter_cfg.c ****     #endif
  39:.\Generated_Source\PSoC4/cyfitter_cfg.c ****     
  40:.\Generated_Source\PSoC4/cyfitter_cfg.c **** #elif defined(__ICCARM__)
  41:.\Generated_Source\PSoC4/cyfitter_cfg.c ****     #include <intrinsics.h>
  42:.\Generated_Source\PSoC4/cyfitter_cfg.c **** 
  43:.\Generated_Source\PSoC4/cyfitter_cfg.c ****     #define CYPACKED __packed
  44:.\Generated_Source\PSoC4/cyfitter_cfg.c ****     #define CYPACKED_ATTR 
  45:.\Generated_Source\PSoC4/cyfitter_cfg.c ****     #define CYALIGNED _Pragma("data_alignment=4")
  46:.\Generated_Source\PSoC4/cyfitter_cfg.c ****     #define CY_CFG_UNUSED _Pragma("diag_suppress=Pe177")
  47:.\Generated_Source\PSoC4/cyfitter_cfg.c ****     #define CY_CFG_SECTION _Pragma("location=\".psocinit\"")
  48:.\Generated_Source\PSoC4/cyfitter_cfg.c ****     
  49:.\Generated_Source\PSoC4/cyfitter_cfg.c ****     #define CY_CFG_MEMORY_BARRIER() __DMB()
  50:.\Generated_Source\PSoC4/cyfitter_cfg.c ****     
  51:.\Generated_Source\PSoC4/cyfitter_cfg.c **** #else
  52:.\Generated_Source\PSoC4/cyfitter_cfg.c ****     #error Unsupported toolchain
  53:.\Generated_Source\PSoC4/cyfitter_cfg.c **** #endif
  54:.\Generated_Source\PSoC4/cyfitter_cfg.c **** 
  55:.\Generated_Source\PSoC4/cyfitter_cfg.c **** 
  56:.\Generated_Source\PSoC4/cyfitter_cfg.c **** CY_CFG_UNUSED
  57:.\Generated_Source\PSoC4/cyfitter_cfg.c **** static void CYMEMZERO(void *s, size_t n);
  58:.\Generated_Source\PSoC4/cyfitter_cfg.c **** CY_CFG_UNUSED
  59:.\Generated_Source\PSoC4/cyfitter_cfg.c **** static void CYMEMZERO(void *s, size_t n)
  60:.\Generated_Source\PSoC4/cyfitter_cfg.c **** {
  61:.\Generated_Source\PSoC4/cyfitter_cfg.c **** 	(void)memset(s, 0, n);
  62:.\Generated_Source\PSoC4/cyfitter_cfg.c **** }
  63:.\Generated_Source\PSoC4/cyfitter_cfg.c **** CY_CFG_UNUSED
  64:.\Generated_Source\PSoC4/cyfitter_cfg.c **** static void CYCONFIGCPY(void *dest, const void *src, size_t n);
  65:.\Generated_Source\PSoC4/cyfitter_cfg.c **** CY_CFG_UNUSED
  66:.\Generated_Source\PSoC4/cyfitter_cfg.c **** static void CYCONFIGCPY(void *dest, const void *src, size_t n)
  67:.\Generated_Source\PSoC4/cyfitter_cfg.c **** {
  68:.\Generated_Source\PSoC4/cyfitter_cfg.c **** 	(void)memcpy(dest, src, n);
  69:.\Generated_Source\PSoC4/cyfitter_cfg.c **** }
  70:.\Generated_Source\PSoC4/cyfitter_cfg.c **** CY_CFG_UNUSED
  71:.\Generated_Source\PSoC4/cyfitter_cfg.c **** static void CYCONFIGCPYCODE(void *dest, const void *src, size_t n);
  72:.\Generated_Source\PSoC4/cyfitter_cfg.c **** CY_CFG_UNUSED
  73:.\Generated_Source\PSoC4/cyfitter_cfg.c **** static void CYCONFIGCPYCODE(void *dest, const void *src, size_t n)
  74:.\Generated_Source\PSoC4/cyfitter_cfg.c **** {
  75:.\Generated_Source\PSoC4/cyfitter_cfg.c **** 	(void)memcpy(dest, src, n);
  76:.\Generated_Source\PSoC4/cyfitter_cfg.c **** }
  77:.\Generated_Source\PSoC4/cyfitter_cfg.c **** 
  78:.\Generated_Source\PSoC4/cyfitter_cfg.c **** 
  79:.\Generated_Source\PSoC4/cyfitter_cfg.c **** 
  80:.\Generated_Source\PSoC4/cyfitter_cfg.c **** /* Clock startup error codes                                                   */
  81:.\Generated_Source\PSoC4/cyfitter_cfg.c **** #define CYCLOCKSTART_NO_ERROR    0u
  82:.\Generated_Source\PSoC4/cyfitter_cfg.c **** #define CYCLOCKSTART_XTAL_ERROR  1u
  83:.\Generated_Source\PSoC4/cyfitter_cfg.c **** #define CYCLOCKSTART_32KHZ_ERROR 2u
  84:.\Generated_Source\PSoC4/cyfitter_cfg.c **** #define CYCLOCKSTART_PLL_ERROR   3u
  85:.\Generated_Source\PSoC4/cyfitter_cfg.c **** 
  86:.\Generated_Source\PSoC4/cyfitter_cfg.c **** #ifdef CY_NEED_CYCLOCKSTARTUPERROR
  87:.\Generated_Source\PSoC4/cyfitter_cfg.c **** /*******************************************************************************
  88:.\Generated_Source\PSoC4/cyfitter_cfg.c **** * Function Name: CyClockStartupError
  89:.\Generated_Source\PSoC4/cyfitter_cfg.c **** ********************************************************************************
  90:.\Generated_Source\PSoC4/cyfitter_cfg.c **** * Summary:
ARM GAS  C:\Users\mitchell\AppData\Local\Temp\ccVCeklk.s 			page 3


  91:.\Generated_Source\PSoC4/cyfitter_cfg.c **** *  If an error is encountered during clock configuration (crystal startup error,
  92:.\Generated_Source\PSoC4/cyfitter_cfg.c **** *  PLL lock error, etc.), the system will end up here.  Unless reimplemented by
  93:.\Generated_Source\PSoC4/cyfitter_cfg.c **** *  the customer, this function will stop in an infinite loop.
  94:.\Generated_Source\PSoC4/cyfitter_cfg.c **** *
  95:.\Generated_Source\PSoC4/cyfitter_cfg.c **** * Parameters:
  96:.\Generated_Source\PSoC4/cyfitter_cfg.c **** *   void
  97:.\Generated_Source\PSoC4/cyfitter_cfg.c **** *
  98:.\Generated_Source\PSoC4/cyfitter_cfg.c **** * Return:
  99:.\Generated_Source\PSoC4/cyfitter_cfg.c **** *   void
 100:.\Generated_Source\PSoC4/cyfitter_cfg.c **** *
 101:.\Generated_Source\PSoC4/cyfitter_cfg.c **** *******************************************************************************/
 102:.\Generated_Source\PSoC4/cyfitter_cfg.c **** CY_CFG_UNUSED
 103:.\Generated_Source\PSoC4/cyfitter_cfg.c **** static void CyClockStartupError(uint8 errorCode);
 104:.\Generated_Source\PSoC4/cyfitter_cfg.c **** CY_CFG_UNUSED
 105:.\Generated_Source\PSoC4/cyfitter_cfg.c **** static void CyClockStartupError(uint8 errorCode)
 106:.\Generated_Source\PSoC4/cyfitter_cfg.c **** {
 107:.\Generated_Source\PSoC4/cyfitter_cfg.c ****     /* To remove the compiler warning if errorCode not used.                */
 108:.\Generated_Source\PSoC4/cyfitter_cfg.c ****     errorCode = errorCode;
 109:.\Generated_Source\PSoC4/cyfitter_cfg.c **** 
 110:.\Generated_Source\PSoC4/cyfitter_cfg.c ****     /* `#START CyClockStartupError` */
 111:.\Generated_Source\PSoC4/cyfitter_cfg.c **** 
 112:.\Generated_Source\PSoC4/cyfitter_cfg.c ****     /* If we have a clock startup error (bad MHz crystal, PLL lock, etc.),  */
 113:.\Generated_Source\PSoC4/cyfitter_cfg.c ****     /* we will end up here to allow the customer to implement something to  */
 114:.\Generated_Source\PSoC4/cyfitter_cfg.c ****     /* deal with the clock condition.                                       */
 115:.\Generated_Source\PSoC4/cyfitter_cfg.c **** 
 116:.\Generated_Source\PSoC4/cyfitter_cfg.c ****     /* `#END` */
 117:.\Generated_Source\PSoC4/cyfitter_cfg.c **** 
 118:.\Generated_Source\PSoC4/cyfitter_cfg.c ****     /* If nothing else, stop here since the clocks have not started         */
 119:.\Generated_Source\PSoC4/cyfitter_cfg.c ****     /* correctly.                                                           */
 120:.\Generated_Source\PSoC4/cyfitter_cfg.c ****     while(1) {}
 121:.\Generated_Source\PSoC4/cyfitter_cfg.c **** }
 122:.\Generated_Source\PSoC4/cyfitter_cfg.c **** #endif
 123:.\Generated_Source\PSoC4/cyfitter_cfg.c **** 
 124:.\Generated_Source\PSoC4/cyfitter_cfg.c **** #define CY_CFG_BASE_ADDR_COUNT 5u
 125:.\Generated_Source\PSoC4/cyfitter_cfg.c **** CYPACKED typedef struct
 126:.\Generated_Source\PSoC4/cyfitter_cfg.c **** {
 127:.\Generated_Source\PSoC4/cyfitter_cfg.c **** 	uint8 offset;
 128:.\Generated_Source\PSoC4/cyfitter_cfg.c **** 	uint8 value;
 129:.\Generated_Source\PSoC4/cyfitter_cfg.c **** } CYPACKED_ATTR cy_cfg_addrvalue_t;
 130:.\Generated_Source\PSoC4/cyfitter_cfg.c **** 
 131:.\Generated_Source\PSoC4/cyfitter_cfg.c **** 
 132:.\Generated_Source\PSoC4/cyfitter_cfg.c **** 
 133:.\Generated_Source\PSoC4/cyfitter_cfg.c **** /*******************************************************************************
 134:.\Generated_Source\PSoC4/cyfitter_cfg.c **** * Function Name: cfg_write_bytes32
 135:.\Generated_Source\PSoC4/cyfitter_cfg.c **** ********************************************************************************
 136:.\Generated_Source\PSoC4/cyfitter_cfg.c **** * Summary:
 137:.\Generated_Source\PSoC4/cyfitter_cfg.c **** *  This function is used for setting up the chip configuration areas that
 138:.\Generated_Source\PSoC4/cyfitter_cfg.c **** *  contain relatively sparse data.
 139:.\Generated_Source\PSoC4/cyfitter_cfg.c **** *
 140:.\Generated_Source\PSoC4/cyfitter_cfg.c **** * Parameters:
 141:.\Generated_Source\PSoC4/cyfitter_cfg.c **** *   void
 142:.\Generated_Source\PSoC4/cyfitter_cfg.c **** *
 143:.\Generated_Source\PSoC4/cyfitter_cfg.c **** * Return:
 144:.\Generated_Source\PSoC4/cyfitter_cfg.c **** *   void
 145:.\Generated_Source\PSoC4/cyfitter_cfg.c **** *
 146:.\Generated_Source\PSoC4/cyfitter_cfg.c **** *******************************************************************************/
 147:.\Generated_Source\PSoC4/cyfitter_cfg.c **** static void cfg_write_bytes32(const uint32 addr_table[], const cy_cfg_addrvalue_t data_table[]);
ARM GAS  C:\Users\mitchell\AppData\Local\Temp\ccVCeklk.s 			page 4


 148:.\Generated_Source\PSoC4/cyfitter_cfg.c **** static void cfg_write_bytes32(const uint32 addr_table[], const cy_cfg_addrvalue_t data_table[])
 149:.\Generated_Source\PSoC4/cyfitter_cfg.c **** {
  25              		.loc 1 149 0
  26              		.cfi_startproc
  27              	.LVL0:
  28 0000 F0B5     		push	{r4, r5, r6, r7, lr}
  29              		.cfi_def_cfa_offset 20
  30              		.cfi_offset 4, -20
  31              		.cfi_offset 5, -16
  32              		.cfi_offset 6, -12
  33              		.cfi_offset 7, -8
  34              		.cfi_offset 14, -4
  35              	.LVL1:
 150:.\Generated_Source\PSoC4/cyfitter_cfg.c **** 	/* For 32-bit little-endian architectures */
 151:.\Generated_Source\PSoC4/cyfitter_cfg.c **** 	uint32 i, j = 0u;
  36              		.loc 1 151 0
  37 0002 0022     		mov	r2, #0
 152:.\Generated_Source\PSoC4/cyfitter_cfg.c **** 	for (i = 0u; i < CY_CFG_BASE_ADDR_COUNT; i++)
  38              		.loc 1 152 0
  39 0004 0027     		mov	r7, #0
  40              	.LBB2:
 153:.\Generated_Source\PSoC4/cyfitter_cfg.c **** 	{
 154:.\Generated_Source\PSoC4/cyfitter_cfg.c **** 		uint32 baseAddr = addr_table[i];
 155:.\Generated_Source\PSoC4/cyfitter_cfg.c **** 		uint8 count = (uint8)baseAddr;
 156:.\Generated_Source\PSoC4/cyfitter_cfg.c **** 		baseAddr &= 0xFFFFFF00u;
  41              		.loc 1 156 0
  42 0006 FF23     		mov	r3, #255
  43 0008 9C46     		mov	ip, r3
  44              	.LBE2:
 152:.\Generated_Source\PSoC4/cyfitter_cfg.c **** 	for (i = 0u; i < CY_CFG_BASE_ADDR_COUNT; i++)
  45              		.loc 1 152 0
  46 000a 11E0     		b	.L2
  47              	.LVL2:
  48              	.L5:
  49              	.LBB3:
 154:.\Generated_Source\PSoC4/cyfitter_cfg.c **** 		uint32 baseAddr = addr_table[i];
  50              		.loc 1 154 0
  51 000c BB00     		lsl	r3, r7, #2
  52 000e C658     		ldr	r6, [r0, r3]
  53              	.LVL3:
 155:.\Generated_Source\PSoC4/cyfitter_cfg.c **** 		uint8 count = (uint8)baseAddr;
  54              		.loc 1 155 0
  55 0010 F3B2     		uxtb	r3, r6
  56              	.LVL4:
  57              		.loc 1 156 0
  58 0012 6446     		mov	r4, ip
  59 0014 A643     		bic	r6, r4
  60              	.LVL5:
 157:.\Generated_Source\PSoC4/cyfitter_cfg.c **** 		while (count != 0u)
  61              		.loc 1 157 0
  62 0016 08E0     		b	.L3
  63              	.L4:
 158:.\Generated_Source\PSoC4/cyfitter_cfg.c **** 		{
 159:.\Generated_Source\PSoC4/cyfitter_cfg.c **** 			CY_SET_XTND_REG8((void CYFAR *)(baseAddr + data_table[j].offset), data_table[j].value);
  64              		.loc 1 159 0
  65 0018 5400     		lsl	r4, r2, #1
  66 001a 0C19     		add	r4, r1, r4
ARM GAS  C:\Users\mitchell\AppData\Local\Temp\ccVCeklk.s 			page 5


  67 001c 2578     		ldrb	r5, [r4]
  68 001e AD19     		add	r5, r5, r6
  69 0020 6478     		ldrb	r4, [r4, #1]
  70 0022 2C70     		strb	r4, [r5]
 160:.\Generated_Source\PSoC4/cyfitter_cfg.c **** 			j++;
  71              		.loc 1 160 0
  72 0024 0132     		add	r2, r2, #1
  73              	.LVL6:
 161:.\Generated_Source\PSoC4/cyfitter_cfg.c **** 			count--;
  74              		.loc 1 161 0
  75 0026 013B     		sub	r3, r3, #1
  76              	.LVL7:
  77 0028 DBB2     		uxtb	r3, r3
  78              	.LVL8:
  79              	.L3:
 157:.\Generated_Source\PSoC4/cyfitter_cfg.c **** 		while (count != 0u)
  80              		.loc 1 157 0 discriminator 1
  81 002a 002B     		cmp	r3, #0
  82 002c F4D1     		bne	.L4
  83              	.LBE3:
 152:.\Generated_Source\PSoC4/cyfitter_cfg.c **** 	for (i = 0u; i < CY_CFG_BASE_ADDR_COUNT; i++)
  84              		.loc 1 152 0
  85 002e 0137     		add	r7, r7, #1
  86              	.LVL9:
  87              	.L2:
 152:.\Generated_Source\PSoC4/cyfitter_cfg.c **** 	for (i = 0u; i < CY_CFG_BASE_ADDR_COUNT; i++)
  88              		.loc 1 152 0 is_stmt 0 discriminator 1
  89 0030 042F     		cmp	r7, #4
  90 0032 EBD9     		bls	.L5
 162:.\Generated_Source\PSoC4/cyfitter_cfg.c **** 		}
 163:.\Generated_Source\PSoC4/cyfitter_cfg.c **** 	}
 164:.\Generated_Source\PSoC4/cyfitter_cfg.c **** }
  91              		.loc 1 164 0 is_stmt 1
  92              		@ sp needed
  93              	.LVL10:
  94 0034 F0BD     		pop	{r4, r5, r6, r7, pc}
  95              		.cfi_endproc
  96              	.LFE5:
  97              		.size	cfg_write_bytes32, .-cfg_write_bytes32
  98 0036 C046     		.section	.text.CYMEMZERO,"ax",%progbits
  99              		.align	2
 100              		.code	16
 101              		.thumb_func
 102              		.type	CYMEMZERO, %function
 103              	CYMEMZERO:
 104              	.LFB2:
  60:.\Generated_Source\PSoC4/cyfitter_cfg.c **** {
 105              		.loc 1 60 0
 106              		.cfi_startproc
 107              	.LVL11:
 108 0000 08B5     		push	{r3, lr}
 109              		.cfi_def_cfa_offset 8
 110              		.cfi_offset 3, -8
 111              		.cfi_offset 14, -4
 112 0002 0A1C     		mov	r2, r1
  61:.\Generated_Source\PSoC4/cyfitter_cfg.c **** 	(void)memset(s, 0, n);
 113              		.loc 1 61 0
ARM GAS  C:\Users\mitchell\AppData\Local\Temp\ccVCeklk.s 			page 6


 114 0004 0021     		mov	r1, #0
 115              	.LVL12:
 116 0006 FFF7FEFF 		bl	memset
 117              	.LVL13:
  62:.\Generated_Source\PSoC4/cyfitter_cfg.c **** }
 118              		.loc 1 62 0
 119              		@ sp needed
 120 000a 08BD     		pop	{r3, pc}
 121              		.cfi_endproc
 122              	.LFE2:
 123              		.size	CYMEMZERO, .-CYMEMZERO
 124              		.section	.psocinit,"ax",%progbits
 125              		.align	2
 126              		.code	16
 127              		.thumb_func
 128              		.type	ClockSetup, %function
 129              	ClockSetup:
 130              	.LFB6:
 165:.\Generated_Source\PSoC4/cyfitter_cfg.c **** 
 166:.\Generated_Source\PSoC4/cyfitter_cfg.c **** 
 167:.\Generated_Source\PSoC4/cyfitter_cfg.c **** /*******************************************************************************
 168:.\Generated_Source\PSoC4/cyfitter_cfg.c **** * Function Name: ClockSetup
 169:.\Generated_Source\PSoC4/cyfitter_cfg.c **** ********************************************************************************
 170:.\Generated_Source\PSoC4/cyfitter_cfg.c **** *
 171:.\Generated_Source\PSoC4/cyfitter_cfg.c **** * Summary:
 172:.\Generated_Source\PSoC4/cyfitter_cfg.c **** *   Performs the initialization of all of the clocks in the device based on the
 173:.\Generated_Source\PSoC4/cyfitter_cfg.c **** *   settings in the Clock tab of the DWR.  This includes enabling the requested
 174:.\Generated_Source\PSoC4/cyfitter_cfg.c **** *   clocks and setting the necessary dividers to produce the desired frequency. 
 175:.\Generated_Source\PSoC4/cyfitter_cfg.c **** *
 176:.\Generated_Source\PSoC4/cyfitter_cfg.c **** * Parameters:
 177:.\Generated_Source\PSoC4/cyfitter_cfg.c **** *   void
 178:.\Generated_Source\PSoC4/cyfitter_cfg.c **** *
 179:.\Generated_Source\PSoC4/cyfitter_cfg.c **** * Return:
 180:.\Generated_Source\PSoC4/cyfitter_cfg.c **** *   void
 181:.\Generated_Source\PSoC4/cyfitter_cfg.c **** *
 182:.\Generated_Source\PSoC4/cyfitter_cfg.c **** *******************************************************************************/
 183:.\Generated_Source\PSoC4/cyfitter_cfg.c **** static void ClockSetup(void);
 184:.\Generated_Source\PSoC4/cyfitter_cfg.c **** CY_CFG_SECTION
 185:.\Generated_Source\PSoC4/cyfitter_cfg.c **** static void ClockSetup(void)
 186:.\Generated_Source\PSoC4/cyfitter_cfg.c **** {
 131              		.loc 1 186 0
 132              		.cfi_startproc
 133 0000 38B5     		push	{r3, r4, r5, lr}
 134              		.cfi_def_cfa_offset 16
 135              		.cfi_offset 3, -16
 136              		.cfi_offset 4, -12
 137              		.cfi_offset 5, -8
 138              		.cfi_offset 14, -4
 187:.\Generated_Source\PSoC4/cyfitter_cfg.c **** 
 188:.\Generated_Source\PSoC4/cyfitter_cfg.c **** 	/* Set Flash Cycles based on max possible frequency in case a glitch occurs during ClockSetup(). *
 189:.\Generated_Source\PSoC4/cyfitter_cfg.c **** 	CY_SET_REG32((void CYXDATA *)(CYREG_CPUSS_FLASH_CTL), (0x0012u));
 139              		.loc 1 189 0
 140 0002 1222     		mov	r2, #18
 141 0004 254B     		ldr	r3, .L8
 142 0006 1A60     		str	r2, [r3]
 190:.\Generated_Source\PSoC4/cyfitter_cfg.c **** 
 191:.\Generated_Source\PSoC4/cyfitter_cfg.c **** 	/* Start the WCO */
ARM GAS  C:\Users\mitchell\AppData\Local\Temp\ccVCeklk.s 			page 7


 192:.\Generated_Source\PSoC4/cyfitter_cfg.c **** 	CySysClkWcoStart();
 143              		.loc 1 192 0
 144 0008 FFF7FEFF 		bl	CySysClkWcoStart
 145              	.LVL14:
 193:.\Generated_Source\PSoC4/cyfitter_cfg.c **** 	CyDelayCycles(12000000u); /* WCO may take up to 500ms to start */
 146              		.loc 1 193 0
 147 000c 2448     		ldr	r0, .L8+4
 148 000e FFF7FEFF 		bl	CyDelayCycles
 149              	.LVL15:
 194:.\Generated_Source\PSoC4/cyfitter_cfg.c **** 	(void)CySysClkWcoSetPowerMode(CY_SYS_CLK_WCO_LPM);    /* Switch to the low power mode */
 150              		.loc 1 194 0
 151 0012 0120     		mov	r0, #1
 152 0014 FFF7FEFF 		bl	CySysClkWcoSetPowerMode
 153              	.LVL16:
 195:.\Generated_Source\PSoC4/cyfitter_cfg.c **** 
 196:.\Generated_Source\PSoC4/cyfitter_cfg.c **** 	/* Setup and trim IMO based on desired frequency. */
 197:.\Generated_Source\PSoC4/cyfitter_cfg.c **** 	CySysClkWriteImoFreq(48u);
 154              		.loc 1 197 0
 155 0018 3020     		mov	r0, #48
 156 001a FFF7FEFF 		bl	CySysClkWriteImoFreq
 157              	.LVL17:
 198:.\Generated_Source\PSoC4/cyfitter_cfg.c **** 	/* CYDEV_CLK_ILO_CONFIG Starting address: CYDEV_CLK_ILO_CONFIG */
 199:.\Generated_Source\PSoC4/cyfitter_cfg.c **** 	CY_SET_XTND_REG32((void CYFAR *)(CYREG_CLK_ILO_CONFIG), 0x80000006u);
 158              		.loc 1 199 0
 159 001e 214A     		ldr	r2, .L8+8
 160 0020 214B     		ldr	r3, .L8+12
 161 0022 1A60     		str	r2, [r3]
 200:.\Generated_Source\PSoC4/cyfitter_cfg.c **** 
 201:.\Generated_Source\PSoC4/cyfitter_cfg.c **** 	/* CYDEV_WDT_CONFIG Starting address: CYDEV_WDT_CONFIG */
 202:.\Generated_Source\PSoC4/cyfitter_cfg.c **** 	CY_SET_XTND_REG32((void CYFAR *)(CYREG_WDT_CONFIG), 0x40000000u);
 162              		.loc 1 202 0
 163 0024 214C     		ldr	r4, .L8+16
 164 0026 8025     		mov	r5, #128
 165 0028 ED05     		lsl	r5, r5, #23
 166 002a 2560     		str	r5, [r4]
 203:.\Generated_Source\PSoC4/cyfitter_cfg.c **** 
 204:.\Generated_Source\PSoC4/cyfitter_cfg.c **** 
 205:.\Generated_Source\PSoC4/cyfitter_cfg.c **** 	/* Enable fast start mode for XO */
 206:.\Generated_Source\PSoC4/cyfitter_cfg.c **** 	CY_SET_REG32((void*)CYREG_BLE_BLERD_BB_XO, CY_GET_REG32((void*)CYREG_BLE_BLERD_BB_XO) | (uint32)0x
 167              		.loc 1 206 0
 168 002c 204B     		ldr	r3, .L8+20
 169 002e 1968     		ldr	r1, [r3]
 170 0030 0222     		mov	r2, #2
 171 0032 0A43     		orr	r2, r1
 172 0034 1A60     		str	r2, [r3]
 207:.\Generated_Source\PSoC4/cyfitter_cfg.c **** 	CY_SET_XTND_REG32((void CYFAR *)(CYREG_BLE_BLERD_BB_XO_CAPTRIM), 0x00003E2Du);
 173              		.loc 1 207 0
 174 0036 1F4A     		ldr	r2, .L8+24
 175 0038 1F4B     		ldr	r3, .L8+28
 176 003a 1A60     		str	r2, [r3]
 208:.\Generated_Source\PSoC4/cyfitter_cfg.c **** 	/* Disable Crystal Stable Interrupt before enabling ECO */
 209:.\Generated_Source\PSoC4/cyfitter_cfg.c **** 	CY_SET_REG32((void*)CYREG_BLE_BLESS_LL_DSM_CTRL, CY_GET_REG32((void*)CYREG_BLE_BLESS_LL_DSM_CTRL) 
 177              		.loc 1 209 0
 178 003c 1F4B     		ldr	r3, .L8+32
 179 003e 1A68     		ldr	r2, [r3]
 180 0040 0821     		mov	r1, #8
 181 0042 8A43     		bic	r2, r1
ARM GAS  C:\Users\mitchell\AppData\Local\Temp\ccVCeklk.s 			page 8


 182 0044 1A60     		str	r2, [r3]
 210:.\Generated_Source\PSoC4/cyfitter_cfg.c **** 	/* Start the ECO and do not check status since it is not needed for HFCLK */
 211:.\Generated_Source\PSoC4/cyfitter_cfg.c **** 	(void)CySysClkEcoStart(2000u);
 183              		.loc 1 211 0
 184 0046 FA20     		mov	r0, #250
 185 0048 C000     		lsl	r0, r0, #3
 186 004a FFF7FEFF 		bl	CySysClkEcoStart
 187              	.LVL18:
 212:.\Generated_Source\PSoC4/cyfitter_cfg.c **** 	CyDelayUs(1500u); /* Wait to stabalize */
 188              		.loc 1 212 0
 189 004e 1C48     		ldr	r0, .L8+36
 190 0050 FFF7FEFF 		bl	CyDelayUs
 191              	.LVL19:
 213:.\Generated_Source\PSoC4/cyfitter_cfg.c **** 
 214:.\Generated_Source\PSoC4/cyfitter_cfg.c **** 	/* Setup phase aligned clocks */
 215:.\Generated_Source\PSoC4/cyfitter_cfg.c **** 	CY_SET_REG32((void *)CYREG_PERI_DIV_16_CTL0, 0x00000300u);
 192              		.loc 1 215 0
 193 0054 C022     		mov	r2, #192
 194 0056 9200     		lsl	r2, r2, #2
 195 0058 1A4B     		ldr	r3, .L8+40
 196 005a 1A60     		str	r2, [r3]
 216:.\Generated_Source\PSoC4/cyfitter_cfg.c **** 	CY_SET_REG32((void *)CYREG_PERI_DIV_CMD, 0x8000FF40u);
 197              		.loc 1 216 0
 198 005c 1A4B     		ldr	r3, .L8+44
 199 005e 1B4A     		ldr	r2, .L8+48
 200 0060 1A60     		str	r2, [r3]
 217:.\Generated_Source\PSoC4/cyfitter_cfg.c **** 	CY_SET_REG32((void *)CYREG_PERI_DIV_16_CTL1, 0x00000F00u);
 201              		.loc 1 217 0
 202 0062 F021     		mov	r1, #240
 203 0064 0901     		lsl	r1, r1, #4
 204 0066 1A4A     		ldr	r2, .L8+52
 205 0068 1160     		str	r1, [r2]
 218:.\Generated_Source\PSoC4/cyfitter_cfg.c **** 	CY_SET_REG32((void *)CYREG_PERI_DIV_CMD, 0x8000FF41u);
 206              		.loc 1 218 0
 207 006a 1A4A     		ldr	r2, .L8+56
 208 006c 1A60     		str	r2, [r3]
 219:.\Generated_Source\PSoC4/cyfitter_cfg.c **** 
 220:.\Generated_Source\PSoC4/cyfitter_cfg.c **** 	/* CYDEV_CLK_IMO_CONFIG Starting address: CYDEV_CLK_IMO_CONFIG */
 221:.\Generated_Source\PSoC4/cyfitter_cfg.c **** 	CY_SET_XTND_REG32((void CYFAR *)(CYREG_CLK_IMO_CONFIG), 0x82000000u);
 209              		.loc 1 221 0
 210 006e 8222     		mov	r2, #130
 211 0070 1206     		lsl	r2, r2, #24
 212 0072 194B     		ldr	r3, .L8+60
 213 0074 1A60     		str	r2, [r3]
 222:.\Generated_Source\PSoC4/cyfitter_cfg.c **** 
 223:.\Generated_Source\PSoC4/cyfitter_cfg.c **** 	/* CYDEV_CLK_SELECT Starting address: CYDEV_CLK_SELECT */
 224:.\Generated_Source\PSoC4/cyfitter_cfg.c **** 	CY_SET_XTND_REG32((void CYFAR *)(CYREG_CLK_SELECT), 0x00040000u);
 214              		.loc 1 224 0
 215 0076 8022     		mov	r2, #128
 216 0078 D202     		lsl	r2, r2, #11
 217 007a 184B     		ldr	r3, .L8+64
 218 007c 1A60     		str	r2, [r3]
 225:.\Generated_Source\PSoC4/cyfitter_cfg.c **** 
 226:.\Generated_Source\PSoC4/cyfitter_cfg.c **** 	/* CYDEV_PERI_PCLK_CTL7 Starting address: CYDEV_PERI_PCLK_CTL7 */
 227:.\Generated_Source\PSoC4/cyfitter_cfg.c **** 	CY_SET_XTND_REG32((void CYFAR *)(CYREG_PERI_PCLK_CTL7), 0x00000040u);
 219              		.loc 1 227 0
 220 007e 4022     		mov	r2, #64
ARM GAS  C:\Users\mitchell\AppData\Local\Temp\ccVCeklk.s 			page 9


 221 0080 174B     		ldr	r3, .L8+68
 222 0082 1A60     		str	r2, [r3]
 228:.\Generated_Source\PSoC4/cyfitter_cfg.c **** 
 229:.\Generated_Source\PSoC4/cyfitter_cfg.c **** 	/* CYDEV_PERI_PCLK_CTL6 Starting address: CYDEV_PERI_PCLK_CTL6 */
 230:.\Generated_Source\PSoC4/cyfitter_cfg.c **** 	CY_SET_XTND_REG32((void CYFAR *)(CYREG_PERI_PCLK_CTL6), 0x00000041u);
 223              		.loc 1 230 0
 224 0084 4122     		mov	r2, #65
 225 0086 174B     		ldr	r3, .L8+72
 226 0088 1A60     		str	r2, [r3]
 231:.\Generated_Source\PSoC4/cyfitter_cfg.c **** 
 232:.\Generated_Source\PSoC4/cyfitter_cfg.c **** 	(void)CyIntSetVector(8u, &CySysWdtIsr);
 227              		.loc 1 232 0
 228 008a 0820     		mov	r0, #8
 229 008c 1649     		ldr	r1, .L8+76
 230 008e FFF7FEFF 		bl	CyIntSetVector
 231              	.LVL20:
 233:.\Generated_Source\PSoC4/cyfitter_cfg.c **** 	CyIntEnable(8u);
 232              		.loc 1 233 0
 233 0092 0820     		mov	r0, #8
 234 0094 FFF7FEFF 		bl	CyIntEnable
 235              	.LVL21:
 234:.\Generated_Source\PSoC4/cyfitter_cfg.c **** 	CY_SET_XTND_REG32((void CYFAR *)(CYREG_WDT_CONFIG), 0x40000000u);
 236              		.loc 1 234 0
 237 0098 2560     		str	r5, [r4]
 235:.\Generated_Source\PSoC4/cyfitter_cfg.c **** }
 238              		.loc 1 235 0
 239              		@ sp needed
 240 009a 38BD     		pop	{r3, r4, r5, pc}
 241              	.L9:
 242              		.align	2
 243              	.L8:
 244 009c 30001040 		.word	1074790448
 245 00a0 001BB700 		.word	12000000
 246 00a4 06000080 		.word	-2147483642
 247 00a8 04010B40 		.word	1074462980
 248 00ac 0C020B40 		.word	1074463244
 249 00b0 78002E40 		.word	1076756600
 250 00b4 2D3E0000 		.word	15917
 251 00b8 7C002E40 		.word	1076756604
 252 00bc 6CF02E40 		.word	1076818028
 253 00c0 DC050000 		.word	1500
 254 00c4 00030140 		.word	1073808128
 255 00c8 00000140 		.word	1073807360
 256 00cc 40FF0080 		.word	-2147418304
 257 00d0 04030140 		.word	1073808132
 258 00d4 41FF0080 		.word	-2147418303
 259 00d8 08010B40 		.word	1074462984
 260 00dc 00010B40 		.word	1074462976
 261 00e0 1C010140 		.word	1073807644
 262 00e4 18010140 		.word	1073807640
 263 00e8 00000000 		.word	CySysWdtIsr
 264              		.cfi_endproc
 265              	.LFE6:
 266              		.size	ClockSetup, .-ClockSetup
 267              		.section	.text.SetAnalogRoutingPumps,"ax",%progbits
 268              		.align	2
 269              		.global	SetAnalogRoutingPumps
ARM GAS  C:\Users\mitchell\AppData\Local\Temp\ccVCeklk.s 			page 10


 270              		.code	16
 271              		.thumb_func
 272              		.type	SetAnalogRoutingPumps, %function
 273              	SetAnalogRoutingPumps:
 274              	.LFB8:
 236:.\Generated_Source\PSoC4/cyfitter_cfg.c **** 
 237:.\Generated_Source\PSoC4/cyfitter_cfg.c **** 
 238:.\Generated_Source\PSoC4/cyfitter_cfg.c **** /* Analog API Functions */
 239:.\Generated_Source\PSoC4/cyfitter_cfg.c **** 
 240:.\Generated_Source\PSoC4/cyfitter_cfg.c **** 
 241:.\Generated_Source\PSoC4/cyfitter_cfg.c **** /*******************************************************************************
 242:.\Generated_Source\PSoC4/cyfitter_cfg.c **** * Function Name: AnalogSetDefault
 243:.\Generated_Source\PSoC4/cyfitter_cfg.c **** ********************************************************************************
 244:.\Generated_Source\PSoC4/cyfitter_cfg.c **** *
 245:.\Generated_Source\PSoC4/cyfitter_cfg.c **** * Summary:
 246:.\Generated_Source\PSoC4/cyfitter_cfg.c **** *  Sets up the analog portions of the chip to default values based on chip
 247:.\Generated_Source\PSoC4/cyfitter_cfg.c **** *  configuration options from the project.
 248:.\Generated_Source\PSoC4/cyfitter_cfg.c **** *
 249:.\Generated_Source\PSoC4/cyfitter_cfg.c **** * Parameters:
 250:.\Generated_Source\PSoC4/cyfitter_cfg.c **** *  void
 251:.\Generated_Source\PSoC4/cyfitter_cfg.c **** *
 252:.\Generated_Source\PSoC4/cyfitter_cfg.c **** * Return:
 253:.\Generated_Source\PSoC4/cyfitter_cfg.c **** *  void
 254:.\Generated_Source\PSoC4/cyfitter_cfg.c **** *
 255:.\Generated_Source\PSoC4/cyfitter_cfg.c **** *******************************************************************************/
 256:.\Generated_Source\PSoC4/cyfitter_cfg.c **** static void AnalogSetDefault(void);
 257:.\Generated_Source\PSoC4/cyfitter_cfg.c **** static void AnalogSetDefault(void)
 258:.\Generated_Source\PSoC4/cyfitter_cfg.c **** {
 259:.\Generated_Source\PSoC4/cyfitter_cfg.c **** 	CY_SET_XTND_REG32((void CYFAR *)CYREG_CTBM0_DFT_CTRL, 0x00000003u);
 260:.\Generated_Source\PSoC4/cyfitter_cfg.c **** 	CY_SET_XTND_REG32((void CYFAR *)CYREG_CTBM1_DFT_CTRL, 0x00000003u);
 261:.\Generated_Source\PSoC4/cyfitter_cfg.c **** 	CY_SET_XTND_REG32((void CYFAR *)CYREG_SAR_CTRL, 0x08000000u);
 262:.\Generated_Source\PSoC4/cyfitter_cfg.c **** 	CY_SET_XTND_REG32((void CYFAR *)CYREG_SAR_MUX_SWITCH0, 0x00040000u);
 263:.\Generated_Source\PSoC4/cyfitter_cfg.c **** 	CY_SET_XTND_REG32((void CYFAR *)CYREG_PASS_DSAB_DSAB_CTRL, 0x00000000u);
 264:.\Generated_Source\PSoC4/cyfitter_cfg.c **** 	SetAnalogRoutingPumps(1);
 265:.\Generated_Source\PSoC4/cyfitter_cfg.c **** }
 266:.\Generated_Source\PSoC4/cyfitter_cfg.c **** 
 267:.\Generated_Source\PSoC4/cyfitter_cfg.c **** 
 268:.\Generated_Source\PSoC4/cyfitter_cfg.c **** /*******************************************************************************
 269:.\Generated_Source\PSoC4/cyfitter_cfg.c **** * Function Name: SetAnalogRoutingPumps
 270:.\Generated_Source\PSoC4/cyfitter_cfg.c **** ********************************************************************************
 271:.\Generated_Source\PSoC4/cyfitter_cfg.c **** *
 272:.\Generated_Source\PSoC4/cyfitter_cfg.c **** * Summary:
 273:.\Generated_Source\PSoC4/cyfitter_cfg.c **** * Enables or disables the analog pumps feeding analog routing switches.
 274:.\Generated_Source\PSoC4/cyfitter_cfg.c **** * Intended to be called at startup, based on the Vdda system configuration;
 275:.\Generated_Source\PSoC4/cyfitter_cfg.c **** * may be called during operation when the user informs us that the Vdda voltage crossed the pump th
 276:.\Generated_Source\PSoC4/cyfitter_cfg.c **** *
 277:.\Generated_Source\PSoC4/cyfitter_cfg.c **** * Parameters:
 278:.\Generated_Source\PSoC4/cyfitter_cfg.c **** *  enabled - 1 to enable the pumps, 0 to disable the pumps
 279:.\Generated_Source\PSoC4/cyfitter_cfg.c **** *
 280:.\Generated_Source\PSoC4/cyfitter_cfg.c **** * Return:
 281:.\Generated_Source\PSoC4/cyfitter_cfg.c **** *  void
 282:.\Generated_Source\PSoC4/cyfitter_cfg.c **** *
 283:.\Generated_Source\PSoC4/cyfitter_cfg.c **** *******************************************************************************/
 284:.\Generated_Source\PSoC4/cyfitter_cfg.c **** void SetAnalogRoutingPumps(uint8 enabled)
 285:.\Generated_Source\PSoC4/cyfitter_cfg.c **** {
 275              		.loc 1 285 0
 276              		.cfi_startproc
ARM GAS  C:\Users\mitchell\AppData\Local\Temp\ccVCeklk.s 			page 11


 277              	.LVL22:
 286:.\Generated_Source\PSoC4/cyfitter_cfg.c **** 	uint32 regValue = CY_GET_XTND_REG32((void *)(CYREG_SAR_PUMP_CTRL));
 278              		.loc 1 286 0
 279 0000 064B     		ldr	r3, .L13
 280 0002 1B68     		ldr	r3, [r3]
 281              	.LVL23:
 287:.\Generated_Source\PSoC4/cyfitter_cfg.c **** 	if (enabled != 0u)
 282              		.loc 1 287 0
 283 0004 0028     		cmp	r0, #0
 284 0006 03D0     		beq	.L11
 288:.\Generated_Source\PSoC4/cyfitter_cfg.c **** 	{
 289:.\Generated_Source\PSoC4/cyfitter_cfg.c **** 		regValue |= 0x80000000u;
 285              		.loc 1 289 0
 286 0008 8022     		mov	r2, #128
 287 000a 1206     		lsl	r2, r2, #24
 288 000c 1A43     		orr	r2, r3
 289              	.LVL24:
 290 000e 01E0     		b	.L12
 291              	.LVL25:
 292              	.L11:
 290:.\Generated_Source\PSoC4/cyfitter_cfg.c **** 	}
 291:.\Generated_Source\PSoC4/cyfitter_cfg.c **** 	else
 292:.\Generated_Source\PSoC4/cyfitter_cfg.c **** 	{
 293:.\Generated_Source\PSoC4/cyfitter_cfg.c **** 		regValue &= ~0x80000000u;
 293              		.loc 1 293 0
 294 0010 5A00     		lsl	r2, r3, #1
 295 0012 5208     		lsr	r2, r2, #1
 296              	.LVL26:
 297              	.L12:
 294:.\Generated_Source\PSoC4/cyfitter_cfg.c **** 	}
 295:.\Generated_Source\PSoC4/cyfitter_cfg.c **** 	CY_SET_XTND_REG32((void *)(CYREG_SAR_PUMP_CTRL), regValue);
 298              		.loc 1 295 0
 299 0014 014B     		ldr	r3, .L13
 300 0016 1A60     		str	r2, [r3]
 296:.\Generated_Source\PSoC4/cyfitter_cfg.c **** }
 301              		.loc 1 296 0
 302              		@ sp needed
 303 0018 7047     		bx	lr
 304              	.L14:
 305 001a C046     		.align	2
 306              	.L13:
 307 001c 80033A40 		.word	1077543808
 308              		.cfi_endproc
 309              	.LFE8:
 310              		.size	SetAnalogRoutingPumps, .-SetAnalogRoutingPumps
 311              		.section	.text.AnalogSetDefault,"ax",%progbits
 312              		.align	2
 313              		.code	16
 314              		.thumb_func
 315              		.type	AnalogSetDefault, %function
 316              	AnalogSetDefault:
 317              	.LFB7:
 258:.\Generated_Source\PSoC4/cyfitter_cfg.c **** {
 318              		.loc 1 258 0
 319              		.cfi_startproc
 320 0000 08B5     		push	{r3, lr}
 321              		.cfi_def_cfa_offset 8
ARM GAS  C:\Users\mitchell\AppData\Local\Temp\ccVCeklk.s 			page 12


 322              		.cfi_offset 3, -8
 323              		.cfi_offset 14, -4
 259:.\Generated_Source\PSoC4/cyfitter_cfg.c **** 	CY_SET_XTND_REG32((void CYFAR *)CYREG_CTBM0_DFT_CTRL, 0x00000003u);
 324              		.loc 1 259 0
 325 0002 0323     		mov	r3, #3
 326 0004 094A     		ldr	r2, .L16
 327 0006 1360     		str	r3, [r2]
 260:.\Generated_Source\PSoC4/cyfitter_cfg.c **** 	CY_SET_XTND_REG32((void CYFAR *)CYREG_CTBM1_DFT_CTRL, 0x00000003u);
 328              		.loc 1 260 0
 329 0008 094A     		ldr	r2, .L16+4
 330 000a 1360     		str	r3, [r2]
 261:.\Generated_Source\PSoC4/cyfitter_cfg.c **** 	CY_SET_XTND_REG32((void CYFAR *)CYREG_SAR_CTRL, 0x08000000u);
 331              		.loc 1 261 0
 332 000c 8022     		mov	r2, #128
 333 000e 1205     		lsl	r2, r2, #20
 334 0010 084B     		ldr	r3, .L16+8
 335 0012 1A60     		str	r2, [r3]
 262:.\Generated_Source\PSoC4/cyfitter_cfg.c **** 	CY_SET_XTND_REG32((void CYFAR *)CYREG_SAR_MUX_SWITCH0, 0x00040000u);
 336              		.loc 1 262 0
 337 0014 8022     		mov	r2, #128
 338 0016 D202     		lsl	r2, r2, #11
 339 0018 074B     		ldr	r3, .L16+12
 340 001a 1A60     		str	r2, [r3]
 263:.\Generated_Source\PSoC4/cyfitter_cfg.c **** 	CY_SET_XTND_REG32((void CYFAR *)CYREG_PASS_DSAB_DSAB_CTRL, 0x00000000u);
 341              		.loc 1 263 0
 342 001c 0022     		mov	r2, #0
 343 001e 074B     		ldr	r3, .L16+16
 344 0020 1A60     		str	r2, [r3]
 264:.\Generated_Source\PSoC4/cyfitter_cfg.c **** 	SetAnalogRoutingPumps(1);
 345              		.loc 1 264 0
 346 0022 0120     		mov	r0, #1
 347 0024 FFF7FEFF 		bl	SetAnalogRoutingPumps
 348              	.LVL27:
 265:.\Generated_Source\PSoC4/cyfitter_cfg.c **** }
 349              		.loc 1 265 0
 350              		@ sp needed
 351 0028 08BD     		pop	{r3, pc}
 352              	.L17:
 353 002a C046     		.align	2
 354              	.L16:
 355 002c 30003040 		.word	1076887600
 356 0030 30003140 		.word	1076953136
 357 0034 00003A40 		.word	1077542912
 358 0038 00033A40 		.word	1077543680
 359 003c 000E3F40 		.word	1077874176
 360              		.cfi_endproc
 361              	.LFE7:
 362              		.size	AnalogSetDefault, .-AnalogSetDefault
 363              		.section	.psocinit
 364              		.align	2
 365              		.global	cyfitter_cfg
 366              		.code	16
 367              		.thumb_func
 368              		.type	cyfitter_cfg, %function
 369              	cyfitter_cfg:
 370              	.LFB9:
 297:.\Generated_Source\PSoC4/cyfitter_cfg.c **** 
ARM GAS  C:\Users\mitchell\AppData\Local\Temp\ccVCeklk.s 			page 13


 298:.\Generated_Source\PSoC4/cyfitter_cfg.c **** #define CY_AMUX_UNUSED CYREG_CM0_ROM_DWT
 299:.\Generated_Source\PSoC4/cyfitter_cfg.c **** 
 300:.\Generated_Source\PSoC4/cyfitter_cfg.c **** 
 301:.\Generated_Source\PSoC4/cyfitter_cfg.c **** /*******************************************************************************
 302:.\Generated_Source\PSoC4/cyfitter_cfg.c **** * Function Name: cyfitter_cfg
 303:.\Generated_Source\PSoC4/cyfitter_cfg.c **** ********************************************************************************
 304:.\Generated_Source\PSoC4/cyfitter_cfg.c **** * Summary:
 305:.\Generated_Source\PSoC4/cyfitter_cfg.c **** *  This function is called by the start-up code for the selected device. It
 306:.\Generated_Source\PSoC4/cyfitter_cfg.c **** *  performs all of the necessary device configuration based on the design
 307:.\Generated_Source\PSoC4/cyfitter_cfg.c **** *  settings.  This includes settings from the Design Wide Resources (DWR) such
 308:.\Generated_Source\PSoC4/cyfitter_cfg.c **** *  as Clocks and Pins as well as any component configuration that is necessary.
 309:.\Generated_Source\PSoC4/cyfitter_cfg.c **** *
 310:.\Generated_Source\PSoC4/cyfitter_cfg.c **** * Parameters:  
 311:.\Generated_Source\PSoC4/cyfitter_cfg.c **** *   void
 312:.\Generated_Source\PSoC4/cyfitter_cfg.c **** *
 313:.\Generated_Source\PSoC4/cyfitter_cfg.c **** * Return:
 314:.\Generated_Source\PSoC4/cyfitter_cfg.c **** *   void
 315:.\Generated_Source\PSoC4/cyfitter_cfg.c **** *
 316:.\Generated_Source\PSoC4/cyfitter_cfg.c **** *******************************************************************************/
 317:.\Generated_Source\PSoC4/cyfitter_cfg.c **** CY_CFG_SECTION
 318:.\Generated_Source\PSoC4/cyfitter_cfg.c **** void cyfitter_cfg(void)
 319:.\Generated_Source\PSoC4/cyfitter_cfg.c **** {
 371              		.loc 1 319 0
 372              		.cfi_startproc
 373 00ec 38B5     		push	{r3, r4, r5, lr}
 374              		.cfi_def_cfa_offset 16
 375              		.cfi_offset 3, -16
 376              		.cfi_offset 4, -12
 377              		.cfi_offset 5, -8
 378              		.cfi_offset 14, -4
 320:.\Generated_Source\PSoC4/cyfitter_cfg.c **** 	/* Disable interrupts by default. Let user enable if/when they want. */
 321:.\Generated_Source\PSoC4/cyfitter_cfg.c **** 	CyGlobalIntDisable;
 379              		.loc 1 321 0
 380              	@ 321 ".\Generated_Source\PSoC4\cyfitter_cfg.c" 1
 381 00ee 72B6     		CPSID   i
 382              	@ 0 "" 2
 322:.\Generated_Source\PSoC4/cyfitter_cfg.c **** 
 323:.\Generated_Source\PSoC4/cyfitter_cfg.c **** 	CY_SET_XTND_REG32((void CYFAR *)(CYREG_BLE_BLESS_LL_DSM_CTRL), 0x00000000u);
 383              		.loc 1 323 0
 384              		.code	16
 385 00f0 0022     		mov	r2, #0
 386 00f2 2B4B     		ldr	r3, .L21
 387 00f4 1A60     		str	r2, [r3]
 388              	.LVL28:
 389              	.LBB4:
 324:.\Generated_Source\PSoC4/cyfitter_cfg.c **** 
 325:.\Generated_Source\PSoC4/cyfitter_cfg.c **** 	{
 326:.\Generated_Source\PSoC4/cyfitter_cfg.c **** 		static const uint32 CYCODE cy_cfg_addr_table[] = {
 327:.\Generated_Source\PSoC4/cyfitter_cfg.c **** 			0x400F3004u, /* Base address: 0x400F3000 Count: 4 */
 328:.\Generated_Source\PSoC4/cyfitter_cfg.c **** 			0x400F3101u, /* Base address: 0x400F3100 Count: 1 */
 329:.\Generated_Source\PSoC4/cyfitter_cfg.c **** 			0x400F3301u, /* Base address: 0x400F3300 Count: 1 */
 330:.\Generated_Source\PSoC4/cyfitter_cfg.c **** 			0x400F4204u, /* Base address: 0x400F4200 Count: 4 */
 331:.\Generated_Source\PSoC4/cyfitter_cfg.c **** 			0x400F4305u, /* Base address: 0x400F4300 Count: 5 */
 332:.\Generated_Source\PSoC4/cyfitter_cfg.c **** 		};
 333:.\Generated_Source\PSoC4/cyfitter_cfg.c **** 
 334:.\Generated_Source\PSoC4/cyfitter_cfg.c **** 		static const cy_cfg_addrvalue_t CYCODE cy_cfg_data_table[] = {
 335:.\Generated_Source\PSoC4/cyfitter_cfg.c **** 			{0x36u, 0x01u},
ARM GAS  C:\Users\mitchell\AppData\Local\Temp\ccVCeklk.s 			page 14


 336:.\Generated_Source\PSoC4/cyfitter_cfg.c **** 			{0x3Eu, 0x40u},
 337:.\Generated_Source\PSoC4/cyfitter_cfg.c **** 			{0x58u, 0x04u},
 338:.\Generated_Source\PSoC4/cyfitter_cfg.c **** 			{0x5Fu, 0x01u},
 339:.\Generated_Source\PSoC4/cyfitter_cfg.c **** 			{0x18u, 0x01u},
 340:.\Generated_Source\PSoC4/cyfitter_cfg.c **** 			{0xB4u, 0x01u},
 341:.\Generated_Source\PSoC4/cyfitter_cfg.c **** 			{0x10u, 0x10u},
 342:.\Generated_Source\PSoC4/cyfitter_cfg.c **** 			{0x50u, 0x08u},
 343:.\Generated_Source\PSoC4/cyfitter_cfg.c **** 			{0xC4u, 0x08u},
 344:.\Generated_Source\PSoC4/cyfitter_cfg.c **** 			{0xD4u, 0x04u},
 345:.\Generated_Source\PSoC4/cyfitter_cfg.c **** 			{0x64u, 0x10u},
 346:.\Generated_Source\PSoC4/cyfitter_cfg.c **** 			{0x98u, 0x10u},
 347:.\Generated_Source\PSoC4/cyfitter_cfg.c **** 			{0xB4u, 0x08u},
 348:.\Generated_Source\PSoC4/cyfitter_cfg.c **** 			{0xD8u, 0x01u},
 349:.\Generated_Source\PSoC4/cyfitter_cfg.c **** 			{0xECu, 0x08u},
 350:.\Generated_Source\PSoC4/cyfitter_cfg.c **** 		};
 351:.\Generated_Source\PSoC4/cyfitter_cfg.c **** 
 352:.\Generated_Source\PSoC4/cyfitter_cfg.c **** 
 353:.\Generated_Source\PSoC4/cyfitter_cfg.c **** 
 354:.\Generated_Source\PSoC4/cyfitter_cfg.c **** 		CYPACKED typedef struct {
 355:.\Generated_Source\PSoC4/cyfitter_cfg.c **** 			void CYFAR *address;
 356:.\Generated_Source\PSoC4/cyfitter_cfg.c **** 			uint16 size;
 357:.\Generated_Source\PSoC4/cyfitter_cfg.c **** 		} CYPACKED_ATTR cfg_memset_t;
 358:.\Generated_Source\PSoC4/cyfitter_cfg.c **** 
 359:.\Generated_Source\PSoC4/cyfitter_cfg.c **** 		static const cfg_memset_t CYCODE cfg_memset_list [] = {
 360:.\Generated_Source\PSoC4/cyfitter_cfg.c **** 			/* address, size */
 361:.\Generated_Source\PSoC4/cyfitter_cfg.c **** 			{(void CYFAR *)(CYDEV_UDB_P0_U0_BASE), 1024u},
 362:.\Generated_Source\PSoC4/cyfitter_cfg.c **** 			{(void CYFAR *)(CYDEV_UDB_DSI0_BASE), 1024u},
 363:.\Generated_Source\PSoC4/cyfitter_cfg.c **** 		};
 364:.\Generated_Source\PSoC4/cyfitter_cfg.c **** 
 365:.\Generated_Source\PSoC4/cyfitter_cfg.c **** 		uint8 CYDATA i;
 366:.\Generated_Source\PSoC4/cyfitter_cfg.c **** 
 367:.\Generated_Source\PSoC4/cyfitter_cfg.c **** 		/* Zero out critical memory blocks before beginning configuration */
 368:.\Generated_Source\PSoC4/cyfitter_cfg.c **** 		for (i = 0u; i < (sizeof(cfg_memset_list)/sizeof(cfg_memset_list[0])); i++)
 390              		.loc 1 368 0
 391 00f6 0024     		mov	r4, #0
 392              	.LBB5:
 369:.\Generated_Source\PSoC4/cyfitter_cfg.c **** 		{
 370:.\Generated_Source\PSoC4/cyfitter_cfg.c **** 			const cfg_memset_t CYCODE * CYDATA ms = &cfg_memset_list[i];
 393              		.loc 1 370 0
 394 00f8 2A4D     		ldr	r5, .L21+4
 395              	.LBE5:
 368:.\Generated_Source\PSoC4/cyfitter_cfg.c **** 		for (i = 0u; i < (sizeof(cfg_memset_list)/sizeof(cfg_memset_list[0])); i++)
 396              		.loc 1 368 0
 397 00fa 0CE0     		b	.L19
 398              	.LVL29:
 399              	.L20:
 400              	.LBB6:
 401              		.loc 1 370 0 discriminator 2
 402 00fc 6300     		lsl	r3, r4, #1
 403 00fe 1B19     		add	r3, r3, r4
 404 0100 5B00     		lsl	r3, r3, #1
 405 0102 EB18     		add	r3, r5, r3
 406              	.LVL30:
 371:.\Generated_Source\PSoC4/cyfitter_cfg.c **** 			CYMEMZERO(ms->address, (size_t)(uint32)(ms->size));
 407              		.loc 1 371 0 discriminator 2
 408 0104 9988     		ldrh	r1, [r3, #4]
 409 0106 1A88     		ldrh	r2, [r3]
ARM GAS  C:\Users\mitchell\AppData\Local\Temp\ccVCeklk.s 			page 15


 410 0108 5888     		ldrh	r0, [r3, #2]
 411 010a 0004     		lsl	r0, r0, #16
 412 010c 1043     		orr	r0, r2
 413 010e FFF7FEFF 		bl	CYMEMZERO
 414              	.LVL31:
 415              	.LBE6:
 368:.\Generated_Source\PSoC4/cyfitter_cfg.c **** 		for (i = 0u; i < (sizeof(cfg_memset_list)/sizeof(cfg_memset_list[0])); i++)
 416              		.loc 1 368 0 discriminator 2
 417 0112 0134     		add	r4, r4, #1
 418              	.LVL32:
 419 0114 E4B2     		uxtb	r4, r4
 420              	.LVL33:
 421              	.L19:
 368:.\Generated_Source\PSoC4/cyfitter_cfg.c **** 		for (i = 0u; i < (sizeof(cfg_memset_list)/sizeof(cfg_memset_list[0])); i++)
 422              		.loc 1 368 0 is_stmt 0 discriminator 1
 423 0116 012C     		cmp	r4, #1
 424 0118 F0D9     		bls	.L20
 372:.\Generated_Source\PSoC4/cyfitter_cfg.c **** 		}
 373:.\Generated_Source\PSoC4/cyfitter_cfg.c **** 
 374:.\Generated_Source\PSoC4/cyfitter_cfg.c **** 		cfg_write_bytes32(cy_cfg_addr_table, cy_cfg_data_table);
 425              		.loc 1 374 0 is_stmt 1
 426 011a 2249     		ldr	r1, .L21+4
 427 011c 081C     		mov	r0, r1
 428 011e 0C30     		add	r0, r0, #12
 429 0120 2031     		add	r1, r1, #32
 430 0122 FFF7FEFF 		bl	cfg_write_bytes32
 431              	.LVL34:
 375:.\Generated_Source\PSoC4/cyfitter_cfg.c **** 
 376:.\Generated_Source\PSoC4/cyfitter_cfg.c **** 		/* HSIOM Starting address: CYDEV_HSIOM_BASE */
 377:.\Generated_Source\PSoC4/cyfitter_cfg.c **** 		CY_SET_XTND_REG32((void CYFAR *)(CYDEV_HSIOM_BASE), 0xEE000000u);
 432              		.loc 1 377 0
 433 0126 EE22     		mov	r2, #238
 434 0128 1206     		lsl	r2, r2, #24
 435 012a 1F4B     		ldr	r3, .L21+8
 436 012c 1A60     		str	r2, [r3]
 378:.\Generated_Source\PSoC4/cyfitter_cfg.c **** 		CY_SET_XTND_REG32((void CYFAR *)(CYREG_HSIOM_PORT_SEL2), 0x00000006u);
 437              		.loc 1 378 0
 438 012e 0622     		mov	r2, #6
 439 0130 1E4B     		ldr	r3, .L21+12
 440 0132 1A60     		str	r2, [r3]
 379:.\Generated_Source\PSoC4/cyfitter_cfg.c **** 		CY_SET_XTND_REG32((void CYFAR *)(CYREG_HSIOM_PORT_SEL3), 0x30000000u);
 441              		.loc 1 379 0
 442 0134 C022     		mov	r2, #192
 443 0136 9205     		lsl	r2, r2, #22
 444 0138 1D4B     		ldr	r3, .L21+16
 445 013a 1A60     		str	r2, [r3]
 380:.\Generated_Source\PSoC4/cyfitter_cfg.c **** 
 381:.\Generated_Source\PSoC4/cyfitter_cfg.c **** 		/* UDB_PA_0 Starting address: CYDEV_UDB_PA0_BASE */
 382:.\Generated_Source\PSoC4/cyfitter_cfg.c **** 		CY_SET_XTND_REG32((void CYFAR *)(CYDEV_UDB_PA0_BASE), 0x00990000u);
 446              		.loc 1 382 0
 447 013c 9923     		mov	r3, #153
 448 013e 1B04     		lsl	r3, r3, #16
 449 0140 1C4A     		ldr	r2, .L21+20
 450 0142 1360     		str	r3, [r2]
 383:.\Generated_Source\PSoC4/cyfitter_cfg.c **** 
 384:.\Generated_Source\PSoC4/cyfitter_cfg.c **** 		/* UDB_PA_2 Starting address: CYDEV_UDB_PA2_BASE */
 385:.\Generated_Source\PSoC4/cyfitter_cfg.c **** 		CY_SET_XTND_REG32((void CYFAR *)(CYDEV_UDB_PA2_BASE), 0x00990000u);
ARM GAS  C:\Users\mitchell\AppData\Local\Temp\ccVCeklk.s 			page 16


 451              		.loc 1 385 0
 452 0144 1C4A     		ldr	r2, .L21+24
 453 0146 1360     		str	r3, [r2]
 386:.\Generated_Source\PSoC4/cyfitter_cfg.c **** 
 387:.\Generated_Source\PSoC4/cyfitter_cfg.c **** 		/* UDB_PA_3 Starting address: CYDEV_UDB_PA3_BASE */
 388:.\Generated_Source\PSoC4/cyfitter_cfg.c **** 		CY_SET_XTND_REG32((void CYFAR *)(CYDEV_UDB_PA3_BASE), 0x00990000u);
 454              		.loc 1 388 0
 455 0148 1C4A     		ldr	r2, .L21+28
 456 014a 1360     		str	r3, [r2]
 389:.\Generated_Source\PSoC4/cyfitter_cfg.c **** 		CY_SET_XTND_REG32((void CYFAR *)(CYREG_UDB_PA3_CFG8), 0xC0000000u);
 457              		.loc 1 389 0
 458 014c C022     		mov	r2, #192
 459 014e 1206     		lsl	r2, r2, #24
 460 0150 1B4B     		ldr	r3, .L21+32
 461 0152 1A60     		str	r2, [r3]
 390:.\Generated_Source\PSoC4/cyfitter_cfg.c **** 
 391:.\Generated_Source\PSoC4/cyfitter_cfg.c **** 		/* Enable digital routing */
 392:.\Generated_Source\PSoC4/cyfitter_cfg.c **** 		CY_SET_XTND_REG8((void *)CYREG_UDB_UDBIF_BANK_CTL, CY_GET_XTND_REG8((void *)CYREG_UDB_UDBIF_BANK_
 462              		.loc 1 392 0
 463 0154 1B4B     		ldr	r3, .L21+36
 464 0156 1978     		ldrb	r1, [r3]
 465 0158 0222     		mov	r2, #2
 466 015a 0A43     		orr	r2, r1
 467 015c 1A70     		strb	r2, [r3]
 393:.\Generated_Source\PSoC4/cyfitter_cfg.c **** 
 394:.\Generated_Source\PSoC4/cyfitter_cfg.c **** 		/* Enable UDB array */
 395:.\Generated_Source\PSoC4/cyfitter_cfg.c **** 		CY_SET_XTND_REG8((void *)CYREG_UDB_UDBIF_WAIT_CFG, (uint8)((CY_GET_XTND_REG8((void *)CYREG_UDB_UD
 468              		.loc 1 395 0
 469 015e 1A4A     		ldr	r2, .L21+40
 470 0160 1178     		ldrb	r1, [r2]
 471 0162 3C20     		mov	r0, #60
 472 0164 8143     		bic	r1, r0
 473 0166 1420     		mov	r0, #20
 474 0168 0143     		orr	r1, r0
 475 016a 1170     		strb	r1, [r2]
 396:.\Generated_Source\PSoC4/cyfitter_cfg.c **** 		CY_SET_XTND_REG8((void *)CYREG_UDB_UDBIF_BANK_CTL, (uint8)(CY_GET_XTND_REG8((void *)CYREG_UDB_UDB
 476              		.loc 1 396 0
 477 016c 1978     		ldrb	r1, [r3]
 478 016e 1622     		mov	r2, #22
 479 0170 0A43     		orr	r2, r1
 480 0172 1A70     		strb	r2, [r3]
 481              	.LBE4:
 397:.\Generated_Source\PSoC4/cyfitter_cfg.c **** 	}
 398:.\Generated_Source\PSoC4/cyfitter_cfg.c **** 
 399:.\Generated_Source\PSoC4/cyfitter_cfg.c **** 	/* Perform second pass device configuration. These items must be configured in specific order afte
 400:.\Generated_Source\PSoC4/cyfitter_cfg.c **** 	/* IOPINS0_0 Starting address: CYDEV_GPIO_PRT0_DR */
 401:.\Generated_Source\PSoC4/cyfitter_cfg.c **** 	CY_SET_XTND_REG32((void CYFAR *)(CYREG_GPIO_PRT0_PC), 0x00D80000u);
 482              		.loc 1 401 0
 483 0174 D822     		mov	r2, #216
 484 0176 1204     		lsl	r2, r2, #16
 485 0178 144B     		ldr	r3, .L21+44
 486 017a 1A60     		str	r2, [r3]
 402:.\Generated_Source\PSoC4/cyfitter_cfg.c **** 
 403:.\Generated_Source\PSoC4/cyfitter_cfg.c **** 	/* IOPINS0_2 Starting address: CYDEV_GPIO_PRT2_DR */
 404:.\Generated_Source\PSoC4/cyfitter_cfg.c **** 	CY_SET_XTND_REG32((void CYFAR *)(CYREG_GPIO_PRT2_DR), 0x00000001u);
 487              		.loc 1 404 0
 488 017c 0123     		mov	r3, #1
ARM GAS  C:\Users\mitchell\AppData\Local\Temp\ccVCeklk.s 			page 17


 489 017e 144A     		ldr	r2, .L21+48
 490 0180 1360     		str	r3, [r2]
 405:.\Generated_Source\PSoC4/cyfitter_cfg.c **** 	CY_SET_XTND_REG32((void CYFAR *)(CYREG_GPIO_PRT2_PC2), 0x00000001u);
 491              		.loc 1 405 0
 492 0182 144A     		ldr	r2, .L21+52
 493 0184 1360     		str	r3, [r2]
 406:.\Generated_Source\PSoC4/cyfitter_cfg.c **** 
 407:.\Generated_Source\PSoC4/cyfitter_cfg.c **** 	/* IOPINS0_3 Starting address: CYDEV_GPIO_PRT3_DR */
 408:.\Generated_Source\PSoC4/cyfitter_cfg.c **** 	CY_SET_XTND_REG32((void CYFAR *)(CYREG_GPIO_PRT3_DR), 0x00000080u);
 494              		.loc 1 408 0
 495 0186 8022     		mov	r2, #128
 496 0188 134B     		ldr	r3, .L21+56
 497 018a 1A60     		str	r2, [r3]
 409:.\Generated_Source\PSoC4/cyfitter_cfg.c **** 	CY_SET_XTND_REG32((void CYFAR *)(CYREG_GPIO_PRT3_PC), 0x00C00000u);
 498              		.loc 1 409 0
 499 018c C022     		mov	r2, #192
 500 018e 1204     		lsl	r2, r2, #16
 501 0190 124B     		ldr	r3, .L21+60
 502 0192 1A60     		str	r2, [r3]
 410:.\Generated_Source\PSoC4/cyfitter_cfg.c **** 
 411:.\Generated_Source\PSoC4/cyfitter_cfg.c **** 	/* Setup clocks based on selections from Clock DWR */
 412:.\Generated_Source\PSoC4/cyfitter_cfg.c **** 	ClockSetup();
 503              		.loc 1 412 0
 504 0194 FFF734FF 		bl	ClockSetup
 505              	.LVL35:
 413:.\Generated_Source\PSoC4/cyfitter_cfg.c **** 
 414:.\Generated_Source\PSoC4/cyfitter_cfg.c **** 	/* Perform basic analog initialization to defaults */
 415:.\Generated_Source\PSoC4/cyfitter_cfg.c **** 	AnalogSetDefault();
 506              		.loc 1 415 0
 507 0198 FFF7FEFF 		bl	AnalogSetDefault
 508              	.LVL36:
 416:.\Generated_Source\PSoC4/cyfitter_cfg.c **** 
 417:.\Generated_Source\PSoC4/cyfitter_cfg.c **** }
 509              		.loc 1 417 0
 510              		@ sp needed
 511              	.LVL37:
 512 019c 38BD     		pop	{r3, r4, r5, pc}
 513              	.L22:
 514 019e C046     		.align	2
 515              	.L21:
 516 01a0 6CF02E40 		.word	1076818028
 517 01a4 00000000 		.word	.LANCHOR0
 518 01a8 00000240 		.word	1073872896
 519 01ac 00020240 		.word	1073873408
 520 01b0 00030240 		.word	1073873664
 521 01b4 00500F40 		.word	1074745344
 522 01b8 20500F40 		.word	1074745376
 523 01bc 30500F40 		.word	1074745392
 524 01c0 38500F40 		.word	1074745400
 525 01c4 00700F40 		.word	1074753536
 526 01c8 01700F40 		.word	1074753537
 527 01cc 08000440 		.word	1074003976
 528 01d0 00020440 		.word	1074004480
 529 01d4 18020440 		.word	1074004504
 530 01d8 00030440 		.word	1074004736
 531 01dc 08030440 		.word	1074004744
 532              		.cfi_endproc
ARM GAS  C:\Users\mitchell\AppData\Local\Temp\ccVCeklk.s 			page 18


 533              	.LFE9:
 534              		.size	cyfitter_cfg, .-cyfitter_cfg
 535              		.section	.rodata
 536              		.align	2
 537              		.set	.LANCHOR0,. + 0
 538              		.type	cfg_memset_list.4774, %object
 539              		.size	cfg_memset_list.4774, 12
 540              	cfg_memset_list.4774:
 541 0000 00300F40 		.word	1074737152
 542 0004 0004     		.short	1024
 543 0006 00400F40 		.4byte	1074741248
 544 000a 0004     		.short	1024
 545              		.type	cy_cfg_addr_table.4768, %object
 546              		.size	cy_cfg_addr_table.4768, 20
 547              	cy_cfg_addr_table.4768:
 548 000c 04300F40 		.word	1074737156
 549 0010 01310F40 		.word	1074737409
 550 0014 01330F40 		.word	1074737921
 551 0018 04420F40 		.word	1074741764
 552 001c 05430F40 		.word	1074742021
 553              		.type	cy_cfg_data_table.4769, %object
 554              		.size	cy_cfg_data_table.4769, 30
 555              	cy_cfg_data_table.4769:
 556 0020 36       		.byte	54
 557 0021 01       		.byte	1
 558 0022 3E       		.byte	62
 559 0023 40       		.byte	64
 560 0024 58       		.byte	88
 561 0025 04       		.byte	4
 562 0026 5F       		.byte	95
 563 0027 01       		.byte	1
 564 0028 18       		.byte	24
 565 0029 01       		.byte	1
 566 002a B4       		.byte	-76
 567 002b 01       		.byte	1
 568 002c 10       		.byte	16
 569 002d 10       		.byte	16
 570 002e 50       		.byte	80
 571 002f 08       		.byte	8
 572 0030 C4       		.byte	-60
 573 0031 08       		.byte	8
 574 0032 D4       		.byte	-44
 575 0033 04       		.byte	4
 576 0034 64       		.byte	100
 577 0035 10       		.byte	16
 578 0036 98       		.byte	-104
 579 0037 10       		.byte	16
 580 0038 B4       		.byte	-76
 581 0039 08       		.byte	8
 582 003a D8       		.byte	-40
 583 003b 01       		.byte	1
 584 003c EC       		.byte	-20
 585 003d 08       		.byte	8
 586 003e 0000     		.text
 587              	.Letext0:
 588              		.file 2 "c:\\program files (x86)\\cypress\\psoc creator\\3.2\\psoc creator\\import\\gnu\\arm\\4.8.
 589              		.file 3 ".\\Generated_Source\\PSoC4\\cytypes.h"
ARM GAS  C:\Users\mitchell\AppData\Local\Temp\ccVCeklk.s 			page 19


 590              		.file 4 ".\\Generated_Source\\PSoC4\\CyLib.h"
 591              		.file 5 ".\\Generated_Source\\PSoC4\\CyLFClk.h"