ARM GAS  C:\Users\mitchell\AppData\Local\Temp\ccP08FOF.s 			page 1


   1              		.cpu cortex-m0
   2              		.fpu softvfp
   3              		.eabi_attribute 20, 1
   4              		.eabi_attribute 21, 1
   5              		.eabi_attribute 23, 3
   6              		.eabi_attribute 24, 1
   7              		.eabi_attribute 25, 1
   8              		.eabi_attribute 26, 1
   9              		.eabi_attribute 30, 1
  10              		.eabi_attribute 34, 0
  11              		.eabi_attribute 18, 4
  12              		.code	16
  13              		.file	"CyLFClk.c"
  14              		.text
  15              	.Ltext0:
  16              		.cfi_sections	.debug_frame
  17              		.section	.text.CySysClkIloEnabled,"ax",%progbits
  18              		.align	2
  19              		.code	16
  20              		.thumb_func
  21              		.type	CySysClkIloEnabled, %function
  22              	CySysClkIloEnabled:
  23              	.LFB4:
  24              		.file 1 ".\\Generated_Source\\PSoC4\\CyLFClk.c"
   1:.\Generated_Source\PSoC4/CyLFClk.c **** /*******************************************************************************
   2:.\Generated_Source\PSoC4/CyLFClk.c **** * File Name: .c
   3:.\Generated_Source\PSoC4/CyLFClk.c **** * Version 1.0
   4:.\Generated_Source\PSoC4/CyLFClk.c **** *
   5:.\Generated_Source\PSoC4/CyLFClk.c **** * Description:
   6:.\Generated_Source\PSoC4/CyLFClk.c **** *  This file provides the source code to API for the cy_lfclk Component.
   7:.\Generated_Source\PSoC4/CyLFClk.c **** *
   8:.\Generated_Source\PSoC4/CyLFClk.c **** ********************************************************************************
   9:.\Generated_Source\PSoC4/CyLFClk.c **** * Copyright 2008-2015, Cypress Semiconductor Corporation.  All rights reserved.
  10:.\Generated_Source\PSoC4/CyLFClk.c **** * You may use this file only in accordance with the license, terms, conditions,
  11:.\Generated_Source\PSoC4/CyLFClk.c **** * disclaimers, and limitations in the end user license agreement accompanying
  12:.\Generated_Source\PSoC4/CyLFClk.c **** * the software package with which this file was provided.
  13:.\Generated_Source\PSoC4/CyLFClk.c **** *******************************************************************************/
  14:.\Generated_Source\PSoC4/CyLFClk.c **** 
  15:.\Generated_Source\PSoC4/CyLFClk.c **** 
  16:.\Generated_Source\PSoC4/CyLFClk.c **** #include "CyLFClk.h"
  17:.\Generated_Source\PSoC4/CyLFClk.c **** #include "CyLib.h"
  18:.\Generated_Source\PSoC4/CyLFClk.c **** 
  19:.\Generated_Source\PSoC4/CyLFClk.c **** 
  20:.\Generated_Source\PSoC4/CyLFClk.c **** #if (CY_IP_WCO)
  21:.\Generated_Source\PSoC4/CyLFClk.c ****     static uint32 CySysClkGetLfclkSource(void);
  22:.\Generated_Source\PSoC4/CyLFClk.c **** #endif /* (CY_IP_WCO) */
  23:.\Generated_Source\PSoC4/CyLFClk.c **** 
  24:.\Generated_Source\PSoC4/CyLFClk.c **** #if(CY_IP_SRSSV2)
  25:.\Generated_Source\PSoC4/CyLFClk.c ****     /* CySysClkLfclkPosedgeCatch() / CySysClkLfclkPosedgeRestore() */
  26:.\Generated_Source\PSoC4/CyLFClk.c ****     static uint32 lfclkPosedgeWdtCounter0Enabled = 0u;
  27:.\Generated_Source\PSoC4/CyLFClk.c ****     static uint32 lfclkPosedgeWdtCounter0Mode    = CY_SYS_WDT_MODE_NONE;
  28:.\Generated_Source\PSoC4/CyLFClk.c **** 
  29:.\Generated_Source\PSoC4/CyLFClk.c ****     static volatile uint32 disableServicedIsr = 0uL;
  30:.\Generated_Source\PSoC4/CyLFClk.c ****     static volatile uint32 wdtIsrMask = CY_SYS_WDT_COUNTER0_INT |\
  31:.\Generated_Source\PSoC4/CyLFClk.c ****                                         CY_SYS_WDT_COUNTER1_INT |\
  32:.\Generated_Source\PSoC4/CyLFClk.c ****                                         CY_SYS_WDT_COUNTER2_INT;
  33:.\Generated_Source\PSoC4/CyLFClk.c **** 
ARM GAS  C:\Users\mitchell\AppData\Local\Temp\ccP08FOF.s 			page 2


  34:.\Generated_Source\PSoC4/CyLFClk.c ****     static const uint32 counterIntMaskTbl[CY_WDT_NUM_OF_WDT] = {CY_SYS_WDT_COUNTER0_INT,
  35:.\Generated_Source\PSoC4/CyLFClk.c ****                                                                 CY_SYS_WDT_COUNTER1_INT,
  36:.\Generated_Source\PSoC4/CyLFClk.c ****                                                                 CY_SYS_WDT_COUNTER2_INT};
  37:.\Generated_Source\PSoC4/CyLFClk.c **** 
  38:.\Generated_Source\PSoC4/CyLFClk.c ****     static void CySysClkLfclkPosedgeCatch(void);
  39:.\Generated_Source\PSoC4/CyLFClk.c ****     static void CySysClkLfclkPosedgeRestore(void);
  40:.\Generated_Source\PSoC4/CyLFClk.c **** 
  41:.\Generated_Source\PSoC4/CyLFClk.c ****     static uint32 CySysWdtLocked(void);
  42:.\Generated_Source\PSoC4/CyLFClk.c ****     static uint32 CySysClkIloEnabled(void);
  43:.\Generated_Source\PSoC4/CyLFClk.c **** #endif /* (CY_IP_SRSSV2) */
  44:.\Generated_Source\PSoC4/CyLFClk.c **** 
  45:.\Generated_Source\PSoC4/CyLFClk.c **** #if(CY_IP_SRSSV2)
  46:.\Generated_Source\PSoC4/CyLFClk.c ****     static cyWdtCallback cySysWdtCallback[CY_WDT_NUM_OF_WDT] = {(void *)0, (void *)0, (void *)0};
  47:.\Generated_Source\PSoC4/CyLFClk.c **** #else
  48:.\Generated_Source\PSoC4/CyLFClk.c ****     static cyWdtCallback cySysWdtCallback = (void *)0;
  49:.\Generated_Source\PSoC4/CyLFClk.c **** #endif /* (CY_IP_SRSSV2) */
  50:.\Generated_Source\PSoC4/CyLFClk.c **** 
  51:.\Generated_Source\PSoC4/CyLFClk.c **** /*******************************************************************************
  52:.\Generated_Source\PSoC4/CyLFClk.c **** * Function Name: CySysClkIloStart
  53:.\Generated_Source\PSoC4/CyLFClk.c **** ********************************************************************************
  54:.\Generated_Source\PSoC4/CyLFClk.c **** *
  55:.\Generated_Source\PSoC4/CyLFClk.c **** * Summary:
  56:.\Generated_Source\PSoC4/CyLFClk.c **** *  Enables ILO. Refer to the device datasheet for the ILO startup time.
  57:.\Generated_Source\PSoC4/CyLFClk.c **** *
  58:.\Generated_Source\PSoC4/CyLFClk.c **** * Parameters:
  59:.\Generated_Source\PSoC4/CyLFClk.c **** *  None
  60:.\Generated_Source\PSoC4/CyLFClk.c **** *
  61:.\Generated_Source\PSoC4/CyLFClk.c **** * Return:
  62:.\Generated_Source\PSoC4/CyLFClk.c **** *  None
  63:.\Generated_Source\PSoC4/CyLFClk.c **** *
  64:.\Generated_Source\PSoC4/CyLFClk.c **** *******************************************************************************/
  65:.\Generated_Source\PSoC4/CyLFClk.c **** void CySysClkIloStart(void)
  66:.\Generated_Source\PSoC4/CyLFClk.c **** {
  67:.\Generated_Source\PSoC4/CyLFClk.c ****     CY_SYS_CLK_ILO_CONFIG_REG |= CY_SYS_CLK_ILO_CONFIG_ENABLE;
  68:.\Generated_Source\PSoC4/CyLFClk.c **** }
  69:.\Generated_Source\PSoC4/CyLFClk.c **** 
  70:.\Generated_Source\PSoC4/CyLFClk.c **** 
  71:.\Generated_Source\PSoC4/CyLFClk.c **** /*******************************************************************************
  72:.\Generated_Source\PSoC4/CyLFClk.c **** * Function Name: CySysClkIloStop
  73:.\Generated_Source\PSoC4/CyLFClk.c **** ********************************************************************************
  74:.\Generated_Source\PSoC4/CyLFClk.c **** *
  75:.\Generated_Source\PSoC4/CyLFClk.c **** * Summary:
  76:.\Generated_Source\PSoC4/CyLFClk.c **** *  Disables ILO.
  77:.\Generated_Source\PSoC4/CyLFClk.c **** *
  78:.\Generated_Source\PSoC4/CyLFClk.c **** * Parameters:
  79:.\Generated_Source\PSoC4/CyLFClk.c **** *  None.
  80:.\Generated_Source\PSoC4/CyLFClk.c **** *
  81:.\Generated_Source\PSoC4/CyLFClk.c **** * Return:
  82:.\Generated_Source\PSoC4/CyLFClk.c **** *  None.
  83:.\Generated_Source\PSoC4/CyLFClk.c **** *
  84:.\Generated_Source\PSoC4/CyLFClk.c **** * Side Effects:
  85:.\Generated_Source\PSoC4/CyLFClk.c **** *  This function has no effect if WDT is locked (CySysWdtLock() is
  86:.\Generated_Source\PSoC4/CyLFClk.c **** *  called). Call CySysWdtUnlock() to unlock WDT and stop ILO.
  87:.\Generated_Source\PSoC4/CyLFClk.c **** *
  88:.\Generated_Source\PSoC4/CyLFClk.c **** *  PSoC 4100 / PSoC 4200: Note that ILO is required for WDT's operation.
  89:.\Generated_Source\PSoC4/CyLFClk.c **** *  ILO is required for WDT operation.
  90:.\Generated_Source\PSoC4/CyLFClk.c **** *
ARM GAS  C:\Users\mitchell\AppData\Local\Temp\ccP08FOF.s 			page 3


  91:.\Generated_Source\PSoC4/CyLFClk.c **** *  PSoC 4100-BL / PSoC 4200-BL and PSoC 4100M / PSoC 4200M:
  92:.\Generated_Source\PSoC4/CyLFClk.c **** *  Stopping ILO affects the peripheral clocked by LFCLK, if
  93:.\Generated_Source\PSoC4/CyLFClk.c **** *  LFCLK is configured to be sourced by ILO.
  94:.\Generated_Source\PSoC4/CyLFClk.c **** *
  95:.\Generated_Source\PSoC4/CyLFClk.c **** *******************************************************************************/
  96:.\Generated_Source\PSoC4/CyLFClk.c **** void CySysClkIloStop(void)
  97:.\Generated_Source\PSoC4/CyLFClk.c **** {
  98:.\Generated_Source\PSoC4/CyLFClk.c ****     #if(CY_IP_SRSSV2)
  99:.\Generated_Source\PSoC4/CyLFClk.c ****         uint8  interruptState;
 100:.\Generated_Source\PSoC4/CyLFClk.c **** 
 101:.\Generated_Source\PSoC4/CyLFClk.c ****         /* Do nothing if WDT is locked or ILO is disabled */
 102:.\Generated_Source\PSoC4/CyLFClk.c ****         if (0u == CySysWdtLocked())
 103:.\Generated_Source\PSoC4/CyLFClk.c ****         {
 104:.\Generated_Source\PSoC4/CyLFClk.c ****             if (0u != CySysClkIloEnabled())
 105:.\Generated_Source\PSoC4/CyLFClk.c ****             {
 106:.\Generated_Source\PSoC4/CyLFClk.c **** 
 107:.\Generated_Source\PSoC4/CyLFClk.c ****             #if (CY_IP_WCO)
 108:.\Generated_Source\PSoC4/CyLFClk.c ****                 if (CY_SYS_CLK_LFCLK_SRC_ILO == CySysClkGetLfclkSource())
 109:.\Generated_Source\PSoC4/CyLFClk.c ****                 {
 110:.\Generated_Source\PSoC4/CyLFClk.c ****             #endif /* (CY_IP_WCO) */
 111:.\Generated_Source\PSoC4/CyLFClk.c **** 
 112:.\Generated_Source\PSoC4/CyLFClk.c ****                 interruptState = CyEnterCriticalSection();
 113:.\Generated_Source\PSoC4/CyLFClk.c ****                 CySysClkLfclkPosedgeCatch();
 114:.\Generated_Source\PSoC4/CyLFClk.c ****                 CY_SYS_CLK_ILO_CONFIG_REG &= ( uint32 ) ( ~( uint32 )CY_SYS_CLK_ILO_CONFIG_ENABLE);
 115:.\Generated_Source\PSoC4/CyLFClk.c ****                 CySysClkLfclkPosedgeRestore();
 116:.\Generated_Source\PSoC4/CyLFClk.c ****                 CyExitCriticalSection(interruptState);
 117:.\Generated_Source\PSoC4/CyLFClk.c **** 
 118:.\Generated_Source\PSoC4/CyLFClk.c ****             #if (CY_IP_WCO)
 119:.\Generated_Source\PSoC4/CyLFClk.c ****                 }
 120:.\Generated_Source\PSoC4/CyLFClk.c ****                 else /* Safe to disable - shortened pulse does not impact peripheral */
 121:.\Generated_Source\PSoC4/CyLFClk.c ****                 {
 122:.\Generated_Source\PSoC4/CyLFClk.c ****                     CY_SYS_CLK_ILO_CONFIG_REG &= ( uint32 ) ( ~( uint32 )CY_SYS_CLK_ILO_CONFIG_ENAB
 123:.\Generated_Source\PSoC4/CyLFClk.c ****                 }
 124:.\Generated_Source\PSoC4/CyLFClk.c ****             #endif /* (CY_IP_WCO) */
 125:.\Generated_Source\PSoC4/CyLFClk.c **** 
 126:.\Generated_Source\PSoC4/CyLFClk.c ****             }
 127:.\Generated_Source\PSoC4/CyLFClk.c ****         }
 128:.\Generated_Source\PSoC4/CyLFClk.c ****     #else
 129:.\Generated_Source\PSoC4/CyLFClk.c ****         CY_SYS_CLK_ILO_CONFIG_REG &= ( uint32 ) ( ~( uint32 )CY_SYS_CLK_ILO_CONFIG_ENABLE);
 130:.\Generated_Source\PSoC4/CyLFClk.c ****     #endif /* (CY_IP_SRSSV2) */
 131:.\Generated_Source\PSoC4/CyLFClk.c **** }
 132:.\Generated_Source\PSoC4/CyLFClk.c **** 
 133:.\Generated_Source\PSoC4/CyLFClk.c **** #if(CY_IP_SRSSV2)
 134:.\Generated_Source\PSoC4/CyLFClk.c ****     /*******************************************************************************
 135:.\Generated_Source\PSoC4/CyLFClk.c ****     * Function Name: CySysClkIloEnabled
 136:.\Generated_Source\PSoC4/CyLFClk.c ****     ********************************************************************************
 137:.\Generated_Source\PSoC4/CyLFClk.c ****     *
 138:.\Generated_Source\PSoC4/CyLFClk.c ****     * Summary:
 139:.\Generated_Source\PSoC4/CyLFClk.c ****     *  Reports the ILO enable state.
 140:.\Generated_Source\PSoC4/CyLFClk.c ****     *
 141:.\Generated_Source\PSoC4/CyLFClk.c ****     * Parameters:
 142:.\Generated_Source\PSoC4/CyLFClk.c ****     *  None.
 143:.\Generated_Source\PSoC4/CyLFClk.c ****     *
 144:.\Generated_Source\PSoC4/CyLFClk.c ****     * Return:
 145:.\Generated_Source\PSoC4/CyLFClk.c ****     *  1 if ILO is enabled, and 0 if ILO is disabled.
 146:.\Generated_Source\PSoC4/CyLFClk.c ****     *
 147:.\Generated_Source\PSoC4/CyLFClk.c ****     *******************************************************************************/
ARM GAS  C:\Users\mitchell\AppData\Local\Temp\ccP08FOF.s 			page 4


 148:.\Generated_Source\PSoC4/CyLFClk.c ****     static uint32 CySysClkIloEnabled(void)
 149:.\Generated_Source\PSoC4/CyLFClk.c ****     {
  25              		.loc 1 149 0
  26              		.cfi_startproc
 150:.\Generated_Source\PSoC4/CyLFClk.c ****         /* Prohibits writing to WDT registers and ILO/WCO registers when not equal to 0 */
 151:.\Generated_Source\PSoC4/CyLFClk.c ****         return ((0u != (CY_SYS_CLK_ILO_CONFIG_REG & (uint32)(CY_SYS_CLK_ILO_CONFIG_ENABLE))) ?
  27              		.loc 1 151 0
  28 0000 034B     		ldr	r3, .L4
  29 0002 1B68     		ldr	r3, [r3]
 152:.\Generated_Source\PSoC4/CyLFClk.c ****             (uint32) 1u :
  30              		.loc 1 152 0
  31 0004 002B     		cmp	r3, #0
  32 0006 01DA     		bge	.L3
  33 0008 0120     		mov	r0, #1
  34 000a 00E0     		b	.L2
  35              	.L3:
  36 000c 0020     		mov	r0, #0
  37              	.L2:
 153:.\Generated_Source\PSoC4/CyLFClk.c ****             (uint32) 0u);
 154:.\Generated_Source\PSoC4/CyLFClk.c ****     }
  38              		.loc 1 154 0
  39              		@ sp needed
  40 000e 7047     		bx	lr
  41              	.L5:
  42              		.align	2
  43              	.L4:
  44 0010 04010B40 		.word	1074462980
  45              		.cfi_endproc
  46              	.LFE4:
  47              		.size	CySysClkIloEnabled, .-CySysClkIloEnabled
  48              		.section	.text.CySysClkGetLfclkSource,"ax",%progbits
  49              		.align	2
  50              		.code	16
  51              		.thumb_func
  52              		.type	CySysClkGetLfclkSource, %function
  53              	CySysClkGetLfclkSource:
  54              	.LFB5:
 155:.\Generated_Source\PSoC4/CyLFClk.c **** #endif /* (CY_IP_SRSSV2) */
 156:.\Generated_Source\PSoC4/CyLFClk.c **** 
 157:.\Generated_Source\PSoC4/CyLFClk.c **** 
 158:.\Generated_Source\PSoC4/CyLFClk.c **** /*******************************************************************************
 159:.\Generated_Source\PSoC4/CyLFClk.c **** * Function Name: CySysClkGetLfclkSource
 160:.\Generated_Source\PSoC4/CyLFClk.c **** ********************************************************************************
 161:.\Generated_Source\PSoC4/CyLFClk.c **** *
 162:.\Generated_Source\PSoC4/CyLFClk.c **** * Summary:
 163:.\Generated_Source\PSoC4/CyLFClk.c **** *  Gets the clock source for the LFCLK clock.
 164:.\Generated_Source\PSoC4/CyLFClk.c **** *  The function is applicable only for PSoC 4100-BL and PSoC 4200-BL.
 165:.\Generated_Source\PSoC4/CyLFClk.c **** *
 166:.\Generated_Source\PSoC4/CyLFClk.c **** * Parameters:
 167:.\Generated_Source\PSoC4/CyLFClk.c **** *  None.
 168:.\Generated_Source\PSoC4/CyLFClk.c **** *
 169:.\Generated_Source\PSoC4/CyLFClk.c **** * Return:
 170:.\Generated_Source\PSoC4/CyLFClk.c **** *  The LFCLK source:
 171:.\Generated_Source\PSoC4/CyLFClk.c **** *   CY_SYS_CLK_LFCLK_SRC_ILO    Internal Low Frequency (32 kHz) Oscillator (ILO)
 172:.\Generated_Source\PSoC4/CyLFClk.c **** *   CY_SYS_CLK_LFCLK_SRC_WCO    Low Frequency Watch Crystal Oscillator (WCO)
 173:.\Generated_Source\PSoC4/CyLFClk.c **** *
 174:.\Generated_Source\PSoC4/CyLFClk.c **** *******************************************************************************/
ARM GAS  C:\Users\mitchell\AppData\Local\Temp\ccP08FOF.s 			page 5


 175:.\Generated_Source\PSoC4/CyLFClk.c **** #if (CY_IP_WCO)
 176:.\Generated_Source\PSoC4/CyLFClk.c ****     static uint32 CySysClkGetLfclkSource(void)
 177:.\Generated_Source\PSoC4/CyLFClk.c ****     {
  55              		.loc 1 177 0
  56              		.cfi_startproc
 178:.\Generated_Source\PSoC4/CyLFClk.c ****         uint32 lfclkSource;
 179:.\Generated_Source\PSoC4/CyLFClk.c ****         lfclkSource = CY_SYS_WDT_CONFIG_REG & CY_SYS_CLK_LFCLK_SEL_MASK;
  57              		.loc 1 179 0
  58 0000 024B     		ldr	r3, .L7
  59 0002 1868     		ldr	r0, [r3]
  60 0004 800F     		lsr	r0, r0, #30
  61 0006 8007     		lsl	r0, r0, #30
  62              	.LVL0:
 180:.\Generated_Source\PSoC4/CyLFClk.c ****         return (lfclkSource);
 181:.\Generated_Source\PSoC4/CyLFClk.c ****     }
  63              		.loc 1 181 0
  64              		@ sp needed
  65 0008 7047     		bx	lr
  66              	.L8:
  67 000a C046     		.align	2
  68              	.L7:
  69 000c 0C020B40 		.word	1074463244
  70              		.cfi_endproc
  71              	.LFE5:
  72              		.size	CySysClkGetLfclkSource, .-CySysClkGetLfclkSource
  73              		.section	.text.CySysWdtLocked,"ax",%progbits
  74              		.align	2
  75              		.code	16
  76              		.thumb_func
  77              		.type	CySysWdtLocked, %function
  78              	CySysWdtLocked:
  79              	.LFB12:
 182:.\Generated_Source\PSoC4/CyLFClk.c **** #endif /* (CY_IP_WCO) */
 183:.\Generated_Source\PSoC4/CyLFClk.c **** 
 184:.\Generated_Source\PSoC4/CyLFClk.c **** 
 185:.\Generated_Source\PSoC4/CyLFClk.c **** /*******************************************************************************
 186:.\Generated_Source\PSoC4/CyLFClk.c **** * Function Name: CySysClkSetLfclkSource
 187:.\Generated_Source\PSoC4/CyLFClk.c **** ********************************************************************************
 188:.\Generated_Source\PSoC4/CyLFClk.c **** *
 189:.\Generated_Source\PSoC4/CyLFClk.c **** * Summary:
 190:.\Generated_Source\PSoC4/CyLFClk.c **** *  Sets the clock source for the LFCLK clock.
 191:.\Generated_Source\PSoC4/CyLFClk.c **** *
 192:.\Generated_Source\PSoC4/CyLFClk.c **** *  The switch between LFCLK sources must be done between the positive edges of
 193:.\Generated_Source\PSoC4/CyLFClk.c **** *  LFCLK, because the glitch risk is around the LFCLK positive edge. To ensure
 194:.\Generated_Source\PSoC4/CyLFClk.c **** *  that the switch can be done safely, the WDT counter value is read until it
 195:.\Generated_Source\PSoC4/CyLFClk.c **** *  changes.
 196:.\Generated_Source\PSoC4/CyLFClk.c **** *
 197:.\Generated_Source\PSoC4/CyLFClk.c **** *  That means that the positive edge just finished and the switch is performed.
 198:.\Generated_Source\PSoC4/CyLFClk.c **** *  The enabled WDT counter is used for that purpose. If no counters are enabled,
 199:.\Generated_Source\PSoC4/CyLFClk.c **** *  counter 0 is enabled. And after the LFCLK source is switched, counter 0
 200:.\Generated_Source\PSoC4/CyLFClk.c **** *  configuration is restored.
 201:.\Generated_Source\PSoC4/CyLFClk.c **** *
 202:.\Generated_Source\PSoC4/CyLFClk.c **** *  The function is applicable only for PSoC 4100-BL and PSoC 4200-BL.
 203:.\Generated_Source\PSoC4/CyLFClk.c **** *
 204:.\Generated_Source\PSoC4/CyLFClk.c **** * Parameters:
 205:.\Generated_Source\PSoC4/CyLFClk.c **** *  source: One of the available LFCLK sources.
 206:.\Generated_Source\PSoC4/CyLFClk.c **** *   CY_SYS_CLK_LFCLK_SRC_ILO    Internal Low Frequency (32 kHz) Oscillator (ILO)
ARM GAS  C:\Users\mitchell\AppData\Local\Temp\ccP08FOF.s 			page 6


 207:.\Generated_Source\PSoC4/CyLFClk.c **** *   CY_SYS_CLK_LFCLK_SRC_WCO    Low Frequency Watch Crystal Oscillator (WCO)
 208:.\Generated_Source\PSoC4/CyLFClk.c **** *
 209:.\Generated_Source\PSoC4/CyLFClk.c **** * Return:
 210:.\Generated_Source\PSoC4/CyLFClk.c **** *  None
 211:.\Generated_Source\PSoC4/CyLFClk.c **** *
 212:.\Generated_Source\PSoC4/CyLFClk.c **** * Side Effects:
 213:.\Generated_Source\PSoC4/CyLFClk.c **** *  This function has no effect if WDT is locked (CySysWdtLock() is
 214:.\Generated_Source\PSoC4/CyLFClk.c **** *  called). Call CySysWdtUnlock() to unlock WDT.
 215:.\Generated_Source\PSoC4/CyLFClk.c **** *
 216:.\Generated_Source\PSoC4/CyLFClk.c **** *  Both the current source and the new source must be running and stable before
 217:.\Generated_Source\PSoC4/CyLFClk.c **** *  calling this function.
 218:.\Generated_Source\PSoC4/CyLFClk.c **** *
 219:.\Generated_Source\PSoC4/CyLFClk.c **** *  Changing the LFCLK clock source may change the LFCLK clock frequency and
 220:.\Generated_Source\PSoC4/CyLFClk.c **** *  affect the functionality that uses this clock. For example, watchdog timer
 221:.\Generated_Source\PSoC4/CyLFClk.c **** *  "uses this clock" or "this clock uses" (WDT) is clocked by LFCLK.
 222:.\Generated_Source\PSoC4/CyLFClk.c **** *
 223:.\Generated_Source\PSoC4/CyLFClk.c **** *******************************************************************************/
 224:.\Generated_Source\PSoC4/CyLFClk.c **** #if (CY_IP_WCO)
 225:.\Generated_Source\PSoC4/CyLFClk.c ****     void CySysClkSetLfclkSource(uint32 source)
 226:.\Generated_Source\PSoC4/CyLFClk.c ****     {
 227:.\Generated_Source\PSoC4/CyLFClk.c ****         uint8  interruptState;
 228:.\Generated_Source\PSoC4/CyLFClk.c **** 
 229:.\Generated_Source\PSoC4/CyLFClk.c ****         if (CySysClkGetLfclkSource() != source)
 230:.\Generated_Source\PSoC4/CyLFClk.c ****         {
 231:.\Generated_Source\PSoC4/CyLFClk.c ****             interruptState = CyEnterCriticalSection();
 232:.\Generated_Source\PSoC4/CyLFClk.c **** 
 233:.\Generated_Source\PSoC4/CyLFClk.c ****             CySysClkLfclkPosedgeCatch();
 234:.\Generated_Source\PSoC4/CyLFClk.c **** 
 235:.\Generated_Source\PSoC4/CyLFClk.c ****             CY_SYS_WDT_CONFIG_REG = (CY_SYS_WDT_CONFIG_REG & (uint32)(~CY_SYS_CLK_LFCLK_SEL_MASK)) 
 236:.\Generated_Source\PSoC4/CyLFClk.c ****                                     (source & CY_SYS_CLK_LFCLK_SEL_MASK);
 237:.\Generated_Source\PSoC4/CyLFClk.c **** 
 238:.\Generated_Source\PSoC4/CyLFClk.c ****             CySysClkLfclkPosedgeRestore();
 239:.\Generated_Source\PSoC4/CyLFClk.c **** 
 240:.\Generated_Source\PSoC4/CyLFClk.c ****             CyExitCriticalSection(interruptState);
 241:.\Generated_Source\PSoC4/CyLFClk.c ****         }
 242:.\Generated_Source\PSoC4/CyLFClk.c ****     }
 243:.\Generated_Source\PSoC4/CyLFClk.c **** #endif /* (CY_IP_WCO) */
 244:.\Generated_Source\PSoC4/CyLFClk.c **** 
 245:.\Generated_Source\PSoC4/CyLFClk.c **** 
 246:.\Generated_Source\PSoC4/CyLFClk.c **** #if (CY_IP_WCO)
 247:.\Generated_Source\PSoC4/CyLFClk.c ****     /*******************************************************************************
 248:.\Generated_Source\PSoC4/CyLFClk.c ****     * Function Name: CySysClkWcoStart
 249:.\Generated_Source\PSoC4/CyLFClk.c ****     ********************************************************************************
 250:.\Generated_Source\PSoC4/CyLFClk.c ****     *
 251:.\Generated_Source\PSoC4/CyLFClk.c ****     * Summary:
 252:.\Generated_Source\PSoC4/CyLFClk.c ****     *  Enables Watch Crystal Oscillator (WCO). WCO is used as a source for
 253:.\Generated_Source\PSoC4/CyLFClk.c ****     *  LFCLK.  Similar to ILO, WCO is also available in all modes except Hibernate
 254:.\Generated_Source\PSoC4/CyLFClk.c ****     *  and Stop modes.
 255:.\Generated_Source\PSoC4/CyLFClk.c ****     *
 256:.\Generated_Source\PSoC4/CyLFClk.c ****     *  WCO is always enabled in High Power Mode (HPM). Refer to the device
 257:.\Generated_Source\PSoC4/CyLFClk.c ****     *  datasheet for the  WCO startup time. Once WCO becomes stable it can be
 258:.\Generated_Source\PSoC4/CyLFClk.c ****     *  switched to Low Power Mode (LPM). Note that oscillator can be unstable
 259:.\Generated_Source\PSoC4/CyLFClk.c ****     *  during a switch and hence its output should not be used at that moment.
 260:.\Generated_Source\PSoC4/CyLFClk.c ****     *
 261:.\Generated_Source\PSoC4/CyLFClk.c ****     *  The CySysClkWcoSetPowerMode() function configures the WCO power mode.
 262:.\Generated_Source\PSoC4/CyLFClk.c ****     *
 263:.\Generated_Source\PSoC4/CyLFClk.c ****     * Parameters:
ARM GAS  C:\Users\mitchell\AppData\Local\Temp\ccP08FOF.s 			page 7


 264:.\Generated_Source\PSoC4/CyLFClk.c ****     *  None.
 265:.\Generated_Source\PSoC4/CyLFClk.c ****     *
 266:.\Generated_Source\PSoC4/CyLFClk.c ****     * Return:
 267:.\Generated_Source\PSoC4/CyLFClk.c ****     *  None.
 268:.\Generated_Source\PSoC4/CyLFClk.c ****     *
 269:.\Generated_Source\PSoC4/CyLFClk.c ****     *******************************************************************************/
 270:.\Generated_Source\PSoC4/CyLFClk.c ****     void CySysClkWcoStart(void)
 271:.\Generated_Source\PSoC4/CyLFClk.c ****     {
 272:.\Generated_Source\PSoC4/CyLFClk.c ****         CySysClkWcoSetHighPowerMode();
 273:.\Generated_Source\PSoC4/CyLFClk.c ****         CY_SYS_CLK_WCO_CONFIG_REG |= CY_SYS_CLK_WCO_CONFIG_LPM_ENABLE;
 274:.\Generated_Source\PSoC4/CyLFClk.c ****     }
 275:.\Generated_Source\PSoC4/CyLFClk.c **** 
 276:.\Generated_Source\PSoC4/CyLFClk.c **** 
 277:.\Generated_Source\PSoC4/CyLFClk.c ****     /*******************************************************************************
 278:.\Generated_Source\PSoC4/CyLFClk.c ****     * Function Name: CySysClkWcoStop
 279:.\Generated_Source\PSoC4/CyLFClk.c ****     ********************************************************************************
 280:.\Generated_Source\PSoC4/CyLFClk.c ****     *
 281:.\Generated_Source\PSoC4/CyLFClk.c ****     * Summary:
 282:.\Generated_Source\PSoC4/CyLFClk.c ****     *  Disables the 32KHz Crystal Oscillator.
 283:.\Generated_Source\PSoC4/CyLFClk.c ****     *
 284:.\Generated_Source\PSoC4/CyLFClk.c ****     * Parameters:
 285:.\Generated_Source\PSoC4/CyLFClk.c ****     *  None.
 286:.\Generated_Source\PSoC4/CyLFClk.c ****     *
 287:.\Generated_Source\PSoC4/CyLFClk.c ****     * Return:
 288:.\Generated_Source\PSoC4/CyLFClk.c ****     *  None.
 289:.\Generated_Source\PSoC4/CyLFClk.c ****     *
 290:.\Generated_Source\PSoC4/CyLFClk.c ****     *******************************************************************************/
 291:.\Generated_Source\PSoC4/CyLFClk.c ****     void  CySysClkWcoStop(void)
 292:.\Generated_Source\PSoC4/CyLFClk.c ****     {
 293:.\Generated_Source\PSoC4/CyLFClk.c ****         uint8  interruptState;
 294:.\Generated_Source\PSoC4/CyLFClk.c **** 
 295:.\Generated_Source\PSoC4/CyLFClk.c ****         if (0u != CySysClkWcoEnabled())
 296:.\Generated_Source\PSoC4/CyLFClk.c ****         {
 297:.\Generated_Source\PSoC4/CyLFClk.c **** 
 298:.\Generated_Source\PSoC4/CyLFClk.c ****             if (CY_SYS_CLK_LFCLK_SRC_WCO == CySysClkGetLfclkSource())
 299:.\Generated_Source\PSoC4/CyLFClk.c ****             {
 300:.\Generated_Source\PSoC4/CyLFClk.c ****                 interruptState = CyEnterCriticalSection();
 301:.\Generated_Source\PSoC4/CyLFClk.c ****                 CySysClkLfclkPosedgeCatch();
 302:.\Generated_Source\PSoC4/CyLFClk.c ****                 CY_SYS_CLK_WCO_CONFIG_REG &= (uint32) ~CY_SYS_CLK_WCO_CONFIG_LPM_ENABLE;
 303:.\Generated_Source\PSoC4/CyLFClk.c ****                 CySysClkLfclkPosedgeRestore();
 304:.\Generated_Source\PSoC4/CyLFClk.c ****                 CyExitCriticalSection(interruptState);
 305:.\Generated_Source\PSoC4/CyLFClk.c ****             }
 306:.\Generated_Source\PSoC4/CyLFClk.c ****             else /* Safe to disable - shortened pulse does not impact peripheral */
 307:.\Generated_Source\PSoC4/CyLFClk.c ****             {
 308:.\Generated_Source\PSoC4/CyLFClk.c ****                 CY_SYS_CLK_WCO_CONFIG_REG &= (uint32) ~CY_SYS_CLK_WCO_CONFIG_LPM_ENABLE;
 309:.\Generated_Source\PSoC4/CyLFClk.c ****             }
 310:.\Generated_Source\PSoC4/CyLFClk.c ****         } /* Otherwise do nothing. WCO configuration cannot be changed. */
 311:.\Generated_Source\PSoC4/CyLFClk.c ****     }
 312:.\Generated_Source\PSoC4/CyLFClk.c **** 
 313:.\Generated_Source\PSoC4/CyLFClk.c **** 
 314:.\Generated_Source\PSoC4/CyLFClk.c ****     /*******************************************************************************
 315:.\Generated_Source\PSoC4/CyLFClk.c ****     * Function Name: CySysClkWcoEnabled
 316:.\Generated_Source\PSoC4/CyLFClk.c ****     ********************************************************************************
 317:.\Generated_Source\PSoC4/CyLFClk.c ****     *
 318:.\Generated_Source\PSoC4/CyLFClk.c ****     * Summary:
 319:.\Generated_Source\PSoC4/CyLFClk.c ****     *  Reports the WCO enable state.
 320:.\Generated_Source\PSoC4/CyLFClk.c ****     *
ARM GAS  C:\Users\mitchell\AppData\Local\Temp\ccP08FOF.s 			page 8


 321:.\Generated_Source\PSoC4/CyLFClk.c ****     * Parameters:
 322:.\Generated_Source\PSoC4/CyLFClk.c ****     *  None.
 323:.\Generated_Source\PSoC4/CyLFClk.c ****     *
 324:.\Generated_Source\PSoC4/CyLFClk.c ****     * Return:
 325:.\Generated_Source\PSoC4/CyLFClk.c ****     *  1 if WCO is enabled, and 0 if WCO is disabled.
 326:.\Generated_Source\PSoC4/CyLFClk.c ****     *
 327:.\Generated_Source\PSoC4/CyLFClk.c ****     *******************************************************************************/
 328:.\Generated_Source\PSoC4/CyLFClk.c ****     uint32 CySysClkWcoEnabled(void)
 329:.\Generated_Source\PSoC4/CyLFClk.c ****     {
 330:.\Generated_Source\PSoC4/CyLFClk.c ****         return ((0u != (CY_SYS_CLK_WCO_CONFIG_REG & (uint32)(CY_SYS_CLK_WCO_CONFIG_LPM_ENABLE))) ?
 331:.\Generated_Source\PSoC4/CyLFClk.c ****                 (uint32) 1u :
 332:.\Generated_Source\PSoC4/CyLFClk.c ****                 (uint32) 0u);
 333:.\Generated_Source\PSoC4/CyLFClk.c ****     }
 334:.\Generated_Source\PSoC4/CyLFClk.c **** 
 335:.\Generated_Source\PSoC4/CyLFClk.c **** 
 336:.\Generated_Source\PSoC4/CyLFClk.c ****     /*******************************************************************************
 337:.\Generated_Source\PSoC4/CyLFClk.c ****     * Function Name: CySysClkWcoSetPowerMode
 338:.\Generated_Source\PSoC4/CyLFClk.c ****     ********************************************************************************
 339:.\Generated_Source\PSoC4/CyLFClk.c ****     *
 340:.\Generated_Source\PSoC4/CyLFClk.c ****     * Summary:
 341:.\Generated_Source\PSoC4/CyLFClk.c ****     *  Sets the power mode for the 32 KHz WCO.
 342:.\Generated_Source\PSoC4/CyLFClk.c ****     *
 343:.\Generated_Source\PSoC4/CyLFClk.c ****     * Parameters:
 344:.\Generated_Source\PSoC4/CyLFClk.c ****     *  uint32 mode:
 345:.\Generated_Source\PSoC4/CyLFClk.c ****     *   CY_SYS_CLK_WCO_HPM  - The High Power mode
 346:.\Generated_Source\PSoC4/CyLFClk.c ****     *   CY_SYS_CLK_WCO_LPM  - The Low Power mode(not applicable for
 347:.\Generated_Source\PSoC4/CyLFClk.c ****     *                         PSoC 4100M / PSoC 4200M devices)
 348:.\Generated_Source\PSoC4/CyLFClk.c ****     *
 349:.\Generated_Source\PSoC4/CyLFClk.c ****     * Return:
 350:.\Generated_Source\PSoC4/CyLFClk.c ****     *  A previous power mode. The same as the parameters.
 351:.\Generated_Source\PSoC4/CyLFClk.c ****     *
 352:.\Generated_Source\PSoC4/CyLFClk.c ****     * Note:
 353:.\Generated_Source\PSoC4/CyLFClk.c ****     *  The WCO Low power mode is not applicable for the PSoC 4100M/PSoC 4200M
 354:.\Generated_Source\PSoC4/CyLFClk.c ****     *  devices.
 355:.\Generated_Source\PSoC4/CyLFClk.c ****     *
 356:.\Generated_Source\PSoC4/CyLFClk.c ****     *******************************************************************************/
 357:.\Generated_Source\PSoC4/CyLFClk.c ****     uint32 CySysClkWcoSetPowerMode(uint32 mode)
 358:.\Generated_Source\PSoC4/CyLFClk.c ****     {
 359:.\Generated_Source\PSoC4/CyLFClk.c ****         uint32 status;
 360:.\Generated_Source\PSoC4/CyLFClk.c **** 
 361:.\Generated_Source\PSoC4/CyLFClk.c ****         status = CY_SYS_CLK_WCO_CONFIG_REG & CY_SYS_CLK_WCO_CONFIG_LPM_EN;
 362:.\Generated_Source\PSoC4/CyLFClk.c **** 
 363:.\Generated_Source\PSoC4/CyLFClk.c ****         switch(mode)
 364:.\Generated_Source\PSoC4/CyLFClk.c ****         {
 365:.\Generated_Source\PSoC4/CyLFClk.c ****         case CY_SYS_CLK_WCO_HPM:
 366:.\Generated_Source\PSoC4/CyLFClk.c ****                 CySysClkWcoSetHighPowerMode();
 367:.\Generated_Source\PSoC4/CyLFClk.c ****             break;
 368:.\Generated_Source\PSoC4/CyLFClk.c **** 
 369:.\Generated_Source\PSoC4/CyLFClk.c ****         #if(!CY_PSOC4_4100M && !CY_PSOC4_4200M)
 370:.\Generated_Source\PSoC4/CyLFClk.c ****             case CY_SYS_CLK_WCO_LPM:
 371:.\Generated_Source\PSoC4/CyLFClk.c ****                     CySysClkWcoSetLowPowerMode();
 372:.\Generated_Source\PSoC4/CyLFClk.c ****                 break;
 373:.\Generated_Source\PSoC4/CyLFClk.c ****         #endif /* (!CY_PSOC4_4100M && !CY_PSOC4_4200M) */
 374:.\Generated_Source\PSoC4/CyLFClk.c **** 
 375:.\Generated_Source\PSoC4/CyLFClk.c ****         default:
 376:.\Generated_Source\PSoC4/CyLFClk.c ****             CYASSERT(0u != 0u);
 377:.\Generated_Source\PSoC4/CyLFClk.c ****             break;
ARM GAS  C:\Users\mitchell\AppData\Local\Temp\ccP08FOF.s 			page 9


 378:.\Generated_Source\PSoC4/CyLFClk.c ****         }
 379:.\Generated_Source\PSoC4/CyLFClk.c **** 
 380:.\Generated_Source\PSoC4/CyLFClk.c ****         return (status);
 381:.\Generated_Source\PSoC4/CyLFClk.c ****     }
 382:.\Generated_Source\PSoC4/CyLFClk.c **** 
 383:.\Generated_Source\PSoC4/CyLFClk.c **** #endif  /* (CY_IP_WCO) */
 384:.\Generated_Source\PSoC4/CyLFClk.c **** 
 385:.\Generated_Source\PSoC4/CyLFClk.c **** 
 386:.\Generated_Source\PSoC4/CyLFClk.c **** #if(CY_IP_SRSSV2)
 387:.\Generated_Source\PSoC4/CyLFClk.c **** 
 388:.\Generated_Source\PSoC4/CyLFClk.c **** 
 389:.\Generated_Source\PSoC4/CyLFClk.c ****     /*******************************************************************************
 390:.\Generated_Source\PSoC4/CyLFClk.c ****     * Function Name: CySysWdtLock
 391:.\Generated_Source\PSoC4/CyLFClk.c ****     ********************************************************************************
 392:.\Generated_Source\PSoC4/CyLFClk.c ****     *
 393:.\Generated_Source\PSoC4/CyLFClk.c ****     * Summary:
 394:.\Generated_Source\PSoC4/CyLFClk.c ****     *  Locks out configuration changes to the Watchdog timer registers and ILO
 395:.\Generated_Source\PSoC4/CyLFClk.c ****     *  configuration register.
 396:.\Generated_Source\PSoC4/CyLFClk.c ****     *
 397:.\Generated_Source\PSoC4/CyLFClk.c ****     * Parameters:
 398:.\Generated_Source\PSoC4/CyLFClk.c ****     *  None.
 399:.\Generated_Source\PSoC4/CyLFClk.c ****     *
 400:.\Generated_Source\PSoC4/CyLFClk.c ****     * Return:
 401:.\Generated_Source\PSoC4/CyLFClk.c ****     *  None.
 402:.\Generated_Source\PSoC4/CyLFClk.c ****     *
 403:.\Generated_Source\PSoC4/CyLFClk.c ****     * Side effects:
 404:.\Generated_Source\PSoC4/CyLFClk.c ****     *  After this function is called, ILO clock can't be disabled until
 405:.\Generated_Source\PSoC4/CyLFClk.c ****     *  CySysWdtUnlock() is called.
 406:.\Generated_Source\PSoC4/CyLFClk.c ****     *
 407:.\Generated_Source\PSoC4/CyLFClk.c ****     *******************************************************************************/
 408:.\Generated_Source\PSoC4/CyLFClk.c ****     void CySysWdtLock(void)
 409:.\Generated_Source\PSoC4/CyLFClk.c ****     {
 410:.\Generated_Source\PSoC4/CyLFClk.c ****         uint8 interruptState;
 411:.\Generated_Source\PSoC4/CyLFClk.c ****         interruptState = CyEnterCriticalSection();
 412:.\Generated_Source\PSoC4/CyLFClk.c **** 
 413:.\Generated_Source\PSoC4/CyLFClk.c ****         CY_SYS_CLK_SELECT_REG = (CY_SYS_CLK_SELECT_REG & (uint32)(~CY_SYS_WDT_CLK_LOCK_BITS_MASK)) 
 414:.\Generated_Source\PSoC4/CyLFClk.c ****                  CY_SYS_WDT_CLK_LOCK_BITS_MASK;
 415:.\Generated_Source\PSoC4/CyLFClk.c **** 
 416:.\Generated_Source\PSoC4/CyLFClk.c ****         CyExitCriticalSection(interruptState);
 417:.\Generated_Source\PSoC4/CyLFClk.c ****     }
 418:.\Generated_Source\PSoC4/CyLFClk.c **** 
 419:.\Generated_Source\PSoC4/CyLFClk.c **** 
 420:.\Generated_Source\PSoC4/CyLFClk.c ****     /*******************************************************************************
 421:.\Generated_Source\PSoC4/CyLFClk.c ****     * Function Name: CySysWdtLocked
 422:.\Generated_Source\PSoC4/CyLFClk.c ****     ********************************************************************************
 423:.\Generated_Source\PSoC4/CyLFClk.c ****     *
 424:.\Generated_Source\PSoC4/CyLFClk.c ****     * Summary:
 425:.\Generated_Source\PSoC4/CyLFClk.c ****     *  Reports the WDT lock state.
 426:.\Generated_Source\PSoC4/CyLFClk.c ****     *
 427:.\Generated_Source\PSoC4/CyLFClk.c ****     * Parameters:
 428:.\Generated_Source\PSoC4/CyLFClk.c ****     *  None
 429:.\Generated_Source\PSoC4/CyLFClk.c ****     *
 430:.\Generated_Source\PSoC4/CyLFClk.c ****     * Return:
 431:.\Generated_Source\PSoC4/CyLFClk.c ****     *  1 - WDT is locked, and 0 - WDT is unlocked.
 432:.\Generated_Source\PSoC4/CyLFClk.c ****     *
 433:.\Generated_Source\PSoC4/CyLFClk.c ****     *******************************************************************************/
 434:.\Generated_Source\PSoC4/CyLFClk.c ****     static uint32 CySysWdtLocked(void)
ARM GAS  C:\Users\mitchell\AppData\Local\Temp\ccP08FOF.s 			page 10


 435:.\Generated_Source\PSoC4/CyLFClk.c ****     {
  80              		.loc 1 435 0
  81              		.cfi_startproc
 436:.\Generated_Source\PSoC4/CyLFClk.c ****         /* Prohibits writing to WDT registers and ILO/WCO registers when not equal 0 */
 437:.\Generated_Source\PSoC4/CyLFClk.c ****         return ((0u != (CY_SYS_CLK_SELECT_REG & (uint32)(CY_SYS_WDT_CLK_LOCK_BITS_MASK))) ? (uint32
  82              		.loc 1 437 0
  83 0000 044B     		ldr	r3, .L12
  84 0002 1A68     		ldr	r2, [r3]
  85 0004 C023     		mov	r3, #192
  86 0006 1B02     		lsl	r3, r3, #8
  87 0008 1A42     		tst	r2, r3
  88 000a 01D0     		beq	.L11
  89 000c 0120     		mov	r0, #1
  90 000e 00E0     		b	.L10
  91              	.L11:
  92 0010 0020     		mov	r0, #0
  93              	.L10:
 438:.\Generated_Source\PSoC4/CyLFClk.c ****     }
  94              		.loc 1 438 0 discriminator 3
  95              		@ sp needed
  96 0012 7047     		bx	lr
  97              	.L13:
  98              		.align	2
  99              	.L12:
 100 0014 00010B40 		.word	1074462976
 101              		.cfi_endproc
 102              	.LFE12:
 103              		.size	CySysWdtLocked, .-CySysWdtLocked
 104              		.section	.text.CySysClkIloStart,"ax",%progbits
 105              		.align	2
 106              		.global	CySysClkIloStart
 107              		.code	16
 108              		.thumb_func
 109              		.type	CySysClkIloStart, %function
 110              	CySysClkIloStart:
 111              	.LFB2:
  66:.\Generated_Source\PSoC4/CyLFClk.c **** {
 112              		.loc 1 66 0
 113              		.cfi_startproc
  67:.\Generated_Source\PSoC4/CyLFClk.c ****     CY_SYS_CLK_ILO_CONFIG_REG |= CY_SYS_CLK_ILO_CONFIG_ENABLE;
 114              		.loc 1 67 0
 115 0000 034B     		ldr	r3, .L15
 116 0002 1968     		ldr	r1, [r3]
 117 0004 8022     		mov	r2, #128
 118 0006 1206     		lsl	r2, r2, #24
 119 0008 0A43     		orr	r2, r1
 120 000a 1A60     		str	r2, [r3]
  68:.\Generated_Source\PSoC4/CyLFClk.c **** }
 121              		.loc 1 68 0
 122              		@ sp needed
 123 000c 7047     		bx	lr
 124              	.L16:
 125 000e C046     		.align	2
 126              	.L15:
 127 0010 04010B40 		.word	1074462980
 128              		.cfi_endproc
 129              	.LFE2:
ARM GAS  C:\Users\mitchell\AppData\Local\Temp\ccP08FOF.s 			page 11


 130              		.size	CySysClkIloStart, .-CySysClkIloStart
 131              		.section	.text.CySysClkWcoStart,"ax",%progbits
 132              		.align	2
 133              		.global	CySysClkWcoStart
 134              		.code	16
 135              		.thumb_func
 136              		.type	CySysClkWcoStart, %function
 137              	CySysClkWcoStart:
 138              	.LFB7:
 271:.\Generated_Source\PSoC4/CyLFClk.c ****     {
 139              		.loc 1 271 0
 140              		.cfi_startproc
 141 0000 10B5     		push	{r4, lr}
 142              		.cfi_def_cfa_offset 8
 143              		.cfi_offset 4, -8
 144              		.cfi_offset 14, -4
 145              	.LBB4:
 146              	.LBB5:
 147              		.file 2 ".\\Generated_Source\\PSoC4\\CyLFClk.h"
   1:.\Generated_Source\PSoC4/CyLFClk.h **** /*******************************************************************************
   2:.\Generated_Source\PSoC4/CyLFClk.h **** * File Name: .h
   3:.\Generated_Source\PSoC4/CyLFClk.h **** * Version 1.0
   4:.\Generated_Source\PSoC4/CyLFClk.h **** *
   5:.\Generated_Source\PSoC4/CyLFClk.h **** * Description:
   6:.\Generated_Source\PSoC4/CyLFClk.h **** *  This file provides constants and parameter values for the cy_lfclk Component.
   7:.\Generated_Source\PSoC4/CyLFClk.h **** *
   8:.\Generated_Source\PSoC4/CyLFClk.h **** ********************************************************************************
   9:.\Generated_Source\PSoC4/CyLFClk.h **** * Copyright 2008-2015, Cypress Semiconductor Corporation.  All rights reserved.
  10:.\Generated_Source\PSoC4/CyLFClk.h **** * You may use this file only in accordance with the license, terms, conditions,
  11:.\Generated_Source\PSoC4/CyLFClk.h **** * disclaimers, and limitations in the end user license agreement accompanying
  12:.\Generated_Source\PSoC4/CyLFClk.h **** * the software package with which this file was provided.
  13:.\Generated_Source\PSoC4/CyLFClk.h **** *******************************************************************************/
  14:.\Generated_Source\PSoC4/CyLFClk.h **** 
  15:.\Generated_Source\PSoC4/CyLFClk.h **** #if !defined(CY_LFCLK_CYLIB_H)
  16:.\Generated_Source\PSoC4/CyLFClk.h **** #define CY_LFCLK_CYLIB_H
  17:.\Generated_Source\PSoC4/CyLFClk.h **** 
  18:.\Generated_Source\PSoC4/CyLFClk.h **** #include "cytypes.h"
  19:.\Generated_Source\PSoC4/CyLFClk.h **** #include "cydevice_trm.h"
  20:.\Generated_Source\PSoC4/CyLFClk.h **** 
  21:.\Generated_Source\PSoC4/CyLFClk.h **** typedef enum
  22:.\Generated_Source\PSoC4/CyLFClk.h **** {
  23:.\Generated_Source\PSoC4/CyLFClk.h ****     CY_SYS_TIMER_WAIT = 0u,
  24:.\Generated_Source\PSoC4/CyLFClk.h ****     CY_SYS_TIMER_INTERRUPT = 1u
  25:.\Generated_Source\PSoC4/CyLFClk.h **** } cy_sys_timer_delaytype_enum;
  26:.\Generated_Source\PSoC4/CyLFClk.h **** 
  27:.\Generated_Source\PSoC4/CyLFClk.h **** 
  28:.\Generated_Source\PSoC4/CyLFClk.h **** /***************************************
  29:.\Generated_Source\PSoC4/CyLFClk.h **** *    Function Prototypes
  30:.\Generated_Source\PSoC4/CyLFClk.h **** ***************************************/
  31:.\Generated_Source\PSoC4/CyLFClk.h **** 
  32:.\Generated_Source\PSoC4/CyLFClk.h **** /* Clocks API */
  33:.\Generated_Source\PSoC4/CyLFClk.h **** void CySysClkIloStart(void);
  34:.\Generated_Source\PSoC4/CyLFClk.h **** void CySysClkIloStop(void);
  35:.\Generated_Source\PSoC4/CyLFClk.h **** 
  36:.\Generated_Source\PSoC4/CyLFClk.h **** #if (CY_IP_WCO)
  37:.\Generated_Source\PSoC4/CyLFClk.h ****     void   CySysClkWcoStart(void);
  38:.\Generated_Source\PSoC4/CyLFClk.h ****     void   CySysClkWcoStop(void);
ARM GAS  C:\Users\mitchell\AppData\Local\Temp\ccP08FOF.s 			page 12


  39:.\Generated_Source\PSoC4/CyLFClk.h ****     uint32 CySysClkWcoSetPowerMode(uint32 mode);
  40:.\Generated_Source\PSoC4/CyLFClk.h **** 
  41:.\Generated_Source\PSoC4/CyLFClk.h ****     void CySysClkSetLfclkSource(uint32 source);
  42:.\Generated_Source\PSoC4/CyLFClk.h ****     uint32 CySysClkWcoEnabled(void);
  43:.\Generated_Source\PSoC4/CyLFClk.h **** #endif /* (CY_IP_WCO) */
  44:.\Generated_Source\PSoC4/CyLFClk.h **** 
  45:.\Generated_Source\PSoC4/CyLFClk.h **** typedef void (*cyWdtCallback)(void);
  46:.\Generated_Source\PSoC4/CyLFClk.h **** 
  47:.\Generated_Source\PSoC4/CyLFClk.h **** #if(CY_IP_SRSSV2)
  48:.\Generated_Source\PSoC4/CyLFClk.h ****     /* WDT API */
  49:.\Generated_Source\PSoC4/CyLFClk.h ****     void   CySysWdtLock(void);
  50:.\Generated_Source\PSoC4/CyLFClk.h ****     void   CySysWdtUnlock(void);
  51:.\Generated_Source\PSoC4/CyLFClk.h ****     void   CySysWdtSetMode(uint32 counterNum, uint32 mode);
  52:.\Generated_Source\PSoC4/CyLFClk.h ****     uint32 CySysWdtGetMode(uint32 counterNum);
  53:.\Generated_Source\PSoC4/CyLFClk.h ****     uint32 CySysWdtGetEnabledStatus(uint32 counterNum);
  54:.\Generated_Source\PSoC4/CyLFClk.h ****     void   CySysWdtSetClearOnMatch(uint32 counterNum, uint32 enable);
  55:.\Generated_Source\PSoC4/CyLFClk.h ****     uint32 CySysWdtGetClearOnMatch(uint32 counterNum);
  56:.\Generated_Source\PSoC4/CyLFClk.h ****     void   CySysWdtEnable(uint32 counterMask);
  57:.\Generated_Source\PSoC4/CyLFClk.h ****     void   CySysWdtDisable(uint32 counterMask);
  58:.\Generated_Source\PSoC4/CyLFClk.h ****     void   CySysWdtSetCascade(uint32 cascadeMask);
  59:.\Generated_Source\PSoC4/CyLFClk.h ****     uint32 CySysWdtGetCascade(void);
  60:.\Generated_Source\PSoC4/CyLFClk.h ****     void   CySysWdtSetMatch(uint32 counterNum, uint32 match);
  61:.\Generated_Source\PSoC4/CyLFClk.h ****     void   CySysWdtSetToggleBit(uint32 bits);
  62:.\Generated_Source\PSoC4/CyLFClk.h ****     uint32 CySysWdtGetToggleBit(void);
  63:.\Generated_Source\PSoC4/CyLFClk.h ****     uint32 CySysWdtGetMatch(uint32 counterNum);
  64:.\Generated_Source\PSoC4/CyLFClk.h ****     uint32 CySysWdtGetCount(uint32 counterNum);
  65:.\Generated_Source\PSoC4/CyLFClk.h ****     uint32 CySysWdtGetInterruptSource(void);
  66:.\Generated_Source\PSoC4/CyLFClk.h ****     void   CySysWdtClearInterrupt(uint32 counterMask);
  67:.\Generated_Source\PSoC4/CyLFClk.h ****     void   CySysWdtResetCounters(uint32 countersMask);
  68:.\Generated_Source\PSoC4/CyLFClk.h ****     cyWdtCallback  CySysWdtSetInterruptCallback(uint32 counterNum, cyWdtCallback function);
  69:.\Generated_Source\PSoC4/CyLFClk.h ****     cyWdtCallback  CySysWdtGetInterruptCallback(uint32 counterNum);
  70:.\Generated_Source\PSoC4/CyLFClk.h ****     void   CySysTimerDelay(uint32 counterNum, cy_sys_timer_delaytype_enum delayType, uint32 delay);
  71:.\Generated_Source\PSoC4/CyLFClk.h ****     void   CySysTimerDelayUntilMatch(uint32 counterNum, cy_sys_timer_delaytype_enum delayType, uint
  72:.\Generated_Source\PSoC4/CyLFClk.h ****     void   CySysWatchdogFeed(uint32 counterNum);
  73:.\Generated_Source\PSoC4/CyLFClk.h ****     void   CySysWdtEnableCounterIsr(uint32 counterNum);
  74:.\Generated_Source\PSoC4/CyLFClk.h ****     void   CySysWdtDisableCounterIsr(uint32 counterNum);
  75:.\Generated_Source\PSoC4/CyLFClk.h ****     void   CySysWdtIsr(void);
  76:.\Generated_Source\PSoC4/CyLFClk.h **** #else
  77:.\Generated_Source\PSoC4/CyLFClk.h ****     /* WDT API */
  78:.\Generated_Source\PSoC4/CyLFClk.h ****     uint32 CySysWdtGetEnabledStatus(void);
  79:.\Generated_Source\PSoC4/CyLFClk.h ****     void   CySysWdtEnable(void);
  80:.\Generated_Source\PSoC4/CyLFClk.h ****     void   CySysWdtDisable(void);
  81:.\Generated_Source\PSoC4/CyLFClk.h ****     void   CySysWdtSetMatch(uint32 match);
  82:.\Generated_Source\PSoC4/CyLFClk.h ****     uint32 CySysWdtGetMatch(void);
  83:.\Generated_Source\PSoC4/CyLFClk.h ****     uint32 CySysWdtGetCount(void);
  84:.\Generated_Source\PSoC4/CyLFClk.h ****     void   CySysWdtSetIgnoreBits(uint32 bitsNum);
  85:.\Generated_Source\PSoC4/CyLFClk.h ****     uint32 CySysWdtGetIgnoreBits(void);
  86:.\Generated_Source\PSoC4/CyLFClk.h ****     void   CySysWdtClearInterrupt(void);
  87:.\Generated_Source\PSoC4/CyLFClk.h ****     void   CySysWdtMaskInterrupt(void);
  88:.\Generated_Source\PSoC4/CyLFClk.h ****     void   CySysWdtUnmaskInterrupt(void);
  89:.\Generated_Source\PSoC4/CyLFClk.h ****     cyWdtCallback CySysWdtSetInterruptCallback(cyWdtCallback function);
  90:.\Generated_Source\PSoC4/CyLFClk.h ****     cyWdtCallback CySysWdtGetInterruptCallback(void);
  91:.\Generated_Source\PSoC4/CyLFClk.h ****     void   CySysWdtIsr(void);
  92:.\Generated_Source\PSoC4/CyLFClk.h **** #endif  /* (CY_IP_SRSSV2) */
  93:.\Generated_Source\PSoC4/CyLFClk.h **** 
  94:.\Generated_Source\PSoC4/CyLFClk.h **** 
  95:.\Generated_Source\PSoC4/CyLFClk.h **** /***************************************
ARM GAS  C:\Users\mitchell\AppData\Local\Temp\ccP08FOF.s 			page 13


  96:.\Generated_Source\PSoC4/CyLFClk.h **** * API Constants
  97:.\Generated_Source\PSoC4/CyLFClk.h **** ***************************************/
  98:.\Generated_Source\PSoC4/CyLFClk.h **** 
  99:.\Generated_Source\PSoC4/CyLFClk.h **** #define UINT16_MAX_VAL    (0xFFFFu)
 100:.\Generated_Source\PSoC4/CyLFClk.h **** 
 101:.\Generated_Source\PSoC4/CyLFClk.h **** 
 102:.\Generated_Source\PSoC4/CyLFClk.h **** /*******************************************************************************
 103:.\Generated_Source\PSoC4/CyLFClk.h **** * Clock API Constants
 104:.\Generated_Source\PSoC4/CyLFClk.h **** *******************************************************************************/
 105:.\Generated_Source\PSoC4/CyLFClk.h **** /* CySysClkIloStart()/CySysClkIloStop() - implementation definitions */
 106:.\Generated_Source\PSoC4/CyLFClk.h **** #define CY_SYS_CLK_ILO_CONFIG_ENABLE                    (( uint32 )(( uint32 )0x01u << 31u))
 107:.\Generated_Source\PSoC4/CyLFClk.h **** 
 108:.\Generated_Source\PSoC4/CyLFClk.h **** 
 109:.\Generated_Source\PSoC4/CyLFClk.h **** /* CySysClkSetLfclkSource() - parameter definitions */
 110:.\Generated_Source\PSoC4/CyLFClk.h **** #if (CY_IP_WCO)
 111:.\Generated_Source\PSoC4/CyLFClk.h ****     #define CY_SYS_CLK_LFCLK_SRC_ILO                    (0u)
 112:.\Generated_Source\PSoC4/CyLFClk.h ****     #define CY_SYS_CLK_LFCLK_SRC_WCO                    (( uint32 )(( uint32 )0x01u << 30u))
 113:.\Generated_Source\PSoC4/CyLFClk.h **** #endif /* (CY_IP_WCO) */
 114:.\Generated_Source\PSoC4/CyLFClk.h **** 
 115:.\Generated_Source\PSoC4/CyLFClk.h **** 
 116:.\Generated_Source\PSoC4/CyLFClk.h **** /* CySysClkSetLfclkSource() - implementation definitions */
 117:.\Generated_Source\PSoC4/CyLFClk.h **** #if (CY_IP_WCO)
 118:.\Generated_Source\PSoC4/CyLFClk.h ****     #define CY_SYS_CLK_LFCLK_SEL_MASK                   (( uint32 )(( uint32 )0x03u << 30u))
 119:.\Generated_Source\PSoC4/CyLFClk.h **** #endif /* (CY_IP_WCO) */
 120:.\Generated_Source\PSoC4/CyLFClk.h **** 
 121:.\Generated_Source\PSoC4/CyLFClk.h **** #if (CY_IP_WCO)
 122:.\Generated_Source\PSoC4/CyLFClk.h ****     /* WCO Configuration Register */
 123:.\Generated_Source\PSoC4/CyLFClk.h ****     #define CY_SYS_CLK_WCO_CONFIG_LPM_EN                (( uint32 )(( uint32 )0x01u <<  0u))
 124:.\Generated_Source\PSoC4/CyLFClk.h ****     #define CY_SYS_CLK_WCO_CONFIG_LPM_AUTO              (( uint32 )(( uint32 )0x01u <<  1u))
 125:.\Generated_Source\PSoC4/CyLFClk.h ****     #define CY_SYS_CLK_WCO_CONFIG_LPM_ENABLE            (( uint32 )(( uint32 )0x01u << 31u))
 126:.\Generated_Source\PSoC4/CyLFClk.h **** 
 127:.\Generated_Source\PSoC4/CyLFClk.h ****     /* WCO Status Register */
 128:.\Generated_Source\PSoC4/CyLFClk.h ****     #define CY_SYS_CLK_WCO_STATUS_OUT_BLNK_A            (( uint32 )(( uint32 )0x01u <<  0u))
 129:.\Generated_Source\PSoC4/CyLFClk.h **** 
 130:.\Generated_Source\PSoC4/CyLFClk.h ****     /* WCO Trim Register */
 131:.\Generated_Source\PSoC4/CyLFClk.h ****     #define CY_SYS_CLK_WCO_TRIM_XGM_MASK                (( uint32 ) 0x07u)
 132:.\Generated_Source\PSoC4/CyLFClk.h ****     #define CY_SYS_CLK_WCO_TRIM_XGM_SHIFT               (( uint32 ) 0x00u)
 133:.\Generated_Source\PSoC4/CyLFClk.h **** 
 134:.\Generated_Source\PSoC4/CyLFClk.h ****     #define CY_SYS_CLK_WCO_TRIM_XGM_3370NA              (( uint32 ) 0x00u)
 135:.\Generated_Source\PSoC4/CyLFClk.h ****     #define CY_SYS_CLK_WCO_TRIM_XGM_2620NA              (( uint32 ) 0x01u)
 136:.\Generated_Source\PSoC4/CyLFClk.h ****     #define CY_SYS_CLK_WCO_TRIM_XGM_2250NA              (( uint32 ) 0x02u)
 137:.\Generated_Source\PSoC4/CyLFClk.h ****     #define CY_SYS_CLK_WCO_TRIM_XGM_1500NA              (( uint32 ) 0x03u)
 138:.\Generated_Source\PSoC4/CyLFClk.h ****     #define CY_SYS_CLK_WCO_TRIM_XGM_1870NA              (( uint32 ) 0x04u)
 139:.\Generated_Source\PSoC4/CyLFClk.h ****     #define CY_SYS_CLK_WCO_TRIM_XGM_1120NA              (( uint32 ) 0x05u)
 140:.\Generated_Source\PSoC4/CyLFClk.h ****     #define CY_SYS_CLK_WCO_TRIM_XGM_750NA               (( uint32 ) 0x06u)
 141:.\Generated_Source\PSoC4/CyLFClk.h ****     #define CY_SYS_CLK_WCO_TRIM_XGM_0NA                 (( uint32 ) 0x07u)
 142:.\Generated_Source\PSoC4/CyLFClk.h **** 
 143:.\Generated_Source\PSoC4/CyLFClk.h ****     #define CY_SYS_CLK_WCO_TRIM_GM_MASK                 (( uint32 )(( uint32 )0x03u << 4u))
 144:.\Generated_Source\PSoC4/CyLFClk.h ****     #define CY_SYS_CLK_WCO_TRIM_GM_SHIFT                (( uint32 ) 0x04u)
 145:.\Generated_Source\PSoC4/CyLFClk.h ****     #define CY_SYS_CLK_WCO_TRIM_GM_HPM                  (( uint32 ) 0x01u)
 146:.\Generated_Source\PSoC4/CyLFClk.h ****     #define CY_SYS_CLK_WCO_TRIM_GM_LPM                  (( uint32 ) 0x02u)
 147:.\Generated_Source\PSoC4/CyLFClk.h **** #endif  /* (CY_IP_WCO) */
 148:.\Generated_Source\PSoC4/CyLFClk.h **** 
 149:.\Generated_Source\PSoC4/CyLFClk.h **** 
 150:.\Generated_Source\PSoC4/CyLFClk.h **** /*******************************************************************************
 151:.\Generated_Source\PSoC4/CyLFClk.h **** * WDT API Constants
 152:.\Generated_Source\PSoC4/CyLFClk.h **** *******************************************************************************/
ARM GAS  C:\Users\mitchell\AppData\Local\Temp\ccP08FOF.s 			page 14


 153:.\Generated_Source\PSoC4/CyLFClk.h **** #if(CY_IP_SRSSV2)
 154:.\Generated_Source\PSoC4/CyLFClk.h ****     #define CY_SYS_WDT_MODE_NONE                (0u)
 155:.\Generated_Source\PSoC4/CyLFClk.h ****     #define CY_SYS_WDT_MODE_INT                 (1u)
 156:.\Generated_Source\PSoC4/CyLFClk.h ****     #define CY_SYS_WDT_MODE_RESET               (2u)
 157:.\Generated_Source\PSoC4/CyLFClk.h ****     #define CY_SYS_WDT_MODE_INT_RESET           (3u)
 158:.\Generated_Source\PSoC4/CyLFClk.h **** 
 159:.\Generated_Source\PSoC4/CyLFClk.h ****     #define CY_SYS_WDT_COUNTER0_MASK            ((uint32)((uint32)0x01u))
 160:.\Generated_Source\PSoC4/CyLFClk.h ****     #define CY_SYS_WDT_COUNTER1_MASK            ((uint32)((uint32)0x01u << 8u))
 161:.\Generated_Source\PSoC4/CyLFClk.h ****     #define CY_SYS_WDT_COUNTER2_MASK            ((uint32)((uint32)0x01u << 16u))
 162:.\Generated_Source\PSoC4/CyLFClk.h **** 
 163:.\Generated_Source\PSoC4/CyLFClk.h ****     #define CY_SYS_WDT_CASCADE_NONE             ((uint32)0x00u)
 164:.\Generated_Source\PSoC4/CyLFClk.h ****     #define CY_SYS_WDT_CASCADE_01               ((uint32)0x01u << 3u)
 165:.\Generated_Source\PSoC4/CyLFClk.h ****     #define CY_SYS_WDT_CASCADE_12               ((uint32)0x01u << 11u)
 166:.\Generated_Source\PSoC4/CyLFClk.h **** 
 167:.\Generated_Source\PSoC4/CyLFClk.h ****     #define CY_SYS_WDT_COUNTER0_INT             ((uint32)0x01u << 2u)
 168:.\Generated_Source\PSoC4/CyLFClk.h ****     #define CY_SYS_WDT_COUNTER1_INT             ((uint32)0x01u << 10u)
 169:.\Generated_Source\PSoC4/CyLFClk.h ****     #define CY_SYS_WDT_COUNTER2_INT             ((uint32)0x01u << 18u)
 170:.\Generated_Source\PSoC4/CyLFClk.h **** 
 171:.\Generated_Source\PSoC4/CyLFClk.h ****     #define CY_SYS_WDT_COUNTER0_RESET           ((uint32)0x01u << 3u)
 172:.\Generated_Source\PSoC4/CyLFClk.h ****     #define CY_SYS_WDT_COUNTER1_RESET           ((uint32)0x01u << 11u)
 173:.\Generated_Source\PSoC4/CyLFClk.h ****     #define CY_SYS_WDT_COUNTER2_RESET           ((uint32)0x01u << 19u)
 174:.\Generated_Source\PSoC4/CyLFClk.h ****     #define CY_SYS_WDT_COUNTERS_RESET           (CY_SYS_WDT_COUNTER0_RESET |\
 175:.\Generated_Source\PSoC4/CyLFClk.h ****                                                  CY_SYS_WDT_COUNTER1_RESET |\
 176:.\Generated_Source\PSoC4/CyLFClk.h ****                                                  CY_SYS_WDT_COUNTER2_RESET)
 177:.\Generated_Source\PSoC4/CyLFClk.h **** 
 178:.\Generated_Source\PSoC4/CyLFClk.h ****     #define CY_SYS_WDT_COUNTER0                 (0x00u)
 179:.\Generated_Source\PSoC4/CyLFClk.h ****     #define CY_SYS_WDT_COUNTER1                 (0x01u)
 180:.\Generated_Source\PSoC4/CyLFClk.h ****     #define CY_SYS_WDT_COUNTER2                 (0x02u)
 181:.\Generated_Source\PSoC4/CyLFClk.h **** 
 182:.\Generated_Source\PSoC4/CyLFClk.h ****     #define CY_SYS_WDT_COUNTER0_OFFSET            (0x00u)
 183:.\Generated_Source\PSoC4/CyLFClk.h ****     #define CY_SYS_WDT_COUNTER1_OFFSET            (0x02u)
 184:.\Generated_Source\PSoC4/CyLFClk.h ****     #define CY_SYS_WDT_COUNTER2_OFFSET            (0x04u)
 185:.\Generated_Source\PSoC4/CyLFClk.h **** 
 186:.\Generated_Source\PSoC4/CyLFClk.h ****     #define CY_SYS_WDT_MODE_MASK                ((uint32)(0x03u))
 187:.\Generated_Source\PSoC4/CyLFClk.h **** 
 188:.\Generated_Source\PSoC4/CyLFClk.h ****     #define CY_SYS_WDT_CLK_LOCK_BITS_MASK       ((uint32)0x03u << 14u)
 189:.\Generated_Source\PSoC4/CyLFClk.h ****     #define CY_SYS_WDT_CLK_LOCK_BIT0            ((uint32)0x01u << 14u)
 190:.\Generated_Source\PSoC4/CyLFClk.h ****     #define CY_SYS_WDT_CLK_LOCK_BIT1            ((uint32)0x01u << 15u)
 191:.\Generated_Source\PSoC4/CyLFClk.h **** 
 192:.\Generated_Source\PSoC4/CyLFClk.h ****     #define CY_SYS_WDT_CONFIG_BITS2_MASK        (uint32)(0x1Fu)
 193:.\Generated_Source\PSoC4/CyLFClk.h ****     #define CY_SYS_WDT_CONFIG_BITS2_POS         (uint32)(24u)
 194:.\Generated_Source\PSoC4/CyLFClk.h ****     #define CY_SYS_WDT_LOWER_16BITS_MASK        (uint32)(0x0000FFFFu)
 195:.\Generated_Source\PSoC4/CyLFClk.h ****     #define CY_SYS_WDT_HIGHER_16BITS_MASK       (uint32)(0xFFFF0000u)
 196:.\Generated_Source\PSoC4/CyLFClk.h ****     #define CY_SYS_WDT_COUNTERS_MAX             (0x03u)
 197:.\Generated_Source\PSoC4/CyLFClk.h ****     #define CY_SYS_WDT_CNT_SHIFT                (0x08u)
 198:.\Generated_Source\PSoC4/CyLFClk.h ****     #define CY_SYS_WDT_CNT_MATCH_CLR_SHIFT      (0x02u)
 199:.\Generated_Source\PSoC4/CyLFClk.h ****     #define CY_SYS_WDT_CNT_STTS_SHIFT           (0x01u)
 200:.\Generated_Source\PSoC4/CyLFClk.h ****     #define CY_SYS_WDT_CNT_MATCH_SHIFT          (0x10u)
 201:.\Generated_Source\PSoC4/CyLFClk.h **** 
 202:.\Generated_Source\PSoC4/CyLFClk.h ****     #define CY_WDT_NUM_OF_WDT                    (3u)
 203:.\Generated_Source\PSoC4/CyLFClk.h ****     #define CY_WDT_NUM_OF_CALLBACKS             (3u)
 204:.\Generated_Source\PSoC4/CyLFClk.h **** 
 205:.\Generated_Source\PSoC4/CyLFClk.h ****     #if (CY_PSOC4_4100 || CY_PSOC4_4200)
 206:.\Generated_Source\PSoC4/CyLFClk.h ****         #define CY_SYS_WDT_1LFCLK_DELAY_US      ((uint16)( 67u))
 207:.\Generated_Source\PSoC4/CyLFClk.h ****         #define CY_SYS_WDT_3LFCLK_DELAY_US      ((uint16)(201u))
 208:.\Generated_Source\PSoC4/CyLFClk.h ****     #endif /* (CY_PSOC4_4100 || CY_PSOC4_4200) */
 209:.\Generated_Source\PSoC4/CyLFClk.h **** 
ARM GAS  C:\Users\mitchell\AppData\Local\Temp\ccP08FOF.s 			page 15


 210:.\Generated_Source\PSoC4/CyLFClk.h ****     #if (CY_PSOC4_4000)
 211:.\Generated_Source\PSoC4/CyLFClk.h ****         #define CY_SYS_WDT_1LFCLK_DELAY_US      ((uint16)( 50u))
 212:.\Generated_Source\PSoC4/CyLFClk.h ****         #define CY_SYS_WDT_3LFCLK_DELAY_US      ((uint16)(150u))
 213:.\Generated_Source\PSoC4/CyLFClk.h ****     #endif /* (CY_PSOC4_4000) */
 214:.\Generated_Source\PSoC4/CyLFClk.h **** 
 215:.\Generated_Source\PSoC4/CyLFClk.h ****     #if (CY_IP_WCO)
 216:.\Generated_Source\PSoC4/CyLFClk.h **** 
 217:.\Generated_Source\PSoC4/CyLFClk.h ****         #define CY_SYS_WDT_1LFCLK_DELAY_US      \
 218:.\Generated_Source\PSoC4/CyLFClk.h ****             ((CY_SYS_CLK_LFCLK_SRC_ILO == (CY_SYS_WDT_CONFIG_REG & CY_SYS_CLK_LFCLK_SEL_MASK)) ? \
 219:.\Generated_Source\PSoC4/CyLFClk.h ****                                                 ((uint16)(67u)) : \
 220:.\Generated_Source\PSoC4/CyLFClk.h ****                                                 ((uint16)(31u)))
 221:.\Generated_Source\PSoC4/CyLFClk.h **** 
 222:.\Generated_Source\PSoC4/CyLFClk.h ****         #define CY_SYS_WDT_3LFCLK_DELAY_US      \
 223:.\Generated_Source\PSoC4/CyLFClk.h ****             ((CY_SYS_CLK_LFCLK_SRC_ILO == (CY_SYS_WDT_CONFIG_REG & CY_SYS_CLK_LFCLK_SEL_MASK)) ? \
 224:.\Generated_Source\PSoC4/CyLFClk.h ****                                                 ((uint16)(201u)) : \
 225:.\Generated_Source\PSoC4/CyLFClk.h ****                                                 ((uint16)(93u)))
 226:.\Generated_Source\PSoC4/CyLFClk.h **** 
 227:.\Generated_Source\PSoC4/CyLFClk.h ****     #endif /* (CY_IP_WCO) */
 228:.\Generated_Source\PSoC4/CyLFClk.h **** 
 229:.\Generated_Source\PSoC4/CyLFClk.h **** #else
 230:.\Generated_Source\PSoC4/CyLFClk.h ****     #define CY_SYS_WDT_KEY                      ((uint32)(0xACED8865u))
 231:.\Generated_Source\PSoC4/CyLFClk.h ****     #define CY_SYS_WDT_MATCH_MASK               ((uint32)(0x0000FFFFu))
 232:.\Generated_Source\PSoC4/CyLFClk.h ****     #define CY_SYS_WDT_IGNORE_BITS_MASK         ((uint32)(0x000F0000u))
 233:.\Generated_Source\PSoC4/CyLFClk.h ****     #define CY_SYS_WDT_IGNORE_BITS_SHIFT        ((uint32)(16u))
 234:.\Generated_Source\PSoC4/CyLFClk.h ****     #define CY_SYS_WDT_LOWER_BIT_MASK           ((uint32)(0x00000001u))
 235:.\Generated_Source\PSoC4/CyLFClk.h **** 
 236:.\Generated_Source\PSoC4/CyLFClk.h ****     #define CY_SYS_WDT_COUNTER0                 (0x00u)
 237:.\Generated_Source\PSoC4/CyLFClk.h **** 
 238:.\Generated_Source\PSoC4/CyLFClk.h ****     #define CY_WDT_NUM_OF_WDT                   (1u)
 239:.\Generated_Source\PSoC4/CyLFClk.h ****     #define CY_WDT_NUM_OF_CALLBACKS             (3u)
 240:.\Generated_Source\PSoC4/CyLFClk.h **** #endif  /* (CY_IP_SRSSV2) */
 241:.\Generated_Source\PSoC4/CyLFClk.h **** 
 242:.\Generated_Source\PSoC4/CyLFClk.h **** #define CY_INT_WDT_IRQN                            (7u)
 243:.\Generated_Source\PSoC4/CyLFClk.h **** 
 244:.\Generated_Source\PSoC4/CyLFClk.h **** /* CySysXTAL_32KHZ_SetPowerMode() */
 245:.\Generated_Source\PSoC4/CyLFClk.h **** #define CY_SYS_CLK_WCO_HPM                   (0x0u)
 246:.\Generated_Source\PSoC4/CyLFClk.h **** #if(0u == (CY_PSOC4_4100M || CY_PSOC4_4200M))
 247:.\Generated_Source\PSoC4/CyLFClk.h ****     #define CY_SYS_CLK_WCO_LPM               (0x1u)
 248:.\Generated_Source\PSoC4/CyLFClk.h **** #endif /* (0u == (CY_PSOC4_4100M || CY_PSOC4_4200M)) */
 249:.\Generated_Source\PSoC4/CyLFClk.h **** 
 250:.\Generated_Source\PSoC4/CyLFClk.h **** 
 251:.\Generated_Source\PSoC4/CyLFClk.h **** #define CY_SYS_CLK_ILO_CONFIG_REG           (*(reg32 *) CYREG_CLK_ILO_CONFIG)
 252:.\Generated_Source\PSoC4/CyLFClk.h **** #define CY_SYS_CLK_ILO_CONFIG_PTR           ( (reg32 *) CYREG_CLK_ILO_CONFIG)
 253:.\Generated_Source\PSoC4/CyLFClk.h **** 
 254:.\Generated_Source\PSoC4/CyLFClk.h **** #if(CY_IP_SRSSV2)
 255:.\Generated_Source\PSoC4/CyLFClk.h ****     #define CY_SYS_CLK_ILO_TRIM_REG             (*(reg32 *) CYREG_CLK_ILO_TRIM)
 256:.\Generated_Source\PSoC4/CyLFClk.h ****     #define CY_SYS_CLK_ILO_TRIM_PTR             ( (reg32 *) CYREG_CLK_ILO_TRIM)
 257:.\Generated_Source\PSoC4/CyLFClk.h **** #endif  /* (CY_IP_SRSSV2) */
 258:.\Generated_Source\PSoC4/CyLFClk.h **** 
 259:.\Generated_Source\PSoC4/CyLFClk.h **** #if (CY_IP_WCO)
 260:.\Generated_Source\PSoC4/CyLFClk.h **** 
 261:.\Generated_Source\PSoC4/CyLFClk.h ****     #if (CY_PSOC4_4100BL || CY_PSOC4_4200BL)
 262:.\Generated_Source\PSoC4/CyLFClk.h ****         /* WCO Status Register */
 263:.\Generated_Source\PSoC4/CyLFClk.h ****         #define CY_SYS_CLK_WCO_STATUS_REG               (*(reg32 *) CYREG_BLE_BLESS_WCO_STATUS)
 264:.\Generated_Source\PSoC4/CyLFClk.h ****         #define CY_SYS_CLK_WCO_STATUS_PTR               ( (reg32 *) CYREG_BLE_BLESS_WCO_STATUS)
 265:.\Generated_Source\PSoC4/CyLFClk.h **** 
 266:.\Generated_Source\PSoC4/CyLFClk.h ****         /* WCO Configuration Register */
ARM GAS  C:\Users\mitchell\AppData\Local\Temp\ccP08FOF.s 			page 16


 267:.\Generated_Source\PSoC4/CyLFClk.h ****         #define CY_SYS_CLK_WCO_CONFIG_REG               (*(reg32 *) CYREG_BLE_BLESS_WCO_CONFIG)
 268:.\Generated_Source\PSoC4/CyLFClk.h ****         #define CY_SYS_CLK_WCO_CONFIG_PTR               ( (reg32 *) CYREG_BLE_BLESS_WCO_CONFIG)
 269:.\Generated_Source\PSoC4/CyLFClk.h **** 
 270:.\Generated_Source\PSoC4/CyLFClk.h ****         /* WCO Trim Register */
 271:.\Generated_Source\PSoC4/CyLFClk.h ****         #define CY_SYS_CLK_WCO_TRIM_REG                 (*(reg32 *) CYREG_BLE_BLESS_WCO_TRIM)
 272:.\Generated_Source\PSoC4/CyLFClk.h ****         #define CY_SYS_CLK_WCO_TRIM_PTR                 ( (reg32 *) CYREG_BLE_BLESS_WCO_TRIM)
 273:.\Generated_Source\PSoC4/CyLFClk.h ****     #else   /* (CY_PSOC4_4100M || CY_PSOC4_4200M) */
 274:.\Generated_Source\PSoC4/CyLFClk.h ****         /* WCO Status Register */
 275:.\Generated_Source\PSoC4/CyLFClk.h ****         #define CY_SYS_CLK_WCO_STATUS_REG               (*(reg32 *) CYREG_WCO_STATUS)
 276:.\Generated_Source\PSoC4/CyLFClk.h ****         #define CY_SYS_CLK_WCO_STATUS_PTR               ( (reg32 *) CYREG_WCO_STATUS)
 277:.\Generated_Source\PSoC4/CyLFClk.h **** 
 278:.\Generated_Source\PSoC4/CyLFClk.h ****         /* WCO Configuration Register */
 279:.\Generated_Source\PSoC4/CyLFClk.h ****         #define CY_SYS_CLK_WCO_CONFIG_REG               (*(reg32 *) CYREG_WCO_CONFIG)
 280:.\Generated_Source\PSoC4/CyLFClk.h ****         #define CY_SYS_CLK_WCO_CONFIG_PTR               ( (reg32 *) CYREG_WCO_CONFIG)
 281:.\Generated_Source\PSoC4/CyLFClk.h **** 
 282:.\Generated_Source\PSoC4/CyLFClk.h ****         /* WCO Trim Register */
 283:.\Generated_Source\PSoC4/CyLFClk.h ****         #define CY_SYS_CLK_WCO_TRIM_REG                 (*(reg32 *) CYREG_WCO_TRIM)
 284:.\Generated_Source\PSoC4/CyLFClk.h ****         #define CY_SYS_CLK_WCO_TRIM_PTR                 ( (reg32 *) CYREG_WCO_TRIM)
 285:.\Generated_Source\PSoC4/CyLFClk.h ****     #endif /* (CY_PSOC4_4100BL || CY_PSOC4_4200BL) */
 286:.\Generated_Source\PSoC4/CyLFClk.h **** 
 287:.\Generated_Source\PSoC4/CyLFClk.h **** #endif  /* (CY_IP_WCO) */
 288:.\Generated_Source\PSoC4/CyLFClk.h **** 
 289:.\Generated_Source\PSoC4/CyLFClk.h **** 
 290:.\Generated_Source\PSoC4/CyLFClk.h **** /*******************************************************************************
 291:.\Generated_Source\PSoC4/CyLFClk.h **** * WDT API Registers
 292:.\Generated_Source\PSoC4/CyLFClk.h **** *******************************************************************************/
 293:.\Generated_Source\PSoC4/CyLFClk.h **** #if(CY_IP_SRSSV2)
 294:.\Generated_Source\PSoC4/CyLFClk.h ****     #define CY_SYS_WDT_CTRLOW_REG               (*(reg32 *) CYREG_WDT_CTRLOW)
 295:.\Generated_Source\PSoC4/CyLFClk.h ****     #define CY_SYS_WDT_CTRLOW_PTR               ( (reg32 *) CYREG_WDT_CTRLOW)
 296:.\Generated_Source\PSoC4/CyLFClk.h **** 
 297:.\Generated_Source\PSoC4/CyLFClk.h ****     #define CY_SYS_WDT_CTRHIGH_REG              (*(reg32 *) CYREG_WDT_CTRHIGH)
 298:.\Generated_Source\PSoC4/CyLFClk.h ****     #define CY_SYS_WDT_CTRHIGH_PTR              ( (reg32 *) CYREG_WDT_CTRHIGH)
 299:.\Generated_Source\PSoC4/CyLFClk.h **** 
 300:.\Generated_Source\PSoC4/CyLFClk.h ****     #define CY_SYS_WDT_MATCH_REG                (*(reg32 *) CYREG_WDT_MATCH)
 301:.\Generated_Source\PSoC4/CyLFClk.h ****     #define CY_SYS_WDT_MATCH_PTR                ( (reg32 *) CYREG_WDT_MATCH)
 302:.\Generated_Source\PSoC4/CyLFClk.h **** 
 303:.\Generated_Source\PSoC4/CyLFClk.h ****     #define CY_SYS_WDT_CONFIG_REG               (*(reg32 *) CYREG_WDT_CONFIG)
 304:.\Generated_Source\PSoC4/CyLFClk.h ****     #define CY_SYS_WDT_CONFIG_PTR               ( (reg32 *) CYREG_WDT_CONFIG)
 305:.\Generated_Source\PSoC4/CyLFClk.h **** 
 306:.\Generated_Source\PSoC4/CyLFClk.h ****     #define CY_SYS_WDT_CONTROL_REG              (*(reg32 *) CYREG_WDT_CONTROL)
 307:.\Generated_Source\PSoC4/CyLFClk.h ****     #define CY_SYS_WDT_CONTROL_PTR              ( (reg32 *) CYREG_WDT_CONTROL)
 308:.\Generated_Source\PSoC4/CyLFClk.h **** #else
 309:.\Generated_Source\PSoC4/CyLFClk.h ****     #define CY_SYS_WDT_DISABLE_KEY_REG          (*(reg32 *) CYREG_WDT_DISABLE_KEY)
 310:.\Generated_Source\PSoC4/CyLFClk.h ****     #define CY_SYS_WDT_DISABLE_KEY_PTR          ( (reg32 *) CYREG_WDT_DISABLE_KEY)
 311:.\Generated_Source\PSoC4/CyLFClk.h **** 
 312:.\Generated_Source\PSoC4/CyLFClk.h ****     #define CY_SYS_WDT_MATCH_REG                (*(reg32 *) CYREG_WDT_MATCH)
 313:.\Generated_Source\PSoC4/CyLFClk.h ****     #define CY_SYS_WDT_MATCH_PTR                ( (reg32 *) CYREG_WDT_MATCH)
 314:.\Generated_Source\PSoC4/CyLFClk.h **** 
 315:.\Generated_Source\PSoC4/CyLFClk.h ****     #define CY_SYS_WDT_COUNTER_REG              (*(reg32 *) CYREG_WDT_COUNTER)
 316:.\Generated_Source\PSoC4/CyLFClk.h ****     #define CY_SYS_WDT_COUNTER_PTR              ( (reg32 *) CYREG_WDT_COUNTER)
 317:.\Generated_Source\PSoC4/CyLFClk.h **** 
 318:.\Generated_Source\PSoC4/CyLFClk.h ****     #define CY_SYS_SRSS_INTR_REG                (*(reg32 *) CYREG_SRSS_INTR)
 319:.\Generated_Source\PSoC4/CyLFClk.h ****     #define CY_SYS_SRSS_INTR_PTR                ( (reg32 *) CYREG_SRSS_INTR)
 320:.\Generated_Source\PSoC4/CyLFClk.h **** 
 321:.\Generated_Source\PSoC4/CyLFClk.h ****     #define CY_SYS_SRSS_INTR_MASK_REG           (*(reg32 *) CYREG_SRSS_INTR_MASK)
 322:.\Generated_Source\PSoC4/CyLFClk.h ****     #define CY_SYS_SRSS_INTR_MASK_PTR           ( (reg32 *) CYREG_SRSS_INTR_MASK)
 323:.\Generated_Source\PSoC4/CyLFClk.h **** #endif  /* (CY_IP_SRSSV2) */
ARM GAS  C:\Users\mitchell\AppData\Local\Temp\ccP08FOF.s 			page 17


 324:.\Generated_Source\PSoC4/CyLFClk.h **** 
 325:.\Generated_Source\PSoC4/CyLFClk.h **** #if (CY_IP_WCO)
 326:.\Generated_Source\PSoC4/CyLFClk.h **** 
 327:.\Generated_Source\PSoC4/CyLFClk.h ****     /*******************************************************************************
 328:.\Generated_Source\PSoC4/CyLFClk.h ****     * Function Name: CySysClkWcoSetHighPowerMode
 329:.\Generated_Source\PSoC4/CyLFClk.h ****     ********************************************************************************
 330:.\Generated_Source\PSoC4/CyLFClk.h ****     *
 331:.\Generated_Source\PSoC4/CyLFClk.h ****     * Summary:
 332:.\Generated_Source\PSoC4/CyLFClk.h ****     *  Sets the high power mode for the 32 KHz WCO.
 333:.\Generated_Source\PSoC4/CyLFClk.h ****     *
 334:.\Generated_Source\PSoC4/CyLFClk.h ****     * Parameters:
 335:.\Generated_Source\PSoC4/CyLFClk.h ****     *  None.
 336:.\Generated_Source\PSoC4/CyLFClk.h ****     *
 337:.\Generated_Source\PSoC4/CyLFClk.h ****     * Return:
 338:.\Generated_Source\PSoC4/CyLFClk.h ****     *  None.
 339:.\Generated_Source\PSoC4/CyLFClk.h ****     *
 340:.\Generated_Source\PSoC4/CyLFClk.h ****     * Side Effects:
 341:.\Generated_Source\PSoC4/CyLFClk.h ****     *  None.
 342:.\Generated_Source\PSoC4/CyLFClk.h ****     *
 343:.\Generated_Source\PSoC4/CyLFClk.h ****     *******************************************************************************/
 344:.\Generated_Source\PSoC4/CyLFClk.h ****     static CY_INLINE void CySysClkWcoSetHighPowerMode(void)
 345:.\Generated_Source\PSoC4/CyLFClk.h ****     {
 346:.\Generated_Source\PSoC4/CyLFClk.h ****         /* Switch off low power mode for WCO */
 347:.\Generated_Source\PSoC4/CyLFClk.h ****         CY_SYS_CLK_WCO_CONFIG_REG &= (uint32) ~CY_SYS_CLK_WCO_CONFIG_LPM_EN;
 148              		.loc 2 347 0
 149 0002 0D4B     		ldr	r3, .L18
 150 0004 1A68     		ldr	r2, [r3]
 151 0006 0121     		mov	r1, #1
 152 0008 8A43     		bic	r2, r1
 153 000a 1A60     		str	r2, [r3]
 348:.\Generated_Source\PSoC4/CyLFClk.h ****         
 349:.\Generated_Source\PSoC4/CyLFClk.h ****         /* Switch off auto low power mode in WCO */
 350:.\Generated_Source\PSoC4/CyLFClk.h ****         CY_SYS_CLK_WCO_CONFIG_REG &= ((uint32)~CY_SYS_CLK_WCO_CONFIG_LPM_AUTO);
 154              		.loc 2 350 0
 155 000c 1A68     		ldr	r2, [r3]
 156 000e 0220     		mov	r0, #2
 157 0010 8243     		bic	r2, r0
 158 0012 1A60     		str	r2, [r3]
 351:.\Generated_Source\PSoC4/CyLFClk.h **** 
 352:.\Generated_Source\PSoC4/CyLFClk.h ****         /* Restore WCO trim register HPM settings */
 353:.\Generated_Source\PSoC4/CyLFClk.h ****         CY_SYS_CLK_WCO_TRIM_REG = (CY_SYS_CLK_WCO_TRIM_REG & (uint32)(~CY_SYS_CLK_WCO_TRIM_GM_MASK)
 159              		.loc 2 353 0
 160 0014 094A     		ldr	r2, .L18+4
 161 0016 1068     		ldr	r0, [r2]
 162 0018 3024     		mov	r4, #48
 163 001a A043     		bic	r0, r4
 354:.\Generated_Source\PSoC4/CyLFClk.h ****                     | (uint32)(CY_SYS_CLK_WCO_TRIM_GM_HPM << CY_SYS_CLK_WCO_TRIM_GM_SHIFT);
 164              		.loc 2 354 0
 165 001c 1024     		mov	r4, #16
 166 001e 2043     		orr	r0, r4
 353:.\Generated_Source\PSoC4/CyLFClk.h ****         CY_SYS_CLK_WCO_TRIM_REG = (CY_SYS_CLK_WCO_TRIM_REG & (uint32)(~CY_SYS_CLK_WCO_TRIM_GM_MASK)
 167              		.loc 2 353 0
 168 0020 1060     		str	r0, [r2]
 355:.\Generated_Source\PSoC4/CyLFClk.h ****         CY_SYS_CLK_WCO_TRIM_REG = (CY_SYS_CLK_WCO_TRIM_REG & (uint32)(~CY_SYS_CLK_WCO_TRIM_XGM_MASK
 169              		.loc 2 355 0
 170 0022 1068     		ldr	r0, [r2]
 171 0024 0724     		mov	r4, #7
ARM GAS  C:\Users\mitchell\AppData\Local\Temp\ccP08FOF.s 			page 18


 172 0026 A043     		bic	r0, r4
 356:.\Generated_Source\PSoC4/CyLFClk.h ****                     | (uint32)(CY_SYS_CLK_WCO_TRIM_XGM_2620NA << CY_SYS_CLK_WCO_TRIM_XGM_SHIFT);
 173              		.loc 2 356 0
 174 0028 0143     		orr	r1, r0
 355:.\Generated_Source\PSoC4/CyLFClk.h ****         CY_SYS_CLK_WCO_TRIM_REG = (CY_SYS_CLK_WCO_TRIM_REG & (uint32)(~CY_SYS_CLK_WCO_TRIM_XGM_MASK
 175              		.loc 2 355 0
 176 002a 1160     		str	r1, [r2]
 177              	.LBE5:
 178              	.LBE4:
 273:.\Generated_Source\PSoC4/CyLFClk.c ****         CY_SYS_CLK_WCO_CONFIG_REG |= CY_SYS_CLK_WCO_CONFIG_LPM_ENABLE;
 179              		.loc 1 273 0
 180 002c 1968     		ldr	r1, [r3]
 181 002e 8022     		mov	r2, #128
 182 0030 1206     		lsl	r2, r2, #24
 183 0032 0A43     		orr	r2, r1
 184 0034 1A60     		str	r2, [r3]
 274:.\Generated_Source\PSoC4/CyLFClk.c ****     }
 185              		.loc 1 274 0
 186              		@ sp needed
 187 0036 10BD     		pop	{r4, pc}
 188              	.L19:
 189              		.align	2
 190              	.L18:
 191 0038 00F02E40 		.word	1076817920
 192 003c 00FF2E40 		.word	1076821760
 193              		.cfi_endproc
 194              	.LFE7:
 195              		.size	CySysClkWcoStart, .-CySysClkWcoStart
 196              		.section	.text.CySysClkWcoEnabled,"ax",%progbits
 197              		.align	2
 198              		.global	CySysClkWcoEnabled
 199              		.code	16
 200              		.thumb_func
 201              		.type	CySysClkWcoEnabled, %function
 202              	CySysClkWcoEnabled:
 203              	.LFB9:
 329:.\Generated_Source\PSoC4/CyLFClk.c ****     {
 204              		.loc 1 329 0
 205              		.cfi_startproc
 330:.\Generated_Source\PSoC4/CyLFClk.c ****         return ((0u != (CY_SYS_CLK_WCO_CONFIG_REG & (uint32)(CY_SYS_CLK_WCO_CONFIG_LPM_ENABLE))) ?
 206              		.loc 1 330 0
 207 0000 034B     		ldr	r3, .L23
 208 0002 1B68     		ldr	r3, [r3]
 331:.\Generated_Source\PSoC4/CyLFClk.c ****                 (uint32) 1u :
 209              		.loc 1 331 0
 210 0004 002B     		cmp	r3, #0
 211 0006 01DA     		bge	.L22
 212 0008 0120     		mov	r0, #1
 213 000a 00E0     		b	.L21
 214              	.L22:
 215 000c 0020     		mov	r0, #0
 216              	.L21:
 333:.\Generated_Source\PSoC4/CyLFClk.c ****     }
 217              		.loc 1 333 0
 218              		@ sp needed
 219 000e 7047     		bx	lr
 220              	.L24:
ARM GAS  C:\Users\mitchell\AppData\Local\Temp\ccP08FOF.s 			page 19


 221              		.align	2
 222              	.L23:
 223 0010 00F02E40 		.word	1076817920
 224              		.cfi_endproc
 225              	.LFE9:
 226              		.size	CySysClkWcoEnabled, .-CySysClkWcoEnabled
 227              		.section	.text.CySysClkWcoSetPowerMode,"ax",%progbits
 228              		.align	2
 229              		.global	CySysClkWcoSetPowerMode
 230              		.code	16
 231              		.thumb_func
 232              		.type	CySysClkWcoSetPowerMode, %function
 233              	CySysClkWcoSetPowerMode:
 234              	.LFB10:
 358:.\Generated_Source\PSoC4/CyLFClk.c ****     {
 235              		.loc 1 358 0
 236              		.cfi_startproc
 237              	.LVL1:
 238 0000 38B5     		push	{r3, r4, r5, lr}
 239              		.cfi_def_cfa_offset 16
 240              		.cfi_offset 3, -16
 241              		.cfi_offset 4, -12
 242              		.cfi_offset 5, -8
 243              		.cfi_offset 14, -4
 244 0002 031C     		mov	r3, r0
 361:.\Generated_Source\PSoC4/CyLFClk.c ****         status = CY_SYS_CLK_WCO_CONFIG_REG & CY_SYS_CLK_WCO_CONFIG_LPM_EN;
 245              		.loc 1 361 0
 246 0004 1D4A     		ldr	r2, .L31
 247 0006 1268     		ldr	r2, [r2]
 248 0008 0120     		mov	r0, #1
 249              	.LVL2:
 250 000a 041C     		mov	r4, r0
 251 000c 1440     		and	r4, r2
 252              	.LVL3:
 363:.\Generated_Source\PSoC4/CyLFClk.c ****         switch(mode)
 253              		.loc 1 363 0
 254 000e 002B     		cmp	r3, #0
 255 0010 02D0     		beq	.L27
 256 0012 012B     		cmp	r3, #1
 257 0014 16D0     		beq	.L28
 258 0016 2BE0     		b	.L30
 259              	.L27:
 260              	.LBB10:
 261              	.LBB11:
 347:.\Generated_Source\PSoC4/CyLFClk.h ****         CY_SYS_CLK_WCO_CONFIG_REG &= (uint32) ~CY_SYS_CLK_WCO_CONFIG_LPM_EN;
 262              		.loc 2 347 0
 263 0018 184B     		ldr	r3, .L31
 264              	.LVL4:
 265 001a 1968     		ldr	r1, [r3]
 266 001c 0122     		mov	r2, #1
 267 001e 9143     		bic	r1, r2
 268 0020 1960     		str	r1, [r3]
 350:.\Generated_Source\PSoC4/CyLFClk.h ****         CY_SYS_CLK_WCO_CONFIG_REG &= ((uint32)~CY_SYS_CLK_WCO_CONFIG_LPM_AUTO);
 269              		.loc 2 350 0
 270 0022 1968     		ldr	r1, [r3]
 271 0024 0220     		mov	r0, #2
 272 0026 8143     		bic	r1, r0
ARM GAS  C:\Users\mitchell\AppData\Local\Temp\ccP08FOF.s 			page 20


 273 0028 1960     		str	r1, [r3]
 353:.\Generated_Source\PSoC4/CyLFClk.h ****         CY_SYS_CLK_WCO_TRIM_REG = (CY_SYS_CLK_WCO_TRIM_REG & (uint32)(~CY_SYS_CLK_WCO_TRIM_GM_MASK)
 274              		.loc 2 353 0
 275 002a 154B     		ldr	r3, .L31+4
 276 002c 1968     		ldr	r1, [r3]
 277 002e 3020     		mov	r0, #48
 278 0030 8143     		bic	r1, r0
 354:.\Generated_Source\PSoC4/CyLFClk.h ****                     | (uint32)(CY_SYS_CLK_WCO_TRIM_GM_HPM << CY_SYS_CLK_WCO_TRIM_GM_SHIFT);
 279              		.loc 2 354 0
 280 0032 1020     		mov	r0, #16
 281 0034 0143     		orr	r1, r0
 353:.\Generated_Source\PSoC4/CyLFClk.h ****         CY_SYS_CLK_WCO_TRIM_REG = (CY_SYS_CLK_WCO_TRIM_REG & (uint32)(~CY_SYS_CLK_WCO_TRIM_GM_MASK)
 282              		.loc 2 353 0
 283 0036 1960     		str	r1, [r3]
 355:.\Generated_Source\PSoC4/CyLFClk.h ****         CY_SYS_CLK_WCO_TRIM_REG = (CY_SYS_CLK_WCO_TRIM_REG & (uint32)(~CY_SYS_CLK_WCO_TRIM_XGM_MASK
 284              		.loc 2 355 0
 285 0038 1968     		ldr	r1, [r3]
 286 003a 0720     		mov	r0, #7
 287 003c 8143     		bic	r1, r0
 288              		.loc 2 356 0
 289 003e 0A43     		orr	r2, r1
 355:.\Generated_Source\PSoC4/CyLFClk.h ****         CY_SYS_CLK_WCO_TRIM_REG = (CY_SYS_CLK_WCO_TRIM_REG & (uint32)(~CY_SYS_CLK_WCO_TRIM_XGM_MASK
 290              		.loc 2 355 0
 291 0040 1A60     		str	r2, [r3]
 292 0042 18E0     		b	.L29
 293              	.LVL5:
 294              	.L28:
 295              	.LBE11:
 296              	.LBE10:
 297              	.LBB12:
 298              	.LBB13:
 357:.\Generated_Source\PSoC4/CyLFClk.h ****     }
 358:.\Generated_Source\PSoC4/CyLFClk.h **** 
 359:.\Generated_Source\PSoC4/CyLFClk.h ****     #if(!CY_PSOC4_4100M && !CY_PSOC4_4200M)
 360:.\Generated_Source\PSoC4/CyLFClk.h ****         /*******************************************************************************
 361:.\Generated_Source\PSoC4/CyLFClk.h ****         * Function Name: CySysClkWcoSetLowPowerMode
 362:.\Generated_Source\PSoC4/CyLFClk.h ****         ********************************************************************************
 363:.\Generated_Source\PSoC4/CyLFClk.h ****         *
 364:.\Generated_Source\PSoC4/CyLFClk.h ****         * Summary:
 365:.\Generated_Source\PSoC4/CyLFClk.h ****         *  Sets the low power mode for the 32 KHz WCO.
 366:.\Generated_Source\PSoC4/CyLFClk.h ****         *
 367:.\Generated_Source\PSoC4/CyLFClk.h ****         * Parameters:
 368:.\Generated_Source\PSoC4/CyLFClk.h ****         *  None.
 369:.\Generated_Source\PSoC4/CyLFClk.h ****         *
 370:.\Generated_Source\PSoC4/CyLFClk.h ****         * Return:
 371:.\Generated_Source\PSoC4/CyLFClk.h ****         *  None.
 372:.\Generated_Source\PSoC4/CyLFClk.h ****         *
 373:.\Generated_Source\PSoC4/CyLFClk.h ****         * Side Effects:
 374:.\Generated_Source\PSoC4/CyLFClk.h ****         *  None.
 375:.\Generated_Source\PSoC4/CyLFClk.h ****         *
 376:.\Generated_Source\PSoC4/CyLFClk.h ****         *******************************************************************************/
 377:.\Generated_Source\PSoC4/CyLFClk.h ****         static CY_INLINE void CySysClkWcoSetLowPowerMode(void)
 378:.\Generated_Source\PSoC4/CyLFClk.h ****         {
 379:.\Generated_Source\PSoC4/CyLFClk.h ****             /* Switch off auto low power mode in WCO */
 380:.\Generated_Source\PSoC4/CyLFClk.h ****             CY_SYS_CLK_WCO_CONFIG_REG &= ((uint32)~CY_SYS_CLK_WCO_CONFIG_LPM_AUTO);
 299              		.loc 2 380 0
 300 0044 0D4B     		ldr	r3, .L31
ARM GAS  C:\Users\mitchell\AppData\Local\Temp\ccP08FOF.s 			page 21


 301              	.LVL6:
 302 0046 1A68     		ldr	r2, [r3]
 303 0048 0221     		mov	r1, #2
 304 004a 8A43     		bic	r2, r1
 305 004c 1A60     		str	r2, [r3]
 381:.\Generated_Source\PSoC4/CyLFClk.h **** 
 382:.\Generated_Source\PSoC4/CyLFClk.h ****             /* Change WCO trim register settings to LPM */
 383:.\Generated_Source\PSoC4/CyLFClk.h ****             CY_SYS_CLK_WCO_TRIM_REG = (CY_SYS_CLK_WCO_TRIM_REG & (uint32)(~CY_SYS_CLK_WCO_TRIM_XGM_
 306              		.loc 2 383 0
 307 004e 0C4A     		ldr	r2, .L31+4
 308 0050 1068     		ldr	r0, [r2]
 309 0052 0725     		mov	r5, #7
 310 0054 A843     		bic	r0, r5
 384:.\Generated_Source\PSoC4/CyLFClk.h ****                         | (uint32)(CY_SYS_CLK_WCO_TRIM_XGM_2250NA << CY_SYS_CLK_WCO_TRIM_XGM_SHIFT)
 311              		.loc 2 384 0
 312 0056 0143     		orr	r1, r0
 383:.\Generated_Source\PSoC4/CyLFClk.h ****             CY_SYS_CLK_WCO_TRIM_REG = (CY_SYS_CLK_WCO_TRIM_REG & (uint32)(~CY_SYS_CLK_WCO_TRIM_XGM_
 313              		.loc 2 383 0
 314 0058 1160     		str	r1, [r2]
 385:.\Generated_Source\PSoC4/CyLFClk.h ****             CY_SYS_CLK_WCO_TRIM_REG = (CY_SYS_CLK_WCO_TRIM_REG & (uint32)(~CY_SYS_CLK_WCO_TRIM_GM_M
 315              		.loc 2 385 0
 316 005a 1168     		ldr	r1, [r2]
 317 005c 3020     		mov	r0, #48
 318 005e 8143     		bic	r1, r0
 386:.\Generated_Source\PSoC4/CyLFClk.h ****                         | (uint32)(CY_SYS_CLK_WCO_TRIM_GM_LPM << CY_SYS_CLK_WCO_TRIM_GM_SHIFT);
 319              		.loc 2 386 0
 320 0060 2020     		mov	r0, #32
 321 0062 0143     		orr	r1, r0
 385:.\Generated_Source\PSoC4/CyLFClk.h ****             CY_SYS_CLK_WCO_TRIM_REG = (CY_SYS_CLK_WCO_TRIM_REG & (uint32)(~CY_SYS_CLK_WCO_TRIM_GM_M
 322              		.loc 2 385 0
 323 0064 1160     		str	r1, [r2]
 387:.\Generated_Source\PSoC4/CyLFClk.h **** 
 388:.\Generated_Source\PSoC4/CyLFClk.h ****             /* Switch on low power mode for WCO */
 389:.\Generated_Source\PSoC4/CyLFClk.h ****             CY_SYS_CLK_WCO_CONFIG_REG |= CY_SYS_CLK_WCO_CONFIG_LPM_EN;
 324              		.loc 2 389 0
 325 0066 1968     		ldr	r1, [r3]
 326 0068 0122     		mov	r2, #1
 327 006a 0A43     		orr	r2, r1
 328 006c 1A60     		str	r2, [r3]
 329 006e 02E0     		b	.L29
 330              	.LVL7:
 331              	.L30:
 332              	.LBE13:
 333              	.LBE12:
 376:.\Generated_Source\PSoC4/CyLFClk.c ****             CYASSERT(0u != 0u);
 334              		.loc 1 376 0 discriminator 1
 335 0070 0020     		mov	r0, #0
 336 0072 FFF7FEFF 		bl	CyHalt
 337              	.LVL8:
 338              	.L29:
 381:.\Generated_Source\PSoC4/CyLFClk.c ****     }
 339              		.loc 1 381 0
 340 0076 201C     		mov	r0, r4
 341              		@ sp needed
 342              	.LVL9:
 343 0078 38BD     		pop	{r3, r4, r5, pc}
 344              	.L32:
ARM GAS  C:\Users\mitchell\AppData\Local\Temp\ccP08FOF.s 			page 22


 345 007a C046     		.align	2
 346              	.L31:
 347 007c 00F02E40 		.word	1076817920
 348 0080 00FF2E40 		.word	1076821760
 349              		.cfi_endproc
 350              	.LFE10:
 351              		.size	CySysClkWcoSetPowerMode, .-CySysClkWcoSetPowerMode
 352              		.section	.text.CySysWdtLock,"ax",%progbits
 353              		.align	2
 354              		.global	CySysWdtLock
 355              		.code	16
 356              		.thumb_func
 357              		.type	CySysWdtLock, %function
 358              	CySysWdtLock:
 359              	.LFB11:
 409:.\Generated_Source\PSoC4/CyLFClk.c ****     {
 360              		.loc 1 409 0
 361              		.cfi_startproc
 362 0000 08B5     		push	{r3, lr}
 363              		.cfi_def_cfa_offset 8
 364              		.cfi_offset 3, -8
 365              		.cfi_offset 14, -4
 411:.\Generated_Source\PSoC4/CyLFClk.c ****         interruptState = CyEnterCriticalSection();
 366              		.loc 1 411 0
 367 0002 FFF7FEFF 		bl	CyEnterCriticalSection
 368              	.LVL10:
 413:.\Generated_Source\PSoC4/CyLFClk.c ****         CY_SYS_CLK_SELECT_REG = (CY_SYS_CLK_SELECT_REG & (uint32)(~CY_SYS_WDT_CLK_LOCK_BITS_MASK)) 
 369              		.loc 1 413 0
 370 0006 044B     		ldr	r3, .L34
 371 0008 1968     		ldr	r1, [r3]
 372 000a C022     		mov	r2, #192
 373 000c 1202     		lsl	r2, r2, #8
 374 000e 0A43     		orr	r2, r1
 375 0010 1A60     		str	r2, [r3]
 416:.\Generated_Source\PSoC4/CyLFClk.c ****         CyExitCriticalSection(interruptState);
 376              		.loc 1 416 0
 377 0012 FFF7FEFF 		bl	CyExitCriticalSection
 378              	.LVL11:
 417:.\Generated_Source\PSoC4/CyLFClk.c ****     }
 379              		.loc 1 417 0
 380              		@ sp needed
 381 0016 08BD     		pop	{r3, pc}
 382              	.L35:
 383              		.align	2
 384              	.L34:
 385 0018 00010B40 		.word	1074462976
 386              		.cfi_endproc
 387              	.LFE11:
 388              		.size	CySysWdtLock, .-CySysWdtLock
 389              		.section	.text.CySysWdtUnlock,"ax",%progbits
 390              		.align	2
 391              		.global	CySysWdtUnlock
 392              		.code	16
 393              		.thumb_func
 394              		.type	CySysWdtUnlock, %function
 395              	CySysWdtUnlock:
 396              	.LFB13:
ARM GAS  C:\Users\mitchell\AppData\Local\Temp\ccP08FOF.s 			page 23


 439:.\Generated_Source\PSoC4/CyLFClk.c **** 
 440:.\Generated_Source\PSoC4/CyLFClk.c **** 
 441:.\Generated_Source\PSoC4/CyLFClk.c ****     /*******************************************************************************
 442:.\Generated_Source\PSoC4/CyLFClk.c ****     * Function Name: CySysWdtUnlock
 443:.\Generated_Source\PSoC4/CyLFClk.c ****     ********************************************************************************
 444:.\Generated_Source\PSoC4/CyLFClk.c ****     *
 445:.\Generated_Source\PSoC4/CyLFClk.c ****     * Summary:
 446:.\Generated_Source\PSoC4/CyLFClk.c ****     *  Unlocks the Watchdog Timer configuration register.
 447:.\Generated_Source\PSoC4/CyLFClk.c ****     *
 448:.\Generated_Source\PSoC4/CyLFClk.c ****     * Parameters:
 449:.\Generated_Source\PSoC4/CyLFClk.c ****     *  None.
 450:.\Generated_Source\PSoC4/CyLFClk.c ****     *
 451:.\Generated_Source\PSoC4/CyLFClk.c ****     * Return:
 452:.\Generated_Source\PSoC4/CyLFClk.c ****     *  None.
 453:.\Generated_Source\PSoC4/CyLFClk.c ****     *
 454:.\Generated_Source\PSoC4/CyLFClk.c ****     *******************************************************************************/
 455:.\Generated_Source\PSoC4/CyLFClk.c ****     void CySysWdtUnlock(void)
 456:.\Generated_Source\PSoC4/CyLFClk.c ****     {
 397              		.loc 1 456 0
 398              		.cfi_startproc
 399 0000 10B5     		push	{r4, lr}
 400              		.cfi_def_cfa_offset 8
 401              		.cfi_offset 4, -8
 402              		.cfi_offset 14, -4
 457:.\Generated_Source\PSoC4/CyLFClk.c ****         uint8 interruptState;
 458:.\Generated_Source\PSoC4/CyLFClk.c ****         interruptState = CyEnterCriticalSection();
 403              		.loc 1 458 0
 404 0002 FFF7FEFF 		bl	CyEnterCriticalSection
 405              	.LVL12:
 459:.\Generated_Source\PSoC4/CyLFClk.c **** 
 460:.\Generated_Source\PSoC4/CyLFClk.c ****         /* Removing WDT lock requires two writes */
 461:.\Generated_Source\PSoC4/CyLFClk.c ****         CY_SYS_CLK_SELECT_REG = ((CY_SYS_CLK_SELECT_REG & (uint32)(~CY_SYS_WDT_CLK_LOCK_BITS_MASK))
 406              		.loc 1 461 0
 407 0006 084B     		ldr	r3, .L37
 408 0008 1968     		ldr	r1, [r3]
 409 000a 084A     		ldr	r2, .L37+4
 410 000c 1140     		and	r1, r2
 411 000e 8024     		mov	r4, #128
 412 0010 E401     		lsl	r4, r4, #7
 413 0012 2143     		orr	r1, r4
 414 0014 1960     		str	r1, [r3]
 462:.\Generated_Source\PSoC4/CyLFClk.c ****                 CY_SYS_WDT_CLK_LOCK_BIT0);
 463:.\Generated_Source\PSoC4/CyLFClk.c **** 
 464:.\Generated_Source\PSoC4/CyLFClk.c ****         CY_SYS_CLK_SELECT_REG = ((CY_SYS_CLK_SELECT_REG & (uint32)(~CY_SYS_WDT_CLK_LOCK_BITS_MASK))
 415              		.loc 1 464 0
 416 0016 1968     		ldr	r1, [r3]
 417 0018 0A40     		and	r2, r1
 418 001a 8021     		mov	r1, #128
 419 001c 0902     		lsl	r1, r1, #8
 420 001e 0A43     		orr	r2, r1
 421 0020 1A60     		str	r2, [r3]
 465:.\Generated_Source\PSoC4/CyLFClk.c ****                 CY_SYS_WDT_CLK_LOCK_BIT1);
 466:.\Generated_Source\PSoC4/CyLFClk.c **** 
 467:.\Generated_Source\PSoC4/CyLFClk.c ****         CyExitCriticalSection(interruptState);
 422              		.loc 1 467 0
 423 0022 FFF7FEFF 		bl	CyExitCriticalSection
 424              	.LVL13:
ARM GAS  C:\Users\mitchell\AppData\Local\Temp\ccP08FOF.s 			page 24


 468:.\Generated_Source\PSoC4/CyLFClk.c ****     }
 425              		.loc 1 468 0
 426              		@ sp needed
 427 0026 10BD     		pop	{r4, pc}
 428              	.L38:
 429              		.align	2
 430              	.L37:
 431 0028 00010B40 		.word	1074462976
 432 002c FF3FFFFF 		.word	-49153
 433              		.cfi_endproc
 434              	.LFE13:
 435              		.size	CySysWdtUnlock, .-CySysWdtUnlock
 436              		.section	.text.CySysWdtGetEnabledStatus,"ax",%progbits
 437              		.align	2
 438              		.global	CySysWdtGetEnabledStatus
 439              		.code	16
 440              		.thumb_func
 441              		.type	CySysWdtGetEnabledStatus, %function
 442              	CySysWdtGetEnabledStatus:
 443              	.LFB14:
 469:.\Generated_Source\PSoC4/CyLFClk.c **** 
 470:.\Generated_Source\PSoC4/CyLFClk.c **** 
 471:.\Generated_Source\PSoC4/CyLFClk.c ****     /*******************************************************************************
 472:.\Generated_Source\PSoC4/CyLFClk.c ****     * Function Name: CySysWdtGetEnabledStatus
 473:.\Generated_Source\PSoC4/CyLFClk.c ****     ********************************************************************************
 474:.\Generated_Source\PSoC4/CyLFClk.c ****     *
 475:.\Generated_Source\PSoC4/CyLFClk.c ****     * Summary:
 476:.\Generated_Source\PSoC4/CyLFClk.c ****     *  Reads the enabled status of one of the three WDT counters.
 477:.\Generated_Source\PSoC4/CyLFClk.c ****     *
 478:.\Generated_Source\PSoC4/CyLFClk.c ****     * Parameters:
 479:.\Generated_Source\PSoC4/CyLFClk.c ****     *  counterNum: Valid range [0-2].  the number of the WDT counter.
 480:.\Generated_Source\PSoC4/CyLFClk.c ****     *
 481:.\Generated_Source\PSoC4/CyLFClk.c ****     * Return:
 482:.\Generated_Source\PSoC4/CyLFClk.c ****     *  The status of the WDT counter:
 483:.\Generated_Source\PSoC4/CyLFClk.c ****     *   0 - The counter is disabled.
 484:.\Generated_Source\PSoC4/CyLFClk.c ****     *   1 - The counter is enabled.
 485:.\Generated_Source\PSoC4/CyLFClk.c ****     *
 486:.\Generated_Source\PSoC4/CyLFClk.c ****     * Side Effects:
 487:.\Generated_Source\PSoC4/CyLFClk.c ****     *  This function returns an actual WDT counter status from the status register. It may
 488:.\Generated_Source\PSoC4/CyLFClk.c ****     *  take up to 3 LFCLK cycles for the WDT status register to contain actual data
 489:.\Generated_Source\PSoC4/CyLFClk.c ****     *  after the WDT counter is enabled.
 490:.\Generated_Source\PSoC4/CyLFClk.c ****     *
 491:.\Generated_Source\PSoC4/CyLFClk.c ****     *
 492:.\Generated_Source\PSoC4/CyLFClk.c ****     *******************************************************************************/
 493:.\Generated_Source\PSoC4/CyLFClk.c ****     uint32 CySysWdtGetEnabledStatus(uint32 counterNum)
 494:.\Generated_Source\PSoC4/CyLFClk.c ****     {
 444              		.loc 1 494 0
 445              		.cfi_startproc
 446              	.LVL14:
 447 0000 10B5     		push	{r4, lr}
 448              		.cfi_def_cfa_offset 8
 449              		.cfi_offset 4, -8
 450              		.cfi_offset 14, -4
 451 0002 041E     		sub	r4, r0, #0
 495:.\Generated_Source\PSoC4/CyLFClk.c ****         CYASSERT(counterNum < CY_SYS_WDT_COUNTERS_MAX);
 452              		.loc 1 495 0
 453 0004 022C     		cmp	r4, #2
ARM GAS  C:\Users\mitchell\AppData\Local\Temp\ccP08FOF.s 			page 25


 454 0006 02D9     		bls	.L40
 455              		.loc 1 495 0 is_stmt 0 discriminator 1
 456 0008 0020     		mov	r0, #0
 457              	.LVL15:
 458 000a FFF7FEFF 		bl	CyHalt
 459              	.LVL16:
 460              	.L40:
 496:.\Generated_Source\PSoC4/CyLFClk.c ****         return ((CY_SYS_WDT_CONTROL_REG >> ((CY_SYS_WDT_CNT_SHIFT * counterNum) + CY_SYS_WDT_CNT_ST
 461              		.loc 1 496 0 is_stmt 1
 462 000e 044B     		ldr	r3, .L41
 463 0010 1868     		ldr	r0, [r3]
 464 0012 E400     		lsl	r4, r4, #3
 465              	.LVL17:
 466 0014 0134     		add	r4, r4, #1
 467 0016 E040     		lsr	r0, r0, r4
 468 0018 0124     		mov	r4, #1
 469 001a 2040     		and	r0, r4
 497:.\Generated_Source\PSoC4/CyLFClk.c ****     }
 470              		.loc 1 497 0
 471              		@ sp needed
 472 001c 10BD     		pop	{r4, pc}
 473              	.L42:
 474 001e C046     		.align	2
 475              	.L41:
 476 0020 10020B40 		.word	1074463248
 477              		.cfi_endproc
 478              	.LFE14:
 479              		.size	CySysWdtGetEnabledStatus, .-CySysWdtGetEnabledStatus
 480              		.section	.text.CySysWdtSetMode,"ax",%progbits
 481              		.align	2
 482              		.global	CySysWdtSetMode
 483              		.code	16
 484              		.thumb_func
 485              		.type	CySysWdtSetMode, %function
 486              	CySysWdtSetMode:
 487              	.LFB15:
 498:.\Generated_Source\PSoC4/CyLFClk.c **** 
 499:.\Generated_Source\PSoC4/CyLFClk.c **** 
 500:.\Generated_Source\PSoC4/CyLFClk.c ****     /*******************************************************************************
 501:.\Generated_Source\PSoC4/CyLFClk.c ****     * Function Name: CySysWdtSetMode
 502:.\Generated_Source\PSoC4/CyLFClk.c ****     ********************************************************************************
 503:.\Generated_Source\PSoC4/CyLFClk.c ****     *
 504:.\Generated_Source\PSoC4/CyLFClk.c ****     * Summary:
 505:.\Generated_Source\PSoC4/CyLFClk.c ****     *   Writes the mode of one of the three WDT counters.
 506:.\Generated_Source\PSoC4/CyLFClk.c ****     *
 507:.\Generated_Source\PSoC4/CyLFClk.c ****     * Parameters:
 508:.\Generated_Source\PSoC4/CyLFClk.c ****     *   counterNum: Valid range [0-2].  The number of the WDT counter.
 509:.\Generated_Source\PSoC4/CyLFClk.c ****     *   mode:       Mode of operation for the counter.
 510:.\Generated_Source\PSoC4/CyLFClk.c ****     *       Define                     Mode
 511:.\Generated_Source\PSoC4/CyLFClk.c ****     *        CY_SYS_WDT_MODE_NONE       Free running
 512:.\Generated_Source\PSoC4/CyLFClk.c ****     *        CY_SYS_WDT_MODE_INT        The interrupt generated on match for counter 0
 513:.\Generated_Source\PSoC4/CyLFClk.c ****     *                                   and 1, and on bit toggle for counter 2.
 514:.\Generated_Source\PSoC4/CyLFClk.c ****     *        CY_SYS_WDT_MODE_RESET      Reset on match (valid for counter 0 and 1
 515:.\Generated_Source\PSoC4/CyLFClk.c ****     *                                   only)
 516:.\Generated_Source\PSoC4/CyLFClk.c ****     *        CY_SYS_WDT_MODE_INT_RESET  Generate an interrupt.  Generate a reset on
 517:.\Generated_Source\PSoC4/CyLFClk.c ****     *                                   the 3rd non-handled interrupt.
 518:.\Generated_Source\PSoC4/CyLFClk.c ****     *                                   (valid for counter 0 and 1 only)
ARM GAS  C:\Users\mitchell\AppData\Local\Temp\ccP08FOF.s 			page 26


 519:.\Generated_Source\PSoC4/CyLFClk.c ****     * Return:
 520:.\Generated_Source\PSoC4/CyLFClk.c ****     *   None.
 521:.\Generated_Source\PSoC4/CyLFClk.c ****     *
 522:.\Generated_Source\PSoC4/CyLFClk.c ****     * Side Effects:
 523:.\Generated_Source\PSoC4/CyLFClk.c ****     *   WDT counter counterNum should be disabled to set a mode. Otherwise, this
 524:.\Generated_Source\PSoC4/CyLFClk.c ****     *   function call has no effect. If the specified counter is enabled,
 525:.\Generated_Source\PSoC4/CyLFClk.c ****     *   call the CySysWdtDisable() function with the corresponding parameter to
 526:.\Generated_Source\PSoC4/CyLFClk.c ****     *   disable the specified counter and wait for it to stop.
 527:.\Generated_Source\PSoC4/CyLFClk.c ****     *
 528:.\Generated_Source\PSoC4/CyLFClk.c ****     *******************************************************************************/
 529:.\Generated_Source\PSoC4/CyLFClk.c ****     void CySysWdtSetMode(uint32 counterNum, uint32 mode)
 530:.\Generated_Source\PSoC4/CyLFClk.c ****     {
 488              		.loc 1 530 0
 489              		.cfi_startproc
 490              	.LVL18:
 491 0000 38B5     		push	{r3, r4, r5, lr}
 492              		.cfi_def_cfa_offset 16
 493              		.cfi_offset 3, -16
 494              		.cfi_offset 4, -12
 495              		.cfi_offset 5, -8
 496              		.cfi_offset 14, -4
 497 0002 041C     		mov	r4, r0
 498 0004 0D1C     		mov	r5, r1
 531:.\Generated_Source\PSoC4/CyLFClk.c ****         uint32 configRegValue;
 532:.\Generated_Source\PSoC4/CyLFClk.c **** 
 533:.\Generated_Source\PSoC4/CyLFClk.c ****         CYASSERT(counterNum < CY_SYS_WDT_COUNTERS_MAX);
 499              		.loc 1 533 0
 500 0006 0228     		cmp	r0, #2
 501 0008 02D9     		bls	.L44
 502              		.loc 1 533 0 is_stmt 0 discriminator 1
 503 000a 0020     		mov	r0, #0
 504              	.LVL19:
 505 000c FFF7FEFF 		bl	CyHalt
 506              	.LVL20:
 507              	.L44:
 534:.\Generated_Source\PSoC4/CyLFClk.c **** 
 535:.\Generated_Source\PSoC4/CyLFClk.c ****         if(0u == CySysWdtGetEnabledStatus(counterNum))
 508              		.loc 1 535 0 is_stmt 1
 509 0010 201C     		mov	r0, r4
 510 0012 FFF7FEFF 		bl	CySysWdtGetEnabledStatus
 511              	.LVL21:
 512 0016 0028     		cmp	r0, #0
 513 0018 0BD1     		bne	.L43
 536:.\Generated_Source\PSoC4/CyLFClk.c ****         {
 537:.\Generated_Source\PSoC4/CyLFClk.c ****             configRegValue = CY_SYS_WDT_CONFIG_REG &
 514              		.loc 1 537 0
 515 001a 064B     		ldr	r3, .L46
 516 001c 1968     		ldr	r1, [r3]
 538:.\Generated_Source\PSoC4/CyLFClk.c ****                                 (uint32)~((uint32)(CY_SYS_WDT_MODE_MASK << (counterNum * CY_SYS_WDT
 517              		.loc 1 538 0
 518 001e E400     		lsl	r4, r4, #3
 519              	.LVL22:
 520 0020 0322     		mov	r2, #3
 521 0022 101C     		mov	r0, r2
 522 0024 A040     		lsl	r0, r0, r4
 537:.\Generated_Source\PSoC4/CyLFClk.c ****             configRegValue = CY_SYS_WDT_CONFIG_REG &
 523              		.loc 1 537 0
ARM GAS  C:\Users\mitchell\AppData\Local\Temp\ccP08FOF.s 			page 27


 524 0026 8143     		bic	r1, r0
 525              	.LVL23:
 539:.\Generated_Source\PSoC4/CyLFClk.c ****             configRegValue |= (uint32)((mode & CY_SYS_WDT_MODE_MASK) << (counterNum * CY_SYS_WDT_CN
 526              		.loc 1 539 0
 527 0028 2A40     		and	r2, r5
 528 002a A240     		lsl	r2, r2, r4
 529 002c 141C     		mov	r4, r2
 530 002e 0C43     		orr	r4, r1
 531              	.LVL24:
 540:.\Generated_Source\PSoC4/CyLFClk.c ****             CY_SYS_WDT_CONFIG_REG = configRegValue;
 532              		.loc 1 540 0
 533 0030 1C60     		str	r4, [r3]
 534              	.LVL25:
 535              	.L43:
 541:.\Generated_Source\PSoC4/CyLFClk.c ****         }
 542:.\Generated_Source\PSoC4/CyLFClk.c ****     }
 536              		.loc 1 542 0
 537              		@ sp needed
 538              	.LVL26:
 539 0032 38BD     		pop	{r3, r4, r5, pc}
 540              	.L47:
 541              		.align	2
 542              	.L46:
 543 0034 0C020B40 		.word	1074463244
 544              		.cfi_endproc
 545              	.LFE15:
 546              		.size	CySysWdtSetMode, .-CySysWdtSetMode
 547              		.section	.text.CySysClkLfclkPosedgeRestore,"ax",%progbits
 548              		.align	2
 549              		.code	16
 550              		.thumb_func
 551              		.type	CySysClkLfclkPosedgeRestore, %function
 552              	CySysClkLfclkPosedgeRestore:
 553              	.LFB40:
 543:.\Generated_Source\PSoC4/CyLFClk.c **** 
 544:.\Generated_Source\PSoC4/CyLFClk.c **** 
 545:.\Generated_Source\PSoC4/CyLFClk.c ****     /*******************************************************************************
 546:.\Generated_Source\PSoC4/CyLFClk.c ****     * Function Name: CySysWdtGetMode
 547:.\Generated_Source\PSoC4/CyLFClk.c ****     ********************************************************************************
 548:.\Generated_Source\PSoC4/CyLFClk.c ****     *
 549:.\Generated_Source\PSoC4/CyLFClk.c ****     * Summary:
 550:.\Generated_Source\PSoC4/CyLFClk.c ****     *  Reads the mode of one of the three WDT counters.
 551:.\Generated_Source\PSoC4/CyLFClk.c ****     *
 552:.\Generated_Source\PSoC4/CyLFClk.c ****     * Parameters:
 553:.\Generated_Source\PSoC4/CyLFClk.c ****     *  counterNum: Valid range [0-2].  The number of the WDT counter.
 554:.\Generated_Source\PSoC4/CyLFClk.c ****     *
 555:.\Generated_Source\PSoC4/CyLFClk.c ****     * Return:
 556:.\Generated_Source\PSoC4/CyLFClk.c ****     *  The mode of the counter.  The same enumerated values as the mode parameter used in
 557:.\Generated_Source\PSoC4/CyLFClk.c ****     *  CySysWdtSetMode().
 558:.\Generated_Source\PSoC4/CyLFClk.c ****     *
 559:.\Generated_Source\PSoC4/CyLFClk.c ****     *******************************************************************************/
 560:.\Generated_Source\PSoC4/CyLFClk.c ****     uint32 CySysWdtGetMode(uint32 counterNum)
 561:.\Generated_Source\PSoC4/CyLFClk.c ****     {
 562:.\Generated_Source\PSoC4/CyLFClk.c ****         return ((CY_SYS_WDT_CONFIG_REG >> (counterNum * CY_SYS_WDT_CNT_SHIFT)) & CY_SYS_WDT_MODE_MA
 563:.\Generated_Source\PSoC4/CyLFClk.c ****     }
 564:.\Generated_Source\PSoC4/CyLFClk.c **** 
 565:.\Generated_Source\PSoC4/CyLFClk.c **** 
ARM GAS  C:\Users\mitchell\AppData\Local\Temp\ccP08FOF.s 			page 28


 566:.\Generated_Source\PSoC4/CyLFClk.c ****     /*******************************************************************************
 567:.\Generated_Source\PSoC4/CyLFClk.c ****     * Function Name: CySysWdtSetClearOnMatch
 568:.\Generated_Source\PSoC4/CyLFClk.c ****     ********************************************************************************
 569:.\Generated_Source\PSoC4/CyLFClk.c ****     *
 570:.\Generated_Source\PSoC4/CyLFClk.c ****     * Summary:
 571:.\Generated_Source\PSoC4/CyLFClk.c ****     *  Configures the WDT counter "clear on match" setting.  If configured to "clear
 572:.\Generated_Source\PSoC4/CyLFClk.c ****     *  on match", the counter counts from 0 to MatchValue giving it a
 573:.\Generated_Source\PSoC4/CyLFClk.c ****     *  period of (MatchValue + 1).
 574:.\Generated_Source\PSoC4/CyLFClk.c ****     *
 575:.\Generated_Source\PSoC4/CyLFClk.c ****     * Parameters:
 576:.\Generated_Source\PSoC4/CyLFClk.c ****     *  counterNum:
 577:.\Generated_Source\PSoC4/CyLFClk.c ****     *   Valid range [0-1].  The number of the WDT counter.  The match values are not
 578:.\Generated_Source\PSoC4/CyLFClk.c ****     *   supported by counter 2.
 579:.\Generated_Source\PSoC4/CyLFClk.c ****     *
 580:.\Generated_Source\PSoC4/CyLFClk.c ****     * enable:
 581:.\Generated_Source\PSoC4/CyLFClk.c ****     *   0 to disable, 1 to enable
 582:.\Generated_Source\PSoC4/CyLFClk.c ****     *
 583:.\Generated_Source\PSoC4/CyLFClk.c ****     * Return:
 584:.\Generated_Source\PSoC4/CyLFClk.c ****     *   None.
 585:.\Generated_Source\PSoC4/CyLFClk.c ****     *
 586:.\Generated_Source\PSoC4/CyLFClk.c ****     * Side Effects:
 587:.\Generated_Source\PSoC4/CyLFClk.c ****     *   WDT counter counterNum should be disabled. Otherwise this function call
 588:.\Generated_Source\PSoC4/CyLFClk.c ****     *   has no effect. If the specified counter is enabled, call the CySysWdtDisable()
 589:.\Generated_Source\PSoC4/CyLFClk.c ****     *   function with the corresponding parameter to disable the specified counter and
 590:.\Generated_Source\PSoC4/CyLFClk.c ****     *   wait for it to stop. This may take up to three LFCLK cycles.
 591:.\Generated_Source\PSoC4/CyLFClk.c ****     *
 592:.\Generated_Source\PSoC4/CyLFClk.c ****     *******************************************************************************/
 593:.\Generated_Source\PSoC4/CyLFClk.c ****     void CySysWdtSetClearOnMatch(uint32 counterNum, uint32 enable)
 594:.\Generated_Source\PSoC4/CyLFClk.c ****     {
 595:.\Generated_Source\PSoC4/CyLFClk.c ****         uint32 configRegValue;
 596:.\Generated_Source\PSoC4/CyLFClk.c **** 
 597:.\Generated_Source\PSoC4/CyLFClk.c ****         CYASSERT((counterNum == CY_SYS_WDT_COUNTER0) ||
 598:.\Generated_Source\PSoC4/CyLFClk.c ****                  (counterNum == CY_SYS_WDT_COUNTER1));
 599:.\Generated_Source\PSoC4/CyLFClk.c **** 
 600:.\Generated_Source\PSoC4/CyLFClk.c ****         if(0u == CySysWdtGetEnabledStatus(counterNum))
 601:.\Generated_Source\PSoC4/CyLFClk.c ****         {
 602:.\Generated_Source\PSoC4/CyLFClk.c ****             configRegValue = CY_SYS_WDT_CONFIG_REG &
 603:.\Generated_Source\PSoC4/CyLFClk.c ****                 (uint32)~((uint32)((uint32)1u << ((counterNum * CY_SYS_WDT_CNT_SHIFT) + CY_SYS_WDT_
 604:.\Generated_Source\PSoC4/CyLFClk.c **** 
 605:.\Generated_Source\PSoC4/CyLFClk.c ****             configRegValue
 606:.\Generated_Source\PSoC4/CyLFClk.c ****                 |= (uint32)(enable << ((counterNum * CY_SYS_WDT_CNT_SHIFT) + CY_SYS_WDT_CNT_MATCH_C
 607:.\Generated_Source\PSoC4/CyLFClk.c **** 
 608:.\Generated_Source\PSoC4/CyLFClk.c ****             CY_SYS_WDT_CONFIG_REG = configRegValue;
 609:.\Generated_Source\PSoC4/CyLFClk.c ****         }
 610:.\Generated_Source\PSoC4/CyLFClk.c ****     }
 611:.\Generated_Source\PSoC4/CyLFClk.c **** 
 612:.\Generated_Source\PSoC4/CyLFClk.c **** 
 613:.\Generated_Source\PSoC4/CyLFClk.c ****     /*******************************************************************************
 614:.\Generated_Source\PSoC4/CyLFClk.c ****     * Function Name: CySysWdtGetClearOnMatch
 615:.\Generated_Source\PSoC4/CyLFClk.c ****     ********************************************************************************
 616:.\Generated_Source\PSoC4/CyLFClk.c ****     *
 617:.\Generated_Source\PSoC4/CyLFClk.c ****     * Summary:
 618:.\Generated_Source\PSoC4/CyLFClk.c ****     *  Reads the "clear on match" setting for the specified counter.
 619:.\Generated_Source\PSoC4/CyLFClk.c ****     *
 620:.\Generated_Source\PSoC4/CyLFClk.c ****     * Parameters:
 621:.\Generated_Source\PSoC4/CyLFClk.c ****     *   counterNum: Valid range [0-1].  The number of the WDT counter.  The match values are
 622:.\Generated_Source\PSoC4/CyLFClk.c ****     *               not supported by counter 2.
ARM GAS  C:\Users\mitchell\AppData\Local\Temp\ccP08FOF.s 			page 29


 623:.\Generated_Source\PSoC4/CyLFClk.c ****     *
 624:.\Generated_Source\PSoC4/CyLFClk.c ****     * Return:
 625:.\Generated_Source\PSoC4/CyLFClk.c ****     *   The "clear on match" status: 1 if enabled, 0 if disabled
 626:.\Generated_Source\PSoC4/CyLFClk.c ****     *
 627:.\Generated_Source\PSoC4/CyLFClk.c ****     *******************************************************************************/
 628:.\Generated_Source\PSoC4/CyLFClk.c ****     uint32 CySysWdtGetClearOnMatch(uint32 counterNum)
 629:.\Generated_Source\PSoC4/CyLFClk.c ****     {
 630:.\Generated_Source\PSoC4/CyLFClk.c ****         CYASSERT((counterNum == CY_SYS_WDT_COUNTER0) ||
 631:.\Generated_Source\PSoC4/CyLFClk.c ****                  (counterNum == CY_SYS_WDT_COUNTER1));
 632:.\Generated_Source\PSoC4/CyLFClk.c **** 
 633:.\Generated_Source\PSoC4/CyLFClk.c ****         return (uint32)((CY_SYS_WDT_CONFIG_REG >>
 634:.\Generated_Source\PSoC4/CyLFClk.c ****                         ((counterNum * CY_SYS_WDT_CNT_SHIFT) + CY_SYS_WDT_CNT_MATCH_CLR_SHIFT)) & 0
 635:.\Generated_Source\PSoC4/CyLFClk.c ****     }
 636:.\Generated_Source\PSoC4/CyLFClk.c **** 
 637:.\Generated_Source\PSoC4/CyLFClk.c **** 
 638:.\Generated_Source\PSoC4/CyLFClk.c ****     /*******************************************************************************
 639:.\Generated_Source\PSoC4/CyLFClk.c ****     * Function Name: CySysWdtEnable
 640:.\Generated_Source\PSoC4/CyLFClk.c ****     ********************************************************************************
 641:.\Generated_Source\PSoC4/CyLFClk.c ****     *
 642:.\Generated_Source\PSoC4/CyLFClk.c ****     * Summary:
 643:.\Generated_Source\PSoC4/CyLFClk.c ****     *  Enables the specified WDT counters.  All the counters specified in the mask
 644:.\Generated_Source\PSoC4/CyLFClk.c ****     *  are enabled.
 645:.\Generated_Source\PSoC4/CyLFClk.c ****     *
 646:.\Generated_Source\PSoC4/CyLFClk.c ****     * Parameters:
 647:.\Generated_Source\PSoC4/CyLFClk.c ****     *  counterMask: The mask of all counters to enable.
 648:.\Generated_Source\PSoC4/CyLFClk.c ****     *       Define                       Counter
 649:.\Generated_Source\PSoC4/CyLFClk.c ****     *      CY_SYS_WDT_COUNTER0_MASK      0
 650:.\Generated_Source\PSoC4/CyLFClk.c ****     *      CY_SYS_WDT_COUNTER1_MASK      1
 651:.\Generated_Source\PSoC4/CyLFClk.c ****     *      CY_SYS_WDT_COUNTER2_MASK      2
 652:.\Generated_Source\PSoC4/CyLFClk.c ****     *
 653:.\Generated_Source\PSoC4/CyLFClk.c ****     * Return:
 654:.\Generated_Source\PSoC4/CyLFClk.c ****     *  None
 655:.\Generated_Source\PSoC4/CyLFClk.c ****     *
 656:.\Generated_Source\PSoC4/CyLFClk.c ****     * Side Effects:
 657:.\Generated_Source\PSoC4/CyLFClk.c ****     *  Enabling or disabling WDT requires 3 LFCLK cycles to come into effect.
 658:.\Generated_Source\PSoC4/CyLFClk.c ****     *  Therefore, the WDT enable state must not be changed more than once in
 659:.\Generated_Source\PSoC4/CyLFClk.c ****     *  that period.
 660:.\Generated_Source\PSoC4/CyLFClk.c ****     *
 661:.\Generated_Source\PSoC4/CyLFClk.c ****     *  After WDT is enabled, it is illegal to write WDT configuration (WDT_CONFIG)
 662:.\Generated_Source\PSoC4/CyLFClk.c ****     *  and control (WDT_CONTROL) registers. This means that all WDT functions that
 663:.\Generated_Source\PSoC4/CyLFClk.c ****     *  contain 'write' in the name (with the exception of CySysWdtSetMatch()
 664:.\Generated_Source\PSoC4/CyLFClk.c ****     *  function) are illegal to call once WDT enabled.
 665:.\Generated_Source\PSoC4/CyLFClk.c ****     *
 666:.\Generated_Source\PSoC4/CyLFClk.c ****     *  PSoC 4100 / PSoC 4200:
 667:.\Generated_Source\PSoC4/CyLFClk.c ****     *  This function enables ILO.
 668:.\Generated_Source\PSoC4/CyLFClk.c ****     *
 669:.\Generated_Source\PSoC4/CyLFClk.c ****     *  PSoC 4100-BL / PSoC 4200-BL and PSoC 4100M / PSoC 4200M:
 670:.\Generated_Source\PSoC4/CyLFClk.c ****     *  LFLCK should be configured before calling this function. The desired
 671:.\Generated_Source\PSoC4/CyLFClk.c ****     *  source should be enabled and configured to be the source for LFCLK.
 672:.\Generated_Source\PSoC4/CyLFClk.c ****     *
 673:.\Generated_Source\PSoC4/CyLFClk.c ****     *******************************************************************************/
 674:.\Generated_Source\PSoC4/CyLFClk.c ****     void CySysWdtEnable(uint32 counterMask)
 675:.\Generated_Source\PSoC4/CyLFClk.c ****     {
 676:.\Generated_Source\PSoC4/CyLFClk.c ****         #if (!CY_IP_WCO)
 677:.\Generated_Source\PSoC4/CyLFClk.c ****             CySysClkIloStart();
 678:.\Generated_Source\PSoC4/CyLFClk.c ****         #endif /* (!CY_IP_WCO) */
 679:.\Generated_Source\PSoC4/CyLFClk.c **** 
ARM GAS  C:\Users\mitchell\AppData\Local\Temp\ccP08FOF.s 			page 30


 680:.\Generated_Source\PSoC4/CyLFClk.c ****         CY_SYS_WDT_CONTROL_REG |= counterMask;
 681:.\Generated_Source\PSoC4/CyLFClk.c **** 
 682:.\Generated_Source\PSoC4/CyLFClk.c ****         if(0u != (counterMask & CY_SYS_WDT_COUNTER0_MASK))
 683:.\Generated_Source\PSoC4/CyLFClk.c ****         {
 684:.\Generated_Source\PSoC4/CyLFClk.c ****             while (0u == CySysWdtGetEnabledStatus(CY_SYS_WDT_COUNTER0))
 685:.\Generated_Source\PSoC4/CyLFClk.c ****             {
 686:.\Generated_Source\PSoC4/CyLFClk.c ****                 /* Wait for changes to come into effect */
 687:.\Generated_Source\PSoC4/CyLFClk.c ****             }
 688:.\Generated_Source\PSoC4/CyLFClk.c ****         }
 689:.\Generated_Source\PSoC4/CyLFClk.c **** 
 690:.\Generated_Source\PSoC4/CyLFClk.c ****         if(0u != (counterMask & CY_SYS_WDT_COUNTER1_MASK))
 691:.\Generated_Source\PSoC4/CyLFClk.c ****         {
 692:.\Generated_Source\PSoC4/CyLFClk.c ****             while (0u == CySysWdtGetEnabledStatus(CY_SYS_WDT_COUNTER1))
 693:.\Generated_Source\PSoC4/CyLFClk.c ****             {
 694:.\Generated_Source\PSoC4/CyLFClk.c ****                 /* Wait for changes to come into effect */
 695:.\Generated_Source\PSoC4/CyLFClk.c ****             }
 696:.\Generated_Source\PSoC4/CyLFClk.c ****         }
 697:.\Generated_Source\PSoC4/CyLFClk.c **** 
 698:.\Generated_Source\PSoC4/CyLFClk.c ****         if(0u != (counterMask & CY_SYS_WDT_COUNTER2_MASK))
 699:.\Generated_Source\PSoC4/CyLFClk.c ****         {
 700:.\Generated_Source\PSoC4/CyLFClk.c ****             while (0u == CySysWdtGetEnabledStatus(CY_SYS_WDT_COUNTER2))
 701:.\Generated_Source\PSoC4/CyLFClk.c ****             {
 702:.\Generated_Source\PSoC4/CyLFClk.c ****                 /* Wait for changes to come into effect */
 703:.\Generated_Source\PSoC4/CyLFClk.c ****             }
 704:.\Generated_Source\PSoC4/CyLFClk.c ****         }
 705:.\Generated_Source\PSoC4/CyLFClk.c ****     }
 706:.\Generated_Source\PSoC4/CyLFClk.c **** 
 707:.\Generated_Source\PSoC4/CyLFClk.c **** 
 708:.\Generated_Source\PSoC4/CyLFClk.c ****     /*******************************************************************************
 709:.\Generated_Source\PSoC4/CyLFClk.c ****     * Function Name: CySysWdtDisable
 710:.\Generated_Source\PSoC4/CyLFClk.c ****     ********************************************************************************
 711:.\Generated_Source\PSoC4/CyLFClk.c ****     *
 712:.\Generated_Source\PSoC4/CyLFClk.c ****     * Summary:
 713:.\Generated_Source\PSoC4/CyLFClk.c ****     *  Disables the specified WDT counters. All the counters specified in the mask
 714:.\Generated_Source\PSoC4/CyLFClk.c ****     *  are disabled. The function waits for the changes to come into effect.
 715:.\Generated_Source\PSoC4/CyLFClk.c ****     *
 716:.\Generated_Source\PSoC4/CyLFClk.c ****     * Parameters:
 717:.\Generated_Source\PSoC4/CyLFClk.c ****     *  uint32 counterMask: The mask of all counters to disable
 718:.\Generated_Source\PSoC4/CyLFClk.c ****     *    Define                       Counter
 719:.\Generated_Source\PSoC4/CyLFClk.c ****     *   CY_SYS_WDT_COUNTER0_MASK      0
 720:.\Generated_Source\PSoC4/CyLFClk.c ****     *   CY_SYS_WDT_COUNTER1_MASK      1
 721:.\Generated_Source\PSoC4/CyLFClk.c ****     *   CY_SYS_WDT_COUNTER2_MASK      2
 722:.\Generated_Source\PSoC4/CyLFClk.c ****     *
 723:.\Generated_Source\PSoC4/CyLFClk.c ****     * Return:
 724:.\Generated_Source\PSoC4/CyLFClk.c ****     *   None.
 725:.\Generated_Source\PSoC4/CyLFClk.c ****     *
 726:.\Generated_Source\PSoC4/CyLFClk.c ****     *******************************************************************************/
 727:.\Generated_Source\PSoC4/CyLFClk.c ****     void CySysWdtDisable(uint32 counterMask)
 728:.\Generated_Source\PSoC4/CyLFClk.c ****     {
 729:.\Generated_Source\PSoC4/CyLFClk.c ****         if (0uL == CySysWdtLocked())
 730:.\Generated_Source\PSoC4/CyLFClk.c ****         {
 731:.\Generated_Source\PSoC4/CyLFClk.c ****             CY_SYS_WDT_CONTROL_REG &= ~counterMask;
 732:.\Generated_Source\PSoC4/CyLFClk.c **** 
 733:.\Generated_Source\PSoC4/CyLFClk.c ****             if(0u != (counterMask & CY_SYS_WDT_COUNTER0_MASK))
 734:.\Generated_Source\PSoC4/CyLFClk.c ****             {
 735:.\Generated_Source\PSoC4/CyLFClk.c ****                 while (0u != CySysWdtGetEnabledStatus(CY_SYS_WDT_COUNTER0))
 736:.\Generated_Source\PSoC4/CyLFClk.c ****                 {
ARM GAS  C:\Users\mitchell\AppData\Local\Temp\ccP08FOF.s 			page 31


 737:.\Generated_Source\PSoC4/CyLFClk.c ****                     /* Wait for changes to come into effect */
 738:.\Generated_Source\PSoC4/CyLFClk.c ****                 }
 739:.\Generated_Source\PSoC4/CyLFClk.c ****             }
 740:.\Generated_Source\PSoC4/CyLFClk.c **** 
 741:.\Generated_Source\PSoC4/CyLFClk.c ****             if(0u != (counterMask & CY_SYS_WDT_COUNTER1_MASK))
 742:.\Generated_Source\PSoC4/CyLFClk.c ****             {
 743:.\Generated_Source\PSoC4/CyLFClk.c ****                 while (0u != CySysWdtGetEnabledStatus(CY_SYS_WDT_COUNTER1))
 744:.\Generated_Source\PSoC4/CyLFClk.c ****                 {
 745:.\Generated_Source\PSoC4/CyLFClk.c ****                     /* Wait for changes to come into effect */
 746:.\Generated_Source\PSoC4/CyLFClk.c ****                 }
 747:.\Generated_Source\PSoC4/CyLFClk.c ****             }
 748:.\Generated_Source\PSoC4/CyLFClk.c **** 
 749:.\Generated_Source\PSoC4/CyLFClk.c ****             if(0u != (counterMask & CY_SYS_WDT_COUNTER2_MASK))
 750:.\Generated_Source\PSoC4/CyLFClk.c ****             {
 751:.\Generated_Source\PSoC4/CyLFClk.c ****                 while (0u != CySysWdtGetEnabledStatus(CY_SYS_WDT_COUNTER2))
 752:.\Generated_Source\PSoC4/CyLFClk.c ****                 {
 753:.\Generated_Source\PSoC4/CyLFClk.c ****                     /* Wait for changes to come into effect */
 754:.\Generated_Source\PSoC4/CyLFClk.c ****                 }
 755:.\Generated_Source\PSoC4/CyLFClk.c ****             }
 756:.\Generated_Source\PSoC4/CyLFClk.c ****         }
 757:.\Generated_Source\PSoC4/CyLFClk.c ****     }
 758:.\Generated_Source\PSoC4/CyLFClk.c **** 
 759:.\Generated_Source\PSoC4/CyLFClk.c **** 
 760:.\Generated_Source\PSoC4/CyLFClk.c ****     /*******************************************************************************
 761:.\Generated_Source\PSoC4/CyLFClk.c ****     * Function Name: CySysWdtSetCascade
 762:.\Generated_Source\PSoC4/CyLFClk.c ****     ********************************************************************************
 763:.\Generated_Source\PSoC4/CyLFClk.c ****     *
 764:.\Generated_Source\PSoC4/CyLFClk.c ****     * Summary:
 765:.\Generated_Source\PSoC4/CyLFClk.c ****     *   Writes the two WDT cascade values based on the combination of mask values
 766:.\Generated_Source\PSoC4/CyLFClk.c ****     *   specified.
 767:.\Generated_Source\PSoC4/CyLFClk.c ****     *
 768:.\Generated_Source\PSoC4/CyLFClk.c ****     * Parameters:
 769:.\Generated_Source\PSoC4/CyLFClk.c ****     *   cascadeMask: The mask value used to set or clear the cascade values.
 770:.\Generated_Source\PSoC4/CyLFClk.c ****     *   Define                     Cascade
 771:.\Generated_Source\PSoC4/CyLFClk.c ****     *   CY_SYS_WDT_CASCADE_NONE    Neither
 772:.\Generated_Source\PSoC4/CyLFClk.c ****     *   CY_SYS_WDT_CASCADE_01      Cascade 01
 773:.\Generated_Source\PSoC4/CyLFClk.c ****     *   CY_SYS_WDT_CASCADE_12      Cascade 12
 774:.\Generated_Source\PSoC4/CyLFClk.c ****     *
 775:.\Generated_Source\PSoC4/CyLFClk.c ****     *   To set both cascade modes, two defines should be ORed:
 776:.\Generated_Source\PSoC4/CyLFClk.c ****     *   (CY_SYS_WDT_CASCADE_01 | CY_SYS_WDT_CASCADE_12)
 777:.\Generated_Source\PSoC4/CyLFClk.c ****     *
 778:.\Generated_Source\PSoC4/CyLFClk.c ****     * Return:
 779:.\Generated_Source\PSoC4/CyLFClk.c ****     *   None.
 780:.\Generated_Source\PSoC4/CyLFClk.c ****     *
 781:.\Generated_Source\PSoC4/CyLFClk.c ****     * Side effects:
 782:.\Generated_Source\PSoC4/CyLFClk.c ****     *   If only one cascade mask is specified, the second cascade is disabled.
 783:.\Generated_Source\PSoC4/CyLFClk.c ****     *   To set both cascade modes, two defines should be ORed:
 784:.\Generated_Source\PSoC4/CyLFClk.c ****     *    (CY_SYS_WDT_CASCADE_01 | CY_SYS_WDT_CASCADE_12).
 785:.\Generated_Source\PSoC4/CyLFClk.c ****     *
 786:.\Generated_Source\PSoC4/CyLFClk.c ****     *   WDT counters that are part of the specified cascade should be disabled.
 787:.\Generated_Source\PSoC4/CyLFClk.c ****     *   Otherwise this function call has no effect. If the specified
 788:.\Generated_Source\PSoC4/CyLFClk.c ****     *   counter is enabled, call CySysWdtDisable() function with the corresponding
 789:.\Generated_Source\PSoC4/CyLFClk.c ****     *   parameter to disable the specified counter and wait for it to stop. This may
 790:.\Generated_Source\PSoC4/CyLFClk.c ****     *   take up to 3 LFCLK cycles.
 791:.\Generated_Source\PSoC4/CyLFClk.c ****     *
 792:.\Generated_Source\PSoC4/CyLFClk.c ****     *******************************************************************************/
 793:.\Generated_Source\PSoC4/CyLFClk.c ****     void CySysWdtSetCascade(uint32 cascadeMask)
ARM GAS  C:\Users\mitchell\AppData\Local\Temp\ccP08FOF.s 			page 32


 794:.\Generated_Source\PSoC4/CyLFClk.c ****     {
 795:.\Generated_Source\PSoC4/CyLFClk.c ****         uint32 configRegValue;
 796:.\Generated_Source\PSoC4/CyLFClk.c ****         uint32 countersEnableStatus;
 797:.\Generated_Source\PSoC4/CyLFClk.c **** 
 798:.\Generated_Source\PSoC4/CyLFClk.c ****         countersEnableStatus = CySysWdtGetEnabledStatus(CY_SYS_WDT_COUNTER0) |
 799:.\Generated_Source\PSoC4/CyLFClk.c ****                             CySysWdtGetEnabledStatus(CY_SYS_WDT_COUNTER1) |
 800:.\Generated_Source\PSoC4/CyLFClk.c ****                             CySysWdtGetEnabledStatus(CY_SYS_WDT_COUNTER2);
 801:.\Generated_Source\PSoC4/CyLFClk.c **** 
 802:.\Generated_Source\PSoC4/CyLFClk.c ****         if (0u == countersEnableStatus)
 803:.\Generated_Source\PSoC4/CyLFClk.c ****         {
 804:.\Generated_Source\PSoC4/CyLFClk.c ****             configRegValue = CY_SYS_WDT_CONFIG_REG;
 805:.\Generated_Source\PSoC4/CyLFClk.c ****             configRegValue &= ((uint32)(~(CY_SYS_WDT_CASCADE_01|CY_SYS_WDT_CASCADE_12)));
 806:.\Generated_Source\PSoC4/CyLFClk.c ****             configRegValue |= cascadeMask;
 807:.\Generated_Source\PSoC4/CyLFClk.c ****             CY_SYS_WDT_CONFIG_REG = configRegValue;
 808:.\Generated_Source\PSoC4/CyLFClk.c ****         }
 809:.\Generated_Source\PSoC4/CyLFClk.c ****     }
 810:.\Generated_Source\PSoC4/CyLFClk.c **** 
 811:.\Generated_Source\PSoC4/CyLFClk.c **** 
 812:.\Generated_Source\PSoC4/CyLFClk.c ****     /*******************************************************************************
 813:.\Generated_Source\PSoC4/CyLFClk.c ****     * Function Name: CySysWdtGetCascade
 814:.\Generated_Source\PSoC4/CyLFClk.c ****     ********************************************************************************
 815:.\Generated_Source\PSoC4/CyLFClk.c ****     *
 816:.\Generated_Source\PSoC4/CyLFClk.c ****     * Summary:
 817:.\Generated_Source\PSoC4/CyLFClk.c ****     *   Reads the two WDT cascade values returning a mask of the bits set.
 818:.\Generated_Source\PSoC4/CyLFClk.c ****     *
 819:.\Generated_Source\PSoC4/CyLFClk.c ****     * Parameters:
 820:.\Generated_Source\PSoC4/CyLFClk.c ****     *   None.
 821:.\Generated_Source\PSoC4/CyLFClk.c ****     *
 822:.\Generated_Source\PSoC4/CyLFClk.c ****     * Return:
 823:.\Generated_Source\PSoC4/CyLFClk.c ****     *   The mask of the cascade values set.
 824:.\Generated_Source\PSoC4/CyLFClk.c ****     *   Define                     Cascade
 825:.\Generated_Source\PSoC4/CyLFClk.c ****     *   CY_SYS_WDT_CASCADE_NONE    Neither
 826:.\Generated_Source\PSoC4/CyLFClk.c ****     *   CY_SYS_WDT_CASCADE_01      Cascade 01
 827:.\Generated_Source\PSoC4/CyLFClk.c ****     *   CY_SYS_WDT_CASCADE_12      Cascade 12
 828:.\Generated_Source\PSoC4/CyLFClk.c ****     *
 829:.\Generated_Source\PSoC4/CyLFClk.c ****     *******************************************************************************/
 830:.\Generated_Source\PSoC4/CyLFClk.c ****     uint32 CySysWdtGetCascade(void)
 831:.\Generated_Source\PSoC4/CyLFClk.c ****     {
 832:.\Generated_Source\PSoC4/CyLFClk.c ****         return (CY_SYS_WDT_CONFIG_REG & (CY_SYS_WDT_CASCADE_01 | CY_SYS_WDT_CASCADE_12));
 833:.\Generated_Source\PSoC4/CyLFClk.c ****     }
 834:.\Generated_Source\PSoC4/CyLFClk.c **** 
 835:.\Generated_Source\PSoC4/CyLFClk.c **** 
 836:.\Generated_Source\PSoC4/CyLFClk.c ****     /*******************************************************************************
 837:.\Generated_Source\PSoC4/CyLFClk.c ****     * Function Name: CySysWdtSetMatch
 838:.\Generated_Source\PSoC4/CyLFClk.c ****     ********************************************************************************
 839:.\Generated_Source\PSoC4/CyLFClk.c ****     *
 840:.\Generated_Source\PSoC4/CyLFClk.c ****     * Summary:
 841:.\Generated_Source\PSoC4/CyLFClk.c ****     *  Configures the WDT counter match comparison value.
 842:.\Generated_Source\PSoC4/CyLFClk.c ****     *
 843:.\Generated_Source\PSoC4/CyLFClk.c ****     * Parameters:
 844:.\Generated_Source\PSoC4/CyLFClk.c ****     *  counterNum:
 845:.\Generated_Source\PSoC4/CyLFClk.c ****     *   Valid range [0-1]. The number of the WDT counter. The match values are not
 846:.\Generated_Source\PSoC4/CyLFClk.c ****     *   supported by counter 2.
 847:.\Generated_Source\PSoC4/CyLFClk.c ****     *
 848:.\Generated_Source\PSoC4/CyLFClk.c ****     *  match:
 849:.\Generated_Source\PSoC4/CyLFClk.c ****     *   Valid range [0-65535]. The value to be used to match against the counter.
 850:.\Generated_Source\PSoC4/CyLFClk.c ****     *
ARM GAS  C:\Users\mitchell\AppData\Local\Temp\ccP08FOF.s 			page 33


 851:.\Generated_Source\PSoC4/CyLFClk.c ****     * Return:
 852:.\Generated_Source\PSoC4/CyLFClk.c ****     *   None.
 853:.\Generated_Source\PSoC4/CyLFClk.c ****     *
 854:.\Generated_Source\PSoC4/CyLFClk.c ****     *******************************************************************************/
 855:.\Generated_Source\PSoC4/CyLFClk.c ****     void CySysWdtSetMatch(uint32 counterNum, uint32 match)
 856:.\Generated_Source\PSoC4/CyLFClk.c ****     {
 857:.\Generated_Source\PSoC4/CyLFClk.c ****         uint32 regValue;
 858:.\Generated_Source\PSoC4/CyLFClk.c **** 
 859:.\Generated_Source\PSoC4/CyLFClk.c ****         CYASSERT((counterNum == CY_SYS_WDT_COUNTER0) ||
 860:.\Generated_Source\PSoC4/CyLFClk.c ****                  (counterNum == CY_SYS_WDT_COUNTER1));
 861:.\Generated_Source\PSoC4/CyLFClk.c **** 
 862:.\Generated_Source\PSoC4/CyLFClk.c ****         /* Wait for previous changes to come into effect */
 863:.\Generated_Source\PSoC4/CyLFClk.c ****         CyDelayUs(CY_SYS_WDT_3LFCLK_DELAY_US);
 864:.\Generated_Source\PSoC4/CyLFClk.c **** 
 865:.\Generated_Source\PSoC4/CyLFClk.c ****         regValue = CY_SYS_WDT_MATCH_REG;
 866:.\Generated_Source\PSoC4/CyLFClk.c ****         regValue &= (uint32)~((uint32)(CY_SYS_WDT_LOWER_16BITS_MASK << (counterNum * CY_SYS_WDT_CNT
 867:.\Generated_Source\PSoC4/CyLFClk.c ****         CY_SYS_WDT_MATCH_REG = (regValue | (match << (counterNum * CY_SYS_WDT_CNT_MATCH_SHIFT)));
 868:.\Generated_Source\PSoC4/CyLFClk.c **** 
 869:.\Generated_Source\PSoC4/CyLFClk.c ****         /* Make sure match synchronization has started */
 870:.\Generated_Source\PSoC4/CyLFClk.c ****         CyDelayUs(CY_SYS_WDT_1LFCLK_DELAY_US);
 871:.\Generated_Source\PSoC4/CyLFClk.c ****     }
 872:.\Generated_Source\PSoC4/CyLFClk.c **** 
 873:.\Generated_Source\PSoC4/CyLFClk.c **** 
 874:.\Generated_Source\PSoC4/CyLFClk.c ****     /*******************************************************************************
 875:.\Generated_Source\PSoC4/CyLFClk.c ****     * Function Name: CySysWdtSetToggleBit
 876:.\Generated_Source\PSoC4/CyLFClk.c ****     ********************************************************************************
 877:.\Generated_Source\PSoC4/CyLFClk.c ****     *
 878:.\Generated_Source\PSoC4/CyLFClk.c ****     * Summary:
 879:.\Generated_Source\PSoC4/CyLFClk.c ****     *  Configures which bit in WDT counter 2 to monitor for a toggle. When that
 880:.\Generated_Source\PSoC4/CyLFClk.c ****     *  bit toggles, an interrupt is generated if the mode for counter 2 has
 881:.\Generated_Source\PSoC4/CyLFClk.c ****     *  enabled interrupts.
 882:.\Generated_Source\PSoC4/CyLFClk.c ****     *
 883:.\Generated_Source\PSoC4/CyLFClk.c ****     * Parameters:
 884:.\Generated_Source\PSoC4/CyLFClk.c ****     *  bit:
 885:.\Generated_Source\PSoC4/CyLFClk.c ****     *   Valid range [0-31].  Counter 2 bit to monitor for a toggle.
 886:.\Generated_Source\PSoC4/CyLFClk.c ****     *
 887:.\Generated_Source\PSoC4/CyLFClk.c ****     * Return:
 888:.\Generated_Source\PSoC4/CyLFClk.c ****     *   None.
 889:.\Generated_Source\PSoC4/CyLFClk.c ****     *
 890:.\Generated_Source\PSoC4/CyLFClk.c ****     * Side effects:
 891:.\Generated_Source\PSoC4/CyLFClk.c ****     *   WDT Counter 2 should be disabled. Otherwise this function call has no
 892:.\Generated_Source\PSoC4/CyLFClk.c ****     *   effect.
 893:.\Generated_Source\PSoC4/CyLFClk.c ****     *
 894:.\Generated_Source\PSoC4/CyLFClk.c ****     *   If the specified counter is enabled, call the CySysWdtDisable() function with
 895:.\Generated_Source\PSoC4/CyLFClk.c ****     *   the corresponding parameter to disable the specified counter and wait for it to
 896:.\Generated_Source\PSoC4/CyLFClk.c ****     *   stop. This may take up to 3 LFCLK cycles.
 897:.\Generated_Source\PSoC4/CyLFClk.c ****     *
 898:.\Generated_Source\PSoC4/CyLFClk.c ****     *******************************************************************************/
 899:.\Generated_Source\PSoC4/CyLFClk.c ****     void CySysWdtSetToggleBit(uint32 bits)
 900:.\Generated_Source\PSoC4/CyLFClk.c ****     {
 901:.\Generated_Source\PSoC4/CyLFClk.c ****         uint32 configRegValue;
 902:.\Generated_Source\PSoC4/CyLFClk.c **** 
 903:.\Generated_Source\PSoC4/CyLFClk.c ****         if (0u == CySysWdtGetEnabledStatus(CY_SYS_WDT_COUNTER2))
 904:.\Generated_Source\PSoC4/CyLFClk.c ****         {
 905:.\Generated_Source\PSoC4/CyLFClk.c ****             configRegValue = CY_SYS_WDT_CONFIG_REG;
 906:.\Generated_Source\PSoC4/CyLFClk.c ****             configRegValue &= (uint32)(~((uint32)(CY_SYS_WDT_CONFIG_BITS2_MASK << CY_SYS_WDT_CONFIG
 907:.\Generated_Source\PSoC4/CyLFClk.c ****             configRegValue |= ((bits & CY_SYS_WDT_CONFIG_BITS2_MASK) << CY_SYS_WDT_CONFIG_BITS2_POS
ARM GAS  C:\Users\mitchell\AppData\Local\Temp\ccP08FOF.s 			page 34


 908:.\Generated_Source\PSoC4/CyLFClk.c ****             CY_SYS_WDT_CONFIG_REG = configRegValue;
 909:.\Generated_Source\PSoC4/CyLFClk.c ****         }
 910:.\Generated_Source\PSoC4/CyLFClk.c ****     }
 911:.\Generated_Source\PSoC4/CyLFClk.c **** 
 912:.\Generated_Source\PSoC4/CyLFClk.c **** 
 913:.\Generated_Source\PSoC4/CyLFClk.c ****     /*******************************************************************************
 914:.\Generated_Source\PSoC4/CyLFClk.c ****     * Function Name: CySysWdtGetToggleBit
 915:.\Generated_Source\PSoC4/CyLFClk.c ****     ********************************************************************************
 916:.\Generated_Source\PSoC4/CyLFClk.c ****     *
 917:.\Generated_Source\PSoC4/CyLFClk.c ****     * Summary:
 918:.\Generated_Source\PSoC4/CyLFClk.c ****     *  Reads which bit in WDT counter 2 is monitored for a toggle.
 919:.\Generated_Source\PSoC4/CyLFClk.c ****     *
 920:.\Generated_Source\PSoC4/CyLFClk.c ****     * Parameters:
 921:.\Generated_Source\PSoC4/CyLFClk.c ****     *  None.
 922:.\Generated_Source\PSoC4/CyLFClk.c ****     *
 923:.\Generated_Source\PSoC4/CyLFClk.c ****     * Return:
 924:.\Generated_Source\PSoC4/CyLFClk.c ****     *  The bit that is monitored (range of 0 to 31)
 925:.\Generated_Source\PSoC4/CyLFClk.c ****     *
 926:.\Generated_Source\PSoC4/CyLFClk.c ****     *******************************************************************************/
 927:.\Generated_Source\PSoC4/CyLFClk.c ****     uint32 CySysWdtGetToggleBit(void)
 928:.\Generated_Source\PSoC4/CyLFClk.c ****     {
 929:.\Generated_Source\PSoC4/CyLFClk.c ****         return ((CY_SYS_WDT_CONFIG_REG >> CY_SYS_WDT_CONFIG_BITS2_POS) & CY_SYS_WDT_CONFIG_BITS2_MA
 930:.\Generated_Source\PSoC4/CyLFClk.c ****     }
 931:.\Generated_Source\PSoC4/CyLFClk.c **** 
 932:.\Generated_Source\PSoC4/CyLFClk.c **** 
 933:.\Generated_Source\PSoC4/CyLFClk.c ****     /*******************************************************************************
 934:.\Generated_Source\PSoC4/CyLFClk.c ****     * Function Name: CySysWdtGetMatch
 935:.\Generated_Source\PSoC4/CyLFClk.c ****     ********************************************************************************
 936:.\Generated_Source\PSoC4/CyLFClk.c ****     *
 937:.\Generated_Source\PSoC4/CyLFClk.c ****     * Summary:
 938:.\Generated_Source\PSoC4/CyLFClk.c ****     *  Reads the WDT counter match comparison value.
 939:.\Generated_Source\PSoC4/CyLFClk.c ****     *
 940:.\Generated_Source\PSoC4/CyLFClk.c ****     * Parameters:
 941:.\Generated_Source\PSoC4/CyLFClk.c ****     *  counterNum: Valid range [0-1].  The number of the WDT counter.  The match values
 942:.\Generated_Source\PSoC4/CyLFClk.c ****     *               are not supported by counter 2.
 943:.\Generated_Source\PSoC4/CyLFClk.c ****     *
 944:.\Generated_Source\PSoC4/CyLFClk.c ****     * Return:
 945:.\Generated_Source\PSoC4/CyLFClk.c ****     *  A 16-bit match value.
 946:.\Generated_Source\PSoC4/CyLFClk.c ****     *
 947:.\Generated_Source\PSoC4/CyLFClk.c ****     *******************************************************************************/
 948:.\Generated_Source\PSoC4/CyLFClk.c ****     uint32 CySysWdtGetMatch(uint32 counterNum)
 949:.\Generated_Source\PSoC4/CyLFClk.c ****     {
 950:.\Generated_Source\PSoC4/CyLFClk.c ****         CYASSERT((counterNum == CY_SYS_WDT_COUNTER0) ||
 951:.\Generated_Source\PSoC4/CyLFClk.c ****                  (counterNum == CY_SYS_WDT_COUNTER1));
 952:.\Generated_Source\PSoC4/CyLFClk.c **** 
 953:.\Generated_Source\PSoC4/CyLFClk.c ****         return ((uint32)(CY_SYS_WDT_MATCH_REG >> (counterNum * CY_SYS_WDT_CNT_MATCH_SHIFT)) & CY_SY
 954:.\Generated_Source\PSoC4/CyLFClk.c ****     }
 955:.\Generated_Source\PSoC4/CyLFClk.c **** 
 956:.\Generated_Source\PSoC4/CyLFClk.c **** 
 957:.\Generated_Source\PSoC4/CyLFClk.c ****     /*******************************************************************************
 958:.\Generated_Source\PSoC4/CyLFClk.c ****     * Function Name: CySysWdtGetCount
 959:.\Generated_Source\PSoC4/CyLFClk.c ****     ********************************************************************************
 960:.\Generated_Source\PSoC4/CyLFClk.c ****     *
 961:.\Generated_Source\PSoC4/CyLFClk.c ****     * Summary:
 962:.\Generated_Source\PSoC4/CyLFClk.c ****     *  Reads the current WDT counter value.
 963:.\Generated_Source\PSoC4/CyLFClk.c ****     *
 964:.\Generated_Source\PSoC4/CyLFClk.c ****     * Parameters:
ARM GAS  C:\Users\mitchell\AppData\Local\Temp\ccP08FOF.s 			page 35


 965:.\Generated_Source\PSoC4/CyLFClk.c ****     *  counterNum: Valid range [0-2].  The number of the WDT counter.
 966:.\Generated_Source\PSoC4/CyLFClk.c ****     *
 967:.\Generated_Source\PSoC4/CyLFClk.c ****     * Return:
 968:.\Generated_Source\PSoC4/CyLFClk.c ****     *  A live counter value.  Counter 0 and 1 are 16 bit counters and counter
 969:.\Generated_Source\PSoC4/CyLFClk.c ****     *  2 is a 32 bit counter.
 970:.\Generated_Source\PSoC4/CyLFClk.c ****     *
 971:.\Generated_Source\PSoC4/CyLFClk.c ****     *******************************************************************************/
 972:.\Generated_Source\PSoC4/CyLFClk.c ****     uint32 CySysWdtGetCount(uint32 counterNum)
 973:.\Generated_Source\PSoC4/CyLFClk.c ****     {
 974:.\Generated_Source\PSoC4/CyLFClk.c ****         uint32 regValue = 0u;
 975:.\Generated_Source\PSoC4/CyLFClk.c **** 
 976:.\Generated_Source\PSoC4/CyLFClk.c ****         switch(counterNum)
 977:.\Generated_Source\PSoC4/CyLFClk.c ****         {
 978:.\Generated_Source\PSoC4/CyLFClk.c ****             /* WDT Counter 0 */
 979:.\Generated_Source\PSoC4/CyLFClk.c ****             case 0u:
 980:.\Generated_Source\PSoC4/CyLFClk.c ****                 regValue = CY_SYS_WDT_CTRLOW_REG & CY_SYS_WDT_LOWER_16BITS_MASK;
 981:.\Generated_Source\PSoC4/CyLFClk.c ****             break;
 982:.\Generated_Source\PSoC4/CyLFClk.c **** 
 983:.\Generated_Source\PSoC4/CyLFClk.c ****             /* WDT Counter 1 */
 984:.\Generated_Source\PSoC4/CyLFClk.c ****             case 1u:
 985:.\Generated_Source\PSoC4/CyLFClk.c ****                 regValue = (CY_SYS_WDT_CTRLOW_REG >> CY_SYS_WDT_CNT_MATCH_SHIFT) & CY_SYS_WDT_LOWER
 986:.\Generated_Source\PSoC4/CyLFClk.c ****             break;
 987:.\Generated_Source\PSoC4/CyLFClk.c **** 
 988:.\Generated_Source\PSoC4/CyLFClk.c ****             /* WDT Counter 2 */
 989:.\Generated_Source\PSoC4/CyLFClk.c ****             case 2u:
 990:.\Generated_Source\PSoC4/CyLFClk.c ****                 regValue = CY_SYS_WDT_CTRHIGH_REG;
 991:.\Generated_Source\PSoC4/CyLFClk.c ****             break;
 992:.\Generated_Source\PSoC4/CyLFClk.c **** 
 993:.\Generated_Source\PSoC4/CyLFClk.c ****             default:
 994:.\Generated_Source\PSoC4/CyLFClk.c ****                 CYASSERT(0u != 0u);
 995:.\Generated_Source\PSoC4/CyLFClk.c ****             break;
 996:.\Generated_Source\PSoC4/CyLFClk.c ****         }
 997:.\Generated_Source\PSoC4/CyLFClk.c **** 
 998:.\Generated_Source\PSoC4/CyLFClk.c ****         return (regValue);
 999:.\Generated_Source\PSoC4/CyLFClk.c ****     }
1000:.\Generated_Source\PSoC4/CyLFClk.c **** 
1001:.\Generated_Source\PSoC4/CyLFClk.c **** 
1002:.\Generated_Source\PSoC4/CyLFClk.c ****     /*******************************************************************************
1003:.\Generated_Source\PSoC4/CyLFClk.c ****     * Function Name: CySysWdtGetInterruptSource
1004:.\Generated_Source\PSoC4/CyLFClk.c ****     ********************************************************************************
1005:.\Generated_Source\PSoC4/CyLFClk.c ****     *
1006:.\Generated_Source\PSoC4/CyLFClk.c ****     * Summary:
1007:.\Generated_Source\PSoC4/CyLFClk.c ****     *   Reads a mask containing all the WDT counters interrupts that are currently
1008:.\Generated_Source\PSoC4/CyLFClk.c ****     *   set by the hardware, if a corresponding mode is selected.
1009:.\Generated_Source\PSoC4/CyLFClk.c ****     *
1010:.\Generated_Source\PSoC4/CyLFClk.c ****     * Parameters:
1011:.\Generated_Source\PSoC4/CyLFClk.c ****     *   None.
1012:.\Generated_Source\PSoC4/CyLFClk.c ****     *
1013:.\Generated_Source\PSoC4/CyLFClk.c ****     * Return:
1014:.\Generated_Source\PSoC4/CyLFClk.c ****     *   The mask of interrupts set.
1015:.\Generated_Source\PSoC4/CyLFClk.c ****     *   Define                    Counter
1016:.\Generated_Source\PSoC4/CyLFClk.c ****     *   CY_SYS_WDT_COUNTER0_INT    0
1017:.\Generated_Source\PSoC4/CyLFClk.c ****     *   CY_SYS_WDT_COUNTER1_INT    1
1018:.\Generated_Source\PSoC4/CyLFClk.c ****     *   CY_SYS_WDT_COUNTER2_INT    2
1019:.\Generated_Source\PSoC4/CyLFClk.c ****     *
1020:.\Generated_Source\PSoC4/CyLFClk.c ****     *******************************************************************************/
1021:.\Generated_Source\PSoC4/CyLFClk.c ****     uint32 CySysWdtGetInterruptSource(void)
ARM GAS  C:\Users\mitchell\AppData\Local\Temp\ccP08FOF.s 			page 36


1022:.\Generated_Source\PSoC4/CyLFClk.c ****     {
1023:.\Generated_Source\PSoC4/CyLFClk.c ****         return (CY_SYS_WDT_CONTROL_REG & (CY_SYS_WDT_COUNTER0_INT | CY_SYS_WDT_COUNTER1_INT | CY_SY
1024:.\Generated_Source\PSoC4/CyLFClk.c ****     }
1025:.\Generated_Source\PSoC4/CyLFClk.c **** 
1026:.\Generated_Source\PSoC4/CyLFClk.c **** 
1027:.\Generated_Source\PSoC4/CyLFClk.c ****     /*******************************************************************************
1028:.\Generated_Source\PSoC4/CyLFClk.c ****     * Function Name: CySysWdtClearInterrupt
1029:.\Generated_Source\PSoC4/CyLFClk.c ****     ********************************************************************************
1030:.\Generated_Source\PSoC4/CyLFClk.c ****     *
1031:.\Generated_Source\PSoC4/CyLFClk.c ****     * Summary:
1032:.\Generated_Source\PSoC4/CyLFClk.c ****     *   Clears all the WDT counter interrupts set in the mask. Calling this function
1033:.\Generated_Source\PSoC4/CyLFClk.c ****     *   also prevents from Reset when the counter mode is set to generate
1034:.\Generated_Source\PSoC4/CyLFClk.c ****     *   3 interrupts and then the device resets.
1035:.\Generated_Source\PSoC4/CyLFClk.c ****     *
1036:.\Generated_Source\PSoC4/CyLFClk.c ****     *   All the WDT interrupts are to be cleared by the firmware, otherwise
1037:.\Generated_Source\PSoC4/CyLFClk.c ****     *   interrupts are generated continuously.
1038:.\Generated_Source\PSoC4/CyLFClk.c ****     *
1039:.\Generated_Source\PSoC4/CyLFClk.c ****     * Parameters:
1040:.\Generated_Source\PSoC4/CyLFClk.c ****     *   counterMask: The mask of all the counters to enable.
1041:.\Generated_Source\PSoC4/CyLFClk.c ****     *   Define                    Counter
1042:.\Generated_Source\PSoC4/CyLFClk.c ****     *   CY_SYS_WDT_COUNTER0_INT    0
1043:.\Generated_Source\PSoC4/CyLFClk.c ****     *   CY_SYS_WDT_COUNTER1_INT    1
1044:.\Generated_Source\PSoC4/CyLFClk.c ****     *   CY_SYS_WDT_COUNTER2_INT    2
1045:.\Generated_Source\PSoC4/CyLFClk.c ****     *
1046:.\Generated_Source\PSoC4/CyLFClk.c ****     * Return:
1047:.\Generated_Source\PSoC4/CyLFClk.c ****     *   None
1048:.\Generated_Source\PSoC4/CyLFClk.c ****     *
1049:.\Generated_Source\PSoC4/CyLFClk.c ****     * Side effects:
1050:.\Generated_Source\PSoC4/CyLFClk.c ****     *   This function temporary removes the watchdog lock, if it was set, and
1051:.\Generated_Source\PSoC4/CyLFClk.c ****     *   restores the lock state after cleaning the WDT interrupts that are set in
1052:.\Generated_Source\PSoC4/CyLFClk.c ****     *   a mask.
1053:.\Generated_Source\PSoC4/CyLFClk.c ****     *
1054:.\Generated_Source\PSoC4/CyLFClk.c ****     *******************************************************************************/
1055:.\Generated_Source\PSoC4/CyLFClk.c ****     void CySysWdtClearInterrupt(uint32 counterMask)
1056:.\Generated_Source\PSoC4/CyLFClk.c ****     {
1057:.\Generated_Source\PSoC4/CyLFClk.c ****         uint8 interruptState;
1058:.\Generated_Source\PSoC4/CyLFClk.c ****         uint32 wdtLockState;
1059:.\Generated_Source\PSoC4/CyLFClk.c **** 
1060:.\Generated_Source\PSoC4/CyLFClk.c ****         interruptState = CyEnterCriticalSection();
1061:.\Generated_Source\PSoC4/CyLFClk.c **** 
1062:.\Generated_Source\PSoC4/CyLFClk.c ****         if (0u != CySysWdtLocked())
1063:.\Generated_Source\PSoC4/CyLFClk.c ****         {
1064:.\Generated_Source\PSoC4/CyLFClk.c ****             wdtLockState = 1u;
1065:.\Generated_Source\PSoC4/CyLFClk.c ****             CySysWdtUnlock();
1066:.\Generated_Source\PSoC4/CyLFClk.c ****         }
1067:.\Generated_Source\PSoC4/CyLFClk.c ****         else
1068:.\Generated_Source\PSoC4/CyLFClk.c ****         {
1069:.\Generated_Source\PSoC4/CyLFClk.c ****             wdtLockState = 0u;
1070:.\Generated_Source\PSoC4/CyLFClk.c ****         }
1071:.\Generated_Source\PSoC4/CyLFClk.c **** 
1072:.\Generated_Source\PSoC4/CyLFClk.c ****         /* Set new WDT control register value */
1073:.\Generated_Source\PSoC4/CyLFClk.c ****         counterMask &= (CY_SYS_WDT_COUNTER0_INT |
1074:.\Generated_Source\PSoC4/CyLFClk.c ****                         CY_SYS_WDT_COUNTER1_INT |
1075:.\Generated_Source\PSoC4/CyLFClk.c ****                         CY_SYS_WDT_COUNTER2_INT);
1076:.\Generated_Source\PSoC4/CyLFClk.c **** 
1077:.\Generated_Source\PSoC4/CyLFClk.c ****         CY_SYS_WDT_CONTROL_REG = counterMask | (CY_SYS_WDT_CONTROL_REG & ~(CY_SYS_WDT_COUNTER0_INT 
1078:.\Generated_Source\PSoC4/CyLFClk.c ****                                                                            CY_SYS_WDT_COUNTER1_INT 
ARM GAS  C:\Users\mitchell\AppData\Local\Temp\ccP08FOF.s 			page 37


1079:.\Generated_Source\PSoC4/CyLFClk.c ****                                                                            CY_SYS_WDT_COUNTER2_INT)
1080:.\Generated_Source\PSoC4/CyLFClk.c **** 
1081:.\Generated_Source\PSoC4/CyLFClk.c ****         /* Read the CY_SYS_WDT_CONTROL_REG to clear the interrupt request.
1082:.\Generated_Source\PSoC4/CyLFClk.c ****          * Cypress ID #207093, #206231
1083:.\Generated_Source\PSoC4/CyLFClk.c ****         */
1084:.\Generated_Source\PSoC4/CyLFClk.c ****         (void)CY_SYS_WDT_CONTROL_REG;
1085:.\Generated_Source\PSoC4/CyLFClk.c **** 
1086:.\Generated_Source\PSoC4/CyLFClk.c ****         if (1u == wdtLockState)
1087:.\Generated_Source\PSoC4/CyLFClk.c ****         {
1088:.\Generated_Source\PSoC4/CyLFClk.c ****             CySysWdtLock();
1089:.\Generated_Source\PSoC4/CyLFClk.c ****         }
1090:.\Generated_Source\PSoC4/CyLFClk.c **** 
1091:.\Generated_Source\PSoC4/CyLFClk.c ****         CyExitCriticalSection(interruptState);
1092:.\Generated_Source\PSoC4/CyLFClk.c ****     }
1093:.\Generated_Source\PSoC4/CyLFClk.c **** 
1094:.\Generated_Source\PSoC4/CyLFClk.c **** 
1095:.\Generated_Source\PSoC4/CyLFClk.c ****     /*******************************************************************************
1096:.\Generated_Source\PSoC4/CyLFClk.c ****     * Function Name: CySysWdtResetCounters
1097:.\Generated_Source\PSoC4/CyLFClk.c ****     ********************************************************************************
1098:.\Generated_Source\PSoC4/CyLFClk.c ****     *
1099:.\Generated_Source\PSoC4/CyLFClk.c ****     * Summary:
1100:.\Generated_Source\PSoC4/CyLFClk.c ****     *  Resets all the WDT counters set in the mask.
1101:.\Generated_Source\PSoC4/CyLFClk.c ****     *
1102:.\Generated_Source\PSoC4/CyLFClk.c ****     * Parameters:
1103:.\Generated_Source\PSoC4/CyLFClk.c ****     *  counterMask: The mask of all the counters to reset.
1104:.\Generated_Source\PSoC4/CyLFClk.c ****     *   Define                       Counter
1105:.\Generated_Source\PSoC4/CyLFClk.c ****     *   CY_SYS_WDT_COUNTER0_RESET    0
1106:.\Generated_Source\PSoC4/CyLFClk.c ****     *   CY_SYS_WDT_COUNTER1_RESET    1
1107:.\Generated_Source\PSoC4/CyLFClk.c ****     *   CY_SYS_WDT_COUNTER2_RESET    2
1108:.\Generated_Source\PSoC4/CyLFClk.c ****     *
1109:.\Generated_Source\PSoC4/CyLFClk.c ****     * Return:
1110:.\Generated_Source\PSoC4/CyLFClk.c ****     *   None
1111:.\Generated_Source\PSoC4/CyLFClk.c ****     *
1112:.\Generated_Source\PSoC4/CyLFClk.c ****     * Side effects:
1113:.\Generated_Source\PSoC4/CyLFClk.c ****     *   This function does not reset counter values if the Watchdog is locked.
1114:.\Generated_Source\PSoC4/CyLFClk.c ****     *   This function waits while corresponding counters will be reset. This may
1115:.\Generated_Source\PSoC4/CyLFClk.c ****     *   take up to 3 LFCLK cycles.
1116:.\Generated_Source\PSoC4/CyLFClk.c ****     *   The LFCLK source must be enabled. Otherwise, the function will never exit.
1117:.\Generated_Source\PSoC4/CyLFClk.c ****     *
1118:.\Generated_Source\PSoC4/CyLFClk.c ****     *******************************************************************************/
1119:.\Generated_Source\PSoC4/CyLFClk.c ****     void CySysWdtResetCounters(uint32 countersMask)
1120:.\Generated_Source\PSoC4/CyLFClk.c ****     {
1121:.\Generated_Source\PSoC4/CyLFClk.c ****         /* Set new WDT reset value */
1122:.\Generated_Source\PSoC4/CyLFClk.c ****         CY_SYS_WDT_CONTROL_REG |= (countersMask & CY_SYS_WDT_COUNTERS_RESET);
1123:.\Generated_Source\PSoC4/CyLFClk.c **** 
1124:.\Generated_Source\PSoC4/CyLFClk.c ****         while (0uL != (CY_SYS_WDT_CONTROL_REG & CY_SYS_WDT_COUNTERS_RESET))
1125:.\Generated_Source\PSoC4/CyLFClk.c ****         {
1126:.\Generated_Source\PSoC4/CyLFClk.c ****             /* Wait for reset to come into effect */
1127:.\Generated_Source\PSoC4/CyLFClk.c ****         }
1128:.\Generated_Source\PSoC4/CyLFClk.c ****     }
1129:.\Generated_Source\PSoC4/CyLFClk.c **** 
1130:.\Generated_Source\PSoC4/CyLFClk.c **** 
1131:.\Generated_Source\PSoC4/CyLFClk.c ****     /*******************************************************************************
1132:.\Generated_Source\PSoC4/CyLFClk.c ****     * Function Name: CySysWdtSetInterruptCallback
1133:.\Generated_Source\PSoC4/CyLFClk.c ****     ********************************************************************************
1134:.\Generated_Source\PSoC4/CyLFClk.c ****     *
1135:.\Generated_Source\PSoC4/CyLFClk.c ****     * Summary:
ARM GAS  C:\Users\mitchell\AppData\Local\Temp\ccP08FOF.s 			page 38


1136:.\Generated_Source\PSoC4/CyLFClk.c ****     *  Sets the ISR callback function for the particular WDT counter.
1137:.\Generated_Source\PSoC4/CyLFClk.c ****     *  These functions are called on the WDT interrupt.
1138:.\Generated_Source\PSoC4/CyLFClk.c ****     *
1139:.\Generated_Source\PSoC4/CyLFClk.c ****     * Parameters:
1140:.\Generated_Source\PSoC4/CyLFClk.c ****     *  counterNum : The number of the WDT counter.
1141:.\Generated_Source\PSoC4/CyLFClk.c ****     *  function   : The pointer to the callback function.
1142:.\Generated_Source\PSoC4/CyLFClk.c ****     *
1143:.\Generated_Source\PSoC4/CyLFClk.c ****     * Return:
1144:.\Generated_Source\PSoC4/CyLFClk.c ****     *  The pointer to the previous callback function.
1145:.\Generated_Source\PSoC4/CyLFClk.c ****     *  NULL is returned if the specified address is not set.
1146:.\Generated_Source\PSoC4/CyLFClk.c ****     *
1147:.\Generated_Source\PSoC4/CyLFClk.c ****     *******************************************************************************/
1148:.\Generated_Source\PSoC4/CyLFClk.c ****     cyWdtCallback CySysWdtSetInterruptCallback(uint32 counterNum, cyWdtCallback function)
1149:.\Generated_Source\PSoC4/CyLFClk.c ****     {
1150:.\Generated_Source\PSoC4/CyLFClk.c ****         cyWdtCallback prevCallback = (void *)0;
1151:.\Generated_Source\PSoC4/CyLFClk.c **** 
1152:.\Generated_Source\PSoC4/CyLFClk.c ****         if(counterNum < CY_WDT_NUM_OF_WDT)
1153:.\Generated_Source\PSoC4/CyLFClk.c ****         {
1154:.\Generated_Source\PSoC4/CyLFClk.c ****             prevCallback = cySysWdtCallback[counterNum];
1155:.\Generated_Source\PSoC4/CyLFClk.c ****             cySysWdtCallback[counterNum] = function;
1156:.\Generated_Source\PSoC4/CyLFClk.c ****         }
1157:.\Generated_Source\PSoC4/CyLFClk.c ****         else
1158:.\Generated_Source\PSoC4/CyLFClk.c ****         {
1159:.\Generated_Source\PSoC4/CyLFClk.c ****             CYASSERT(0u != 0u);
1160:.\Generated_Source\PSoC4/CyLFClk.c ****         }
1161:.\Generated_Source\PSoC4/CyLFClk.c **** 
1162:.\Generated_Source\PSoC4/CyLFClk.c ****         return((cyWdtCallback)prevCallback);
1163:.\Generated_Source\PSoC4/CyLFClk.c ****     }
1164:.\Generated_Source\PSoC4/CyLFClk.c **** 
1165:.\Generated_Source\PSoC4/CyLFClk.c **** 
1166:.\Generated_Source\PSoC4/CyLFClk.c ****     /*******************************************************************************
1167:.\Generated_Source\PSoC4/CyLFClk.c ****     * Function Name: CySysWdtGetInterruptCallback
1168:.\Generated_Source\PSoC4/CyLFClk.c ****     ********************************************************************************
1169:.\Generated_Source\PSoC4/CyLFClk.c ****     *
1170:.\Generated_Source\PSoC4/CyLFClk.c ****     * Summary:
1171:.\Generated_Source\PSoC4/CyLFClk.c ****     *  Gets the ISR callback function for the particular WDT counter.
1172:.\Generated_Source\PSoC4/CyLFClk.c ****     *
1173:.\Generated_Source\PSoC4/CyLFClk.c ****     * Parameters:
1174:.\Generated_Source\PSoC4/CyLFClk.c ****     *  counterNum : The number of the WDT counter.
1175:.\Generated_Source\PSoC4/CyLFClk.c ****     *
1176:.\Generated_Source\PSoC4/CyLFClk.c ****     * Return:
1177:.\Generated_Source\PSoC4/CyLFClk.c ****     *  The pointer to the callback function registered for a particular WDT by
1178:.\Generated_Source\PSoC4/CyLFClk.c ****     *  a particular address that are passed through arguments.
1179:.\Generated_Source\PSoC4/CyLFClk.c ****     *
1180:.\Generated_Source\PSoC4/CyLFClk.c ****     *******************************************************************************/
1181:.\Generated_Source\PSoC4/CyLFClk.c ****     cyWdtCallback CySysWdtGetInterruptCallback(uint32 counterNum)
1182:.\Generated_Source\PSoC4/CyLFClk.c ****     {
1183:.\Generated_Source\PSoC4/CyLFClk.c ****         cyWdtCallback retCallback = (void *)0;
1184:.\Generated_Source\PSoC4/CyLFClk.c **** 
1185:.\Generated_Source\PSoC4/CyLFClk.c ****         if(counterNum < CY_WDT_NUM_OF_WDT)
1186:.\Generated_Source\PSoC4/CyLFClk.c ****         {
1187:.\Generated_Source\PSoC4/CyLFClk.c ****             retCallback = (cyWdtCallback)cySysWdtCallback[counterNum];
1188:.\Generated_Source\PSoC4/CyLFClk.c ****         }
1189:.\Generated_Source\PSoC4/CyLFClk.c ****         else
1190:.\Generated_Source\PSoC4/CyLFClk.c ****         {
1191:.\Generated_Source\PSoC4/CyLFClk.c ****             CYASSERT(0u != 0u);
1192:.\Generated_Source\PSoC4/CyLFClk.c ****         }
ARM GAS  C:\Users\mitchell\AppData\Local\Temp\ccP08FOF.s 			page 39


1193:.\Generated_Source\PSoC4/CyLFClk.c **** 
1194:.\Generated_Source\PSoC4/CyLFClk.c ****         return(retCallback);
1195:.\Generated_Source\PSoC4/CyLFClk.c ****     }
1196:.\Generated_Source\PSoC4/CyLFClk.c **** 
1197:.\Generated_Source\PSoC4/CyLFClk.c **** 
1198:.\Generated_Source\PSoC4/CyLFClk.c ****     /*******************************************************************************
1199:.\Generated_Source\PSoC4/CyLFClk.c ****     * Function Name: CySysWdtEnableCounterIsr
1200:.\Generated_Source\PSoC4/CyLFClk.c ****     ********************************************************************************
1201:.\Generated_Source\PSoC4/CyLFClk.c ****     *
1202:.\Generated_Source\PSoC4/CyLFClk.c ****     * Summary:
1203:.\Generated_Source\PSoC4/CyLFClk.c ****     *  Enables the ISR callback servicing for the particular WDT counter
1204:.\Generated_Source\PSoC4/CyLFClk.c ****     *
1205:.\Generated_Source\PSoC4/CyLFClk.c ****     * Parameters:
1206:.\Generated_Source\PSoC4/CyLFClk.c ****     *  counterNum: Valid range [0-2].  The number of the WDT counter.
1207:.\Generated_Source\PSoC4/CyLFClk.c ****     *
1208:.\Generated_Source\PSoC4/CyLFClk.c ****     *******************************************************************************/
1209:.\Generated_Source\PSoC4/CyLFClk.c ****     void CySysWdtEnableCounterIsr(uint32 counterNum)
1210:.\Generated_Source\PSoC4/CyLFClk.c ****     {
1211:.\Generated_Source\PSoC4/CyLFClk.c ****         if(counterNum <= CY_SYS_WDT_COUNTER2)
1212:.\Generated_Source\PSoC4/CyLFClk.c ****         {
1213:.\Generated_Source\PSoC4/CyLFClk.c ****             disableServicedIsr &= ~counterIntMaskTbl[counterNum];
1214:.\Generated_Source\PSoC4/CyLFClk.c ****             wdtIsrMask |= counterIntMaskTbl[counterNum];
1215:.\Generated_Source\PSoC4/CyLFClk.c ****         }
1216:.\Generated_Source\PSoC4/CyLFClk.c ****         else
1217:.\Generated_Source\PSoC4/CyLFClk.c ****         {
1218:.\Generated_Source\PSoC4/CyLFClk.c ****             CYASSERT(0u != 0u);
1219:.\Generated_Source\PSoC4/CyLFClk.c ****         }
1220:.\Generated_Source\PSoC4/CyLFClk.c ****     }
1221:.\Generated_Source\PSoC4/CyLFClk.c **** 
1222:.\Generated_Source\PSoC4/CyLFClk.c **** 
1223:.\Generated_Source\PSoC4/CyLFClk.c ****     /*******************************************************************************
1224:.\Generated_Source\PSoC4/CyLFClk.c ****     * Function Name: CySysWdtDisableCounterIsr
1225:.\Generated_Source\PSoC4/CyLFClk.c ****     ********************************************************************************
1226:.\Generated_Source\PSoC4/CyLFClk.c ****     *
1227:.\Generated_Source\PSoC4/CyLFClk.c ****     * Summary:
1228:.\Generated_Source\PSoC4/CyLFClk.c ****     *  Disables the ISR callback servicing for the particular WDT counter
1229:.\Generated_Source\PSoC4/CyLFClk.c ****     *
1230:.\Generated_Source\PSoC4/CyLFClk.c ****     * Parameters:
1231:.\Generated_Source\PSoC4/CyLFClk.c ****     *  counterNum: Valid range [0-2].  The number of the WDT counter.
1232:.\Generated_Source\PSoC4/CyLFClk.c ****     *
1233:.\Generated_Source\PSoC4/CyLFClk.c ****     *******************************************************************************/
1234:.\Generated_Source\PSoC4/CyLFClk.c ****     void CySysWdtDisableCounterIsr(uint32 counterNum)
1235:.\Generated_Source\PSoC4/CyLFClk.c ****     {
1236:.\Generated_Source\PSoC4/CyLFClk.c ****         if(counterNum <= CY_SYS_WDT_COUNTER2)
1237:.\Generated_Source\PSoC4/CyLFClk.c ****         {
1238:.\Generated_Source\PSoC4/CyLFClk.c ****             wdtIsrMask &= ~counterIntMaskTbl[counterNum];
1239:.\Generated_Source\PSoC4/CyLFClk.c ****         }
1240:.\Generated_Source\PSoC4/CyLFClk.c ****         else
1241:.\Generated_Source\PSoC4/CyLFClk.c ****         {
1242:.\Generated_Source\PSoC4/CyLFClk.c ****             CYASSERT(0u != 0u);
1243:.\Generated_Source\PSoC4/CyLFClk.c ****         }
1244:.\Generated_Source\PSoC4/CyLFClk.c ****     }
1245:.\Generated_Source\PSoC4/CyLFClk.c **** 
1246:.\Generated_Source\PSoC4/CyLFClk.c **** 
1247:.\Generated_Source\PSoC4/CyLFClk.c ****     /*******************************************************************************
1248:.\Generated_Source\PSoC4/CyLFClk.c ****     * Function Name: CySysWdtIsr
1249:.\Generated_Source\PSoC4/CyLFClk.c ****     ********************************************************************************
ARM GAS  C:\Users\mitchell\AppData\Local\Temp\ccP08FOF.s 			page 40


1250:.\Generated_Source\PSoC4/CyLFClk.c ****     *
1251:.\Generated_Source\PSoC4/CyLFClk.c ****     * Summary:
1252:.\Generated_Source\PSoC4/CyLFClk.c ****     *  This is the handler of the WDT interrupt in CPU NVIC. The handler checks
1253:.\Generated_Source\PSoC4/CyLFClk.c ****     *  which WDT triggered in the interrupt and calls the respective callback
1254:.\Generated_Source\PSoC4/CyLFClk.c ****     *  functions configured by the user by using CySysWdtSetIsrCallback() API.
1255:.\Generated_Source\PSoC4/CyLFClk.c ****     *
1256:.\Generated_Source\PSoC4/CyLFClk.c ****     *  The order of the callback execution is incremental. Callback-0 is
1257:.\Generated_Source\PSoC4/CyLFClk.c ****     *  run as the first one and callback-2 is called as the last one.
1258:.\Generated_Source\PSoC4/CyLFClk.c ****     *
1259:.\Generated_Source\PSoC4/CyLFClk.c ****     * Parameters:
1260:.\Generated_Source\PSoC4/CyLFClk.c ****     *  None.
1261:.\Generated_Source\PSoC4/CyLFClk.c ****     *
1262:.\Generated_Source\PSoC4/CyLFClk.c ****     * Return:
1263:.\Generated_Source\PSoC4/CyLFClk.c ****     *  None.
1264:.\Generated_Source\PSoC4/CyLFClk.c ****     *
1265:.\Generated_Source\PSoC4/CyLFClk.c ****     * Side Effects:
1266:.\Generated_Source\PSoC4/CyLFClk.c ****     *  This function clears the WDT interrupt every time when it is called.
1267:.\Generated_Source\PSoC4/CyLFClk.c ****     *  Reset after the 3rd interrupt does not happen if this function is registered
1268:.\Generated_Source\PSoC4/CyLFClk.c ****     *  as the interrupt handler even if the "Watchdog with Interrupt" mode is
1269:.\Generated_Source\PSoC4/CyLFClk.c ****     *  selected on the "Low Frequency Clocks" tab.
1270:.\Generated_Source\PSoC4/CyLFClk.c ****     *
1271:.\Generated_Source\PSoC4/CyLFClk.c ****     *******************************************************************************/
1272:.\Generated_Source\PSoC4/CyLFClk.c ****     void CySysWdtIsr(void)
1273:.\Generated_Source\PSoC4/CyLFClk.c ****     {
1274:.\Generated_Source\PSoC4/CyLFClk.c ****         if(0u != (CY_SYS_WDT_COUNTER0_INT & CY_SYS_WDT_CONTROL_REG))
1275:.\Generated_Source\PSoC4/CyLFClk.c ****         {
1276:.\Generated_Source\PSoC4/CyLFClk.c ****             if(0u != (CY_SYS_WDT_COUNTER0_INT & wdtIsrMask))
1277:.\Generated_Source\PSoC4/CyLFClk.c ****             {
1278:.\Generated_Source\PSoC4/CyLFClk.c ****                 wdtIsrMask &= ~(disableServicedIsr & CY_SYS_WDT_COUNTER0_INT);
1279:.\Generated_Source\PSoC4/CyLFClk.c ****                 disableServicedIsr  &= ~CY_SYS_WDT_COUNTER0_INT;
1280:.\Generated_Source\PSoC4/CyLFClk.c ****                 if(cySysWdtCallback[CY_SYS_WDT_COUNTER0] != (void *) 0)
1281:.\Generated_Source\PSoC4/CyLFClk.c ****                 {
1282:.\Generated_Source\PSoC4/CyLFClk.c ****                     (void)(cySysWdtCallback[CY_SYS_WDT_COUNTER0])();
1283:.\Generated_Source\PSoC4/CyLFClk.c ****                 }
1284:.\Generated_Source\PSoC4/CyLFClk.c ****             }
1285:.\Generated_Source\PSoC4/CyLFClk.c ****             CySysWdtClearInterrupt(CY_SYS_WDT_COUNTER0_INT);
1286:.\Generated_Source\PSoC4/CyLFClk.c ****         }
1287:.\Generated_Source\PSoC4/CyLFClk.c **** 
1288:.\Generated_Source\PSoC4/CyLFClk.c ****         if(0u != (CY_SYS_WDT_COUNTER1_INT & CY_SYS_WDT_CONTROL_REG))
1289:.\Generated_Source\PSoC4/CyLFClk.c ****         {
1290:.\Generated_Source\PSoC4/CyLFClk.c ****             if(0u != (CY_SYS_WDT_COUNTER1_INT & wdtIsrMask))
1291:.\Generated_Source\PSoC4/CyLFClk.c ****             {
1292:.\Generated_Source\PSoC4/CyLFClk.c ****                 wdtIsrMask &= ~(disableServicedIsr & CY_SYS_WDT_COUNTER1_INT);
1293:.\Generated_Source\PSoC4/CyLFClk.c ****                 disableServicedIsr  &= ~CY_SYS_WDT_COUNTER1_INT;
1294:.\Generated_Source\PSoC4/CyLFClk.c ****                 if(cySysWdtCallback[CY_SYS_WDT_COUNTER1] != (void *) 0)
1295:.\Generated_Source\PSoC4/CyLFClk.c ****                 {
1296:.\Generated_Source\PSoC4/CyLFClk.c ****                     (void)(cySysWdtCallback[CY_SYS_WDT_COUNTER1])();
1297:.\Generated_Source\PSoC4/CyLFClk.c ****                 }
1298:.\Generated_Source\PSoC4/CyLFClk.c ****             }
1299:.\Generated_Source\PSoC4/CyLFClk.c ****             CySysWdtClearInterrupt(CY_SYS_WDT_COUNTER1_INT);
1300:.\Generated_Source\PSoC4/CyLFClk.c ****         }
1301:.\Generated_Source\PSoC4/CyLFClk.c **** 
1302:.\Generated_Source\PSoC4/CyLFClk.c ****         if(0u != (CY_SYS_WDT_COUNTER2_INT & CY_SYS_WDT_CONTROL_REG))
1303:.\Generated_Source\PSoC4/CyLFClk.c ****         {
1304:.\Generated_Source\PSoC4/CyLFClk.c ****             if(0u != (CY_SYS_WDT_COUNTER2_INT & wdtIsrMask))
1305:.\Generated_Source\PSoC4/CyLFClk.c ****             {
1306:.\Generated_Source\PSoC4/CyLFClk.c ****                 if(cySysWdtCallback[CY_SYS_WDT_COUNTER2] != (void *) 0)
ARM GAS  C:\Users\mitchell\AppData\Local\Temp\ccP08FOF.s 			page 41


1307:.\Generated_Source\PSoC4/CyLFClk.c ****                 {
1308:.\Generated_Source\PSoC4/CyLFClk.c ****                     (void)(cySysWdtCallback[CY_SYS_WDT_COUNTER2])();
1309:.\Generated_Source\PSoC4/CyLFClk.c ****                 }
1310:.\Generated_Source\PSoC4/CyLFClk.c ****             }
1311:.\Generated_Source\PSoC4/CyLFClk.c ****             CySysWdtClearInterrupt(CY_SYS_WDT_COUNTER2_INT);
1312:.\Generated_Source\PSoC4/CyLFClk.c ****         }
1313:.\Generated_Source\PSoC4/CyLFClk.c ****     }
1314:.\Generated_Source\PSoC4/CyLFClk.c **** 
1315:.\Generated_Source\PSoC4/CyLFClk.c **** 
1316:.\Generated_Source\PSoC4/CyLFClk.c ****     /*******************************************************************************
1317:.\Generated_Source\PSoC4/CyLFClk.c ****     * Function Name: CySysTimerDelay
1318:.\Generated_Source\PSoC4/CyLFClk.c ****     ********************************************************************************
1319:.\Generated_Source\PSoC4/CyLFClk.c ****     *
1320:.\Generated_Source\PSoC4/CyLFClk.c ****     * Summary:
1321:.\Generated_Source\PSoC4/CyLFClk.c ****     *  The function implements the delay specified in the LFCLK clock ticks. The
1322:.\Generated_Source\PSoC4/CyLFClk.c ****     *  specified WDT counter should be configured as described below and started.
1323:.\Generated_Source\PSoC4/CyLFClk.c ****     *
1324:.\Generated_Source\PSoC4/CyLFClk.c ****     *  This function can operate in two modes: the "WAIT" and "INTERRUPT" modes. In
1325:.\Generated_Source\PSoC4/CyLFClk.c ****     *  the "WAIT" mode, the function waits for the specified number of ticks. In the
1326:.\Generated_Source\PSoC4/CyLFClk.c ****     *  "INTERRUPT" mode, the interrupt is generated after the specified number of
1327:.\Generated_Source\PSoC4/CyLFClk.c ****     *  ticks.
1328:.\Generated_Source\PSoC4/CyLFClk.c ****     *
1329:.\Generated_Source\PSoC4/CyLFClk.c ****     *  For the correct function operation, the "Clear On Match" option should be
1330:.\Generated_Source\PSoC4/CyLFClk.c ****     *  disabled for the specified WDT counter. Use CySysWdtSetClearOnMatch()
1331:.\Generated_Source\PSoC4/CyLFClk.c ****     *  function with the "enable" parameter equal to zero for the used WDT counter.
1332:.\Generated_Source\PSoC4/CyLFClk.c ****     *
1333:.\Generated_Source\PSoC4/CyLFClk.c ****     *  The corresponding WDT counter should be configured to match the selected
1334:.\Generated_Source\PSoC4/CyLFClk.c ****     *  mode: "Free running Timer" for the "WAIT" mode, and
1335:.\Generated_Source\PSoC4/CyLFClk.c ****     *  "Periodic Timer" / "Watchdog (w/Interrupt)" for the "INTERRUPT" mode.
1336:.\Generated_Source\PSoC4/CyLFClk.c ****     *
1337:.\Generated_Source\PSoC4/CyLFClk.c ****     *  This can be configured in two ways:
1338:.\Generated_Source\PSoC4/CyLFClk.c ****     *  - Through the DWR page. Open the "Clocks" tab, click the "Edit Clocks..."
1339:.\Generated_Source\PSoC4/CyLFClk.c ****     *    button, in the "Configure System Clocks" window click on the
1340:.\Generated_Source\PSoC4/CyLFClk.c ****     *    "Low Frequency Clocks" tab and choose the appropriate option for the used
1341:.\Generated_Source\PSoC4/CyLFClk.c ****     *    WDT counter.
1342:.\Generated_Source\PSoC4/CyLFClk.c ****     *
1343:.\Generated_Source\PSoC4/CyLFClk.c ****     *  - Through the CySysWdtSetMode() function. Call it with the appropriate mode
1344:.\Generated_Source\PSoC4/CyLFClk.c ****     *    parameter for the used WDT counter.
1345:.\Generated_Source\PSoC4/CyLFClk.c ****     *
1346:.\Generated_Source\PSoC4/CyLFClk.c ****     *  For the "INTERRUPT" mode, the recommended sequence is the following:
1347:.\Generated_Source\PSoC4/CyLFClk.c ****     *  - Call the CySysWdtDisableCounterIsr() function to disable servicing
1348:.\Generated_Source\PSoC4/CyLFClk.c ****     *    interrupts of the specified WDT counter.
1349:.\Generated_Source\PSoC4/CyLFClk.c ****     *
1350:.\Generated_Source\PSoC4/CyLFClk.c ****     *  - Call the CySysWdtSetInterruptCallback() function to register the callback
1351:.\Generated_Source\PSoC4/CyLFClk.c ****     *    function for the corresponding WDT counter.
1352:.\Generated_Source\PSoC4/CyLFClk.c ****     *
1353:.\Generated_Source\PSoC4/CyLFClk.c ****     *  - Call the CySysTimerDelay() function.
1354:.\Generated_Source\PSoC4/CyLFClk.c ****     *
1355:.\Generated_Source\PSoC4/CyLFClk.c ****     * Parameters:
1356:.\Generated_Source\PSoC4/CyLFClk.c ****     *  counterNum: Valid range [0-1]. The number of the WDT counter (WDT0 or WDT1).
1357:.\Generated_Source\PSoC4/CyLFClk.c ****     *  delayType : Defines the operation mode.
1358:.\Generated_Source\PSoC4/CyLFClk.c ****     *               CY_SYS_TIMER_WAIT       "WAIT" mode.
1359:.\Generated_Source\PSoC4/CyLFClk.c ****     *               CY_SYS_TIMER_INTERRUPT  "INTERRUPT" mode.
1360:.\Generated_Source\PSoC4/CyLFClk.c ****     *  delay:  The delay value in the LFCLK ticks (allowable range - 16-bit value).
1361:.\Generated_Source\PSoC4/CyLFClk.c ****     *
1362:.\Generated_Source\PSoC4/CyLFClk.c ****     * Return:
1363:.\Generated_Source\PSoC4/CyLFClk.c ****     *  None
ARM GAS  C:\Users\mitchell\AppData\Local\Temp\ccP08FOF.s 			page 42


1364:.\Generated_Source\PSoC4/CyLFClk.c ****     *
1365:.\Generated_Source\PSoC4/CyLFClk.c ****     * Side effects:
1366:.\Generated_Source\PSoC4/CyLFClk.c ****     *  In the "INTERRUPT" mode, this function enables ISR callback servicing
1367:.\Generated_Source\PSoC4/CyLFClk.c ****     *  from the corresponding WDT counter. Servicing of this ISR callback will be
1368:.\Generated_Source\PSoC4/CyLFClk.c ****     *  disabled after the expiration of the delay time.
1369:.\Generated_Source\PSoC4/CyLFClk.c ****     *
1370:.\Generated_Source\PSoC4/CyLFClk.c ****     *******************************************************************************/
1371:.\Generated_Source\PSoC4/CyLFClk.c ****     void CySysTimerDelay(uint32 counterNum, cy_sys_timer_delaytype_enum delayType, uint32 delay)
1372:.\Generated_Source\PSoC4/CyLFClk.c ****     {
1373:.\Generated_Source\PSoC4/CyLFClk.c ****         uint32 regValue;
1374:.\Generated_Source\PSoC4/CyLFClk.c ****         uint32 matchValue;
1375:.\Generated_Source\PSoC4/CyLFClk.c **** 
1376:.\Generated_Source\PSoC4/CyLFClk.c ****         if((counterNum < CY_SYS_WDT_COUNTER2) && (0uL == CySysWdtGetClearOnMatch(counterNum)) && (d
1377:.\Generated_Source\PSoC4/CyLFClk.c ****         {
1378:.\Generated_Source\PSoC4/CyLFClk.c ****             regValue   = CySysWdtGetCount(counterNum);
1379:.\Generated_Source\PSoC4/CyLFClk.c ****             matchValue = (regValue + delay) & (uint32)UINT16_MAX_VAL;
1380:.\Generated_Source\PSoC4/CyLFClk.c **** 
1381:.\Generated_Source\PSoC4/CyLFClk.c ****             CySysTimerDelayUntilMatch(counterNum, delayType, matchValue);
1382:.\Generated_Source\PSoC4/CyLFClk.c ****         }
1383:.\Generated_Source\PSoC4/CyLFClk.c ****         else
1384:.\Generated_Source\PSoC4/CyLFClk.c ****         {
1385:.\Generated_Source\PSoC4/CyLFClk.c ****             CYASSERT(0u != 0u);
1386:.\Generated_Source\PSoC4/CyLFClk.c ****         }
1387:.\Generated_Source\PSoC4/CyLFClk.c ****     }
1388:.\Generated_Source\PSoC4/CyLFClk.c **** 
1389:.\Generated_Source\PSoC4/CyLFClk.c **** 
1390:.\Generated_Source\PSoC4/CyLFClk.c ****     /*******************************************************************************
1391:.\Generated_Source\PSoC4/CyLFClk.c ****     * Function Name: CySysTimerDelayUntilMatch
1392:.\Generated_Source\PSoC4/CyLFClk.c ****     ********************************************************************************
1393:.\Generated_Source\PSoC4/CyLFClk.c ****     *
1394:.\Generated_Source\PSoC4/CyLFClk.c ****     * Summary:
1395:.\Generated_Source\PSoC4/CyLFClk.c ****     *  The function implements the delay specified as the number of LFCLK ticks
1396:.\Generated_Source\PSoC4/CyLFClk.c ****     *  between the specified WDT counter's current value and the "match" passed as
1397:.\Generated_Source\PSoC4/CyLFClk.c ****     *  the parameter to this function. The current WDT counter value can be obtained
1398:.\Generated_Source\PSoC4/CyLFClk.c ****     *  using the CySysWdtGetCount() function.
1399:.\Generated_Source\PSoC4/CyLFClk.c ****     *
1400:.\Generated_Source\PSoC4/CyLFClk.c ****     *  This function can operate in two modes: the "WAIT" and "INTERRUPT" mode. In
1401:.\Generated_Source\PSoC4/CyLFClk.c ****     *  the "WAIT" mode, the function waits while the used WDT counter value becomes
1402:.\Generated_Source\PSoC4/CyLFClk.c ****     *  equal to the match value. In the "INTERRUPT" mode, the interrupt is generated
1403:.\Generated_Source\PSoC4/CyLFClk.c ****     *  when the used WDT counter became equal to the "match" value.
1404:.\Generated_Source\PSoC4/CyLFClk.c ****     *
1405:.\Generated_Source\PSoC4/CyLFClk.c ****     *  For the correct function operation, the "Clear On Match" option should be
1406:.\Generated_Source\PSoC4/CyLFClk.c ****     *  disabled for the specified WDT counter. Use CySysWdtSetClearOnMatch()
1407:.\Generated_Source\PSoC4/CyLFClk.c ****     *  function with the "enable" parameter equal to zero for the used WDT counter.
1408:.\Generated_Source\PSoC4/CyLFClk.c ****     *
1409:.\Generated_Source\PSoC4/CyLFClk.c ****     *  The corresponding WDT counter should be configured to match the selected mode:
1410:.\Generated_Source\PSoC4/CyLFClk.c ****     *  "Free running Timer" for the "WAIT" mode, and "Periodic Timer" / "Watchdog
1411:.\Generated_Source\PSoC4/CyLFClk.c ****     *  (w/Interrupt)" for the "INTERRUPT" mode.
1412:.\Generated_Source\PSoC4/CyLFClk.c ****     *
1413:.\Generated_Source\PSoC4/CyLFClk.c ****     *  This can be configured in two ways:
1414:.\Generated_Source\PSoC4/CyLFClk.c ****     *  - Through the DWR page. Open the "Clocks" tab, click the "Edit Clocks..."
1415:.\Generated_Source\PSoC4/CyLFClk.c ****     *    button, in the "Configure System Clocks" window click on the
1416:.\Generated_Source\PSoC4/CyLFClk.c ****     *    "Low Frequency Clocks" tab and choose the appropriate option for the used
1417:.\Generated_Source\PSoC4/CyLFClk.c ****     *    WDT counter.
1418:.\Generated_Source\PSoC4/CyLFClk.c ****     *
1419:.\Generated_Source\PSoC4/CyLFClk.c ****     *  - Through the CySysWdtSetMode() function. Call it with the appropriate "mode"
1420:.\Generated_Source\PSoC4/CyLFClk.c ****     *    parameter for the used WDT counter.
ARM GAS  C:\Users\mitchell\AppData\Local\Temp\ccP08FOF.s 			page 43


1421:.\Generated_Source\PSoC4/CyLFClk.c ****     *
1422:.\Generated_Source\PSoC4/CyLFClk.c ****     *  For the "INTERRUPT" mode, the recommended sequence is the following:
1423:.\Generated_Source\PSoC4/CyLFClk.c ****     *  - Call the CySysWdtDisableCounterIsr() function to disable servicing
1424:.\Generated_Source\PSoC4/CyLFClk.c ****     *    interrupts of the specified WDT counter.
1425:.\Generated_Source\PSoC4/CyLFClk.c ****     *
1426:.\Generated_Source\PSoC4/CyLFClk.c ****     *  - Call the CySysWdtSetInterruptCallback() function to register the callback
1427:.\Generated_Source\PSoC4/CyLFClk.c ****     *    function for the corresponding WDT counter.
1428:.\Generated_Source\PSoC4/CyLFClk.c ****     *
1429:.\Generated_Source\PSoC4/CyLFClk.c ****     *  - Call the CySysTimerDelay() function.
1430:.\Generated_Source\PSoC4/CyLFClk.c ****     *
1431:.\Generated_Source\PSoC4/CyLFClk.c ****     * Parameters:
1432:.\Generated_Source\PSoC4/CyLFClk.c ****     *  counterNum: Valid range [0-1]. The number of the WDT counter (WDT0 or WDT1).
1433:.\Generated_Source\PSoC4/CyLFClk.c ****     *  delayType : Defines the operation mode.
1434:.\Generated_Source\PSoC4/CyLFClk.c ****     *               CY_SYS_TIMER_WAIT       "WAIT" mode.
1435:.\Generated_Source\PSoC4/CyLFClk.c ****     *               CY_SYS_TIMER_INTERRUPT  "INTERRUPT" mode.
1436:.\Generated_Source\PSoC4/CyLFClk.c ****     *  delay:  The delay value in the LFCLK ticks (allowable range - 16-bit value).
1437:.\Generated_Source\PSoC4/CyLFClk.c ****     *
1438:.\Generated_Source\PSoC4/CyLFClk.c ****     * Return:
1439:.\Generated_Source\PSoC4/CyLFClk.c ****     *  None
1440:.\Generated_Source\PSoC4/CyLFClk.c ****     *
1441:.\Generated_Source\PSoC4/CyLFClk.c ****     * Side effects:
1442:.\Generated_Source\PSoC4/CyLFClk.c ****     *  In the "INTERRUPT" mode, this function enables ISR callback servicing
1443:.\Generated_Source\PSoC4/CyLFClk.c ****     *  from the corresponding WDT counter. Servicing of this ISR callback will be
1444:.\Generated_Source\PSoC4/CyLFClk.c ****     *  disabled after the expiration of the delay time.
1445:.\Generated_Source\PSoC4/CyLFClk.c ****     *
1446:.\Generated_Source\PSoC4/CyLFClk.c ****     *******************************************************************************/
1447:.\Generated_Source\PSoC4/CyLFClk.c ****     void CySysTimerDelayUntilMatch(uint32 counterNum, cy_sys_timer_delaytype_enum delayType, uint32
1448:.\Generated_Source\PSoC4/CyLFClk.c ****     {
1449:.\Generated_Source\PSoC4/CyLFClk.c ****         uint32 tmpValue;
1450:.\Generated_Source\PSoC4/CyLFClk.c **** 
1451:.\Generated_Source\PSoC4/CyLFClk.c ****         if((counterNum < CY_SYS_WDT_COUNTER2) && (0uL == CySysWdtGetClearOnMatch(counterNum)) && (m
1452:.\Generated_Source\PSoC4/CyLFClk.c ****         {
1453:.\Generated_Source\PSoC4/CyLFClk.c ****             if(delayType == CY_SYS_TIMER_WAIT)
1454:.\Generated_Source\PSoC4/CyLFClk.c ****             {
1455:.\Generated_Source\PSoC4/CyLFClk.c ****                 do
1456:.\Generated_Source\PSoC4/CyLFClk.c ****                 {
1457:.\Generated_Source\PSoC4/CyLFClk.c ****                     tmpValue = CySysWdtGetCount(counterNum);
1458:.\Generated_Source\PSoC4/CyLFClk.c ****                 }while(tmpValue > match);
1459:.\Generated_Source\PSoC4/CyLFClk.c **** 
1460:.\Generated_Source\PSoC4/CyLFClk.c ****                 do
1461:.\Generated_Source\PSoC4/CyLFClk.c ****                 {
1462:.\Generated_Source\PSoC4/CyLFClk.c ****                     tmpValue = CySysWdtGetCount(counterNum);
1463:.\Generated_Source\PSoC4/CyLFClk.c ****                 }while(tmpValue < match);
1464:.\Generated_Source\PSoC4/CyLFClk.c ****             }
1465:.\Generated_Source\PSoC4/CyLFClk.c ****             else
1466:.\Generated_Source\PSoC4/CyLFClk.c ****             {
1467:.\Generated_Source\PSoC4/CyLFClk.c ****                 tmpValue = counterIntMaskTbl[counterNum];
1468:.\Generated_Source\PSoC4/CyLFClk.c ****                 CySysWdtSetMatch(counterNum, match);
1469:.\Generated_Source\PSoC4/CyLFClk.c **** 
1470:.\Generated_Source\PSoC4/CyLFClk.c ****                 disableServicedIsr  |= tmpValue;
1471:.\Generated_Source\PSoC4/CyLFClk.c ****                 wdtIsrMask |= tmpValue;
1472:.\Generated_Source\PSoC4/CyLFClk.c ****             }
1473:.\Generated_Source\PSoC4/CyLFClk.c ****         }
1474:.\Generated_Source\PSoC4/CyLFClk.c ****         else
1475:.\Generated_Source\PSoC4/CyLFClk.c ****         {
1476:.\Generated_Source\PSoC4/CyLFClk.c ****             CYASSERT(0u != 0u);
1477:.\Generated_Source\PSoC4/CyLFClk.c ****         }
ARM GAS  C:\Users\mitchell\AppData\Local\Temp\ccP08FOF.s 			page 44


1478:.\Generated_Source\PSoC4/CyLFClk.c ****     }
1479:.\Generated_Source\PSoC4/CyLFClk.c **** 
1480:.\Generated_Source\PSoC4/CyLFClk.c **** 
1481:.\Generated_Source\PSoC4/CyLFClk.c ****     /*******************************************************************************
1482:.\Generated_Source\PSoC4/CyLFClk.c ****     * Function Name: CySysWatchdogFeed
1483:.\Generated_Source\PSoC4/CyLFClk.c ****     ********************************************************************************
1484:.\Generated_Source\PSoC4/CyLFClk.c ****     *
1485:.\Generated_Source\PSoC4/CyLFClk.c ****     * Summary:
1486:.\Generated_Source\PSoC4/CyLFClk.c ****     *  Feeds the watchdog counter before it causes the device reset. Supported only
1487:.\Generated_Source\PSoC4/CyLFClk.c ****     *  for WDT0 and WDT1 in the "Watchdog" or "Watchdog w/ Interrupts" modes.
1488:.\Generated_Source\PSoC4/CyLFClk.c ****     *
1489:.\Generated_Source\PSoC4/CyLFClk.c ****     * Parameters:
1490:.\Generated_Source\PSoC4/CyLFClk.c ****     *  counterNum:    The number of the WDT counter.
1491:.\Generated_Source\PSoC4/CyLFClk.c ****     *
1492:.\Generated_Source\PSoC4/CyLFClk.c ****     * Return:
1493:.\Generated_Source\PSoC4/CyLFClk.c ****     *  None.
1494:.\Generated_Source\PSoC4/CyLFClk.c ****     *
1495:.\Generated_Source\PSoC4/CyLFClk.c ****     * Side effects:
1496:.\Generated_Source\PSoC4/CyLFClk.c ****     *  Clears the WDT counter in the "Watchdog" mode or clears the WDT interrupt in
1497:.\Generated_Source\PSoC4/CyLFClk.c ****     *  "Watchdog w/ Interrupts" mode. Does nothing in other modes.
1498:.\Generated_Source\PSoC4/CyLFClk.c ****     *
1499:.\Generated_Source\PSoC4/CyLFClk.c ****     *******************************************************************************/
1500:.\Generated_Source\PSoC4/CyLFClk.c ****     void CySysWatchdogFeed(uint32 counterNum)
1501:.\Generated_Source\PSoC4/CyLFClk.c ****     {
1502:.\Generated_Source\PSoC4/CyLFClk.c ****         if(counterNum == CY_SYS_WDT_COUNTER0)
1503:.\Generated_Source\PSoC4/CyLFClk.c ****         {
1504:.\Generated_Source\PSoC4/CyLFClk.c ****             if(CY_SYS_WDT_MODE_INT_RESET == CySysWdtGetMode(counterNum))
1505:.\Generated_Source\PSoC4/CyLFClk.c ****             {
1506:.\Generated_Source\PSoC4/CyLFClk.c ****                 CySysWdtClearInterrupt(CY_SYS_WDT_COUNTER0_MASK);
1507:.\Generated_Source\PSoC4/CyLFClk.c ****             }
1508:.\Generated_Source\PSoC4/CyLFClk.c ****             else if(CY_SYS_WDT_MODE_RESET == CySysWdtGetMode(counterNum))
1509:.\Generated_Source\PSoC4/CyLFClk.c ****             {
1510:.\Generated_Source\PSoC4/CyLFClk.c ****                 CySysWdtResetCounters(CY_SYS_WDT_COUNTER0_RESET);
1511:.\Generated_Source\PSoC4/CyLFClk.c ****                 CySysWdtClearInterrupt(CY_SYS_WDT_COUNTER0_MASK);
1512:.\Generated_Source\PSoC4/CyLFClk.c ****             }
1513:.\Generated_Source\PSoC4/CyLFClk.c ****             else
1514:.\Generated_Source\PSoC4/CyLFClk.c ****             {
1515:.\Generated_Source\PSoC4/CyLFClk.c ****                 /* Do nothing. */
1516:.\Generated_Source\PSoC4/CyLFClk.c ****             }
1517:.\Generated_Source\PSoC4/CyLFClk.c ****         }
1518:.\Generated_Source\PSoC4/CyLFClk.c ****         else if(counterNum == CY_SYS_WDT_COUNTER1)
1519:.\Generated_Source\PSoC4/CyLFClk.c ****         {
1520:.\Generated_Source\PSoC4/CyLFClk.c ****             if(CY_SYS_WDT_MODE_INT_RESET == CySysWdtGetMode(counterNum))
1521:.\Generated_Source\PSoC4/CyLFClk.c ****             {
1522:.\Generated_Source\PSoC4/CyLFClk.c ****                 CySysWdtClearInterrupt(CY_SYS_WDT_COUNTER1_MASK);
1523:.\Generated_Source\PSoC4/CyLFClk.c ****             }
1524:.\Generated_Source\PSoC4/CyLFClk.c ****             else if(CY_SYS_WDT_MODE_RESET == CySysWdtGetMode(counterNum))
1525:.\Generated_Source\PSoC4/CyLFClk.c ****             {
1526:.\Generated_Source\PSoC4/CyLFClk.c ****                 CySysWdtResetCounters(CY_SYS_WDT_COUNTER1_RESET);
1527:.\Generated_Source\PSoC4/CyLFClk.c ****                 CySysWdtClearInterrupt(CY_SYS_WDT_COUNTER1_MASK);
1528:.\Generated_Source\PSoC4/CyLFClk.c ****             }
1529:.\Generated_Source\PSoC4/CyLFClk.c ****             else
1530:.\Generated_Source\PSoC4/CyLFClk.c ****             {
1531:.\Generated_Source\PSoC4/CyLFClk.c ****                 /* Do nothing. */
1532:.\Generated_Source\PSoC4/CyLFClk.c ****             }
1533:.\Generated_Source\PSoC4/CyLFClk.c ****         }
1534:.\Generated_Source\PSoC4/CyLFClk.c ****         else
ARM GAS  C:\Users\mitchell\AppData\Local\Temp\ccP08FOF.s 			page 45


1535:.\Generated_Source\PSoC4/CyLFClk.c ****         {
1536:.\Generated_Source\PSoC4/CyLFClk.c ****             /* Do nothing. */
1537:.\Generated_Source\PSoC4/CyLFClk.c ****         }
1538:.\Generated_Source\PSoC4/CyLFClk.c ****     }
1539:.\Generated_Source\PSoC4/CyLFClk.c **** 
1540:.\Generated_Source\PSoC4/CyLFClk.c **** 
1541:.\Generated_Source\PSoC4/CyLFClk.c ****     /*******************************************************************************
1542:.\Generated_Source\PSoC4/CyLFClk.c ****     * Function Name: CySysClkLfclkPosedgeCatch
1543:.\Generated_Source\PSoC4/CyLFClk.c ****     ********************************************************************************
1544:.\Generated_Source\PSoC4/CyLFClk.c ****     *
1545:.\Generated_Source\PSoC4/CyLFClk.c ****     * Summary:
1546:.\Generated_Source\PSoC4/CyLFClk.c ****     *  Returns once the LFCLK positive edge occurred.
1547:.\Generated_Source\PSoC4/CyLFClk.c ****     *
1548:.\Generated_Source\PSoC4/CyLFClk.c ****     *  CySysClkLfclkPosedgeRestore() should be called after this function
1549:.\Generated_Source\PSoC4/CyLFClk.c ****     *  to restore the WDT configuration.
1550:.\Generated_Source\PSoC4/CyLFClk.c ****     *
1551:.\Generated_Source\PSoC4/CyLFClk.c ****     *  A pair of the CySysClkLfclkPosedgeCatch() and CySysClkLfclkPosedgeRestore()
1552:.\Generated_Source\PSoC4/CyLFClk.c ****     *  functions is expected to be called inside a critical section.
1553:.\Generated_Source\PSoC4/CyLFClk.c ****     *
1554:.\Generated_Source\PSoC4/CyLFClk.c ****     *  To ensure that the WDT counter value is read until it changes, the enabled
1555:.\Generated_Source\PSoC4/CyLFClk.c ****     *  WDT counter is used. If no counter is enabled, counter 0 is enabled.
1556:.\Generated_Source\PSoC4/CyLFClk.c ****     *  And after the LFCLK source is switched, the counter 0 configuration
1557:.\Generated_Source\PSoC4/CyLFClk.c ****     *  is restored.
1558:.\Generated_Source\PSoC4/CyLFClk.c ****     *
1559:.\Generated_Source\PSoC4/CyLFClk.c ****     *  Not applicable for the PSoC 4000 devices.
1560:.\Generated_Source\PSoC4/CyLFClk.c ****     *
1561:.\Generated_Source\PSoC4/CyLFClk.c ****     * Parameters:
1562:.\Generated_Source\PSoC4/CyLFClk.c ****     *  None.
1563:.\Generated_Source\PSoC4/CyLFClk.c ****     *
1564:.\Generated_Source\PSoC4/CyLFClk.c ****     * Return:
1565:.\Generated_Source\PSoC4/CyLFClk.c ****     *  None.
1566:.\Generated_Source\PSoC4/CyLFClk.c ****     *
1567:.\Generated_Source\PSoC4/CyLFClk.c ****     * Side Effects:
1568:.\Generated_Source\PSoC4/CyLFClk.c ****     *  This function has no effect if WDT is locked (CySysWdtLock() is
1569:.\Generated_Source\PSoC4/CyLFClk.c ****     *  called). Call CySysWdtUnlock() to unlock WDT.
1570:.\Generated_Source\PSoC4/CyLFClk.c ****     *
1571:.\Generated_Source\PSoC4/CyLFClk.c ****     *******************************************************************************/
1572:.\Generated_Source\PSoC4/CyLFClk.c ****     static void CySysClkLfclkPosedgeCatch(void)
1573:.\Generated_Source\PSoC4/CyLFClk.c ****     {
1574:.\Generated_Source\PSoC4/CyLFClk.c ****         uint32 firstCount;
1575:.\Generated_Source\PSoC4/CyLFClk.c ****         static uint32 lfclkPosedgeEnabledWdtCounter = 0u;
1576:.\Generated_Source\PSoC4/CyLFClk.c **** 
1577:.\Generated_Source\PSoC4/CyLFClk.c ****         if (0u != CySysWdtGetEnabledStatus(CY_SYS_WDT_COUNTER0))
1578:.\Generated_Source\PSoC4/CyLFClk.c ****         {
1579:.\Generated_Source\PSoC4/CyLFClk.c ****             lfclkPosedgeEnabledWdtCounter = CY_SYS_WDT_COUNTER0;
1580:.\Generated_Source\PSoC4/CyLFClk.c ****         }
1581:.\Generated_Source\PSoC4/CyLFClk.c ****         else if (0u != CySysWdtGetEnabledStatus(CY_SYS_WDT_COUNTER1))
1582:.\Generated_Source\PSoC4/CyLFClk.c ****         {
1583:.\Generated_Source\PSoC4/CyLFClk.c ****             lfclkPosedgeEnabledWdtCounter = CY_SYS_WDT_COUNTER1;
1584:.\Generated_Source\PSoC4/CyLFClk.c ****         }
1585:.\Generated_Source\PSoC4/CyLFClk.c ****         else if (0u != CySysWdtGetEnabledStatus(CY_SYS_WDT_COUNTER2))
1586:.\Generated_Source\PSoC4/CyLFClk.c ****         {
1587:.\Generated_Source\PSoC4/CyLFClk.c ****             lfclkPosedgeEnabledWdtCounter = CY_SYS_WDT_COUNTER2;
1588:.\Generated_Source\PSoC4/CyLFClk.c ****         }
1589:.\Generated_Source\PSoC4/CyLFClk.c ****         else /* All WDT counters are disabled */
1590:.\Generated_Source\PSoC4/CyLFClk.c ****         {
1591:.\Generated_Source\PSoC4/CyLFClk.c ****             /* Configure WDT counter # 0 */
ARM GAS  C:\Users\mitchell\AppData\Local\Temp\ccP08FOF.s 			page 46


1592:.\Generated_Source\PSoC4/CyLFClk.c ****             lfclkPosedgeWdtCounter0Enabled = 1u;
1593:.\Generated_Source\PSoC4/CyLFClk.c ****             lfclkPosedgeEnabledWdtCounter = CY_SYS_WDT_COUNTER0;
1594:.\Generated_Source\PSoC4/CyLFClk.c **** 
1595:.\Generated_Source\PSoC4/CyLFClk.c ****             lfclkPosedgeWdtCounter0Mode = CySysWdtGetMode(CY_SYS_WDT_COUNTER0);
1596:.\Generated_Source\PSoC4/CyLFClk.c ****             CySysWdtSetMode(CY_SYS_WDT_COUNTER0, CY_SYS_WDT_MODE_NONE);
1597:.\Generated_Source\PSoC4/CyLFClk.c ****             CySysWdtEnable(CY_SYS_WDT_COUNTER0_MASK);
1598:.\Generated_Source\PSoC4/CyLFClk.c ****         }
1599:.\Generated_Source\PSoC4/CyLFClk.c **** 
1600:.\Generated_Source\PSoC4/CyLFClk.c ****         firstCount = CySysWdtGetCount(lfclkPosedgeEnabledWdtCounter);
1601:.\Generated_Source\PSoC4/CyLFClk.c ****         while (CySysWdtGetCount(lfclkPosedgeEnabledWdtCounter) == firstCount)
1602:.\Generated_Source\PSoC4/CyLFClk.c ****         {
1603:.\Generated_Source\PSoC4/CyLFClk.c ****             /* Wait for counter to increment */
1604:.\Generated_Source\PSoC4/CyLFClk.c ****         }
1605:.\Generated_Source\PSoC4/CyLFClk.c ****     }
1606:.\Generated_Source\PSoC4/CyLFClk.c **** 
1607:.\Generated_Source\PSoC4/CyLFClk.c **** 
1608:.\Generated_Source\PSoC4/CyLFClk.c ****     /*******************************************************************************
1609:.\Generated_Source\PSoC4/CyLFClk.c ****     * Function Name: CySysClkLfclkPosedgeRestore
1610:.\Generated_Source\PSoC4/CyLFClk.c ****     ********************************************************************************
1611:.\Generated_Source\PSoC4/CyLFClk.c ****     *
1612:.\Generated_Source\PSoC4/CyLFClk.c ****     * Summary:
1613:.\Generated_Source\PSoC4/CyLFClk.c ****     *  Restores the WDT configuration after a CySysClkLfclkPosedgeCatch() call.
1614:.\Generated_Source\PSoC4/CyLFClk.c ****     *
1615:.\Generated_Source\PSoC4/CyLFClk.c ****     *  A pair of the CySysClkLfclkPosedgeCatch() and CySysClkLfclkPosedgeRestore()
1616:.\Generated_Source\PSoC4/CyLFClk.c ****     *  functions is expected to be called inside a critical section.
1617:.\Generated_Source\PSoC4/CyLFClk.c ****     *
1618:.\Generated_Source\PSoC4/CyLFClk.c ****     *  Not applicable for the PSoC 4000 devices.
1619:.\Generated_Source\PSoC4/CyLFClk.c ****     *
1620:.\Generated_Source\PSoC4/CyLFClk.c ****     * Parameters:
1621:.\Generated_Source\PSoC4/CyLFClk.c ****     *  None.
1622:.\Generated_Source\PSoC4/CyLFClk.c ****     *
1623:.\Generated_Source\PSoC4/CyLFClk.c ****     * Return:
1624:.\Generated_Source\PSoC4/CyLFClk.c ****     *  None.
1625:.\Generated_Source\PSoC4/CyLFClk.c ****     *
1626:.\Generated_Source\PSoC4/CyLFClk.c ****     * Side Effects:
1627:.\Generated_Source\PSoC4/CyLFClk.c ****     *  This function has no effect if WDT is locked (CySysWdtLock() is
1628:.\Generated_Source\PSoC4/CyLFClk.c ****     *  called). Call CySysWdtUnlock() to unlock WDT.
1629:.\Generated_Source\PSoC4/CyLFClk.c ****     *
1630:.\Generated_Source\PSoC4/CyLFClk.c ****     *******************************************************************************/
1631:.\Generated_Source\PSoC4/CyLFClk.c ****     static void CySysClkLfclkPosedgeRestore(void)
1632:.\Generated_Source\PSoC4/CyLFClk.c ****     {
 554              		.loc 1 1632 0
 555              		.cfi_startproc
 556 0000 10B5     		push	{r4, lr}
 557              		.cfi_def_cfa_offset 8
 558              		.cfi_offset 4, -8
 559              		.cfi_offset 14, -4
1633:.\Generated_Source\PSoC4/CyLFClk.c ****         if (lfclkPosedgeWdtCounter0Enabled != 0u)
 560              		.loc 1 1633 0
 561 0002 084B     		ldr	r3, .L50
 562 0004 1B68     		ldr	r3, [r3]
 563 0006 002B     		cmp	r3, #0
 564 0008 0BD0     		beq	.L48
1634:.\Generated_Source\PSoC4/CyLFClk.c ****         {
1635:.\Generated_Source\PSoC4/CyLFClk.c ****             /* Restore counter # 0 configuration and force its shutdown */
1636:.\Generated_Source\PSoC4/CyLFClk.c ****             CY_SYS_WDT_CONTROL_REG &= (uint32)(~CY_SYS_WDT_COUNTER0_MASK);
 565              		.loc 1 1636 0
ARM GAS  C:\Users\mitchell\AppData\Local\Temp\ccP08FOF.s 			page 47


 566 000a 074B     		ldr	r3, .L50+4
 567 000c 1A68     		ldr	r2, [r3]
 568 000e 0121     		mov	r1, #1
 569 0010 8A43     		bic	r2, r1
 570 0012 1A60     		str	r2, [r3]
1637:.\Generated_Source\PSoC4/CyLFClk.c ****             CySysWdtSetMode(CY_SYS_WDT_COUNTER0, lfclkPosedgeWdtCounter0Mode);
 571              		.loc 1 1637 0
 572 0014 034C     		ldr	r4, .L50
 573 0016 0020     		mov	r0, #0
 574 0018 6168     		ldr	r1, [r4, #4]
 575 001a FFF7FEFF 		bl	CySysWdtSetMode
 576              	.LVL27:
1638:.\Generated_Source\PSoC4/CyLFClk.c ****             lfclkPosedgeWdtCounter0Enabled = 0u;
 577              		.loc 1 1638 0
 578 001e 0023     		mov	r3, #0
 579 0020 2360     		str	r3, [r4]
 580              	.L48:
1639:.\Generated_Source\PSoC4/CyLFClk.c ****         }
1640:.\Generated_Source\PSoC4/CyLFClk.c ****     }
 581              		.loc 1 1640 0
 582              		@ sp needed
 583 0022 10BD     		pop	{r4, pc}
 584              	.L51:
 585              		.align	2
 586              	.L50:
 587 0024 00000000 		.word	.LANCHOR0
 588 0028 10020B40 		.word	1074463248
 589              		.cfi_endproc
 590              	.LFE40:
 591              		.size	CySysClkLfclkPosedgeRestore, .-CySysClkLfclkPosedgeRestore
 592              		.section	.text.CySysWdtGetMode,"ax",%progbits
 593              		.align	2
 594              		.global	CySysWdtGetMode
 595              		.code	16
 596              		.thumb_func
 597              		.type	CySysWdtGetMode, %function
 598              	CySysWdtGetMode:
 599              	.LFB16:
 561:.\Generated_Source\PSoC4/CyLFClk.c ****     {
 600              		.loc 1 561 0
 601              		.cfi_startproc
 602              	.LVL28:
 562:.\Generated_Source\PSoC4/CyLFClk.c ****         return ((CY_SYS_WDT_CONFIG_REG >> (counterNum * CY_SYS_WDT_CNT_SHIFT)) & CY_SYS_WDT_MODE_MA
 603              		.loc 1 562 0
 604 0000 034B     		ldr	r3, .L53
 605 0002 1B68     		ldr	r3, [r3]
 606 0004 C000     		lsl	r0, r0, #3
 607              	.LVL29:
 608 0006 C340     		lsr	r3, r3, r0
 609 0008 181C     		mov	r0, r3
 610 000a 0323     		mov	r3, #3
 611 000c 1840     		and	r0, r3
 563:.\Generated_Source\PSoC4/CyLFClk.c ****     }
 612              		.loc 1 563 0
 613              		@ sp needed
 614 000e 7047     		bx	lr
 615              	.L54:
ARM GAS  C:\Users\mitchell\AppData\Local\Temp\ccP08FOF.s 			page 48


 616              		.align	2
 617              	.L53:
 618 0010 0C020B40 		.word	1074463244
 619              		.cfi_endproc
 620              	.LFE16:
 621              		.size	CySysWdtGetMode, .-CySysWdtGetMode
 622              		.section	.text.CySysWdtSetClearOnMatch,"ax",%progbits
 623              		.align	2
 624              		.global	CySysWdtSetClearOnMatch
 625              		.code	16
 626              		.thumb_func
 627              		.type	CySysWdtSetClearOnMatch, %function
 628              	CySysWdtSetClearOnMatch:
 629              	.LFB17:
 594:.\Generated_Source\PSoC4/CyLFClk.c ****     {
 630              		.loc 1 594 0
 631              		.cfi_startproc
 632              	.LVL30:
 633 0000 38B5     		push	{r3, r4, r5, lr}
 634              		.cfi_def_cfa_offset 16
 635              		.cfi_offset 3, -16
 636              		.cfi_offset 4, -12
 637              		.cfi_offset 5, -8
 638              		.cfi_offset 14, -4
 639 0002 041C     		mov	r4, r0
 640 0004 0D1C     		mov	r5, r1
 597:.\Generated_Source\PSoC4/CyLFClk.c ****         CYASSERT((counterNum == CY_SYS_WDT_COUNTER0) ||
 641              		.loc 1 597 0
 642 0006 0128     		cmp	r0, #1
 643 0008 02D9     		bls	.L56
 597:.\Generated_Source\PSoC4/CyLFClk.c ****         CYASSERT((counterNum == CY_SYS_WDT_COUNTER0) ||
 644              		.loc 1 597 0 is_stmt 0 discriminator 1
 645 000a 0020     		mov	r0, #0
 646              	.LVL31:
 647 000c FFF7FEFF 		bl	CyHalt
 648              	.LVL32:
 649              	.L56:
 600:.\Generated_Source\PSoC4/CyLFClk.c ****         if(0u == CySysWdtGetEnabledStatus(counterNum))
 650              		.loc 1 600 0 is_stmt 1
 651 0010 201C     		mov	r0, r4
 652 0012 FFF7FEFF 		bl	CySysWdtGetEnabledStatus
 653              	.LVL33:
 654 0016 0028     		cmp	r0, #0
 655 0018 0AD1     		bne	.L55
 602:.\Generated_Source\PSoC4/CyLFClk.c ****             configRegValue = CY_SYS_WDT_CONFIG_REG &
 656              		.loc 1 602 0
 657 001a 064B     		ldr	r3, .L58
 658 001c 1A68     		ldr	r2, [r3]
 603:.\Generated_Source\PSoC4/CyLFClk.c ****                 (uint32)~((uint32)((uint32)1u << ((counterNum * CY_SYS_WDT_CNT_SHIFT) + CY_SYS_WDT_
 659              		.loc 1 603 0
 660 001e E400     		lsl	r4, r4, #3
 661              	.LVL34:
 662 0020 0234     		add	r4, r4, #2
 663 0022 0121     		mov	r1, #1
 664 0024 A140     		lsl	r1, r1, r4
 602:.\Generated_Source\PSoC4/CyLFClk.c ****             configRegValue = CY_SYS_WDT_CONFIG_REG &
 665              		.loc 1 602 0
ARM GAS  C:\Users\mitchell\AppData\Local\Temp\ccP08FOF.s 			page 49


 666 0026 8A43     		bic	r2, r1
 667              	.LVL35:
 606:.\Generated_Source\PSoC4/CyLFClk.c ****                 |= (uint32)(enable << ((counterNum * CY_SYS_WDT_CNT_SHIFT) + CY_SYS_WDT_CNT_MATCH_C
 668              		.loc 1 606 0
 669 0028 A540     		lsl	r5, r5, r4
 670              	.LVL36:
 671 002a 2C1C     		mov	r4, r5
 672 002c 1443     		orr	r4, r2
 673              	.LVL37:
 608:.\Generated_Source\PSoC4/CyLFClk.c ****             CY_SYS_WDT_CONFIG_REG = configRegValue;
 674              		.loc 1 608 0
 675 002e 1C60     		str	r4, [r3]
 676              	.LVL38:
 677              	.L55:
 610:.\Generated_Source\PSoC4/CyLFClk.c ****     }
 678              		.loc 1 610 0
 679              		@ sp needed
 680 0030 38BD     		pop	{r3, r4, r5, pc}
 681              	.L59:
 682 0032 C046     		.align	2
 683              	.L58:
 684 0034 0C020B40 		.word	1074463244
 685              		.cfi_endproc
 686              	.LFE17:
 687              		.size	CySysWdtSetClearOnMatch, .-CySysWdtSetClearOnMatch
 688              		.section	.text.CySysWdtGetClearOnMatch,"ax",%progbits
 689              		.align	2
 690              		.global	CySysWdtGetClearOnMatch
 691              		.code	16
 692              		.thumb_func
 693              		.type	CySysWdtGetClearOnMatch, %function
 694              	CySysWdtGetClearOnMatch:
 695              	.LFB18:
 629:.\Generated_Source\PSoC4/CyLFClk.c ****     {
 696              		.loc 1 629 0
 697              		.cfi_startproc
 698              	.LVL39:
 699 0000 10B5     		push	{r4, lr}
 700              		.cfi_def_cfa_offset 8
 701              		.cfi_offset 4, -8
 702              		.cfi_offset 14, -4
 703 0002 041E     		sub	r4, r0, #0
 630:.\Generated_Source\PSoC4/CyLFClk.c ****         CYASSERT((counterNum == CY_SYS_WDT_COUNTER0) ||
 704              		.loc 1 630 0
 705 0004 012C     		cmp	r4, #1
 706 0006 02D9     		bls	.L61
 630:.\Generated_Source\PSoC4/CyLFClk.c ****         CYASSERT((counterNum == CY_SYS_WDT_COUNTER0) ||
 707              		.loc 1 630 0 is_stmt 0 discriminator 1
 708 0008 0020     		mov	r0, #0
 709              	.LVL40:
 710 000a FFF7FEFF 		bl	CyHalt
 711              	.LVL41:
 712              	.L61:
 633:.\Generated_Source\PSoC4/CyLFClk.c ****         return (uint32)((CY_SYS_WDT_CONFIG_REG >>
 713              		.loc 1 633 0 is_stmt 1
 714 000e 044B     		ldr	r3, .L62
 715 0010 1868     		ldr	r0, [r3]
ARM GAS  C:\Users\mitchell\AppData\Local\Temp\ccP08FOF.s 			page 50


 634:.\Generated_Source\PSoC4/CyLFClk.c ****                         ((counterNum * CY_SYS_WDT_CNT_SHIFT) + CY_SYS_WDT_CNT_MATCH_CLR_SHIFT)) & 0
 716              		.loc 1 634 0
 717 0012 E400     		lsl	r4, r4, #3
 718              	.LVL42:
 719 0014 0234     		add	r4, r4, #2
 633:.\Generated_Source\PSoC4/CyLFClk.c ****         return (uint32)((CY_SYS_WDT_CONFIG_REG >>
 720              		.loc 1 633 0
 721 0016 E040     		lsr	r0, r0, r4
 722 0018 0124     		mov	r4, #1
 723 001a 2040     		and	r0, r4
 635:.\Generated_Source\PSoC4/CyLFClk.c ****     }
 724              		.loc 1 635 0
 725              		@ sp needed
 726 001c 10BD     		pop	{r4, pc}
 727              	.L63:
 728 001e C046     		.align	2
 729              	.L62:
 730 0020 0C020B40 		.word	1074463244
 731              		.cfi_endproc
 732              	.LFE18:
 733              		.size	CySysWdtGetClearOnMatch, .-CySysWdtGetClearOnMatch
 734              		.section	.text.CySysWdtEnable,"ax",%progbits
 735              		.align	2
 736              		.global	CySysWdtEnable
 737              		.code	16
 738              		.thumb_func
 739              		.type	CySysWdtEnable, %function
 740              	CySysWdtEnable:
 741              	.LFB19:
 675:.\Generated_Source\PSoC4/CyLFClk.c ****     {
 742              		.loc 1 675 0
 743              		.cfi_startproc
 744              	.LVL43:
 745 0000 10B5     		push	{r4, lr}
 746              		.cfi_def_cfa_offset 8
 747              		.cfi_offset 4, -8
 748              		.cfi_offset 14, -4
 749 0002 041C     		mov	r4, r0
 680:.\Generated_Source\PSoC4/CyLFClk.c ****         CY_SYS_WDT_CONTROL_REG |= counterMask;
 750              		.loc 1 680 0
 751 0004 0C4B     		ldr	r3, .L77
 752 0006 1A68     		ldr	r2, [r3]
 753 0008 0243     		orr	r2, r0
 754 000a 1A60     		str	r2, [r3]
 682:.\Generated_Source\PSoC4/CyLFClk.c ****         if(0u != (counterMask & CY_SYS_WDT_COUNTER0_MASK))
 755              		.loc 1 682 0
 756 000c C307     		lsl	r3, r0, #31
 757 000e 04D5     		bpl	.L65
 758              	.LVL44:
 759              	.L73:
 684:.\Generated_Source\PSoC4/CyLFClk.c ****             while (0u == CySysWdtGetEnabledStatus(CY_SYS_WDT_COUNTER0))
 760              		.loc 1 684 0 discriminator 1
 761 0010 0020     		mov	r0, #0
 762 0012 FFF7FEFF 		bl	CySysWdtGetEnabledStatus
 763              	.LVL45:
 764 0016 0028     		cmp	r0, #0
 765 0018 FAD0     		beq	.L73
ARM GAS  C:\Users\mitchell\AppData\Local\Temp\ccP08FOF.s 			page 51


 766              	.L65:
 690:.\Generated_Source\PSoC4/CyLFClk.c ****         if(0u != (counterMask & CY_SYS_WDT_COUNTER1_MASK))
 767              		.loc 1 690 0
 768 001a E305     		lsl	r3, r4, #23
 769 001c 04D5     		bpl	.L67
 770              	.L72:
 692:.\Generated_Source\PSoC4/CyLFClk.c ****             while (0u == CySysWdtGetEnabledStatus(CY_SYS_WDT_COUNTER1))
 771              		.loc 1 692 0 discriminator 1
 772 001e 0120     		mov	r0, #1
 773 0020 FFF7FEFF 		bl	CySysWdtGetEnabledStatus
 774              	.LVL46:
 775 0024 0028     		cmp	r0, #0
 776 0026 FAD0     		beq	.L72
 777              	.L67:
 698:.\Generated_Source\PSoC4/CyLFClk.c ****         if(0u != (counterMask & CY_SYS_WDT_COUNTER2_MASK))
 778              		.loc 1 698 0
 779 0028 E303     		lsl	r3, r4, #15
 780 002a 04D5     		bpl	.L64
 781              	.L71:
 700:.\Generated_Source\PSoC4/CyLFClk.c ****             while (0u == CySysWdtGetEnabledStatus(CY_SYS_WDT_COUNTER2))
 782              		.loc 1 700 0 discriminator 1
 783 002c 0220     		mov	r0, #2
 784 002e FFF7FEFF 		bl	CySysWdtGetEnabledStatus
 785              	.LVL47:
 786 0032 0028     		cmp	r0, #0
 787 0034 FAD0     		beq	.L71
 788              	.L64:
 705:.\Generated_Source\PSoC4/CyLFClk.c ****     }
 789              		.loc 1 705 0
 790              		@ sp needed
 791              	.LVL48:
 792 0036 10BD     		pop	{r4, pc}
 793              	.L78:
 794              		.align	2
 795              	.L77:
 796 0038 10020B40 		.word	1074463248
 797              		.cfi_endproc
 798              	.LFE19:
 799              		.size	CySysWdtEnable, .-CySysWdtEnable
 800              		.section	.text.CySysWdtDisable,"ax",%progbits
 801              		.align	2
 802              		.global	CySysWdtDisable
 803              		.code	16
 804              		.thumb_func
 805              		.type	CySysWdtDisable, %function
 806              	CySysWdtDisable:
 807              	.LFB20:
 728:.\Generated_Source\PSoC4/CyLFClk.c ****     {
 808              		.loc 1 728 0
 809              		.cfi_startproc
 810              	.LVL49:
 811 0000 10B5     		push	{r4, lr}
 812              		.cfi_def_cfa_offset 8
 813              		.cfi_offset 4, -8
 814              		.cfi_offset 14, -4
 815 0002 041C     		mov	r4, r0
 729:.\Generated_Source\PSoC4/CyLFClk.c ****         if (0uL == CySysWdtLocked())
ARM GAS  C:\Users\mitchell\AppData\Local\Temp\ccP08FOF.s 			page 52


 816              		.loc 1 729 0
 817 0004 FFF7FEFF 		bl	CySysWdtLocked
 818              	.LVL50:
 819 0008 0028     		cmp	r0, #0
 820 000a 18D1     		bne	.L79
 731:.\Generated_Source\PSoC4/CyLFClk.c ****             CY_SYS_WDT_CONTROL_REG &= ~counterMask;
 821              		.loc 1 731 0
 822 000c 0C4B     		ldr	r3, .L92
 823 000e 1A68     		ldr	r2, [r3]
 824 0010 A243     		bic	r2, r4
 825 0012 1A60     		str	r2, [r3]
 733:.\Generated_Source\PSoC4/CyLFClk.c ****             if(0u != (counterMask & CY_SYS_WDT_COUNTER0_MASK))
 826              		.loc 1 733 0
 827 0014 E307     		lsl	r3, r4, #31
 828 0016 04D5     		bpl	.L81
 829              	.L88:
 735:.\Generated_Source\PSoC4/CyLFClk.c ****                 while (0u != CySysWdtGetEnabledStatus(CY_SYS_WDT_COUNTER0))
 830              		.loc 1 735 0 discriminator 1
 831 0018 0020     		mov	r0, #0
 832 001a FFF7FEFF 		bl	CySysWdtGetEnabledStatus
 833              	.LVL51:
 834 001e 0028     		cmp	r0, #0
 835 0020 FAD1     		bne	.L88
 836              	.L81:
 741:.\Generated_Source\PSoC4/CyLFClk.c ****             if(0u != (counterMask & CY_SYS_WDT_COUNTER1_MASK))
 837              		.loc 1 741 0
 838 0022 E305     		lsl	r3, r4, #23
 839 0024 04D5     		bpl	.L83
 840              	.L87:
 743:.\Generated_Source\PSoC4/CyLFClk.c ****                 while (0u != CySysWdtGetEnabledStatus(CY_SYS_WDT_COUNTER1))
 841              		.loc 1 743 0 discriminator 1
 842 0026 0120     		mov	r0, #1
 843 0028 FFF7FEFF 		bl	CySysWdtGetEnabledStatus
 844              	.LVL52:
 845 002c 0028     		cmp	r0, #0
 846 002e FAD1     		bne	.L87
 847              	.L83:
 749:.\Generated_Source\PSoC4/CyLFClk.c ****             if(0u != (counterMask & CY_SYS_WDT_COUNTER2_MASK))
 848              		.loc 1 749 0
 849 0030 E303     		lsl	r3, r4, #15
 850 0032 04D5     		bpl	.L79
 851              	.L86:
 751:.\Generated_Source\PSoC4/CyLFClk.c ****                 while (0u != CySysWdtGetEnabledStatus(CY_SYS_WDT_COUNTER2))
 852              		.loc 1 751 0 discriminator 1
 853 0034 0220     		mov	r0, #2
 854 0036 FFF7FEFF 		bl	CySysWdtGetEnabledStatus
 855              	.LVL53:
 856 003a 0028     		cmp	r0, #0
 857 003c FAD1     		bne	.L86
 858              	.L79:
 757:.\Generated_Source\PSoC4/CyLFClk.c ****     }
 859              		.loc 1 757 0
 860              		@ sp needed
 861              	.LVL54:
 862 003e 10BD     		pop	{r4, pc}
 863              	.L93:
 864              		.align	2
ARM GAS  C:\Users\mitchell\AppData\Local\Temp\ccP08FOF.s 			page 53


 865              	.L92:
 866 0040 10020B40 		.word	1074463248
 867              		.cfi_endproc
 868              	.LFE20:
 869              		.size	CySysWdtDisable, .-CySysWdtDisable
 870              		.section	.text.CySysWdtSetCascade,"ax",%progbits
 871              		.align	2
 872              		.global	CySysWdtSetCascade
 873              		.code	16
 874              		.thumb_func
 875              		.type	CySysWdtSetCascade, %function
 876              	CySysWdtSetCascade:
 877              	.LFB21:
 794:.\Generated_Source\PSoC4/CyLFClk.c ****     {
 878              		.loc 1 794 0
 879              		.cfi_startproc
 880              	.LVL55:
 881 0000 38B5     		push	{r3, r4, r5, lr}
 882              		.cfi_def_cfa_offset 16
 883              		.cfi_offset 3, -16
 884              		.cfi_offset 4, -12
 885              		.cfi_offset 5, -8
 886              		.cfi_offset 14, -4
 887 0002 051C     		mov	r5, r0
 798:.\Generated_Source\PSoC4/CyLFClk.c ****         countersEnableStatus = CySysWdtGetEnabledStatus(CY_SYS_WDT_COUNTER0) |
 888              		.loc 1 798 0
 889 0004 0020     		mov	r0, #0
 890              	.LVL56:
 891 0006 FFF7FEFF 		bl	CySysWdtGetEnabledStatus
 892              	.LVL57:
 893 000a 041C     		mov	r4, r0
 799:.\Generated_Source\PSoC4/CyLFClk.c ****                             CySysWdtGetEnabledStatus(CY_SYS_WDT_COUNTER1) |
 894              		.loc 1 799 0
 895 000c 0120     		mov	r0, #1
 896 000e FFF7FEFF 		bl	CySysWdtGetEnabledStatus
 897              	.LVL58:
 798:.\Generated_Source\PSoC4/CyLFClk.c ****         countersEnableStatus = CySysWdtGetEnabledStatus(CY_SYS_WDT_COUNTER0) |
 898              		.loc 1 798 0
 899 0012 0443     		orr	r4, r0
 800:.\Generated_Source\PSoC4/CyLFClk.c ****                             CySysWdtGetEnabledStatus(CY_SYS_WDT_COUNTER2);
 900              		.loc 1 800 0
 901 0014 0220     		mov	r0, #2
 902 0016 FFF7FEFF 		bl	CySysWdtGetEnabledStatus
 903              	.LVL59:
 798:.\Generated_Source\PSoC4/CyLFClk.c ****         countersEnableStatus = CySysWdtGetEnabledStatus(CY_SYS_WDT_COUNTER0) |
 904              		.loc 1 798 0
 905 001a 0443     		orr	r4, r0
 906              	.LVL60:
 802:.\Generated_Source\PSoC4/CyLFClk.c ****         if (0u == countersEnableStatus)
 907              		.loc 1 802 0
 908 001c 05D1     		bne	.L94
 804:.\Generated_Source\PSoC4/CyLFClk.c ****             configRegValue = CY_SYS_WDT_CONFIG_REG;
 909              		.loc 1 804 0
 910 001e 034B     		ldr	r3, .L96
 911 0020 1968     		ldr	r1, [r3]
 912              	.LVL61:
 805:.\Generated_Source\PSoC4/CyLFClk.c ****             configRegValue &= ((uint32)(~(CY_SYS_WDT_CASCADE_01|CY_SYS_WDT_CASCADE_12)));
ARM GAS  C:\Users\mitchell\AppData\Local\Temp\ccP08FOF.s 			page 54


 913              		.loc 1 805 0
 914 0022 034A     		ldr	r2, .L96+4
 915 0024 0A40     		and	r2, r1
 916              	.LVL62:
 806:.\Generated_Source\PSoC4/CyLFClk.c ****             configRegValue |= cascadeMask;
 917              		.loc 1 806 0
 918 0026 1543     		orr	r5, r2
 919              	.LVL63:
 807:.\Generated_Source\PSoC4/CyLFClk.c ****             CY_SYS_WDT_CONFIG_REG = configRegValue;
 920              		.loc 1 807 0
 921 0028 1D60     		str	r5, [r3]
 922              	.LVL64:
 923              	.L94:
 809:.\Generated_Source\PSoC4/CyLFClk.c ****     }
 924              		.loc 1 809 0
 925              		@ sp needed
 926              	.LVL65:
 927 002a 38BD     		pop	{r3, r4, r5, pc}
 928              	.L97:
 929              		.align	2
 930              	.L96:
 931 002c 0C020B40 		.word	1074463244
 932 0030 F7F7FFFF 		.word	-2057
 933              		.cfi_endproc
 934              	.LFE21:
 935              		.size	CySysWdtSetCascade, .-CySysWdtSetCascade
 936              		.section	.text.CySysWdtGetCascade,"ax",%progbits
 937              		.align	2
 938              		.global	CySysWdtGetCascade
 939              		.code	16
 940              		.thumb_func
 941              		.type	CySysWdtGetCascade, %function
 942              	CySysWdtGetCascade:
 943              	.LFB22:
 831:.\Generated_Source\PSoC4/CyLFClk.c ****     {
 944              		.loc 1 831 0
 945              		.cfi_startproc
 832:.\Generated_Source\PSoC4/CyLFClk.c ****         return (CY_SYS_WDT_CONFIG_REG & (CY_SYS_WDT_CASCADE_01 | CY_SYS_WDT_CASCADE_12));
 946              		.loc 1 832 0
 947 0000 024B     		ldr	r3, .L99
 948 0002 1868     		ldr	r0, [r3]
 949 0004 024B     		ldr	r3, .L99+4
 950 0006 1840     		and	r0, r3
 833:.\Generated_Source\PSoC4/CyLFClk.c ****     }
 951              		.loc 1 833 0
 952              		@ sp needed
 953 0008 7047     		bx	lr
 954              	.L100:
 955 000a C046     		.align	2
 956              	.L99:
 957 000c 0C020B40 		.word	1074463244
 958 0010 08080000 		.word	2056
 959              		.cfi_endproc
 960              	.LFE22:
 961              		.size	CySysWdtGetCascade, .-CySysWdtGetCascade
 962              		.section	.text.CySysWdtSetMatch,"ax",%progbits
 963              		.align	2
ARM GAS  C:\Users\mitchell\AppData\Local\Temp\ccP08FOF.s 			page 55


 964              		.global	CySysWdtSetMatch
 965              		.code	16
 966              		.thumb_func
 967              		.type	CySysWdtSetMatch, %function
 968              	CySysWdtSetMatch:
 969              	.LFB23:
 856:.\Generated_Source\PSoC4/CyLFClk.c ****     {
 970              		.loc 1 856 0
 971              		.cfi_startproc
 972              	.LVL66:
 973 0000 38B5     		push	{r3, r4, r5, lr}
 974              		.cfi_def_cfa_offset 16
 975              		.cfi_offset 3, -16
 976              		.cfi_offset 4, -12
 977              		.cfi_offset 5, -8
 978              		.cfi_offset 14, -4
 979 0002 041C     		mov	r4, r0
 980 0004 0D1C     		mov	r5, r1
 859:.\Generated_Source\PSoC4/CyLFClk.c ****         CYASSERT((counterNum == CY_SYS_WDT_COUNTER0) ||
 981              		.loc 1 859 0
 982 0006 0128     		cmp	r0, #1
 983 0008 02D9     		bls	.L102
 859:.\Generated_Source\PSoC4/CyLFClk.c ****         CYASSERT((counterNum == CY_SYS_WDT_COUNTER0) ||
 984              		.loc 1 859 0 is_stmt 0 discriminator 1
 985 000a 0020     		mov	r0, #0
 986              	.LVL67:
 987 000c FFF7FEFF 		bl	CyHalt
 988              	.LVL68:
 989              	.L102:
 863:.\Generated_Source\PSoC4/CyLFClk.c ****         CyDelayUs(CY_SYS_WDT_3LFCLK_DELAY_US);
 990              		.loc 1 863 0 is_stmt 1
 991 0010 0E4B     		ldr	r3, .L107
 992 0012 1B68     		ldr	r3, [r3]
 993 0014 9B0F     		lsr	r3, r3, #30
 994 0016 01D1     		bne	.L105
 995 0018 C920     		mov	r0, #201
 996 001a 00E0     		b	.L103
 997              	.L105:
 998 001c 5D20     		mov	r0, #93
 999              	.L103:
 863:.\Generated_Source\PSoC4/CyLFClk.c ****         CyDelayUs(CY_SYS_WDT_3LFCLK_DELAY_US);
 1000              		.loc 1 863 0 is_stmt 0 discriminator 3
 1001 001e FFF7FEFF 		bl	CyDelayUs
 1002              	.LVL69:
 865:.\Generated_Source\PSoC4/CyLFClk.c ****         regValue = CY_SYS_WDT_MATCH_REG;
 1003              		.loc 1 865 0 is_stmt 1 discriminator 3
 1004 0022 0B4B     		ldr	r3, .L107+4
 1005 0024 1A68     		ldr	r2, [r3]
 1006              	.LVL70:
 866:.\Generated_Source\PSoC4/CyLFClk.c ****         regValue &= (uint32)~((uint32)(CY_SYS_WDT_LOWER_16BITS_MASK << (counterNum * CY_SYS_WDT_CNT
 1007              		.loc 1 866 0 discriminator 3
 1008 0026 2401     		lsl	r4, r4, #4
 1009              	.LVL71:
 1010 0028 0A49     		ldr	r1, .L107+8
 1011 002a A140     		lsl	r1, r1, r4
 1012 002c 8A43     		bic	r2, r1
 1013              	.LVL72:
ARM GAS  C:\Users\mitchell\AppData\Local\Temp\ccP08FOF.s 			page 56


 867:.\Generated_Source\PSoC4/CyLFClk.c ****         CY_SYS_WDT_MATCH_REG = (regValue | (match << (counterNum * CY_SYS_WDT_CNT_MATCH_SHIFT)));
 1014              		.loc 1 867 0 discriminator 3
 1015 002e A540     		lsl	r5, r5, r4
 1016              	.LVL73:
 1017 0030 2C1C     		mov	r4, r5
 1018 0032 1443     		orr	r4, r2
 1019 0034 1C60     		str	r4, [r3]
 870:.\Generated_Source\PSoC4/CyLFClk.c ****         CyDelayUs(CY_SYS_WDT_1LFCLK_DELAY_US);
 1020              		.loc 1 870 0 discriminator 3
 1021 0036 054B     		ldr	r3, .L107
 1022 0038 1B68     		ldr	r3, [r3]
 1023 003a 9B0F     		lsr	r3, r3, #30
 1024 003c 01D1     		bne	.L106
 870:.\Generated_Source\PSoC4/CyLFClk.c ****         CyDelayUs(CY_SYS_WDT_1LFCLK_DELAY_US);
 1025              		.loc 1 870 0 is_stmt 0
 1026 003e 4320     		mov	r0, #67
 1027 0040 00E0     		b	.L104
 1028              	.L106:
 1029 0042 1F20     		mov	r0, #31
 1030              	.L104:
 870:.\Generated_Source\PSoC4/CyLFClk.c ****         CyDelayUs(CY_SYS_WDT_1LFCLK_DELAY_US);
 1031              		.loc 1 870 0 discriminator 3
 1032 0044 FFF7FEFF 		bl	CyDelayUs
 1033              	.LVL74:
 871:.\Generated_Source\PSoC4/CyLFClk.c ****     }
 1034              		.loc 1 871 0 is_stmt 1 discriminator 3
 1035              		@ sp needed
 1036 0048 38BD     		pop	{r3, r4, r5, pc}
 1037              	.L108:
 1038 004a C046     		.align	2
 1039              	.L107:
 1040 004c 0C020B40 		.word	1074463244
 1041 0050 08020B40 		.word	1074463240
 1042 0054 FFFF0000 		.word	65535
 1043              		.cfi_endproc
 1044              	.LFE23:
 1045              		.size	CySysWdtSetMatch, .-CySysWdtSetMatch
 1046              		.section	.text.CySysWdtSetToggleBit,"ax",%progbits
 1047              		.align	2
 1048              		.global	CySysWdtSetToggleBit
 1049              		.code	16
 1050              		.thumb_func
 1051              		.type	CySysWdtSetToggleBit, %function
 1052              	CySysWdtSetToggleBit:
 1053              	.LFB24:
 900:.\Generated_Source\PSoC4/CyLFClk.c ****     {
 1054              		.loc 1 900 0
 1055              		.cfi_startproc
 1056              	.LVL75:
 1057 0000 10B5     		push	{r4, lr}
 1058              		.cfi_def_cfa_offset 8
 1059              		.cfi_offset 4, -8
 1060              		.cfi_offset 14, -4
 1061 0002 041C     		mov	r4, r0
 903:.\Generated_Source\PSoC4/CyLFClk.c ****         if (0u == CySysWdtGetEnabledStatus(CY_SYS_WDT_COUNTER2))
 1062              		.loc 1 903 0
 1063 0004 0220     		mov	r0, #2
ARM GAS  C:\Users\mitchell\AppData\Local\Temp\ccP08FOF.s 			page 57


 1064              	.LVL76:
 1065 0006 FFF7FEFF 		bl	CySysWdtGetEnabledStatus
 1066              	.LVL77:
 1067 000a 0028     		cmp	r0, #0
 1068 000c 08D1     		bne	.L109
 905:.\Generated_Source\PSoC4/CyLFClk.c ****             configRegValue = CY_SYS_WDT_CONFIG_REG;
 1069              		.loc 1 905 0
 1070 000e 054B     		ldr	r3, .L111
 1071 0010 1968     		ldr	r1, [r3]
 1072              	.LVL78:
 906:.\Generated_Source\PSoC4/CyLFClk.c ****             configRegValue &= (uint32)(~((uint32)(CY_SYS_WDT_CONFIG_BITS2_MASK << CY_SYS_WDT_CONFIG
 1073              		.loc 1 906 0
 1074 0012 054A     		ldr	r2, .L111+4
 1075 0014 0A40     		and	r2, r1
 1076              	.LVL79:
 907:.\Generated_Source\PSoC4/CyLFClk.c ****             configRegValue |= ((bits & CY_SYS_WDT_CONFIG_BITS2_MASK) << CY_SYS_WDT_CONFIG_BITS2_POS
 1077              		.loc 1 907 0
 1078 0016 1F21     		mov	r1, #31
 1079 0018 0C40     		and	r4, r1
 1080              	.LVL80:
 1081 001a 2406     		lsl	r4, r4, #24
 1082 001c 1443     		orr	r4, r2
 1083              	.LVL81:
 908:.\Generated_Source\PSoC4/CyLFClk.c ****             CY_SYS_WDT_CONFIG_REG = configRegValue;
 1084              		.loc 1 908 0
 1085 001e 1C60     		str	r4, [r3]
 1086              	.LVL82:
 1087              	.L109:
 910:.\Generated_Source\PSoC4/CyLFClk.c ****     }
 1088              		.loc 1 910 0
 1089              		@ sp needed
 1090 0020 10BD     		pop	{r4, pc}
 1091              	.L112:
 1092 0022 C046     		.align	2
 1093              	.L111:
 1094 0024 0C020B40 		.word	1074463244
 1095 0028 FFFFFFE0 		.word	-520093697
 1096              		.cfi_endproc
 1097              	.LFE24:
 1098              		.size	CySysWdtSetToggleBit, .-CySysWdtSetToggleBit
 1099              		.section	.text.CySysWdtGetToggleBit,"ax",%progbits
 1100              		.align	2
 1101              		.global	CySysWdtGetToggleBit
 1102              		.code	16
 1103              		.thumb_func
 1104              		.type	CySysWdtGetToggleBit, %function
 1105              	CySysWdtGetToggleBit:
 1106              	.LFB25:
 928:.\Generated_Source\PSoC4/CyLFClk.c ****     {
 1107              		.loc 1 928 0
 1108              		.cfi_startproc
 929:.\Generated_Source\PSoC4/CyLFClk.c ****         return ((CY_SYS_WDT_CONFIG_REG >> CY_SYS_WDT_CONFIG_BITS2_POS) & CY_SYS_WDT_CONFIG_BITS2_MA
 1109              		.loc 1 929 0
 1110 0000 024B     		ldr	r3, .L114
 1111 0002 1868     		ldr	r0, [r3]
 1112 0004 C000     		lsl	r0, r0, #3
 1113 0006 C00E     		lsr	r0, r0, #27
ARM GAS  C:\Users\mitchell\AppData\Local\Temp\ccP08FOF.s 			page 58


 930:.\Generated_Source\PSoC4/CyLFClk.c ****     }
 1114              		.loc 1 930 0
 1115              		@ sp needed
 1116 0008 7047     		bx	lr
 1117              	.L115:
 1118 000a C046     		.align	2
 1119              	.L114:
 1120 000c 0C020B40 		.word	1074463244
 1121              		.cfi_endproc
 1122              	.LFE25:
 1123              		.size	CySysWdtGetToggleBit, .-CySysWdtGetToggleBit
 1124              		.section	.text.CySysWdtGetMatch,"ax",%progbits
 1125              		.align	2
 1126              		.global	CySysWdtGetMatch
 1127              		.code	16
 1128              		.thumb_func
 1129              		.type	CySysWdtGetMatch, %function
 1130              	CySysWdtGetMatch:
 1131              	.LFB26:
 949:.\Generated_Source\PSoC4/CyLFClk.c ****     {
 1132              		.loc 1 949 0
 1133              		.cfi_startproc
 1134              	.LVL83:
 1135 0000 10B5     		push	{r4, lr}
 1136              		.cfi_def_cfa_offset 8
 1137              		.cfi_offset 4, -8
 1138              		.cfi_offset 14, -4
 1139 0002 041E     		sub	r4, r0, #0
 950:.\Generated_Source\PSoC4/CyLFClk.c ****         CYASSERT((counterNum == CY_SYS_WDT_COUNTER0) ||
 1140              		.loc 1 950 0
 1141 0004 012C     		cmp	r4, #1
 1142 0006 02D9     		bls	.L117
 950:.\Generated_Source\PSoC4/CyLFClk.c ****         CYASSERT((counterNum == CY_SYS_WDT_COUNTER0) ||
 1143              		.loc 1 950 0 is_stmt 0 discriminator 1
 1144 0008 0020     		mov	r0, #0
 1145              	.LVL84:
 1146 000a FFF7FEFF 		bl	CyHalt
 1147              	.LVL85:
 1148              	.L117:
 953:.\Generated_Source\PSoC4/CyLFClk.c ****         return ((uint32)(CY_SYS_WDT_MATCH_REG >> (counterNum * CY_SYS_WDT_CNT_MATCH_SHIFT)) & CY_SY
 1149              		.loc 1 953 0 is_stmt 1
 1150 000e 034B     		ldr	r3, .L118
 1151 0010 1868     		ldr	r0, [r3]
 1152 0012 2401     		lsl	r4, r4, #4
 1153              	.LVL86:
 1154 0014 E040     		lsr	r0, r0, r4
 1155 0016 0004     		lsl	r0, r0, #16
 1156 0018 000C     		lsr	r0, r0, #16
 954:.\Generated_Source\PSoC4/CyLFClk.c ****     }
 1157              		.loc 1 954 0
 1158              		@ sp needed
 1159 001a 10BD     		pop	{r4, pc}
 1160              	.L119:
 1161              		.align	2
 1162              	.L118:
 1163 001c 08020B40 		.word	1074463240
 1164              		.cfi_endproc
ARM GAS  C:\Users\mitchell\AppData\Local\Temp\ccP08FOF.s 			page 59


 1165              	.LFE26:
 1166              		.size	CySysWdtGetMatch, .-CySysWdtGetMatch
 1167              		.section	.text.CySysWdtGetCount,"ax",%progbits
 1168              		.align	2
 1169              		.global	CySysWdtGetCount
 1170              		.code	16
 1171              		.thumb_func
 1172              		.type	CySysWdtGetCount, %function
 1173              	CySysWdtGetCount:
 1174              	.LFB27:
 973:.\Generated_Source\PSoC4/CyLFClk.c ****     {
 1175              		.loc 1 973 0
 1176              		.cfi_startproc
 1177              	.LVL87:
 1178 0000 08B5     		push	{r3, lr}
 1179              		.cfi_def_cfa_offset 8
 1180              		.cfi_offset 3, -8
 1181              		.cfi_offset 14, -4
 1182              	.LVL88:
 976:.\Generated_Source\PSoC4/CyLFClk.c ****         switch(counterNum)
 1183              		.loc 1 976 0
 1184 0002 0128     		cmp	r0, #1
 1185 0004 09D0     		beq	.L122
 1186 0006 0028     		cmp	r0, #0
 1187 0008 02D0     		beq	.L123
 1188 000a 0228     		cmp	r0, #2
 1189 000c 09D0     		beq	.L124
 1190 000e 0BE0     		b	.L126
 1191              	.L123:
 980:.\Generated_Source\PSoC4/CyLFClk.c ****                 regValue = CY_SYS_WDT_CTRLOW_REG & CY_SYS_WDT_LOWER_16BITS_MASK;
 1192              		.loc 1 980 0
 1193 0010 084B     		ldr	r3, .L127
 1194 0012 1868     		ldr	r0, [r3]
 1195              	.LVL89:
 1196 0014 0004     		lsl	r0, r0, #16
 1197 0016 000C     		lsr	r0, r0, #16
 1198              	.LVL90:
 981:.\Generated_Source\PSoC4/CyLFClk.c ****             break;
 1199              		.loc 1 981 0
 1200 0018 0AE0     		b	.L125
 1201              	.LVL91:
 1202              	.L122:
 985:.\Generated_Source\PSoC4/CyLFClk.c ****                 regValue = (CY_SYS_WDT_CTRLOW_REG >> CY_SYS_WDT_CNT_MATCH_SHIFT) & CY_SYS_WDT_LOWER
 1203              		.loc 1 985 0
 1204 001a 064B     		ldr	r3, .L127
 1205 001c 1868     		ldr	r0, [r3]
 1206              	.LVL92:
 1207 001e 000C     		lsr	r0, r0, #16
 1208              	.LVL93:
 986:.\Generated_Source\PSoC4/CyLFClk.c ****             break;
 1209              		.loc 1 986 0
 1210 0020 06E0     		b	.L125
 1211              	.LVL94:
 1212              	.L124:
 990:.\Generated_Source\PSoC4/CyLFClk.c ****                 regValue = CY_SYS_WDT_CTRHIGH_REG;
 1213              		.loc 1 990 0
 1214 0022 054B     		ldr	r3, .L127+4
ARM GAS  C:\Users\mitchell\AppData\Local\Temp\ccP08FOF.s 			page 60


 1215 0024 1868     		ldr	r0, [r3]
 1216              	.LVL95:
 991:.\Generated_Source\PSoC4/CyLFClk.c ****             break;
 1217              		.loc 1 991 0
 1218 0026 03E0     		b	.L125
 1219              	.LVL96:
 1220              	.L126:
 994:.\Generated_Source\PSoC4/CyLFClk.c ****                 CYASSERT(0u != 0u);
 1221              		.loc 1 994 0 discriminator 1
 1222 0028 0020     		mov	r0, #0
 1223              	.LVL97:
 1224 002a FFF7FEFF 		bl	CyHalt
 1225              	.LVL98:
 974:.\Generated_Source\PSoC4/CyLFClk.c ****         uint32 regValue = 0u;
 1226              		.loc 1 974 0 discriminator 1
 1227 002e 0020     		mov	r0, #0
 1228              	.LVL99:
 1229              	.L125:
 999:.\Generated_Source\PSoC4/CyLFClk.c ****     }
 1230              		.loc 1 999 0
 1231              		@ sp needed
 1232 0030 08BD     		pop	{r3, pc}
 1233              	.L128:
 1234 0032 C046     		.align	2
 1235              	.L127:
 1236 0034 00020B40 		.word	1074463232
 1237 0038 04020B40 		.word	1074463236
 1238              		.cfi_endproc
 1239              	.LFE27:
 1240              		.size	CySysWdtGetCount, .-CySysWdtGetCount
 1241              		.section	.text.CySysClkLfclkPosedgeCatch,"ax",%progbits
 1242              		.align	2
 1243              		.code	16
 1244              		.thumb_func
 1245              		.type	CySysClkLfclkPosedgeCatch, %function
 1246              	CySysClkLfclkPosedgeCatch:
 1247              	.LFB39:
1573:.\Generated_Source\PSoC4/CyLFClk.c ****     {
 1248              		.loc 1 1573 0
 1249              		.cfi_startproc
 1250 0000 38B5     		push	{r3, r4, r5, lr}
 1251              		.cfi_def_cfa_offset 16
 1252              		.cfi_offset 3, -16
 1253              		.cfi_offset 4, -12
 1254              		.cfi_offset 5, -8
 1255              		.cfi_offset 14, -4
1577:.\Generated_Source\PSoC4/CyLFClk.c ****         if (0u != CySysWdtGetEnabledStatus(CY_SYS_WDT_COUNTER0))
 1256              		.loc 1 1577 0
 1257 0002 0020     		mov	r0, #0
 1258 0004 FFF7FEFF 		bl	CySysWdtGetEnabledStatus
 1259              	.LVL100:
 1260 0008 0028     		cmp	r0, #0
 1261 000a 03D0     		beq	.L130
1579:.\Generated_Source\PSoC4/CyLFClk.c ****             lfclkPosedgeEnabledWdtCounter = CY_SYS_WDT_COUNTER0;
 1262              		.loc 1 1579 0
 1263 000c 0022     		mov	r2, #0
 1264 000e 184B     		ldr	r3, .L136
ARM GAS  C:\Users\mitchell\AppData\Local\Temp\ccP08FOF.s 			page 61


 1265 0010 9A60     		str	r2, [r3, #8]
 1266 0012 21E0     		b	.L131
 1267              	.L130:
1581:.\Generated_Source\PSoC4/CyLFClk.c ****         else if (0u != CySysWdtGetEnabledStatus(CY_SYS_WDT_COUNTER1))
 1268              		.loc 1 1581 0
 1269 0014 0120     		mov	r0, #1
 1270 0016 FFF7FEFF 		bl	CySysWdtGetEnabledStatus
 1271              	.LVL101:
 1272 001a 0028     		cmp	r0, #0
 1273 001c 03D0     		beq	.L132
1583:.\Generated_Source\PSoC4/CyLFClk.c ****             lfclkPosedgeEnabledWdtCounter = CY_SYS_WDT_COUNTER1;
 1274              		.loc 1 1583 0
 1275 001e 0122     		mov	r2, #1
 1276 0020 134B     		ldr	r3, .L136
 1277 0022 9A60     		str	r2, [r3, #8]
 1278 0024 18E0     		b	.L131
 1279              	.L132:
1585:.\Generated_Source\PSoC4/CyLFClk.c ****         else if (0u != CySysWdtGetEnabledStatus(CY_SYS_WDT_COUNTER2))
 1280              		.loc 1 1585 0
 1281 0026 0220     		mov	r0, #2
 1282 0028 FFF7FEFF 		bl	CySysWdtGetEnabledStatus
 1283              	.LVL102:
 1284 002c 0028     		cmp	r0, #0
 1285 002e 03D0     		beq	.L133
1587:.\Generated_Source\PSoC4/CyLFClk.c ****             lfclkPosedgeEnabledWdtCounter = CY_SYS_WDT_COUNTER2;
 1286              		.loc 1 1587 0
 1287 0030 0222     		mov	r2, #2
 1288 0032 0F4B     		ldr	r3, .L136
 1289 0034 9A60     		str	r2, [r3, #8]
 1290 0036 0FE0     		b	.L131
 1291              	.L133:
1592:.\Generated_Source\PSoC4/CyLFClk.c ****             lfclkPosedgeWdtCounter0Enabled = 1u;
 1292              		.loc 1 1592 0
 1293 0038 0D4C     		ldr	r4, .L136
 1294 003a 0123     		mov	r3, #1
 1295 003c 2360     		str	r3, [r4]
1593:.\Generated_Source\PSoC4/CyLFClk.c ****             lfclkPosedgeEnabledWdtCounter = CY_SYS_WDT_COUNTER0;
 1296              		.loc 1 1593 0
 1297 003e 0023     		mov	r3, #0
 1298 0040 A360     		str	r3, [r4, #8]
1595:.\Generated_Source\PSoC4/CyLFClk.c ****             lfclkPosedgeWdtCounter0Mode = CySysWdtGetMode(CY_SYS_WDT_COUNTER0);
 1299              		.loc 1 1595 0
 1300 0042 0020     		mov	r0, #0
 1301 0044 FFF7FEFF 		bl	CySysWdtGetMode
 1302              	.LVL103:
 1303 0048 6060     		str	r0, [r4, #4]
1596:.\Generated_Source\PSoC4/CyLFClk.c ****             CySysWdtSetMode(CY_SYS_WDT_COUNTER0, CY_SYS_WDT_MODE_NONE);
 1304              		.loc 1 1596 0
 1305 004a 0020     		mov	r0, #0
 1306 004c 0021     		mov	r1, #0
 1307 004e FFF7FEFF 		bl	CySysWdtSetMode
 1308              	.LVL104:
1597:.\Generated_Source\PSoC4/CyLFClk.c ****             CySysWdtEnable(CY_SYS_WDT_COUNTER0_MASK);
 1309              		.loc 1 1597 0
 1310 0052 0120     		mov	r0, #1
 1311 0054 FFF7FEFF 		bl	CySysWdtEnable
 1312              	.LVL105:
ARM GAS  C:\Users\mitchell\AppData\Local\Temp\ccP08FOF.s 			page 62


 1313              	.L131:
1600:.\Generated_Source\PSoC4/CyLFClk.c ****         firstCount = CySysWdtGetCount(lfclkPosedgeEnabledWdtCounter);
 1314              		.loc 1 1600 0
 1315 0058 054B     		ldr	r3, .L136
 1316 005a 9868     		ldr	r0, [r3, #8]
 1317 005c FFF7FEFF 		bl	CySysWdtGetCount
 1318              	.LVL106:
 1319 0060 051C     		mov	r5, r0
 1320              	.LVL107:
1601:.\Generated_Source\PSoC4/CyLFClk.c ****         while (CySysWdtGetCount(lfclkPosedgeEnabledWdtCounter) == firstCount)
 1321              		.loc 1 1601 0
 1322 0062 034C     		ldr	r4, .L136
 1323              	.LVL108:
 1324              	.L134:
1601:.\Generated_Source\PSoC4/CyLFClk.c ****         while (CySysWdtGetCount(lfclkPosedgeEnabledWdtCounter) == firstCount)
 1325              		.loc 1 1601 0 is_stmt 0 discriminator 1
 1326 0064 A068     		ldr	r0, [r4, #8]
 1327 0066 FFF7FEFF 		bl	CySysWdtGetCount
 1328              	.LVL109:
 1329 006a A842     		cmp	r0, r5
 1330 006c FAD0     		beq	.L134
1605:.\Generated_Source\PSoC4/CyLFClk.c ****     }
 1331              		.loc 1 1605 0 is_stmt 1
 1332              		@ sp needed
 1333              	.LVL110:
 1334 006e 38BD     		pop	{r3, r4, r5, pc}
 1335              	.L137:
 1336              		.align	2
 1337              	.L136:
 1338 0070 00000000 		.word	.LANCHOR0
 1339              		.cfi_endproc
 1340              	.LFE39:
 1341              		.size	CySysClkLfclkPosedgeCatch, .-CySysClkLfclkPosedgeCatch
 1342              		.section	.text.CySysClkIloStop,"ax",%progbits
 1343              		.align	2
 1344              		.global	CySysClkIloStop
 1345              		.code	16
 1346              		.thumb_func
 1347              		.type	CySysClkIloStop, %function
 1348              	CySysClkIloStop:
 1349              	.LFB3:
  97:.\Generated_Source\PSoC4/CyLFClk.c **** {
 1350              		.loc 1 97 0
 1351              		.cfi_startproc
 1352 0000 10B5     		push	{r4, lr}
 1353              		.cfi_def_cfa_offset 8
 1354              		.cfi_offset 4, -8
 1355              		.cfi_offset 14, -4
 102:.\Generated_Source\PSoC4/CyLFClk.c ****         if (0u == CySysWdtLocked())
 1356              		.loc 1 102 0
 1357 0002 FFF7FEFF 		bl	CySysWdtLocked
 1358              	.LVL111:
 1359 0006 0028     		cmp	r0, #0
 1360 0008 1CD1     		bne	.L138
 104:.\Generated_Source\PSoC4/CyLFClk.c ****             if (0u != CySysClkIloEnabled())
 1361              		.loc 1 104 0
 1362 000a FFF7FEFF 		bl	CySysClkIloEnabled
ARM GAS  C:\Users\mitchell\AppData\Local\Temp\ccP08FOF.s 			page 63


 1363              	.LVL112:
 1364 000e 0028     		cmp	r0, #0
 1365 0010 18D0     		beq	.L138
 108:.\Generated_Source\PSoC4/CyLFClk.c ****                 if (CY_SYS_CLK_LFCLK_SRC_ILO == CySysClkGetLfclkSource())
 1366              		.loc 1 108 0
 1367 0012 FFF7FEFF 		bl	CySysClkGetLfclkSource
 1368              	.LVL113:
 1369 0016 0028     		cmp	r0, #0
 1370 0018 0FD1     		bne	.L140
 112:.\Generated_Source\PSoC4/CyLFClk.c ****                 interruptState = CyEnterCriticalSection();
 1371              		.loc 1 112 0
 1372 001a FFF7FEFF 		bl	CyEnterCriticalSection
 1373              	.LVL114:
 1374 001e 041C     		mov	r4, r0
 1375              	.LVL115:
 113:.\Generated_Source\PSoC4/CyLFClk.c ****                 CySysClkLfclkPosedgeCatch();
 1376              		.loc 1 113 0
 1377 0020 FFF7FEFF 		bl	CySysClkLfclkPosedgeCatch
 1378              	.LVL116:
 114:.\Generated_Source\PSoC4/CyLFClk.c ****                 CY_SYS_CLK_ILO_CONFIG_REG &= ( uint32 ) ( ~( uint32 )CY_SYS_CLK_ILO_CONFIG_ENABLE);
 1379              		.loc 1 114 0
 1380 0024 084B     		ldr	r3, .L141
 1381 0026 1A68     		ldr	r2, [r3]
 1382 0028 5200     		lsl	r2, r2, #1
 1383 002a 5208     		lsr	r2, r2, #1
 1384 002c 1A60     		str	r2, [r3]
 115:.\Generated_Source\PSoC4/CyLFClk.c ****                 CySysClkLfclkPosedgeRestore();
 1385              		.loc 1 115 0
 1386 002e FFF7FEFF 		bl	CySysClkLfclkPosedgeRestore
 1387              	.LVL117:
 116:.\Generated_Source\PSoC4/CyLFClk.c ****                 CyExitCriticalSection(interruptState);
 1388              		.loc 1 116 0
 1389 0032 201C     		mov	r0, r4
 1390 0034 FFF7FEFF 		bl	CyExitCriticalSection
 1391              	.LVL118:
 1392 0038 04E0     		b	.L138
 1393              	.LVL119:
 1394              	.L140:
 122:.\Generated_Source\PSoC4/CyLFClk.c ****                     CY_SYS_CLK_ILO_CONFIG_REG &= ( uint32 ) ( ~( uint32 )CY_SYS_CLK_ILO_CONFIG_ENAB
 1395              		.loc 1 122 0
 1396 003a 034B     		ldr	r3, .L141
 1397 003c 1A68     		ldr	r2, [r3]
 1398 003e 5200     		lsl	r2, r2, #1
 1399 0040 5208     		lsr	r2, r2, #1
 1400 0042 1A60     		str	r2, [r3]
 1401              	.L138:
 131:.\Generated_Source\PSoC4/CyLFClk.c **** }
 1402              		.loc 1 131 0
 1403              		@ sp needed
 1404 0044 10BD     		pop	{r4, pc}
 1405              	.L142:
 1406 0046 C046     		.align	2
 1407              	.L141:
 1408 0048 04010B40 		.word	1074462980
 1409              		.cfi_endproc
 1410              	.LFE3:
 1411              		.size	CySysClkIloStop, .-CySysClkIloStop
ARM GAS  C:\Users\mitchell\AppData\Local\Temp\ccP08FOF.s 			page 64


 1412              		.section	.text.CySysClkSetLfclkSource,"ax",%progbits
 1413              		.align	2
 1414              		.global	CySysClkSetLfclkSource
 1415              		.code	16
 1416              		.thumb_func
 1417              		.type	CySysClkSetLfclkSource, %function
 1418              	CySysClkSetLfclkSource:
 1419              	.LFB6:
 226:.\Generated_Source\PSoC4/CyLFClk.c ****     {
 1420              		.loc 1 226 0
 1421              		.cfi_startproc
 1422              	.LVL120:
 1423 0000 38B5     		push	{r3, r4, r5, lr}
 1424              		.cfi_def_cfa_offset 16
 1425              		.cfi_offset 3, -16
 1426              		.cfi_offset 4, -12
 1427              		.cfi_offset 5, -8
 1428              		.cfi_offset 14, -4
 1429 0002 041C     		mov	r4, r0
 229:.\Generated_Source\PSoC4/CyLFClk.c ****         if (CySysClkGetLfclkSource() != source)
 1430              		.loc 1 229 0
 1431 0004 FFF7FEFF 		bl	CySysClkGetLfclkSource
 1432              	.LVL121:
 1433 0008 A042     		cmp	r0, r4
 1434 000a 11D0     		beq	.L143
 231:.\Generated_Source\PSoC4/CyLFClk.c ****             interruptState = CyEnterCriticalSection();
 1435              		.loc 1 231 0
 1436 000c FFF7FEFF 		bl	CyEnterCriticalSection
 1437              	.LVL122:
 1438 0010 051C     		mov	r5, r0
 1439              	.LVL123:
 233:.\Generated_Source\PSoC4/CyLFClk.c ****             CySysClkLfclkPosedgeCatch();
 1440              		.loc 1 233 0
 1441 0012 FFF7FEFF 		bl	CySysClkLfclkPosedgeCatch
 1442              	.LVL124:
 235:.\Generated_Source\PSoC4/CyLFClk.c ****             CY_SYS_WDT_CONFIG_REG = (CY_SYS_WDT_CONFIG_REG & (uint32)(~CY_SYS_CLK_LFCLK_SEL_MASK)) 
 1443              		.loc 1 235 0
 1444 0016 074B     		ldr	r3, .L145
 1445 0018 1A68     		ldr	r2, [r3]
 1446 001a 9200     		lsl	r2, r2, #2
 1447 001c 9208     		lsr	r2, r2, #2
 236:.\Generated_Source\PSoC4/CyLFClk.c ****                                     (source & CY_SYS_CLK_LFCLK_SEL_MASK);
 1448              		.loc 1 236 0
 1449 001e A40F     		lsr	r4, r4, #30
 1450              	.LVL125:
 1451 0020 A407     		lsl	r4, r4, #30
 235:.\Generated_Source\PSoC4/CyLFClk.c ****             CY_SYS_WDT_CONFIG_REG = (CY_SYS_WDT_CONFIG_REG & (uint32)(~CY_SYS_CLK_LFCLK_SEL_MASK)) 
 1452              		.loc 1 235 0
 1453 0022 1443     		orr	r4, r2
 1454 0024 1C60     		str	r4, [r3]
 238:.\Generated_Source\PSoC4/CyLFClk.c ****             CySysClkLfclkPosedgeRestore();
 1455              		.loc 1 238 0
 1456 0026 FFF7FEFF 		bl	CySysClkLfclkPosedgeRestore
 1457              	.LVL126:
 240:.\Generated_Source\PSoC4/CyLFClk.c ****             CyExitCriticalSection(interruptState);
 1458              		.loc 1 240 0
 1459 002a 281C     		mov	r0, r5
ARM GAS  C:\Users\mitchell\AppData\Local\Temp\ccP08FOF.s 			page 65


 1460 002c FFF7FEFF 		bl	CyExitCriticalSection
 1461              	.LVL127:
 1462              	.L143:
 242:.\Generated_Source\PSoC4/CyLFClk.c ****     }
 1463              		.loc 1 242 0
 1464              		@ sp needed
 1465 0030 38BD     		pop	{r3, r4, r5, pc}
 1466              	.L146:
 1467 0032 C046     		.align	2
 1468              	.L145:
 1469 0034 0C020B40 		.word	1074463244
 1470              		.cfi_endproc
 1471              	.LFE6:
 1472              		.size	CySysClkSetLfclkSource, .-CySysClkSetLfclkSource
 1473              		.section	.text.CySysClkWcoStop,"ax",%progbits
 1474              		.align	2
 1475              		.global	CySysClkWcoStop
 1476              		.code	16
 1477              		.thumb_func
 1478              		.type	CySysClkWcoStop, %function
 1479              	CySysClkWcoStop:
 1480              	.LFB8:
 292:.\Generated_Source\PSoC4/CyLFClk.c ****     {
 1481              		.loc 1 292 0
 1482              		.cfi_startproc
 1483 0000 10B5     		push	{r4, lr}
 1484              		.cfi_def_cfa_offset 8
 1485              		.cfi_offset 4, -8
 1486              		.cfi_offset 14, -4
 295:.\Generated_Source\PSoC4/CyLFClk.c ****         if (0u != CySysClkWcoEnabled())
 1487              		.loc 1 295 0
 1488 0002 FFF7FEFF 		bl	CySysClkWcoEnabled
 1489              	.LVL128:
 1490 0006 0028     		cmp	r0, #0
 1491 0008 1AD0     		beq	.L147
 298:.\Generated_Source\PSoC4/CyLFClk.c ****             if (CY_SYS_CLK_LFCLK_SRC_WCO == CySysClkGetLfclkSource())
 1492              		.loc 1 298 0
 1493 000a FFF7FEFF 		bl	CySysClkGetLfclkSource
 1494              	.LVL129:
 1495 000e 8023     		mov	r3, #128
 1496 0010 DB05     		lsl	r3, r3, #23
 1497 0012 9842     		cmp	r0, r3
 1498 0014 0FD1     		bne	.L149
 300:.\Generated_Source\PSoC4/CyLFClk.c ****                 interruptState = CyEnterCriticalSection();
 1499              		.loc 1 300 0
 1500 0016 FFF7FEFF 		bl	CyEnterCriticalSection
 1501              	.LVL130:
 1502 001a 041C     		mov	r4, r0
 1503              	.LVL131:
 301:.\Generated_Source\PSoC4/CyLFClk.c ****                 CySysClkLfclkPosedgeCatch();
 1504              		.loc 1 301 0
 1505 001c FFF7FEFF 		bl	CySysClkLfclkPosedgeCatch
 1506              	.LVL132:
 302:.\Generated_Source\PSoC4/CyLFClk.c ****                 CY_SYS_CLK_WCO_CONFIG_REG &= (uint32) ~CY_SYS_CLK_WCO_CONFIG_LPM_ENABLE;
 1507              		.loc 1 302 0
 1508 0020 084B     		ldr	r3, .L150
 1509 0022 1A68     		ldr	r2, [r3]
ARM GAS  C:\Users\mitchell\AppData\Local\Temp\ccP08FOF.s 			page 66


 1510 0024 5200     		lsl	r2, r2, #1
 1511 0026 5208     		lsr	r2, r2, #1
 1512 0028 1A60     		str	r2, [r3]
 303:.\Generated_Source\PSoC4/CyLFClk.c ****                 CySysClkLfclkPosedgeRestore();
 1513              		.loc 1 303 0
 1514 002a FFF7FEFF 		bl	CySysClkLfclkPosedgeRestore
 1515              	.LVL133:
 304:.\Generated_Source\PSoC4/CyLFClk.c ****                 CyExitCriticalSection(interruptState);
 1516              		.loc 1 304 0
 1517 002e 201C     		mov	r0, r4
 1518 0030 FFF7FEFF 		bl	CyExitCriticalSection
 1519              	.LVL134:
 1520 0034 04E0     		b	.L147
 1521              	.LVL135:
 1522              	.L149:
 308:.\Generated_Source\PSoC4/CyLFClk.c ****                 CY_SYS_CLK_WCO_CONFIG_REG &= (uint32) ~CY_SYS_CLK_WCO_CONFIG_LPM_ENABLE;
 1523              		.loc 1 308 0
 1524 0036 034B     		ldr	r3, .L150
 1525 0038 1A68     		ldr	r2, [r3]
 1526 003a 5200     		lsl	r2, r2, #1
 1527 003c 5208     		lsr	r2, r2, #1
 1528 003e 1A60     		str	r2, [r3]
 1529              	.L147:
 311:.\Generated_Source\PSoC4/CyLFClk.c ****     }
 1530              		.loc 1 311 0
 1531              		@ sp needed
 1532 0040 10BD     		pop	{r4, pc}
 1533              	.L151:
 1534 0042 C046     		.align	2
 1535              	.L150:
 1536 0044 00F02E40 		.word	1076817920
 1537              		.cfi_endproc
 1538              	.LFE8:
 1539              		.size	CySysClkWcoStop, .-CySysClkWcoStop
 1540              		.section	.text.CySysWdtGetInterruptSource,"ax",%progbits
 1541              		.align	2
 1542              		.global	CySysWdtGetInterruptSource
 1543              		.code	16
 1544              		.thumb_func
 1545              		.type	CySysWdtGetInterruptSource, %function
 1546              	CySysWdtGetInterruptSource:
 1547              	.LFB28:
1022:.\Generated_Source\PSoC4/CyLFClk.c ****     {
 1548              		.loc 1 1022 0
 1549              		.cfi_startproc
1023:.\Generated_Source\PSoC4/CyLFClk.c ****         return (CY_SYS_WDT_CONTROL_REG & (CY_SYS_WDT_COUNTER0_INT | CY_SYS_WDT_COUNTER1_INT | CY_SY
 1550              		.loc 1 1023 0
 1551 0000 024B     		ldr	r3, .L153
 1552 0002 1868     		ldr	r0, [r3]
 1553 0004 024B     		ldr	r3, .L153+4
 1554 0006 1840     		and	r0, r3
1024:.\Generated_Source\PSoC4/CyLFClk.c ****     }
 1555              		.loc 1 1024 0
 1556              		@ sp needed
 1557 0008 7047     		bx	lr
 1558              	.L154:
 1559 000a C046     		.align	2
ARM GAS  C:\Users\mitchell\AppData\Local\Temp\ccP08FOF.s 			page 67


 1560              	.L153:
 1561 000c 10020B40 		.word	1074463248
 1562 0010 04040400 		.word	263172
 1563              		.cfi_endproc
 1564              	.LFE28:
 1565              		.size	CySysWdtGetInterruptSource, .-CySysWdtGetInterruptSource
 1566              		.section	.text.CySysWdtClearInterrupt,"ax",%progbits
 1567              		.align	2
 1568              		.global	CySysWdtClearInterrupt
 1569              		.code	16
 1570              		.thumb_func
 1571              		.type	CySysWdtClearInterrupt, %function
 1572              	CySysWdtClearInterrupt:
 1573              	.LFB29:
1056:.\Generated_Source\PSoC4/CyLFClk.c ****     {
 1574              		.loc 1 1056 0
 1575              		.cfi_startproc
 1576              	.LVL136:
 1577 0000 38B5     		push	{r3, r4, r5, lr}
 1578              		.cfi_def_cfa_offset 16
 1579              		.cfi_offset 3, -16
 1580              		.cfi_offset 4, -12
 1581              		.cfi_offset 5, -8
 1582              		.cfi_offset 14, -4
 1583 0002 051C     		mov	r5, r0
1060:.\Generated_Source\PSoC4/CyLFClk.c ****         interruptState = CyEnterCriticalSection();
 1584              		.loc 1 1060 0
 1585 0004 FFF7FEFF 		bl	CyEnterCriticalSection
 1586              	.LVL137:
 1587 0008 041C     		mov	r4, r0
 1588              	.LVL138:
1062:.\Generated_Source\PSoC4/CyLFClk.c ****         if (0u != CySysWdtLocked())
 1589              		.loc 1 1062 0
 1590 000a FFF7FEFF 		bl	CySysWdtLocked
 1591              	.LVL139:
 1592 000e 0028     		cmp	r0, #0
 1593 0010 03D0     		beq	.L158
 1594              	.LVL140:
1065:.\Generated_Source\PSoC4/CyLFClk.c ****             CySysWdtUnlock();
 1595              		.loc 1 1065 0
 1596 0012 FFF7FEFF 		bl	CySysWdtUnlock
 1597              	.LVL141:
1064:.\Generated_Source\PSoC4/CyLFClk.c ****             wdtLockState = 1u;
 1598              		.loc 1 1064 0
 1599 0016 0122     		mov	r2, #1
 1600 0018 00E0     		b	.L156
 1601              	.LVL142:
 1602              	.L158:
1069:.\Generated_Source\PSoC4/CyLFClk.c ****             wdtLockState = 0u;
 1603              		.loc 1 1069 0
 1604 001a 0022     		mov	r2, #0
 1605              	.L156:
 1606              	.LVL143:
1073:.\Generated_Source\PSoC4/CyLFClk.c ****         counterMask &= (CY_SYS_WDT_COUNTER0_INT |
 1607              		.loc 1 1073 0
 1608 001c 084B     		ldr	r3, .L159
 1609 001e 1D40     		and	r5, r3
ARM GAS  C:\Users\mitchell\AppData\Local\Temp\ccP08FOF.s 			page 68


 1610              	.LVL144:
1077:.\Generated_Source\PSoC4/CyLFClk.c ****         CY_SYS_WDT_CONTROL_REG = counterMask | (CY_SYS_WDT_CONTROL_REG & ~(CY_SYS_WDT_COUNTER0_INT 
 1611              		.loc 1 1077 0
 1612 0020 084B     		ldr	r3, .L159+4
 1613 0022 1868     		ldr	r0, [r3]
 1614 0024 0849     		ldr	r1, .L159+8
 1615 0026 0140     		and	r1, r0
 1616 0028 0D43     		orr	r5, r1
 1617              	.LVL145:
 1618 002a 1D60     		str	r5, [r3]
1084:.\Generated_Source\PSoC4/CyLFClk.c ****         (void)CY_SYS_WDT_CONTROL_REG;
 1619              		.loc 1 1084 0
 1620 002c 1B68     		ldr	r3, [r3]
1086:.\Generated_Source\PSoC4/CyLFClk.c ****         if (1u == wdtLockState)
 1621              		.loc 1 1086 0
 1622 002e 012A     		cmp	r2, #1
 1623 0030 01D1     		bne	.L157
1088:.\Generated_Source\PSoC4/CyLFClk.c ****             CySysWdtLock();
 1624              		.loc 1 1088 0
 1625 0032 FFF7FEFF 		bl	CySysWdtLock
 1626              	.LVL146:
 1627              	.L157:
1091:.\Generated_Source\PSoC4/CyLFClk.c ****         CyExitCriticalSection(interruptState);
 1628              		.loc 1 1091 0
 1629 0036 201C     		mov	r0, r4
 1630 0038 FFF7FEFF 		bl	CyExitCriticalSection
 1631              	.LVL147:
1092:.\Generated_Source\PSoC4/CyLFClk.c ****     }
 1632              		.loc 1 1092 0
 1633              		@ sp needed
 1634              	.LVL148:
 1635 003c 38BD     		pop	{r3, r4, r5, pc}
 1636              	.L160:
 1637 003e C046     		.align	2
 1638              	.L159:
 1639 0040 04040400 		.word	263172
 1640 0044 10020B40 		.word	1074463248
 1641 0048 FBFBFBFF 		.word	-263173
 1642              		.cfi_endproc
 1643              	.LFE29:
 1644              		.size	CySysWdtClearInterrupt, .-CySysWdtClearInterrupt
 1645              		.section	.text.CySysWdtResetCounters,"ax",%progbits
 1646              		.align	2
 1647              		.global	CySysWdtResetCounters
 1648              		.code	16
 1649              		.thumb_func
 1650              		.type	CySysWdtResetCounters, %function
 1651              	CySysWdtResetCounters:
 1652              	.LFB30:
1120:.\Generated_Source\PSoC4/CyLFClk.c ****     {
 1653              		.loc 1 1120 0
 1654              		.cfi_startproc
 1655              	.LVL149:
1122:.\Generated_Source\PSoC4/CyLFClk.c ****         CY_SYS_WDT_CONTROL_REG |= (countersMask & CY_SYS_WDT_COUNTERS_RESET);
 1656              		.loc 1 1122 0
 1657 0000 054B     		ldr	r3, .L164
 1658 0002 1A68     		ldr	r2, [r3]
ARM GAS  C:\Users\mitchell\AppData\Local\Temp\ccP08FOF.s 			page 69


 1659 0004 0549     		ldr	r1, .L164+4
 1660 0006 0840     		and	r0, r1
 1661              	.LVL150:
 1662 0008 1043     		orr	r0, r2
 1663 000a 1860     		str	r0, [r3]
1124:.\Generated_Source\PSoC4/CyLFClk.c ****         while (0uL != (CY_SYS_WDT_CONTROL_REG & CY_SYS_WDT_COUNTERS_RESET))
 1664              		.loc 1 1124 0
 1665 000c 191C     		mov	r1, r3
 1666 000e 034A     		ldr	r2, .L164+4
 1667              	.L162:
1124:.\Generated_Source\PSoC4/CyLFClk.c ****         while (0uL != (CY_SYS_WDT_CONTROL_REG & CY_SYS_WDT_COUNTERS_RESET))
 1668              		.loc 1 1124 0 is_stmt 0 discriminator 1
 1669 0010 0B68     		ldr	r3, [r1]
 1670 0012 1342     		tst	r3, r2
 1671 0014 FCD1     		bne	.L162
1128:.\Generated_Source\PSoC4/CyLFClk.c ****     }
 1672              		.loc 1 1128 0 is_stmt 1
 1673              		@ sp needed
 1674 0016 7047     		bx	lr
 1675              	.L165:
 1676              		.align	2
 1677              	.L164:
 1678 0018 10020B40 		.word	1074463248
 1679 001c 08080800 		.word	526344
 1680              		.cfi_endproc
 1681              	.LFE30:
 1682              		.size	CySysWdtResetCounters, .-CySysWdtResetCounters
 1683              		.section	.text.CySysWdtSetInterruptCallback,"ax",%progbits
 1684              		.align	2
 1685              		.global	CySysWdtSetInterruptCallback
 1686              		.code	16
 1687              		.thumb_func
 1688              		.type	CySysWdtSetInterruptCallback, %function
 1689              	CySysWdtSetInterruptCallback:
 1690              	.LFB31:
1149:.\Generated_Source\PSoC4/CyLFClk.c ****     {
 1691              		.loc 1 1149 0
 1692              		.cfi_startproc
 1693              	.LVL151:
 1694 0000 08B5     		push	{r3, lr}
 1695              		.cfi_def_cfa_offset 8
 1696              		.cfi_offset 3, -8
 1697              		.cfi_offset 14, -4
