ARM GAS  C:\Users\mitchell\AppData\Local\Temp\ccz0xTRg.s 			page 1


   1              		.cpu cortex-m0
   2              		.fpu softvfp
   3              		.eabi_attribute 20, 1
   4              		.eabi_attribute 21, 1
   5              		.eabi_attribute 23, 3
   6              		.eabi_attribute 24, 1
   7              		.eabi_attribute 25, 1
   8              		.eabi_attribute 26, 1
   9              		.eabi_attribute 30, 1
  10              		.eabi_attribute 34, 0
  11              		.eabi_attribute 18, 4
  12              		.code	16
  13              		.file	"UART_1.c"
  14              		.text
  15              	.Ltext0:
  16              		.cfi_sections	.debug_frame
  17              		.section	.text.UART_1_ScbModePostEnable,"ax",%progbits
  18              		.align	2
  19              		.code	16
  20              		.thumb_func
  21              		.type	UART_1_ScbModePostEnable, %function
  22              	UART_1_ScbModePostEnable:
  23              	.LFB9:
  24              		.file 1 ".\\Generated_Source\\PSoC4\\UART_1.c"
   1:.\Generated_Source\PSoC4/UART_1.c **** /*******************************************************************************
   2:.\Generated_Source\PSoC4/UART_1.c **** * File Name: UART_1.c
   3:.\Generated_Source\PSoC4/UART_1.c **** * Version 3.0
   4:.\Generated_Source\PSoC4/UART_1.c **** *
   5:.\Generated_Source\PSoC4/UART_1.c **** * Description:
   6:.\Generated_Source\PSoC4/UART_1.c **** *  This file provides the source code to the API for the SCB Component.
   7:.\Generated_Source\PSoC4/UART_1.c **** *
   8:.\Generated_Source\PSoC4/UART_1.c **** * Note:
   9:.\Generated_Source\PSoC4/UART_1.c **** *
  10:.\Generated_Source\PSoC4/UART_1.c **** *******************************************************************************
  11:.\Generated_Source\PSoC4/UART_1.c **** * Copyright 2013-2015, Cypress Semiconductor Corporation.  All rights reserved.
  12:.\Generated_Source\PSoC4/UART_1.c **** * You may use this file only in accordance with the license, terms, conditions,
  13:.\Generated_Source\PSoC4/UART_1.c **** * disclaimers, and limitations in the end user license agreement accompanying
  14:.\Generated_Source\PSoC4/UART_1.c **** * the software package with which this file was provided.
  15:.\Generated_Source\PSoC4/UART_1.c **** *******************************************************************************/
  16:.\Generated_Source\PSoC4/UART_1.c **** 
  17:.\Generated_Source\PSoC4/UART_1.c **** #include "UART_1_PVT.h"
  18:.\Generated_Source\PSoC4/UART_1.c **** 
  19:.\Generated_Source\PSoC4/UART_1.c **** #if (UART_1_SCB_MODE_I2C_INC)
  20:.\Generated_Source\PSoC4/UART_1.c ****     #include "UART_1_I2C_PVT.h"
  21:.\Generated_Source\PSoC4/UART_1.c **** #endif /* (UART_1_SCB_MODE_I2C_INC) */
  22:.\Generated_Source\PSoC4/UART_1.c **** 
  23:.\Generated_Source\PSoC4/UART_1.c **** #if (UART_1_SCB_MODE_EZI2C_INC)
  24:.\Generated_Source\PSoC4/UART_1.c ****     #include "UART_1_EZI2C_PVT.h"
  25:.\Generated_Source\PSoC4/UART_1.c **** #endif /* (UART_1_SCB_MODE_EZI2C_INC) */
  26:.\Generated_Source\PSoC4/UART_1.c **** 
  27:.\Generated_Source\PSoC4/UART_1.c **** #if (UART_1_SCB_MODE_SPI_INC || UART_1_SCB_MODE_UART_INC)
  28:.\Generated_Source\PSoC4/UART_1.c ****     #include "UART_1_SPI_UART_PVT.h"
  29:.\Generated_Source\PSoC4/UART_1.c **** #endif /* (UART_1_SCB_MODE_SPI_INC || UART_1_SCB_MODE_UART_INC) */
  30:.\Generated_Source\PSoC4/UART_1.c **** 
  31:.\Generated_Source\PSoC4/UART_1.c **** 
  32:.\Generated_Source\PSoC4/UART_1.c **** /***************************************
  33:.\Generated_Source\PSoC4/UART_1.c **** *    Run Time Configuration Vars
ARM GAS  C:\Users\mitchell\AppData\Local\Temp\ccz0xTRg.s 			page 2


  34:.\Generated_Source\PSoC4/UART_1.c **** ***************************************/
  35:.\Generated_Source\PSoC4/UART_1.c **** 
  36:.\Generated_Source\PSoC4/UART_1.c **** /* Stores internal component configuration for Unconfigured mode */
  37:.\Generated_Source\PSoC4/UART_1.c **** #if (UART_1_SCB_MODE_UNCONFIG_CONST_CFG)
  38:.\Generated_Source\PSoC4/UART_1.c ****     /* Common configuration variables */
  39:.\Generated_Source\PSoC4/UART_1.c ****     uint8 UART_1_scbMode = UART_1_SCB_MODE_UNCONFIG;
  40:.\Generated_Source\PSoC4/UART_1.c ****     uint8 UART_1_scbEnableWake;
  41:.\Generated_Source\PSoC4/UART_1.c ****     uint8 UART_1_scbEnableIntr;
  42:.\Generated_Source\PSoC4/UART_1.c **** 
  43:.\Generated_Source\PSoC4/UART_1.c ****     /* I2C configuration variables */
  44:.\Generated_Source\PSoC4/UART_1.c ****     uint8 UART_1_mode;
  45:.\Generated_Source\PSoC4/UART_1.c ****     uint8 UART_1_acceptAddr;
  46:.\Generated_Source\PSoC4/UART_1.c **** 
  47:.\Generated_Source\PSoC4/UART_1.c ****     /* SPI/UART configuration variables */
  48:.\Generated_Source\PSoC4/UART_1.c ****     volatile uint8 * UART_1_rxBuffer;
  49:.\Generated_Source\PSoC4/UART_1.c ****     uint8  UART_1_rxDataBits;
  50:.\Generated_Source\PSoC4/UART_1.c ****     uint32 UART_1_rxBufferSize;
  51:.\Generated_Source\PSoC4/UART_1.c **** 
  52:.\Generated_Source\PSoC4/UART_1.c ****     volatile uint8 * UART_1_txBuffer;
  53:.\Generated_Source\PSoC4/UART_1.c ****     uint8  UART_1_txDataBits;
  54:.\Generated_Source\PSoC4/UART_1.c ****     uint32 UART_1_txBufferSize;
  55:.\Generated_Source\PSoC4/UART_1.c **** 
  56:.\Generated_Source\PSoC4/UART_1.c ****     /* EZI2C configuration variables */
  57:.\Generated_Source\PSoC4/UART_1.c ****     uint8 UART_1_numberOfAddr;
  58:.\Generated_Source\PSoC4/UART_1.c ****     uint8 UART_1_subAddrSize;
  59:.\Generated_Source\PSoC4/UART_1.c **** #endif /* (UART_1_SCB_MODE_UNCONFIG_CONST_CFG) */
  60:.\Generated_Source\PSoC4/UART_1.c **** 
  61:.\Generated_Source\PSoC4/UART_1.c **** 
  62:.\Generated_Source\PSoC4/UART_1.c **** /***************************************
  63:.\Generated_Source\PSoC4/UART_1.c **** *     Common SCB Vars
  64:.\Generated_Source\PSoC4/UART_1.c **** ***************************************/
  65:.\Generated_Source\PSoC4/UART_1.c **** 
  66:.\Generated_Source\PSoC4/UART_1.c **** uint8 UART_1_initVar = 0u;
  67:.\Generated_Source\PSoC4/UART_1.c **** 
  68:.\Generated_Source\PSoC4/UART_1.c **** #if (UART_1_SCB_IRQ_INTERNAL)
  69:.\Generated_Source\PSoC4/UART_1.c **** #if !defined (CY_REMOVE_UART_1_CUSTOM_INTR_HANDLER)
  70:.\Generated_Source\PSoC4/UART_1.c ****     void (*UART_1_customIntrHandler)(void) = NULL;
  71:.\Generated_Source\PSoC4/UART_1.c **** #endif /* !defined (CY_REMOVE_UART_1_CUSTOM_INTR_HANDLER) */
  72:.\Generated_Source\PSoC4/UART_1.c **** #endif /* (UART_1_SCB_IRQ_INTERNAL) */
  73:.\Generated_Source\PSoC4/UART_1.c **** 
  74:.\Generated_Source\PSoC4/UART_1.c **** 
  75:.\Generated_Source\PSoC4/UART_1.c **** /***************************************
  76:.\Generated_Source\PSoC4/UART_1.c **** *    Private Function Prototypes
  77:.\Generated_Source\PSoC4/UART_1.c **** ***************************************/
  78:.\Generated_Source\PSoC4/UART_1.c **** 
  79:.\Generated_Source\PSoC4/UART_1.c **** static void UART_1_ScbEnableIntr(void);
  80:.\Generated_Source\PSoC4/UART_1.c **** static void UART_1_ScbModeStop(void);
  81:.\Generated_Source\PSoC4/UART_1.c **** static void UART_1_ScbModePostEnable(void);
  82:.\Generated_Source\PSoC4/UART_1.c **** 
  83:.\Generated_Source\PSoC4/UART_1.c **** 
  84:.\Generated_Source\PSoC4/UART_1.c **** /*******************************************************************************
  85:.\Generated_Source\PSoC4/UART_1.c **** * Function Name: UART_1_Init
  86:.\Generated_Source\PSoC4/UART_1.c **** ********************************************************************************
  87:.\Generated_Source\PSoC4/UART_1.c **** *
  88:.\Generated_Source\PSoC4/UART_1.c **** * Summary:
  89:.\Generated_Source\PSoC4/UART_1.c **** *  Initializes the SCB component to operate in one of the selected
  90:.\Generated_Source\PSoC4/UART_1.c **** *  configurations: I2C, SPI, UART or EZI2C.
ARM GAS  C:\Users\mitchell\AppData\Local\Temp\ccz0xTRg.s 			page 3


  91:.\Generated_Source\PSoC4/UART_1.c **** *  When the configuration is set to "Unconfigured SCB", this function does
  92:.\Generated_Source\PSoC4/UART_1.c **** *  not do any initialization. Use mode-specific initialization APIs instead:
  93:.\Generated_Source\PSoC4/UART_1.c **** *  SCB_I2CInit, SCB_SpiInit, SCB_UartInit or SCB_EzI2CInit.
  94:.\Generated_Source\PSoC4/UART_1.c **** *
  95:.\Generated_Source\PSoC4/UART_1.c **** * Parameters:
  96:.\Generated_Source\PSoC4/UART_1.c **** *  None
  97:.\Generated_Source\PSoC4/UART_1.c **** *
  98:.\Generated_Source\PSoC4/UART_1.c **** * Return:
  99:.\Generated_Source\PSoC4/UART_1.c **** *  None
 100:.\Generated_Source\PSoC4/UART_1.c **** *
 101:.\Generated_Source\PSoC4/UART_1.c **** *******************************************************************************/
 102:.\Generated_Source\PSoC4/UART_1.c **** void UART_1_Init(void)
 103:.\Generated_Source\PSoC4/UART_1.c **** {
 104:.\Generated_Source\PSoC4/UART_1.c **** #if (UART_1_SCB_MODE_UNCONFIG_CONST_CFG)
 105:.\Generated_Source\PSoC4/UART_1.c ****     if (UART_1_SCB_MODE_UNCONFIG_RUNTM_CFG)
 106:.\Generated_Source\PSoC4/UART_1.c ****     {
 107:.\Generated_Source\PSoC4/UART_1.c ****         UART_1_initVar = 0u;
 108:.\Generated_Source\PSoC4/UART_1.c ****     }
 109:.\Generated_Source\PSoC4/UART_1.c ****     else
 110:.\Generated_Source\PSoC4/UART_1.c ****     {
 111:.\Generated_Source\PSoC4/UART_1.c ****         /* Initialization was done before this function call */
 112:.\Generated_Source\PSoC4/UART_1.c ****     }
 113:.\Generated_Source\PSoC4/UART_1.c **** 
 114:.\Generated_Source\PSoC4/UART_1.c **** #elif (UART_1_SCB_MODE_I2C_CONST_CFG)
 115:.\Generated_Source\PSoC4/UART_1.c ****     UART_1_I2CInit();
 116:.\Generated_Source\PSoC4/UART_1.c **** 
 117:.\Generated_Source\PSoC4/UART_1.c **** #elif (UART_1_SCB_MODE_SPI_CONST_CFG)
 118:.\Generated_Source\PSoC4/UART_1.c ****     UART_1_SpiInit();
 119:.\Generated_Source\PSoC4/UART_1.c **** 
 120:.\Generated_Source\PSoC4/UART_1.c **** #elif (UART_1_SCB_MODE_UART_CONST_CFG)
 121:.\Generated_Source\PSoC4/UART_1.c ****     UART_1_UartInit();
 122:.\Generated_Source\PSoC4/UART_1.c **** 
 123:.\Generated_Source\PSoC4/UART_1.c **** #elif (UART_1_SCB_MODE_EZI2C_CONST_CFG)
 124:.\Generated_Source\PSoC4/UART_1.c ****     UART_1_EzI2CInit();
 125:.\Generated_Source\PSoC4/UART_1.c **** 
 126:.\Generated_Source\PSoC4/UART_1.c **** #endif /* (UART_1_SCB_MODE_UNCONFIG_CONST_CFG) */
 127:.\Generated_Source\PSoC4/UART_1.c **** }
 128:.\Generated_Source\PSoC4/UART_1.c **** 
 129:.\Generated_Source\PSoC4/UART_1.c **** 
 130:.\Generated_Source\PSoC4/UART_1.c **** /*******************************************************************************
 131:.\Generated_Source\PSoC4/UART_1.c **** * Function Name: UART_1_Enable
 132:.\Generated_Source\PSoC4/UART_1.c **** ********************************************************************************
 133:.\Generated_Source\PSoC4/UART_1.c **** *
 134:.\Generated_Source\PSoC4/UART_1.c **** * Summary:
 135:.\Generated_Source\PSoC4/UART_1.c **** *  Enables the SCB component operation.
 136:.\Generated_Source\PSoC4/UART_1.c **** *  The SCB configuration should be not changed when the component is enabled.
 137:.\Generated_Source\PSoC4/UART_1.c **** *  Any configuration changes should be made after disabling the component.
 138:.\Generated_Source\PSoC4/UART_1.c **** *
 139:.\Generated_Source\PSoC4/UART_1.c **** * Parameters:
 140:.\Generated_Source\PSoC4/UART_1.c **** *  None
 141:.\Generated_Source\PSoC4/UART_1.c **** *
 142:.\Generated_Source\PSoC4/UART_1.c **** * Return:
 143:.\Generated_Source\PSoC4/UART_1.c **** *  None
 144:.\Generated_Source\PSoC4/UART_1.c **** *
 145:.\Generated_Source\PSoC4/UART_1.c **** *******************************************************************************/
 146:.\Generated_Source\PSoC4/UART_1.c **** void UART_1_Enable(void)
 147:.\Generated_Source\PSoC4/UART_1.c **** {
ARM GAS  C:\Users\mitchell\AppData\Local\Temp\ccz0xTRg.s 			page 4


 148:.\Generated_Source\PSoC4/UART_1.c **** #if (UART_1_SCB_MODE_UNCONFIG_CONST_CFG)
 149:.\Generated_Source\PSoC4/UART_1.c ****     /* Enable SCB block, only if it is already configured */
 150:.\Generated_Source\PSoC4/UART_1.c ****     if (!UART_1_SCB_MODE_UNCONFIG_RUNTM_CFG)
 151:.\Generated_Source\PSoC4/UART_1.c ****     {
 152:.\Generated_Source\PSoC4/UART_1.c ****         UART_1_CTRL_REG |= UART_1_CTRL_ENABLED;
 153:.\Generated_Source\PSoC4/UART_1.c **** 
 154:.\Generated_Source\PSoC4/UART_1.c ****         UART_1_ScbEnableIntr();
 155:.\Generated_Source\PSoC4/UART_1.c **** 
 156:.\Generated_Source\PSoC4/UART_1.c ****         /* Call PostEnable function specific to current operation mode */
 157:.\Generated_Source\PSoC4/UART_1.c ****         UART_1_ScbModePostEnable();
 158:.\Generated_Source\PSoC4/UART_1.c ****     }
 159:.\Generated_Source\PSoC4/UART_1.c **** #else
 160:.\Generated_Source\PSoC4/UART_1.c ****     UART_1_CTRL_REG |= UART_1_CTRL_ENABLED;
 161:.\Generated_Source\PSoC4/UART_1.c **** 
 162:.\Generated_Source\PSoC4/UART_1.c ****     UART_1_ScbEnableIntr();
 163:.\Generated_Source\PSoC4/UART_1.c **** 
 164:.\Generated_Source\PSoC4/UART_1.c ****     /* Call PostEnable function specific to current operation mode */
 165:.\Generated_Source\PSoC4/UART_1.c ****     UART_1_ScbModePostEnable();
 166:.\Generated_Source\PSoC4/UART_1.c **** #endif /* (UART_1_SCB_MODE_UNCONFIG_CONST_CFG) */
 167:.\Generated_Source\PSoC4/UART_1.c **** }
 168:.\Generated_Source\PSoC4/UART_1.c **** 
 169:.\Generated_Source\PSoC4/UART_1.c **** 
 170:.\Generated_Source\PSoC4/UART_1.c **** /*******************************************************************************
 171:.\Generated_Source\PSoC4/UART_1.c **** * Function Name: UART_1_Start
 172:.\Generated_Source\PSoC4/UART_1.c **** ********************************************************************************
 173:.\Generated_Source\PSoC4/UART_1.c **** *
 174:.\Generated_Source\PSoC4/UART_1.c **** * Summary:
 175:.\Generated_Source\PSoC4/UART_1.c **** *  Invokes SCB_Init() and SCB_Enable().
 176:.\Generated_Source\PSoC4/UART_1.c **** *  After this function call, the component is enabled and ready for operation.
 177:.\Generated_Source\PSoC4/UART_1.c **** *  When configuration is set to "Unconfigured SCB", the component must first be
 178:.\Generated_Source\PSoC4/UART_1.c **** *  initialized to operate in one of the following configurations: I2C, SPI, UART
 179:.\Generated_Source\PSoC4/UART_1.c **** *  or EZ I2C. Otherwise this function does not enable the component.
 180:.\Generated_Source\PSoC4/UART_1.c **** *
 181:.\Generated_Source\PSoC4/UART_1.c **** * Parameters:
 182:.\Generated_Source\PSoC4/UART_1.c **** *  None
 183:.\Generated_Source\PSoC4/UART_1.c **** *
 184:.\Generated_Source\PSoC4/UART_1.c **** * Return:
 185:.\Generated_Source\PSoC4/UART_1.c **** *  None
 186:.\Generated_Source\PSoC4/UART_1.c **** *
 187:.\Generated_Source\PSoC4/UART_1.c **** * Global variables:
 188:.\Generated_Source\PSoC4/UART_1.c **** *  UART_1_initVar - used to check initial configuration, modified
 189:.\Generated_Source\PSoC4/UART_1.c **** *  on first function call.
 190:.\Generated_Source\PSoC4/UART_1.c **** *
 191:.\Generated_Source\PSoC4/UART_1.c **** *******************************************************************************/
 192:.\Generated_Source\PSoC4/UART_1.c **** void UART_1_Start(void)
 193:.\Generated_Source\PSoC4/UART_1.c **** {
 194:.\Generated_Source\PSoC4/UART_1.c ****     if (0u == UART_1_initVar)
 195:.\Generated_Source\PSoC4/UART_1.c ****     {
 196:.\Generated_Source\PSoC4/UART_1.c ****         UART_1_Init();
 197:.\Generated_Source\PSoC4/UART_1.c ****         UART_1_initVar = 1u; /* Component was initialized */
 198:.\Generated_Source\PSoC4/UART_1.c ****     }
 199:.\Generated_Source\PSoC4/UART_1.c **** 
 200:.\Generated_Source\PSoC4/UART_1.c ****     UART_1_Enable();
 201:.\Generated_Source\PSoC4/UART_1.c **** }
 202:.\Generated_Source\PSoC4/UART_1.c **** 
 203:.\Generated_Source\PSoC4/UART_1.c **** 
 204:.\Generated_Source\PSoC4/UART_1.c **** /*******************************************************************************
ARM GAS  C:\Users\mitchell\AppData\Local\Temp\ccz0xTRg.s 			page 5


 205:.\Generated_Source\PSoC4/UART_1.c **** * Function Name: UART_1_Stop
 206:.\Generated_Source\PSoC4/UART_1.c **** ********************************************************************************
 207:.\Generated_Source\PSoC4/UART_1.c **** *
 208:.\Generated_Source\PSoC4/UART_1.c **** * Summary:
 209:.\Generated_Source\PSoC4/UART_1.c **** *  Disables the SCB component and its interrupt.
 210:.\Generated_Source\PSoC4/UART_1.c **** *  It also disables all TX interrupt sources so as not to cause an unexpected
 211:.\Generated_Source\PSoC4/UART_1.c **** *  interrupt trigger because after the component is enabled, the TX FIFO 
 212:.\Generated_Source\PSoC4/UART_1.c **** *  is empty.
 213:.\Generated_Source\PSoC4/UART_1.c **** *
 214:.\Generated_Source\PSoC4/UART_1.c **** * Parameters:
 215:.\Generated_Source\PSoC4/UART_1.c **** *  None
 216:.\Generated_Source\PSoC4/UART_1.c **** *
 217:.\Generated_Source\PSoC4/UART_1.c **** * Return:
 218:.\Generated_Source\PSoC4/UART_1.c **** *  None
 219:.\Generated_Source\PSoC4/UART_1.c **** * 
 220:.\Generated_Source\PSoC4/UART_1.c **** *******************************************************************************/
 221:.\Generated_Source\PSoC4/UART_1.c **** void UART_1_Stop(void)
 222:.\Generated_Source\PSoC4/UART_1.c **** {
 223:.\Generated_Source\PSoC4/UART_1.c **** #if (UART_1_SCB_IRQ_INTERNAL)
 224:.\Generated_Source\PSoC4/UART_1.c ****     UART_1_DisableInt();
 225:.\Generated_Source\PSoC4/UART_1.c **** #endif /* (UART_1_SCB_IRQ_INTERNAL) */
 226:.\Generated_Source\PSoC4/UART_1.c **** 
 227:.\Generated_Source\PSoC4/UART_1.c ****     /* Call Stop function specific to current operation mode */
 228:.\Generated_Source\PSoC4/UART_1.c ****     UART_1_ScbModeStop();
 229:.\Generated_Source\PSoC4/UART_1.c **** 
 230:.\Generated_Source\PSoC4/UART_1.c ****     /* Disable SCB IP */
 231:.\Generated_Source\PSoC4/UART_1.c ****     UART_1_CTRL_REG &= (uint32) ~UART_1_CTRL_ENABLED;
 232:.\Generated_Source\PSoC4/UART_1.c **** 
 233:.\Generated_Source\PSoC4/UART_1.c ****     /* Disable all TX interrupt sources so as not to cause an unexpected
 234:.\Generated_Source\PSoC4/UART_1.c ****     * interrupt trigger because after the component is enabled, the TX FIFO
 235:.\Generated_Source\PSoC4/UART_1.c ****     * is empty.
 236:.\Generated_Source\PSoC4/UART_1.c ****     * For SCB IP v0, it is critical as it does not mask-out interrupt
 237:.\Generated_Source\PSoC4/UART_1.c ****     * sources when they are disabled. This can cause a code lock-up in the
 238:.\Generated_Source\PSoC4/UART_1.c ****     * interrupt handler because TX FIFO cannot be loaded after the block
 239:.\Generated_Source\PSoC4/UART_1.c ****     * is disabled.
 240:.\Generated_Source\PSoC4/UART_1.c ****     */
 241:.\Generated_Source\PSoC4/UART_1.c ****     UART_1_SetTxInterruptMode(UART_1_NO_INTR_SOURCES);
 242:.\Generated_Source\PSoC4/UART_1.c **** 
 243:.\Generated_Source\PSoC4/UART_1.c **** #if (UART_1_SCB_IRQ_INTERNAL)
 244:.\Generated_Source\PSoC4/UART_1.c ****     UART_1_ClearPendingInt();
 245:.\Generated_Source\PSoC4/UART_1.c **** #endif /* (UART_1_SCB_IRQ_INTERNAL) */
 246:.\Generated_Source\PSoC4/UART_1.c **** }
 247:.\Generated_Source\PSoC4/UART_1.c **** 
 248:.\Generated_Source\PSoC4/UART_1.c **** 
 249:.\Generated_Source\PSoC4/UART_1.c **** /*******************************************************************************
 250:.\Generated_Source\PSoC4/UART_1.c **** * Function Name: UART_1_SetRxFifoLevel
 251:.\Generated_Source\PSoC4/UART_1.c **** ********************************************************************************
 252:.\Generated_Source\PSoC4/UART_1.c **** *
 253:.\Generated_Source\PSoC4/UART_1.c **** * Summary:
 254:.\Generated_Source\PSoC4/UART_1.c **** *  Sets level in the RX FIFO to generate a RX level interrupt.
 255:.\Generated_Source\PSoC4/UART_1.c **** *  When the RX FIFO has more entries than the RX FIFO level an RX level
 256:.\Generated_Source\PSoC4/UART_1.c **** *  interrupt request is generated.
 257:.\Generated_Source\PSoC4/UART_1.c **** *
 258:.\Generated_Source\PSoC4/UART_1.c **** * Parameters:
 259:.\Generated_Source\PSoC4/UART_1.c **** *  level: Level in the RX FIFO to generate RX level interrupt.
 260:.\Generated_Source\PSoC4/UART_1.c **** *         The range of valid level values is between 0 and RX FIFO depth - 1.
 261:.\Generated_Source\PSoC4/UART_1.c **** *
ARM GAS  C:\Users\mitchell\AppData\Local\Temp\ccz0xTRg.s 			page 6


 262:.\Generated_Source\PSoC4/UART_1.c **** * Return:
 263:.\Generated_Source\PSoC4/UART_1.c **** *  None
 264:.\Generated_Source\PSoC4/UART_1.c **** *
 265:.\Generated_Source\PSoC4/UART_1.c **** *******************************************************************************/
 266:.\Generated_Source\PSoC4/UART_1.c **** void UART_1_SetRxFifoLevel(uint32 level)
 267:.\Generated_Source\PSoC4/UART_1.c **** {
 268:.\Generated_Source\PSoC4/UART_1.c ****     uint32 rxFifoCtrl;
 269:.\Generated_Source\PSoC4/UART_1.c **** 
 270:.\Generated_Source\PSoC4/UART_1.c ****     rxFifoCtrl = UART_1_RX_FIFO_CTRL_REG;
 271:.\Generated_Source\PSoC4/UART_1.c **** 
 272:.\Generated_Source\PSoC4/UART_1.c ****     rxFifoCtrl &= ((uint32) ~UART_1_RX_FIFO_CTRL_TRIGGER_LEVEL_MASK); /* Clear level mask bits */
 273:.\Generated_Source\PSoC4/UART_1.c ****     rxFifoCtrl |= ((uint32) (UART_1_RX_FIFO_CTRL_TRIGGER_LEVEL_MASK & level));
 274:.\Generated_Source\PSoC4/UART_1.c **** 
 275:.\Generated_Source\PSoC4/UART_1.c ****     UART_1_RX_FIFO_CTRL_REG = rxFifoCtrl;
 276:.\Generated_Source\PSoC4/UART_1.c **** }
 277:.\Generated_Source\PSoC4/UART_1.c **** 
 278:.\Generated_Source\PSoC4/UART_1.c **** 
 279:.\Generated_Source\PSoC4/UART_1.c **** /*******************************************************************************
 280:.\Generated_Source\PSoC4/UART_1.c **** * Function Name: UART_1_SetTxFifoLevel
 281:.\Generated_Source\PSoC4/UART_1.c **** ********************************************************************************
 282:.\Generated_Source\PSoC4/UART_1.c **** *
 283:.\Generated_Source\PSoC4/UART_1.c **** * Summary:
 284:.\Generated_Source\PSoC4/UART_1.c **** *  Sets level in the TX FIFO to generate a TX level interrupt.
 285:.\Generated_Source\PSoC4/UART_1.c **** *  When the TX FIFO has more entries than the TX FIFO level an TX level
 286:.\Generated_Source\PSoC4/UART_1.c **** *  interrupt request is generated.
 287:.\Generated_Source\PSoC4/UART_1.c **** *
 288:.\Generated_Source\PSoC4/UART_1.c **** * Parameters:
 289:.\Generated_Source\PSoC4/UART_1.c **** *  level: Level in the TX FIFO to generate TX level interrupt.
 290:.\Generated_Source\PSoC4/UART_1.c **** *         The range of valid level values is between 0 and TX FIFO depth - 1.
 291:.\Generated_Source\PSoC4/UART_1.c **** *
 292:.\Generated_Source\PSoC4/UART_1.c **** * Return:
 293:.\Generated_Source\PSoC4/UART_1.c **** *  None
 294:.\Generated_Source\PSoC4/UART_1.c **** *
 295:.\Generated_Source\PSoC4/UART_1.c **** *******************************************************************************/
 296:.\Generated_Source\PSoC4/UART_1.c **** void UART_1_SetTxFifoLevel(uint32 level)
 297:.\Generated_Source\PSoC4/UART_1.c **** {
 298:.\Generated_Source\PSoC4/UART_1.c ****     uint32 txFifoCtrl;
 299:.\Generated_Source\PSoC4/UART_1.c **** 
 300:.\Generated_Source\PSoC4/UART_1.c ****     txFifoCtrl = UART_1_TX_FIFO_CTRL_REG;
 301:.\Generated_Source\PSoC4/UART_1.c **** 
 302:.\Generated_Source\PSoC4/UART_1.c ****     txFifoCtrl &= ((uint32) ~UART_1_TX_FIFO_CTRL_TRIGGER_LEVEL_MASK); /* Clear level mask bits */
 303:.\Generated_Source\PSoC4/UART_1.c ****     txFifoCtrl |= ((uint32) (UART_1_TX_FIFO_CTRL_TRIGGER_LEVEL_MASK & level));
 304:.\Generated_Source\PSoC4/UART_1.c **** 
 305:.\Generated_Source\PSoC4/UART_1.c ****     UART_1_TX_FIFO_CTRL_REG = txFifoCtrl;
 306:.\Generated_Source\PSoC4/UART_1.c **** }
 307:.\Generated_Source\PSoC4/UART_1.c **** 
 308:.\Generated_Source\PSoC4/UART_1.c **** 
 309:.\Generated_Source\PSoC4/UART_1.c **** #if (UART_1_SCB_IRQ_INTERNAL)
 310:.\Generated_Source\PSoC4/UART_1.c ****     /*******************************************************************************
 311:.\Generated_Source\PSoC4/UART_1.c ****     * Function Name: UART_1_SetCustomInterruptHandler
 312:.\Generated_Source\PSoC4/UART_1.c ****     ********************************************************************************
 313:.\Generated_Source\PSoC4/UART_1.c ****     *
 314:.\Generated_Source\PSoC4/UART_1.c ****     * Summary:
 315:.\Generated_Source\PSoC4/UART_1.c ****     *  Registers a function to be called by the internal interrupt handler.
 316:.\Generated_Source\PSoC4/UART_1.c ****     *  First the function that is registered is called, then the internal interrupt
 317:.\Generated_Source\PSoC4/UART_1.c ****     *  handler performs any operation such as software buffer management functions
 318:.\Generated_Source\PSoC4/UART_1.c ****     *  before the interrupt returns.  It is the user's responsibility not to break
ARM GAS  C:\Users\mitchell\AppData\Local\Temp\ccz0xTRg.s 			page 7


 319:.\Generated_Source\PSoC4/UART_1.c ****     *  the software buffer operations. Only one custom handler is supported, which
 320:.\Generated_Source\PSoC4/UART_1.c ****     *  is the function provided by the most recent call.
 321:.\Generated_Source\PSoC4/UART_1.c ****     *  At the initialization time no custom handler is registered.
 322:.\Generated_Source\PSoC4/UART_1.c ****     *
 323:.\Generated_Source\PSoC4/UART_1.c ****     * Parameters:
 324:.\Generated_Source\PSoC4/UART_1.c ****     *  func: Pointer to the function to register.
 325:.\Generated_Source\PSoC4/UART_1.c ****     *        The value NULL indicates to remove the current custom interrupt
 326:.\Generated_Source\PSoC4/UART_1.c ****     *        handler.
 327:.\Generated_Source\PSoC4/UART_1.c ****     *
 328:.\Generated_Source\PSoC4/UART_1.c ****     * Return:
 329:.\Generated_Source\PSoC4/UART_1.c ****     *  None
 330:.\Generated_Source\PSoC4/UART_1.c ****     *
 331:.\Generated_Source\PSoC4/UART_1.c ****     *******************************************************************************/
 332:.\Generated_Source\PSoC4/UART_1.c ****     void UART_1_SetCustomInterruptHandler(void (*func)(void))
 333:.\Generated_Source\PSoC4/UART_1.c ****     {
 334:.\Generated_Source\PSoC4/UART_1.c ****     #if !defined (CY_REMOVE_UART_1_CUSTOM_INTR_HANDLER)
 335:.\Generated_Source\PSoC4/UART_1.c ****         UART_1_customIntrHandler = func; /* Register interrupt handler */
 336:.\Generated_Source\PSoC4/UART_1.c ****     #else
 337:.\Generated_Source\PSoC4/UART_1.c ****         if (NULL != func)
 338:.\Generated_Source\PSoC4/UART_1.c ****         {
 339:.\Generated_Source\PSoC4/UART_1.c ****             /* Suppress compiler warning */
 340:.\Generated_Source\PSoC4/UART_1.c ****         }
 341:.\Generated_Source\PSoC4/UART_1.c ****     #endif /* !defined (CY_REMOVE_UART_1_CUSTOM_INTR_HANDLER) */
 342:.\Generated_Source\PSoC4/UART_1.c ****     }
 343:.\Generated_Source\PSoC4/UART_1.c **** #endif /* (UART_1_SCB_IRQ_INTERNAL) */
 344:.\Generated_Source\PSoC4/UART_1.c **** 
 345:.\Generated_Source\PSoC4/UART_1.c **** 
 346:.\Generated_Source\PSoC4/UART_1.c **** /*******************************************************************************
 347:.\Generated_Source\PSoC4/UART_1.c **** * Function Name: UART_1_ScbModeEnableIntr
 348:.\Generated_Source\PSoC4/UART_1.c **** ********************************************************************************
 349:.\Generated_Source\PSoC4/UART_1.c **** *
 350:.\Generated_Source\PSoC4/UART_1.c **** * Summary:
 351:.\Generated_Source\PSoC4/UART_1.c **** *  Enables an interrupt for a specific mode.
 352:.\Generated_Source\PSoC4/UART_1.c **** *
 353:.\Generated_Source\PSoC4/UART_1.c **** * Parameters:
 354:.\Generated_Source\PSoC4/UART_1.c **** *  None
 355:.\Generated_Source\PSoC4/UART_1.c **** *
 356:.\Generated_Source\PSoC4/UART_1.c **** * Return:
 357:.\Generated_Source\PSoC4/UART_1.c **** *  None
 358:.\Generated_Source\PSoC4/UART_1.c **** *
 359:.\Generated_Source\PSoC4/UART_1.c **** *******************************************************************************/
 360:.\Generated_Source\PSoC4/UART_1.c **** static void UART_1_ScbEnableIntr(void)
 361:.\Generated_Source\PSoC4/UART_1.c **** {
 362:.\Generated_Source\PSoC4/UART_1.c **** #if (UART_1_SCB_IRQ_INTERNAL)
 363:.\Generated_Source\PSoC4/UART_1.c ****     /* Enable interrupt in NVIC */
 364:.\Generated_Source\PSoC4/UART_1.c ****     #if (UART_1_SCB_MODE_UNCONFIG_CONST_CFG)
 365:.\Generated_Source\PSoC4/UART_1.c ****         if (0u != UART_1_scbEnableIntr)
 366:.\Generated_Source\PSoC4/UART_1.c ****         {
 367:.\Generated_Source\PSoC4/UART_1.c ****             UART_1_EnableInt();
 368:.\Generated_Source\PSoC4/UART_1.c ****         }
 369:.\Generated_Source\PSoC4/UART_1.c **** 
 370:.\Generated_Source\PSoC4/UART_1.c ****     #else
 371:.\Generated_Source\PSoC4/UART_1.c ****         UART_1_EnableInt();
 372:.\Generated_Source\PSoC4/UART_1.c **** 
 373:.\Generated_Source\PSoC4/UART_1.c ****     #endif /* (UART_1_SCB_MODE_UNCONFIG_CONST_CFG) */
 374:.\Generated_Source\PSoC4/UART_1.c **** #endif /* (UART_1_SCB_IRQ_INTERNAL) */
 375:.\Generated_Source\PSoC4/UART_1.c **** }
ARM GAS  C:\Users\mitchell\AppData\Local\Temp\ccz0xTRg.s 			page 8


 376:.\Generated_Source\PSoC4/UART_1.c **** 
 377:.\Generated_Source\PSoC4/UART_1.c **** 
 378:.\Generated_Source\PSoC4/UART_1.c **** /*******************************************************************************
 379:.\Generated_Source\PSoC4/UART_1.c **** * Function Name: UART_1_ScbModePostEnable
 380:.\Generated_Source\PSoC4/UART_1.c **** ********************************************************************************
 381:.\Generated_Source\PSoC4/UART_1.c **** *
 382:.\Generated_Source\PSoC4/UART_1.c **** * Summary:
 383:.\Generated_Source\PSoC4/UART_1.c **** *  Calls the PostEnable function for a specific operation mode.
 384:.\Generated_Source\PSoC4/UART_1.c **** *
 385:.\Generated_Source\PSoC4/UART_1.c **** * Parameters:
 386:.\Generated_Source\PSoC4/UART_1.c **** *  None
 387:.\Generated_Source\PSoC4/UART_1.c **** *
 388:.\Generated_Source\PSoC4/UART_1.c **** * Return:
 389:.\Generated_Source\PSoC4/UART_1.c **** *  None
 390:.\Generated_Source\PSoC4/UART_1.c **** *
 391:.\Generated_Source\PSoC4/UART_1.c **** *******************************************************************************/
 392:.\Generated_Source\PSoC4/UART_1.c **** static void UART_1_ScbModePostEnable(void)
 393:.\Generated_Source\PSoC4/UART_1.c **** {
  25              		.loc 1 393 0
  26              		.cfi_startproc
  27 0000 08B5     		push	{r3, lr}
  28              		.cfi_def_cfa_offset 8
  29              		.cfi_offset 3, -8
  30              		.cfi_offset 14, -4
 394:.\Generated_Source\PSoC4/UART_1.c **** #if (UART_1_SCB_MODE_UNCONFIG_CONST_CFG)
 395:.\Generated_Source\PSoC4/UART_1.c **** #if (!UART_1_CY_SCBIP_V1)
 396:.\Generated_Source\PSoC4/UART_1.c ****     if (UART_1_SCB_MODE_SPI_RUNTM_CFG)
 397:.\Generated_Source\PSoC4/UART_1.c ****     {
 398:.\Generated_Source\PSoC4/UART_1.c ****         UART_1_SpiPostEnable();
 399:.\Generated_Source\PSoC4/UART_1.c ****     }
 400:.\Generated_Source\PSoC4/UART_1.c ****     else if (UART_1_SCB_MODE_UART_RUNTM_CFG)
 401:.\Generated_Source\PSoC4/UART_1.c ****     {
 402:.\Generated_Source\PSoC4/UART_1.c ****         UART_1_UartPostEnable();
 403:.\Generated_Source\PSoC4/UART_1.c ****     }
 404:.\Generated_Source\PSoC4/UART_1.c ****     else
 405:.\Generated_Source\PSoC4/UART_1.c ****     {
 406:.\Generated_Source\PSoC4/UART_1.c ****         /* Unknown mode: do nothing */
 407:.\Generated_Source\PSoC4/UART_1.c ****     }
 408:.\Generated_Source\PSoC4/UART_1.c **** #endif /* (!UART_1_CY_SCBIP_V1) */
 409:.\Generated_Source\PSoC4/UART_1.c **** 
 410:.\Generated_Source\PSoC4/UART_1.c **** #elif (UART_1_SCB_MODE_SPI_CONST_CFG)
 411:.\Generated_Source\PSoC4/UART_1.c ****     UART_1_SpiPostEnable();
 412:.\Generated_Source\PSoC4/UART_1.c **** 
 413:.\Generated_Source\PSoC4/UART_1.c **** #elif (UART_1_SCB_MODE_UART_CONST_CFG)
 414:.\Generated_Source\PSoC4/UART_1.c ****     UART_1_UartPostEnable();
  31              		.loc 1 414 0
  32 0002 FFF7FEFF 		bl	UART_1_UartPostEnable
  33              	.LVL0:
 415:.\Generated_Source\PSoC4/UART_1.c **** 
 416:.\Generated_Source\PSoC4/UART_1.c **** #else
 417:.\Generated_Source\PSoC4/UART_1.c ****     /* Unknown mode: do nothing */
 418:.\Generated_Source\PSoC4/UART_1.c **** #endif /* (UART_1_SCB_MODE_UNCONFIG_CONST_CFG) */
 419:.\Generated_Source\PSoC4/UART_1.c **** }
  34              		.loc 1 419 0
  35              		@ sp needed
  36 0006 08BD     		pop	{r3, pc}
  37              		.cfi_endproc
ARM GAS  C:\Users\mitchell\AppData\Local\Temp\ccz0xTRg.s 			page 9


  38              	.LFE9:
  39              		.size	UART_1_ScbModePostEnable, .-UART_1_ScbModePostEnable
  40              		.section	.text.UART_1_ScbModeStop,"ax",%progbits
  41              		.align	2
  42              		.code	16
  43              		.thumb_func
  44              		.type	UART_1_ScbModeStop, %function
  45              	UART_1_ScbModeStop:
  46              	.LFB10:
 420:.\Generated_Source\PSoC4/UART_1.c **** 
 421:.\Generated_Source\PSoC4/UART_1.c **** 
 422:.\Generated_Source\PSoC4/UART_1.c **** /*******************************************************************************
 423:.\Generated_Source\PSoC4/UART_1.c **** * Function Name: UART_1_ScbModeStop
 424:.\Generated_Source\PSoC4/UART_1.c **** ********************************************************************************
 425:.\Generated_Source\PSoC4/UART_1.c **** *
 426:.\Generated_Source\PSoC4/UART_1.c **** * Summary:
 427:.\Generated_Source\PSoC4/UART_1.c **** *  Calls the Stop function for a specific operation mode.
 428:.\Generated_Source\PSoC4/UART_1.c **** *
 429:.\Generated_Source\PSoC4/UART_1.c **** * Parameters:
 430:.\Generated_Source\PSoC4/UART_1.c **** *  None
 431:.\Generated_Source\PSoC4/UART_1.c **** *
 432:.\Generated_Source\PSoC4/UART_1.c **** * Return:
 433:.\Generated_Source\PSoC4/UART_1.c **** *  None
 434:.\Generated_Source\PSoC4/UART_1.c **** *
 435:.\Generated_Source\PSoC4/UART_1.c **** *******************************************************************************/
 436:.\Generated_Source\PSoC4/UART_1.c **** static void UART_1_ScbModeStop(void)
 437:.\Generated_Source\PSoC4/UART_1.c **** {
  47              		.loc 1 437 0
  48              		.cfi_startproc
  49 0000 08B5     		push	{r3, lr}
  50              		.cfi_def_cfa_offset 8
  51              		.cfi_offset 3, -8
  52              		.cfi_offset 14, -4
 438:.\Generated_Source\PSoC4/UART_1.c **** #if (UART_1_SCB_MODE_UNCONFIG_CONST_CFG)
 439:.\Generated_Source\PSoC4/UART_1.c ****     if (UART_1_SCB_MODE_I2C_RUNTM_CFG)
 440:.\Generated_Source\PSoC4/UART_1.c ****     {
 441:.\Generated_Source\PSoC4/UART_1.c ****         UART_1_I2CStop();
 442:.\Generated_Source\PSoC4/UART_1.c ****     }
 443:.\Generated_Source\PSoC4/UART_1.c ****     else if (UART_1_SCB_MODE_EZI2C_RUNTM_CFG)
 444:.\Generated_Source\PSoC4/UART_1.c ****     {
 445:.\Generated_Source\PSoC4/UART_1.c ****         UART_1_EzI2CStop();
 446:.\Generated_Source\PSoC4/UART_1.c ****     }
 447:.\Generated_Source\PSoC4/UART_1.c **** #if (!UART_1_CY_SCBIP_V1)
 448:.\Generated_Source\PSoC4/UART_1.c ****     else if (UART_1_SCB_MODE_SPI_RUNTM_CFG)
 449:.\Generated_Source\PSoC4/UART_1.c ****     {
 450:.\Generated_Source\PSoC4/UART_1.c ****         UART_1_SpiStop();
 451:.\Generated_Source\PSoC4/UART_1.c ****     }
 452:.\Generated_Source\PSoC4/UART_1.c ****     else if (UART_1_SCB_MODE_UART_RUNTM_CFG)
 453:.\Generated_Source\PSoC4/UART_1.c ****     {
 454:.\Generated_Source\PSoC4/UART_1.c ****         UART_1_UartStop();
 455:.\Generated_Source\PSoC4/UART_1.c ****     }
 456:.\Generated_Source\PSoC4/UART_1.c **** #endif /* (!UART_1_CY_SCBIP_V1) */
 457:.\Generated_Source\PSoC4/UART_1.c ****     else
 458:.\Generated_Source\PSoC4/UART_1.c ****     {
 459:.\Generated_Source\PSoC4/UART_1.c ****         /* Unknown mode: do nothing */
 460:.\Generated_Source\PSoC4/UART_1.c ****     }
 461:.\Generated_Source\PSoC4/UART_1.c **** #elif (UART_1_SCB_MODE_I2C_CONST_CFG)
ARM GAS  C:\Users\mitchell\AppData\Local\Temp\ccz0xTRg.s 			page 10


 462:.\Generated_Source\PSoC4/UART_1.c ****     UART_1_I2CStop();
 463:.\Generated_Source\PSoC4/UART_1.c **** 
 464:.\Generated_Source\PSoC4/UART_1.c **** #elif (UART_1_SCB_MODE_EZI2C_CONST_CFG)
 465:.\Generated_Source\PSoC4/UART_1.c ****     UART_1_EzI2CStop();
 466:.\Generated_Source\PSoC4/UART_1.c **** 
 467:.\Generated_Source\PSoC4/UART_1.c **** #elif (UART_1_SCB_MODE_SPI_CONST_CFG)
 468:.\Generated_Source\PSoC4/UART_1.c ****     UART_1_SpiStop();
 469:.\Generated_Source\PSoC4/UART_1.c **** 
 470:.\Generated_Source\PSoC4/UART_1.c **** #elif (UART_1_SCB_MODE_UART_CONST_CFG)
 471:.\Generated_Source\PSoC4/UART_1.c ****     UART_1_UartStop();
  53              		.loc 1 471 0
  54 0002 FFF7FEFF 		bl	UART_1_UartStop
  55              	.LVL1:
 472:.\Generated_Source\PSoC4/UART_1.c **** 
 473:.\Generated_Source\PSoC4/UART_1.c **** #else
 474:.\Generated_Source\PSoC4/UART_1.c ****     /* Unknown mode: do nothing */
 475:.\Generated_Source\PSoC4/UART_1.c **** #endif /* (UART_1_SCB_MODE_UNCONFIG_CONST_CFG) */
 476:.\Generated_Source\PSoC4/UART_1.c **** }
  56              		.loc 1 476 0
  57              		@ sp needed
  58 0006 08BD     		pop	{r3, pc}
  59              		.cfi_endproc
  60              	.LFE10:
  61              		.size	UART_1_ScbModeStop, .-UART_1_ScbModeStop
  62              		.section	.text.UART_1_Init,"ax",%progbits
  63              		.align	2
  64              		.global	UART_1_Init
  65              		.code	16
  66              		.thumb_func
  67              		.type	UART_1_Init, %function
  68              	UART_1_Init:
  69              	.LFB2:
 103:.\Generated_Source\PSoC4/UART_1.c **** {
  70              		.loc 1 103 0
  71              		.cfi_startproc
  72 0000 08B5     		push	{r3, lr}
  73              		.cfi_def_cfa_offset 8
  74              		.cfi_offset 3, -8
  75              		.cfi_offset 14, -4
 121:.\Generated_Source\PSoC4/UART_1.c ****     UART_1_UartInit();
  76              		.loc 1 121 0
  77 0002 FFF7FEFF 		bl	UART_1_UartInit
  78              	.LVL2:
 127:.\Generated_Source\PSoC4/UART_1.c **** }
  79              		.loc 1 127 0
  80              		@ sp needed
  81 0006 08BD     		pop	{r3, pc}
  82              		.cfi_endproc
  83              	.LFE2:
  84              		.size	UART_1_Init, .-UART_1_Init
  85              		.section	.text.UART_1_Enable,"ax",%progbits
  86              		.align	2
  87              		.global	UART_1_Enable
  88              		.code	16
  89              		.thumb_func
  90              		.type	UART_1_Enable, %function
  91              	UART_1_Enable:
ARM GAS  C:\Users\mitchell\AppData\Local\Temp\ccz0xTRg.s 			page 11


  92              	.LFB3:
 147:.\Generated_Source\PSoC4/UART_1.c **** {
  93              		.loc 1 147 0
  94              		.cfi_startproc
  95 0000 08B5     		push	{r3, lr}
  96              		.cfi_def_cfa_offset 8
  97              		.cfi_offset 3, -8
  98              		.cfi_offset 14, -4
 160:.\Generated_Source\PSoC4/UART_1.c ****     UART_1_CTRL_REG |= UART_1_CTRL_ENABLED;
  99              		.loc 1 160 0
 100 0002 044B     		ldr	r3, .L5
 101 0004 1968     		ldr	r1, [r3]
 102 0006 8022     		mov	r2, #128
 103 0008 1206     		lsl	r2, r2, #24
 104 000a 0A43     		orr	r2, r1
 105 000c 1A60     		str	r2, [r3]
 165:.\Generated_Source\PSoC4/UART_1.c ****     UART_1_ScbModePostEnable();
 106              		.loc 1 165 0
 107 000e FFF7FEFF 		bl	UART_1_ScbModePostEnable
 108              	.LVL3:
 167:.\Generated_Source\PSoC4/UART_1.c **** }
 109              		.loc 1 167 0
 110              		@ sp needed
 111 0012 08BD     		pop	{r3, pc}
 112              	.L6:
 113              		.align	2
 114              	.L5:
 115 0014 00002440 		.word	1076101120
 116              		.cfi_endproc
 117              	.LFE3:
 118              		.size	UART_1_Enable, .-UART_1_Enable
 119              		.section	.text.UART_1_Start,"ax",%progbits
 120              		.align	2
 121              		.global	UART_1_Start
 122              		.code	16
 123              		.thumb_func
 124              		.type	UART_1_Start, %function
 125              	UART_1_Start:
 126              	.LFB4:
 193:.\Generated_Source\PSoC4/UART_1.c **** {
 127              		.loc 1 193 0
 128              		.cfi_startproc
 129 0000 08B5     		push	{r3, lr}
 130              		.cfi_def_cfa_offset 8
 131              		.cfi_offset 3, -8
 132              		.cfi_offset 14, -4
 194:.\Generated_Source\PSoC4/UART_1.c ****     if (0u == UART_1_initVar)
 133              		.loc 1 194 0
 134 0002 064B     		ldr	r3, .L9
 135 0004 1B78     		ldrb	r3, [r3]
 136 0006 002B     		cmp	r3, #0
 137 0008 04D1     		bne	.L8
 196:.\Generated_Source\PSoC4/UART_1.c ****         UART_1_Init();
 138              		.loc 1 196 0
 139 000a FFF7FEFF 		bl	UART_1_Init
 140              	.LVL4:
 197:.\Generated_Source\PSoC4/UART_1.c ****         UART_1_initVar = 1u; /* Component was initialized */
ARM GAS  C:\Users\mitchell\AppData\Local\Temp\ccz0xTRg.s 			page 12


 141              		.loc 1 197 0
 142 000e 0122     		mov	r2, #1
 143 0010 024B     		ldr	r3, .L9
 144 0012 1A70     		strb	r2, [r3]
 145              	.L8:
 200:.\Generated_Source\PSoC4/UART_1.c ****     UART_1_Enable();
 146              		.loc 1 200 0
 147 0014 FFF7FEFF 		bl	UART_1_Enable
 148              	.LVL5:
 201:.\Generated_Source\PSoC4/UART_1.c **** }
 149              		.loc 1 201 0
 150              		@ sp needed
 151 0018 08BD     		pop	{r3, pc}
 152              	.L10:
 153 001a C046     		.align	2
 154              	.L9:
 155 001c 00000000 		.word	.LANCHOR0
 156              		.cfi_endproc
 157              	.LFE4:
 158              		.size	UART_1_Start, .-UART_1_Start
 159              		.section	.text.UART_1_Stop,"ax",%progbits
 160              		.align	2
 161              		.global	UART_1_Stop
 162              		.code	16
 163              		.thumb_func
 164              		.type	UART_1_Stop, %function
 165              	UART_1_Stop:
 166              	.LFB5:
 222:.\Generated_Source\PSoC4/UART_1.c **** {
 167              		.loc 1 222 0
 168              		.cfi_startproc
 169 0000 08B5     		push	{r3, lr}
 170              		.cfi_def_cfa_offset 8
 171              		.cfi_offset 3, -8
 172              		.cfi_offset 14, -4
 228:.\Generated_Source\PSoC4/UART_1.c ****     UART_1_ScbModeStop();
 173              		.loc 1 228 0
 174 0002 FFF7FEFF 		bl	UART_1_ScbModeStop
 175              	.LVL6:
 231:.\Generated_Source\PSoC4/UART_1.c ****     UART_1_CTRL_REG &= (uint32) ~UART_1_CTRL_ENABLED;
 176              		.loc 1 231 0
 177 0006 044B     		ldr	r3, .L12
 178 0008 1A68     		ldr	r2, [r3]
 179 000a 5200     		lsl	r2, r2, #1
 180 000c 5208     		lsr	r2, r2, #1
 181 000e 1A60     		str	r2, [r3]
 241:.\Generated_Source\PSoC4/UART_1.c ****     UART_1_SetTxInterruptMode(UART_1_NO_INTR_SOURCES);
 182              		.loc 1 241 0
 183 0010 0022     		mov	r2, #0
 184 0012 024B     		ldr	r3, .L12+4
 185 0014 1A60     		str	r2, [r3]
 246:.\Generated_Source\PSoC4/UART_1.c **** }
 186              		.loc 1 246 0
 187              		@ sp needed
 188 0016 08BD     		pop	{r3, pc}
 189              	.L13:
 190              		.align	2
ARM GAS  C:\Users\mitchell\AppData\Local\Temp\ccz0xTRg.s 			page 13


 191              	.L12:
 192 0018 00002440 		.word	1076101120
 193 001c 880F2440 		.word	1076105096
 194              		.cfi_endproc
 195              	.LFE5:
 196              		.size	UART_1_Stop, .-UART_1_Stop
 197              		.section	.text.UART_1_SetRxFifoLevel,"ax",%progbits
 198              		.align	2
 199              		.global	UART_1_SetRxFifoLevel
 200              		.code	16
 201              		.thumb_func
 202              		.type	UART_1_SetRxFifoLevel, %function
 203              	UART_1_SetRxFifoLevel:
 204              	.LFB6:
 267:.\Generated_Source\PSoC4/UART_1.c **** {
 205              		.loc 1 267 0
 206              		.cfi_startproc
 207              	.LVL7:
 270:.\Generated_Source\PSoC4/UART_1.c ****     rxFifoCtrl = UART_1_RX_FIFO_CTRL_REG;
 208              		.loc 1 270 0
 209 0000 034B     		ldr	r3, .L15
 210 0002 1968     		ldr	r1, [r3]
 211              	.LVL8:
 272:.\Generated_Source\PSoC4/UART_1.c ****     rxFifoCtrl &= ((uint32) ~UART_1_RX_FIFO_CTRL_TRIGGER_LEVEL_MASK); /* Clear level mask bits */
 212              		.loc 1 272 0
 213 0004 0F22     		mov	r2, #15
 214 0006 9143     		bic	r1, r2
 215              	.LVL9:
 273:.\Generated_Source\PSoC4/UART_1.c ****     rxFifoCtrl |= ((uint32) (UART_1_RX_FIFO_CTRL_TRIGGER_LEVEL_MASK & level));
 216              		.loc 1 273 0
 217 0008 0240     		and	r2, r0
 218 000a 0A43     		orr	r2, r1
 219              	.LVL10:
 275:.\Generated_Source\PSoC4/UART_1.c ****     UART_1_RX_FIFO_CTRL_REG = rxFifoCtrl;
 220              		.loc 1 275 0
 221 000c 1A60     		str	r2, [r3]
 276:.\Generated_Source\PSoC4/UART_1.c **** }
 222              		.loc 1 276 0
 223              		@ sp needed
 224 000e 7047     		bx	lr
 225              	.L16:
 226              		.align	2
 227              	.L15:
 228 0010 04032440 		.word	1076101892
 229              		.cfi_endproc
 230              	.LFE6:
 231              		.size	UART_1_SetRxFifoLevel, .-UART_1_SetRxFifoLevel
 232              		.section	.text.UART_1_SetTxFifoLevel,"ax",%progbits
 233              		.align	2
 234              		.global	UART_1_SetTxFifoLevel
 235              		.code	16
 236              		.thumb_func
 237              		.type	UART_1_SetTxFifoLevel, %function
 238              	UART_1_SetTxFifoLevel:
 239              	.LFB7:
 297:.\Generated_Source\PSoC4/UART_1.c **** {
 240              		.loc 1 297 0
ARM GAS  C:\Users\mitchell\AppData\Local\Temp\ccz0xTRg.s 			page 14


 241              		.cfi_startproc
 242              	.LVL11:
 300:.\Generated_Source\PSoC4/UART_1.c ****     txFifoCtrl = UART_1_TX_FIFO_CTRL_REG;
 243              		.loc 1 300 0
 244 0000 034B     		ldr	r3, .L18
 245 0002 1968     		ldr	r1, [r3]
 246              	.LVL12:
 302:.\Generated_Source\PSoC4/UART_1.c ****     txFifoCtrl &= ((uint32) ~UART_1_TX_FIFO_CTRL_TRIGGER_LEVEL_MASK); /* Clear level mask bits */
 247              		.loc 1 302 0
 248 0004 0F22     		mov	r2, #15
 249 0006 9143     		bic	r1, r2
 250              	.LVL13:
 303:.\Generated_Source\PSoC4/UART_1.c ****     txFifoCtrl |= ((uint32) (UART_1_TX_FIFO_CTRL_TRIGGER_LEVEL_MASK & level));
 251              		.loc 1 303 0
 252 0008 0240     		and	r2, r0
 253 000a 0A43     		orr	r2, r1
 254              	.LVL14:
 305:.\Generated_Source\PSoC4/UART_1.c ****     UART_1_TX_FIFO_CTRL_REG = txFifoCtrl;
 255              		.loc 1 305 0
 256 000c 1A60     		str	r2, [r3]
 306:.\Generated_Source\PSoC4/UART_1.c **** }
 257              		.loc 1 306 0
 258              		@ sp needed
 259 000e 7047     		bx	lr
 260              	.L19:
 261              		.align	2
 262              	.L18:
 263 0010 04022440 		.word	1076101636
 264              		.cfi_endproc
 265              	.LFE7:
 266              		.size	UART_1_SetTxFifoLevel, .-UART_1_SetTxFifoLevel
 267              		.global	UART_1_initVar
 268              		.bss
 269              		.set	.LANCHOR0,. + 0
 270              		.type	UART_1_initVar, %object
 271              		.size	UART_1_initVar, 1
 272              	UART_1_initVar:
 273 0000 00       		.space	1
 274              		.text
 275              	.Letext0:
 276              		.file 2 "Generated_Source\\PSoC4/cytypes.h"
 277              		.file 3 ".\\Generated_Source\\PSoC4\\UART_1_SPI_UART_PVT.h"