ARM GAS  C:\Users\maxk\AppData\Local\Temp\ccw8u2Eq.s 			page 1


   1              		.cpu cortex-m0
   2              		.fpu softvfp
   3              		.eabi_attribute 20, 1
   4              		.eabi_attribute 21, 1
   5              		.eabi_attribute 23, 3
   6              		.eabi_attribute 24, 1
   7              		.eabi_attribute 25, 1
   8              		.eabi_attribute 26, 1
   9              		.eabi_attribute 30, 6
  10              		.eabi_attribute 18, 4
  11              		.code	16
  12              		.file	"CapSense_1_CSHL.c"
  13              		.section	.debug_abbrev,"",%progbits
  14              	.Ldebug_abbrev0:
  15              		.section	.debug_info,"",%progbits
  16              	.Ldebug_info0:
  17              		.section	.debug_line,"",%progbits
  18              	.Ldebug_line0:
  19 0000 5C020000 		.text
  19      02006800 
  19      00000201 
  19      FB0E0D00 
  19      01010101 
  20              	.Ltext0:
  21              		.cfi_sections	.debug_frame
  22              		.global	CapSense_1_SensorBaseline
  23              		.bss
  24              		.align	2
  25              		.type	CapSense_1_SensorBaseline, %object
  26              		.size	CapSense_1_SensorBaseline, 10
  27              	CapSense_1_SensorBaseline:
  28 0000 00000000 		.space	10
  28      00000000 
  28      0000
  29              		.global	CapSense_1_SensorBaselineLow
  30 000a 0000     		.align	2
  31              		.type	CapSense_1_SensorBaselineLow, %object
  32              		.size	CapSense_1_SensorBaselineLow, 5
  33              	CapSense_1_SensorBaselineLow:
  34 000c 00000000 		.space	5
  34      00
  35              		.global	CapSense_1_SensorSignal
  36 0011 000000   		.align	2
  37              		.type	CapSense_1_SensorSignal, %object
  38              		.size	CapSense_1_SensorSignal, 5
  39              	CapSense_1_SensorSignal:
  40 0014 00000000 		.space	5
  40      00
  41              		.global	CapSense_1_SensorOnMask
  42 0019 000000   		.align	2
  43              		.type	CapSense_1_SensorOnMask, %object
  44              		.size	CapSense_1_SensorOnMask, 1
  45              	CapSense_1_SensorOnMask:
  46 001c 00       		.space	1
  47              		.comm	CapSense_1_LowBaselineResetCnt,5,4
  48 001d 000000   		.align	2
  49              	CapSense_1_centroid:
ARM GAS  C:\Users\maxk\AppData\Local\Temp\ccw8u2Eq.s 			page 2


  50 0020 000000   		.space	3
  51              		.global	CapSense_1_fingerThreshold
  52              		.section	.rodata
  53              		.align	2
  54              		.type	CapSense_1_fingerThreshold, %object
  55              		.size	CapSense_1_fingerThreshold, 1
  56              	CapSense_1_fingerThreshold:
  57 0000 64       		.byte	100
  58              		.global	CapSense_1_noiseThreshold
  59 0001 000000   		.align	2
  60              		.type	CapSense_1_noiseThreshold, %object
  61              		.size	CapSense_1_noiseThreshold, 1
  62              	CapSense_1_noiseThreshold:
  63 0004 14       		.byte	20
  64              		.global	CapSense_1_hysteresis
  65 0005 000000   		.align	2
  66              		.type	CapSense_1_hysteresis, %object
  67              		.size	CapSense_1_hysteresis, 1
  68              	CapSense_1_hysteresis:
  69 0008 00       		.space	1
  70              		.global	CapSense_1_debounce
  71 0009 000000   		.align	2
  72              		.type	CapSense_1_debounce, %object
  73              		.size	CapSense_1_debounce, 1
  74              	CapSense_1_debounce:
  75 000c 01       		.byte	1
  76              		.global	CapSense_1_debounceCounter
  77              		.bss
  78 0023 00       		.align	2
  79              		.type	CapSense_1_debounceCounter, %object
  80              		.size	CapSense_1_debounceCounter, 1
  81              	CapSense_1_debounceCounter:
  82 0024 00       		.space	1
  83              		.global	CapSense_1_rawDataIndex
  84 0025 000000   		.section	.rodata
  85 000d 000000   		.align	2
  86              		.type	CapSense_1_rawDataIndex, %object
  87              		.size	CapSense_1_rawDataIndex, 1
  88              	CapSense_1_rawDataIndex:
  89 0010 00       		.space	1
  90              		.global	CapSense_1_numberOfSensors
  91 0011 000000   		.align	2
  92              		.type	CapSense_1_numberOfSensors, %object
  93              		.size	CapSense_1_numberOfSensors, 1
  94              	CapSense_1_numberOfSensors:
  95 0014 05       		.byte	5
  96              		.global	CapSense_1_centroidMult
  97 0015 000000   		.align	2
  98              		.type	CapSense_1_centroidMult, %object
  99              		.size	CapSense_1_centroidMult, 2
 100              	CapSense_1_centroidMult:
 101 0018 C03F     		.short	16320
 102              		.global	CapSense_1_posFiltersMask
 103 001a 0000     		.align	2
 104              		.type	CapSense_1_posFiltersMask, %object
 105              		.size	CapSense_1_posFiltersMask, 1
 106              	CapSense_1_posFiltersMask:
ARM GAS  C:\Users\maxk\AppData\Local\Temp\ccw8u2Eq.s 			page 3


 107 001c 08       		.byte	8
 108              		.global	CapSense_1_posFiltersData
 109 001d 000000   		.data
 110              		.align	2
 111              		.type	CapSense_1_posFiltersData, %object
 112              		.size	CapSense_1_posFiltersData, 3
 113              	CapSense_1_posFiltersData:
 114 0000 01       		.byte	1
 115 0001 00       		.byte	0
 116 0002 00       		.byte	0
 117 0003 00       		.section	.text.CapSense_1_BaseInit,"ax",%progbits
 118              		.align	2
 119              		.global	CapSense_1_BaseInit
 120              		.code	16
 121              		.thumb_func
 122              		.type	CapSense_1_BaseInit, %function
 123              	CapSense_1_BaseInit:
 124              	.LFB0:
 125              		.file 1 ".\\Generated_Source\\PSoC4\\CapSense_1_CSHL.c"
   1:.\Generated_Source\PSoC4/CapSense_1_CSHL.c **** /*******************************************************************************
   2:.\Generated_Source\PSoC4/CapSense_1_CSHL.c **** * File Name: CapSense_1_CSHL.c
   3:.\Generated_Source\PSoC4/CapSense_1_CSHL.c **** * Version 1.0
   4:.\Generated_Source\PSoC4/CapSense_1_CSHL.c **** *
   5:.\Generated_Source\PSoC4/CapSense_1_CSHL.c **** * Description:
   6:.\Generated_Source\PSoC4/CapSense_1_CSHL.c **** *  This file provides the source code to the High Level APIs for the CapSesne
   7:.\Generated_Source\PSoC4/CapSense_1_CSHL.c **** *  CSD component.
   8:.\Generated_Source\PSoC4/CapSense_1_CSHL.c **** *
   9:.\Generated_Source\PSoC4/CapSense_1_CSHL.c **** * Note:
  10:.\Generated_Source\PSoC4/CapSense_1_CSHL.c **** *
  11:.\Generated_Source\PSoC4/CapSense_1_CSHL.c **** ********************************************************************************
  12:.\Generated_Source\PSoC4/CapSense_1_CSHL.c **** * Copyright 2013, Cypress Semiconductor Corporation.  All rights reserved.
  13:.\Generated_Source\PSoC4/CapSense_1_CSHL.c **** * You may use this file only in accordance with the license, terms, conditions,
  14:.\Generated_Source\PSoC4/CapSense_1_CSHL.c **** * disclaimers, and limitations in the end user license agreement accompanying
  15:.\Generated_Source\PSoC4/CapSense_1_CSHL.c **** * the software package with which this file was provided.
  16:.\Generated_Source\PSoC4/CapSense_1_CSHL.c **** *******************************************************************************/
  17:.\Generated_Source\PSoC4/CapSense_1_CSHL.c **** 
  18:.\Generated_Source\PSoC4/CapSense_1_CSHL.c **** #include "CapSense_1_CSHL.h"
  19:.\Generated_Source\PSoC4/CapSense_1_CSHL.c **** 
  20:.\Generated_Source\PSoC4/CapSense_1_CSHL.c **** /* SmartSense functions */
  21:.\Generated_Source\PSoC4/CapSense_1_CSHL.c **** #if (CapSense_1_TUNING_METHOD == CapSense_1_AUTO_TUNING)
  22:.\Generated_Source\PSoC4/CapSense_1_CSHL.c ****     extern void CapSense_1_CalculateThresholds(uint8 SensorNumber);
  23:.\Generated_Source\PSoC4/CapSense_1_CSHL.c **** #endif /* (CapSense_1_TUNING_METHOD == CapSense_1_AUTO_TUNING) */
  24:.\Generated_Source\PSoC4/CapSense_1_CSHL.c **** 
  25:.\Generated_Source\PSoC4/CapSense_1_CSHL.c **** /* Median filter function prototype */
  26:.\Generated_Source\PSoC4/CapSense_1_CSHL.c **** #if ( (CapSense_1_RAW_FILTER_MASK & CapSense_1_MEDIAN_FILTER) || \
  27:.\Generated_Source\PSoC4/CapSense_1_CSHL.c ****       (CapSense_1_POS_FILTERS_MASK & CapSense_1_MEDIAN_FILTER) )
  28:.\Generated_Source\PSoC4/CapSense_1_CSHL.c ****     uint16 CapSense_1_MedianFilter(uint16 x1, uint16 x2, uint16 x3);
  29:.\Generated_Source\PSoC4/CapSense_1_CSHL.c **** #endif /* CapSense_1_RAW_FILTER_MASK && CapSense_1_POS_FILTERS_MASK */
  30:.\Generated_Source\PSoC4/CapSense_1_CSHL.c **** 
  31:.\Generated_Source\PSoC4/CapSense_1_CSHL.c **** /* Averaging filter function prototype */
  32:.\Generated_Source\PSoC4/CapSense_1_CSHL.c **** #if ( (CapSense_1_RAW_FILTER_MASK & CapSense_1_AVERAGING_FILTER) || \
  33:.\Generated_Source\PSoC4/CapSense_1_CSHL.c ****       (CapSense_1_POS_FILTERS_MASK & CapSense_1_AVERAGING_FILTER) )
  34:.\Generated_Source\PSoC4/CapSense_1_CSHL.c ****     uint16 CapSense_1_AveragingFilter(uint16 x1, uint16 x2, uint16 x3);
  35:.\Generated_Source\PSoC4/CapSense_1_CSHL.c **** #endif /* CapSense_1_RAW_FILTER_MASK && CapSense_1_POS_FILTERS_MASK */
  36:.\Generated_Source\PSoC4/CapSense_1_CSHL.c **** 
  37:.\Generated_Source\PSoC4/CapSense_1_CSHL.c **** /* IIR2Filter(1/2prev + 1/2cur) filter function prototype */
  38:.\Generated_Source\PSoC4/CapSense_1_CSHL.c **** #if ( (CapSense_1_RAW_FILTER_MASK & CapSense_1_IIR2_FILTER) || \
ARM GAS  C:\Users\maxk\AppData\Local\Temp\ccw8u2Eq.s 			page 4


  39:.\Generated_Source\PSoC4/CapSense_1_CSHL.c ****       (CapSense_1_POS_FILTERS_MASK & CapSense_1_IIR2_FILTER) )
  40:.\Generated_Source\PSoC4/CapSense_1_CSHL.c ****     uint16 CapSense_1_IIR2Filter(uint16 x1, uint16 x2);
  41:.\Generated_Source\PSoC4/CapSense_1_CSHL.c **** #endif /* CapSense_1_RAW_FILTER_MASK && CapSense_1_POS_FILTERS_MASK */
  42:.\Generated_Source\PSoC4/CapSense_1_CSHL.c **** 
  43:.\Generated_Source\PSoC4/CapSense_1_CSHL.c **** /* IIR4Filter(3/4prev + 1/4cur) filter function prototype */
  44:.\Generated_Source\PSoC4/CapSense_1_CSHL.c **** #if ( (CapSense_1_RAW_FILTER_MASK & CapSense_1_IIR4_FILTER) || \
  45:.\Generated_Source\PSoC4/CapSense_1_CSHL.c ****       (CapSense_1_POS_FILTERS_MASK & CapSense_1_IIR4_FILTER) )
  46:.\Generated_Source\PSoC4/CapSense_1_CSHL.c ****     uint16 CapSense_1_IIR4Filter(uint16 x1, uint16 x2);
  47:.\Generated_Source\PSoC4/CapSense_1_CSHL.c **** #endif /* CapSense_1_RAW_FILTER_MASK && CapSense_1_POS_FILTERS_MASK */
  48:.\Generated_Source\PSoC4/CapSense_1_CSHL.c **** 
  49:.\Generated_Source\PSoC4/CapSense_1_CSHL.c **** /* IIR8Filter(7/8prev + 1/8cur) filter function prototype - RawCounts only */
  50:.\Generated_Source\PSoC4/CapSense_1_CSHL.c **** #if (CapSense_1_RAW_FILTER_MASK & CapSense_1_IIR8_FILTER)
  51:.\Generated_Source\PSoC4/CapSense_1_CSHL.c ****     uint16 CapSense_1_IIR8Filter(uint16 x1, uint16 x2);
  52:.\Generated_Source\PSoC4/CapSense_1_CSHL.c **** #endif /* CapSense_1_RAW_FILTER_MASK */
  53:.\Generated_Source\PSoC4/CapSense_1_CSHL.c **** 
  54:.\Generated_Source\PSoC4/CapSense_1_CSHL.c **** /* IIR16Filter(15/16prev + 1/16cur) filter function prototype - RawCounts only */
  55:.\Generated_Source\PSoC4/CapSense_1_CSHL.c **** #if (CapSense_1_RAW_FILTER_MASK & CapSense_1_IIR16_FILTER)
  56:.\Generated_Source\PSoC4/CapSense_1_CSHL.c ****     uint16 CapSense_1_IIR16Filter(uint16 x1, uint16 x2);
  57:.\Generated_Source\PSoC4/CapSense_1_CSHL.c **** #endif /* CapSense_1_RAW_FILTER_MASK */
  58:.\Generated_Source\PSoC4/CapSense_1_CSHL.c **** 
  59:.\Generated_Source\PSoC4/CapSense_1_CSHL.c **** /* JitterFilter filter function prototype */
  60:.\Generated_Source\PSoC4/CapSense_1_CSHL.c **** #if ( (CapSense_1_RAW_FILTER_MASK & CapSense_1_JITTER_FILTER) || \
  61:.\Generated_Source\PSoC4/CapSense_1_CSHL.c ****       (CapSense_1_POS_FILTERS_MASK & CapSense_1_JITTER_FILTER) )
  62:.\Generated_Source\PSoC4/CapSense_1_CSHL.c ****     uint16 CapSense_1_JitterFilter(uint16 x1, uint16 x2);
  63:.\Generated_Source\PSoC4/CapSense_1_CSHL.c **** #endif /* CapSense_1_RAW_FILTER_MASK && CapSense_1_POS_FILTERS_MASK */
  64:.\Generated_Source\PSoC4/CapSense_1_CSHL.c **** 
  65:.\Generated_Source\PSoC4/CapSense_1_CSHL.c **** /* Storage of filters data */
  66:.\Generated_Source\PSoC4/CapSense_1_CSHL.c **** #if ( (CapSense_1_RAW_FILTER_MASK & CapSense_1_MEDIAN_FILTER) || \
  67:.\Generated_Source\PSoC4/CapSense_1_CSHL.c ****       (CapSense_1_RAW_FILTER_MASK & CapSense_1_AVERAGING_FILTER) )
  68:.\Generated_Source\PSoC4/CapSense_1_CSHL.c **** 
  69:.\Generated_Source\PSoC4/CapSense_1_CSHL.c ****     uint16 CapSense_1_rawFilterData1[CapSense_1_TOTAL_SENSOR_COUNT];
  70:.\Generated_Source\PSoC4/CapSense_1_CSHL.c ****     uint16 CapSense_1_rawFilterData2[CapSense_1_TOTAL_SENSOR_COUNT];
  71:.\Generated_Source\PSoC4/CapSense_1_CSHL.c **** 
  72:.\Generated_Source\PSoC4/CapSense_1_CSHL.c **** #elif ( (CapSense_1_RAW_FILTER_MASK & CapSense_1_IIR2_FILTER)   || \
  73:.\Generated_Source\PSoC4/CapSense_1_CSHL.c ****         (CapSense_1_RAW_FILTER_MASK & CapSense_1_IIR4_FILTER)   || \
  74:.\Generated_Source\PSoC4/CapSense_1_CSHL.c ****         (CapSense_1_RAW_FILTER_MASK & CapSense_1_JITTER_FILTER) || \
  75:.\Generated_Source\PSoC4/CapSense_1_CSHL.c ****         (CapSense_1_RAW_FILTER_MASK & CapSense_1_IIR8_FILTER)   || \
  76:.\Generated_Source\PSoC4/CapSense_1_CSHL.c ****         (CapSense_1_RAW_FILTER_MASK & CapSense_1_IIR16_FILTER) )
  77:.\Generated_Source\PSoC4/CapSense_1_CSHL.c ****         
  78:.\Generated_Source\PSoC4/CapSense_1_CSHL.c ****     uint16 CapSense_1_rawFilterData1[CapSense_1_TOTAL_SENSOR_COUNT];
  79:.\Generated_Source\PSoC4/CapSense_1_CSHL.c **** 
  80:.\Generated_Source\PSoC4/CapSense_1_CSHL.c **** #else
  81:.\Generated_Source\PSoC4/CapSense_1_CSHL.c ****     /* No Raw filters */
  82:.\Generated_Source\PSoC4/CapSense_1_CSHL.c **** #endif  /* ( (CapSense_1_RAW_FILTER_MASK & CapSense_1_MEDIAN_FILTER) || \
  83:.\Generated_Source\PSoC4/CapSense_1_CSHL.c ****         *    (CapSense_1_RAW_FILTER_MASK & CapSense_1_AVERAGING_FILTER) )
  84:.\Generated_Source\PSoC4/CapSense_1_CSHL.c ****         */
  85:.\Generated_Source\PSoC4/CapSense_1_CSHL.c **** 
  86:.\Generated_Source\PSoC4/CapSense_1_CSHL.c **** extern uint16 CapSense_1_SensorRaw[CapSense_1_TOTAL_SENSOR_COUNT];
  87:.\Generated_Source\PSoC4/CapSense_1_CSHL.c **** extern uint8 CapSense_1_SensorEnableMask[(((CapSense_1_TOTAL_SENSOR_COUNT - 1u) / 8u) + 1u)];
  88:.\Generated_Source\PSoC4/CapSense_1_CSHL.c **** extern const uint8 CYCODE CapSense_1_widgetNumber[];
  89:.\Generated_Source\PSoC4/CapSense_1_CSHL.c **** 
  90:.\Generated_Source\PSoC4/CapSense_1_CSHL.c **** uint16 CapSense_1_SensorBaseline[CapSense_1_TOTAL_SENSOR_COUNT] = {0u};
  91:.\Generated_Source\PSoC4/CapSense_1_CSHL.c **** uint8 CapSense_1_SensorBaselineLow[CapSense_1_TOTAL_SENSOR_COUNT] = {0u};
  92:.\Generated_Source\PSoC4/CapSense_1_CSHL.c **** uint8 CapSense_1_SensorSignal[CapSense_1_TOTAL_SENSOR_COUNT] = {0u};
  93:.\Generated_Source\PSoC4/CapSense_1_CSHL.c **** uint8 CapSense_1_SensorOnMask[(((CapSense_1_TOTAL_SENSOR_COUNT - 1u) / 8u) + 1u)] = {0u};
  94:.\Generated_Source\PSoC4/CapSense_1_CSHL.c **** 
  95:.\Generated_Source\PSoC4/CapSense_1_CSHL.c **** uint8 CapSense_1_LowBaselineResetCnt[CapSense_1_TOTAL_SENSOR_COUNT];
ARM GAS  C:\Users\maxk\AppData\Local\Temp\ccw8u2Eq.s 			page 5


  96:.\Generated_Source\PSoC4/CapSense_1_CSHL.c **** 
  97:.\Generated_Source\PSoC4/CapSense_1_CSHL.c **** /* Helps while centroid calulation */
  98:.\Generated_Source\PSoC4/CapSense_1_CSHL.c **** #if (CapSense_1_TOTAL_CENTROIDS_COUNT)
  99:.\Generated_Source\PSoC4/CapSense_1_CSHL.c ****     static uint8 CapSense_1_centroid[3];
 100:.\Generated_Source\PSoC4/CapSense_1_CSHL.c **** #endif  /* (CapSense_1_TOTAL_CENTROIDS_COUNT) */
 101:.\Generated_Source\PSoC4/CapSense_1_CSHL.c **** 
 102:.\Generated_Source\PSoC4/CapSense_1_CSHL.c **** const uint8 CYCODE CapSense_1_fingerThreshold[] = {
 103:.\Generated_Source\PSoC4/CapSense_1_CSHL.c ****     100u, 
 104:.\Generated_Source\PSoC4/CapSense_1_CSHL.c **** };
 105:.\Generated_Source\PSoC4/CapSense_1_CSHL.c **** 
 106:.\Generated_Source\PSoC4/CapSense_1_CSHL.c **** const uint8 CYCODE CapSense_1_noiseThreshold[] = {
 107:.\Generated_Source\PSoC4/CapSense_1_CSHL.c ****     20u, 
 108:.\Generated_Source\PSoC4/CapSense_1_CSHL.c **** };
 109:.\Generated_Source\PSoC4/CapSense_1_CSHL.c **** 
 110:.\Generated_Source\PSoC4/CapSense_1_CSHL.c **** const uint8 CYCODE CapSense_1_hysteresis[] = {
 111:.\Generated_Source\PSoC4/CapSense_1_CSHL.c ****     0u, 
 112:.\Generated_Source\PSoC4/CapSense_1_CSHL.c **** };
 113:.\Generated_Source\PSoC4/CapSense_1_CSHL.c **** 
 114:.\Generated_Source\PSoC4/CapSense_1_CSHL.c **** const uint8 CYCODE CapSense_1_debounce[] = {
 115:.\Generated_Source\PSoC4/CapSense_1_CSHL.c ****     1u, 
 116:.\Generated_Source\PSoC4/CapSense_1_CSHL.c **** };
 117:.\Generated_Source\PSoC4/CapSense_1_CSHL.c **** 
 118:.\Generated_Source\PSoC4/CapSense_1_CSHL.c **** uint8 CapSense_1_debounceCounter[] = {
 119:.\Generated_Source\PSoC4/CapSense_1_CSHL.c ****     0u, 
 120:.\Generated_Source\PSoC4/CapSense_1_CSHL.c **** };
 121:.\Generated_Source\PSoC4/CapSense_1_CSHL.c **** 
 122:.\Generated_Source\PSoC4/CapSense_1_CSHL.c **** const uint8 CYCODE CapSense_1_rawDataIndex[] = {
 123:.\Generated_Source\PSoC4/CapSense_1_CSHL.c ****     0u, /* LinearSlider0__LS */
 124:.\Generated_Source\PSoC4/CapSense_1_CSHL.c **** 
 125:.\Generated_Source\PSoC4/CapSense_1_CSHL.c **** };
 126:.\Generated_Source\PSoC4/CapSense_1_CSHL.c **** 
 127:.\Generated_Source\PSoC4/CapSense_1_CSHL.c **** const uint8 CYCODE CapSense_1_numberOfSensors[] = {
 128:.\Generated_Source\PSoC4/CapSense_1_CSHL.c ****     5u, /* LinearSlider0__LS */
 129:.\Generated_Source\PSoC4/CapSense_1_CSHL.c **** 
 130:.\Generated_Source\PSoC4/CapSense_1_CSHL.c **** };
 131:.\Generated_Source\PSoC4/CapSense_1_CSHL.c **** 
 132:.\Generated_Source\PSoC4/CapSense_1_CSHL.c **** const uint16 CYCODE CapSense_1_centroidMult[] = {
 133:.\Generated_Source\PSoC4/CapSense_1_CSHL.c ****     16320u, 
 134:.\Generated_Source\PSoC4/CapSense_1_CSHL.c **** };
 135:.\Generated_Source\PSoC4/CapSense_1_CSHL.c **** 
 136:.\Generated_Source\PSoC4/CapSense_1_CSHL.c **** const uint8 CYCODE CapSense_1_posFiltersMask[] = {
 137:.\Generated_Source\PSoC4/CapSense_1_CSHL.c ****     0x8u, 
 138:.\Generated_Source\PSoC4/CapSense_1_CSHL.c **** };
 139:.\Generated_Source\PSoC4/CapSense_1_CSHL.c **** 
 140:.\Generated_Source\PSoC4/CapSense_1_CSHL.c **** uint8 CapSense_1_posFiltersData[] = {
 141:.\Generated_Source\PSoC4/CapSense_1_CSHL.c ****     1u, 0u, 0u, 
 142:.\Generated_Source\PSoC4/CapSense_1_CSHL.c **** };
 143:.\Generated_Source\PSoC4/CapSense_1_CSHL.c **** 
 144:.\Generated_Source\PSoC4/CapSense_1_CSHL.c **** 
 145:.\Generated_Source\PSoC4/CapSense_1_CSHL.c **** 
 146:.\Generated_Source\PSoC4/CapSense_1_CSHL.c **** 
 147:.\Generated_Source\PSoC4/CapSense_1_CSHL.c **** /*******************************************************************************
 148:.\Generated_Source\PSoC4/CapSense_1_CSHL.c **** * Function Name: CapSense_1_BaseInit
 149:.\Generated_Source\PSoC4/CapSense_1_CSHL.c **** ********************************************************************************
 150:.\Generated_Source\PSoC4/CapSense_1_CSHL.c **** *
 151:.\Generated_Source\PSoC4/CapSense_1_CSHL.c **** * Summary:
 152:.\Generated_Source\PSoC4/CapSense_1_CSHL.c **** *  Loads the CapSense_1_SensorBaseline[sensor] array element with an 
ARM GAS  C:\Users\maxk\AppData\Local\Temp\ccw8u2Eq.s 			page 6


 153:.\Generated_Source\PSoC4/CapSense_1_CSHL.c **** *  initial value which is equal to raw count value. 
 154:.\Generated_Source\PSoC4/CapSense_1_CSHL.c **** *  Resets to zero CapSense_1_SensorBaselineLow[senesor] and 
 155:.\Generated_Source\PSoC4/CapSense_1_CSHL.c **** *  CapSense_1_SensorSignal[sensor] array element.
 156:.\Generated_Source\PSoC4/CapSense_1_CSHL.c **** *  Loads CapSense_1_debounceCounter[sensor] array element with initial 
 157:.\Generated_Source\PSoC4/CapSense_1_CSHL.c **** *  value equal CapSense_1_debounce[].
 158:.\Generated_Source\PSoC4/CapSense_1_CSHL.c **** *  Loads the CapSense_1_rawFilterData2[sensor] and 
 159:.\Generated_Source\PSoC4/CapSense_1_CSHL.c **** *  CapSense_1_rawFilterData2[sensor] array element with an 
 160:.\Generated_Source\PSoC4/CapSense_1_CSHL.c **** *  initial value which is equal raw count value if raw data filter is enabled.
 161:.\Generated_Source\PSoC4/CapSense_1_CSHL.c **** *
 162:.\Generated_Source\PSoC4/CapSense_1_CSHL.c **** * Parameters:
 163:.\Generated_Source\PSoC4/CapSense_1_CSHL.c **** *  sensor:  Sensor number.
 164:.\Generated_Source\PSoC4/CapSense_1_CSHL.c **** *
 165:.\Generated_Source\PSoC4/CapSense_1_CSHL.c **** * Return:
 166:.\Generated_Source\PSoC4/CapSense_1_CSHL.c **** *  None
 167:.\Generated_Source\PSoC4/CapSense_1_CSHL.c **** *
 168:.\Generated_Source\PSoC4/CapSense_1_CSHL.c **** * Global Variables:
 169:.\Generated_Source\PSoC4/CapSense_1_CSHL.c **** *  CapSense_1_SensorBaseline[]    - used to store baseline value.
 170:.\Generated_Source\PSoC4/CapSense_1_CSHL.c **** *  CapSense_1_SensorBaselineLow[] - used to store fraction byte of 
 171:.\Generated_Source\PSoC4/CapSense_1_CSHL.c **** *  baseline value.
 172:.\Generated_Source\PSoC4/CapSense_1_CSHL.c **** *  CapSense_1_SensorSignal[]      - used to store diffence between 
 173:.\Generated_Source\PSoC4/CapSense_1_CSHL.c **** *  current value of raw data and previous value of baseline.
 174:.\Generated_Source\PSoC4/CapSense_1_CSHL.c **** *  CapSense_1_debounceCounter[]   - used to store current debounce 
 175:.\Generated_Source\PSoC4/CapSense_1_CSHL.c **** *  counter of sensor. Widget which has this parameter are buttons, matrix 
 176:.\Generated_Source\PSoC4/CapSense_1_CSHL.c **** *  buttons, proximity, guard. All other widgets haven't debounce parameter
 177:.\Generated_Source\PSoC4/CapSense_1_CSHL.c **** *  and use the last element of this array with value 0 (it means no debounce).
 178:.\Generated_Source\PSoC4/CapSense_1_CSHL.c **** *  CapSense_1_rawFilterData1[]    - used to store previous sample of 
 179:.\Generated_Source\PSoC4/CapSense_1_CSHL.c **** *  any enabled raw data filter.
 180:.\Generated_Source\PSoC4/CapSense_1_CSHL.c **** *  CapSense_1_rawFilterData2[]    - used to store before previous sample
 181:.\Generated_Source\PSoC4/CapSense_1_CSHL.c **** *  of enabled raw data filter. Only required for median or average filters.
 182:.\Generated_Source\PSoC4/CapSense_1_CSHL.c **** *
 183:.\Generated_Source\PSoC4/CapSense_1_CSHL.c **** * Reentrant:
 184:.\Generated_Source\PSoC4/CapSense_1_CSHL.c **** *  No
 185:.\Generated_Source\PSoC4/CapSense_1_CSHL.c **** *
 186:.\Generated_Source\PSoC4/CapSense_1_CSHL.c **** *******************************************************************************/
 187:.\Generated_Source\PSoC4/CapSense_1_CSHL.c **** void CapSense_1_BaseInit(uint8 sensor)
 188:.\Generated_Source\PSoC4/CapSense_1_CSHL.c **** {
 126              		.loc 1 188 0
 127              		.cfi_startproc
 128 0000 80B5     		push	{r7, lr}
 129              	.LCFI0:
 130              		.cfi_def_cfa_offset 8
 131              		.cfi_offset 7, -8
 132              		.cfi_offset 14, -4
 133 0002 82B0     		sub	sp, sp, #8
 134              	.LCFI1:
 135              		.cfi_def_cfa_offset 16
 136 0004 00AF     		add	r7, sp, #0
 137              	.LCFI2:
 138              		.cfi_def_cfa_register 7
 139 0006 021C     		mov	r2, r0
 140 0008 FB1D     		add	r3, r7, #7
 141 000a 1A70     		strb	r2, [r3]
 189:.\Generated_Source\PSoC4/CapSense_1_CSHL.c ****     #if ((CapSense_1_TOTAL_BUTTONS_COUNT) || (CapSense_1_TOTAL_MATRIX_BUTTONS_COUNT) || \
 190:.\Generated_Source\PSoC4/CapSense_1_CSHL.c ****          (CapSense_1_TOTAL_GENERICS_COUNT))
 191:.\Generated_Source\PSoC4/CapSense_1_CSHL.c ****         uint8 widget = CapSense_1_widgetNumber[sensor];
 192:.\Generated_Source\PSoC4/CapSense_1_CSHL.c ****     #endif /* ((CapSense_1_TOTAL_MATRIX_BUTTONS_COUNT) || (CapSense_1_TOTAL_MATRIX_BUTTONS_COUNT)) 
 193:.\Generated_Source\PSoC4/CapSense_1_CSHL.c ****     
ARM GAS  C:\Users\maxk\AppData\Local\Temp\ccw8u2Eq.s 			page 7


 194:.\Generated_Source\PSoC4/CapSense_1_CSHL.c ****     #if (CapSense_1_TOTAL_MATRIX_BUTTONS_COUNT)
 195:.\Generated_Source\PSoC4/CapSense_1_CSHL.c ****         uint8 debounceIndex;
 196:.\Generated_Source\PSoC4/CapSense_1_CSHL.c ****     #endif  /* (CapSense_1_TOTAL_MATRIX_BUTTONS_COUNT) */
 197:.\Generated_Source\PSoC4/CapSense_1_CSHL.c ****     
 198:.\Generated_Source\PSoC4/CapSense_1_CSHL.c ****     #if (CapSense_1_TOTAL_GENERICS_COUNT)
 199:.\Generated_Source\PSoC4/CapSense_1_CSHL.c ****         /* Exclude generic widget */
 200:.\Generated_Source\PSoC4/CapSense_1_CSHL.c ****         if(widget < CapSense_1_END_OF_WIDGETS_INDEX)
 201:.\Generated_Source\PSoC4/CapSense_1_CSHL.c ****         {
 202:.\Generated_Source\PSoC4/CapSense_1_CSHL.c ****     #endif  /* CapSense_1_TOTAL_GENERICS_COUNT */
 203:.\Generated_Source\PSoC4/CapSense_1_CSHL.c ****     
 204:.\Generated_Source\PSoC4/CapSense_1_CSHL.c ****     /* Initialize Baseline */
 205:.\Generated_Source\PSoC4/CapSense_1_CSHL.c ****     CapSense_1_SensorBaseline[sensor] = CapSense_1_SensorRaw[sensor];
 142              		.loc 1 205 0
 143 000c FB1D     		add	r3, r7, #7
 144 000e 1A78     		ldrb	r2, [r3]
 145 0010 FB1D     		add	r3, r7, #7
 146 0012 1978     		ldrb	r1, [r3]
 147 0014 094B     		ldr	r3, .L3
 148 0016 4900     		lsl	r1, r1, #1
 149 0018 C95A     		ldrh	r1, [r1, r3]
 150 001a 094B     		ldr	r3, .L3+4
 151 001c 5200     		lsl	r2, r2, #1
 152 001e D152     		strh	r1, [r2, r3]
 206:.\Generated_Source\PSoC4/CapSense_1_CSHL.c ****     CapSense_1_SensorBaselineLow[sensor] = 0u;
 153              		.loc 1 206 0
 154 0020 FB1D     		add	r3, r7, #7
 155 0022 1B78     		ldrb	r3, [r3]
 156 0024 074A     		ldr	r2, .L3+8
 157 0026 0021     		mov	r1, #0
 158 0028 D154     		strb	r1, [r2, r3]
 207:.\Generated_Source\PSoC4/CapSense_1_CSHL.c ****     CapSense_1_SensorSignal[sensor] = 0u;
 159              		.loc 1 207 0
 160 002a FB1D     		add	r3, r7, #7
 161 002c 1B78     		ldrb	r3, [r3]
 162 002e 064A     		ldr	r2, .L3+12
 163 0030 0021     		mov	r1, #0
 164 0032 D154     		strb	r1, [r2, r3]
 208:.\Generated_Source\PSoC4/CapSense_1_CSHL.c ****         
 209:.\Generated_Source\PSoC4/CapSense_1_CSHL.c **** 
 210:.\Generated_Source\PSoC4/CapSense_1_CSHL.c ****     
 211:.\Generated_Source\PSoC4/CapSense_1_CSHL.c ****     #if ((CapSense_1_RAW_FILTER_MASK & CapSense_1_MEDIAN_FILTER) ||\
 212:.\Generated_Source\PSoC4/CapSense_1_CSHL.c ****          (CapSense_1_RAW_FILTER_MASK & CapSense_1_AVERAGING_FILTER))
 213:.\Generated_Source\PSoC4/CapSense_1_CSHL.c **** 
 214:.\Generated_Source\PSoC4/CapSense_1_CSHL.c ****         CapSense_1_rawFilterData1[sensor] = CapSense_1_SensorRaw[sensor];
 215:.\Generated_Source\PSoC4/CapSense_1_CSHL.c ****         CapSense_1_rawFilterData2[sensor] = CapSense_1_SensorRaw[sensor];
 216:.\Generated_Source\PSoC4/CapSense_1_CSHL.c ****     
 217:.\Generated_Source\PSoC4/CapSense_1_CSHL.c ****     #elif ((CapSense_1_RAW_FILTER_MASK & CapSense_1_IIR2_FILTER) ||\
 218:.\Generated_Source\PSoC4/CapSense_1_CSHL.c ****            (CapSense_1_RAW_FILTER_MASK & CapSense_1_IIR4_FILTER) ||\
 219:.\Generated_Source\PSoC4/CapSense_1_CSHL.c ****            (CapSense_1_RAW_FILTER_MASK & CapSense_1_JITTER_FILTER) ||\
 220:.\Generated_Source\PSoC4/CapSense_1_CSHL.c ****            (CapSense_1_RAW_FILTER_MASK & CapSense_1_IIR8_FILTER) ||\
 221:.\Generated_Source\PSoC4/CapSense_1_CSHL.c ****            (CapSense_1_RAW_FILTER_MASK & CapSense_1_IIR16_FILTER))
 222:.\Generated_Source\PSoC4/CapSense_1_CSHL.c ****             
 223:.\Generated_Source\PSoC4/CapSense_1_CSHL.c ****         CapSense_1_rawFilterData1[sensor] = CapSense_1_SensorRaw[sensor];
 224:.\Generated_Source\PSoC4/CapSense_1_CSHL.c ****     
 225:.\Generated_Source\PSoC4/CapSense_1_CSHL.c ****     #else
 226:.\Generated_Source\PSoC4/CapSense_1_CSHL.c ****         /* No Raw filters */
 227:.\Generated_Source\PSoC4/CapSense_1_CSHL.c ****     #endif  /* ((CapSense_1_RAW_FILTER_MASK & CapSense_1_MEDIAN_FILTER) || \
ARM GAS  C:\Users\maxk\AppData\Local\Temp\ccw8u2Eq.s 			page 8


 228:.\Generated_Source\PSoC4/CapSense_1_CSHL.c ****             *   (CapSense_1_RAW_FILTER_MASK & CapSense_1_AVERAGING_FILTER))
 229:.\Generated_Source\PSoC4/CapSense_1_CSHL.c ****             */
 230:.\Generated_Source\PSoC4/CapSense_1_CSHL.c ****     
 231:.\Generated_Source\PSoC4/CapSense_1_CSHL.c ****     #if (CapSense_1_TOTAL_GENERICS_COUNT)
 232:.\Generated_Source\PSoC4/CapSense_1_CSHL.c ****         /* Exclude generic widget */
 233:.\Generated_Source\PSoC4/CapSense_1_CSHL.c ****         }
 234:.\Generated_Source\PSoC4/CapSense_1_CSHL.c ****     #endif  /* CapSense_1_TOTAL_GENERICS_COUNT */
 235:.\Generated_Source\PSoC4/CapSense_1_CSHL.c **** }
 165              		.loc 1 235 0
 166 0034 BD46     		mov	sp, r7
 167 0036 02B0     		add	sp, sp, #8
 168              		@ sp needed for prologue
 169 0038 80BD     		pop	{r7, pc}
 170              	.L4:
 171 003a C046     		.align	2
 172              	.L3:
 173 003c 00000000 		.word	CapSense_1_SensorRaw
 174 0040 00000000 		.word	CapSense_1_SensorBaseline
 175 0044 00000000 		.word	CapSense_1_SensorBaselineLow
 176 0048 00000000 		.word	CapSense_1_SensorSignal
 177              		.cfi_endproc
 178              	.LFE0:
 179              		.size	CapSense_1_BaseInit, .-CapSense_1_BaseInit
 180              		.section	.text.CapSense_1_InitializeSensorBaseline,"ax",%progbits
 181              		.align	2
 182              		.global	CapSense_1_InitializeSensorBaseline
 183              		.code	16
 184              		.thumb_func
 185              		.type	CapSense_1_InitializeSensorBaseline, %function
 186              	CapSense_1_InitializeSensorBaseline:
 187              	.LFB1:
 236:.\Generated_Source\PSoC4/CapSense_1_CSHL.c **** 
 237:.\Generated_Source\PSoC4/CapSense_1_CSHL.c **** 
 238:.\Generated_Source\PSoC4/CapSense_1_CSHL.c **** /*******************************************************************************
 239:.\Generated_Source\PSoC4/CapSense_1_CSHL.c **** * Function Name: CapSense_1_InitializeSensorBaseline
 240:.\Generated_Source\PSoC4/CapSense_1_CSHL.c **** ********************************************************************************
 241:.\Generated_Source\PSoC4/CapSense_1_CSHL.c **** *
 242:.\Generated_Source\PSoC4/CapSense_1_CSHL.c **** * Summary:
 243:.\Generated_Source\PSoC4/CapSense_1_CSHL.c **** *  Loads the CapSense_1_SensorBaseline[sensor] array element with an 
 244:.\Generated_Source\PSoC4/CapSense_1_CSHL.c **** *  initial value by scanning the selected sensor (one channel design) or pair 
 245:.\Generated_Source\PSoC4/CapSense_1_CSHL.c **** *  of sensors (two channels designs). The raw count value is copied into the 
 246:.\Generated_Source\PSoC4/CapSense_1_CSHL.c **** *  baseline array for each sensor. The raw data filters are initialized if 
 247:.\Generated_Source\PSoC4/CapSense_1_CSHL.c **** *  enabled.
 248:.\Generated_Source\PSoC4/CapSense_1_CSHL.c **** *
 249:.\Generated_Source\PSoC4/CapSense_1_CSHL.c **** * Parameters:
 250:.\Generated_Source\PSoC4/CapSense_1_CSHL.c **** *  sensor:  Sensor number.
 251:.\Generated_Source\PSoC4/CapSense_1_CSHL.c **** *
 252:.\Generated_Source\PSoC4/CapSense_1_CSHL.c **** * Return:
 253:.\Generated_Source\PSoC4/CapSense_1_CSHL.c **** *  None
 254:.\Generated_Source\PSoC4/CapSense_1_CSHL.c **** *
 255:.\Generated_Source\PSoC4/CapSense_1_CSHL.c **** * Reentrant:
 256:.\Generated_Source\PSoC4/CapSense_1_CSHL.c **** *  No
 257:.\Generated_Source\PSoC4/CapSense_1_CSHL.c **** *
 258:.\Generated_Source\PSoC4/CapSense_1_CSHL.c **** *******************************************************************************/
 259:.\Generated_Source\PSoC4/CapSense_1_CSHL.c **** void CapSense_1_InitializeSensorBaseline(uint8 sensor)
 260:.\Generated_Source\PSoC4/CapSense_1_CSHL.c **** {
 188              		.loc 1 260 0
ARM GAS  C:\Users\maxk\AppData\Local\Temp\ccw8u2Eq.s 			page 9


 189              		.cfi_startproc
 190 0000 80B5     		push	{r7, lr}
 191              	.LCFI3:
 192              		.cfi_def_cfa_offset 8
 193              		.cfi_offset 7, -8
 194              		.cfi_offset 14, -4
 195 0002 82B0     		sub	sp, sp, #8
 196              	.LCFI4:
 197              		.cfi_def_cfa_offset 16
 198 0004 00AF     		add	r7, sp, #0
 199              	.LCFI5:
 200              		.cfi_def_cfa_register 7
 201 0006 021C     		mov	r2, r0
 202 0008 FB1D     		add	r3, r7, #7
 203 000a 1A70     		strb	r2, [r3]
 261:.\Generated_Source\PSoC4/CapSense_1_CSHL.c ****     /* Scan sensor */
 262:.\Generated_Source\PSoC4/CapSense_1_CSHL.c ****     CapSense_1_ScanSensor(sensor);
 204              		.loc 1 262 0
 205 000c FB1D     		add	r3, r7, #7
 206 000e 1B78     		ldrb	r3, [r3]
 207 0010 181C     		mov	r0, r3
 208 0012 FFF7FEFF 		bl	CapSense_1_ScanSensor
 209              	.L6:
 263:.\Generated_Source\PSoC4/CapSense_1_CSHL.c ****     while(CapSense_1_IsBusy() != 0u) {;}
 210              		.loc 1 263 0
 211 0016 FFF7FEFF 		bl	CapSense_1_IsBusy
 212 001a 031C     		mov	r3, r0
 213 001c 002B     		cmp	r3, #0
 214 001e FAD1     		bne	.L6
 264:.\Generated_Source\PSoC4/CapSense_1_CSHL.c ****     
 265:.\Generated_Source\PSoC4/CapSense_1_CSHL.c ****         /* Initialize Baseline, Signal and debounce counters */       
 266:.\Generated_Source\PSoC4/CapSense_1_CSHL.c ****         CapSense_1_BaseInit(sensor);
 215              		.loc 1 266 0
 216 0020 FB1D     		add	r3, r7, #7
 217 0022 1B78     		ldrb	r3, [r3]
 218 0024 181C     		mov	r0, r3
 219 0026 FFF7FEFF 		bl	CapSense_1_BaseInit
 267:.\Generated_Source\PSoC4/CapSense_1_CSHL.c **** }
 220              		.loc 1 267 0
 221 002a BD46     		mov	sp, r7
 222 002c 02B0     		add	sp, sp, #8
 223              		@ sp needed for prologue
 224 002e 80BD     		pop	{r7, pc}
 225              		.cfi_endproc
 226              	.LFE1:
 227              		.size	CapSense_1_InitializeSensorBaseline, .-CapSense_1_InitializeSensorBaseline
 228              		.section	.text.CapSense_1_InitializeAllBaselines,"ax",%progbits
 229              		.align	2
 230              		.global	CapSense_1_InitializeAllBaselines
 231              		.code	16
 232              		.thumb_func
 233              		.type	CapSense_1_InitializeAllBaselines, %function
 234              	CapSense_1_InitializeAllBaselines:
 235              	.LFB2:
 268:.\Generated_Source\PSoC4/CapSense_1_CSHL.c **** 
 269:.\Generated_Source\PSoC4/CapSense_1_CSHL.c **** 
 270:.\Generated_Source\PSoC4/CapSense_1_CSHL.c **** /*******************************************************************************
ARM GAS  C:\Users\maxk\AppData\Local\Temp\ccw8u2Eq.s 			page 10


 271:.\Generated_Source\PSoC4/CapSense_1_CSHL.c **** * Function Name: CapSense_1_InitializeAllBaselines
 272:.\Generated_Source\PSoC4/CapSense_1_CSHL.c **** ********************************************************************************
 273:.\Generated_Source\PSoC4/CapSense_1_CSHL.c **** *
 274:.\Generated_Source\PSoC4/CapSense_1_CSHL.c **** * Summary:
 275:.\Generated_Source\PSoC4/CapSense_1_CSHL.c **** *  Uses the CapSense_1_InitializeSensorBaseline function to loads the 
 276:.\Generated_Source\PSoC4/CapSense_1_CSHL.c **** *  CapSense_1_SensorBaseline[] array with an initial values by scanning 
 277:.\Generated_Source\PSoC4/CapSense_1_CSHL.c **** *  all sensors. The raw count values are copied into the baseline array for 
 278:.\Generated_Source\PSoC4/CapSense_1_CSHL.c **** *  all sensors. The raw data filters are initialized if enabled.
 279:.\Generated_Source\PSoC4/CapSense_1_CSHL.c **** *
 280:.\Generated_Source\PSoC4/CapSense_1_CSHL.c **** * Parameters:
 281:.\Generated_Source\PSoC4/CapSense_1_CSHL.c **** *  None
 282:.\Generated_Source\PSoC4/CapSense_1_CSHL.c **** *
 283:.\Generated_Source\PSoC4/CapSense_1_CSHL.c **** * Return:
 284:.\Generated_Source\PSoC4/CapSense_1_CSHL.c **** *  None
 285:.\Generated_Source\PSoC4/CapSense_1_CSHL.c **** *
 286:.\Generated_Source\PSoC4/CapSense_1_CSHL.c **** * Reentrant:
 287:.\Generated_Source\PSoC4/CapSense_1_CSHL.c **** *  No
 288:.\Generated_Source\PSoC4/CapSense_1_CSHL.c **** *
 289:.\Generated_Source\PSoC4/CapSense_1_CSHL.c **** *******************************************************************************/
 290:.\Generated_Source\PSoC4/CapSense_1_CSHL.c **** void CapSense_1_InitializeAllBaselines(void)
 291:.\Generated_Source\PSoC4/CapSense_1_CSHL.c **** {
 236              		.loc 1 291 0
 237              		.cfi_startproc
 238 0000 80B5     		push	{r7, lr}
 239              	.LCFI6:
 240              		.cfi_def_cfa_offset 8
 241              		.cfi_offset 7, -8
 242              		.cfi_offset 14, -4
 243 0002 82B0     		sub	sp, sp, #8
 244              	.LCFI7:
 245              		.cfi_def_cfa_offset 16
 246 0004 00AF     		add	r7, sp, #0
 247              	.LCFI8:
 248              		.cfi_def_cfa_register 7
 292:.\Generated_Source\PSoC4/CapSense_1_CSHL.c ****     uint8 i;
 293:.\Generated_Source\PSoC4/CapSense_1_CSHL.c ****     
 294:.\Generated_Source\PSoC4/CapSense_1_CSHL.c ****     /* The baseline initialize by sensor of sensor pair */
 295:.\Generated_Source\PSoC4/CapSense_1_CSHL.c ****     for(i = 0u; i < CapSense_1_TOTAL_SCANSLOT_COUNT; i++)
 249              		.loc 1 295 0
 250 0006 FB1D     		add	r3, r7, #7
 251 0008 0022     		mov	r2, #0
 252 000a 1A70     		strb	r2, [r3]
 253 000c 09E0     		b	.L9
 254              	.L10:
 296:.\Generated_Source\PSoC4/CapSense_1_CSHL.c ****     {
 297:.\Generated_Source\PSoC4/CapSense_1_CSHL.c ****         CapSense_1_InitializeSensorBaseline(i);
 255              		.loc 1 297 0
 256 000e FB1D     		add	r3, r7, #7
 257 0010 1B78     		ldrb	r3, [r3]
 258 0012 181C     		mov	r0, r3
 259 0014 FFF7FEFF 		bl	CapSense_1_InitializeSensorBaseline
 260              		.loc 1 295 0
 261 0018 FB1D     		add	r3, r7, #7
 262 001a FA1D     		add	r2, r7, #7
 263 001c 1278     		ldrb	r2, [r2]
 264 001e 0132     		add	r2, r2, #1
 265 0020 1A70     		strb	r2, [r3]
ARM GAS  C:\Users\maxk\AppData\Local\Temp\ccw8u2Eq.s 			page 11


 266              	.L9:
 267 0022 FB1D     		add	r3, r7, #7
 268 0024 1B78     		ldrb	r3, [r3]
 269 0026 042B     		cmp	r3, #4
 270 0028 F1D9     		bls	.L10
 298:.\Generated_Source\PSoC4/CapSense_1_CSHL.c ****     }
 299:.\Generated_Source\PSoC4/CapSense_1_CSHL.c **** }
 271              		.loc 1 299 0
 272 002a BD46     		mov	sp, r7
 273 002c 02B0     		add	sp, sp, #8
 274              		@ sp needed for prologue
 275 002e 80BD     		pop	{r7, pc}
 276              		.cfi_endproc
 277              	.LFE2:
 278              		.size	CapSense_1_InitializeAllBaselines, .-CapSense_1_InitializeAllBaselines
 279              		.section	.text.CapSense_1_InitializeEnabledBaselines,"ax",%progbits
 280              		.align	2
 281              		.global	CapSense_1_InitializeEnabledBaselines
 282              		.code	16
 283              		.thumb_func
 284              		.type	CapSense_1_InitializeEnabledBaselines, %function
 285              	CapSense_1_InitializeEnabledBaselines:
 286              	.LFB3:
 300:.\Generated_Source\PSoC4/CapSense_1_CSHL.c **** 
 301:.\Generated_Source\PSoC4/CapSense_1_CSHL.c **** 
 302:.\Generated_Source\PSoC4/CapSense_1_CSHL.c **** /*******************************************************************************
 303:.\Generated_Source\PSoC4/CapSense_1_CSHL.c **** * Function Name: CapSense_1_InitializeEnabledBaselines
 304:.\Generated_Source\PSoC4/CapSense_1_CSHL.c **** ********************************************************************************
 305:.\Generated_Source\PSoC4/CapSense_1_CSHL.c **** *
 306:.\Generated_Source\PSoC4/CapSense_1_CSHL.c **** * Summary:
 307:.\Generated_Source\PSoC4/CapSense_1_CSHL.c **** *  Scans all enabled widgets and the raw count values are copied into the 
 308:.\Generated_Source\PSoC4/CapSense_1_CSHL.c **** *  baseline array for all sensors enabled in scanning process. Baselines 
 309:.\Generated_Source\PSoC4/CapSense_1_CSHL.c **** *  initialize with zero values for sensors disabled from scanning process. 
 310:.\Generated_Source\PSoC4/CapSense_1_CSHL.c **** *  The raw data filters are initialized if enabled.
 311:.\Generated_Source\PSoC4/CapSense_1_CSHL.c **** *
 312:.\Generated_Source\PSoC4/CapSense_1_CSHL.c **** * Parameters:
 313:.\Generated_Source\PSoC4/CapSense_1_CSHL.c **** *  None
 314:.\Generated_Source\PSoC4/CapSense_1_CSHL.c **** *
 315:.\Generated_Source\PSoC4/CapSense_1_CSHL.c **** * Return:
 316:.\Generated_Source\PSoC4/CapSense_1_CSHL.c **** *  None
 317:.\Generated_Source\PSoC4/CapSense_1_CSHL.c **** *
 318:.\Generated_Source\PSoC4/CapSense_1_CSHL.c **** * Reentrant:
 319:.\Generated_Source\PSoC4/CapSense_1_CSHL.c **** *  No
 320:.\Generated_Source\PSoC4/CapSense_1_CSHL.c **** *
 321:.\Generated_Source\PSoC4/CapSense_1_CSHL.c **** *******************************************************************************/
 322:.\Generated_Source\PSoC4/CapSense_1_CSHL.c **** void CapSense_1_InitializeEnabledBaselines(void)
 323:.\Generated_Source\PSoC4/CapSense_1_CSHL.c **** {
 287              		.loc 1 323 0
 288              		.cfi_startproc
 289 0000 80B5     		push	{r7, lr}
 290              	.LCFI9:
 291              		.cfi_def_cfa_offset 8
 292              		.cfi_offset 7, -8
 293              		.cfi_offset 14, -4
 294 0002 82B0     		sub	sp, sp, #8
 295              	.LCFI10:
 296              		.cfi_def_cfa_offset 16
ARM GAS  C:\Users\maxk\AppData\Local\Temp\ccw8u2Eq.s 			page 12


 297 0004 00AF     		add	r7, sp, #0
 298              	.LCFI11:
 299              		.cfi_def_cfa_register 7
 324:.\Generated_Source\PSoC4/CapSense_1_CSHL.c ****     uint8 i;
 325:.\Generated_Source\PSoC4/CapSense_1_CSHL.c ****     uint8 pos;
 326:.\Generated_Source\PSoC4/CapSense_1_CSHL.c ****     uint8 enMask;
 327:.\Generated_Source\PSoC4/CapSense_1_CSHL.c ****     
 328:.\Generated_Source\PSoC4/CapSense_1_CSHL.c ****     CapSense_1_ScanEnabledWidgets();
 300              		.loc 1 328 0
 301 0006 FFF7FEFF 		bl	CapSense_1_ScanEnabledWidgets
 302              	.L13:
 329:.\Generated_Source\PSoC4/CapSense_1_CSHL.c ****     while(CapSense_1_IsBusy() != 0u){;}
 303              		.loc 1 329 0
 304 000a FFF7FEFF 		bl	CapSense_1_IsBusy
 305 000e 031C     		mov	r3, r0
 306 0010 002B     		cmp	r3, #0
 307 0012 FAD1     		bne	.L13
 330:.\Generated_Source\PSoC4/CapSense_1_CSHL.c ****     
 331:.\Generated_Source\PSoC4/CapSense_1_CSHL.c ****     for(i = 0u; i < CapSense_1_TOTAL_SENSOR_COUNT; i++)
 308              		.loc 1 331 0
 309 0014 7B1D     		add	r3, r7, #5
 310 0016 0022     		mov	r2, #0
 311 0018 1A70     		strb	r2, [r3]
 312 001a 26E0     		b	.L14
 313              	.L16:
 332:.\Generated_Source\PSoC4/CapSense_1_CSHL.c ****     {
 333:.\Generated_Source\PSoC4/CapSense_1_CSHL.c ****         pos = (i >> 3u);
 314              		.loc 1 333 0
 315 001c BB1D     		add	r3, r7, #6
 316 001e 7A1D     		add	r2, r7, #5
 317 0020 1278     		ldrb	r2, [r2]
 318 0022 D208     		lsr	r2, r2, #3
 319 0024 1A70     		strb	r2, [r3]
 334:.\Generated_Source\PSoC4/CapSense_1_CSHL.c ****         enMask = 0x01u << (i & 0x07u);
 320              		.loc 1 334 0
 321 0026 7B1D     		add	r3, r7, #5
 322 0028 1A78     		ldrb	r2, [r3]
 323 002a 0723     		mov	r3, #7
 324 002c 1340     		and	r3, r3, r2
 325 002e 0122     		mov	r2, #1
 326 0030 9A40     		lsl	r2, r2, r3
 327 0032 FB1D     		add	r3, r7, #7
 328 0034 1A70     		strb	r2, [r3]
 335:.\Generated_Source\PSoC4/CapSense_1_CSHL.c ****         
 336:.\Generated_Source\PSoC4/CapSense_1_CSHL.c ****         /* Clear raw data if sensor is disabled from scanning process */
 337:.\Generated_Source\PSoC4/CapSense_1_CSHL.c ****         if((CapSense_1_SensorEnableMask[pos] & enMask) == 0u)
 329              		.loc 1 337 0
 330 0036 BB1D     		add	r3, r7, #6
 331 0038 1B78     		ldrb	r3, [r3]
 332 003a 0F4A     		ldr	r2, .L18
 333 003c D25C     		ldrb	r2, [r2, r3]
 334 003e FB1D     		add	r3, r7, #7
 335 0040 1B78     		ldrb	r3, [r3]
 336 0042 1340     		and	r3, r3, r2
 337 0044 DBB2     		uxtb	r3, r3
 338 0046 002B     		cmp	r3, #0
 339 0048 05D1     		bne	.L15
ARM GAS  C:\Users\maxk\AppData\Local\Temp\ccw8u2Eq.s 			page 13


 338:.\Generated_Source\PSoC4/CapSense_1_CSHL.c ****         {
 339:.\Generated_Source\PSoC4/CapSense_1_CSHL.c ****             CapSense_1_SensorRaw[i] = 0u;
 340              		.loc 1 339 0
 341 004a 7B1D     		add	r3, r7, #5
 342 004c 1A78     		ldrb	r2, [r3]
 343 004e 0B4B     		ldr	r3, .L18+4
 344 0050 5200     		lsl	r2, r2, #1
 345 0052 0021     		mov	r1, #0
 346 0054 D152     		strh	r1, [r2, r3]
 347              	.L15:
 340:.\Generated_Source\PSoC4/CapSense_1_CSHL.c ****         }
 341:.\Generated_Source\PSoC4/CapSense_1_CSHL.c ****         
 342:.\Generated_Source\PSoC4/CapSense_1_CSHL.c ****         /* Initialize baselines */
 343:.\Generated_Source\PSoC4/CapSense_1_CSHL.c ****         CapSense_1_BaseInit(i);
 348              		.loc 1 343 0
 349 0056 7B1D     		add	r3, r7, #5
 350 0058 1B78     		ldrb	r3, [r3]
 351 005a 181C     		mov	r0, r3
 352 005c FFF7FEFF 		bl	CapSense_1_BaseInit
 353              		.loc 1 331 0
 354 0060 7B1D     		add	r3, r7, #5
 355 0062 7A1D     		add	r2, r7, #5
 356 0064 1278     		ldrb	r2, [r2]
 357 0066 0132     		add	r2, r2, #1
 358 0068 1A70     		strb	r2, [r3]
 359              	.L14:
 360 006a 7B1D     		add	r3, r7, #5
 361 006c 1B78     		ldrb	r3, [r3]
 362 006e 042B     		cmp	r3, #4
 363 0070 D4D9     		bls	.L16
 344:.\Generated_Source\PSoC4/CapSense_1_CSHL.c ****     }
 345:.\Generated_Source\PSoC4/CapSense_1_CSHL.c **** }  
 364              		.loc 1 345 0
 365 0072 BD46     		mov	sp, r7
 366 0074 02B0     		add	sp, sp, #8
 367              		@ sp needed for prologue
 368 0076 80BD     		pop	{r7, pc}
 369              	.L19:
 370              		.align	2
 371              	.L18:
 372 0078 00000000 		.word	CapSense_1_SensorEnableMask
 373 007c 00000000 		.word	CapSense_1_SensorRaw
 374              		.cfi_endproc
 375              	.LFE3:
 376              		.size	CapSense_1_InitializeEnabledBaselines, .-CapSense_1_InitializeEnabledBaselines
 377              		.section	.text.CapSense_1_UpdateSensorBaseline,"ax",%progbits
 378              		.align	2
 379              		.global	CapSense_1_UpdateSensorBaseline
 380              		.code	16
 381              		.thumb_func
 382              		.type	CapSense_1_UpdateSensorBaseline, %function
 383              	CapSense_1_UpdateSensorBaseline:
 384              	.LFB4:
 346:.\Generated_Source\PSoC4/CapSense_1_CSHL.c **** 
 347:.\Generated_Source\PSoC4/CapSense_1_CSHL.c **** 
 348:.\Generated_Source\PSoC4/CapSense_1_CSHL.c **** /*******************************************************************************
 349:.\Generated_Source\PSoC4/CapSense_1_CSHL.c **** * Function Name: CapSense_1_UpdateSensorBaseline
ARM GAS  C:\Users\maxk\AppData\Local\Temp\ccw8u2Eq.s 			page 14


 350:.\Generated_Source\PSoC4/CapSense_1_CSHL.c **** ********************************************************************************
 351:.\Generated_Source\PSoC4/CapSense_1_CSHL.c **** *
 352:.\Generated_Source\PSoC4/CapSense_1_CSHL.c **** * Summary:
 353:.\Generated_Source\PSoC4/CapSense_1_CSHL.c **** *  Updates the CapSense_1_SensorBaseline[sensor] array element using the 
 354:.\Generated_Source\PSoC4/CapSense_1_CSHL.c **** *  LP filter with k = 256. The signal calculates the difference of count by 
 355:.\Generated_Source\PSoC4/CapSense_1_CSHL.c **** *  subtracting the previous baseline from the current raw count value and stores
 356:.\Generated_Source\PSoC4/CapSense_1_CSHL.c **** *  it in CapSense_1_SensorSignal[sensor]. 
 357:.\Generated_Source\PSoC4/CapSense_1_CSHL.c **** *  If auto reset option is enabled the baseline updated regards noise threshold. 
 358:.\Generated_Source\PSoC4/CapSense_1_CSHL.c **** *  If auto reset option is disabled the baseline stops updating if signal is 
 359:.\Generated_Source\PSoC4/CapSense_1_CSHL.c **** *  greater that zero and baseline loads with raw count value if signal is less 
 360:.\Generated_Source\PSoC4/CapSense_1_CSHL.c **** *  that noise threshold.
 361:.\Generated_Source\PSoC4/CapSense_1_CSHL.c **** *  Raw data filters are applied to the values if enabled before baseline 
 362:.\Generated_Source\PSoC4/CapSense_1_CSHL.c **** *  calculation.
 363:.\Generated_Source\PSoC4/CapSense_1_CSHL.c **** *
 364:.\Generated_Source\PSoC4/CapSense_1_CSHL.c **** * Parameters:
 365:.\Generated_Source\PSoC4/CapSense_1_CSHL.c **** *  sensor:  Sensor number.
 366:.\Generated_Source\PSoC4/CapSense_1_CSHL.c **** *
 367:.\Generated_Source\PSoC4/CapSense_1_CSHL.c **** * Return:
 368:.\Generated_Source\PSoC4/CapSense_1_CSHL.c **** *  None
 369:.\Generated_Source\PSoC4/CapSense_1_CSHL.c **** *
 370:.\Generated_Source\PSoC4/CapSense_1_CSHL.c **** * Global Variables:
 371:.\Generated_Source\PSoC4/CapSense_1_CSHL.c **** *  CapSense_1_SensorBaseline[]    - used to store baseline value.
 372:.\Generated_Source\PSoC4/CapSense_1_CSHL.c **** *  CapSense_1_SensorBaselineLow[] - used to store fraction byte of 
 373:.\Generated_Source\PSoC4/CapSense_1_CSHL.c **** *  baseline value.
 374:.\Generated_Source\PSoC4/CapSense_1_CSHL.c **** *  CapSense_1_SensorSignal[]      - used to store diffence between 
 375:.\Generated_Source\PSoC4/CapSense_1_CSHL.c **** *  current value of raw data and previous value of baseline.
 376:.\Generated_Source\PSoC4/CapSense_1_CSHL.c **** *  CapSense_1_rawFilterData1[]    - used to store previous sample of 
 377:.\Generated_Source\PSoC4/CapSense_1_CSHL.c **** *  any enabled raw data filter.
 378:.\Generated_Source\PSoC4/CapSense_1_CSHL.c **** *  CapSense_1_rawFilterData2[]    - used to store before previous sample
 379:.\Generated_Source\PSoC4/CapSense_1_CSHL.c **** *  of enabled raw data filter. Only required for median or average filters.
 380:.\Generated_Source\PSoC4/CapSense_1_CSHL.c **** *
 381:.\Generated_Source\PSoC4/CapSense_1_CSHL.c **** * Reentrant:
 382:.\Generated_Source\PSoC4/CapSense_1_CSHL.c **** *  No
 383:.\Generated_Source\PSoC4/CapSense_1_CSHL.c **** *
 384:.\Generated_Source\PSoC4/CapSense_1_CSHL.c **** *******************************************************************************/
 385:.\Generated_Source\PSoC4/CapSense_1_CSHL.c ****  void CapSense_1_UpdateSensorBaseline(uint8 sensor)
 386:.\Generated_Source\PSoC4/CapSense_1_CSHL.c **** {
 385              		.loc 1 386 0
 386              		.cfi_startproc
 387 0000 80B5     		push	{r7, lr}
 388              	.LCFI12:
 389              		.cfi_def_cfa_offset 8
 390              		.cfi_offset 7, -8
 391              		.cfi_offset 14, -4
 392 0002 86B0     		sub	sp, sp, #24
 393              	.LCFI13:
 394              		.cfi_def_cfa_offset 32
 395 0004 00AF     		add	r7, sp, #0
 396              	.LCFI14:
 397              		.cfi_def_cfa_register 7
 398 0006 021C     		mov	r2, r0
 399 0008 FB1D     		add	r3, r7, #7
 400 000a 1A70     		strb	r2, [r3]
 387:.\Generated_Source\PSoC4/CapSense_1_CSHL.c ****     uint32 calc;
 388:.\Generated_Source\PSoC4/CapSense_1_CSHL.c ****     uint16 tempRaw;
 389:.\Generated_Source\PSoC4/CapSense_1_CSHL.c ****     uint16 filteredRawData;
 390:.\Generated_Source\PSoC4/CapSense_1_CSHL.c ****     uint8 widget = CapSense_1_widgetNumber[sensor];
ARM GAS  C:\Users\maxk\AppData\Local\Temp\ccw8u2Eq.s 			page 15


 401              		.loc 1 390 0
 402 000c FB1D     		add	r3, r7, #7
 403 000e 1A78     		ldrb	r2, [r3]
 404 0010 3B1C     		mov	r3, r7
 405 0012 1633     		add	r3, r3, #22
 406 0014 6649     		ldr	r1, .L33
 407 0016 8A5C     		ldrb	r2, [r1, r2]
 408 0018 1A70     		strb	r2, [r3]
 391:.\Generated_Source\PSoC4/CapSense_1_CSHL.c ****     uint8 noiseThreshold = CapSense_1_noiseThreshold[widget];
 409              		.loc 1 391 0
 410 001a 3B1C     		mov	r3, r7
 411 001c 1633     		add	r3, r3, #22
 412 001e 1A78     		ldrb	r2, [r3]
 413 0020 3B1C     		mov	r3, r7
 414 0022 1733     		add	r3, r3, #23
 415 0024 6349     		ldr	r1, .L33+4
 416 0026 8A5C     		ldrb	r2, [r1, r2]
 417 0028 1A70     		strb	r2, [r3]
 392:.\Generated_Source\PSoC4/CapSense_1_CSHL.c ****     
 393:.\Generated_Source\PSoC4/CapSense_1_CSHL.c ****     #if (CapSense_1_TOTAL_GENERICS_COUNT)
 394:.\Generated_Source\PSoC4/CapSense_1_CSHL.c ****         /* Exclude generic widget */
 395:.\Generated_Source\PSoC4/CapSense_1_CSHL.c ****         if(widget < CapSense_1_END_OF_WIDGETS_INDEX)
 396:.\Generated_Source\PSoC4/CapSense_1_CSHL.c ****         {
 397:.\Generated_Source\PSoC4/CapSense_1_CSHL.c ****     #endif  /* CapSense_1_TOTAL_GENERICS_COUNT */
 398:.\Generated_Source\PSoC4/CapSense_1_CSHL.c ****     
 399:.\Generated_Source\PSoC4/CapSense_1_CSHL.c ****     filteredRawData = CapSense_1_SensorRaw[sensor];
 418              		.loc 1 399 0
 419 002a FB1D     		add	r3, r7, #7
 420 002c 1978     		ldrb	r1, [r3]
 421 002e 3B1C     		mov	r3, r7
 422 0030 1433     		add	r3, r3, #20
 423 0032 614A     		ldr	r2, .L33+8
 424 0034 4900     		lsl	r1, r1, #1
 425 0036 8A5A     		ldrh	r2, [r1, r2]
 426 0038 1A80     		strh	r2, [r3]
 400:.\Generated_Source\PSoC4/CapSense_1_CSHL.c ****     
 401:.\Generated_Source\PSoC4/CapSense_1_CSHL.c ****     #if (CapSense_1_RAW_FILTER_MASK & CapSense_1_MEDIAN_FILTER)
 402:.\Generated_Source\PSoC4/CapSense_1_CSHL.c ****         tempRaw = filteredRawData;
 403:.\Generated_Source\PSoC4/CapSense_1_CSHL.c ****         filteredRawData = CapSense_1_MedianFilter(filteredRawData, CapSense_1_rawFilterData1[sensor
 404:.\Generated_Source\PSoC4/CapSense_1_CSHL.c ****                                                         CapSense_1_rawFilterData2[sensor]);
 405:.\Generated_Source\PSoC4/CapSense_1_CSHL.c ****         CapSense_1_rawFilterData2[sensor] = CapSense_1_rawFilterData1[sensor];
 406:.\Generated_Source\PSoC4/CapSense_1_CSHL.c ****         CapSense_1_rawFilterData1[sensor] = tempRaw;
 407:.\Generated_Source\PSoC4/CapSense_1_CSHL.c ****         
 408:.\Generated_Source\PSoC4/CapSense_1_CSHL.c ****     #elif (CapSense_1_RAW_FILTER_MASK & CapSense_1_AVERAGING_FILTER)
 409:.\Generated_Source\PSoC4/CapSense_1_CSHL.c ****         tempRaw = filteredRawData;
 410:.\Generated_Source\PSoC4/CapSense_1_CSHL.c ****         filteredRawData = CapSense_1_AveragingFilter(filteredRawData, CapSense_1_rawFilterData1[sen
 411:.\Generated_Source\PSoC4/CapSense_1_CSHL.c ****                                                            CapSense_1_rawFilterData2[sensor]);
 412:.\Generated_Source\PSoC4/CapSense_1_CSHL.c ****         CapSense_1_rawFilterData2[sensor] = CapSense_1_rawFilterData1[sensor];
 413:.\Generated_Source\PSoC4/CapSense_1_CSHL.c ****         CapSense_1_rawFilterData1[sensor] = tempRaw;
 414:.\Generated_Source\PSoC4/CapSense_1_CSHL.c ****         
 415:.\Generated_Source\PSoC4/CapSense_1_CSHL.c ****     #elif (CapSense_1_RAW_FILTER_MASK & CapSense_1_IIR2_FILTER)
 416:.\Generated_Source\PSoC4/CapSense_1_CSHL.c ****         filteredRawData = CapSense_1_IIR2Filter(filteredRawData, CapSense_1_rawFilterData1[sensor])
 417:.\Generated_Source\PSoC4/CapSense_1_CSHL.c ****         CapSense_1_rawFilterData1[sensor] = filteredRawData;
 418:.\Generated_Source\PSoC4/CapSense_1_CSHL.c ****         
 419:.\Generated_Source\PSoC4/CapSense_1_CSHL.c ****     #elif (CapSense_1_RAW_FILTER_MASK & CapSense_1_IIR4_FILTER)
 420:.\Generated_Source\PSoC4/CapSense_1_CSHL.c ****         filteredRawData = CapSense_1_IIR4Filter(filteredRawData, CapSense_1_rawFilterData1[sensor])
 421:.\Generated_Source\PSoC4/CapSense_1_CSHL.c ****         CapSense_1_rawFilterData1[sensor] = filteredRawData;
ARM GAS  C:\Users\maxk\AppData\Local\Temp\ccw8u2Eq.s 			page 16


 422:.\Generated_Source\PSoC4/CapSense_1_CSHL.c ****             
 423:.\Generated_Source\PSoC4/CapSense_1_CSHL.c ****     #elif (CapSense_1_RAW_FILTER_MASK & CapSense_1_JITTER_FILTER)
 424:.\Generated_Source\PSoC4/CapSense_1_CSHL.c ****         filteredRawData = CapSense_1_JitterFilter(filteredRawData, CapSense_1_rawFilterData1[sensor
 425:.\Generated_Source\PSoC4/CapSense_1_CSHL.c ****         CapSense_1_rawFilterData1[sensor] = filteredRawData;
 426:.\Generated_Source\PSoC4/CapSense_1_CSHL.c ****         
 427:.\Generated_Source\PSoC4/CapSense_1_CSHL.c ****     #elif (CapSense_1_RAW_FILTER_MASK & CapSense_1_IIR8_FILTER)
 428:.\Generated_Source\PSoC4/CapSense_1_CSHL.c ****         filteredRawData = CapSense_1_IIR8Filter(filteredRawData, CapSense_1_rawFilterData1[sensor])
 429:.\Generated_Source\PSoC4/CapSense_1_CSHL.c ****         CapSense_1_rawFilterData1[sensor] = filteredRawData;
 430:.\Generated_Source\PSoC4/CapSense_1_CSHL.c ****         
 431:.\Generated_Source\PSoC4/CapSense_1_CSHL.c ****     #elif (CapSense_1_RAW_FILTER_MASK & CapSense_1_IIR16_FILTER)
 432:.\Generated_Source\PSoC4/CapSense_1_CSHL.c ****         filteredRawData = CapSense_1_IIR16Filter(filteredRawData, CapSense_1_rawFilterData1[sensor]
 433:.\Generated_Source\PSoC4/CapSense_1_CSHL.c ****         CapSense_1_rawFilterData1[sensor] = filteredRawData;
 434:.\Generated_Source\PSoC4/CapSense_1_CSHL.c ****         
 435:.\Generated_Source\PSoC4/CapSense_1_CSHL.c ****     #else
 436:.\Generated_Source\PSoC4/CapSense_1_CSHL.c ****         /* No Raw filters */
 437:.\Generated_Source\PSoC4/CapSense_1_CSHL.c ****     #endif  /* (CapSense_1_RAW_FILTER_MASK & CapSense_1_MEDIAN_FILTER) */
 438:.\Generated_Source\PSoC4/CapSense_1_CSHL.c ****     
 439:.\Generated_Source\PSoC4/CapSense_1_CSHL.c ****     #if (CapSense_1_TUNING_METHOD == CapSense_1_AUTO_TUNING)
 440:.\Generated_Source\PSoC4/CapSense_1_CSHL.c ****         CapSense_1_CalculateThresholds(sensor);
 441:.\Generated_Source\PSoC4/CapSense_1_CSHL.c ****     #endif /* (CapSense_1_TUNING_METHOD == CapSense_1_AUTO_TUNING) */
 442:.\Generated_Source\PSoC4/CapSense_1_CSHL.c **** 
 443:.\Generated_Source\PSoC4/CapSense_1_CSHL.c **** 
 444:.\Generated_Source\PSoC4/CapSense_1_CSHL.c ****     /* Baseline calculation */
 445:.\Generated_Source\PSoC4/CapSense_1_CSHL.c ****     /* Calculate difference RawData[cur] - Baseline[prev] */
 446:.\Generated_Source\PSoC4/CapSense_1_CSHL.c ****     if(filteredRawData >= CapSense_1_SensorBaseline[sensor])
 427              		.loc 1 446 0
 428 003a FB1D     		add	r3, r7, #7
 429 003c 1A78     		ldrb	r2, [r3]
 430 003e 5F4B     		ldr	r3, .L33+12
 431 0040 5200     		lsl	r2, r2, #1
 432 0042 D35A     		ldrh	r3, [r2, r3]
 433 0044 3A1C     		mov	r2, r7
 434 0046 1432     		add	r2, r2, #20
 435 0048 1288     		ldrh	r2, [r2]
 436 004a 9A42     		cmp	r2, r3
 437 004c 10D3     		bcc	.L21
 447:.\Generated_Source\PSoC4/CapSense_1_CSHL.c ****     {
 448:.\Generated_Source\PSoC4/CapSense_1_CSHL.c ****         tempRaw = filteredRawData - CapSense_1_SensorBaseline[sensor];
 438              		.loc 1 448 0
 439 004e FB1D     		add	r3, r7, #7
 440 0050 1A78     		ldrb	r2, [r3]
 441 0052 5A4B     		ldr	r3, .L33+12
 442 0054 5200     		lsl	r2, r2, #1
 443 0056 D25A     		ldrh	r2, [r2, r3]
 444 0058 3B1C     		mov	r3, r7
 445 005a 1233     		add	r3, r3, #18
 446 005c 391C     		mov	r1, r7
 447 005e 1431     		add	r1, r1, #20
 448 0060 0988     		ldrh	r1, [r1]
 449 0062 8A1A     		sub	r2, r1, r2
 450 0064 1A80     		strh	r2, [r3]
 449:.\Generated_Source\PSoC4/CapSense_1_CSHL.c ****         widget = 1u;    /* Positive difference - Calculate the Signal */
 451              		.loc 1 449 0
 452 0066 3B1C     		mov	r3, r7
 453 0068 1633     		add	r3, r3, #22
 454 006a 0122     		mov	r2, #1
 455 006c 1A70     		strb	r2, [r3]
ARM GAS  C:\Users\maxk\AppData\Local\Temp\ccw8u2Eq.s 			page 17


 456 006e 0FE0     		b	.L22
 457              	.L21:
 450:.\Generated_Source\PSoC4/CapSense_1_CSHL.c ****     }
 451:.\Generated_Source\PSoC4/CapSense_1_CSHL.c ****     else
 452:.\Generated_Source\PSoC4/CapSense_1_CSHL.c ****     {
 453:.\Generated_Source\PSoC4/CapSense_1_CSHL.c ****         tempRaw = CapSense_1_SensorBaseline[sensor] - filteredRawData;
 458              		.loc 1 453 0
 459 0070 FB1D     		add	r3, r7, #7
 460 0072 1A78     		ldrb	r2, [r3]
 461 0074 514B     		ldr	r3, .L33+12
 462 0076 5200     		lsl	r2, r2, #1
 463 0078 D15A     		ldrh	r1, [r2, r3]
 464 007a 3B1C     		mov	r3, r7
 465 007c 1233     		add	r3, r3, #18
 466 007e 3A1C     		mov	r2, r7
 467 0080 1432     		add	r2, r2, #20
 468 0082 1288     		ldrh	r2, [r2]
 469 0084 8A1A     		sub	r2, r1, r2
 470 0086 1A80     		strh	r2, [r3]
 454:.\Generated_Source\PSoC4/CapSense_1_CSHL.c ****         widget = 0u;    /* Negative difference - Do NOT calculate the Signal */
 471              		.loc 1 454 0
 472 0088 3B1C     		mov	r3, r7
 473 008a 1633     		add	r3, r3, #22
 474 008c 0022     		mov	r2, #0
 475 008e 1A70     		strb	r2, [r3]
 476              	.L22:
 455:.\Generated_Source\PSoC4/CapSense_1_CSHL.c ****     }
 456:.\Generated_Source\PSoC4/CapSense_1_CSHL.c **** 
 457:.\Generated_Source\PSoC4/CapSense_1_CSHL.c ****     if((widget == 0u) && (tempRaw > (uint16) CapSense_1_NEGATIVE_NOISE_THRESHOLD))
 477              		.loc 1 457 0
 478 0090 3B1C     		mov	r3, r7
 479 0092 1633     		add	r3, r3, #22
 480 0094 1B78     		ldrb	r3, [r3]
 481 0096 002B     		cmp	r3, #0
 482 0098 1ED1     		bne	.L23
 483 009a 3B1C     		mov	r3, r7
 484 009c 1233     		add	r3, r3, #18
 485 009e 1B88     		ldrh	r3, [r3]
 486 00a0 142B     		cmp	r3, #20
 487 00a2 19D9     		bls	.L23
 458:.\Generated_Source\PSoC4/CapSense_1_CSHL.c ****     {
 459:.\Generated_Source\PSoC4/CapSense_1_CSHL.c ****         if(CapSense_1_LowBaselineResetCnt[sensor] >= CapSense_1_LOW_BASELINE_RESET)
 488              		.loc 1 459 0
 489 00a4 FB1D     		add	r3, r7, #7
 490 00a6 1B78     		ldrb	r3, [r3]
 491 00a8 454A     		ldr	r2, .L33+16
 492 00aa D35C     		ldrb	r3, [r2, r3]
 493 00ac 042B     		cmp	r3, #4
 494 00ae 0AD9     		bls	.L24
 460:.\Generated_Source\PSoC4/CapSense_1_CSHL.c ****         {
 461:.\Generated_Source\PSoC4/CapSense_1_CSHL.c ****             CapSense_1_BaseInit(sensor);
 495              		.loc 1 461 0
 496 00b0 FB1D     		add	r3, r7, #7
 497 00b2 1B78     		ldrb	r3, [r3]
 498 00b4 181C     		mov	r0, r3
 499 00b6 FFF7FEFF 		bl	CapSense_1_BaseInit
 462:.\Generated_Source\PSoC4/CapSense_1_CSHL.c ****             CapSense_1_LowBaselineResetCnt[sensor] = 0;
ARM GAS  C:\Users\maxk\AppData\Local\Temp\ccw8u2Eq.s 			page 18


 500              		.loc 1 462 0
 501 00ba FB1D     		add	r3, r7, #7
 502 00bc 1B78     		ldrb	r3, [r3]
 503 00be 404A     		ldr	r2, .L33+16
 504 00c0 0021     		mov	r1, #0
 505 00c2 D154     		strb	r1, [r2, r3]
 506              		.loc 1 457 0
 507 00c4 49E0     		b	.L26
 508              	.L24:
 463:.\Generated_Source\PSoC4/CapSense_1_CSHL.c ****         }
 464:.\Generated_Source\PSoC4/CapSense_1_CSHL.c ****         else
 465:.\Generated_Source\PSoC4/CapSense_1_CSHL.c ****         {
 466:.\Generated_Source\PSoC4/CapSense_1_CSHL.c ****             CapSense_1_LowBaselineResetCnt[sensor]++;
 509              		.loc 1 466 0
 510 00c6 FB1D     		add	r3, r7, #7
 511 00c8 1B78     		ldrb	r3, [r3]
 512 00ca 3D4A     		ldr	r2, .L33+16
 513 00cc D25C     		ldrb	r2, [r2, r3]
 514 00ce 0132     		add	r2, r2, #1
 515 00d0 D1B2     		uxtb	r1, r2
 516 00d2 3B4A     		ldr	r2, .L33+16
 517 00d4 D154     		strb	r1, [r2, r3]
 518              		.loc 1 457 0
 519 00d6 40E0     		b	.L26
 520              	.L23:
 467:.\Generated_Source\PSoC4/CapSense_1_CSHL.c ****         }
 468:.\Generated_Source\PSoC4/CapSense_1_CSHL.c ****     }
 469:.\Generated_Source\PSoC4/CapSense_1_CSHL.c ****     else
 470:.\Generated_Source\PSoC4/CapSense_1_CSHL.c ****     {
 471:.\Generated_Source\PSoC4/CapSense_1_CSHL.c ****         #if (CapSense_1_AUTO_RESET == CapSense_1_AUTO_RESET_DISABLE)
 472:.\Generated_Source\PSoC4/CapSense_1_CSHL.c ****             /* Update Baseline if lower that noiseThreshold */
 473:.\Generated_Source\PSoC4/CapSense_1_CSHL.c ****             if ( (tempRaw <= (uint16) noiseThreshold) || 
 521              		.loc 1 473 0
 522 00d8 3B1C     		mov	r3, r7
 523 00da 1733     		add	r3, r3, #23
 524 00dc 1B78     		ldrb	r3, [r3]
 525 00de 3A1C     		mov	r2, r7
 526 00e0 1232     		add	r2, r2, #18
 527 00e2 1288     		ldrh	r2, [r2]
 528 00e4 9A42     		cmp	r2, r3
 529 00e6 09D9     		bls	.L27
 530 00e8 3B1C     		mov	r3, r7
 531 00ea 1233     		add	r3, r3, #18
 532 00ec 1B88     		ldrh	r3, [r3]
 533 00ee 132B     		cmp	r3, #19
 534 00f0 33D8     		bhi	.L26
 535 00f2 3B1C     		mov	r3, r7
 536 00f4 1633     		add	r3, r3, #22
 537 00f6 1B78     		ldrb	r3, [r3]
 538 00f8 002B     		cmp	r3, #0
 539 00fa 2ED1     		bne	.L26
 540              	.L27:
 474:.\Generated_Source\PSoC4/CapSense_1_CSHL.c ****                  ((tempRaw < (uint16) CapSense_1_NEGATIVE_NOISE_THRESHOLD)
 475:.\Generated_Source\PSoC4/CapSense_1_CSHL.c ****                    && widget == 0))
 476:.\Generated_Source\PSoC4/CapSense_1_CSHL.c ****             {
 477:.\Generated_Source\PSoC4/CapSense_1_CSHL.c ****         #endif /* (CapSense_1_AUTO_RESET == CapSense_1_AUTO_RESET_DISABLE) */
 478:.\Generated_Source\PSoC4/CapSense_1_CSHL.c ****                 /* Make full Baseline 23 bits */
ARM GAS  C:\Users\maxk\AppData\Local\Temp\ccw8u2Eq.s 			page 19


 479:.\Generated_Source\PSoC4/CapSense_1_CSHL.c ****                 calc = (uint32) CapSense_1_SensorBaseline[sensor] << 8u;
 541              		.loc 1 479 0
 542 00fc FB1D     		add	r3, r7, #7
 543 00fe 1A78     		ldrb	r2, [r3]
 544 0100 2E4B     		ldr	r3, .L33+12
 545 0102 5200     		lsl	r2, r2, #1
 546 0104 D35A     		ldrh	r3, [r2, r3]
 547 0106 1B02     		lsl	r3, r3, #8
 548 0108 FB60     		str	r3, [r7, #12]
 480:.\Generated_Source\PSoC4/CapSense_1_CSHL.c ****                 calc |= (uint32) CapSense_1_SensorBaselineLow[sensor];
 549              		.loc 1 480 0
 550 010a FB1D     		add	r3, r7, #7
 551 010c 1B78     		ldrb	r3, [r3]
 552 010e 2D4A     		ldr	r2, .L33+20
 553 0110 D35C     		ldrb	r3, [r2, r3]
 554 0112 FA68     		ldr	r2, [r7, #12]
 555 0114 1343     		orr	r3, r3, r2
 556 0116 FB60     		str	r3, [r7, #12]
 481:.\Generated_Source\PSoC4/CapSense_1_CSHL.c **** 
 482:.\Generated_Source\PSoC4/CapSense_1_CSHL.c ****                 /* Add Raw Data to Baseline */
 483:.\Generated_Source\PSoC4/CapSense_1_CSHL.c ****                 calc += filteredRawData;
 557              		.loc 1 483 0
 558 0118 3B1C     		mov	r3, r7
 559 011a 1433     		add	r3, r3, #20
 560 011c 1B88     		ldrh	r3, [r3]
 561 011e FA68     		ldr	r2, [r7, #12]
 562 0120 D318     		add	r3, r2, r3
 563 0122 FB60     		str	r3, [r7, #12]
 484:.\Generated_Source\PSoC4/CapSense_1_CSHL.c **** 
 485:.\Generated_Source\PSoC4/CapSense_1_CSHL.c ****                 /* Sub the high Baseline */
 486:.\Generated_Source\PSoC4/CapSense_1_CSHL.c ****                 calc -= CapSense_1_SensorBaseline[sensor];
 564              		.loc 1 486 0
 565 0124 FB1D     		add	r3, r7, #7
 566 0126 1A78     		ldrb	r2, [r3]
 567 0128 244B     		ldr	r3, .L33+12
 568 012a 5200     		lsl	r2, r2, #1
 569 012c D35A     		ldrh	r3, [r2, r3]
 570 012e FA68     		ldr	r2, [r7, #12]
 571 0130 D31A     		sub	r3, r2, r3
 572 0132 FB60     		str	r3, [r7, #12]
 487:.\Generated_Source\PSoC4/CapSense_1_CSHL.c **** 
 488:.\Generated_Source\PSoC4/CapSense_1_CSHL.c ****                 /* Put Baseline and BaselineLow */
 489:.\Generated_Source\PSoC4/CapSense_1_CSHL.c ****                 CapSense_1_SensorBaseline[sensor] = ((uint16) (calc >> 8u));
 573              		.loc 1 489 0
 574 0134 FB1D     		add	r3, r7, #7
 575 0136 1A78     		ldrb	r2, [r3]
 576 0138 FB68     		ldr	r3, [r7, #12]
 577 013a 1B0A     		lsr	r3, r3, #8
 578 013c 99B2     		uxth	r1, r3
 579 013e 1F4B     		ldr	r3, .L33+12
 580 0140 5200     		lsl	r2, r2, #1
 581 0142 D152     		strh	r1, [r2, r3]
 490:.\Generated_Source\PSoC4/CapSense_1_CSHL.c ****                 CapSense_1_SensorBaselineLow[sensor] = ((uint8) calc);
 582              		.loc 1 490 0
 583 0144 FB1D     		add	r3, r7, #7
 584 0146 1B78     		ldrb	r3, [r3]
 585 0148 FA68     		ldr	r2, [r7, #12]
ARM GAS  C:\Users\maxk\AppData\Local\Temp\ccw8u2Eq.s 			page 20


 586 014a D1B2     		uxtb	r1, r2
 587 014c 1D4A     		ldr	r2, .L33+20
 588 014e D154     		strb	r1, [r2, r3]
 491:.\Generated_Source\PSoC4/CapSense_1_CSHL.c **** 
 492:.\Generated_Source\PSoC4/CapSense_1_CSHL.c ****                 CapSense_1_LowBaselineResetCnt[sensor] = 0;
 589              		.loc 1 492 0
 590 0150 FB1D     		add	r3, r7, #7
 591 0152 1B78     		ldrb	r3, [r3]
 592 0154 1A4A     		ldr	r2, .L33+16
 593 0156 0021     		mov	r1, #0
 594 0158 D154     		strb	r1, [r2, r3]
 595              	.L26:
 493:.\Generated_Source\PSoC4/CapSense_1_CSHL.c ****         #if (CapSense_1_AUTO_RESET == CapSense_1_AUTO_RESET_DISABLE)
 494:.\Generated_Source\PSoC4/CapSense_1_CSHL.c ****             }
 495:.\Generated_Source\PSoC4/CapSense_1_CSHL.c ****         #endif /* (CapSense_1_AUTO_RESET == CapSense_1_AUTO_RESET_DISABLE) */
 496:.\Generated_Source\PSoC4/CapSense_1_CSHL.c ****     }
 497:.\Generated_Source\PSoC4/CapSense_1_CSHL.c **** 
 498:.\Generated_Source\PSoC4/CapSense_1_CSHL.c ****     /* Calculate Signal if possitive difference > noiseThreshold */
 499:.\Generated_Source\PSoC4/CapSense_1_CSHL.c ****     if((tempRaw > (uint16) noiseThreshold) && (widget != 0u))
 596              		.loc 1 499 0
 597 015a 3B1C     		mov	r3, r7
 598 015c 1733     		add	r3, r3, #23
 599 015e 1B78     		ldrb	r3, [r3]
 600 0160 3A1C     		mov	r2, r7
 601 0162 1232     		add	r2, r2, #18
 602 0164 1288     		ldrh	r2, [r2]
 603 0166 9A42     		cmp	r2, r3
 604 0168 19D9     		bls	.L28
 605 016a 3B1C     		mov	r3, r7
 606 016c 1633     		add	r3, r3, #22
 607 016e 1B78     		ldrb	r3, [r3]
 608 0170 002B     		cmp	r3, #0
 609 0172 14D0     		beq	.L28
 500:.\Generated_Source\PSoC4/CapSense_1_CSHL.c ****     {
 501:.\Generated_Source\PSoC4/CapSense_1_CSHL.c ****         #if (CapSense_1_SIGNAL_SIZE == CapSense_1_SIGNAL_SIZE_UINT8)
 502:.\Generated_Source\PSoC4/CapSense_1_CSHL.c ****             /* Over flow defence for uint8 */
 503:.\Generated_Source\PSoC4/CapSense_1_CSHL.c ****             if (tempRaw > 0xFFu)
 610              		.loc 1 503 0
 611 0174 3B1C     		mov	r3, r7
 612 0176 1233     		add	r3, r3, #18
 613 0178 1B88     		ldrh	r3, [r3]
 614 017a FF2B     		cmp	r3, #255
 615 017c 06D9     		bls	.L29
 504:.\Generated_Source\PSoC4/CapSense_1_CSHL.c ****             {
 505:.\Generated_Source\PSoC4/CapSense_1_CSHL.c ****                 CapSense_1_SensorSignal[sensor] = 0xFFu;
 616              		.loc 1 505 0
 617 017e FB1D     		add	r3, r7, #7
 618 0180 1A78     		ldrb	r2, [r3]
 619 0182 1149     		ldr	r1, .L33+24
 620 0184 0123     		mov	r3, #1
 621 0186 5B42     		neg	r3, r3
 622 0188 8B54     		strb	r3, [r1, r2]
 623              		.loc 1 499 0
 624 018a 0DE0     		b	.L32
 625              	.L29:
 506:.\Generated_Source\PSoC4/CapSense_1_CSHL.c ****             }    
 507:.\Generated_Source\PSoC4/CapSense_1_CSHL.c ****             else 
ARM GAS  C:\Users\maxk\AppData\Local\Temp\ccw8u2Eq.s 			page 21


 508:.\Generated_Source\PSoC4/CapSense_1_CSHL.c ****             {
 509:.\Generated_Source\PSoC4/CapSense_1_CSHL.c ****                 CapSense_1_SensorSignal[sensor] = ((uint8) tempRaw);
 626              		.loc 1 509 0
 627 018c FB1D     		add	r3, r7, #7
 628 018e 1B78     		ldrb	r3, [r3]
 629 0190 3A1C     		mov	r2, r7
 630 0192 1232     		add	r2, r2, #18
 631 0194 1288     		ldrh	r2, [r2]
 632 0196 D1B2     		uxtb	r1, r2
 633 0198 0B4A     		ldr	r2, .L33+24
 634 019a D154     		strb	r1, [r2, r3]
 635              		.loc 1 499 0
 636 019c 04E0     		b	.L32
 637              	.L28:
 510:.\Generated_Source\PSoC4/CapSense_1_CSHL.c ****             }
 511:.\Generated_Source\PSoC4/CapSense_1_CSHL.c ****         #else
 512:.\Generated_Source\PSoC4/CapSense_1_CSHL.c ****             CapSense_1_SensorSignal[sensor] = ((uint16) tempRaw);
 513:.\Generated_Source\PSoC4/CapSense_1_CSHL.c ****         #endif  /* (CapSense_1_SIGNAL_SIZE == CapSense_1_SIGNAL_SIZE_UINT8) */
 514:.\Generated_Source\PSoC4/CapSense_1_CSHL.c ****     }
 515:.\Generated_Source\PSoC4/CapSense_1_CSHL.c ****     else
 516:.\Generated_Source\PSoC4/CapSense_1_CSHL.c ****     {
 517:.\Generated_Source\PSoC4/CapSense_1_CSHL.c ****         /* Signal is zero */
 518:.\Generated_Source\PSoC4/CapSense_1_CSHL.c ****         CapSense_1_SensorSignal[sensor] = 0u;
 638              		.loc 1 518 0
 639 019e FB1D     		add	r3, r7, #7
 640 01a0 1B78     		ldrb	r3, [r3]
 641 01a2 094A     		ldr	r2, .L33+24
 642 01a4 0021     		mov	r1, #0
 643 01a6 D154     		strb	r1, [r2, r3]
 644              	.L32:
 519:.\Generated_Source\PSoC4/CapSense_1_CSHL.c ****     }
 520:.\Generated_Source\PSoC4/CapSense_1_CSHL.c **** 
 521:.\Generated_Source\PSoC4/CapSense_1_CSHL.c ****     #if (CapSense_1_TOTAL_GENERICS_COUNT)
 522:.\Generated_Source\PSoC4/CapSense_1_CSHL.c ****         /* Exclude generic widget */
 523:.\Generated_Source\PSoC4/CapSense_1_CSHL.c ****         }
 524:.\Generated_Source\PSoC4/CapSense_1_CSHL.c ****     #endif  /* CapSense_1_TOTAL_GENERICS_COUNT */
 525:.\Generated_Source\PSoC4/CapSense_1_CSHL.c **** }
 645              		.loc 1 525 0
 646 01a8 BD46     		mov	sp, r7
 647 01aa 06B0     		add	sp, sp, #24
 648              		@ sp needed for prologue
 649 01ac 80BD     		pop	{r7, pc}
 650              	.L34:
 651 01ae C046     		.align	2
 652              	.L33:
 653 01b0 00000000 		.word	CapSense_1_widgetNumber
 654 01b4 00000000 		.word	CapSense_1_noiseThreshold
 655 01b8 00000000 		.word	CapSense_1_SensorRaw
 656 01bc 00000000 		.word	CapSense_1_SensorBaseline
 657 01c0 00000000 		.word	CapSense_1_LowBaselineResetCnt
 658 01c4 00000000 		.word	CapSense_1_SensorBaselineLow
 659 01c8 00000000 		.word	CapSense_1_SensorSignal
 660              		.cfi_endproc
 661              	.LFE4:
 662              		.size	CapSense_1_UpdateSensorBaseline, .-CapSense_1_UpdateSensorBaseline
 663              		.section	.text.CapSense_1_UpdateEnabledBaselines,"ax",%progbits
 664              		.align	2
ARM GAS  C:\Users\maxk\AppData\Local\Temp\ccw8u2Eq.s 			page 22


 665              		.global	CapSense_1_UpdateEnabledBaselines
 666              		.code	16
 667              		.thumb_func
 668              		.type	CapSense_1_UpdateEnabledBaselines, %function
 669              	CapSense_1_UpdateEnabledBaselines:
 670              	.LFB5:
 526:.\Generated_Source\PSoC4/CapSense_1_CSHL.c **** 
 527:.\Generated_Source\PSoC4/CapSense_1_CSHL.c **** 
 528:.\Generated_Source\PSoC4/CapSense_1_CSHL.c **** /*******************************************************************************
 529:.\Generated_Source\PSoC4/CapSense_1_CSHL.c **** * Function Name: CapSense_1_UpdateEnabledBaselines
 530:.\Generated_Source\PSoC4/CapSense_1_CSHL.c **** ********************************************************************************
 531:.\Generated_Source\PSoC4/CapSense_1_CSHL.c **** *
 532:.\Generated_Source\PSoC4/CapSense_1_CSHL.c **** * Summary:
 533:.\Generated_Source\PSoC4/CapSense_1_CSHL.c **** *  Checks CapSense_1_SensorEnableMask[] array and calls the 
 534:.\Generated_Source\PSoC4/CapSense_1_CSHL.c **** *  CapSense_1_UpdateSensorBaseline function to update the baselines 
 535:.\Generated_Source\PSoC4/CapSense_1_CSHL.c **** *  for enabled sensors.
 536:.\Generated_Source\PSoC4/CapSense_1_CSHL.c **** *
 537:.\Generated_Source\PSoC4/CapSense_1_CSHL.c **** * Parameters:
 538:.\Generated_Source\PSoC4/CapSense_1_CSHL.c **** *  None
 539:.\Generated_Source\PSoC4/CapSense_1_CSHL.c **** *
 540:.\Generated_Source\PSoC4/CapSense_1_CSHL.c **** * Return:
 541:.\Generated_Source\PSoC4/CapSense_1_CSHL.c **** *  None
 542:.\Generated_Source\PSoC4/CapSense_1_CSHL.c **** *
 543:.\Generated_Source\PSoC4/CapSense_1_CSHL.c **** * Global Variables:
 544:.\Generated_Source\PSoC4/CapSense_1_CSHL.c **** *  CapSense_1_SensorEnableMask[] - used to store the sensor scanning 
 545:.\Generated_Source\PSoC4/CapSense_1_CSHL.c **** *  state.
 546:.\Generated_Source\PSoC4/CapSense_1_CSHL.c **** *  CapSense_1_SensorEnableMask[0] contains the masked bits for sensors 
 547:.\Generated_Source\PSoC4/CapSense_1_CSHL.c **** *   0 through 7 (sensor 0 is bit 0, sensor 1 is bit 1).
 548:.\Generated_Source\PSoC4/CapSense_1_CSHL.c **** *  CapSense_1_SensorEnableMask[1] contains the masked bits for 
 549:.\Generated_Source\PSoC4/CapSense_1_CSHL.c **** *  sensors 8 through 15 (if needed), and so on.
 550:.\Generated_Source\PSoC4/CapSense_1_CSHL.c **** *  0 - sensor doesn't scan by CapSense_1_ScanEnabledWidgets().
 551:.\Generated_Source\PSoC4/CapSense_1_CSHL.c **** *  1 - sensor scans by CapSense_1_ScanEnabledWidgets().
 552:.\Generated_Source\PSoC4/CapSense_1_CSHL.c **** *
 553:.\Generated_Source\PSoC4/CapSense_1_CSHL.c **** * Reentrant:
 554:.\Generated_Source\PSoC4/CapSense_1_CSHL.c **** *  No
 555:.\Generated_Source\PSoC4/CapSense_1_CSHL.c **** *
 556:.\Generated_Source\PSoC4/CapSense_1_CSHL.c **** *******************************************************************************/
 557:.\Generated_Source\PSoC4/CapSense_1_CSHL.c ****  void CapSense_1_UpdateEnabledBaselines(void)
 558:.\Generated_Source\PSoC4/CapSense_1_CSHL.c **** {
 671              		.loc 1 558 0
 672              		.cfi_startproc
 673 0000 80B5     		push	{r7, lr}
 674              	.LCFI15:
 675              		.cfi_def_cfa_offset 8
 676              		.cfi_offset 7, -8
 677              		.cfi_offset 14, -4
 678 0002 82B0     		sub	sp, sp, #8
 679              	.LCFI16:
 680              		.cfi_def_cfa_offset 16
 681 0004 00AF     		add	r7, sp, #0
 682              	.LCFI17:
 683              		.cfi_def_cfa_register 7
 559:.\Generated_Source\PSoC4/CapSense_1_CSHL.c ****     uint8 i;
 560:.\Generated_Source\PSoC4/CapSense_1_CSHL.c ****     uint8 pos;
 561:.\Generated_Source\PSoC4/CapSense_1_CSHL.c ****     uint8 enMask;
 562:.\Generated_Source\PSoC4/CapSense_1_CSHL.c ****     
 563:.\Generated_Source\PSoC4/CapSense_1_CSHL.c ****     for(i = 0; i < CapSense_1_TOTAL_SENSOR_COUNT; i++)
ARM GAS  C:\Users\maxk\AppData\Local\Temp\ccw8u2Eq.s 			page 23


 684              		.loc 1 563 0
 685 0006 7B1D     		add	r3, r7, #5
 686 0008 0022     		mov	r2, #0
 687 000a 1A70     		strb	r2, [r3]
 688 000c 20E0     		b	.L36
 689              	.L38:
 564:.\Generated_Source\PSoC4/CapSense_1_CSHL.c ****     {
 565:.\Generated_Source\PSoC4/CapSense_1_CSHL.c ****         pos = (i >> 3u);
 690              		.loc 1 565 0
 691 000e BB1D     		add	r3, r7, #6
 692 0010 7A1D     		add	r2, r7, #5
 693 0012 1278     		ldrb	r2, [r2]
 694 0014 D208     		lsr	r2, r2, #3
 695 0016 1A70     		strb	r2, [r3]
 566:.\Generated_Source\PSoC4/CapSense_1_CSHL.c ****         enMask = 0x01u << (i & 0x07u);
 696              		.loc 1 566 0
 697 0018 7B1D     		add	r3, r7, #5
 698 001a 1A78     		ldrb	r2, [r3]
 699 001c 0723     		mov	r3, #7
 700 001e 1340     		and	r3, r3, r2
 701 0020 0122     		mov	r2, #1
 702 0022 9A40     		lsl	r2, r2, r3
 703 0024 FB1D     		add	r3, r7, #7
 704 0026 1A70     		strb	r2, [r3]
 567:.\Generated_Source\PSoC4/CapSense_1_CSHL.c ****         if((CapSense_1_SensorEnableMask[pos] & enMask) != 0u)
 705              		.loc 1 567 0
 706 0028 BB1D     		add	r3, r7, #6
 707 002a 1B78     		ldrb	r3, [r3]
 708 002c 0C4A     		ldr	r2, .L40
 709 002e D25C     		ldrb	r2, [r2, r3]
 710 0030 FB1D     		add	r3, r7, #7
 711 0032 1B78     		ldrb	r3, [r3]
 712 0034 1340     		and	r3, r3, r2
 713 0036 DBB2     		uxtb	r3, r3
 714 0038 002B     		cmp	r3, #0
 715 003a 04D0     		beq	.L37
 568:.\Generated_Source\PSoC4/CapSense_1_CSHL.c ****         {
 569:.\Generated_Source\PSoC4/CapSense_1_CSHL.c ****             CapSense_1_UpdateSensorBaseline(i);
 716              		.loc 1 569 0
 717 003c 7B1D     		add	r3, r7, #5
 718 003e 1B78     		ldrb	r3, [r3]
 719 0040 181C     		mov	r0, r3
 720 0042 FFF7FEFF 		bl	CapSense_1_UpdateSensorBaseline
 721              	.L37:
 722              		.loc 1 563 0
 723 0046 7B1D     		add	r3, r7, #5
 724 0048 7A1D     		add	r2, r7, #5
 725 004a 1278     		ldrb	r2, [r2]
 726 004c 0132     		add	r2, r2, #1
 727 004e 1A70     		strb	r2, [r3]
 728              	.L36:
 729 0050 7B1D     		add	r3, r7, #5
 730 0052 1B78     		ldrb	r3, [r3]
 731 0054 042B     		cmp	r3, #4
 732 0056 DAD9     		bls	.L38
 570:.\Generated_Source\PSoC4/CapSense_1_CSHL.c ****         }
 571:.\Generated_Source\PSoC4/CapSense_1_CSHL.c ****     }
ARM GAS  C:\Users\maxk\AppData\Local\Temp\ccw8u2Eq.s 			page 24


 572:.\Generated_Source\PSoC4/CapSense_1_CSHL.c **** }
 733              		.loc 1 572 0
 734 0058 BD46     		mov	sp, r7
 735 005a 02B0     		add	sp, sp, #8
 736              		@ sp needed for prologue
 737 005c 80BD     		pop	{r7, pc}
 738              	.L41:
 739 005e C046     		.align	2
 740              	.L40:
 741 0060 00000000 		.word	CapSense_1_SensorEnableMask
 742              		.cfi_endproc
 743              	.LFE5:
 744              		.size	CapSense_1_UpdateEnabledBaselines, .-CapSense_1_UpdateEnabledBaselines
 745              		.section	.text.CapSense_1_CheckIsSensorActive,"ax",%progbits
 746              		.align	2
 747              		.global	CapSense_1_CheckIsSensorActive
 748              		.code	16
 749              		.thumb_func
 750              		.type	CapSense_1_CheckIsSensorActive, %function
 751              	CapSense_1_CheckIsSensorActive:
 752              	.LFB6:
 573:.\Generated_Source\PSoC4/CapSense_1_CSHL.c **** 
 574:.\Generated_Source\PSoC4/CapSense_1_CSHL.c **** 
 575:.\Generated_Source\PSoC4/CapSense_1_CSHL.c **** /*******************************************************************************
 576:.\Generated_Source\PSoC4/CapSense_1_CSHL.c **** * Function Name: CapSense_1_CheckIsSensorActive
 577:.\Generated_Source\PSoC4/CapSense_1_CSHL.c **** ********************************************************************************
 578:.\Generated_Source\PSoC4/CapSense_1_CSHL.c **** *
 579:.\Generated_Source\PSoC4/CapSense_1_CSHL.c **** * Summary:
 580:.\Generated_Source\PSoC4/CapSense_1_CSHL.c **** *  Compares the CapSense_1_SensorSignal[sensor] array element to finger
 581:.\Generated_Source\PSoC4/CapSense_1_CSHL.c **** *  threshold of widget it belongs to. The hysteresis and debounce are taken into 
 582:.\Generated_Source\PSoC4/CapSense_1_CSHL.c **** *  account. The hysteresis is added or subtracted from the finger threshold 
 583:.\Generated_Source\PSoC4/CapSense_1_CSHL.c **** *  based on whether the sensor is currently active. 
 584:.\Generated_Source\PSoC4/CapSense_1_CSHL.c **** *  If the sensor is active, the threshold is lowered by the hysteresis amount.
 585:.\Generated_Source\PSoC4/CapSense_1_CSHL.c **** *  If the sensor is inactive, the threshold is raised by the hysteresis amount.
 586:.\Generated_Source\PSoC4/CapSense_1_CSHL.c **** *  The debounce counter added to the sensor active transition.
 587:.\Generated_Source\PSoC4/CapSense_1_CSHL.c **** *  This function updates CapSense_1_SensorOnMask[] array element.
 588:.\Generated_Source\PSoC4/CapSense_1_CSHL.c **** *
 589:.\Generated_Source\PSoC4/CapSense_1_CSHL.c **** * Parameters:
 590:.\Generated_Source\PSoC4/CapSense_1_CSHL.c **** *  sensor:  Sensor number.
 591:.\Generated_Source\PSoC4/CapSense_1_CSHL.c **** *
 592:.\Generated_Source\PSoC4/CapSense_1_CSHL.c **** * Return:
 593:.\Generated_Source\PSoC4/CapSense_1_CSHL.c **** *  Returns sensor state 1 if active, 0 if not active.
 594:.\Generated_Source\PSoC4/CapSense_1_CSHL.c **** *
 595:.\Generated_Source\PSoC4/CapSense_1_CSHL.c **** * Global Variables:
 596:.\Generated_Source\PSoC4/CapSense_1_CSHL.c **** *  CapSense_1_SensorSignal[]      - used to store diffence between 
 597:.\Generated_Source\PSoC4/CapSense_1_CSHL.c **** *  current value of raw data and previous value of baseline.
 598:.\Generated_Source\PSoC4/CapSense_1_CSHL.c **** *  CapSense_1_debounceCounter[]   - used to store current debounce 
 599:.\Generated_Source\PSoC4/CapSense_1_CSHL.c **** *  counter of sensor. Widget which has this parameter are buttons, matrix 
 600:.\Generated_Source\PSoC4/CapSense_1_CSHL.c **** *  buttons, proximity, guard. All other widgets haven't debounce parameter
 601:.\Generated_Source\PSoC4/CapSense_1_CSHL.c **** *  and use the last element of this array with value 0 (it means no debounce).
 602:.\Generated_Source\PSoC4/CapSense_1_CSHL.c **** *  CapSense_1_SensorOnMask[] - used to store sensors on/off state.
 603:.\Generated_Source\PSoC4/CapSense_1_CSHL.c **** *  CapSense_1_SensorOnMask[0] contains the masked bits for sensors 
 604:.\Generated_Source\PSoC4/CapSense_1_CSHL.c **** *   0 through 7 (sensor 0 is bit 0, sensor 1 is bit 1).
 605:.\Generated_Source\PSoC4/CapSense_1_CSHL.c **** *  CapSense_1_SensorEnableMask[1] contains the masked bits for 
 606:.\Generated_Source\PSoC4/CapSense_1_CSHL.c **** *  sensors 8 through 15 (if needed), and so on.
 607:.\Generated_Source\PSoC4/CapSense_1_CSHL.c **** *  0 - sensor is inactive.
 608:.\Generated_Source\PSoC4/CapSense_1_CSHL.c **** *  1 - sensor is active.
ARM GAS  C:\Users\maxk\AppData\Local\Temp\ccw8u2Eq.s 			page 25


 609:.\Generated_Source\PSoC4/CapSense_1_CSHL.c **** *
 610:.\Generated_Source\PSoC4/CapSense_1_CSHL.c **** * Reentrant:
 611:.\Generated_Source\PSoC4/CapSense_1_CSHL.c **** *  No
 612:.\Generated_Source\PSoC4/CapSense_1_CSHL.c **** *
 613:.\Generated_Source\PSoC4/CapSense_1_CSHL.c **** *******************************************************************************/
 614:.\Generated_Source\PSoC4/CapSense_1_CSHL.c **** uint8 CapSense_1_CheckIsSensorActive(uint8 sensor)
 615:.\Generated_Source\PSoC4/CapSense_1_CSHL.c **** {
 753              		.loc 1 615 0
 754              		.cfi_startproc
 755 0000 80B5     		push	{r7, lr}
 756              	.LCFI18:
 757              		.cfi_def_cfa_offset 8
 758              		.cfi_offset 7, -8
 759              		.cfi_offset 14, -4
 760 0002 84B0     		sub	sp, sp, #16
 761              	.LCFI19:
 762              		.cfi_def_cfa_offset 24
 763 0004 00AF     		add	r7, sp, #0
 764              	.LCFI20:
 765              		.cfi_def_cfa_register 7
 766 0006 021C     		mov	r2, r0
 767 0008 FB1D     		add	r3, r7, #7
 768 000a 1A70     		strb	r2, [r3]
 616:.\Generated_Source\PSoC4/CapSense_1_CSHL.c ****     uint8 debounceIndex;
 617:.\Generated_Source\PSoC4/CapSense_1_CSHL.c ****     /* Get On/Off mask */
 618:.\Generated_Source\PSoC4/CapSense_1_CSHL.c ****     uint8 pos = (sensor >> 3u);
 769              		.loc 1 618 0
 770 000c 3B1C     		mov	r3, r7
 771 000e 0A33     		add	r3, r3, #10
 772 0010 FA1D     		add	r2, r7, #7
 773 0012 1278     		ldrb	r2, [r2]
 774 0014 D208     		lsr	r2, r2, #3
 775 0016 1A70     		strb	r2, [r3]
 619:.\Generated_Source\PSoC4/CapSense_1_CSHL.c ****     uint8 onMask = 0x01u << (sensor & 0x07u);
 776              		.loc 1 619 0
 777 0018 FB1D     		add	r3, r7, #7
 778 001a 1A78     		ldrb	r2, [r3]
 779 001c 0723     		mov	r3, #7
 780 001e 1340     		and	r3, r3, r2
 781 0020 0122     		mov	r2, #1
 782 0022 9A40     		lsl	r2, r2, r3
 783 0024 3B1C     		mov	r3, r7
 784 0026 0B33     		add	r3, r3, #11
 785 0028 1A70     		strb	r2, [r3]
 620:.\Generated_Source\PSoC4/CapSense_1_CSHL.c ****     /* Prepare to find debounce counter index */
 621:.\Generated_Source\PSoC4/CapSense_1_CSHL.c ****     uint8 widget = CapSense_1_widgetNumber[sensor];
 786              		.loc 1 621 0
 787 002a FB1D     		add	r3, r7, #7
 788 002c 1A78     		ldrb	r2, [r3]
 789 002e 3B1C     		mov	r3, r7
 790 0030 0C33     		add	r3, r3, #12
 791 0032 5449     		ldr	r1, .L53
 792 0034 8A5C     		ldrb	r2, [r1, r2]
 793 0036 1A70     		strb	r2, [r3]
 622:.\Generated_Source\PSoC4/CapSense_1_CSHL.c ****     uint8 fingerThreshold = CapSense_1_fingerThreshold[widget];
 794              		.loc 1 622 0
 795 0038 3B1C     		mov	r3, r7
ARM GAS  C:\Users\maxk\AppData\Local\Temp\ccw8u2Eq.s 			page 26


 796 003a 0C33     		add	r3, r3, #12
 797 003c 1A78     		ldrb	r2, [r3]
 798 003e 3B1C     		mov	r3, r7
 799 0040 0D33     		add	r3, r3, #13
 800 0042 5149     		ldr	r1, .L53+4
 801 0044 8A5C     		ldrb	r2, [r1, r2]
 802 0046 1A70     		strb	r2, [r3]
 623:.\Generated_Source\PSoC4/CapSense_1_CSHL.c ****     uint8 hysteresis = CapSense_1_hysteresis[widget];
 803              		.loc 1 623 0
 804 0048 3B1C     		mov	r3, r7
 805 004a 0C33     		add	r3, r3, #12
 806 004c 1A78     		ldrb	r2, [r3]
 807 004e 3B1C     		mov	r3, r7
 808 0050 0E33     		add	r3, r3, #14
 809 0052 4E49     		ldr	r1, .L53+8
 810 0054 8A5C     		ldrb	r2, [r1, r2]
 811 0056 1A70     		strb	r2, [r3]
 624:.\Generated_Source\PSoC4/CapSense_1_CSHL.c ****     uint8 debounce = CapSense_1_debounce[widget];
 812              		.loc 1 624 0
 813 0058 3B1C     		mov	r3, r7
 814 005a 0C33     		add	r3, r3, #12
 815 005c 1A78     		ldrb	r2, [r3]
 816 005e 3B1C     		mov	r3, r7
 817 0060 0F33     		add	r3, r3, #15
 818 0062 4B49     		ldr	r1, .L53+12
 819 0064 8A5C     		ldrb	r2, [r1, r2]
 820 0066 1A70     		strb	r2, [r3]
 625:.\Generated_Source\PSoC4/CapSense_1_CSHL.c ****     
 626:.\Generated_Source\PSoC4/CapSense_1_CSHL.c ****     debounceIndex = CapSense_1_UNUSED_DEBOUNCE_COUNTER_INDEX;
 821              		.loc 1 626 0
 822 0068 3B1C     		mov	r3, r7
 823 006a 0933     		add	r3, r3, #9
 824 006c 0022     		mov	r2, #0
 825 006e 1A70     		strb	r2, [r3]
 627:.\Generated_Source\PSoC4/CapSense_1_CSHL.c ****     CapSense_1_debounceCounter[debounceIndex] = 1u;
 826              		.loc 1 627 0
 827 0070 3B1C     		mov	r3, r7
 828 0072 0933     		add	r3, r3, #9
 829 0074 1B78     		ldrb	r3, [r3]
 830 0076 474A     		ldr	r2, .L53+16
 831 0078 0121     		mov	r1, #1
 832 007a D154     		strb	r1, [r2, r3]
 628:.\Generated_Source\PSoC4/CapSense_1_CSHL.c **** 
 629:.\Generated_Source\PSoC4/CapSense_1_CSHL.c ****     
 630:.\Generated_Source\PSoC4/CapSense_1_CSHL.c ****     /* Was on */
 631:.\Generated_Source\PSoC4/CapSense_1_CSHL.c ****     if (CapSense_1_SensorOnMask[pos] & onMask)
 833              		.loc 1 631 0
 834 007c 3B1C     		mov	r3, r7
 835 007e 0A33     		add	r3, r3, #10
 836 0080 1B78     		ldrb	r3, [r3]
 837 0082 454A     		ldr	r2, .L53+20
 838 0084 D25C     		ldrb	r2, [r2, r3]
 839 0086 3B1C     		mov	r3, r7
 840 0088 0B33     		add	r3, r3, #11
 841 008a 1B78     		ldrb	r3, [r3]
 842 008c 1340     		and	r3, r3, r2
 843 008e DBB2     		uxtb	r3, r3
ARM GAS  C:\Users\maxk\AppData\Local\Temp\ccw8u2Eq.s 			page 27


 844 0090 002B     		cmp	r3, #0
 845 0092 29D0     		beq	.L43
 632:.\Generated_Source\PSoC4/CapSense_1_CSHL.c ****     {
 633:.\Generated_Source\PSoC4/CapSense_1_CSHL.c ****         /* Hysteresis minus */
 634:.\Generated_Source\PSoC4/CapSense_1_CSHL.c ****         if (CapSense_1_SensorSignal[sensor] < (fingerThreshold - hysteresis))
 846              		.loc 1 634 0
 847 0094 FB1D     		add	r3, r7, #7
 848 0096 1B78     		ldrb	r3, [r3]
 849 0098 404A     		ldr	r2, .L53+24
 850 009a D35C     		ldrb	r3, [r2, r3]
 851 009c 1A1C     		mov	r2, r3
 852 009e 3B1C     		mov	r3, r7
 853 00a0 0D33     		add	r3, r3, #13
 854 00a2 1978     		ldrb	r1, [r3]
 855 00a4 3B1C     		mov	r3, r7
 856 00a6 0E33     		add	r3, r3, #14
 857 00a8 1B78     		ldrb	r3, [r3]
 858 00aa CB1A     		sub	r3, r1, r3
 859 00ac 9A42     		cmp	r2, r3
 860 00ae 52DA     		bge	.L51
 635:.\Generated_Source\PSoC4/CapSense_1_CSHL.c ****         {
 636:.\Generated_Source\PSoC4/CapSense_1_CSHL.c ****             CapSense_1_SensorOnMask[pos] &= ~onMask;
 861              		.loc 1 636 0
 862 00b0 3B1C     		mov	r3, r7
 863 00b2 0A33     		add	r3, r3, #10
 864 00b4 1B78     		ldrb	r3, [r3]
 865 00b6 3A1C     		mov	r2, r7
 866 00b8 0A32     		add	r2, r2, #10
 867 00ba 1278     		ldrb	r2, [r2]
 868 00bc 3649     		ldr	r1, .L53+20
 869 00be 8A5C     		ldrb	r2, [r1, r2]
 870 00c0 111C     		mov	r1, r2
 871 00c2 3A1C     		mov	r2, r7
 872 00c4 0B32     		add	r2, r2, #11
 873 00c6 1278     		ldrb	r2, [r2]
 874 00c8 D243     		mvn	r2, r2
 875 00ca D2B2     		uxtb	r2, r2
 876 00cc 0A40     		and	r2, r2, r1
 877 00ce D2B2     		uxtb	r2, r2
 878 00d0 D1B2     		uxtb	r1, r2
 879 00d2 314A     		ldr	r2, .L53+20
 880 00d4 D154     		strb	r1, [r2, r3]
 637:.\Generated_Source\PSoC4/CapSense_1_CSHL.c ****             CapSense_1_debounceCounter[debounceIndex] = debounce; 
 881              		.loc 1 637 0
 882 00d6 3B1C     		mov	r3, r7
 883 00d8 0933     		add	r3, r3, #9
 884 00da 1B78     		ldrb	r3, [r3]
 885 00dc 2D4A     		ldr	r2, .L53+16
 886 00de 391C     		mov	r1, r7
 887 00e0 0F31     		add	r1, r1, #15
 888 00e2 0978     		ldrb	r1, [r1]
 889 00e4 D154     		strb	r1, [r2, r3]
 890 00e6 39E0     		b	.L45
 891              	.L43:
 638:.\Generated_Source\PSoC4/CapSense_1_CSHL.c ****         }
 639:.\Generated_Source\PSoC4/CapSense_1_CSHL.c ****     }
 640:.\Generated_Source\PSoC4/CapSense_1_CSHL.c ****     else    /* Was off */
ARM GAS  C:\Users\maxk\AppData\Local\Temp\ccw8u2Eq.s 			page 28


 641:.\Generated_Source\PSoC4/CapSense_1_CSHL.c ****     {
 642:.\Generated_Source\PSoC4/CapSense_1_CSHL.c ****         /* Hysteresis plus */
 643:.\Generated_Source\PSoC4/CapSense_1_CSHL.c ****         if (CapSense_1_SensorSignal[sensor] >= (fingerThreshold + hysteresis))
 892              		.loc 1 643 0
 893 00e8 FB1D     		add	r3, r7, #7
 894 00ea 1B78     		ldrb	r3, [r3]
 895 00ec 2B4A     		ldr	r2, .L53+24
 896 00ee D35C     		ldrb	r3, [r2, r3]
 897 00f0 1A1C     		mov	r2, r3
 898 00f2 3B1C     		mov	r3, r7
 899 00f4 0D33     		add	r3, r3, #13
 900 00f6 1978     		ldrb	r1, [r3]
 901 00f8 3B1C     		mov	r3, r7
 902 00fa 0E33     		add	r3, r3, #14
 903 00fc 1B78     		ldrb	r3, [r3]
 904 00fe CB18     		add	r3, r1, r3
 905 0100 9A42     		cmp	r2, r3
 906 0102 1FDB     		blt	.L46
 644:.\Generated_Source\PSoC4/CapSense_1_CSHL.c ****         {
 645:.\Generated_Source\PSoC4/CapSense_1_CSHL.c ****             /* Sensor active, decrement debounce counter */
 646:.\Generated_Source\PSoC4/CapSense_1_CSHL.c ****             if (CapSense_1_debounceCounter[debounceIndex]-- <= 1u)
 907              		.loc 1 646 0
 908 0104 3B1C     		mov	r3, r7
 909 0106 0933     		add	r3, r3, #9
 910 0108 1B78     		ldrb	r3, [r3]
 911 010a 224A     		ldr	r2, .L53+16
 912 010c D25C     		ldrb	r2, [r2, r3]
 913 010e 0120     		mov	r0, #1
 914 0110 0021     		mov	r1, #0
 915 0112 9042     		cmp	r0, r2
 916 0114 4941     		adc	r1, r1, r1
 917 0116 C9B2     		uxtb	r1, r1
 918 0118 013A     		sub	r2, r2, #1
 919 011a D0B2     		uxtb	r0, r2
 920 011c 1D4A     		ldr	r2, .L53+16
 921 011e D054     		strb	r0, [r2, r3]
 922 0120 0029     		cmp	r1, #0
 923 0122 1AD0     		beq	.L52
 647:.\Generated_Source\PSoC4/CapSense_1_CSHL.c ****             {
 648:.\Generated_Source\PSoC4/CapSense_1_CSHL.c ****                 CapSense_1_SensorOnMask[pos] |= onMask; 
 924              		.loc 1 648 0
 925 0124 3B1C     		mov	r3, r7
 926 0126 0A33     		add	r3, r3, #10
 927 0128 1B78     		ldrb	r3, [r3]
 928 012a 3A1C     		mov	r2, r7
 929 012c 0A32     		add	r2, r2, #10
 930 012e 1278     		ldrb	r2, [r2]
 931 0130 1949     		ldr	r1, .L53+20
 932 0132 895C     		ldrb	r1, [r1, r2]
 933 0134 3A1C     		mov	r2, r7
 934 0136 0B32     		add	r2, r2, #11
 935 0138 1278     		ldrb	r2, [r2]
 936 013a 0A43     		orr	r2, r2, r1
 937 013c D1B2     		uxtb	r1, r2
 938 013e 164A     		ldr	r2, .L53+20
 939 0140 D154     		strb	r1, [r2, r3]
 940 0142 0BE0     		b	.L45
ARM GAS  C:\Users\maxk\AppData\Local\Temp\ccw8u2Eq.s 			page 29


 941              	.L46:
 649:.\Generated_Source\PSoC4/CapSense_1_CSHL.c ****             }
 650:.\Generated_Source\PSoC4/CapSense_1_CSHL.c ****         }
 651:.\Generated_Source\PSoC4/CapSense_1_CSHL.c ****         else
 652:.\Generated_Source\PSoC4/CapSense_1_CSHL.c ****         {
 653:.\Generated_Source\PSoC4/CapSense_1_CSHL.c ****             /* Sensor inactive - reset Debounce counter */
 654:.\Generated_Source\PSoC4/CapSense_1_CSHL.c ****             CapSense_1_debounceCounter[debounceIndex] = debounce;
 942              		.loc 1 654 0
 943 0144 3B1C     		mov	r3, r7
 944 0146 0933     		add	r3, r3, #9
 945 0148 1B78     		ldrb	r3, [r3]
 946 014a 124A     		ldr	r2, .L53+16
 947 014c 391C     		mov	r1, r7
 948 014e 0F31     		add	r1, r1, #15
 949 0150 0978     		ldrb	r1, [r1]
 950 0152 D154     		strb	r1, [r2, r3]
 951 0154 02E0     		b	.L45
 952              	.L51:
 953              		.loc 1 637 0
 954 0156 C046     		mov	r8, r8
 955 0158 00E0     		b	.L45
 956              	.L52:
 957              		.loc 1 648 0
 958 015a C046     		mov	r8, r8
 959              	.L45:
 655:.\Generated_Source\PSoC4/CapSense_1_CSHL.c ****         }
 656:.\Generated_Source\PSoC4/CapSense_1_CSHL.c ****     }
 657:.\Generated_Source\PSoC4/CapSense_1_CSHL.c ****     
 658:.\Generated_Source\PSoC4/CapSense_1_CSHL.c ****     return (CapSense_1_SensorOnMask[pos] & onMask) ? 1u : 0u;
 960              		.loc 1 658 0
 961 015c 3B1C     		mov	r3, r7
 962 015e 0A33     		add	r3, r3, #10
 963 0160 1B78     		ldrb	r3, [r3]
 964 0162 0D4A     		ldr	r2, .L53+20
 965 0164 D25C     		ldrb	r2, [r2, r3]
 966 0166 3B1C     		mov	r3, r7
 967 0168 0B33     		add	r3, r3, #11
 968 016a 1B78     		ldrb	r3, [r3]
 969 016c 1340     		and	r3, r3, r2
 970 016e DBB2     		uxtb	r3, r3
 971 0170 002B     		cmp	r3, #0
 972 0172 01D0     		beq	.L48
 973 0174 0123     		mov	r3, #1
 974 0176 00E0     		b	.L49
 975              	.L48:
 976 0178 0023     		mov	r3, #0
 977              	.L49:
 659:.\Generated_Source\PSoC4/CapSense_1_CSHL.c **** }
 978              		.loc 1 659 0
 979 017a 181C     		mov	r0, r3
 980 017c BD46     		mov	sp, r7
 981 017e 04B0     		add	sp, sp, #16
 982              		@ sp needed for prologue
 983 0180 80BD     		pop	{r7, pc}
 984              	.L54:
 985 0182 C046     		.align	2
 986              	.L53:
ARM GAS  C:\Users\maxk\AppData\Local\Temp\ccw8u2Eq.s 			page 30


 987 0184 00000000 		.word	CapSense_1_widgetNumber
 988 0188 00000000 		.word	CapSense_1_fingerThreshold
 989 018c 00000000 		.word	CapSense_1_hysteresis
 990 0190 00000000 		.word	CapSense_1_debounce
 991 0194 00000000 		.word	CapSense_1_debounceCounter
 992 0198 00000000 		.word	CapSense_1_SensorOnMask
 993 019c 00000000 		.word	CapSense_1_SensorSignal
 994              		.cfi_endproc
 995              	.LFE6:
 996              		.size	CapSense_1_CheckIsSensorActive, .-CapSense_1_CheckIsSensorActive
 997              		.section	.text.CapSense_1_CheckIsWidgetActive,"ax",%progbits
 998              		.align	2
 999              		.global	CapSense_1_CheckIsWidgetActive
 1000              		.code	16
 1001              		.thumb_func
 1002              		.type	CapSense_1_CheckIsWidgetActive, %function
 1003              	CapSense_1_CheckIsWidgetActive:
 1004              	.LFB7:
 660:.\Generated_Source\PSoC4/CapSense_1_CSHL.c **** 
 661:.\Generated_Source\PSoC4/CapSense_1_CSHL.c **** 
 662:.\Generated_Source\PSoC4/CapSense_1_CSHL.c **** /*******************************************************************************
 663:.\Generated_Source\PSoC4/CapSense_1_CSHL.c **** * Function Name: CapSense_1_CheckIsWidgetActive
 664:.\Generated_Source\PSoC4/CapSense_1_CSHL.c **** ********************************************************************************
 665:.\Generated_Source\PSoC4/CapSense_1_CSHL.c **** *
 666:.\Generated_Source\PSoC4/CapSense_1_CSHL.c **** * Summary:
 667:.\Generated_Source\PSoC4/CapSense_1_CSHL.c **** *  Use function CapSense_1_CheckIsSensorActive() to update 
 668:.\Generated_Source\PSoC4/CapSense_1_CSHL.c **** *  CapSense_1_SensorOnMask[] for all sensors within the widget.
 669:.\Generated_Source\PSoC4/CapSense_1_CSHL.c **** *  If one of sensors within widget is active the function return that widget is 
 670:.\Generated_Source\PSoC4/CapSense_1_CSHL.c **** *  active.
 671:.\Generated_Source\PSoC4/CapSense_1_CSHL.c **** *  The touch pad and matrix buttons widgets need to have active sensor within 
 672:.\Generated_Source\PSoC4/CapSense_1_CSHL.c **** *  col and row to return widget active status.
 673:.\Generated_Source\PSoC4/CapSense_1_CSHL.c **** *
 674:.\Generated_Source\PSoC4/CapSense_1_CSHL.c **** * Parameters:
 675:.\Generated_Source\PSoC4/CapSense_1_CSHL.c **** *  widget:  widget number.
 676:.\Generated_Source\PSoC4/CapSense_1_CSHL.c **** *
 677:.\Generated_Source\PSoC4/CapSense_1_CSHL.c **** * Return:
 678:.\Generated_Source\PSoC4/CapSense_1_CSHL.c **** *  Returns widget sensor state 1 if one or more sensors within widget is/are 
 679:.\Generated_Source\PSoC4/CapSense_1_CSHL.c **** *  active, 0 if all sensors within widget are inactive.
 680:.\Generated_Source\PSoC4/CapSense_1_CSHL.c **** *
 681:.\Generated_Source\PSoC4/CapSense_1_CSHL.c **** * Reentrant:
 682:.\Generated_Source\PSoC4/CapSense_1_CSHL.c **** *  No
 683:.\Generated_Source\PSoC4/CapSense_1_CSHL.c **** *
 684:.\Generated_Source\PSoC4/CapSense_1_CSHL.c **** *******************************************************************************/
 685:.\Generated_Source\PSoC4/CapSense_1_CSHL.c **** uint8 CapSense_1_CheckIsWidgetActive(uint8 widget)
 686:.\Generated_Source\PSoC4/CapSense_1_CSHL.c **** {
 1005              		.loc 1 686 0
 1006              		.cfi_startproc
 1007 0000 80B5     		push	{r7, lr}
 1008              	.LCFI21:
 1009              		.cfi_def_cfa_offset 8
 1010              		.cfi_offset 7, -8
 1011              		.cfi_offset 14, -4
 1012 0002 84B0     		sub	sp, sp, #16
 1013              	.LCFI22:
 1014              		.cfi_def_cfa_offset 24
 1015 0004 00AF     		add	r7, sp, #0
 1016              	.LCFI23:
ARM GAS  C:\Users\maxk\AppData\Local\Temp\ccw8u2Eq.s 			page 31


 1017              		.cfi_def_cfa_register 7
 1018 0006 021C     		mov	r2, r0
 1019 0008 FB1D     		add	r3, r7, #7
 1020 000a 1A70     		strb	r2, [r3]
 687:.\Generated_Source\PSoC4/CapSense_1_CSHL.c ****     uint8 rawIndex = CapSense_1_rawDataIndex[widget];
 1021              		.loc 1 687 0
 1022 000c FB1D     		add	r3, r7, #7
 1023 000e 1A78     		ldrb	r2, [r3]
 1024 0010 3B1C     		mov	r3, r7
 1025 0012 0D33     		add	r3, r3, #13
 1026 0014 1A49     		ldr	r1, .L59
 1027 0016 8A5C     		ldrb	r2, [r1, r2]
 1028 0018 1A70     		strb	r2, [r3]
 688:.\Generated_Source\PSoC4/CapSense_1_CSHL.c ****     uint8 numberOfSensors = CapSense_1_numberOfSensors[widget] + rawIndex;
 1029              		.loc 1 688 0
 1030 001a FB1D     		add	r3, r7, #7
 1031 001c 1B78     		ldrb	r3, [r3]
 1032 001e 194A     		ldr	r2, .L59+4
 1033 0020 D15C     		ldrb	r1, [r2, r3]
 1034 0022 3B1C     		mov	r3, r7
 1035 0024 0E33     		add	r3, r3, #14
 1036 0026 3A1C     		mov	r2, r7
 1037 0028 0D32     		add	r2, r2, #13
 1038 002a 1278     		ldrb	r2, [r2]
 1039 002c 8A18     		add	r2, r1, r2
 1040 002e 1A70     		strb	r2, [r3]
 689:.\Generated_Source\PSoC4/CapSense_1_CSHL.c ****     uint8 state = 0u;
 1041              		.loc 1 689 0
 1042 0030 3B1C     		mov	r3, r7
 1043 0032 0F33     		add	r3, r3, #15
 1044 0034 0022     		mov	r2, #0
 1045 0036 1A70     		strb	r2, [r3]
 1046              	.L57:
 690:.\Generated_Source\PSoC4/CapSense_1_CSHL.c **** 
 691:.\Generated_Source\PSoC4/CapSense_1_CSHL.c ****     /* Check all sensors of the widget */
 692:.\Generated_Source\PSoC4/CapSense_1_CSHL.c ****     do
 693:.\Generated_Source\PSoC4/CapSense_1_CSHL.c ****     {
 694:.\Generated_Source\PSoC4/CapSense_1_CSHL.c ****         if(CapSense_1_CheckIsSensorActive(rawIndex) != 0u)
 1047              		.loc 1 694 0
 1048 0038 3B1C     		mov	r3, r7
 1049 003a 0D33     		add	r3, r3, #13
 1050 003c 1B78     		ldrb	r3, [r3]
 1051 003e 181C     		mov	r0, r3
 1052 0040 FFF7FEFF 		bl	CapSense_1_CheckIsSensorActive
 1053 0044 031C     		mov	r3, r0
 1054 0046 002B     		cmp	r3, #0
 1055 0048 03D0     		beq	.L56
 695:.\Generated_Source\PSoC4/CapSense_1_CSHL.c ****         {
 696:.\Generated_Source\PSoC4/CapSense_1_CSHL.c ****             state = CapSense_1_SENSOR_1_IS_ACTIVE;
 1056              		.loc 1 696 0
 1057 004a 3B1C     		mov	r3, r7
 1058 004c 0F33     		add	r3, r3, #15
 1059 004e 0122     		mov	r2, #1
 1060 0050 1A70     		strb	r2, [r3]
 1061              	.L56:
 697:.\Generated_Source\PSoC4/CapSense_1_CSHL.c ****         }
 698:.\Generated_Source\PSoC4/CapSense_1_CSHL.c ****         rawIndex++;
ARM GAS  C:\Users\maxk\AppData\Local\Temp\ccw8u2Eq.s 			page 32


 1062              		.loc 1 698 0
 1063 0052 3B1C     		mov	r3, r7
 1064 0054 0D33     		add	r3, r3, #13
 1065 0056 3A1C     		mov	r2, r7
 1066 0058 0D32     		add	r2, r2, #13
 1067 005a 1278     		ldrb	r2, [r2]
 1068 005c 0132     		add	r2, r2, #1
 1069 005e 1A70     		strb	r2, [r3]
 699:.\Generated_Source\PSoC4/CapSense_1_CSHL.c ****     }
 700:.\Generated_Source\PSoC4/CapSense_1_CSHL.c ****     while(rawIndex < numberOfSensors);
 1070              		.loc 1 700 0
 1071 0060 3A1C     		mov	r2, r7
 1072 0062 0D32     		add	r2, r2, #13
 1073 0064 3B1C     		mov	r3, r7
 1074 0066 0E33     		add	r3, r3, #14
 1075 0068 1278     		ldrb	r2, [r2]
 1076 006a 1B78     		ldrb	r3, [r3]
 1077 006c 9A42     		cmp	r2, r3
 1078 006e E3D3     		bcc	.L57
 701:.\Generated_Source\PSoC4/CapSense_1_CSHL.c ****     
 702:.\Generated_Source\PSoC4/CapSense_1_CSHL.c **** 
 703:.\Generated_Source\PSoC4/CapSense_1_CSHL.c ****     
 704:.\Generated_Source\PSoC4/CapSense_1_CSHL.c ****     return state;
 1079              		.loc 1 704 0
 1080 0070 3B1C     		mov	r3, r7
 1081 0072 0F33     		add	r3, r3, #15
 1082 0074 1B78     		ldrb	r3, [r3]
 705:.\Generated_Source\PSoC4/CapSense_1_CSHL.c **** }
 1083              		.loc 1 705 0
 1084 0076 181C     		mov	r0, r3
 1085 0078 BD46     		mov	sp, r7
 1086 007a 04B0     		add	sp, sp, #16
 1087              		@ sp needed for prologue
 1088 007c 80BD     		pop	{r7, pc}
 1089              	.L60:
 1090 007e C046     		.align	2
 1091              	.L59:
 1092 0080 00000000 		.word	CapSense_1_rawDataIndex
 1093 0084 00000000 		.word	CapSense_1_numberOfSensors
 1094              		.cfi_endproc
 1095              	.LFE7:
 1096              		.size	CapSense_1_CheckIsWidgetActive, .-CapSense_1_CheckIsWidgetActive
 1097              		.section	.text.CapSense_1_CheckIsAnyWidgetActive,"ax",%progbits
 1098              		.align	2
 1099              		.global	CapSense_1_CheckIsAnyWidgetActive
 1100              		.code	16
 1101              		.thumb_func
 1102              		.type	CapSense_1_CheckIsAnyWidgetActive, %function
 1103              	CapSense_1_CheckIsAnyWidgetActive:
 1104              	.LFB8:
 706:.\Generated_Source\PSoC4/CapSense_1_CSHL.c **** 
 707:.\Generated_Source\PSoC4/CapSense_1_CSHL.c **** 
 708:.\Generated_Source\PSoC4/CapSense_1_CSHL.c **** /*******************************************************************************
 709:.\Generated_Source\PSoC4/CapSense_1_CSHL.c **** * Function Name: CapSense_1_CheckIsAnyWidgetActive
 710:.\Generated_Source\PSoC4/CapSense_1_CSHL.c **** ********************************************************************************
 711:.\Generated_Source\PSoC4/CapSense_1_CSHL.c **** *
 712:.\Generated_Source\PSoC4/CapSense_1_CSHL.c **** * Summary:
ARM GAS  C:\Users\maxk\AppData\Local\Temp\ccw8u2Eq.s 			page 33


 713:.\Generated_Source\PSoC4/CapSense_1_CSHL.c **** *  Compares all sensors of the CapSense_1_Signal[] array to their finger 
 714:.\Generated_Source\PSoC4/CapSense_1_CSHL.c **** *  threshold. Calls CapSense_1_CheckIsWidgetActive() for each widget so 
 715:.\Generated_Source\PSoC4/CapSense_1_CSHL.c **** *  the CapSense_1_SensorOnMask[] array is up to date after calling this 
 716:.\Generated_Source\PSoC4/CapSense_1_CSHL.c **** *  function.
 717:.\Generated_Source\PSoC4/CapSense_1_CSHL.c **** *
 718:.\Generated_Source\PSoC4/CapSense_1_CSHL.c **** * Parameters:
 719:.\Generated_Source\PSoC4/CapSense_1_CSHL.c **** *  widget:  widget number.
 720:.\Generated_Source\PSoC4/CapSense_1_CSHL.c **** *
 721:.\Generated_Source\PSoC4/CapSense_1_CSHL.c **** * Return:
 722:.\Generated_Source\PSoC4/CapSense_1_CSHL.c **** *  Returns 1 if any widget is active, 0 none of widgets are active.
 723:.\Generated_Source\PSoC4/CapSense_1_CSHL.c **** *
 724:.\Generated_Source\PSoC4/CapSense_1_CSHL.c **** * Reentrant:
 725:.\Generated_Source\PSoC4/CapSense_1_CSHL.c **** *  No
 726:.\Generated_Source\PSoC4/CapSense_1_CSHL.c **** *
 727:.\Generated_Source\PSoC4/CapSense_1_CSHL.c **** *******************************************************************************/
 728:.\Generated_Source\PSoC4/CapSense_1_CSHL.c **** uint8 CapSense_1_CheckIsAnyWidgetActive(void)
 729:.\Generated_Source\PSoC4/CapSense_1_CSHL.c **** {
 1105              		.loc 1 729 0
 1106              		.cfi_startproc
 1107 0000 80B5     		push	{r7, lr}
 1108              	.LCFI24:
 1109              		.cfi_def_cfa_offset 8
 1110              		.cfi_offset 7, -8
 1111              		.cfi_offset 14, -4
 1112 0002 82B0     		sub	sp, sp, #8
 1113              	.LCFI25:
 1114              		.cfi_def_cfa_offset 16
 1115 0004 00AF     		add	r7, sp, #0
 1116              	.LCFI26:
 1117              		.cfi_def_cfa_register 7
 730:.\Generated_Source\PSoC4/CapSense_1_CSHL.c ****     uint8 i;
 731:.\Generated_Source\PSoC4/CapSense_1_CSHL.c ****     uint8 state = 0u;
 1118              		.loc 1 731 0
 1119 0006 FB1D     		add	r3, r7, #7
 1120 0008 0022     		mov	r2, #0
 1121 000a 1A70     		strb	r2, [r3]
 732:.\Generated_Source\PSoC4/CapSense_1_CSHL.c ****     
 733:.\Generated_Source\PSoC4/CapSense_1_CSHL.c ****     for(i = 0u; i < CapSense_1_TOTAL_WIDGET_COUNT; i++)
 1122              		.loc 1 733 0
 1123 000c BB1D     		add	r3, r7, #6
 1124 000e 0022     		mov	r2, #0
 1125 0010 1A70     		strb	r2, [r3]
 1126 0012 0FE0     		b	.L62
 1127              	.L64:
 734:.\Generated_Source\PSoC4/CapSense_1_CSHL.c ****     {
 735:.\Generated_Source\PSoC4/CapSense_1_CSHL.c ****         if (CapSense_1_CheckIsWidgetActive(i) != 0u)
 1128              		.loc 1 735 0
 1129 0014 BB1D     		add	r3, r7, #6
 1130 0016 1B78     		ldrb	r3, [r3]
 1131 0018 181C     		mov	r0, r3
 1132 001a FFF7FEFF 		bl	CapSense_1_CheckIsWidgetActive
 1133 001e 031C     		mov	r3, r0
 1134 0020 002B     		cmp	r3, #0
 1135 0022 02D0     		beq	.L63
 736:.\Generated_Source\PSoC4/CapSense_1_CSHL.c ****         {
 737:.\Generated_Source\PSoC4/CapSense_1_CSHL.c ****             state = CapSense_1_WIDGET_IS_ACTIVE;
 1136              		.loc 1 737 0
ARM GAS  C:\Users\maxk\AppData\Local\Temp\ccw8u2Eq.s 			page 34


 1137 0024 FB1D     		add	r3, r7, #7
 1138 0026 0122     		mov	r2, #1
 1139 0028 1A70     		strb	r2, [r3]
 1140              	.L63:
 1141              		.loc 1 733 0
 1142 002a BB1D     		add	r3, r7, #6
 1143 002c BA1D     		add	r2, r7, #6
 1144 002e 1278     		ldrb	r2, [r2]
 1145 0030 0132     		add	r2, r2, #1
 1146 0032 1A70     		strb	r2, [r3]
 1147              	.L62:
 1148 0034 BB1D     		add	r3, r7, #6
 1149 0036 1B78     		ldrb	r3, [r3]
 1150 0038 002B     		cmp	r3, #0
 1151 003a EBD0     		beq	.L64
 738:.\Generated_Source\PSoC4/CapSense_1_CSHL.c ****         }
 739:.\Generated_Source\PSoC4/CapSense_1_CSHL.c ****     }
 740:.\Generated_Source\PSoC4/CapSense_1_CSHL.c ****     
 741:.\Generated_Source\PSoC4/CapSense_1_CSHL.c **** 
 742:.\Generated_Source\PSoC4/CapSense_1_CSHL.c ****     return state;
 1152              		.loc 1 742 0
 1153 003c FB1D     		add	r3, r7, #7
 1154 003e 1B78     		ldrb	r3, [r3]
 743:.\Generated_Source\PSoC4/CapSense_1_CSHL.c **** }
 1155              		.loc 1 743 0
 1156 0040 181C     		mov	r0, r3
 1157 0042 BD46     		mov	sp, r7
 1158 0044 02B0     		add	sp, sp, #8
 1159              		@ sp needed for prologue
 1160 0046 80BD     		pop	{r7, pc}
 1161              		.cfi_endproc
 1162              	.LFE8:
 1163              		.size	CapSense_1_CheckIsAnyWidgetActive, .-CapSense_1_CheckIsAnyWidgetActive
 1164              		.section	.text.CapSense_1_EnableWidget,"ax",%progbits
 1165              		.align	2
 1166              		.global	CapSense_1_EnableWidget
 1167              		.code	16
 1168              		.thumb_func
 1169              		.type	CapSense_1_EnableWidget, %function
 1170              	CapSense_1_EnableWidget:
 1171              	.LFB9:
 744:.\Generated_Source\PSoC4/CapSense_1_CSHL.c **** 
 745:.\Generated_Source\PSoC4/CapSense_1_CSHL.c **** 
 746:.\Generated_Source\PSoC4/CapSense_1_CSHL.c **** /*******************************************************************************
 747:.\Generated_Source\PSoC4/CapSense_1_CSHL.c **** * Function Name: CapSense_1_EnableWidget
 748:.\Generated_Source\PSoC4/CapSense_1_CSHL.c **** ********************************************************************************
 749:.\Generated_Source\PSoC4/CapSense_1_CSHL.c **** *
 750:.\Generated_Source\PSoC4/CapSense_1_CSHL.c **** * Summary:
 751:.\Generated_Source\PSoC4/CapSense_1_CSHL.c **** *  Enable all widget elements (sensors) to scanning process.
 752:.\Generated_Source\PSoC4/CapSense_1_CSHL.c **** *
 753:.\Generated_Source\PSoC4/CapSense_1_CSHL.c **** * Parameters:
 754:.\Generated_Source\PSoC4/CapSense_1_CSHL.c **** *  widget:  widget number.
 755:.\Generated_Source\PSoC4/CapSense_1_CSHL.c **** *
 756:.\Generated_Source\PSoC4/CapSense_1_CSHL.c **** * Return:
 757:.\Generated_Source\PSoC4/CapSense_1_CSHL.c **** *  None
 758:.\Generated_Source\PSoC4/CapSense_1_CSHL.c **** *
 759:.\Generated_Source\PSoC4/CapSense_1_CSHL.c **** * Global Variables:
ARM GAS  C:\Users\maxk\AppData\Local\Temp\ccw8u2Eq.s 			page 35


 760:.\Generated_Source\PSoC4/CapSense_1_CSHL.c **** *  CapSense_1_SensorEnableMask[] - used to store the sensor scanning 
 761:.\Generated_Source\PSoC4/CapSense_1_CSHL.c **** *  state.
 762:.\Generated_Source\PSoC4/CapSense_1_CSHL.c **** *  CapSense_1_SensorEnableMask[0] contains the masked bits for sensors 
 763:.\Generated_Source\PSoC4/CapSense_1_CSHL.c **** *  0 through 7 (sensor 0 is bit 0, sensor 1 is bit 1).
 764:.\Generated_Source\PSoC4/CapSense_1_CSHL.c **** *  CapSense_1_SensorEnableMask[1] contains the masked bits for 
 765:.\Generated_Source\PSoC4/CapSense_1_CSHL.c **** *  sensors 8 through 15 (if needed), and so on.
 766:.\Generated_Source\PSoC4/CapSense_1_CSHL.c **** *  0 - sensor doesn't scan by CapSense_1_ScanEnabledWidgets().
 767:.\Generated_Source\PSoC4/CapSense_1_CSHL.c **** *  1 - sensor scans by CapSense_1_ScanEnabledWidgets().
 768:.\Generated_Source\PSoC4/CapSense_1_CSHL.c **** *
 769:.\Generated_Source\PSoC4/CapSense_1_CSHL.c **** * Reentrant:
 770:.\Generated_Source\PSoC4/CapSense_1_CSHL.c **** *  No
 771:.\Generated_Source\PSoC4/CapSense_1_CSHL.c **** *
 772:.\Generated_Source\PSoC4/CapSense_1_CSHL.c **** *******************************************************************************/
 773:.\Generated_Source\PSoC4/CapSense_1_CSHL.c **** void CapSense_1_EnableWidget(uint8 widget)
 774:.\Generated_Source\PSoC4/CapSense_1_CSHL.c **** {
 1172              		.loc 1 774 0
 1173              		.cfi_startproc
 1174 0000 80B5     		push	{r7, lr}
 1175              	.LCFI27:
 1176              		.cfi_def_cfa_offset 8
 1177              		.cfi_offset 7, -8
 1178              		.cfi_offset 14, -4
 1179 0002 84B0     		sub	sp, sp, #16
 1180              	.LCFI28:
 1181              		.cfi_def_cfa_offset 24
 1182 0004 00AF     		add	r7, sp, #0
 1183              	.LCFI29:
 1184              		.cfi_def_cfa_register 7
 1185 0006 021C     		mov	r2, r0
 1186 0008 FB1D     		add	r3, r7, #7
 1187 000a 1A70     		strb	r2, [r3]
 775:.\Generated_Source\PSoC4/CapSense_1_CSHL.c ****     uint8 pos;
 776:.\Generated_Source\PSoC4/CapSense_1_CSHL.c ****     uint8 enMask;
 777:.\Generated_Source\PSoC4/CapSense_1_CSHL.c ****     uint8 rawIndex = CapSense_1_rawDataIndex[widget];
 1188              		.loc 1 777 0
 1189 000c FB1D     		add	r3, r7, #7
 1190 000e 1A78     		ldrb	r2, [r3]
 1191 0010 3B1C     		mov	r3, r7
 1192 0012 0E33     		add	r3, r3, #14
 1193 0014 1F49     		ldr	r1, .L69
 1194 0016 8A5C     		ldrb	r2, [r1, r2]
 1195 0018 1A70     		strb	r2, [r3]
 778:.\Generated_Source\PSoC4/CapSense_1_CSHL.c ****     uint8 numberOfSensors = CapSense_1_numberOfSensors[widget] + rawIndex;
 1196              		.loc 1 778 0
 1197 001a FB1D     		add	r3, r7, #7
 1198 001c 1B78     		ldrb	r3, [r3]
 1199 001e 1E4A     		ldr	r2, .L69+4
 1200 0020 D15C     		ldrb	r1, [r2, r3]
 1201 0022 3B1C     		mov	r3, r7
 1202 0024 0F33     		add	r3, r3, #15
 1203 0026 3A1C     		mov	r2, r7
 1204 0028 0E32     		add	r2, r2, #14
 1205 002a 1278     		ldrb	r2, [r2]
 1206 002c 8A18     		add	r2, r1, r2
 1207 002e 1A70     		strb	r2, [r3]
 1208              	.L67:
 779:.\Generated_Source\PSoC4/CapSense_1_CSHL.c ****     
ARM GAS  C:\Users\maxk\AppData\Local\Temp\ccw8u2Eq.s 			page 36


 780:.\Generated_Source\PSoC4/CapSense_1_CSHL.c ****     /* Enable all sensors of the widget */
 781:.\Generated_Source\PSoC4/CapSense_1_CSHL.c ****     do
 782:.\Generated_Source\PSoC4/CapSense_1_CSHL.c ****     {
 783:.\Generated_Source\PSoC4/CapSense_1_CSHL.c ****         pos = (rawIndex >> 3u);
 1209              		.loc 1 783 0
 1210 0030 3B1C     		mov	r3, r7
 1211 0032 0C33     		add	r3, r3, #12
 1212 0034 3A1C     		mov	r2, r7
 1213 0036 0E32     		add	r2, r2, #14
 1214 0038 1278     		ldrb	r2, [r2]
 1215 003a D208     		lsr	r2, r2, #3
 1216 003c 1A70     		strb	r2, [r3]
 784:.\Generated_Source\PSoC4/CapSense_1_CSHL.c ****         enMask = 0x01u << (rawIndex & 0x07u);
 1217              		.loc 1 784 0
 1218 003e 3B1C     		mov	r3, r7
 1219 0040 0E33     		add	r3, r3, #14
 1220 0042 1A78     		ldrb	r2, [r3]
 1221 0044 0723     		mov	r3, #7
 1222 0046 1340     		and	r3, r3, r2
 1223 0048 0122     		mov	r2, #1
 1224 004a 9A40     		lsl	r2, r2, r3
 1225 004c 3B1C     		mov	r3, r7
 1226 004e 0D33     		add	r3, r3, #13
 1227 0050 1A70     		strb	r2, [r3]
 785:.\Generated_Source\PSoC4/CapSense_1_CSHL.c ****         
 786:.\Generated_Source\PSoC4/CapSense_1_CSHL.c ****         CapSense_1_SensorEnableMask[pos] |= enMask;
 1228              		.loc 1 786 0
 1229 0052 3B1C     		mov	r3, r7
 1230 0054 0C33     		add	r3, r3, #12
 1231 0056 1B78     		ldrb	r3, [r3]
 1232 0058 3A1C     		mov	r2, r7
 1233 005a 0C32     		add	r2, r2, #12
 1234 005c 1278     		ldrb	r2, [r2]
 1235 005e 0F49     		ldr	r1, .L69+8
 1236 0060 895C     		ldrb	r1, [r1, r2]
 1237 0062 3A1C     		mov	r2, r7
 1238 0064 0D32     		add	r2, r2, #13
 1239 0066 1278     		ldrb	r2, [r2]
 1240 0068 0A43     		orr	r2, r2, r1
 1241 006a D1B2     		uxtb	r1, r2
 1242 006c 0B4A     		ldr	r2, .L69+8
 1243 006e D154     		strb	r1, [r2, r3]
 787:.\Generated_Source\PSoC4/CapSense_1_CSHL.c ****         rawIndex++;
 1244              		.loc 1 787 0
 1245 0070 3B1C     		mov	r3, r7
 1246 0072 0E33     		add	r3, r3, #14
 1247 0074 3A1C     		mov	r2, r7
 1248 0076 0E32     		add	r2, r2, #14
 1249 0078 1278     		ldrb	r2, [r2]
 1250 007a 0132     		add	r2, r2, #1
 1251 007c 1A70     		strb	r2, [r3]
 788:.\Generated_Source\PSoC4/CapSense_1_CSHL.c ****     }
 789:.\Generated_Source\PSoC4/CapSense_1_CSHL.c ****     while(rawIndex < numberOfSensors);
 1252              		.loc 1 789 0
 1253 007e 3A1C     		mov	r2, r7
 1254 0080 0E32     		add	r2, r2, #14
 1255 0082 3B1C     		mov	r3, r7
ARM GAS  C:\Users\maxk\AppData\Local\Temp\ccw8u2Eq.s 			page 37


 1256 0084 0F33     		add	r3, r3, #15
 1257 0086 1278     		ldrb	r2, [r2]
 1258 0088 1B78     		ldrb	r3, [r3]
 1259 008a 9A42     		cmp	r2, r3
 1260 008c D0D3     		bcc	.L67
 790:.\Generated_Source\PSoC4/CapSense_1_CSHL.c ****     
 791:.\Generated_Source\PSoC4/CapSense_1_CSHL.c **** 
 792:.\Generated_Source\PSoC4/CapSense_1_CSHL.c **** }
 1261              		.loc 1 792 0
 1262 008e BD46     		mov	sp, r7
 1263 0090 04B0     		add	sp, sp, #16
 1264              		@ sp needed for prologue
 1265 0092 80BD     		pop	{r7, pc}
 1266              	.L70:
 1267              		.align	2
 1268              	.L69:
 1269 0094 00000000 		.word	CapSense_1_rawDataIndex
 1270 0098 00000000 		.word	CapSense_1_numberOfSensors
 1271 009c 00000000 		.word	CapSense_1_SensorEnableMask
 1272              		.cfi_endproc
 1273              	.LFE9:
 1274              		.size	CapSense_1_EnableWidget, .-CapSense_1_EnableWidget
 1275              		.section	.text.CapSense_1_DisableWidget,"ax",%progbits
 1276              		.align	2
 1277              		.global	CapSense_1_DisableWidget
 1278              		.code	16
 1279              		.thumb_func
 1280              		.type	CapSense_1_DisableWidget, %function
 1281              	CapSense_1_DisableWidget:
 1282              	.LFB10:
 793:.\Generated_Source\PSoC4/CapSense_1_CSHL.c **** 
 794:.\Generated_Source\PSoC4/CapSense_1_CSHL.c **** 
 795:.\Generated_Source\PSoC4/CapSense_1_CSHL.c **** /*******************************************************************************
 796:.\Generated_Source\PSoC4/CapSense_1_CSHL.c **** * Function Name: CapSense_1_DisableWidget
 797:.\Generated_Source\PSoC4/CapSense_1_CSHL.c **** ********************************************************************************
 798:.\Generated_Source\PSoC4/CapSense_1_CSHL.c **** *
 799:.\Generated_Source\PSoC4/CapSense_1_CSHL.c **** * Summary:
 800:.\Generated_Source\PSoC4/CapSense_1_CSHL.c **** *  Disable all widget elements (sensors) from scanning process.
 801:.\Generated_Source\PSoC4/CapSense_1_CSHL.c **** *
 802:.\Generated_Source\PSoC4/CapSense_1_CSHL.c **** * Parameters:
 803:.\Generated_Source\PSoC4/CapSense_1_CSHL.c **** *  widget:  widget number.
 804:.\Generated_Source\PSoC4/CapSense_1_CSHL.c **** *
 805:.\Generated_Source\PSoC4/CapSense_1_CSHL.c **** * Return:
 806:.\Generated_Source\PSoC4/CapSense_1_CSHL.c **** *  None
 807:.\Generated_Source\PSoC4/CapSense_1_CSHL.c **** *
 808:.\Generated_Source\PSoC4/CapSense_1_CSHL.c **** * Global Variables:
 809:.\Generated_Source\PSoC4/CapSense_1_CSHL.c **** *  CapSense_1_SensorEnableMask[] - used to store the sensor scanning 
 810:.\Generated_Source\PSoC4/CapSense_1_CSHL.c **** *  state.
 811:.\Generated_Source\PSoC4/CapSense_1_CSHL.c **** *  CapSense_1_SensorEnableMask[0] contains the masked bits for sensors 
 812:.\Generated_Source\PSoC4/CapSense_1_CSHL.c **** *  0 through 7 (sensor 0 is bit 0, sensor 1 is bit 1).
 813:.\Generated_Source\PSoC4/CapSense_1_CSHL.c **** *  CapSense_1_SensorEnableMask[1] contains the masked bits for 
 814:.\Generated_Source\PSoC4/CapSense_1_CSHL.c **** *  sensors 8 through 15 (if needed), and so on.
 815:.\Generated_Source\PSoC4/CapSense_1_CSHL.c **** *  0 - sensor doesn't scan by CapSense_1_ScanEnabledWidgets().
 816:.\Generated_Source\PSoC4/CapSense_1_CSHL.c **** *  1 - sensor scans by CapSense_1_ScanEnabledWidgets().
 817:.\Generated_Source\PSoC4/CapSense_1_CSHL.c **** *
 818:.\Generated_Source\PSoC4/CapSense_1_CSHL.c **** * Reentrant:
 819:.\Generated_Source\PSoC4/CapSense_1_CSHL.c **** *  No
ARM GAS  C:\Users\maxk\AppData\Local\Temp\ccw8u2Eq.s 			page 38


 820:.\Generated_Source\PSoC4/CapSense_1_CSHL.c **** *
 821:.\Generated_Source\PSoC4/CapSense_1_CSHL.c **** *******************************************************************************/
 822:.\Generated_Source\PSoC4/CapSense_1_CSHL.c **** void CapSense_1_DisableWidget(uint8 widget)
 823:.\Generated_Source\PSoC4/CapSense_1_CSHL.c **** {
 1283              		.loc 1 823 0
 1284              		.cfi_startproc
 1285 0000 80B5     		push	{r7, lr}
 1286              	.LCFI30:
 1287              		.cfi_def_cfa_offset 8
 1288              		.cfi_offset 7, -8
 1289              		.cfi_offset 14, -4
 1290 0002 84B0     		sub	sp, sp, #16
 1291              	.LCFI31:
 1292              		.cfi_def_cfa_offset 24
 1293 0004 00AF     		add	r7, sp, #0
 1294              	.LCFI32:
 1295              		.cfi_def_cfa_register 7
 1296 0006 021C     		mov	r2, r0
 1297 0008 FB1D     		add	r3, r7, #7
 1298 000a 1A70     		strb	r2, [r3]
 824:.\Generated_Source\PSoC4/CapSense_1_CSHL.c ****     uint8 pos;
 825:.\Generated_Source\PSoC4/CapSense_1_CSHL.c ****     uint8 enMask;
 826:.\Generated_Source\PSoC4/CapSense_1_CSHL.c ****     uint8 rawIndex = CapSense_1_rawDataIndex[widget];
 1299              		.loc 1 826 0
 1300 000c FB1D     		add	r3, r7, #7
 1301 000e 1A78     		ldrb	r2, [r3]
 1302 0010 3B1C     		mov	r3, r7
 1303 0012 0E33     		add	r3, r3, #14
 1304 0014 2149     		ldr	r1, .L74
 1305 0016 8A5C     		ldrb	r2, [r1, r2]
 1306 0018 1A70     		strb	r2, [r3]
 827:.\Generated_Source\PSoC4/CapSense_1_CSHL.c ****     uint8 numberOfSensors = CapSense_1_numberOfSensors[widget] + rawIndex;
 1307              		.loc 1 827 0
 1308 001a FB1D     		add	r3, r7, #7
 1309 001c 1B78     		ldrb	r3, [r3]
 1310 001e 204A     		ldr	r2, .L74+4
 1311 0020 D15C     		ldrb	r1, [r2, r3]
 1312 0022 3B1C     		mov	r3, r7
 1313 0024 0F33     		add	r3, r3, #15
 1314 0026 3A1C     		mov	r2, r7
 1315 0028 0E32     		add	r2, r2, #14
 1316 002a 1278     		ldrb	r2, [r2]
 1317 002c 8A18     		add	r2, r1, r2
 1318 002e 1A70     		strb	r2, [r3]
 1319              	.L72:
 828:.\Generated_Source\PSoC4/CapSense_1_CSHL.c ****    
 829:.\Generated_Source\PSoC4/CapSense_1_CSHL.c ****     /* Disable all sensors of the widget */
 830:.\Generated_Source\PSoC4/CapSense_1_CSHL.c ****     do
 831:.\Generated_Source\PSoC4/CapSense_1_CSHL.c ****     {
 832:.\Generated_Source\PSoC4/CapSense_1_CSHL.c ****         pos = (rawIndex >> 3u);
 1320              		.loc 1 832 0
 1321 0030 3B1C     		mov	r3, r7
 1322 0032 0C33     		add	r3, r3, #12
 1323 0034 3A1C     		mov	r2, r7
 1324 0036 0E32     		add	r2, r2, #14
 1325 0038 1278     		ldrb	r2, [r2]
 1326 003a D208     		lsr	r2, r2, #3
ARM GAS  C:\Users\maxk\AppData\Local\Temp\ccw8u2Eq.s 			page 39


 1327 003c 1A70     		strb	r2, [r3]
 833:.\Generated_Source\PSoC4/CapSense_1_CSHL.c ****         enMask = 0x01u << (rawIndex & 0x07u);
 1328              		.loc 1 833 0
 1329 003e 3B1C     		mov	r3, r7
 1330 0040 0E33     		add	r3, r3, #14
 1331 0042 1A78     		ldrb	r2, [r3]
 1332 0044 0723     		mov	r3, #7
 1333 0046 1340     		and	r3, r3, r2
 1334 0048 0122     		mov	r2, #1
 1335 004a 9A40     		lsl	r2, r2, r3
 1336 004c 3B1C     		mov	r3, r7
 1337 004e 0D33     		add	r3, r3, #13
 1338 0050 1A70     		strb	r2, [r3]
 834:.\Generated_Source\PSoC4/CapSense_1_CSHL.c ****         
 835:.\Generated_Source\PSoC4/CapSense_1_CSHL.c ****         CapSense_1_SensorEnableMask[pos] &= ~enMask;
 1339              		.loc 1 835 0
 1340 0052 3B1C     		mov	r3, r7
 1341 0054 0C33     		add	r3, r3, #12
 1342 0056 1B78     		ldrb	r3, [r3]
 1343 0058 3A1C     		mov	r2, r7
 1344 005a 0C32     		add	r2, r2, #12
 1345 005c 1278     		ldrb	r2, [r2]
 1346 005e 1149     		ldr	r1, .L74+8
 1347 0060 8A5C     		ldrb	r2, [r1, r2]
 1348 0062 111C     		mov	r1, r2
 1349 0064 3A1C     		mov	r2, r7
 1350 0066 0D32     		add	r2, r2, #13
 1351 0068 1278     		ldrb	r2, [r2]
 1352 006a D243     		mvn	r2, r2
 1353 006c D2B2     		uxtb	r2, r2
 1354 006e 0A40     		and	r2, r2, r1
 1355 0070 D2B2     		uxtb	r2, r2
 1356 0072 D1B2     		uxtb	r1, r2
 1357 0074 0B4A     		ldr	r2, .L74+8
 1358 0076 D154     		strb	r1, [r2, r3]
 836:.\Generated_Source\PSoC4/CapSense_1_CSHL.c ****         rawIndex++;
 1359              		.loc 1 836 0
 1360 0078 3B1C     		mov	r3, r7
 1361 007a 0E33     		add	r3, r3, #14
 1362 007c 3A1C     		mov	r2, r7
 1363 007e 0E32     		add	r2, r2, #14
 1364 0080 1278     		ldrb	r2, [r2]
 1365 0082 0132     		add	r2, r2, #1
 1366 0084 1A70     		strb	r2, [r3]
 837:.\Generated_Source\PSoC4/CapSense_1_CSHL.c ****     }
 838:.\Generated_Source\PSoC4/CapSense_1_CSHL.c ****     while(rawIndex < numberOfSensors);
 1367              		.loc 1 838 0
 1368 0086 3A1C     		mov	r2, r7
 1369 0088 0E32     		add	r2, r2, #14
 1370 008a 3B1C     		mov	r3, r7
 1371 008c 0F33     		add	r3, r3, #15
 1372 008e 1278     		ldrb	r2, [r2]
 1373 0090 1B78     		ldrb	r3, [r3]
 1374 0092 9A42     		cmp	r2, r3
 1375 0094 CCD3     		bcc	.L72
 839:.\Generated_Source\PSoC4/CapSense_1_CSHL.c ****     
 840:.\Generated_Source\PSoC4/CapSense_1_CSHL.c **** 
ARM GAS  C:\Users\maxk\AppData\Local\Temp\ccw8u2Eq.s 			page 40


 841:.\Generated_Source\PSoC4/CapSense_1_CSHL.c **** }
 1376              		.loc 1 841 0
 1377 0096 BD46     		mov	sp, r7
 1378 0098 04B0     		add	sp, sp, #16
 1379              		@ sp needed for prologue
 1380 009a 80BD     		pop	{r7, pc}
 1381              	.L75:
 1382              		.align	2
 1383              	.L74:
 1384 009c 00000000 		.word	CapSense_1_rawDataIndex
 1385 00a0 00000000 		.word	CapSense_1_numberOfSensors
 1386 00a4 00000000 		.word	CapSense_1_SensorEnableMask
 1387              		.cfi_endproc
 1388              	.LFE10:
 1389              		.size	CapSense_1_DisableWidget, .-CapSense_1_DisableWidget
 1390              		.section	.text.CapSense_1_FindMaximum,"ax",%progbits
 1391              		.align	2
 1392              		.global	CapSense_1_FindMaximum
 1393              		.code	16
 1394              		.thumb_func
 1395              		.type	CapSense_1_FindMaximum, %function
 1396              	CapSense_1_FindMaximum:
 1397              	.LFB11:
 842:.\Generated_Source\PSoC4/CapSense_1_CSHL.c **** #if(CapSense_1_TOTAL_CENTROIDS_COUNT)
 843:.\Generated_Source\PSoC4/CapSense_1_CSHL.c ****     /*******************************************************************************
 844:.\Generated_Source\PSoC4/CapSense_1_CSHL.c ****     * Function Name: CapSense_1_FindMaximum
 845:.\Generated_Source\PSoC4/CapSense_1_CSHL.c ****     ********************************************************************************
 846:.\Generated_Source\PSoC4/CapSense_1_CSHL.c ****     *
 847:.\Generated_Source\PSoC4/CapSense_1_CSHL.c ****     * Summary:
 848:.\Generated_Source\PSoC4/CapSense_1_CSHL.c ****     *  Finds index of maximum element within defined centroid. Checks 
 849:.\Generated_Source\PSoC4/CapSense_1_CSHL.c ****     *  CapSense_1_SensorSignal[] within defined cenrtoid and 
 850:.\Generated_Source\PSoC4/CapSense_1_CSHL.c ****     *  returns index of maximum element. The values below finger threshold are 
 851:.\Generated_Source\PSoC4/CapSense_1_CSHL.c ****     *  ignored.
 852:.\Generated_Source\PSoC4/CapSense_1_CSHL.c ****     *  The centrod defines by offset of first element and number of elements - count.
 853:.\Generated_Source\PSoC4/CapSense_1_CSHL.c ****     *  The diplexed centroid requires at least consecutive two elements above
 854:.\Generated_Source\PSoC4/CapSense_1_CSHL.c ****     *  FingerThreshold to find index of maximum element.
 855:.\Generated_Source\PSoC4/CapSense_1_CSHL.c ****     * 
 856:.\Generated_Source\PSoC4/CapSense_1_CSHL.c ****     * Parameters:
 857:.\Generated_Source\PSoC4/CapSense_1_CSHL.c ****     *  offset:  Start index of cetroid in CapSense_1_SensorSignal[] array.
 858:.\Generated_Source\PSoC4/CapSense_1_CSHL.c ****     *  count:   number of elements within centroid.
 859:.\Generated_Source\PSoC4/CapSense_1_CSHL.c ****     *  fingerThreshold:  Finger threshould.
 860:.\Generated_Source\PSoC4/CapSense_1_CSHL.c ****     *  diplex:   pointer to diplex table.
 861:.\Generated_Source\PSoC4/CapSense_1_CSHL.c ****     * 
 862:.\Generated_Source\PSoC4/CapSense_1_CSHL.c ****     * Return:
 863:.\Generated_Source\PSoC4/CapSense_1_CSHL.c ****     *  Returns index of maximum element within defined centroid.
 864:.\Generated_Source\PSoC4/CapSense_1_CSHL.c ****     *  If index of maximum element doesn't find the 0xFF returns.
 865:.\Generated_Source\PSoC4/CapSense_1_CSHL.c ****     * 
 866:.\Generated_Source\PSoC4/CapSense_1_CSHL.c ****     *******************************************************************************/
 867:.\Generated_Source\PSoC4/CapSense_1_CSHL.c ****     #if (CapSense_1_IS_DIPLEX_SLIDER)
 868:.\Generated_Source\PSoC4/CapSense_1_CSHL.c ****         uint8 CapSense_1_FindMaximum(uint8 offset, uint8 count, uint8 fingerThreshold, const uint8 
 869:.\Generated_Source\PSoC4/CapSense_1_CSHL.c ****     #else 
 870:.\Generated_Source\PSoC4/CapSense_1_CSHL.c ****         uint8 CapSense_1_FindMaximum(uint8 offset, uint8 count, uint8 fingerThreshold)
 871:.\Generated_Source\PSoC4/CapSense_1_CSHL.c ****     #endif /* (CapSense_1_IS_DIPLEX_SLIDER) */
 872:.\Generated_Source\PSoC4/CapSense_1_CSHL.c ****     {
 1398              		.loc 1 872 0
 1399              		.cfi_startproc
 1400 0000 80B5     		push	{r7, lr}
ARM GAS  C:\Users\maxk\AppData\Local\Temp\ccw8u2Eq.s 			page 41


 1401              	.LCFI33:
 1402              		.cfi_def_cfa_offset 8
 1403              		.cfi_offset 7, -8
 1404              		.cfi_offset 14, -4
 1405 0002 84B0     		sub	sp, sp, #16
 1406              	.LCFI34:
 1407              		.cfi_def_cfa_offset 24
 1408 0004 00AF     		add	r7, sp, #0
 1409              	.LCFI35:
 1410              		.cfi_def_cfa_register 7
 1411 0006 FB1D     		add	r3, r7, #7
 1412 0008 1870     		strb	r0, [r3]
 1413 000a BB1D     		add	r3, r7, #6
 1414 000c 1970     		strb	r1, [r3]
 1415 000e 7B1D     		add	r3, r7, #5
 1416 0010 1A70     		strb	r2, [r3]
 873:.\Generated_Source\PSoC4/CapSense_1_CSHL.c ****         uint8 i;
 874:.\Generated_Source\PSoC4/CapSense_1_CSHL.c ****         #if (CapSense_1_IS_DIPLEX_SLIDER)        
 875:.\Generated_Source\PSoC4/CapSense_1_CSHL.c ****             uint8 curPos = 0u;
 876:.\Generated_Source\PSoC4/CapSense_1_CSHL.c ****             /* No centroid at the Start */
 877:.\Generated_Source\PSoC4/CapSense_1_CSHL.c ****             uint8 curCntrdSize = 0u;
 878:.\Generated_Source\PSoC4/CapSense_1_CSHL.c ****             uint8 curCtrdStartPos = 0xFFu;
 879:.\Generated_Source\PSoC4/CapSense_1_CSHL.c ****             /* The biggset centroid is zero */
 880:.\Generated_Source\PSoC4/CapSense_1_CSHL.c ****             uint8 biggestCtrdSize = 0u;
 881:.\Generated_Source\PSoC4/CapSense_1_CSHL.c ****             uint8 biggestCtrdStartPos = 0u;
 882:.\Generated_Source\PSoC4/CapSense_1_CSHL.c ****         #endif /* (CapSense_1_IS_DIPLEX_SLIDER) */
 883:.\Generated_Source\PSoC4/CapSense_1_CSHL.c ****         uint8 maximum = 0xFFu;
 1417              		.loc 1 883 0
 1418 0012 3A1C     		mov	r2, r7
 1419 0014 0A32     		add	r2, r2, #10
 1420 0016 0123     		mov	r3, #1
 1421 0018 5B42     		neg	r3, r3
 1422 001a 1370     		strb	r3, [r2]
 884:.\Generated_Source\PSoC4/CapSense_1_CSHL.c ****         uint8 temp = 0u;
 1423              		.loc 1 884 0
 1424 001c 3B1C     		mov	r3, r7
 1425 001e 0B33     		add	r3, r3, #11
 1426 0020 0022     		mov	r2, #0
 1427 0022 1A70     		strb	r2, [r3]
 885:.\Generated_Source\PSoC4/CapSense_1_CSHL.c ****         uint8 *startOfSlider = &CapSense_1_SensorSignal[offset]; 
 1428              		.loc 1 885 0
 1429 0024 FB1D     		add	r3, r7, #7
 1430 0026 1A78     		ldrb	r2, [r3]
 1431 0028 204B     		ldr	r3, .L81
 1432 002a D318     		add	r3, r2, r3
 1433 002c FB60     		str	r3, [r7, #12]
 886:.\Generated_Source\PSoC4/CapSense_1_CSHL.c **** 
 887:.\Generated_Source\PSoC4/CapSense_1_CSHL.c ****         #if (CapSense_1_IS_DIPLEX_SLIDER)        
 888:.\Generated_Source\PSoC4/CapSense_1_CSHL.c ****             if(diplex != 0u)
 889:.\Generated_Source\PSoC4/CapSense_1_CSHL.c ****             {
 890:.\Generated_Source\PSoC4/CapSense_1_CSHL.c ****                 /* Initialize */
 891:.\Generated_Source\PSoC4/CapSense_1_CSHL.c ****                 i = 0u;
 892:.\Generated_Source\PSoC4/CapSense_1_CSHL.c ****                 
 893:.\Generated_Source\PSoC4/CapSense_1_CSHL.c ****                 /* Make slider x2 as Diplexed */
 894:.\Generated_Source\PSoC4/CapSense_1_CSHL.c ****                 count <<= 1u;
 895:.\Generated_Source\PSoC4/CapSense_1_CSHL.c ****                 while(1u)
 896:.\Generated_Source\PSoC4/CapSense_1_CSHL.c ****                 { 
ARM GAS  C:\Users\maxk\AppData\Local\Temp\ccw8u2Eq.s 			page 42


 897:.\Generated_Source\PSoC4/CapSense_1_CSHL.c ****                     if (startOfSlider[curPos] > 0u)    /* Looking for centroids */
 898:.\Generated_Source\PSoC4/CapSense_1_CSHL.c ****                     {
 899:.\Generated_Source\PSoC4/CapSense_1_CSHL.c ****                         if (curCtrdStartPos == 0xFFu)
 900:.\Generated_Source\PSoC4/CapSense_1_CSHL.c ****                         {
 901:.\Generated_Source\PSoC4/CapSense_1_CSHL.c ****                             /* Start of centroid */
 902:.\Generated_Source\PSoC4/CapSense_1_CSHL.c ****                             curCtrdStartPos = i;
 903:.\Generated_Source\PSoC4/CapSense_1_CSHL.c ****                             curCntrdSize++;
 904:.\Generated_Source\PSoC4/CapSense_1_CSHL.c ****                         }
 905:.\Generated_Source\PSoC4/CapSense_1_CSHL.c ****                         else
 906:.\Generated_Source\PSoC4/CapSense_1_CSHL.c ****                         {
 907:.\Generated_Source\PSoC4/CapSense_1_CSHL.c ****                             curCntrdSize++;
 908:.\Generated_Source\PSoC4/CapSense_1_CSHL.c ****                         }
 909:.\Generated_Source\PSoC4/CapSense_1_CSHL.c ****                     }
 910:.\Generated_Source\PSoC4/CapSense_1_CSHL.c ****                     else   /* Select the bigest and indicate zero start */
 911:.\Generated_Source\PSoC4/CapSense_1_CSHL.c ****                     {          
 912:.\Generated_Source\PSoC4/CapSense_1_CSHL.c ****                         if(curCntrdSize > 0)
 913:.\Generated_Source\PSoC4/CapSense_1_CSHL.c ****                         {
 914:.\Generated_Source\PSoC4/CapSense_1_CSHL.c ****                             /* We are in the end of current */
 915:.\Generated_Source\PSoC4/CapSense_1_CSHL.c ****                             if(curCntrdSize > biggestCtrdSize)
 916:.\Generated_Source\PSoC4/CapSense_1_CSHL.c ****                             {
 917:.\Generated_Source\PSoC4/CapSense_1_CSHL.c ****                                 biggestCtrdSize = curCntrdSize;
 918:.\Generated_Source\PSoC4/CapSense_1_CSHL.c ****                                 biggestCtrdStartPos = curCtrdStartPos;
 919:.\Generated_Source\PSoC4/CapSense_1_CSHL.c ****                             }
 920:.\Generated_Source\PSoC4/CapSense_1_CSHL.c ****                             
 921:.\Generated_Source\PSoC4/CapSense_1_CSHL.c ****                             curCntrdSize = 0u;
 922:.\Generated_Source\PSoC4/CapSense_1_CSHL.c ****                             curCtrdStartPos = 0xFFu;
 923:.\Generated_Source\PSoC4/CapSense_1_CSHL.c ****                         }
 924:.\Generated_Source\PSoC4/CapSense_1_CSHL.c ****                     }
 925:.\Generated_Source\PSoC4/CapSense_1_CSHL.c ****                     
 926:.\Generated_Source\PSoC4/CapSense_1_CSHL.c ****                     i++; 
 927:.\Generated_Source\PSoC4/CapSense_1_CSHL.c ****                     curPos = diplex[i];
 928:.\Generated_Source\PSoC4/CapSense_1_CSHL.c ****                     if(i == count)
 929:.\Generated_Source\PSoC4/CapSense_1_CSHL.c ****                     {
 930:.\Generated_Source\PSoC4/CapSense_1_CSHL.c ****                         break;
 931:.\Generated_Source\PSoC4/CapSense_1_CSHL.c ****                     }            
 932:.\Generated_Source\PSoC4/CapSense_1_CSHL.c ****                 }
 933:.\Generated_Source\PSoC4/CapSense_1_CSHL.c ****                     
 934:.\Generated_Source\PSoC4/CapSense_1_CSHL.c ****                     /* Find the biggest centroid if two are the same size, last one wins
 935:.\Generated_Source\PSoC4/CapSense_1_CSHL.c ****                        We are in the end of current */
 936:.\Generated_Source\PSoC4/CapSense_1_CSHL.c ****                 if (curCntrdSize >= biggestCtrdSize) 
 937:.\Generated_Source\PSoC4/CapSense_1_CSHL.c ****                 {
 938:.\Generated_Source\PSoC4/CapSense_1_CSHL.c ****                     biggestCtrdSize = curCntrdSize;
 939:.\Generated_Source\PSoC4/CapSense_1_CSHL.c ****                     biggestCtrdStartPos = curCtrdStartPos;
 940:.\Generated_Source\PSoC4/CapSense_1_CSHL.c ****                 }
 941:.\Generated_Source\PSoC4/CapSense_1_CSHL.c ****             }
 942:.\Generated_Source\PSoC4/CapSense_1_CSHL.c ****             else
 943:.\Generated_Source\PSoC4/CapSense_1_CSHL.c ****             {
 944:.\Generated_Source\PSoC4/CapSense_1_CSHL.c ****                 /* Without diplexing */ 
 945:.\Generated_Source\PSoC4/CapSense_1_CSHL.c ****                 biggestCtrdSize = count;
 946:.\Generated_Source\PSoC4/CapSense_1_CSHL.c ****             }
 947:.\Generated_Source\PSoC4/CapSense_1_CSHL.c ****                         
 948:.\Generated_Source\PSoC4/CapSense_1_CSHL.c **** 
 949:.\Generated_Source\PSoC4/CapSense_1_CSHL.c ****             /* Check centroid size */
 950:.\Generated_Source\PSoC4/CapSense_1_CSHL.c ****             #if (CapSense_1_IS_NON_DIPLEX_SLIDER)
 951:.\Generated_Source\PSoC4/CapSense_1_CSHL.c ****                 if((biggestCtrdSize >= 2u) || ((biggestCtrdSize == 1u) && (diplex == 0u)))
 952:.\Generated_Source\PSoC4/CapSense_1_CSHL.c ****             #else                    
 953:.\Generated_Source\PSoC4/CapSense_1_CSHL.c ****                 if(biggestCtrdSize >= 2u)
ARM GAS  C:\Users\maxk\AppData\Local\Temp\ccw8u2Eq.s 			page 43


 954:.\Generated_Source\PSoC4/CapSense_1_CSHL.c ****             #endif /* (CapSense_1_IS_NON_DIPLEX_SLIDER) */
 955:.\Generated_Source\PSoC4/CapSense_1_CSHL.c ****                 {
 956:.\Generated_Source\PSoC4/CapSense_1_CSHL.c ****                     for (i = biggestCtrdStartPos; i < (biggestCtrdStartPos + biggestCtrdSize); i++)
 957:.\Generated_Source\PSoC4/CapSense_1_CSHL.c ****                     {
 958:.\Generated_Source\PSoC4/CapSense_1_CSHL.c ****                         #if (CapSense_1_IS_DIPLEX_SLIDER && CapSense_1_IS_NON_DIPLEX_SLIDER)
 959:.\Generated_Source\PSoC4/CapSense_1_CSHL.c ****                             if (diplex == 0u)
 960:.\Generated_Source\PSoC4/CapSense_1_CSHL.c ****                             {
 961:.\Generated_Source\PSoC4/CapSense_1_CSHL.c ****                                 curPos = i;
 962:.\Generated_Source\PSoC4/CapSense_1_CSHL.c ****                             }
 963:.\Generated_Source\PSoC4/CapSense_1_CSHL.c ****                             else
 964:.\Generated_Source\PSoC4/CapSense_1_CSHL.c ****                             {
 965:.\Generated_Source\PSoC4/CapSense_1_CSHL.c ****                                 curPos = diplex[i];
 966:.\Generated_Source\PSoC4/CapSense_1_CSHL.c ****                             }                    
 967:.\Generated_Source\PSoC4/CapSense_1_CSHL.c ****                         #elif (CapSense_1_IS_DIPLEX_SLIDER)                    
 968:.\Generated_Source\PSoC4/CapSense_1_CSHL.c ****                             curPos = diplex[i];                    
 969:.\Generated_Source\PSoC4/CapSense_1_CSHL.c ****                         #endif /* (CapSense_1_IS_DIPLEX_SLIDER && CapSense_1_IS_NON_DIPLEX_SLIDER) 
 970:.\Generated_Source\PSoC4/CapSense_1_CSHL.c ****                         /* Looking for the grater element within centroid */
 971:.\Generated_Source\PSoC4/CapSense_1_CSHL.c ****                         if(startOfSlider[curPos] > fingerThreshold)
 972:.\Generated_Source\PSoC4/CapSense_1_CSHL.c ****                         {
 973:.\Generated_Source\PSoC4/CapSense_1_CSHL.c ****                             if(startOfSlider[curPos] > temp)
 974:.\Generated_Source\PSoC4/CapSense_1_CSHL.c ****                             {
 975:.\Generated_Source\PSoC4/CapSense_1_CSHL.c ****                                 maximum = i;
 976:.\Generated_Source\PSoC4/CapSense_1_CSHL.c ****                                 temp = startOfSlider[curPos];
 977:.\Generated_Source\PSoC4/CapSense_1_CSHL.c ****                             }
 978:.\Generated_Source\PSoC4/CapSense_1_CSHL.c ****                         }
 979:.\Generated_Source\PSoC4/CapSense_1_CSHL.c ****                     }
 980:.\Generated_Source\PSoC4/CapSense_1_CSHL.c ****                 } 
 981:.\Generated_Source\PSoC4/CapSense_1_CSHL.c ****         #else
 982:.\Generated_Source\PSoC4/CapSense_1_CSHL.c ****             for (i = 0u; i < count; i++)
 1434              		.loc 1 982 0
 1435 002e 3B1C     		mov	r3, r7
 1436 0030 0933     		add	r3, r3, #9
 1437 0032 0022     		mov	r2, #0
 1438 0034 1A70     		strb	r2, [r3]
 1439 0036 2AE0     		b	.L77
 1440              	.L79:
 983:.\Generated_Source\PSoC4/CapSense_1_CSHL.c ****             {                      
 984:.\Generated_Source\PSoC4/CapSense_1_CSHL.c ****                 /* Looking for the grater element within centroid */
 985:.\Generated_Source\PSoC4/CapSense_1_CSHL.c ****                 if(startOfSlider[i] > fingerThreshold)
 1441              		.loc 1 985 0
 1442 0038 3B1C     		mov	r3, r7
 1443 003a 0933     		add	r3, r3, #9
 1444 003c 1A78     		ldrb	r2, [r3]
 1445 003e FB68     		ldr	r3, [r7, #12]
 1446 0040 D318     		add	r3, r2, r3
 1447 0042 1B78     		ldrb	r3, [r3]
 1448 0044 7A1D     		add	r2, r7, #5
 1449 0046 1278     		ldrb	r2, [r2]
 1450 0048 9A42     		cmp	r2, r3
 1451 004a 19D2     		bcs	.L78
 986:.\Generated_Source\PSoC4/CapSense_1_CSHL.c ****                 {
 987:.\Generated_Source\PSoC4/CapSense_1_CSHL.c ****                     if(startOfSlider[i] > temp)
 1452              		.loc 1 987 0
 1453 004c 3B1C     		mov	r3, r7
 1454 004e 0933     		add	r3, r3, #9
 1455 0050 1A78     		ldrb	r2, [r3]
 1456 0052 FB68     		ldr	r3, [r7, #12]
ARM GAS  C:\Users\maxk\AppData\Local\Temp\ccw8u2Eq.s 			page 44


 1457 0054 D318     		add	r3, r2, r3
 1458 0056 1B78     		ldrb	r3, [r3]
 1459 0058 3A1C     		mov	r2, r7
 1460 005a 0B32     		add	r2, r2, #11
 1461 005c 1278     		ldrb	r2, [r2]
 1462 005e 9A42     		cmp	r2, r3
 1463 0060 0ED2     		bcs	.L78
 988:.\Generated_Source\PSoC4/CapSense_1_CSHL.c ****                     {
 989:.\Generated_Source\PSoC4/CapSense_1_CSHL.c ****                         maximum = i;
 1464              		.loc 1 989 0
 1465 0062 3B1C     		mov	r3, r7
 1466 0064 0A33     		add	r3, r3, #10
 1467 0066 3A1C     		mov	r2, r7
 1468 0068 0932     		add	r2, r2, #9
 1469 006a 1278     		ldrb	r2, [r2]
 1470 006c 1A70     		strb	r2, [r3]
 990:.\Generated_Source\PSoC4/CapSense_1_CSHL.c ****                         temp = startOfSlider[i];
 1471              		.loc 1 990 0
 1472 006e 3B1C     		mov	r3, r7
 1473 0070 0933     		add	r3, r3, #9
 1474 0072 1A78     		ldrb	r2, [r3]
 1475 0074 FB68     		ldr	r3, [r7, #12]
 1476 0076 D218     		add	r2, r2, r3
 1477 0078 3B1C     		mov	r3, r7
 1478 007a 0B33     		add	r3, r3, #11
 1479 007c 1278     		ldrb	r2, [r2]
 1480 007e 1A70     		strb	r2, [r3]
 1481              	.L78:
 1482              		.loc 1 982 0
 1483 0080 3B1C     		mov	r3, r7
 1484 0082 0933     		add	r3, r3, #9
 1485 0084 3A1C     		mov	r2, r7
 1486 0086 0932     		add	r2, r2, #9
 1487 0088 1278     		ldrb	r2, [r2]
 1488 008a 0132     		add	r2, r2, #1
 1489 008c 1A70     		strb	r2, [r3]
 1490              	.L77:
 1491 008e 3A1C     		mov	r2, r7
 1492 0090 0932     		add	r2, r2, #9
 1493 0092 BB1D     		add	r3, r7, #6
 1494 0094 1278     		ldrb	r2, [r2]
 1495 0096 1B78     		ldrb	r3, [r3]
 1496 0098 9A42     		cmp	r2, r3
 1497 009a CDD3     		bcc	.L79
 991:.\Generated_Source\PSoC4/CapSense_1_CSHL.c ****                     }
 992:.\Generated_Source\PSoC4/CapSense_1_CSHL.c ****                 }
 993:.\Generated_Source\PSoC4/CapSense_1_CSHL.c ****             }    
 994:.\Generated_Source\PSoC4/CapSense_1_CSHL.c ****         #endif /* (CapSense_1_IS_DIPLEX_SLIDER) */
 995:.\Generated_Source\PSoC4/CapSense_1_CSHL.c ****         return (maximum);
 1498              		.loc 1 995 0
 1499 009c 3B1C     		mov	r3, r7
 1500 009e 0A33     		add	r3, r3, #10
 1501 00a0 1B78     		ldrb	r3, [r3]
 996:.\Generated_Source\PSoC4/CapSense_1_CSHL.c ****     }
 1502              		.loc 1 996 0
 1503 00a2 181C     		mov	r0, r3
 1504 00a4 BD46     		mov	sp, r7
ARM GAS  C:\Users\maxk\AppData\Local\Temp\ccw8u2Eq.s 			page 45


 1505 00a6 04B0     		add	sp, sp, #16
 1506              		@ sp needed for prologue
 1507 00a8 80BD     		pop	{r7, pc}
 1508              	.L82:
 1509 00aa C046     		.align	2
 1510              	.L81:
 1511 00ac 00000000 		.word	CapSense_1_SensorSignal
 1512              		.cfi_endproc
 1513              	.LFE11:
 1514              		.size	CapSense_1_FindMaximum, .-CapSense_1_FindMaximum
 1515              		.global	__aeabi_idiv
 1516              		.section	.text.CapSense_1_CalcCentroid,"ax",%progbits
 1517              		.align	2
 1518              		.global	CapSense_1_CalcCentroid
 1519              		.code	16
 1520              		.thumb_func
 1521              		.type	CapSense_1_CalcCentroid, %function
 1522              	CapSense_1_CalcCentroid:
 1523              	.LFB12:
 997:.\Generated_Source\PSoC4/CapSense_1_CSHL.c ****     
 998:.\Generated_Source\PSoC4/CapSense_1_CSHL.c ****     
 999:.\Generated_Source\PSoC4/CapSense_1_CSHL.c ****     /*******************************************************************************
1000:.\Generated_Source\PSoC4/CapSense_1_CSHL.c ****     * Function Name: CapSense_1_CalcCentroid
1001:.\Generated_Source\PSoC4/CapSense_1_CSHL.c ****     ********************************************************************************
1002:.\Generated_Source\PSoC4/CapSense_1_CSHL.c ****     *
1003:.\Generated_Source\PSoC4/CapSense_1_CSHL.c ****     * Summary:
1004:.\Generated_Source\PSoC4/CapSense_1_CSHL.c ****     *  Returns position value calculated accoring index of maximum element and API
1005:.\Generated_Source\PSoC4/CapSense_1_CSHL.c ****     *  resolution.
1006:.\Generated_Source\PSoC4/CapSense_1_CSHL.c ****     *
1007:.\Generated_Source\PSoC4/CapSense_1_CSHL.c ****     * Parameters:
1008:.\Generated_Source\PSoC4/CapSense_1_CSHL.c ****     *  type:  widget type.
1009:.\Generated_Source\PSoC4/CapSense_1_CSHL.c ****     *  diplex:  pointer to diplex table.
1010:.\Generated_Source\PSoC4/CapSense_1_CSHL.c ****     *  maximum:  Index of maximum element within centroid.
1011:.\Generated_Source\PSoC4/CapSense_1_CSHL.c ****     *  offset:   Start index of cetroid in CapSense_1_SensorSignal[] array.
1012:.\Generated_Source\PSoC4/CapSense_1_CSHL.c ****     *  count:    Number of elements within centroid.
1013:.\Generated_Source\PSoC4/CapSense_1_CSHL.c ****     *  resolution:  multiplicator calculated according to centroid type and
1014:.\Generated_Source\PSoC4/CapSense_1_CSHL.c ****     *  API resolution.
1015:.\Generated_Source\PSoC4/CapSense_1_CSHL.c ****     *  noiseThreshold:  Noise threshould.
1016:.\Generated_Source\PSoC4/CapSense_1_CSHL.c ****     * 
1017:.\Generated_Source\PSoC4/CapSense_1_CSHL.c ****     * Return:
1018:.\Generated_Source\PSoC4/CapSense_1_CSHL.c ****     *  Returns position value of the slider.
1019:.\Generated_Source\PSoC4/CapSense_1_CSHL.c ****     * 
1020:.\Generated_Source\PSoC4/CapSense_1_CSHL.c ****     *
1021:.\Generated_Source\PSoC4/CapSense_1_CSHL.c ****     * Reentrant:
1022:.\Generated_Source\PSoC4/CapSense_1_CSHL.c ****     *  No.
1023:.\Generated_Source\PSoC4/CapSense_1_CSHL.c ****     *
1024:.\Generated_Source\PSoC4/CapSense_1_CSHL.c ****     *******************************************************************************/
1025:.\Generated_Source\PSoC4/CapSense_1_CSHL.c ****     uint8 CapSense_1_CalcCentroid(uint8 maximum, uint8 offset, 
1026:.\Generated_Source\PSoC4/CapSense_1_CSHL.c ****                                         uint8 count, uint16 resolution, uint8 noiseThreshold)
1027:.\Generated_Source\PSoC4/CapSense_1_CSHL.c ****     {
 1524              		.loc 1 1027 0
 1525              		.cfi_startproc
 1526 0000 90B5     		push	{r4, r7, lr}
 1527              	.LCFI36:
 1528              		.cfi_def_cfa_offset 12
 1529              		.cfi_offset 4, -12
 1530              		.cfi_offset 7, -8
ARM GAS  C:\Users\maxk\AppData\Local\Temp\ccw8u2Eq.s 			page 46


 1531              		.cfi_offset 14, -4
 1532 0002 87B0     		sub	sp, sp, #28
 1533              	.LCFI37:
 1534              		.cfi_def_cfa_offset 40
 1535 0004 00AF     		add	r7, sp, #0
 1536              	.LCFI38:
 1537              		.cfi_def_cfa_register 7
 1538 0006 8446     		mov	ip, r0
 1539 0008 081C     		mov	r0, r1
 1540 000a 111C     		mov	r1, r2
 1541 000c 1A1C     		mov	r2, r3
 1542 000e FB1D     		add	r3, r7, #7
 1543 0010 6446     		mov	r4, ip
 1544 0012 1C70     		strb	r4, [r3]
 1545 0014 BB1D     		add	r3, r7, #6
 1546 0016 1870     		strb	r0, [r3]
 1547 0018 7B1D     		add	r3, r7, #5
 1548 001a 1970     		strb	r1, [r3]
 1549 001c BB1C     		add	r3, r7, #2
 1550 001e 1A80     		strh	r2, [r3]
1028:.\Generated_Source\PSoC4/CapSense_1_CSHL.c ****         #if ((CapSense_1_TOTAL_LINEAR_SLIDERS_COUNT > 0u) || (CapSense_1_TOTAL_TOUCH_PADS_COUNT > 0
1029:.\Generated_Source\PSoC4/CapSense_1_CSHL.c ****             uint8 posPrev;
1030:.\Generated_Source\PSoC4/CapSense_1_CSHL.c ****             uint8 posNext;
1031:.\Generated_Source\PSoC4/CapSense_1_CSHL.c ****         #endif /* ((CapSense_1_TOTAL_LINEAR_SLIDERS_COUNT>0u) || (CapSense_1_TOTAL_TOUCH_PADS_COUNT
1032:.\Generated_Source\PSoC4/CapSense_1_CSHL.c ****                
1033:.\Generated_Source\PSoC4/CapSense_1_CSHL.c ****         #if (CapSense_1_IS_DIPLEX_SLIDER)                
1034:.\Generated_Source\PSoC4/CapSense_1_CSHL.c ****             uint8 pos;
1035:.\Generated_Source\PSoC4/CapSense_1_CSHL.c ****         #endif /* (CapSense_1_IS_DIPLEX_SLIDER) */
1036:.\Generated_Source\PSoC4/CapSense_1_CSHL.c **** 
1037:.\Generated_Source\PSoC4/CapSense_1_CSHL.c ****         uint8 position;
1038:.\Generated_Source\PSoC4/CapSense_1_CSHL.c ****         int32 numerator;
1039:.\Generated_Source\PSoC4/CapSense_1_CSHL.c ****         int32 denominator;
1040:.\Generated_Source\PSoC4/CapSense_1_CSHL.c ****         uint8 *startOfSlider = &CapSense_1_SensorSignal[offset];
 1551              		.loc 1 1040 0
 1552 0020 BB1D     		add	r3, r7, #6
 1553 0022 1A78     		ldrb	r2, [r3]
 1554 0024 554B     		ldr	r3, .L92
 1555 0026 D318     		add	r3, r2, r3
 1556 0028 7B61     		str	r3, [r7, #20]
1041:.\Generated_Source\PSoC4/CapSense_1_CSHL.c ****                     
1042:.\Generated_Source\PSoC4/CapSense_1_CSHL.c ****         #if (CapSense_1_ADD_SLIDER_TYPE)
1043:.\Generated_Source\PSoC4/CapSense_1_CSHL.c ****             if(type == CapSense_1_TYPE_RADIAL_SLIDER)
1044:.\Generated_Source\PSoC4/CapSense_1_CSHL.c ****             {
1045:.\Generated_Source\PSoC4/CapSense_1_CSHL.c ****         #endif /* (CapSense_1_ADD_SLIDER_TYPE) */
1046:.\Generated_Source\PSoC4/CapSense_1_CSHL.c **** 
1047:.\Generated_Source\PSoC4/CapSense_1_CSHL.c ****             #if (CapSense_1_TOTAL_RADIAL_SLIDERS_COUNT > 0u)                
1048:.\Generated_Source\PSoC4/CapSense_1_CSHL.c ****                 /* Copy Signal for found centriod */
1049:.\Generated_Source\PSoC4/CapSense_1_CSHL.c ****                 CapSense_1_centroid[CapSense_1_POS] = startOfSlider[maximum];
1050:.\Generated_Source\PSoC4/CapSense_1_CSHL.c ****                  
1051:.\Generated_Source\PSoC4/CapSense_1_CSHL.c ****                 /* Check borders for ROTARY Slider */
1052:.\Generated_Source\PSoC4/CapSense_1_CSHL.c ****                 if (maximum == 0u)                   /* Start of centroid */
1053:.\Generated_Source\PSoC4/CapSense_1_CSHL.c ****                 { 
1054:.\Generated_Source\PSoC4/CapSense_1_CSHL.c ****                     CapSense_1_centroid[CapSense_1_POS_PREV] = startOfSlider[count - 1u];
1055:.\Generated_Source\PSoC4/CapSense_1_CSHL.c ****                     CapSense_1_centroid[CapSense_1_POS_NEXT] = startOfSlider[maximum + 1u];
1056:.\Generated_Source\PSoC4/CapSense_1_CSHL.c ****                 }
1057:.\Generated_Source\PSoC4/CapSense_1_CSHL.c ****                 else if (maximum == (count - 1u))    /* End of centroid */
1058:.\Generated_Source\PSoC4/CapSense_1_CSHL.c ****                 {
ARM GAS  C:\Users\maxk\AppData\Local\Temp\ccw8u2Eq.s 			page 47


1059:.\Generated_Source\PSoC4/CapSense_1_CSHL.c ****                     CapSense_1_centroid[CapSense_1_POS_PREV] = startOfSlider[maximum - 1u];
1060:.\Generated_Source\PSoC4/CapSense_1_CSHL.c ****                     CapSense_1_centroid[CapSense_1_POS_NEXT] = startOfSlider[0u];
1061:.\Generated_Source\PSoC4/CapSense_1_CSHL.c ****                 }
1062:.\Generated_Source\PSoC4/CapSense_1_CSHL.c ****                 else                                /* Not first Not last */
1063:.\Generated_Source\PSoC4/CapSense_1_CSHL.c ****                 {
1064:.\Generated_Source\PSoC4/CapSense_1_CSHL.c ****                     CapSense_1_centroid[CapSense_1_POS_PREV] = startOfSlider[maximum - 1u];
1065:.\Generated_Source\PSoC4/CapSense_1_CSHL.c ****                     CapSense_1_centroid[CapSense_1_POS_NEXT] = startOfSlider[maximum + 1u];
1066:.\Generated_Source\PSoC4/CapSense_1_CSHL.c ****                 }
1067:.\Generated_Source\PSoC4/CapSense_1_CSHL.c ****             #endif /* (CapSense_1_TOTAL_RADIAL_SLIDERS_COUNT > 0u) */
1068:.\Generated_Source\PSoC4/CapSense_1_CSHL.c **** 
1069:.\Generated_Source\PSoC4/CapSense_1_CSHL.c ****         #if (CapSense_1_ADD_SLIDER_TYPE)
1070:.\Generated_Source\PSoC4/CapSense_1_CSHL.c ****             }
1071:.\Generated_Source\PSoC4/CapSense_1_CSHL.c ****             else
1072:.\Generated_Source\PSoC4/CapSense_1_CSHL.c ****             {
1073:.\Generated_Source\PSoC4/CapSense_1_CSHL.c ****         #endif /* (CapSense_1_ADD_SLIDER_TYPE) */
1074:.\Generated_Source\PSoC4/CapSense_1_CSHL.c **** 
1075:.\Generated_Source\PSoC4/CapSense_1_CSHL.c ****             #if ((CapSense_1_TOTAL_LINEAR_SLIDERS_COUNT > 0u) || (CapSense_1_TOTAL_TOUCH_PADS_COUNT
1076:.\Generated_Source\PSoC4/CapSense_1_CSHL.c ****                 #if (CapSense_1_IS_DIPLEX_SLIDER && CapSense_1_IS_NON_DIPLEX_SLIDER)               
1077:.\Generated_Source\PSoC4/CapSense_1_CSHL.c ****                     /* Calculate next and previous near to maximum */
1078:.\Generated_Source\PSoC4/CapSense_1_CSHL.c ****                     if(diplex == 0u)
1079:.\Generated_Source\PSoC4/CapSense_1_CSHL.c ****                     {
1080:.\Generated_Source\PSoC4/CapSense_1_CSHL.c ****                         pos     = maximum;
1081:.\Generated_Source\PSoC4/CapSense_1_CSHL.c ****                         posPrev = maximum - 1u;
1082:.\Generated_Source\PSoC4/CapSense_1_CSHL.c ****                         posNext = maximum + 1u; 
1083:.\Generated_Source\PSoC4/CapSense_1_CSHL.c ****                     }
1084:.\Generated_Source\PSoC4/CapSense_1_CSHL.c ****                     else
1085:.\Generated_Source\PSoC4/CapSense_1_CSHL.c ****                     {
1086:.\Generated_Source\PSoC4/CapSense_1_CSHL.c ****                         pos     = diplex[maximum];
1087:.\Generated_Source\PSoC4/CapSense_1_CSHL.c ****                         posPrev = diplex[maximum - 1u];
1088:.\Generated_Source\PSoC4/CapSense_1_CSHL.c ****                         posNext = diplex[maximum + 1u];
1089:.\Generated_Source\PSoC4/CapSense_1_CSHL.c ****                         count <<= 1u;
1090:.\Generated_Source\PSoC4/CapSense_1_CSHL.c ****                     }                    
1091:.\Generated_Source\PSoC4/CapSense_1_CSHL.c ****                 #elif (CapSense_1_IS_DIPLEX_SLIDER)
1092:.\Generated_Source\PSoC4/CapSense_1_CSHL.c ****                     /* Calculate next and previous near to maximum */
1093:.\Generated_Source\PSoC4/CapSense_1_CSHL.c ****                     pos     = diplex[maximum];
1094:.\Generated_Source\PSoC4/CapSense_1_CSHL.c ****                     posPrev = diplex[maximum - 1u];
1095:.\Generated_Source\PSoC4/CapSense_1_CSHL.c ****                     posNext = diplex[maximum + 1u];
1096:.\Generated_Source\PSoC4/CapSense_1_CSHL.c ****                     count <<= 1u;                    
1097:.\Generated_Source\PSoC4/CapSense_1_CSHL.c ****                 #else                    
1098:.\Generated_Source\PSoC4/CapSense_1_CSHL.c ****                     /* Calculate next and previous near to maximum */
1099:.\Generated_Source\PSoC4/CapSense_1_CSHL.c ****                     posPrev = maximum - 1u;
 1557              		.loc 1 1099 0
 1558 002a 3B1C     		mov	r3, r7
 1559 002c 0933     		add	r3, r3, #9
 1560 002e FA1D     		add	r2, r7, #7
 1561 0030 1278     		ldrb	r2, [r2]
 1562 0032 013A     		sub	r2, r2, #1
 1563 0034 1A70     		strb	r2, [r3]
1100:.\Generated_Source\PSoC4/CapSense_1_CSHL.c ****                     posNext = maximum + 1u; 
 1564              		.loc 1 1100 0
 1565 0036 3B1C     		mov	r3, r7
 1566 0038 0A33     		add	r3, r3, #10
 1567 003a FA1D     		add	r2, r7, #7
 1568 003c 1278     		ldrb	r2, [r2]
 1569 003e 0132     		add	r2, r2, #1
 1570 0040 1A70     		strb	r2, [r3]
1101:.\Generated_Source\PSoC4/CapSense_1_CSHL.c ****                 #endif /* (CapSense_1_IS_DIPLEX_SLIDER && CapSense_1_IS_NON_DIPLEX_SLIDER) */
ARM GAS  C:\Users\maxk\AppData\Local\Temp\ccw8u2Eq.s 			page 48


1102:.\Generated_Source\PSoC4/CapSense_1_CSHL.c ****                         
1103:.\Generated_Source\PSoC4/CapSense_1_CSHL.c ****                 /* Copy Signal for found centriod */
1104:.\Generated_Source\PSoC4/CapSense_1_CSHL.c ****                 #if (CapSense_1_IS_DIPLEX_SLIDER)
1105:.\Generated_Source\PSoC4/CapSense_1_CSHL.c ****                     CapSense_1_centroid[CapSense_1_POS] = startOfSlider[pos];
1106:.\Generated_Source\PSoC4/CapSense_1_CSHL.c ****                 #else
1107:.\Generated_Source\PSoC4/CapSense_1_CSHL.c ****                     CapSense_1_centroid[CapSense_1_POS] = startOfSlider[maximum];
 1571              		.loc 1 1107 0
 1572 0042 FB1D     		add	r3, r7, #7
 1573 0044 1A78     		ldrb	r2, [r3]
 1574 0046 7B69     		ldr	r3, [r7, #20]
 1575 0048 D318     		add	r3, r2, r3
 1576 004a 1A78     		ldrb	r2, [r3]
 1577 004c 4C4B     		ldr	r3, .L92+4
 1578 004e 5A70     		strb	r2, [r3, #1]
1108:.\Generated_Source\PSoC4/CapSense_1_CSHL.c ****                 #endif /* (CapSense_1_IS_DIPLEX_SLIDER) */
1109:.\Generated_Source\PSoC4/CapSense_1_CSHL.c ****                     
1110:.\Generated_Source\PSoC4/CapSense_1_CSHL.c ****                 /* Check borders for LINEAR Slider */
1111:.\Generated_Source\PSoC4/CapSense_1_CSHL.c ****                 if (maximum == 0u)                   /* Start of centroid */
 1579              		.loc 1 1111 0
 1580 0050 FB1D     		add	r3, r7, #7
 1581 0052 1B78     		ldrb	r3, [r3]
 1582 0054 002B     		cmp	r3, #0
 1583 0056 0BD1     		bne	.L84
1112:.\Generated_Source\PSoC4/CapSense_1_CSHL.c ****                 { 
1113:.\Generated_Source\PSoC4/CapSense_1_CSHL.c ****                     CapSense_1_centroid[CapSense_1_POS_PREV] = 0u;
 1584              		.loc 1 1113 0
 1585 0058 494B     		ldr	r3, .L92+4
 1586 005a 0022     		mov	r2, #0
 1587 005c 1A70     		strb	r2, [r3]
1114:.\Generated_Source\PSoC4/CapSense_1_CSHL.c ****                     CapSense_1_centroid[CapSense_1_POS_NEXT] = startOfSlider[posNext];
 1588              		.loc 1 1114 0
 1589 005e 3B1C     		mov	r3, r7
 1590 0060 0A33     		add	r3, r3, #10
 1591 0062 1A78     		ldrb	r2, [r3]
 1592 0064 7B69     		ldr	r3, [r7, #20]
 1593 0066 D318     		add	r3, r2, r3
 1594 0068 1A78     		ldrb	r2, [r3]
 1595 006a 454B     		ldr	r3, .L92+4
 1596 006c 9A70     		strb	r2, [r3, #2]
 1597 006e 22E0     		b	.L85
 1598              	.L84:
1115:.\Generated_Source\PSoC4/CapSense_1_CSHL.c ****                 }
1116:.\Generated_Source\PSoC4/CapSense_1_CSHL.c ****                 else if (maximum == ((count) - 1u)) /* End of centroid */
 1599              		.loc 1 1116 0
 1600 0070 FB1D     		add	r3, r7, #7
 1601 0072 1A78     		ldrb	r2, [r3]
 1602 0074 7B1D     		add	r3, r7, #5
 1603 0076 1B78     		ldrb	r3, [r3]
 1604 0078 013B     		sub	r3, r3, #1
 1605 007a 9A42     		cmp	r2, r3
 1606 007c 0BD1     		bne	.L86
1117:.\Generated_Source\PSoC4/CapSense_1_CSHL.c ****                 {
1118:.\Generated_Source\PSoC4/CapSense_1_CSHL.c ****                     CapSense_1_centroid[CapSense_1_POS_PREV] = startOfSlider[posPrev];
 1607              		.loc 1 1118 0
 1608 007e 3B1C     		mov	r3, r7
 1609 0080 0933     		add	r3, r3, #9
 1610 0082 1A78     		ldrb	r2, [r3]
ARM GAS  C:\Users\maxk\AppData\Local\Temp\ccw8u2Eq.s 			page 49


 1611 0084 7B69     		ldr	r3, [r7, #20]
 1612 0086 D318     		add	r3, r2, r3
 1613 0088 1A78     		ldrb	r2, [r3]
 1614 008a 3D4B     		ldr	r3, .L92+4
 1615 008c 1A70     		strb	r2, [r3]
1119:.\Generated_Source\PSoC4/CapSense_1_CSHL.c ****                     CapSense_1_centroid[CapSense_1_POS_NEXT] = 0u;
 1616              		.loc 1 1119 0
 1617 008e 3C4B     		ldr	r3, .L92+4
 1618 0090 0022     		mov	r2, #0
 1619 0092 9A70     		strb	r2, [r3, #2]
 1620 0094 0FE0     		b	.L85
 1621              	.L86:
1120:.\Generated_Source\PSoC4/CapSense_1_CSHL.c ****                 }
1121:.\Generated_Source\PSoC4/CapSense_1_CSHL.c ****                 else                                /* Not first Not last */
1122:.\Generated_Source\PSoC4/CapSense_1_CSHL.c ****                 {
1123:.\Generated_Source\PSoC4/CapSense_1_CSHL.c ****                     CapSense_1_centroid[CapSense_1_POS_PREV] = startOfSlider[posPrev];
 1622              		.loc 1 1123 0
 1623 0096 3B1C     		mov	r3, r7
 1624 0098 0933     		add	r3, r3, #9
 1625 009a 1A78     		ldrb	r2, [r3]
 1626 009c 7B69     		ldr	r3, [r7, #20]
 1627 009e D318     		add	r3, r2, r3
 1628 00a0 1A78     		ldrb	r2, [r3]
 1629 00a2 374B     		ldr	r3, .L92+4
 1630 00a4 1A70     		strb	r2, [r3]
1124:.\Generated_Source\PSoC4/CapSense_1_CSHL.c ****                     CapSense_1_centroid[CapSense_1_POS_NEXT] = startOfSlider[posNext];
 1631              		.loc 1 1124 0
 1632 00a6 3B1C     		mov	r3, r7
 1633 00a8 0A33     		add	r3, r3, #10
 1634 00aa 1A78     		ldrb	r2, [r3]
 1635 00ac 7B69     		ldr	r3, [r7, #20]
 1636 00ae D318     		add	r3, r2, r3
 1637 00b0 1A78     		ldrb	r2, [r3]
 1638 00b2 334B     		ldr	r3, .L92+4
 1639 00b4 9A70     		strb	r2, [r3, #2]
 1640              	.L85:
1125:.\Generated_Source\PSoC4/CapSense_1_CSHL.c ****                 }
1126:.\Generated_Source\PSoC4/CapSense_1_CSHL.c ****             #endif /* ((CapSense_1_TOTAL_LINEAR_SLIDERS_COUNT>0u)||(CapSense_1_TOTAL_TOUCH_PADS_COU
1127:.\Generated_Source\PSoC4/CapSense_1_CSHL.c **** 
1128:.\Generated_Source\PSoC4/CapSense_1_CSHL.c ****         #if (CapSense_1_ADD_SLIDER_TYPE)
1129:.\Generated_Source\PSoC4/CapSense_1_CSHL.c ****             }
1130:.\Generated_Source\PSoC4/CapSense_1_CSHL.c ****         #endif /* (CapSense_1_ADD_SLIDER_TYPE) */
1131:.\Generated_Source\PSoC4/CapSense_1_CSHL.c ****     
1132:.\Generated_Source\PSoC4/CapSense_1_CSHL.c ****         /* Subtract noiseThreshold */
1133:.\Generated_Source\PSoC4/CapSense_1_CSHL.c ****         if(CapSense_1_centroid[CapSense_1_POS_PREV] > noiseThreshold)
 1641              		.loc 1 1133 0
 1642 00b6 324B     		ldr	r3, .L92+4
 1643 00b8 1B78     		ldrb	r3, [r3]
 1644 00ba 3A1C     		mov	r2, r7
 1645 00bc 2832     		add	r2, r2, #40
 1646 00be 1278     		ldrb	r2, [r2]
 1647 00c0 9A42     		cmp	r2, r3
 1648 00c2 09D2     		bcs	.L87
1134:.\Generated_Source\PSoC4/CapSense_1_CSHL.c ****         {
1135:.\Generated_Source\PSoC4/CapSense_1_CSHL.c ****             CapSense_1_centroid[CapSense_1_POS_PREV] -= noiseThreshold;
 1649              		.loc 1 1135 0
 1650 00c4 2E4B     		ldr	r3, .L92+4
ARM GAS  C:\Users\maxk\AppData\Local\Temp\ccw8u2Eq.s 			page 50


 1651 00c6 1A78     		ldrb	r2, [r3]
 1652 00c8 3B1C     		mov	r3, r7
 1653 00ca 2833     		add	r3, r3, #40
 1654 00cc 1B78     		ldrb	r3, [r3]
 1655 00ce D31A     		sub	r3, r2, r3
 1656 00d0 DAB2     		uxtb	r2, r3
 1657 00d2 2B4B     		ldr	r3, .L92+4
 1658 00d4 1A70     		strb	r2, [r3]
 1659 00d6 02E0     		b	.L88
 1660              	.L87:
1136:.\Generated_Source\PSoC4/CapSense_1_CSHL.c ****         }
1137:.\Generated_Source\PSoC4/CapSense_1_CSHL.c ****         else
1138:.\Generated_Source\PSoC4/CapSense_1_CSHL.c ****         {
1139:.\Generated_Source\PSoC4/CapSense_1_CSHL.c ****             CapSense_1_centroid[CapSense_1_POS_PREV] = 0u;
 1661              		.loc 1 1139 0
 1662 00d8 294B     		ldr	r3, .L92+4
 1663 00da 0022     		mov	r2, #0
 1664 00dc 1A70     		strb	r2, [r3]
 1665              	.L88:
1140:.\Generated_Source\PSoC4/CapSense_1_CSHL.c ****         }
1141:.\Generated_Source\PSoC4/CapSense_1_CSHL.c ****         
1142:.\Generated_Source\PSoC4/CapSense_1_CSHL.c ****         /* Maximum always grater than fingerThreshold, so grate than noiseThreshold */
1143:.\Generated_Source\PSoC4/CapSense_1_CSHL.c ****         CapSense_1_centroid[CapSense_1_POS] -= noiseThreshold;
 1666              		.loc 1 1143 0
 1667 00de 284B     		ldr	r3, .L92+4
 1668 00e0 5A78     		ldrb	r2, [r3, #1]
 1669 00e2 3B1C     		mov	r3, r7
 1670 00e4 2833     		add	r3, r3, #40
 1671 00e6 1B78     		ldrb	r3, [r3]
 1672 00e8 D31A     		sub	r3, r2, r3
 1673 00ea DAB2     		uxtb	r2, r3
 1674 00ec 244B     		ldr	r3, .L92+4
 1675 00ee 5A70     		strb	r2, [r3, #1]
1144:.\Generated_Source\PSoC4/CapSense_1_CSHL.c ****         
1145:.\Generated_Source\PSoC4/CapSense_1_CSHL.c ****         /* Subtract noiseThreshold */
1146:.\Generated_Source\PSoC4/CapSense_1_CSHL.c ****         if(CapSense_1_centroid[CapSense_1_POS_NEXT] > noiseThreshold)
 1676              		.loc 1 1146 0
 1677 00f0 234B     		ldr	r3, .L92+4
 1678 00f2 9B78     		ldrb	r3, [r3, #2]
 1679 00f4 3A1C     		mov	r2, r7
 1680 00f6 2832     		add	r2, r2, #40
 1681 00f8 1278     		ldrb	r2, [r2]
 1682 00fa 9A42     		cmp	r2, r3
 1683 00fc 09D2     		bcs	.L89
1147:.\Generated_Source\PSoC4/CapSense_1_CSHL.c ****         {
1148:.\Generated_Source\PSoC4/CapSense_1_CSHL.c ****             CapSense_1_centroid[CapSense_1_POS_NEXT] -= noiseThreshold;
 1684              		.loc 1 1148 0
 1685 00fe 204B     		ldr	r3, .L92+4
 1686 0100 9A78     		ldrb	r2, [r3, #2]
 1687 0102 3B1C     		mov	r3, r7
 1688 0104 2833     		add	r3, r3, #40
 1689 0106 1B78     		ldrb	r3, [r3]
 1690 0108 D31A     		sub	r3, r2, r3
 1691 010a DAB2     		uxtb	r2, r3
 1692 010c 1C4B     		ldr	r3, .L92+4
 1693 010e 9A70     		strb	r2, [r3, #2]
 1694 0110 02E0     		b	.L90
ARM GAS  C:\Users\maxk\AppData\Local\Temp\ccw8u2Eq.s 			page 51


 1695              	.L89:
1149:.\Generated_Source\PSoC4/CapSense_1_CSHL.c ****         }
1150:.\Generated_Source\PSoC4/CapSense_1_CSHL.c ****         else
1151:.\Generated_Source\PSoC4/CapSense_1_CSHL.c ****         {
1152:.\Generated_Source\PSoC4/CapSense_1_CSHL.c ****             CapSense_1_centroid[CapSense_1_POS_NEXT] = 0u;
 1696              		.loc 1 1152 0
 1697 0112 1B4B     		ldr	r3, .L92+4
 1698 0114 0022     		mov	r2, #0
 1699 0116 9A70     		strb	r2, [r3, #2]
 1700              	.L90:
1153:.\Generated_Source\PSoC4/CapSense_1_CSHL.c ****         }
1154:.\Generated_Source\PSoC4/CapSense_1_CSHL.c ****         
1155:.\Generated_Source\PSoC4/CapSense_1_CSHL.c ****         
1156:.\Generated_Source\PSoC4/CapSense_1_CSHL.c ****         /* Si+1 - Si-1 */
1157:.\Generated_Source\PSoC4/CapSense_1_CSHL.c ****         numerator = (int32) CapSense_1_centroid[CapSense_1_POS_NEXT] - 
 1701              		.loc 1 1157 0
 1702 0118 194B     		ldr	r3, .L92+4
 1703 011a 9B78     		ldrb	r3, [r3, #2]
 1704 011c 1A1C     		mov	r2, r3
1158:.\Generated_Source\PSoC4/CapSense_1_CSHL.c ****                     (int32) CapSense_1_centroid[CapSense_1_POS_PREV];
 1705              		.loc 1 1158 0
 1706 011e 184B     		ldr	r3, .L92+4
 1707 0120 1B78     		ldrb	r3, [r3]
 1708              		.loc 1 1157 0
 1709 0122 D31A     		sub	r3, r2, r3
 1710 0124 FB60     		str	r3, [r7, #12]
1159:.\Generated_Source\PSoC4/CapSense_1_CSHL.c ****         
1160:.\Generated_Source\PSoC4/CapSense_1_CSHL.c ****         /* Si+1 + Si + Si-1 */
1161:.\Generated_Source\PSoC4/CapSense_1_CSHL.c ****         denominator = (int32) CapSense_1_centroid[CapSense_1_POS_PREV] + 
 1711              		.loc 1 1161 0
 1712 0126 164B     		ldr	r3, .L92+4
 1713 0128 1B78     		ldrb	r3, [r3]
1162:.\Generated_Source\PSoC4/CapSense_1_CSHL.c ****                       (int32) CapSense_1_centroid[CapSense_1_POS] + 
 1714              		.loc 1 1162 0
 1715 012a 1A1C     		mov	r2, r3
 1716 012c 144B     		ldr	r3, .L92+4
 1717 012e 5B78     		ldrb	r3, [r3, #1]
 1718 0130 D218     		add	r2, r2, r3
1163:.\Generated_Source\PSoC4/CapSense_1_CSHL.c ****                       (int32) CapSense_1_centroid[CapSense_1_POS_NEXT];
 1719              		.loc 1 1163 0
 1720 0132 134B     		ldr	r3, .L92+4
 1721 0134 9B78     		ldrb	r3, [r3, #2]
 1722              		.loc 1 1161 0
 1723 0136 D318     		add	r3, r2, r3
 1724 0138 3B61     		str	r3, [r7, #16]
1164:.\Generated_Source\PSoC4/CapSense_1_CSHL.c ****         
1165:.\Generated_Source\PSoC4/CapSense_1_CSHL.c ****         /* (numerator/denominator) + maximum */
1166:.\Generated_Source\PSoC4/CapSense_1_CSHL.c ****         denominator = (numerator << 8u)/denominator + ((uint16) maximum << 8u);
 1725              		.loc 1 1166 0
 1726 013a FB68     		ldr	r3, [r7, #12]
 1727 013c 1B02     		lsl	r3, r3, #8
 1728 013e 181C     		mov	r0, r3
 1729 0140 3969     		ldr	r1, [r7, #16]
 1730 0142 FFF7FEFF 		bl	__aeabi_idiv
 1731 0146 031C     		mov	r3, r0
 1732 0148 1A1C     		mov	r2, r3
 1733 014a FB1D     		add	r3, r7, #7
ARM GAS  C:\Users\maxk\AppData\Local\Temp\ccw8u2Eq.s 			page 52


 1734 014c 1B78     		ldrb	r3, [r3]
 1735 014e 1B02     		lsl	r3, r3, #8
 1736 0150 D318     		add	r3, r2, r3
 1737 0152 3B61     		str	r3, [r7, #16]
1167:.\Generated_Source\PSoC4/CapSense_1_CSHL.c ****         
1168:.\Generated_Source\PSoC4/CapSense_1_CSHL.c ****         #if(CapSense_1_TOTAL_RADIAL_SLIDERS_COUNT > 0u)
1169:.\Generated_Source\PSoC4/CapSense_1_CSHL.c ****             /* Only required for RADIAL Slider */
1170:.\Generated_Source\PSoC4/CapSense_1_CSHL.c ****             if(denominator < 0)
1171:.\Generated_Source\PSoC4/CapSense_1_CSHL.c ****             {
1172:.\Generated_Source\PSoC4/CapSense_1_CSHL.c ****                 denominator += ((uint16) count << 8u);
1173:.\Generated_Source\PSoC4/CapSense_1_CSHL.c ****             }
1174:.\Generated_Source\PSoC4/CapSense_1_CSHL.c ****         #endif /* (CapSense_1_TOTAL_RADIAL_SLIDERS_COUNT > 0u) */
1175:.\Generated_Source\PSoC4/CapSense_1_CSHL.c ****         
1176:.\Generated_Source\PSoC4/CapSense_1_CSHL.c ****         denominator *= resolution;
 1738              		.loc 1 1176 0
 1739 0154 BB1C     		add	r3, r7, #2
 1740 0156 1A88     		ldrh	r2, [r3]
 1741 0158 3B69     		ldr	r3, [r7, #16]
 1742 015a 5343     		mul	r3, r2
 1743 015c 3B61     		str	r3, [r7, #16]
1177:.\Generated_Source\PSoC4/CapSense_1_CSHL.c ****         
1178:.\Generated_Source\PSoC4/CapSense_1_CSHL.c ****         /* Round the relust and put it to uint8 */
1179:.\Generated_Source\PSoC4/CapSense_1_CSHL.c ****         position = ((uint8) HI16(denominator + CapSense_1_CENTROID_ROUND_VALUE));
 1744              		.loc 1 1179 0
 1745 015e 3B69     		ldr	r3, [r7, #16]
 1746 0160 FE22     		mov	r2, #254
 1747 0162 D201     		lsl	r2, r2, #7
 1748 0164 9B18     		add	r3, r3, r2
 1749 0166 1A0C     		lsr	r2, r3, #16
 1750 0168 3B1C     		mov	r3, r7
 1751 016a 0B33     		add	r3, r3, #11
 1752 016c 1A70     		strb	r2, [r3]
1180:.\Generated_Source\PSoC4/CapSense_1_CSHL.c **** 
1181:.\Generated_Source\PSoC4/CapSense_1_CSHL.c ****         return (position);
 1753              		.loc 1 1181 0
 1754 016e 3B1C     		mov	r3, r7
 1755 0170 0B33     		add	r3, r3, #11
 1756 0172 1B78     		ldrb	r3, [r3]
1182:.\Generated_Source\PSoC4/CapSense_1_CSHL.c ****     }    
 1757              		.loc 1 1182 0
 1758 0174 181C     		mov	r0, r3
 1759 0176 BD46     		mov	sp, r7
 1760 0178 07B0     		add	sp, sp, #28
 1761              		@ sp needed for prologue
 1762 017a 90BD     		pop	{r4, r7, pc}
 1763              	.L93:
 1764              		.align	2
 1765              	.L92:
 1766 017c 00000000 		.word	CapSense_1_SensorSignal
 1767 0180 20000000 		.word	CapSense_1_centroid
 1768              		.cfi_endproc
 1769              	.LFE12:
 1770              		.size	CapSense_1_CalcCentroid, .-CapSense_1_CalcCentroid
 1771              		.section	.text.CapSense_1_GetCentroidPos,"ax",%progbits
 1772              		.align	2
 1773              		.global	CapSense_1_GetCentroidPos
 1774              		.code	16
ARM GAS  C:\Users\maxk\AppData\Local\Temp\ccw8u2Eq.s 			page 53


 1775              		.thumb_func
 1776              		.type	CapSense_1_GetCentroidPos, %function
 1777              	CapSense_1_GetCentroidPos:
 1778              	.LFB13:
1183:.\Generated_Source\PSoC4/CapSense_1_CSHL.c **** #endif /* (CapSense_1_TOTAL_CENTROIDS_COUNT) */
1184:.\Generated_Source\PSoC4/CapSense_1_CSHL.c **** 
1185:.\Generated_Source\PSoC4/CapSense_1_CSHL.c **** 
1186:.\Generated_Source\PSoC4/CapSense_1_CSHL.c **** #if(CapSense_1_TOTAL_LINEAR_SLIDERS_COUNT > 0u)
1187:.\Generated_Source\PSoC4/CapSense_1_CSHL.c ****     /*******************************************************************************
1188:.\Generated_Source\PSoC4/CapSense_1_CSHL.c ****     * Function Name: CapSense_1_GetCentroidPos
1189:.\Generated_Source\PSoC4/CapSense_1_CSHL.c ****     ********************************************************************************
1190:.\Generated_Source\PSoC4/CapSense_1_CSHL.c ****     *
1191:.\Generated_Source\PSoC4/CapSense_1_CSHL.c ****     * Summary:
1192:.\Generated_Source\PSoC4/CapSense_1_CSHL.c ****     *  Checks the CapSense_1_Signal[ ] array for a centroid within
1193:.\Generated_Source\PSoC4/CapSense_1_CSHL.c ****     *  slider specified range. The centroid position is calculated to the resolution
1194:.\Generated_Source\PSoC4/CapSense_1_CSHL.c ****     *  specified in the CapSense customizer. The position filters are applied to the
1195:.\Generated_Source\PSoC4/CapSense_1_CSHL.c ****     *  result if enabled.
1196:.\Generated_Source\PSoC4/CapSense_1_CSHL.c ****     *
1197:.\Generated_Source\PSoC4/CapSense_1_CSHL.c ****     * Parameters:
1198:.\Generated_Source\PSoC4/CapSense_1_CSHL.c ****     *  widget:  Widget number.
1199:.\Generated_Source\PSoC4/CapSense_1_CSHL.c ****     *  For every linear slider widget there are defines in this format:
1200:.\Generated_Source\PSoC4/CapSense_1_CSHL.c ****     *  #define CapSense_1_LS__"widget_name"            5
1201:.\Generated_Source\PSoC4/CapSense_1_CSHL.c ****     * 
1202:.\Generated_Source\PSoC4/CapSense_1_CSHL.c ****     * Return:
1203:.\Generated_Source\PSoC4/CapSense_1_CSHL.c ****     *  Returns position value of the linear slider.
1204:.\Generated_Source\PSoC4/CapSense_1_CSHL.c ****     *
1205:.\Generated_Source\PSoC4/CapSense_1_CSHL.c ****     * Side Effects:
1206:.\Generated_Source\PSoC4/CapSense_1_CSHL.c ****     *  If any sensor within the slider widget is active, the function returns values
1207:.\Generated_Source\PSoC4/CapSense_1_CSHL.c ****     *  from zero to the API resolution value set in the CapSense customizer. If no
1208:.\Generated_Source\PSoC4/CapSense_1_CSHL.c ****     *  sensors are active, the function returns 0xFFFF. If an error occurs during
1209:.\Generated_Source\PSoC4/CapSense_1_CSHL.c ****     *  execution of the centroid/diplexing algorithm, the function returns 0xFFFF.
1210:.\Generated_Source\PSoC4/CapSense_1_CSHL.c ****     *  There are no checks of widget type argument provided to this function.
1211:.\Generated_Source\PSoC4/CapSense_1_CSHL.c ****     *  The unproper widget type provided will cause unexpected position calculations.
1212:.\Generated_Source\PSoC4/CapSense_1_CSHL.c ****     *
1213:.\Generated_Source\PSoC4/CapSense_1_CSHL.c ****     * Note:
1214:.\Generated_Source\PSoC4/CapSense_1_CSHL.c ****     *  If noise counts on the slider segments are greater than the noise
1215:.\Generated_Source\PSoC4/CapSense_1_CSHL.c ****     *  threshold, this subroutine may generate a false centroid result. The noise
1216:.\Generated_Source\PSoC4/CapSense_1_CSHL.c ****     *  threshold should be set carefully (high enough above the noise level) so
1217:.\Generated_Source\PSoC4/CapSense_1_CSHL.c ****     *  that noise will not generate a false centroid.
1218:.\Generated_Source\PSoC4/CapSense_1_CSHL.c ****     *
1219:.\Generated_Source\PSoC4/CapSense_1_CSHL.c ****     * Reentrant:
1220:.\Generated_Source\PSoC4/CapSense_1_CSHL.c ****     *  No.
1221:.\Generated_Source\PSoC4/CapSense_1_CSHL.c ****     *
1222:.\Generated_Source\PSoC4/CapSense_1_CSHL.c ****     *******************************************************************************/
1223:.\Generated_Source\PSoC4/CapSense_1_CSHL.c ****     uint16 CapSense_1_GetCentroidPos(uint8 widget)
1224:.\Generated_Source\PSoC4/CapSense_1_CSHL.c ****     {
 1779              		.loc 1 1224 0
 1780              		.cfi_startproc
 1781 0000 90B5     		push	{r4, r7, lr}
 1782              	.LCFI39:
 1783              		.cfi_def_cfa_offset 12
 1784              		.cfi_offset 4, -12
 1785              		.cfi_offset 7, -8
 1786              		.cfi_offset 14, -4
 1787 0002 87B0     		sub	sp, sp, #28
 1788              	.LCFI40:
 1789              		.cfi_def_cfa_offset 40
ARM GAS  C:\Users\maxk\AppData\Local\Temp\ccw8u2Eq.s 			page 54


 1790 0004 02AF     		add	r7, sp, #8
 1791              	.LCFI41:
 1792              		.cfi_def_cfa 7, 32
 1793 0006 021C     		mov	r2, r0
 1794 0008 FB1D     		add	r3, r7, #7
 1795 000a 1A70     		strb	r2, [r3]
1225:.\Generated_Source\PSoC4/CapSense_1_CSHL.c ****         #if (CapSense_1_IS_DIPLEX_SLIDER)
1226:.\Generated_Source\PSoC4/CapSense_1_CSHL.c ****             const uint8 CYCODE *diplex;
1227:.\Generated_Source\PSoC4/CapSense_1_CSHL.c ****         #endif /* (CapSense_1_IS_DIPLEX_SLIDER) */
1228:.\Generated_Source\PSoC4/CapSense_1_CSHL.c ****                 
1229:.\Generated_Source\PSoC4/CapSense_1_CSHL.c ****         #if (0u != CapSense_1_LINEAR_SLIDERS_POS_FILTERS_MASK)
1230:.\Generated_Source\PSoC4/CapSense_1_CSHL.c ****             uint8 posIndex;
1231:.\Generated_Source\PSoC4/CapSense_1_CSHL.c ****             uint8 firstTimeIndex = CapSense_1_posFiltersData[widget];
 1796              		.loc 1 1231 0
 1797 000c FB1D     		add	r3, r7, #7
 1798 000e 1A78     		ldrb	r2, [r3]
 1799 0010 3B1C     		mov	r3, r7
 1800 0012 0933     		add	r3, r3, #9
 1801 0014 5849     		ldr	r1, .L102
 1802 0016 8A5C     		ldrb	r2, [r1, r2]
 1803 0018 1A70     		strb	r2, [r3]
1232:.\Generated_Source\PSoC4/CapSense_1_CSHL.c ****             uint8 posFiltersMask = CapSense_1_posFiltersMask[widget];  
 1804              		.loc 1 1232 0
 1805 001a FB1D     		add	r3, r7, #7
 1806 001c 1A78     		ldrb	r2, [r3]
 1807 001e 3B1C     		mov	r3, r7
 1808 0020 0A33     		add	r3, r3, #10
 1809 0022 5649     		ldr	r1, .L102+4
 1810 0024 8A5C     		ldrb	r2, [r1, r2]
 1811 0026 1A70     		strb	r2, [r3]
1233:.\Generated_Source\PSoC4/CapSense_1_CSHL.c ****         #endif /* (0u != CapSense_1_LINEAR_SLIDERS_POS_FILTERS_MASK) */
1234:.\Generated_Source\PSoC4/CapSense_1_CSHL.c **** 
1235:.\Generated_Source\PSoC4/CapSense_1_CSHL.c ****         #if ((0u != (CapSense_1_MEDIAN_FILTER & CapSense_1_LINEAR_SLIDERS_POS_FILTERS_MASK)) || \
1236:.\Generated_Source\PSoC4/CapSense_1_CSHL.c ****              (0u != (CapSense_1_AVERAGING_FILTER & CapSense_1_LINEAR_SLIDERS_POS_FILTERS_MASK)))
1237:.\Generated_Source\PSoC4/CapSense_1_CSHL.c ****             uint8 tempPos;
1238:.\Generated_Source\PSoC4/CapSense_1_CSHL.c ****         #endif /* ((0u != (CapSense_1_MEDIAN_FILTER & CapSense_1_LINEAR_SLIDERS_POS_FILTERS_MASK)) 
1239:.\Generated_Source\PSoC4/CapSense_1_CSHL.c ****                *   (0u != (CapSense_1_AVERAGING_FILTER & CapSense_1_LINEAR_SLIDERS_POS_FILTERS_MASK
1240:.\Generated_Source\PSoC4/CapSense_1_CSHL.c ****                */
1241:.\Generated_Source\PSoC4/CapSense_1_CSHL.c **** 
1242:.\Generated_Source\PSoC4/CapSense_1_CSHL.c ****         uint8 maximum;
1243:.\Generated_Source\PSoC4/CapSense_1_CSHL.c ****         uint16 position;
1244:.\Generated_Source\PSoC4/CapSense_1_CSHL.c ****         uint8 offset = CapSense_1_rawDataIndex[widget];
 1812              		.loc 1 1244 0
 1813 0028 FB1D     		add	r3, r7, #7
 1814 002a 1A78     		ldrb	r2, [r3]
 1815 002c 3B1C     		mov	r3, r7
 1816 002e 0E33     		add	r3, r3, #14
 1817 0030 5349     		ldr	r1, .L102+8
 1818 0032 8A5C     		ldrb	r2, [r1, r2]
 1819 0034 1A70     		strb	r2, [r3]
1245:.\Generated_Source\PSoC4/CapSense_1_CSHL.c ****         uint8 count = CapSense_1_numberOfSensors[widget];
 1820              		.loc 1 1245 0
 1821 0036 FB1D     		add	r3, r7, #7
 1822 0038 1A78     		ldrb	r2, [r3]
 1823 003a 3B1C     		mov	r3, r7
 1824 003c 0F33     		add	r3, r3, #15
 1825 003e 5149     		ldr	r1, .L102+12
ARM GAS  C:\Users\maxk\AppData\Local\Temp\ccw8u2Eq.s 			page 55


 1826 0040 8A5C     		ldrb	r2, [r1, r2]
 1827 0042 1A70     		strb	r2, [r3]
1246:.\Generated_Source\PSoC4/CapSense_1_CSHL.c ****                         
1247:.\Generated_Source\PSoC4/CapSense_1_CSHL.c ****         #if (CapSense_1_IS_DIPLEX_SLIDER)
1248:.\Generated_Source\PSoC4/CapSense_1_CSHL.c ****             if(widget < CapSense_1_TOTAL_DIPLEXED_SLIDERS_COUNT)
1249:.\Generated_Source\PSoC4/CapSense_1_CSHL.c ****             {
1250:.\Generated_Source\PSoC4/CapSense_1_CSHL.c ****                 maximum = CapSense_1_diplexTable[widget];
1251:.\Generated_Source\PSoC4/CapSense_1_CSHL.c ****                 diplex = &CapSense_1_diplexTable[maximum];
1252:.\Generated_Source\PSoC4/CapSense_1_CSHL.c ****             }
1253:.\Generated_Source\PSoC4/CapSense_1_CSHL.c ****             else
1254:.\Generated_Source\PSoC4/CapSense_1_CSHL.c ****             {
1255:.\Generated_Source\PSoC4/CapSense_1_CSHL.c ****                 diplex = 0u;
1256:.\Generated_Source\PSoC4/CapSense_1_CSHL.c ****             }
1257:.\Generated_Source\PSoC4/CapSense_1_CSHL.c ****         #endif /* (CapSense_1_IS_DIPLEX_SLIDER) */
1258:.\Generated_Source\PSoC4/CapSense_1_CSHL.c **** 
1259:.\Generated_Source\PSoC4/CapSense_1_CSHL.c ****         /* Find Maximum within centroid */      
1260:.\Generated_Source\PSoC4/CapSense_1_CSHL.c ****         #if (CapSense_1_IS_DIPLEX_SLIDER)        
1261:.\Generated_Source\PSoC4/CapSense_1_CSHL.c ****             maximum = CapSense_1_FindMaximum(offset, count, CapSense_1_fingerThreshold[widget], dip
1262:.\Generated_Source\PSoC4/CapSense_1_CSHL.c ****         #else
1263:.\Generated_Source\PSoC4/CapSense_1_CSHL.c ****             maximum = CapSense_1_FindMaximum(offset, count, CapSense_1_fingerThreshold[widget]);
 1828              		.loc 1 1263 0
 1829 0044 FB1D     		add	r3, r7, #7
 1830 0046 1B78     		ldrb	r3, [r3]
 1831 0048 4F4A     		ldr	r2, .L102+16
 1832 004a D35C     		ldrb	r3, [r2, r3]
 1833 004c 3A1C     		mov	r2, r7
 1834 004e 0E32     		add	r2, r2, #14
 1835 0050 1178     		ldrb	r1, [r2]
 1836 0052 3A1C     		mov	r2, r7
 1837 0054 0F32     		add	r2, r2, #15
 1838 0056 1278     		ldrb	r2, [r2]
 1839 0058 081C     		mov	r0, r1
 1840 005a 111C     		mov	r1, r2
 1841 005c 1A1C     		mov	r2, r3
 1842 005e FFF7FEFF 		bl	CapSense_1_FindMaximum
 1843 0062 031C     		mov	r3, r0
 1844 0064 1A1C     		mov	r2, r3
 1845 0066 3B1C     		mov	r3, r7
 1846 0068 0B33     		add	r3, r3, #11
 1847 006a 1A70     		strb	r2, [r3]
1264:.\Generated_Source\PSoC4/CapSense_1_CSHL.c ****         #endif /* (CapSense_1_IS_DIPLEX_SLIDER) */
1265:.\Generated_Source\PSoC4/CapSense_1_CSHL.c **** 
1266:.\Generated_Source\PSoC4/CapSense_1_CSHL.c ****         if (maximum != 0xFFu)
 1848              		.loc 1 1266 0
 1849 006c 3B1C     		mov	r3, r7
 1850 006e 0B33     		add	r3, r3, #11
 1851 0070 1B78     		ldrb	r3, [r3]
 1852 0072 FF2B     		cmp	r3, #255
 1853 0074 62D0     		beq	.L95
1267:.\Generated_Source\PSoC4/CapSense_1_CSHL.c ****         {
1268:.\Generated_Source\PSoC4/CapSense_1_CSHL.c ****             /* Calculate centroid */
1269:.\Generated_Source\PSoC4/CapSense_1_CSHL.c ****             position = (uint16) CapSense_1_CalcCentroid(maximum, 
 1854              		.loc 1 1269 0
 1855 0076 FB1D     		add	r3, r7, #7
 1856 0078 1A78     		ldrb	r2, [r3]
 1857 007a 444B     		ldr	r3, .L102+20
 1858 007c 5200     		lsl	r2, r2, #1
ARM GAS  C:\Users\maxk\AppData\Local\Temp\ccw8u2Eq.s 			page 56


 1859 007e D35A     		ldrh	r3, [r2, r3]
 1860 0080 FA1D     		add	r2, r7, #7
 1861 0082 1278     		ldrb	r2, [r2]
 1862 0084 4249     		ldr	r1, .L102+24
 1863 0086 895C     		ldrb	r1, [r1, r2]
 1864 0088 8C46     		mov	ip, r1
 1865 008a 3A1C     		mov	r2, r7
 1866 008c 0B32     		add	r2, r2, #11
 1867 008e 1078     		ldrb	r0, [r2]
 1868 0090 3A1C     		mov	r2, r7
 1869 0092 0E32     		add	r2, r2, #14
 1870 0094 1178     		ldrb	r1, [r2]
 1871 0096 3A1C     		mov	r2, r7
 1872 0098 0F32     		add	r2, r2, #15
 1873 009a 1278     		ldrb	r2, [r2]
 1874 009c 6446     		mov	r4, ip
 1875 009e 0094     		str	r4, [sp]
 1876 00a0 FFF7FEFF 		bl	CapSense_1_CalcCentroid
 1877 00a4 031C     		mov	r3, r0
 1878 00a6 1A1C     		mov	r2, r3
 1879 00a8 3B1C     		mov	r3, r7
 1880 00aa 0C33     		add	r3, r3, #12
 1881 00ac 1A80     		strh	r2, [r3]
1270:.\Generated_Source\PSoC4/CapSense_1_CSHL.c ****                          offset, count, CapSense_1_centroidMult[widget], CapSense_1_noiseThreshold[
1271:.\Generated_Source\PSoC4/CapSense_1_CSHL.c **** 
1272:.\Generated_Source\PSoC4/CapSense_1_CSHL.c ****             #if (0u != CapSense_1_LINEAR_SLIDERS_POS_FILTERS_MASK)
1273:.\Generated_Source\PSoC4/CapSense_1_CSHL.c ****                 /* Check if this linear slider has enabled filters */
1274:.\Generated_Source\PSoC4/CapSense_1_CSHL.c ****                 if (0u != (posFiltersMask & CapSense_1_ANY_POS_FILTER))
 1882              		.loc 1 1274 0
 1883 00ae 3B1C     		mov	r3, r7
 1884 00b0 0A33     		add	r3, r3, #10
 1885 00b2 1A78     		ldrb	r2, [r3]
 1886 00b4 1F23     		mov	r3, #31
 1887 00b6 1340     		and	r3, r3, r2
 1888 00b8 002B     		cmp	r3, #0
 1889 00ba 52D0     		beq	.L100
1275:.\Generated_Source\PSoC4/CapSense_1_CSHL.c ****                 {
1276:.\Generated_Source\PSoC4/CapSense_1_CSHL.c ****                     /* Caluclate position to store filters data */
1277:.\Generated_Source\PSoC4/CapSense_1_CSHL.c ****                     posIndex  = firstTimeIndex + 1u;
 1890              		.loc 1 1277 0
 1891 00bc 3B1C     		mov	r3, r7
 1892 00be 0833     		add	r3, r3, #8
 1893 00c0 3A1C     		mov	r2, r7
 1894 00c2 0932     		add	r2, r2, #9
 1895 00c4 1278     		ldrb	r2, [r2]
 1896 00c6 0132     		add	r2, r2, #1
 1897 00c8 1A70     		strb	r2, [r3]
1278:.\Generated_Source\PSoC4/CapSense_1_CSHL.c ****                     
1279:.\Generated_Source\PSoC4/CapSense_1_CSHL.c ****                     if (0u == CapSense_1_posFiltersData[firstTimeIndex])
 1898              		.loc 1 1279 0
 1899 00ca 3B1C     		mov	r3, r7
 1900 00cc 0933     		add	r3, r3, #9
 1901 00ce 1B78     		ldrb	r3, [r3]
 1902 00d0 294A     		ldr	r2, .L102
 1903 00d2 D35C     		ldrb	r3, [r2, r3]
 1904 00d4 002B     		cmp	r3, #0
 1905 00d6 0FD1     		bne	.L97
ARM GAS  C:\Users\maxk\AppData\Local\Temp\ccw8u2Eq.s 			page 57


1280:.\Generated_Source\PSoC4/CapSense_1_CSHL.c ****                     {
1281:.\Generated_Source\PSoC4/CapSense_1_CSHL.c ****                         /* Init filters */
1282:.\Generated_Source\PSoC4/CapSense_1_CSHL.c ****                         CapSense_1_posFiltersData[posIndex] = (uint8) position;
 1906              		.loc 1 1282 0
 1907 00d8 3B1C     		mov	r3, r7
 1908 00da 0833     		add	r3, r3, #8
 1909 00dc 1B78     		ldrb	r3, [r3]
 1910 00de 3A1C     		mov	r2, r7
 1911 00e0 0C32     		add	r2, r2, #12
 1912 00e2 1288     		ldrh	r2, [r2]
 1913 00e4 D1B2     		uxtb	r1, r2
 1914 00e6 244A     		ldr	r2, .L102
 1915 00e8 D154     		strb	r1, [r2, r3]
1283:.\Generated_Source\PSoC4/CapSense_1_CSHL.c ****                         #if ((0u != (CapSense_1_MEDIAN_FILTER & \
1284:.\Generated_Source\PSoC4/CapSense_1_CSHL.c ****                                      CapSense_1_LINEAR_SLIDERS_POS_FILTERS_MASK)) || \
1285:.\Generated_Source\PSoC4/CapSense_1_CSHL.c ****                              (0u != (CapSense_1_AVERAGING_FILTER & \
1286:.\Generated_Source\PSoC4/CapSense_1_CSHL.c ****                                      CapSense_1_LINEAR_SLIDERS_POS_FILTERS_MASK)))
1287:.\Generated_Source\PSoC4/CapSense_1_CSHL.c **** 
1288:.\Generated_Source\PSoC4/CapSense_1_CSHL.c ****                             if ( (0u != (posFiltersMask & CapSense_1_MEDIAN_FILTER)) || 
1289:.\Generated_Source\PSoC4/CapSense_1_CSHL.c ****                                  (0u != (posFiltersMask & CapSense_1_AVERAGING_FILTER)) )
1290:.\Generated_Source\PSoC4/CapSense_1_CSHL.c ****                             {
1291:.\Generated_Source\PSoC4/CapSense_1_CSHL.c ****                                 CapSense_1_posFiltersData[posIndex + 1u] = (uint8) position;
1292:.\Generated_Source\PSoC4/CapSense_1_CSHL.c ****                             }
1293:.\Generated_Source\PSoC4/CapSense_1_CSHL.c ****                         #endif /* ((0u != (CapSense_1_MEDIAN_FILTER & \
1294:.\Generated_Source\PSoC4/CapSense_1_CSHL.c ****                                *           CapSense_1_LINEAR_SLIDERS_POS_FILTERS_MASK)) || \
1295:.\Generated_Source\PSoC4/CapSense_1_CSHL.c ****                                *   (0u != (CapSense_1_AVERAGING_FILTER & \
1296:.\Generated_Source\PSoC4/CapSense_1_CSHL.c ****                                *           CapSense_1_LINEAR_SLIDERS_POS_FILTERS_MASK)))
1297:.\Generated_Source\PSoC4/CapSense_1_CSHL.c ****                                */
1298:.\Generated_Source\PSoC4/CapSense_1_CSHL.c ****                         
1299:.\Generated_Source\PSoC4/CapSense_1_CSHL.c ****                         CapSense_1_posFiltersData[firstTimeIndex] = 1u;
 1916              		.loc 1 1299 0
 1917 00ea 3B1C     		mov	r3, r7
 1918 00ec 0933     		add	r3, r3, #9
 1919 00ee 1B78     		ldrb	r3, [r3]
 1920 00f0 214A     		ldr	r2, .L102
 1921 00f2 0121     		mov	r1, #1
 1922 00f4 D154     		strb	r1, [r2, r3]
1300:.\Generated_Source\PSoC4/CapSense_1_CSHL.c ****                     }
1301:.\Generated_Source\PSoC4/CapSense_1_CSHL.c ****                     else
1302:.\Generated_Source\PSoC4/CapSense_1_CSHL.c ****                     {
1303:.\Generated_Source\PSoC4/CapSense_1_CSHL.c ****                         /* Do filtering */
1304:.\Generated_Source\PSoC4/CapSense_1_CSHL.c ****                         #if (0u != (CapSense_1_MEDIAN_FILTER & CapSense_1_LINEAR_SLIDERS_POS_FILTER
1305:.\Generated_Source\PSoC4/CapSense_1_CSHL.c ****                             if (0u != (posFiltersMask & CapSense_1_MEDIAN_FILTER))
1306:.\Generated_Source\PSoC4/CapSense_1_CSHL.c ****                             {
1307:.\Generated_Source\PSoC4/CapSense_1_CSHL.c ****                                 tempPos = (uint8) position;
1308:.\Generated_Source\PSoC4/CapSense_1_CSHL.c ****                                 position = CapSense_1_MedianFilter(position, 
1309:.\Generated_Source\PSoC4/CapSense_1_CSHL.c ****                                                                     CapSense_1_posFiltersData[posIn
1310:.\Generated_Source\PSoC4/CapSense_1_CSHL.c ****                                                                     CapSense_1_posFiltersData[posIn
1311:.\Generated_Source\PSoC4/CapSense_1_CSHL.c ****                                 CapSense_1_posFiltersData[posIndex + 1u] = 
1312:.\Generated_Source\PSoC4/CapSense_1_CSHL.c ****                                                                              CapSense_1_posFiltersD
1313:.\Generated_Source\PSoC4/CapSense_1_CSHL.c ****                                 CapSense_1_posFiltersData[posIndex] = tempPos;
1314:.\Generated_Source\PSoC4/CapSense_1_CSHL.c ****                             }
1315:.\Generated_Source\PSoC4/CapSense_1_CSHL.c ****                         #endif /*(0u != (CapSense_1_MEDIAN_FILTER &
1316:.\Generated_Source\PSoC4/CapSense_1_CSHL.c ****                                *         CapSense_1_LINEAR_SLIDERS_POS_FILTERS_MASK))
1317:.\Generated_Source\PSoC4/CapSense_1_CSHL.c ****                                */
1318:.\Generated_Source\PSoC4/CapSense_1_CSHL.c **** 
1319:.\Generated_Source\PSoC4/CapSense_1_CSHL.c ****                         #if(0u!=(CapSense_1_AVERAGING_FILTER & CapSense_1_LINEAR_SLIDERS_POS_FILTER
ARM GAS  C:\Users\maxk\AppData\Local\Temp\ccw8u2Eq.s 			page 58


1320:.\Generated_Source\PSoC4/CapSense_1_CSHL.c ****                             if (0u != (posFiltersMask & CapSense_1_AVERAGING_FILTER)) 
1321:.\Generated_Source\PSoC4/CapSense_1_CSHL.c ****                             {
1322:.\Generated_Source\PSoC4/CapSense_1_CSHL.c ****                                 tempPos = (uint8) position;
1323:.\Generated_Source\PSoC4/CapSense_1_CSHL.c ****                                 position = CapSense_1_AveragingFilter(position, 
1324:.\Generated_Source\PSoC4/CapSense_1_CSHL.c ****                                                                        CapSense_1_posFiltersData[po
1325:.\Generated_Source\PSoC4/CapSense_1_CSHL.c ****                                                                        CapSense_1_posFiltersData[po
1326:.\Generated_Source\PSoC4/CapSense_1_CSHL.c ****                                 CapSense_1_posFiltersData[posIndex+1u]=CapSense_1_posFiltersData[po
1327:.\Generated_Source\PSoC4/CapSense_1_CSHL.c ****                                 CapSense_1_posFiltersData[posIndex] = tempPos;
1328:.\Generated_Source\PSoC4/CapSense_1_CSHL.c ****                             }
1329:.\Generated_Source\PSoC4/CapSense_1_CSHL.c ****                         #endif /* (0u != (CapSense_1_AVERAGING_FILTER & \
1330:.\Generated_Source\PSoC4/CapSense_1_CSHL.c ****                                *           CapSense_1_LINEAR_SLIDERS_POS_FILTERS_MASK))
1331:.\Generated_Source\PSoC4/CapSense_1_CSHL.c ****                                */
1332:.\Generated_Source\PSoC4/CapSense_1_CSHL.c **** 
1333:.\Generated_Source\PSoC4/CapSense_1_CSHL.c ****                         #if (0u != (CapSense_1_IIR2_FILTER & CapSense_1_LINEAR_SLIDERS_POS_FILTERS_
1334:.\Generated_Source\PSoC4/CapSense_1_CSHL.c ****                             if (0u != (posFiltersMask & CapSense_1_IIR2_FILTER)) 
1335:.\Generated_Source\PSoC4/CapSense_1_CSHL.c ****                             {
1336:.\Generated_Source\PSoC4/CapSense_1_CSHL.c ****                                 position = CapSense_1_IIR2Filter(position,
1337:.\Generated_Source\PSoC4/CapSense_1_CSHL.c ****                                                                        CapSense_1_posFiltersData[po
1338:.\Generated_Source\PSoC4/CapSense_1_CSHL.c ****                                 CapSense_1_posFiltersData[posIndex] = (uint8) position;
1339:.\Generated_Source\PSoC4/CapSense_1_CSHL.c ****                             }
1340:.\Generated_Source\PSoC4/CapSense_1_CSHL.c ****                         #endif /* (0u != (CapSense_1_IIR2_FILTER & \
1341:.\Generated_Source\PSoC4/CapSense_1_CSHL.c ****                                *          CapSense_1_LINEAR_SLIDERS_POS_FILTERS_MASK))
1342:.\Generated_Source\PSoC4/CapSense_1_CSHL.c ****                                */
1343:.\Generated_Source\PSoC4/CapSense_1_CSHL.c **** 
1344:.\Generated_Source\PSoC4/CapSense_1_CSHL.c ****                         #if (0u != (CapSense_1_IIR4_FILTER & CapSense_1_LINEAR_SLIDERS_POS_FILTERS_
1345:.\Generated_Source\PSoC4/CapSense_1_CSHL.c ****                             if (0u != (posFiltersMask & CapSense_1_IIR4_FILTER))
1346:.\Generated_Source\PSoC4/CapSense_1_CSHL.c ****                             {
1347:.\Generated_Source\PSoC4/CapSense_1_CSHL.c ****                                 position = CapSense_1_IIR4Filter(position, 
1348:.\Generated_Source\PSoC4/CapSense_1_CSHL.c ****                                                                        CapSense_1_posFiltersData[po
1349:.\Generated_Source\PSoC4/CapSense_1_CSHL.c ****                                 CapSense_1_posFiltersData[posIndex] = (uint8) position;
 1923              		.loc 1 1349 0
 1924 00f6 37E0     		b	.L98
 1925              	.L97:
 1926              		.loc 1 1345 0
 1927 00f8 3B1C     		mov	r3, r7
 1928 00fa 0A33     		add	r3, r3, #10
 1929 00fc 1A78     		ldrb	r2, [r3]
 1930 00fe 0823     		mov	r3, #8
 1931 0100 1340     		and	r3, r3, r2
 1932 0102 002B     		cmp	r3, #0
 1933 0104 2FD0     		beq	.L101
 1934              		.loc 1 1348 0
 1935 0106 3B1C     		mov	r3, r7
 1936 0108 0833     		add	r3, r3, #8
 1937 010a 1B78     		ldrb	r3, [r3]
 1938 010c 1A4A     		ldr	r2, .L102
 1939 010e D35C     		ldrb	r3, [r2, r3]
 1940              		.loc 1 1347 0
 1941 0110 3A1C     		mov	r2, r7
 1942 0112 0C32     		add	r2, r2, #12
 1943 0114 1288     		ldrh	r2, [r2]
 1944 0116 101C     		mov	r0, r2
 1945 0118 191C     		mov	r1, r3
 1946 011a FFF7FEFF 		bl	CapSense_1_IIR4Filter
 1947 011e 031C     		mov	r3, r0
 1948 0120 1A1C     		mov	r2, r3
 1949 0122 3B1C     		mov	r3, r7
ARM GAS  C:\Users\maxk\AppData\Local\Temp\ccw8u2Eq.s 			page 59


 1950 0124 0C33     		add	r3, r3, #12
 1951 0126 1A80     		strh	r2, [r3]
 1952              		.loc 1 1349 0
 1953 0128 3B1C     		mov	r3, r7
 1954 012a 0833     		add	r3, r3, #8
 1955 012c 1B78     		ldrb	r3, [r3]
 1956 012e 3A1C     		mov	r2, r7
 1957 0130 0C32     		add	r2, r2, #12
 1958 0132 1288     		ldrh	r2, [r2]
 1959 0134 D1B2     		uxtb	r1, r2
 1960 0136 104A     		ldr	r2, .L102
 1961 0138 D154     		strb	r1, [r2, r3]
 1962 013a 15E0     		b	.L98
 1963              	.L95:
1350:.\Generated_Source\PSoC4/CapSense_1_CSHL.c ****                             }                                
1351:.\Generated_Source\PSoC4/CapSense_1_CSHL.c ****                         #endif /* (0u != (CapSense_1_IIR4_FILTER & \
1352:.\Generated_Source\PSoC4/CapSense_1_CSHL.c ****                                *          CapSense_1_LINEAR_SLIDERS_POS_FILTERS_MASK))
1353:.\Generated_Source\PSoC4/CapSense_1_CSHL.c ****                                */
1354:.\Generated_Source\PSoC4/CapSense_1_CSHL.c **** 
1355:.\Generated_Source\PSoC4/CapSense_1_CSHL.c ****                         #if (0u != (CapSense_1_JITTER_FILTER & CapSense_1_LINEAR_SLIDERS_POS_FILTER
1356:.\Generated_Source\PSoC4/CapSense_1_CSHL.c ****                             if (0u != (posFiltersMask & CapSense_1_JITTER_FILTER))
1357:.\Generated_Source\PSoC4/CapSense_1_CSHL.c ****                             {
1358:.\Generated_Source\PSoC4/CapSense_1_CSHL.c ****                                 position = CapSense_1_JitterFilter(position, 
1359:.\Generated_Source\PSoC4/CapSense_1_CSHL.c ****                                                                          CapSense_1_posFiltersData[
1360:.\Generated_Source\PSoC4/CapSense_1_CSHL.c ****                                 CapSense_1_posFiltersData[posIndex] = (uint8) position;
1361:.\Generated_Source\PSoC4/CapSense_1_CSHL.c ****                             }
1362:.\Generated_Source\PSoC4/CapSense_1_CSHL.c ****                         #endif /* (0u != (CapSense_1_JITTER_FILTER & \
1363:.\Generated_Source\PSoC4/CapSense_1_CSHL.c ****                                *           CapSense_1_LINEAR_SLIDERS_POS_FILTERS_MASK))
1364:.\Generated_Source\PSoC4/CapSense_1_CSHL.c ****                                */
1365:.\Generated_Source\PSoC4/CapSense_1_CSHL.c ****                     }
1366:.\Generated_Source\PSoC4/CapSense_1_CSHL.c ****                 }
1367:.\Generated_Source\PSoC4/CapSense_1_CSHL.c ****             #endif /* (0u != CapSense_1_LINEAR_SLIDERS_POS_FILTERS_MASK) */
1368:.\Generated_Source\PSoC4/CapSense_1_CSHL.c **** 
1369:.\Generated_Source\PSoC4/CapSense_1_CSHL.c ****         }
1370:.\Generated_Source\PSoC4/CapSense_1_CSHL.c ****         else
1371:.\Generated_Source\PSoC4/CapSense_1_CSHL.c ****         {
1372:.\Generated_Source\PSoC4/CapSense_1_CSHL.c ****             /* The maximum didn't find */
1373:.\Generated_Source\PSoC4/CapSense_1_CSHL.c ****             position = 0xFFFFu;
 1964              		.loc 1 1373 0
 1965 013c 3A1C     		mov	r2, r7
 1966 013e 0C32     		add	r2, r2, #12
 1967 0140 0123     		mov	r3, #1
 1968 0142 5B42     		neg	r3, r3
 1969 0144 1380     		strh	r3, [r2]
1374:.\Generated_Source\PSoC4/CapSense_1_CSHL.c **** 
1375:.\Generated_Source\PSoC4/CapSense_1_CSHL.c ****             #if(0u != CapSense_1_LINEAR_SLIDERS_POS_FILTERS_MASK)
1376:.\Generated_Source\PSoC4/CapSense_1_CSHL.c ****                 /* Reset the filters */
1377:.\Generated_Source\PSoC4/CapSense_1_CSHL.c ****                 if(0u != (posFiltersMask & CapSense_1_ANY_POS_FILTER))
 1970              		.loc 1 1377 0
 1971 0146 3B1C     		mov	r3, r7
 1972 0148 0A33     		add	r3, r3, #10
 1973 014a 1A78     		ldrb	r2, [r3]
 1974 014c 1F23     		mov	r3, #31
 1975 014e 1340     		and	r3, r3, r2
 1976 0150 002B     		cmp	r3, #0
 1977 0152 09D0     		beq	.L98
1378:.\Generated_Source\PSoC4/CapSense_1_CSHL.c ****                 {
ARM GAS  C:\Users\maxk\AppData\Local\Temp\ccw8u2Eq.s 			page 60


1379:.\Generated_Source\PSoC4/CapSense_1_CSHL.c ****                     CapSense_1_posFiltersData[firstTimeIndex] = 0u;
 1978              		.loc 1 1379 0
 1979 0154 3B1C     		mov	r3, r7
 1980 0156 0933     		add	r3, r3, #9
 1981 0158 1B78     		ldrb	r3, [r3]
 1982 015a 074A     		ldr	r2, .L102
 1983 015c 0021     		mov	r1, #0
 1984 015e D154     		strb	r1, [r2, r3]
 1985 0160 02E0     		b	.L98
 1986              	.L100:
 1987              		.loc 1 1349 0
 1988 0162 C046     		mov	r8, r8
 1989 0164 00E0     		b	.L98
 1990              	.L101:
 1991 0166 C046     		mov	r8, r8
 1992              	.L98:
1380:.\Generated_Source\PSoC4/CapSense_1_CSHL.c ****                 }
1381:.\Generated_Source\PSoC4/CapSense_1_CSHL.c ****             #endif /* (0u != CapSense_1_LINEAR_SLIDERS_POS_FILTERS_MASK) */
1382:.\Generated_Source\PSoC4/CapSense_1_CSHL.c ****         }
1383:.\Generated_Source\PSoC4/CapSense_1_CSHL.c **** 
1384:.\Generated_Source\PSoC4/CapSense_1_CSHL.c ****         
1385:.\Generated_Source\PSoC4/CapSense_1_CSHL.c ****         return (position);
 1993              		.loc 1 1385 0
 1994 0168 3B1C     		mov	r3, r7
 1995 016a 0C33     		add	r3, r3, #12
 1996 016c 1B88     		ldrh	r3, [r3]
1386:.\Generated_Source\PSoC4/CapSense_1_CSHL.c ****     }
 1997              		.loc 1 1386 0
 1998 016e 181C     		mov	r0, r3
 1999 0170 BD46     		mov	sp, r7
 2000 0172 05B0     		add	sp, sp, #20
 2001              		@ sp needed for prologue
 2002 0174 90BD     		pop	{r4, r7, pc}
 2003              	.L103:
 2004 0176 C046     		.align	2
 2005              	.L102:
 2006 0178 00000000 		.word	CapSense_1_posFiltersData
 2007 017c 00000000 		.word	CapSense_1_posFiltersMask
 2008 0180 00000000 		.word	CapSense_1_rawDataIndex
 2009 0184 00000000 		.word	CapSense_1_numberOfSensors
 2010 0188 00000000 		.word	CapSense_1_fingerThreshold
 2011 018c 00000000 		.word	CapSense_1_centroidMult
 2012 0190 00000000 		.word	CapSense_1_noiseThreshold
 2013              		.cfi_endproc
 2014              	.LFE13:
 2015              		.size	CapSense_1_GetCentroidPos, .-CapSense_1_GetCentroidPos
 2016              		.section	.text.CapSense_1_IIR4Filter,"ax",%progbits
 2017              		.align	2
 2018              		.global	CapSense_1_IIR4Filter
 2019              		.code	16
 2020              		.thumb_func
 2021              		.type	CapSense_1_IIR4Filter, %function
 2022              	CapSense_1_IIR4Filter:
 2023              	.LFB14:
1387:.\Generated_Source\PSoC4/CapSense_1_CSHL.c **** #endif /* (CapSense_1_TOTAL_LINEAR_SLIDERS_COUNT > 0u) */
1388:.\Generated_Source\PSoC4/CapSense_1_CSHL.c **** 
1389:.\Generated_Source\PSoC4/CapSense_1_CSHL.c **** 
ARM GAS  C:\Users\maxk\AppData\Local\Temp\ccw8u2Eq.s 			page 61


1390:.\Generated_Source\PSoC4/CapSense_1_CSHL.c **** #if(CapSense_1_TOTAL_RADIAL_SLIDERS_COUNT > 0u)
1391:.\Generated_Source\PSoC4/CapSense_1_CSHL.c ****     /*******************************************************************************
1392:.\Generated_Source\PSoC4/CapSense_1_CSHL.c ****     * Function Name: CapSense_1_GetRadialCentroidPos
1393:.\Generated_Source\PSoC4/CapSense_1_CSHL.c ****     ********************************************************************************
1394:.\Generated_Source\PSoC4/CapSense_1_CSHL.c ****     *
1395:.\Generated_Source\PSoC4/CapSense_1_CSHL.c ****     * Summary:
1396:.\Generated_Source\PSoC4/CapSense_1_CSHL.c ****     *  Checks the CapSense_1_Signal[ ] array for a centroid within
1397:.\Generated_Source\PSoC4/CapSense_1_CSHL.c ****     *  slider specified range. The centroid position is calculated to the resolution
1398:.\Generated_Source\PSoC4/CapSense_1_CSHL.c ****     *  specified in the CapSense customizer. The position filters are applied to the
1399:.\Generated_Source\PSoC4/CapSense_1_CSHL.c ****     *  result if enabled.
1400:.\Generated_Source\PSoC4/CapSense_1_CSHL.c ****     *
1401:.\Generated_Source\PSoC4/CapSense_1_CSHL.c ****     * Parameters:
1402:.\Generated_Source\PSoC4/CapSense_1_CSHL.c ****     *  widget:  Widget number.
1403:.\Generated_Source\PSoC4/CapSense_1_CSHL.c ****     *  For every radial slider widget there are defines in this format:
1404:.\Generated_Source\PSoC4/CapSense_1_CSHL.c ****     *  #define CapSense_1_RS_"widget_name"            5
1405:.\Generated_Source\PSoC4/CapSense_1_CSHL.c ****     * 
1406:.\Generated_Source\PSoC4/CapSense_1_CSHL.c ****     * Return:
1407:.\Generated_Source\PSoC4/CapSense_1_CSHL.c ****     *  Returns position value of the radial slider.
1408:.\Generated_Source\PSoC4/CapSense_1_CSHL.c ****     *
1409:.\Generated_Source\PSoC4/CapSense_1_CSHL.c ****     * Side Effects:
1410:.\Generated_Source\PSoC4/CapSense_1_CSHL.c ****     *  If any sensor within the slider widget is active, the function returns values
1411:.\Generated_Source\PSoC4/CapSense_1_CSHL.c ****     *  from zero to the API resolution value set in the CapSense customizer. If no
1412:.\Generated_Source\PSoC4/CapSense_1_CSHL.c ****     *  sensors are active, the function returns 0xFFFF.
1413:.\Generated_Source\PSoC4/CapSense_1_CSHL.c ****     *  There are no checks of widget type argument provided to this function.
1414:.\Generated_Source\PSoC4/CapSense_1_CSHL.c ****     *  The unproper widget type provided will cause unexpected position calculations.
1415:.\Generated_Source\PSoC4/CapSense_1_CSHL.c ****     *
1416:.\Generated_Source\PSoC4/CapSense_1_CSHL.c ****     * Note:
1417:.\Generated_Source\PSoC4/CapSense_1_CSHL.c ****     *  If noise counts on the slider segments are greater than the noise
1418:.\Generated_Source\PSoC4/CapSense_1_CSHL.c ****     *  threshold, this subroutine may generate a false centroid result. The noise
1419:.\Generated_Source\PSoC4/CapSense_1_CSHL.c ****     *  threshold should be set carefully (high enough above the noise level) so 
1420:.\Generated_Source\PSoC4/CapSense_1_CSHL.c ****     *  that noise will not generate a false centroid.
1421:.\Generated_Source\PSoC4/CapSense_1_CSHL.c ****     *
1422:.\Generated_Source\PSoC4/CapSense_1_CSHL.c ****     *
1423:.\Generated_Source\PSoC4/CapSense_1_CSHL.c ****     * Reentrant:
1424:.\Generated_Source\PSoC4/CapSense_1_CSHL.c ****     *  No.
1425:.\Generated_Source\PSoC4/CapSense_1_CSHL.c ****     *
1426:.\Generated_Source\PSoC4/CapSense_1_CSHL.c ****     *******************************************************************************/
1427:.\Generated_Source\PSoC4/CapSense_1_CSHL.c ****      uint16 CapSense_1_GetRadialCentroidPos(uint8 widget)
1428:.\Generated_Source\PSoC4/CapSense_1_CSHL.c ****     {
1429:.\Generated_Source\PSoC4/CapSense_1_CSHL.c ****         #if (0u != CapSense_1_RADIAL_SLIDERS_POS_FILTERS_MASK)
1430:.\Generated_Source\PSoC4/CapSense_1_CSHL.c ****             uint8 posIndex;
1431:.\Generated_Source\PSoC4/CapSense_1_CSHL.c ****             uint8 firstTimeIndex = CapSense_1_posFiltersData[widget];
1432:.\Generated_Source\PSoC4/CapSense_1_CSHL.c ****             uint8 posFiltersMask = CapSense_1_posFiltersMask[widget]; 
1433:.\Generated_Source\PSoC4/CapSense_1_CSHL.c ****         #endif /* (0u != CapSense_1_RADIAL_SLIDERS_POS_FILTERS_MASK) */
1434:.\Generated_Source\PSoC4/CapSense_1_CSHL.c **** 
1435:.\Generated_Source\PSoC4/CapSense_1_CSHL.c ****         #if ((0u != (CapSense_1_MEDIAN_FILTER & CapSense_1_RADIAL_SLIDERS_POS_FILTERS_MASK)) || \
1436:.\Generated_Source\PSoC4/CapSense_1_CSHL.c ****              (0u != (CapSense_1_AVERAGING_FILTER & CapSense_1_RADIAL_SLIDERS_POS_FILTERS_MASK)))
1437:.\Generated_Source\PSoC4/CapSense_1_CSHL.c ****             uint8 tempPos;
1438:.\Generated_Source\PSoC4/CapSense_1_CSHL.c ****         #endif /* ((0u != (CapSense_1_MEDIAN_FILTER & CapSense_1_RADIAL_SLIDERS_POS_FILTERS_MASK)) 
1439:.\Generated_Source\PSoC4/CapSense_1_CSHL.c ****                *   (0u != (CapSense_1_AVERAGING_FILTER & CapSense_1_RADIAL_SLIDERS_POS_FILTERS_MASK
1440:.\Generated_Source\PSoC4/CapSense_1_CSHL.c ****                */
1441:.\Generated_Source\PSoC4/CapSense_1_CSHL.c **** 
1442:.\Generated_Source\PSoC4/CapSense_1_CSHL.c ****         uint8 maximum;
1443:.\Generated_Source\PSoC4/CapSense_1_CSHL.c ****         uint16 position;
1444:.\Generated_Source\PSoC4/CapSense_1_CSHL.c ****         uint8 offset = CapSense_1_rawDataIndex[widget];
1445:.\Generated_Source\PSoC4/CapSense_1_CSHL.c ****         uint8 count = CapSense_1_numberOfSensors[widget];
1446:.\Generated_Source\PSoC4/CapSense_1_CSHL.c ****         
ARM GAS  C:\Users\maxk\AppData\Local\Temp\ccw8u2Eq.s 			page 62


1447:.\Generated_Source\PSoC4/CapSense_1_CSHL.c ****         /* Find Maximum within centroid */        
1448:.\Generated_Source\PSoC4/CapSense_1_CSHL.c ****         #if (CapSense_1_IS_DIPLEX_SLIDER)
1449:.\Generated_Source\PSoC4/CapSense_1_CSHL.c ****             maximum = CapSense_1_FindMaximum(offset, count, CapSense_1_fingerThreshold[widget], 0u)
1450:.\Generated_Source\PSoC4/CapSense_1_CSHL.c ****         #else
1451:.\Generated_Source\PSoC4/CapSense_1_CSHL.c ****             maximum = CapSense_1_FindMaximum(offset, count, CapSense_1_fingerThreshold[widget]);
1452:.\Generated_Source\PSoC4/CapSense_1_CSHL.c ****         #endif /* (CapSense_1_IS_DIPLEX_SLIDER) */
1453:.\Generated_Source\PSoC4/CapSense_1_CSHL.c ****         
1454:.\Generated_Source\PSoC4/CapSense_1_CSHL.c ****         if (maximum != 0xFFu)
1455:.\Generated_Source\PSoC4/CapSense_1_CSHL.c ****         {
1456:.\Generated_Source\PSoC4/CapSense_1_CSHL.c ****             /* Calculate centroid */
1457:.\Generated_Source\PSoC4/CapSense_1_CSHL.c ****             position = (uint16) CapSense_1_CalcCentroid(maximum, 
1458:.\Generated_Source\PSoC4/CapSense_1_CSHL.c ****                          offset, count, CapSense_1_centroidMult[widget], CapSense_1_noiseThreshold[
1459:.\Generated_Source\PSoC4/CapSense_1_CSHL.c **** 
1460:.\Generated_Source\PSoC4/CapSense_1_CSHL.c ****             #if (0u != CapSense_1_RADIAL_SLIDERS_POS_FILTERS_MASK)
1461:.\Generated_Source\PSoC4/CapSense_1_CSHL.c ****                 /* Check if this Radial slider has enabled filters */
1462:.\Generated_Source\PSoC4/CapSense_1_CSHL.c ****                 if (0u != (posFiltersMask & CapSense_1_ANY_POS_FILTER))
1463:.\Generated_Source\PSoC4/CapSense_1_CSHL.c ****                 {
1464:.\Generated_Source\PSoC4/CapSense_1_CSHL.c ****                     /* Caluclate position to store filters data */
1465:.\Generated_Source\PSoC4/CapSense_1_CSHL.c ****                     posIndex  = firstTimeIndex + 1u;
1466:.\Generated_Source\PSoC4/CapSense_1_CSHL.c ****                     
1467:.\Generated_Source\PSoC4/CapSense_1_CSHL.c ****                     if (0u == CapSense_1_posFiltersData[firstTimeIndex])
1468:.\Generated_Source\PSoC4/CapSense_1_CSHL.c ****                     {
1469:.\Generated_Source\PSoC4/CapSense_1_CSHL.c ****                         /* Init filters */
1470:.\Generated_Source\PSoC4/CapSense_1_CSHL.c ****                         CapSense_1_posFiltersData[posIndex] = (uint8) position;
1471:.\Generated_Source\PSoC4/CapSense_1_CSHL.c ****                         #if ((0u != (CapSense_1_MEDIAN_FILTER & \
1472:.\Generated_Source\PSoC4/CapSense_1_CSHL.c ****                                      CapSense_1_RADIAL_SLIDERS_POS_FILTERS_MASK)) || \
1473:.\Generated_Source\PSoC4/CapSense_1_CSHL.c ****                              (0u != (CapSense_1_AVERAGING_FILTER & \
1474:.\Generated_Source\PSoC4/CapSense_1_CSHL.c ****                                      CapSense_1_RADIAL_SLIDERS_POS_FILTERS_MASK)))
1475:.\Generated_Source\PSoC4/CapSense_1_CSHL.c **** 
1476:.\Generated_Source\PSoC4/CapSense_1_CSHL.c ****                             if ( (0u != (posFiltersMask & CapSense_1_MEDIAN_FILTER))  || 
1477:.\Generated_Source\PSoC4/CapSense_1_CSHL.c ****                                  (0u != (posFiltersMask & CapSense_1_AVERAGING_FILTER)) )
1478:.\Generated_Source\PSoC4/CapSense_1_CSHL.c ****                             {
1479:.\Generated_Source\PSoC4/CapSense_1_CSHL.c ****                                 CapSense_1_posFiltersData[posIndex + 1u] = (uint8) position;
1480:.\Generated_Source\PSoC4/CapSense_1_CSHL.c ****                             }
1481:.\Generated_Source\PSoC4/CapSense_1_CSHL.c ****                         #endif /* ((0u != (CapSense_1_MEDIAN_FILTER & \
1482:.\Generated_Source\PSoC4/CapSense_1_CSHL.c ****                                *           CapSense_1_RADIAL_SLIDERS_POS_FILTERS_MASK)) || \
1483:.\Generated_Source\PSoC4/CapSense_1_CSHL.c ****                                *   (0u != (CapSense_1_AVERAGING_FILTER & \
1484:.\Generated_Source\PSoC4/CapSense_1_CSHL.c ****                                *           CapSense_1_RADIAL_SLIDERS_POS_FILTERS_MASK)))
1485:.\Generated_Source\PSoC4/CapSense_1_CSHL.c ****                                */
1486:.\Generated_Source\PSoC4/CapSense_1_CSHL.c ****                         
1487:.\Generated_Source\PSoC4/CapSense_1_CSHL.c ****                         CapSense_1_posFiltersData[firstTimeIndex] = 1u;
1488:.\Generated_Source\PSoC4/CapSense_1_CSHL.c ****                     }
1489:.\Generated_Source\PSoC4/CapSense_1_CSHL.c ****                     else
1490:.\Generated_Source\PSoC4/CapSense_1_CSHL.c ****                     {
1491:.\Generated_Source\PSoC4/CapSense_1_CSHL.c ****                         /* Do filtering */
1492:.\Generated_Source\PSoC4/CapSense_1_CSHL.c ****                         #if (0u != (CapSense_1_MEDIAN_FILTER & CapSense_1_RADIAL_SLIDERS_POS_FILTER
1493:.\Generated_Source\PSoC4/CapSense_1_CSHL.c ****                             if (0u != (posFiltersMask & CapSense_1_MEDIAN_FILTER))
1494:.\Generated_Source\PSoC4/CapSense_1_CSHL.c ****                             {
1495:.\Generated_Source\PSoC4/CapSense_1_CSHL.c ****                                 tempPos = (uint8) position;
1496:.\Generated_Source\PSoC4/CapSense_1_CSHL.c ****                                 position = CapSense_1_MedianFilter(position,
1497:.\Generated_Source\PSoC4/CapSense_1_CSHL.c ****                                                                         CapSense_1_posFiltersData[p
1498:.\Generated_Source\PSoC4/CapSense_1_CSHL.c ****                                                                         CapSense_1_posFiltersData[p
1499:.\Generated_Source\PSoC4/CapSense_1_CSHL.c ****                                 CapSense_1_posFiltersData[posIndex + 1u] = 
1500:.\Generated_Source\PSoC4/CapSense_1_CSHL.c ****                                                                               CapSense_1_posFilters
1501:.\Generated_Source\PSoC4/CapSense_1_CSHL.c ****                                 CapSense_1_posFiltersData[posIndex] = tempPos;
1502:.\Generated_Source\PSoC4/CapSense_1_CSHL.c ****                             }
1503:.\Generated_Source\PSoC4/CapSense_1_CSHL.c ****                         #endif /* (0u != (CapSense_1_MEDIAN_FILTER & 
ARM GAS  C:\Users\maxk\AppData\Local\Temp\ccw8u2Eq.s 			page 63


1504:.\Generated_Source\PSoC4/CapSense_1_CSHL.c ****                                *          CapSense_1_RADIAL_SLIDERS_POS_FILTERS_MASK))
1505:.\Generated_Source\PSoC4/CapSense_1_CSHL.c ****                                */
1506:.\Generated_Source\PSoC4/CapSense_1_CSHL.c **** 
1507:.\Generated_Source\PSoC4/CapSense_1_CSHL.c ****                         #if (0u != (CapSense_1_AVERAGING_FILTER & \
1508:.\Generated_Source\PSoC4/CapSense_1_CSHL.c ****                                     CapSense_1_RADIAL_SLIDERS_POS_FILTERS_MASK))
1509:.\Generated_Source\PSoC4/CapSense_1_CSHL.c ****                             if (0u != (posFiltersMask & CapSense_1_AVERAGING_FILTER))
1510:.\Generated_Source\PSoC4/CapSense_1_CSHL.c ****                             {
1511:.\Generated_Source\PSoC4/CapSense_1_CSHL.c ****                                 tempPos = (uint8) position;
1512:.\Generated_Source\PSoC4/CapSense_1_CSHL.c ****                                 position = CapSense_1_AveragingFilter(position, 
1513:.\Generated_Source\PSoC4/CapSense_1_CSHL.c ****                                                                        CapSense_1_posFiltersData[po
1514:.\Generated_Source\PSoC4/CapSense_1_CSHL.c ****                                                                        CapSense_1_posFiltersData[po
1515:.\Generated_Source\PSoC4/CapSense_1_CSHL.c ****                                 CapSense_1_posFiltersData[posIndex+1u]= CapSense_1_posFiltersData[p
1516:.\Generated_Source\PSoC4/CapSense_1_CSHL.c ****                                 CapSense_1_posFiltersData[posIndex] = tempPos;
1517:.\Generated_Source\PSoC4/CapSense_1_CSHL.c ****                             }
1518:.\Generated_Source\PSoC4/CapSense_1_CSHL.c ****                         #endif /* (0u != (CapSense_1_AVERAGING_FILTER & \
1519:.\Generated_Source\PSoC4/CapSense_1_CSHL.c ****                                *          CapSense_1_RADIAL_SLIDERS_POS_FILTERS_MASK))
1520:.\Generated_Source\PSoC4/CapSense_1_CSHL.c ****                                */
1521:.\Generated_Source\PSoC4/CapSense_1_CSHL.c **** 
1522:.\Generated_Source\PSoC4/CapSense_1_CSHL.c ****                         #if (0u != (CapSense_1_IIR2_FILTER & CapSense_1_RADIAL_SLIDERS_POS_FILTERS_
1523:.\Generated_Source\PSoC4/CapSense_1_CSHL.c ****                             if (0u != (posFiltersMask & CapSense_1_IIR2_FILTER))
1524:.\Generated_Source\PSoC4/CapSense_1_CSHL.c ****                             {
1525:.\Generated_Source\PSoC4/CapSense_1_CSHL.c ****                                 position = CapSense_1_IIR2Filter(position, 
1526:.\Generated_Source\PSoC4/CapSense_1_CSHL.c ****                                                                        CapSense_1_posFiltersData[po
1527:.\Generated_Source\PSoC4/CapSense_1_CSHL.c ****                                 CapSense_1_posFiltersData[posIndex] = (uint8) position;
1528:.\Generated_Source\PSoC4/CapSense_1_CSHL.c ****                             }
1529:.\Generated_Source\PSoC4/CapSense_1_CSHL.c ****                         #endif /* (0u != (CapSense_1_IIR2_FILTER & 
1530:.\Generated_Source\PSoC4/CapSense_1_CSHL.c ****                                *          CapSense_1_RADIAL_SLIDERS_POS_FILTERS_MASK))
1531:.\Generated_Source\PSoC4/CapSense_1_CSHL.c ****                                */
1532:.\Generated_Source\PSoC4/CapSense_1_CSHL.c **** 
1533:.\Generated_Source\PSoC4/CapSense_1_CSHL.c ****                         #if (0u != (CapSense_1_IIR4_FILTER & CapSense_1_RADIAL_SLIDERS_POS_FILTERS_
1534:.\Generated_Source\PSoC4/CapSense_1_CSHL.c ****                             if (0u != (posFiltersMask & CapSense_1_IIR4_FILTER))
1535:.\Generated_Source\PSoC4/CapSense_1_CSHL.c ****                             {
1536:.\Generated_Source\PSoC4/CapSense_1_CSHL.c ****                                 position = CapSense_1_IIR4Filter(position, 
1537:.\Generated_Source\PSoC4/CapSense_1_CSHL.c ****                                                                        CapSense_1_posFiltersData[po
1538:.\Generated_Source\PSoC4/CapSense_1_CSHL.c ****                                 CapSense_1_posFiltersData[posIndex] = (uint8) position;
1539:.\Generated_Source\PSoC4/CapSense_1_CSHL.c ****                             }
1540:.\Generated_Source\PSoC4/CapSense_1_CSHL.c ****                         #endif /* (0u != (CapSense_1_IIR4_FILTER & 
1541:.\Generated_Source\PSoC4/CapSense_1_CSHL.c ****                                *          CapSense_1_RADIAL_SLIDERS_POS_FILTERS_MASK))
1542:.\Generated_Source\PSoC4/CapSense_1_CSHL.c ****                                */
1543:.\Generated_Source\PSoC4/CapSense_1_CSHL.c **** 
1544:.\Generated_Source\PSoC4/CapSense_1_CSHL.c ****                         #if (0u != (CapSense_1_JITTER_FILTER & CapSense_1_RADIAL_SLIDERS_POS_FILTER
1545:.\Generated_Source\PSoC4/CapSense_1_CSHL.c ****                             if (0u != (posFiltersMask & CapSense_1_JITTER_FILTER))
1546:.\Generated_Source\PSoC4/CapSense_1_CSHL.c ****                             {
1547:.\Generated_Source\PSoC4/CapSense_1_CSHL.c ****                                 position = CapSense_1_JitterFilter(position, 
1548:.\Generated_Source\PSoC4/CapSense_1_CSHL.c ****                                                                          CapSense_1_posFiltersData[
1549:.\Generated_Source\PSoC4/CapSense_1_CSHL.c ****                                 CapSense_1_posFiltersData[posIndex] = (uint8) position;
1550:.\Generated_Source\PSoC4/CapSense_1_CSHL.c ****                             }
1551:.\Generated_Source\PSoC4/CapSense_1_CSHL.c ****                         #endif /* (0u != (CapSense_1_JITTER_FILTER &
1552:.\Generated_Source\PSoC4/CapSense_1_CSHL.c ****                                *           CapSense_1_RADIAL_SLIDERS_POS_FILTERS_MASK))
1553:.\Generated_Source\PSoC4/CapSense_1_CSHL.c ****                                */
1554:.\Generated_Source\PSoC4/CapSense_1_CSHL.c ****                     }
1555:.\Generated_Source\PSoC4/CapSense_1_CSHL.c ****                 }
1556:.\Generated_Source\PSoC4/CapSense_1_CSHL.c ****             #endif /* (0u != CapSense_1_RADIAL_SLIDERS_POS_FILTERS_MASK) */
1557:.\Generated_Source\PSoC4/CapSense_1_CSHL.c **** 
1558:.\Generated_Source\PSoC4/CapSense_1_CSHL.c ****         }
1559:.\Generated_Source\PSoC4/CapSense_1_CSHL.c ****         else
1560:.\Generated_Source\PSoC4/CapSense_1_CSHL.c ****         {
ARM GAS  C:\Users\maxk\AppData\Local\Temp\ccw8u2Eq.s 			page 64


1561:.\Generated_Source\PSoC4/CapSense_1_CSHL.c ****             /* The maximum didn't find */
1562:.\Generated_Source\PSoC4/CapSense_1_CSHL.c ****             position = 0xFFFFu;
1563:.\Generated_Source\PSoC4/CapSense_1_CSHL.c **** 
1564:.\Generated_Source\PSoC4/CapSense_1_CSHL.c ****             #if (0u != CapSense_1_RADIAL_SLIDERS_POS_FILTERS_MASK)
1565:.\Generated_Source\PSoC4/CapSense_1_CSHL.c ****                 /* Reset the filters */
1566:.\Generated_Source\PSoC4/CapSense_1_CSHL.c ****                 if((posFiltersMask & CapSense_1_ANY_POS_FILTER) != 0u)
1567:.\Generated_Source\PSoC4/CapSense_1_CSHL.c ****                 {
1568:.\Generated_Source\PSoC4/CapSense_1_CSHL.c ****                     CapSense_1_posFiltersData[firstTimeIndex] = 0u;
1569:.\Generated_Source\PSoC4/CapSense_1_CSHL.c ****                 }
1570:.\Generated_Source\PSoC4/CapSense_1_CSHL.c ****             #endif /* (0u != CapSense_1_RADIAL_SLIDERS_POS_FILTERS_MASK) */
1571:.\Generated_Source\PSoC4/CapSense_1_CSHL.c ****         }
1572:.\Generated_Source\PSoC4/CapSense_1_CSHL.c ****         
1573:.\Generated_Source\PSoC4/CapSense_1_CSHL.c ****         return (position);
1574:.\Generated_Source\PSoC4/CapSense_1_CSHL.c ****     }
1575:.\Generated_Source\PSoC4/CapSense_1_CSHL.c **** #endif
1576:.\Generated_Source\PSoC4/CapSense_1_CSHL.c **** 
1577:.\Generated_Source\PSoC4/CapSense_1_CSHL.c **** 
1578:.\Generated_Source\PSoC4/CapSense_1_CSHL.c **** #if(CapSense_1_TOTAL_TOUCH_PADS_COUNT > 0u)
1579:.\Generated_Source\PSoC4/CapSense_1_CSHL.c ****     /*******************************************************************************
1580:.\Generated_Source\PSoC4/CapSense_1_CSHL.c ****     * Function Name: CapSense_1_GetTouchCentroidPos
1581:.\Generated_Source\PSoC4/CapSense_1_CSHL.c ****     ********************************************************************************
1582:.\Generated_Source\PSoC4/CapSense_1_CSHL.c ****     *
1583:.\Generated_Source\PSoC4/CapSense_1_CSHL.c ****     * Summary:
1584:.\Generated_Source\PSoC4/CapSense_1_CSHL.c ****     *  If a finger is present on touch pad, this function calculates the X and Y
1585:.\Generated_Source\PSoC4/CapSense_1_CSHL.c ****     *  position of the finger by calculating the centroids within touch pad specified
1586:.\Generated_Source\PSoC4/CapSense_1_CSHL.c ****     *  range. The X and Y positions are calculated to the API resolutions set in the
1587:.\Generated_Source\PSoC4/CapSense_1_CSHL.c ****     *  CapSense customizer. Returns a 1 if a finger is on the touchpad.
1588:.\Generated_Source\PSoC4/CapSense_1_CSHL.c ****     *  The position filter is applied to the result if enabled.
1589:.\Generated_Source\PSoC4/CapSense_1_CSHL.c ****     *  This function is available only if a touch pad is defined by the CapSense
1590:.\Generated_Source\PSoC4/CapSense_1_CSHL.c ****     *  customizer.
1591:.\Generated_Source\PSoC4/CapSense_1_CSHL.c ****     *
1592:.\Generated_Source\PSoC4/CapSense_1_CSHL.c ****     * Parameters:
1593:.\Generated_Source\PSoC4/CapSense_1_CSHL.c ****     *  widget:  Widget number. 
1594:.\Generated_Source\PSoC4/CapSense_1_CSHL.c ****     *  For every touchpad widget there are defines in this format:
1595:.\Generated_Source\PSoC4/CapSense_1_CSHL.c ****     *  #define CapSense_1_TP_"widget_name"            5
1596:.\Generated_Source\PSoC4/CapSense_1_CSHL.c ****     *
1597:.\Generated_Source\PSoC4/CapSense_1_CSHL.c ****     *  pos:     Pointer to the array of two uint16 elements, where result
1598:.\Generated_Source\PSoC4/CapSense_1_CSHL.c ****     *  result of calculation of X and Y position are stored.
1599:.\Generated_Source\PSoC4/CapSense_1_CSHL.c ****     *  pos[0u]  - position of X
1600:.\Generated_Source\PSoC4/CapSense_1_CSHL.c ****     *  pos[1u]  - position of Y
1601:.\Generated_Source\PSoC4/CapSense_1_CSHL.c ****     *
1602:.\Generated_Source\PSoC4/CapSense_1_CSHL.c ****     * Return:
1603:.\Generated_Source\PSoC4/CapSense_1_CSHL.c ****     *  Returns a 1 if a finger is on the touch pad, 0 - if not.
1604:.\Generated_Source\PSoC4/CapSense_1_CSHL.c ****     *
1605:.\Generated_Source\PSoC4/CapSense_1_CSHL.c ****     * Side Effects:
1606:.\Generated_Source\PSoC4/CapSense_1_CSHL.c ****     *   There are no checks of widget type argument provided to this function.
1607:.\Generated_Source\PSoC4/CapSense_1_CSHL.c ****     *   The unproper widget type provided will cause unexpected position
1608:.\Generated_Source\PSoC4/CapSense_1_CSHL.c ****     *   calculations.
1609:.\Generated_Source\PSoC4/CapSense_1_CSHL.c ****     *
1610:.\Generated_Source\PSoC4/CapSense_1_CSHL.c ****     * Reentrant:
1611:.\Generated_Source\PSoC4/CapSense_1_CSHL.c ****     *  No.
1612:.\Generated_Source\PSoC4/CapSense_1_CSHL.c ****     *
1613:.\Generated_Source\PSoC4/CapSense_1_CSHL.c ****     *******************************************************************************/
1614:.\Generated_Source\PSoC4/CapSense_1_CSHL.c ****     uint8 CapSense_1_GetTouchCentroidPos(uint8 widget, uint16* pos)
1615:.\Generated_Source\PSoC4/CapSense_1_CSHL.c ****     {
1616:.\Generated_Source\PSoC4/CapSense_1_CSHL.c ****         #if (0u != CapSense_1_TOUCH_PADS_POS_FILTERS_MASK)
1617:.\Generated_Source\PSoC4/CapSense_1_CSHL.c ****             uint8 posXIndex;
ARM GAS  C:\Users\maxk\AppData\Local\Temp\ccw8u2Eq.s 			page 65


1618:.\Generated_Source\PSoC4/CapSense_1_CSHL.c ****             uint8 posYIndex;
1619:.\Generated_Source\PSoC4/CapSense_1_CSHL.c ****             uint8 firstTimeIndex = CapSense_1_posFiltersData[widget];
1620:.\Generated_Source\PSoC4/CapSense_1_CSHL.c ****             uint8 posFiltersMask = CapSense_1_posFiltersMask[widget];
1621:.\Generated_Source\PSoC4/CapSense_1_CSHL.c ****         #endif /* (0u != CapSense_1_TOUCH_PADS_POS_FILTERS_MASK) */
1622:.\Generated_Source\PSoC4/CapSense_1_CSHL.c **** 
1623:.\Generated_Source\PSoC4/CapSense_1_CSHL.c ****         #if ((0u != (CapSense_1_MEDIAN_FILTER & CapSense_1_TOUCH_PADS_POS_FILTERS_MASK)) || \
1624:.\Generated_Source\PSoC4/CapSense_1_CSHL.c ****              (0u != (CapSense_1_AVERAGING_FILTER & CapSense_1_TOUCH_PADS_POS_FILTERS_MASK)))
1625:.\Generated_Source\PSoC4/CapSense_1_CSHL.c ****             uint16 tempPos;
1626:.\Generated_Source\PSoC4/CapSense_1_CSHL.c ****         #endif /* ((0u != (CapSense_1_MEDIAN_FILTER & CapSense_1_TOUCH_PADS_POS_FILTERS_MASK)) || \
1627:.\Generated_Source\PSoC4/CapSense_1_CSHL.c ****                *   (0u != (CapSense_1_AVERAGING_FILTER & CapSense_1_TOUCH_PADS_POS_FILTERS_MASK)))
1628:.\Generated_Source\PSoC4/CapSense_1_CSHL.c ****                */
1629:.\Generated_Source\PSoC4/CapSense_1_CSHL.c **** 
1630:.\Generated_Source\PSoC4/CapSense_1_CSHL.c ****         uint8 MaxX;
1631:.\Generated_Source\PSoC4/CapSense_1_CSHL.c ****         uint8 MaxY;
1632:.\Generated_Source\PSoC4/CapSense_1_CSHL.c ****         uint8 posX;
1633:.\Generated_Source\PSoC4/CapSense_1_CSHL.c ****         uint8 posY;
1634:.\Generated_Source\PSoC4/CapSense_1_CSHL.c ****         uint8 touch = 0u;
1635:.\Generated_Source\PSoC4/CapSense_1_CSHL.c ****         uint8 offset = CapSense_1_rawDataIndex[widget];
1636:.\Generated_Source\PSoC4/CapSense_1_CSHL.c ****         uint8 count = CapSense_1_numberOfSensors[widget];
1637:.\Generated_Source\PSoC4/CapSense_1_CSHL.c ****         
1638:.\Generated_Source\PSoC4/CapSense_1_CSHL.c ****         /* Find Maximum within X centroid */
1639:.\Generated_Source\PSoC4/CapSense_1_CSHL.c ****         #if (CapSense_1_IS_DIPLEX_SLIDER)
1640:.\Generated_Source\PSoC4/CapSense_1_CSHL.c ****             MaxX = CapSense_1_FindMaximum(offset, count, CapSense_1_fingerThreshold[widget], 0u);
1641:.\Generated_Source\PSoC4/CapSense_1_CSHL.c ****         #else
1642:.\Generated_Source\PSoC4/CapSense_1_CSHL.c ****             MaxX = CapSense_1_FindMaximum(offset, count, CapSense_1_fingerThreshold[widget]);
1643:.\Generated_Source\PSoC4/CapSense_1_CSHL.c ****         #endif /* (CapSense_1_IS_DIPLEX_SLIDER) */
1644:.\Generated_Source\PSoC4/CapSense_1_CSHL.c **** 
1645:.\Generated_Source\PSoC4/CapSense_1_CSHL.c ****         if (MaxX != 0xFFu)
1646:.\Generated_Source\PSoC4/CapSense_1_CSHL.c ****         {
1647:.\Generated_Source\PSoC4/CapSense_1_CSHL.c ****             offset = CapSense_1_rawDataIndex[widget + 1u];
1648:.\Generated_Source\PSoC4/CapSense_1_CSHL.c ****             count = CapSense_1_numberOfSensors[widget + 1u];
1649:.\Generated_Source\PSoC4/CapSense_1_CSHL.c **** 
1650:.\Generated_Source\PSoC4/CapSense_1_CSHL.c ****             /* Find Maximum within Y centroid */
1651:.\Generated_Source\PSoC4/CapSense_1_CSHL.c ****             #if (CapSense_1_IS_DIPLEX_SLIDER)
1652:.\Generated_Source\PSoC4/CapSense_1_CSHL.c ****                 MaxY = CapSense_1_FindMaximum(offset, count, CapSense_1_fingerThreshold[widget + 1u
1653:.\Generated_Source\PSoC4/CapSense_1_CSHL.c ****             #else
1654:.\Generated_Source\PSoC4/CapSense_1_CSHL.c ****                 MaxY = CapSense_1_FindMaximum(offset, count, CapSense_1_fingerThreshold[widget + 1u
1655:.\Generated_Source\PSoC4/CapSense_1_CSHL.c ****             #endif /* (CapSense_1_IS_DIPLEX_SLIDER) */
1656:.\Generated_Source\PSoC4/CapSense_1_CSHL.c **** 
1657:.\Generated_Source\PSoC4/CapSense_1_CSHL.c ****             if (MaxY != 0xFFu)
1658:.\Generated_Source\PSoC4/CapSense_1_CSHL.c ****             {
1659:.\Generated_Source\PSoC4/CapSense_1_CSHL.c ****                 /* X and Y maximums are found = true touch */
1660:.\Generated_Source\PSoC4/CapSense_1_CSHL.c ****                 touch = 1u;
1661:.\Generated_Source\PSoC4/CapSense_1_CSHL.c ****                 
1662:.\Generated_Source\PSoC4/CapSense_1_CSHL.c ****                 /* Calculate Y centroid */
1663:.\Generated_Source\PSoC4/CapSense_1_CSHL.c ****                 posY = CapSense_1_CalcCentroid(MaxY, offset, count, 
1664:.\Generated_Source\PSoC4/CapSense_1_CSHL.c ****                             CapSense_1_centroidMult[widget + 1u], CapSense_1_noiseThreshold[widget 
1665:.\Generated_Source\PSoC4/CapSense_1_CSHL.c ****                 
1666:.\Generated_Source\PSoC4/CapSense_1_CSHL.c ****                 /* Calculate X centroid */
1667:.\Generated_Source\PSoC4/CapSense_1_CSHL.c ****                 offset = CapSense_1_rawDataIndex[widget];
1668:.\Generated_Source\PSoC4/CapSense_1_CSHL.c ****                 count = CapSense_1_numberOfSensors[widget];
1669:.\Generated_Source\PSoC4/CapSense_1_CSHL.c ****                 
1670:.\Generated_Source\PSoC4/CapSense_1_CSHL.c ****                 posX = CapSense_1_CalcCentroid(MaxX, offset, count, 
1671:.\Generated_Source\PSoC4/CapSense_1_CSHL.c ****                             CapSense_1_centroidMult[widget],CapSense_1_noiseThreshold[widget]);
1672:.\Generated_Source\PSoC4/CapSense_1_CSHL.c ****     
1673:.\Generated_Source\PSoC4/CapSense_1_CSHL.c ****                 #if (0u != CapSense_1_TOUCH_PADS_POS_FILTERS_MASK)
1674:.\Generated_Source\PSoC4/CapSense_1_CSHL.c ****                     /* Check if this TP has enabled filters */
ARM GAS  C:\Users\maxk\AppData\Local\Temp\ccw8u2Eq.s 			page 66


1675:.\Generated_Source\PSoC4/CapSense_1_CSHL.c ****                     if (0u != (posFiltersMask & CapSense_1_ANY_POS_FILTER))
1676:.\Generated_Source\PSoC4/CapSense_1_CSHL.c ****                     {
1677:.\Generated_Source\PSoC4/CapSense_1_CSHL.c ****                         /* Caluclate position to store filters data */
1678:.\Generated_Source\PSoC4/CapSense_1_CSHL.c ****                         posXIndex  = firstTimeIndex + 1u;
1679:.\Generated_Source\PSoC4/CapSense_1_CSHL.c ****                         posYIndex  = CapSense_1_posFiltersData[widget + 1u];
1680:.\Generated_Source\PSoC4/CapSense_1_CSHL.c ****                         
1681:.\Generated_Source\PSoC4/CapSense_1_CSHL.c ****                         if (0u == CapSense_1_posFiltersData[firstTimeIndex])
1682:.\Generated_Source\PSoC4/CapSense_1_CSHL.c ****                         {
1683:.\Generated_Source\PSoC4/CapSense_1_CSHL.c ****                             /* Init filters */
1684:.\Generated_Source\PSoC4/CapSense_1_CSHL.c ****                             CapSense_1_posFiltersData[posXIndex] = posX;
1685:.\Generated_Source\PSoC4/CapSense_1_CSHL.c ****                             CapSense_1_posFiltersData[posYIndex] = posY;
1686:.\Generated_Source\PSoC4/CapSense_1_CSHL.c **** 
1687:.\Generated_Source\PSoC4/CapSense_1_CSHL.c ****                             #if((0u != (CapSense_1_MEDIAN_FILTER & \
1688:.\Generated_Source\PSoC4/CapSense_1_CSHL.c ****                                         CapSense_1_TOUCH_PADS_POS_FILTERS_MASK))|| \
1689:.\Generated_Source\PSoC4/CapSense_1_CSHL.c ****                                 (0u != (CapSense_1_AVERAGING_FILTER & \
1690:.\Generated_Source\PSoC4/CapSense_1_CSHL.c ****                                         CapSense_1_TOUCH_PADS_POS_FILTERS_MASK)))
1691:.\Generated_Source\PSoC4/CapSense_1_CSHL.c **** 
1692:.\Generated_Source\PSoC4/CapSense_1_CSHL.c ****                                 if ( (0u != (posFiltersMask & CapSense_1_MEDIAN_FILTER)) || 
1693:.\Generated_Source\PSoC4/CapSense_1_CSHL.c ****                                      (0u != (posFiltersMask & CapSense_1_AVERAGING_FILTER)) )
1694:.\Generated_Source\PSoC4/CapSense_1_CSHL.c ****                                 {
1695:.\Generated_Source\PSoC4/CapSense_1_CSHL.c ****                                     CapSense_1_posFiltersData[posXIndex + 1u] = posX;
1696:.\Generated_Source\PSoC4/CapSense_1_CSHL.c ****                                     CapSense_1_posFiltersData[posYIndex + 1u] = posY;
1697:.\Generated_Source\PSoC4/CapSense_1_CSHL.c ****                                 }
1698:.\Generated_Source\PSoC4/CapSense_1_CSHL.c ****                             #endif /* ((0u != (CapSense_1_MEDIAN_FILTER & \
1699:.\Generated_Source\PSoC4/CapSense_1_CSHL.c ****                                    *           CapSense_1_TOUCH_PADS_POS_FILTERS_MASK)) || \
1700:.\Generated_Source\PSoC4/CapSense_1_CSHL.c ****                                    *    (0u != (CapSense_1_AVERAGING_FILTER & \
1701:.\Generated_Source\PSoC4/CapSense_1_CSHL.c ****                                    *            CapSense_1_TOUCH_PADS_POS_FILTERS_MASK)))
1702:.\Generated_Source\PSoC4/CapSense_1_CSHL.c ****                                    */
1703:.\Generated_Source\PSoC4/CapSense_1_CSHL.c ****                             
1704:.\Generated_Source\PSoC4/CapSense_1_CSHL.c ****                             CapSense_1_posFiltersData[firstTimeIndex] = 1u;
1705:.\Generated_Source\PSoC4/CapSense_1_CSHL.c ****                         }
1706:.\Generated_Source\PSoC4/CapSense_1_CSHL.c ****                         else
1707:.\Generated_Source\PSoC4/CapSense_1_CSHL.c ****                         {
1708:.\Generated_Source\PSoC4/CapSense_1_CSHL.c ****                             /* Do filtering */
1709:.\Generated_Source\PSoC4/CapSense_1_CSHL.c ****                             #if (0u != (CapSense_1_MEDIAN_FILTER & CapSense_1_TOUCH_PADS_POS_FILTER
1710:.\Generated_Source\PSoC4/CapSense_1_CSHL.c ****                                 if (0u != (posFiltersMask & CapSense_1_MEDIAN_FILTER))
1711:.\Generated_Source\PSoC4/CapSense_1_CSHL.c ****                                 {
1712:.\Generated_Source\PSoC4/CapSense_1_CSHL.c ****                                     tempPos = posX;
1713:.\Generated_Source\PSoC4/CapSense_1_CSHL.c ****                                     posX = (uint8) CapSense_1_MedianFilter(posX,
1714:.\Generated_Source\PSoC4/CapSense_1_CSHL.c ****                                                                       CapSense_1_posFiltersData[pos
1715:.\Generated_Source\PSoC4/CapSense_1_CSHL.c ****                                                                       CapSense_1_posFiltersData[pos
1716:.\Generated_Source\PSoC4/CapSense_1_CSHL.c ****                                     CapSense_1_posFiltersData[posXIndex + 1u] = 
1717:.\Generated_Source\PSoC4/CapSense_1_CSHL.c ****                                                                              CapSense_1_posFiltersD
1718:.\Generated_Source\PSoC4/CapSense_1_CSHL.c ****                                     CapSense_1_posFiltersData[posXIndex] = tempPos;
1719:.\Generated_Source\PSoC4/CapSense_1_CSHL.c ****                                     
1720:.\Generated_Source\PSoC4/CapSense_1_CSHL.c ****                                     tempPos = posY;
1721:.\Generated_Source\PSoC4/CapSense_1_CSHL.c ****                                     posY = (uint8) CapSense_1_MedianFilter(posY,
1722:.\Generated_Source\PSoC4/CapSense_1_CSHL.c ****                                                                        CapSense_1_posFiltersData[po
1723:.\Generated_Source\PSoC4/CapSense_1_CSHL.c ****                                                                        CapSense_1_posFiltersData[po
1724:.\Generated_Source\PSoC4/CapSense_1_CSHL.c ****                                     CapSense_1_posFiltersData[posYIndex + 1u] = 
1725:.\Generated_Source\PSoC4/CapSense_1_CSHL.c ****                                                                              CapSense_1_posFiltersD
1726:.\Generated_Source\PSoC4/CapSense_1_CSHL.c ****                                     CapSense_1_posFiltersData[posYIndex] = tempPos;
1727:.\Generated_Source\PSoC4/CapSense_1_CSHL.c ****                                 }
1728:.\Generated_Source\PSoC4/CapSense_1_CSHL.c ****                                 
1729:.\Generated_Source\PSoC4/CapSense_1_CSHL.c ****                             #endif /* (0u != (CapSense_1_MEDIAN_FILTER & \
1730:.\Generated_Source\PSoC4/CapSense_1_CSHL.c ****                                    *          CapSense_1_TOUCH_PADS_POS_FILTERS_MASK))
1731:.\Generated_Source\PSoC4/CapSense_1_CSHL.c ****                                    */
ARM GAS  C:\Users\maxk\AppData\Local\Temp\ccw8u2Eq.s 			page 67


1732:.\Generated_Source\PSoC4/CapSense_1_CSHL.c **** 
1733:.\Generated_Source\PSoC4/CapSense_1_CSHL.c ****                             #if(0u !=(CapSense_1_AVERAGING_FILTER & CapSense_1_TOUCH_PADS_POS_FILTE
1734:.\Generated_Source\PSoC4/CapSense_1_CSHL.c ****                                 if (0u != (posFiltersMask & CapSense_1_AVERAGING_FILTER))
1735:.\Generated_Source\PSoC4/CapSense_1_CSHL.c ****                                 {
1736:.\Generated_Source\PSoC4/CapSense_1_CSHL.c ****                                     tempPos = posX;
1737:.\Generated_Source\PSoC4/CapSense_1_CSHL.c ****                                     posX = (uint8) CapSense_1_AveragingFilter(posX,
1738:.\Generated_Source\PSoC4/CapSense_1_CSHL.c ****                                                                        CapSense_1_posFiltersData[po
1739:.\Generated_Source\PSoC4/CapSense_1_CSHL.c ****                                                                        CapSense_1_posFiltersData[po
1740:.\Generated_Source\PSoC4/CapSense_1_CSHL.c ****                                     CapSense_1_posFiltersData[posXIndex + 1u] = 
1741:.\Generated_Source\PSoC4/CapSense_1_CSHL.c ****                                                                              CapSense_1_posFiltersD
1742:.\Generated_Source\PSoC4/CapSense_1_CSHL.c ****                                     CapSense_1_posFiltersData[posXIndex] = tempPos;
1743:.\Generated_Source\PSoC4/CapSense_1_CSHL.c ****                                     
1744:.\Generated_Source\PSoC4/CapSense_1_CSHL.c ****                                     tempPos = posY;
1745:.\Generated_Source\PSoC4/CapSense_1_CSHL.c ****                                     posY = (uint8) CapSense_1_AveragingFilter(posY, 
1746:.\Generated_Source\PSoC4/CapSense_1_CSHL.c ****                                                                       CapSense_1_posFiltersData[pos
1747:.\Generated_Source\PSoC4/CapSense_1_CSHL.c ****                                                                       CapSense_1_posFiltersData[pos
1748:.\Generated_Source\PSoC4/CapSense_1_CSHL.c ****                                     CapSense_1_posFiltersData[posYIndex + 1u] = 
1749:.\Generated_Source\PSoC4/CapSense_1_CSHL.c ****                                                                             CapSense_1_posFiltersDa
1750:.\Generated_Source\PSoC4/CapSense_1_CSHL.c ****                                     CapSense_1_posFiltersData[posYIndex] = tempPos;
1751:.\Generated_Source\PSoC4/CapSense_1_CSHL.c ****                                 }
1752:.\Generated_Source\PSoC4/CapSense_1_CSHL.c **** 
1753:.\Generated_Source\PSoC4/CapSense_1_CSHL.c ****                             #endif /* (0u != (CapSense_1_AVERAGING_FILTER & \
1754:.\Generated_Source\PSoC4/CapSense_1_CSHL.c ****                                    *           CapSense_1_TOUCH_PADS_POS_FILTERS_MASK))
1755:.\Generated_Source\PSoC4/CapSense_1_CSHL.c ****                                    */
1756:.\Generated_Source\PSoC4/CapSense_1_CSHL.c **** 
1757:.\Generated_Source\PSoC4/CapSense_1_CSHL.c ****                             #if (0u != (CapSense_1_IIR2_FILTER & CapSense_1_TOUCH_PADS_POS_FILTERS_
1758:.\Generated_Source\PSoC4/CapSense_1_CSHL.c ****                                 if (0u != (posFiltersMask & CapSense_1_IIR2_FILTER))
1759:.\Generated_Source\PSoC4/CapSense_1_CSHL.c ****                                 {
1760:.\Generated_Source\PSoC4/CapSense_1_CSHL.c ****                                     posX = (uint8) CapSense_1_IIR2Filter(posX, 
1761:.\Generated_Source\PSoC4/CapSense_1_CSHL.c ****                                                                            CapSense_1_posFiltersDat
1762:.\Generated_Source\PSoC4/CapSense_1_CSHL.c ****                                     CapSense_1_posFiltersData[posXIndex] = posX;
1763:.\Generated_Source\PSoC4/CapSense_1_CSHL.c ****                                     
1764:.\Generated_Source\PSoC4/CapSense_1_CSHL.c ****                                     posY = (uint8) CapSense_1_IIR2Filter(posY, 
1765:.\Generated_Source\PSoC4/CapSense_1_CSHL.c ****                                                                             CapSense_1_posFiltersDa
1766:.\Generated_Source\PSoC4/CapSense_1_CSHL.c ****                                     CapSense_1_posFiltersData[posYIndex] = posY;
1767:.\Generated_Source\PSoC4/CapSense_1_CSHL.c ****                                 }
1768:.\Generated_Source\PSoC4/CapSense_1_CSHL.c ****                                 
1769:.\Generated_Source\PSoC4/CapSense_1_CSHL.c ****                             #endif /* (0u != (CapSense_1_IIR2_FILTER & \
1770:.\Generated_Source\PSoC4/CapSense_1_CSHL.c ****                                    *          CapSense_1_TOUCH_PADS_POS_FILTERS_MASK))
1771:.\Generated_Source\PSoC4/CapSense_1_CSHL.c ****                                    */
1772:.\Generated_Source\PSoC4/CapSense_1_CSHL.c **** 
1773:.\Generated_Source\PSoC4/CapSense_1_CSHL.c ****                             #if (0u != (CapSense_1_IIR4_FILTER & CapSense_1_TOUCH_PADS_POS_FILTERS_
1774:.\Generated_Source\PSoC4/CapSense_1_CSHL.c ****                                 if (0u != (posFiltersMask & CapSense_1_IIR4_FILTER))
1775:.\Generated_Source\PSoC4/CapSense_1_CSHL.c ****                                 {
1776:.\Generated_Source\PSoC4/CapSense_1_CSHL.c ****                                     posX = (uint8) CapSense_1_IIR4Filter(posX, 
1777:.\Generated_Source\PSoC4/CapSense_1_CSHL.c ****                                                                             CapSense_1_posFiltersDa
1778:.\Generated_Source\PSoC4/CapSense_1_CSHL.c ****                                     CapSense_1_posFiltersData[posXIndex] = posX;
1779:.\Generated_Source\PSoC4/CapSense_1_CSHL.c ****                                     
1780:.\Generated_Source\PSoC4/CapSense_1_CSHL.c ****                                     posY = (uint8) CapSense_1_IIR4Filter(posY, 
1781:.\Generated_Source\PSoC4/CapSense_1_CSHL.c ****                                                                             CapSense_1_posFiltersDa
1782:.\Generated_Source\PSoC4/CapSense_1_CSHL.c ****                                     CapSense_1_posFiltersData[posYIndex] = posY;
1783:.\Generated_Source\PSoC4/CapSense_1_CSHL.c ****                                 }
1784:.\Generated_Source\PSoC4/CapSense_1_CSHL.c ****                                 
1785:.\Generated_Source\PSoC4/CapSense_1_CSHL.c ****                             #endif /* (0u != (CapSense_1_IIR4_FILTER & \
1786:.\Generated_Source\PSoC4/CapSense_1_CSHL.c ****                                    *           CapSense_1_TOUCH_PADS_POS_FILTERS_MASK))
1787:.\Generated_Source\PSoC4/CapSense_1_CSHL.c ****                                    */
1788:.\Generated_Source\PSoC4/CapSense_1_CSHL.c **** 
ARM GAS  C:\Users\maxk\AppData\Local\Temp\ccw8u2Eq.s 			page 68


1789:.\Generated_Source\PSoC4/CapSense_1_CSHL.c ****                             #if (0u != (CapSense_1_JITTER_FILTER & CapSense_1_TOUCH_PADS_POS_FILTER
1790:.\Generated_Source\PSoC4/CapSense_1_CSHL.c ****                                 if (0u != (posFiltersMask & CapSense_1_JITTER_FILTER))
1791:.\Generated_Source\PSoC4/CapSense_1_CSHL.c ****                                     {
1792:.\Generated_Source\PSoC4/CapSense_1_CSHL.c ****                                         posX = (uint8) CapSense_1_JitterFilter(posX, 
1793:.\Generated_Source\PSoC4/CapSense_1_CSHL.c ****                                                                             CapSense_1_posFiltersDa
1794:.\Generated_Source\PSoC4/CapSense_1_CSHL.c ****                                         CapSense_1_posFiltersData[posXIndex] = posX;
1795:.\Generated_Source\PSoC4/CapSense_1_CSHL.c ****                                         
1796:.\Generated_Source\PSoC4/CapSense_1_CSHL.c ****                                         posY = (uint8) CapSense_1_JitterFilter(posY, 
1797:.\Generated_Source\PSoC4/CapSense_1_CSHL.c ****                                                                             CapSense_1_posFiltersDa
1798:.\Generated_Source\PSoC4/CapSense_1_CSHL.c ****                                         CapSense_1_posFiltersData[posYIndex] = posY;
1799:.\Generated_Source\PSoC4/CapSense_1_CSHL.c ****                                     }
1800:.\Generated_Source\PSoC4/CapSense_1_CSHL.c ****                             #endif /* (0u != (CapSense_1_JITTER_FILTER & \
1801:.\Generated_Source\PSoC4/CapSense_1_CSHL.c ****                                    *           CapSense_1_TOUCH_PADS_POS_FILTERS_MASK))
1802:.\Generated_Source\PSoC4/CapSense_1_CSHL.c ****                                    */
1803:.\Generated_Source\PSoC4/CapSense_1_CSHL.c ****                         }
1804:.\Generated_Source\PSoC4/CapSense_1_CSHL.c ****                     }
1805:.\Generated_Source\PSoC4/CapSense_1_CSHL.c ****                 #endif /* (0u != CapSense_1_TOUCH_PADS_POS_FILTERS_MASK) */
1806:.\Generated_Source\PSoC4/CapSense_1_CSHL.c **** 
1807:.\Generated_Source\PSoC4/CapSense_1_CSHL.c ****                 /* Save positions */
1808:.\Generated_Source\PSoC4/CapSense_1_CSHL.c ****                 pos[0u] = posX;
1809:.\Generated_Source\PSoC4/CapSense_1_CSHL.c ****                 pos[1u] = posY;
1810:.\Generated_Source\PSoC4/CapSense_1_CSHL.c ****             }
1811:.\Generated_Source\PSoC4/CapSense_1_CSHL.c ****         }
1812:.\Generated_Source\PSoC4/CapSense_1_CSHL.c **** 
1813:.\Generated_Source\PSoC4/CapSense_1_CSHL.c ****         #if (0u != CapSense_1_TOUCH_PADS_POS_FILTERS_MASK)
1814:.\Generated_Source\PSoC4/CapSense_1_CSHL.c ****             if(touch == 0u)
1815:.\Generated_Source\PSoC4/CapSense_1_CSHL.c ****             {
1816:.\Generated_Source\PSoC4/CapSense_1_CSHL.c ****                 /* Reset the filters */
1817:.\Generated_Source\PSoC4/CapSense_1_CSHL.c ****                 if ((posFiltersMask & CapSense_1_ANY_POS_FILTER) != 0u)
1818:.\Generated_Source\PSoC4/CapSense_1_CSHL.c ****                 {
1819:.\Generated_Source\PSoC4/CapSense_1_CSHL.c ****                     CapSense_1_posFiltersData[firstTimeIndex] = 0u;
1820:.\Generated_Source\PSoC4/CapSense_1_CSHL.c ****                 }
1821:.\Generated_Source\PSoC4/CapSense_1_CSHL.c ****             }
1822:.\Generated_Source\PSoC4/CapSense_1_CSHL.c ****         #endif /* (0u != CapSense_1_TOUCH_PADS_POS_FILTERS_MASK) */
1823:.\Generated_Source\PSoC4/CapSense_1_CSHL.c ****         
1824:.\Generated_Source\PSoC4/CapSense_1_CSHL.c ****         return (touch);
1825:.\Generated_Source\PSoC4/CapSense_1_CSHL.c ****     }
1826:.\Generated_Source\PSoC4/CapSense_1_CSHL.c **** #endif /* (CapSense_1_TOTAL_TOUCH_PADS_COUNT > 0u) */
1827:.\Generated_Source\PSoC4/CapSense_1_CSHL.c **** 
1828:.\Generated_Source\PSoC4/CapSense_1_CSHL.c **** 
1829:.\Generated_Source\PSoC4/CapSense_1_CSHL.c **** #if ( (CapSense_1_RAW_FILTER_MASK & CapSense_1_MEDIAN_FILTER) || \
1830:.\Generated_Source\PSoC4/CapSense_1_CSHL.c ****       (CapSense_1_POS_FILTERS_MASK & CapSense_1_MEDIAN_FILTER) )
1831:.\Generated_Source\PSoC4/CapSense_1_CSHL.c ****     /*******************************************************************************
1832:.\Generated_Source\PSoC4/CapSense_1_CSHL.c ****     * Function Name: CapSense_1_MedianFilter
1833:.\Generated_Source\PSoC4/CapSense_1_CSHL.c ****     ********************************************************************************
1834:.\Generated_Source\PSoC4/CapSense_1_CSHL.c ****     *
1835:.\Generated_Source\PSoC4/CapSense_1_CSHL.c ****     * Summary:
1836:.\Generated_Source\PSoC4/CapSense_1_CSHL.c ****     *  Median filter function. 
1837:.\Generated_Source\PSoC4/CapSense_1_CSHL.c ****     *  The median filter looks at the three most recent samples and reports the 
1838:.\Generated_Source\PSoC4/CapSense_1_CSHL.c ****     *  median value.
1839:.\Generated_Source\PSoC4/CapSense_1_CSHL.c ****     *
1840:.\Generated_Source\PSoC4/CapSense_1_CSHL.c ****     * Parameters:
1841:.\Generated_Source\PSoC4/CapSense_1_CSHL.c ****     *  x1:  Current value.
1842:.\Generated_Source\PSoC4/CapSense_1_CSHL.c ****     *  x2:  Previous value.
1843:.\Generated_Source\PSoC4/CapSense_1_CSHL.c ****     *  x3:  Before previous value.
1844:.\Generated_Source\PSoC4/CapSense_1_CSHL.c ****     *
1845:.\Generated_Source\PSoC4/CapSense_1_CSHL.c ****     * Return:
ARM GAS  C:\Users\maxk\AppData\Local\Temp\ccw8u2Eq.s 			page 69


1846:.\Generated_Source\PSoC4/CapSense_1_CSHL.c ****     *  Returns filtered value.
1847:.\Generated_Source\PSoC4/CapSense_1_CSHL.c ****     *
1848:.\Generated_Source\PSoC4/CapSense_1_CSHL.c ****     *******************************************************************************/
1849:.\Generated_Source\PSoC4/CapSense_1_CSHL.c ****     uint16 CapSense_1_MedianFilter(uint16 x1, uint16 x2, uint16 x3)
1850:.\Generated_Source\PSoC4/CapSense_1_CSHL.c ****     {
1851:.\Generated_Source\PSoC4/CapSense_1_CSHL.c ****         uint16 tmp;
1852:.\Generated_Source\PSoC4/CapSense_1_CSHL.c ****         
1853:.\Generated_Source\PSoC4/CapSense_1_CSHL.c ****         if (x1 > x2)
1854:.\Generated_Source\PSoC4/CapSense_1_CSHL.c ****         {
1855:.\Generated_Source\PSoC4/CapSense_1_CSHL.c ****             tmp = x2;
1856:.\Generated_Source\PSoC4/CapSense_1_CSHL.c ****             x2 = x1;
1857:.\Generated_Source\PSoC4/CapSense_1_CSHL.c ****             x1 = tmp;
1858:.\Generated_Source\PSoC4/CapSense_1_CSHL.c ****         }
1859:.\Generated_Source\PSoC4/CapSense_1_CSHL.c ****         
1860:.\Generated_Source\PSoC4/CapSense_1_CSHL.c ****         if (x2 > x3)
1861:.\Generated_Source\PSoC4/CapSense_1_CSHL.c ****         {
1862:.\Generated_Source\PSoC4/CapSense_1_CSHL.c ****             x2 = x3;
1863:.\Generated_Source\PSoC4/CapSense_1_CSHL.c ****         }
1864:.\Generated_Source\PSoC4/CapSense_1_CSHL.c ****         
1865:.\Generated_Source\PSoC4/CapSense_1_CSHL.c ****         return ((x1 > x2) ? x1 : x2);
1866:.\Generated_Source\PSoC4/CapSense_1_CSHL.c ****     }
1867:.\Generated_Source\PSoC4/CapSense_1_CSHL.c **** #endif /* ( (CapSense_1_RAW_FILTER_MASK & CapSense_1_MEDIAN_FILTER) || \
1868:.\Generated_Source\PSoC4/CapSense_1_CSHL.c ****        *    (CapSense_1_POS_FILTERS_MASK & CapSense_1_MEDIAN_FILTER) )
1869:.\Generated_Source\PSoC4/CapSense_1_CSHL.c ****        */
1870:.\Generated_Source\PSoC4/CapSense_1_CSHL.c **** 
1871:.\Generated_Source\PSoC4/CapSense_1_CSHL.c **** 
1872:.\Generated_Source\PSoC4/CapSense_1_CSHL.c **** #if ( (CapSense_1_RAW_FILTER_MASK & CapSense_1_AVERAGING_FILTER) || \
1873:.\Generated_Source\PSoC4/CapSense_1_CSHL.c ****       (CapSense_1_POS_FILTERS_MASK & CapSense_1_AVERAGING_FILTER) )
1874:.\Generated_Source\PSoC4/CapSense_1_CSHL.c ****     /*******************************************************************************
1875:.\Generated_Source\PSoC4/CapSense_1_CSHL.c ****     * Function Name: CapSense_1_AveragingFilter
1876:.\Generated_Source\PSoC4/CapSense_1_CSHL.c ****     ********************************************************************************
1877:.\Generated_Source\PSoC4/CapSense_1_CSHL.c ****     *
1878:.\Generated_Source\PSoC4/CapSense_1_CSHL.c ****     * Summary:
1879:.\Generated_Source\PSoC4/CapSense_1_CSHL.c ****     *  Averaging filter function.
1880:.\Generated_Source\PSoC4/CapSense_1_CSHL.c ****     *  The averaging filter looks at the three most recent samples of position and
1881:.\Generated_Source\PSoC4/CapSense_1_CSHL.c ****     *  reports the averaging value.
1882:.\Generated_Source\PSoC4/CapSense_1_CSHL.c ****     *
1883:.\Generated_Source\PSoC4/CapSense_1_CSHL.c ****     * Parameters:
1884:.\Generated_Source\PSoC4/CapSense_1_CSHL.c ****     *  x1:  Current value.
1885:.\Generated_Source\PSoC4/CapSense_1_CSHL.c ****     *  x2:  Previous value.
1886:.\Generated_Source\PSoC4/CapSense_1_CSHL.c ****     *  x3:  Before previous value.
1887:.\Generated_Source\PSoC4/CapSense_1_CSHL.c ****     *
1888:.\Generated_Source\PSoC4/CapSense_1_CSHL.c ****     * Return:
1889:.\Generated_Source\PSoC4/CapSense_1_CSHL.c ****     *  Returns filtered value.
1890:.\Generated_Source\PSoC4/CapSense_1_CSHL.c ****     *
1891:.\Generated_Source\PSoC4/CapSense_1_CSHL.c ****     *******************************************************************************/
1892:.\Generated_Source\PSoC4/CapSense_1_CSHL.c ****     uint16 CapSense_1_AveragingFilter(uint16 x1, uint16 x2, uint16 x3)
1893:.\Generated_Source\PSoC4/CapSense_1_CSHL.c ****     {
1894:.\Generated_Source\PSoC4/CapSense_1_CSHL.c ****         uint32 tmp = ((uint32)x1 + (uint32)x2 + (uint32)x3) / 3u;
1895:.\Generated_Source\PSoC4/CapSense_1_CSHL.c ****         
1896:.\Generated_Source\PSoC4/CapSense_1_CSHL.c ****         return ((uint16) tmp);
1897:.\Generated_Source\PSoC4/CapSense_1_CSHL.c ****     }
1898:.\Generated_Source\PSoC4/CapSense_1_CSHL.c **** #endif /* ( (CapSense_1_RAW_FILTER_MASK & CapSense_1_AVERAGING_FILTER) || \
1899:.\Generated_Source\PSoC4/CapSense_1_CSHL.c ****        *    (CapSense_1_POS_FILTERS_MASK & CapSense_1_AVERAGING_FILTER) )
1900:.\Generated_Source\PSoC4/CapSense_1_CSHL.c ****        */
1901:.\Generated_Source\PSoC4/CapSense_1_CSHL.c **** 
1902:.\Generated_Source\PSoC4/CapSense_1_CSHL.c **** 
ARM GAS  C:\Users\maxk\AppData\Local\Temp\ccw8u2Eq.s 			page 70


1903:.\Generated_Source\PSoC4/CapSense_1_CSHL.c **** #if ( (CapSense_1_RAW_FILTER_MASK & CapSense_1_IIR2_FILTER) || \
1904:.\Generated_Source\PSoC4/CapSense_1_CSHL.c ****       (CapSense_1_POS_FILTERS_MASK & CapSense_1_IIR2_FILTER) )
1905:.\Generated_Source\PSoC4/CapSense_1_CSHL.c ****     /*******************************************************************************
1906:.\Generated_Source\PSoC4/CapSense_1_CSHL.c ****     * Function Name: CapSense_1_IIR2Filter
1907:.\Generated_Source\PSoC4/CapSense_1_CSHL.c ****     ********************************************************************************
1908:.\Generated_Source\PSoC4/CapSense_1_CSHL.c ****     *
1909:.\Generated_Source\PSoC4/CapSense_1_CSHL.c ****     * Summary:
1910:.\Generated_Source\PSoC4/CapSense_1_CSHL.c ****     *  IIR1/2 filter function. IIR1/2 = 1/2current + 1/2previous.
1911:.\Generated_Source\PSoC4/CapSense_1_CSHL.c ****     *
1912:.\Generated_Source\PSoC4/CapSense_1_CSHL.c ****     * Parameters:
1913:.\Generated_Source\PSoC4/CapSense_1_CSHL.c ****     *  x1:  Current value.
1914:.\Generated_Source\PSoC4/CapSense_1_CSHL.c ****     *  x2:  Previous value.
1915:.\Generated_Source\PSoC4/CapSense_1_CSHL.c ****     *
1916:.\Generated_Source\PSoC4/CapSense_1_CSHL.c ****     * Return:
1917:.\Generated_Source\PSoC4/CapSense_1_CSHL.c ****     *  Returns filtered value.
1918:.\Generated_Source\PSoC4/CapSense_1_CSHL.c ****     *
1919:.\Generated_Source\PSoC4/CapSense_1_CSHL.c ****     *******************************************************************************/
1920:.\Generated_Source\PSoC4/CapSense_1_CSHL.c ****     uint16 CapSense_1_IIR2Filter(uint16 x1, uint16 x2)
1921:.\Generated_Source\PSoC4/CapSense_1_CSHL.c ****     {
1922:.\Generated_Source\PSoC4/CapSense_1_CSHL.c ****         uint32 tmp;
1923:.\Generated_Source\PSoC4/CapSense_1_CSHL.c ****         
1924:.\Generated_Source\PSoC4/CapSense_1_CSHL.c ****         /* IIR = 1/2 Current Value+ 1/2 Previous Value */
1925:.\Generated_Source\PSoC4/CapSense_1_CSHL.c ****         tmp = (uint32)x1 + (uint32)x2;
1926:.\Generated_Source\PSoC4/CapSense_1_CSHL.c ****         tmp >>= 1u;
1927:.\Generated_Source\PSoC4/CapSense_1_CSHL.c ****     
1928:.\Generated_Source\PSoC4/CapSense_1_CSHL.c ****         return ((uint16) tmp);
1929:.\Generated_Source\PSoC4/CapSense_1_CSHL.c ****     }
1930:.\Generated_Source\PSoC4/CapSense_1_CSHL.c **** #endif /* ( (CapSense_1_RAW_FILTER_MASK & CapSense_1_IIR2_FILTER) || \
1931:.\Generated_Source\PSoC4/CapSense_1_CSHL.c ****        *    (CapSense_1_POS_FILTERS_MASK & CapSense_1_IIR2_FILTER) )
1932:.\Generated_Source\PSoC4/CapSense_1_CSHL.c ****        */
1933:.\Generated_Source\PSoC4/CapSense_1_CSHL.c **** 
1934:.\Generated_Source\PSoC4/CapSense_1_CSHL.c **** 
1935:.\Generated_Source\PSoC4/CapSense_1_CSHL.c **** #if ( (CapSense_1_RAW_FILTER_MASK & CapSense_1_IIR4_FILTER) || \
1936:.\Generated_Source\PSoC4/CapSense_1_CSHL.c ****       (CapSense_1_POS_FILTERS_MASK & CapSense_1_IIR4_FILTER) )
1937:.\Generated_Source\PSoC4/CapSense_1_CSHL.c ****     /*******************************************************************************
1938:.\Generated_Source\PSoC4/CapSense_1_CSHL.c ****     * Function Name: CapSense_1_IIR4Filter
1939:.\Generated_Source\PSoC4/CapSense_1_CSHL.c ****     ********************************************************************************
1940:.\Generated_Source\PSoC4/CapSense_1_CSHL.c ****     *
1941:.\Generated_Source\PSoC4/CapSense_1_CSHL.c ****     * Summary:
1942:.\Generated_Source\PSoC4/CapSense_1_CSHL.c ****     *  IIR1/4 filter function. IIR1/4 = 1/4current + 3/4previous.
1943:.\Generated_Source\PSoC4/CapSense_1_CSHL.c ****     *
1944:.\Generated_Source\PSoC4/CapSense_1_CSHL.c ****     * Parameters:
1945:.\Generated_Source\PSoC4/CapSense_1_CSHL.c ****     *  x1:  Current value.
1946:.\Generated_Source\PSoC4/CapSense_1_CSHL.c ****     *  x2:  Previous value.
1947:.\Generated_Source\PSoC4/CapSense_1_CSHL.c ****     *
1948:.\Generated_Source\PSoC4/CapSense_1_CSHL.c ****     * Return:
1949:.\Generated_Source\PSoC4/CapSense_1_CSHL.c ****     *  Returns filtered value.
1950:.\Generated_Source\PSoC4/CapSense_1_CSHL.c ****     *
1951:.\Generated_Source\PSoC4/CapSense_1_CSHL.c ****     *******************************************************************************/
1952:.\Generated_Source\PSoC4/CapSense_1_CSHL.c ****     uint16 CapSense_1_IIR4Filter(uint16 x1, uint16 x2)
1953:.\Generated_Source\PSoC4/CapSense_1_CSHL.c ****     {
 2024              		.loc 1 1953 0
 2025              		.cfi_startproc
 2026 0000 80B5     		push	{r7, lr}
 2027              	.LCFI42:
 2028              		.cfi_def_cfa_offset 8
 2029              		.cfi_offset 7, -8
ARM GAS  C:\Users\maxk\AppData\Local\Temp\ccw8u2Eq.s 			page 71


 2030              		.cfi_offset 14, -4
 2031 0002 84B0     		sub	sp, sp, #16
 2032              	.LCFI43:
 2033              		.cfi_def_cfa_offset 24
 2034 0004 00AF     		add	r7, sp, #0
 2035              	.LCFI44:
 2036              		.cfi_def_cfa_register 7
 2037 0006 0A1C     		mov	r2, r1
 2038 0008 BB1D     		add	r3, r7, #6
 2039 000a 011C     		add	r1, r0, #0
 2040 000c 1980     		strh	r1, [r3]
 2041 000e 3B1D     		add	r3, r7, #4
 2042 0010 1A80     		strh	r2, [r3]
1954:.\Generated_Source\PSoC4/CapSense_1_CSHL.c ****         uint32 tmp;
1955:.\Generated_Source\PSoC4/CapSense_1_CSHL.c ****         
1956:.\Generated_Source\PSoC4/CapSense_1_CSHL.c ****         /* IIR = 1/4 Current Value + 3/4 Previous Value */
1957:.\Generated_Source\PSoC4/CapSense_1_CSHL.c ****         tmp = (uint32)x1 + (uint32)x2;
 2043              		.loc 1 1957 0
 2044 0012 BB1D     		add	r3, r7, #6
 2045 0014 1A88     		ldrh	r2, [r3]
 2046 0016 3B1D     		add	r3, r7, #4
 2047 0018 1B88     		ldrh	r3, [r3]
 2048 001a D318     		add	r3, r2, r3
 2049 001c FB60     		str	r3, [r7, #12]
1958:.\Generated_Source\PSoC4/CapSense_1_CSHL.c ****         tmp += ((uint32)x2 << 1u);
 2050              		.loc 1 1958 0
 2051 001e 3B1D     		add	r3, r7, #4
 2052 0020 1B88     		ldrh	r3, [r3]
 2053 0022 5B00     		lsl	r3, r3, #1
 2054 0024 FA68     		ldr	r2, [r7, #12]
 2055 0026 D318     		add	r3, r2, r3
 2056 0028 FB60     		str	r3, [r7, #12]
1959:.\Generated_Source\PSoC4/CapSense_1_CSHL.c ****         tmp >>= 2u;
 2057              		.loc 1 1959 0
 2058 002a FB68     		ldr	r3, [r7, #12]
 2059 002c 9B08     		lsr	r3, r3, #2
 2060 002e FB60     		str	r3, [r7, #12]
1960:.\Generated_Source\PSoC4/CapSense_1_CSHL.c ****         
1961:.\Generated_Source\PSoC4/CapSense_1_CSHL.c ****         return ((uint16) tmp);
 2061              		.loc 1 1961 0
 2062 0030 FB68     		ldr	r3, [r7, #12]
 2063 0032 9BB2     		uxth	r3, r3
1962:.\Generated_Source\PSoC4/CapSense_1_CSHL.c ****     }
 2064              		.loc 1 1962 0
 2065 0034 181C     		mov	r0, r3
 2066 0036 BD46     		mov	sp, r7
 2067 0038 04B0     		add	sp, sp, #16
 2068              		@ sp needed for prologue
 2069 003a 80BD     		pop	{r7, pc}
 2070              		.cfi_endproc
 2071              	.LFE14:
 2072              		.size	CapSense_1_IIR4Filter, .-CapSense_1_IIR4Filter
 2073              		.text
 2074              	.Letext0:
 2075              		.section	.debug_loc,"",%progbits
 2076              	.Ldebug_loc0:
 2077              	.LLST0:
ARM GAS  C:\Users\maxk\AppData\Local\Temp\ccw8u2Eq.s 			page 72


 2078 0000 00000000 		.4byte	.LFB0
 2079 0004 02000000 		.4byte	.LCFI0
 2080 0008 0100     		.2byte	0x1
 2081 000a 5D       		.byte	0x5d
 2082 000b 02000000 		.4byte	.LCFI0
 2083 000f 04000000 		.4byte	.LCFI1
 2084 0013 0200     		.2byte	0x2
 2085 0015 7D       		.byte	0x7d
 2086 0016 08       		.sleb128 8
 2087 0017 04000000 		.4byte	.LCFI1
 2088 001b 06000000 		.4byte	.LCFI2
 2089 001f 0200     		.2byte	0x2
 2090 0021 7D       		.byte	0x7d
 2091 0022 10       		.sleb128 16
 2092 0023 06000000 		.4byte	.LCFI2
 2093 0027 4C000000 		.4byte	.LFE0
 2094 002b 0200     		.2byte	0x2
 2095 002d 77       		.byte	0x77
 2096 002e 10       		.sleb128 16
 2097 002f 00000000 		.4byte	0x0
 2098 0033 00000000 		.4byte	0x0
 2099              	.LLST1:
 2100 0037 00000000 		.4byte	.LFB1
 2101 003b 02000000 		.4byte	.LCFI3
 2102 003f 0100     		.2byte	0x1
 2103 0041 5D       		.byte	0x5d
 2104 0042 02000000 		.4byte	.LCFI3
 2105 0046 04000000 		.4byte	.LCFI4
 2106 004a 0200     		.2byte	0x2
 2107 004c 7D       		.byte	0x7d
 2108 004d 08       		.sleb128 8
 2109 004e 04000000 		.4byte	.LCFI4
 2110 0052 06000000 		.4byte	.LCFI5
 2111 0056 0200     		.2byte	0x2
 2112 0058 7D       		.byte	0x7d
 2113 0059 10       		.sleb128 16
 2114 005a 06000000 		.4byte	.LCFI5
 2115 005e 30000000 		.4byte	.LFE1
 2116 0062 0200     		.2byte	0x2
 2117 0064 77       		.byte	0x77
 2118 0065 10       		.sleb128 16
 2119 0066 00000000 		.4byte	0x0
 2120 006a 00000000 		.4byte	0x0
 2121              	.LLST2:
 2122 006e 00000000 		.4byte	.LFB2
 2123 0072 02000000 		.4byte	.LCFI6
 2124 0076 0100     		.2byte	0x1
 2125 0078 5D       		.byte	0x5d
 2126 0079 02000000 		.4byte	.LCFI6
 2127 007d 04000000 		.4byte	.LCFI7
 2128 0081 0200     		.2byte	0x2
 2129 0083 7D       		.byte	0x7d
 2130 0084 08       		.sleb128 8
 2131 0085 04000000 		.4byte	.LCFI7
 2132 0089 06000000 		.4byte	.LCFI8
 2133 008d 0200     		.2byte	0x2
 2134 008f 7D       		.byte	0x7d
ARM GAS  C:\Users\maxk\AppData\Local\Temp\ccw8u2Eq.s 			page 73


 2135 0090 10       		.sleb128 16
 2136 0091 06000000 		.4byte	.LCFI8
 2137 0095 30000000 		.4byte	.LFE2
 2138 0099 0200     		.2byte	0x2
 2139 009b 77       		.byte	0x77
 2140 009c 10       		.sleb128 16
 2141 009d 00000000 		.4byte	0x0
 2142 00a1 00000000 		.4byte	0x0
 2143              	.LLST3:
 2144 00a5 00000000 		.4byte	.LFB3
 2145 00a9 02000000 		.4byte	.LCFI9
 2146 00ad 0100     		.2byte	0x1
 2147 00af 5D       		.byte	0x5d
 2148 00b0 02000000 		.4byte	.LCFI9
 2149 00b4 04000000 		.4byte	.LCFI10
 2150 00b8 0200     		.2byte	0x2
 2151 00ba 7D       		.byte	0x7d
 2152 00bb 08       		.sleb128 8
 2153 00bc 04000000 		.4byte	.LCFI10
 2154 00c0 06000000 		.4byte	.LCFI11
 2155 00c4 0200     		.2byte	0x2
 2156 00c6 7D       		.byte	0x7d
 2157 00c7 10       		.sleb128 16
 2158 00c8 06000000 		.4byte	.LCFI11
 2159 00cc 80000000 		.4byte	.LFE3
 2160 00d0 0200     		.2byte	0x2
 2161 00d2 77       		.byte	0x77
 2162 00d3 10       		.sleb128 16
 2163 00d4 00000000 		.4byte	0x0
 2164 00d8 00000000 		.4byte	0x0
 2165              	.LLST4:
 2166 00dc 00000000 		.4byte	.LFB4
 2167 00e0 02000000 		.4byte	.LCFI12
 2168 00e4 0100     		.2byte	0x1
 2169 00e6 5D       		.byte	0x5d
 2170 00e7 02000000 		.4byte	.LCFI12
 2171 00eb 04000000 		.4byte	.LCFI13
 2172 00ef 0200     		.2byte	0x2
 2173 00f1 7D       		.byte	0x7d
 2174 00f2 08       		.sleb128 8
 2175 00f3 04000000 		.4byte	.LCFI13
 2176 00f7 06000000 		.4byte	.LCFI14
 2177 00fb 0200     		.2byte	0x2
 2178 00fd 7D       		.byte	0x7d
 2179 00fe 20       		.sleb128 32
 2180 00ff 06000000 		.4byte	.LCFI14
 2181 0103 CC010000 		.4byte	.LFE4
 2182 0107 0200     		.2byte	0x2
 2183 0109 77       		.byte	0x77
 2184 010a 20       		.sleb128 32
 2185 010b 00000000 		.4byte	0x0
 2186 010f 00000000 		.4byte	0x0
 2187              	.LLST5:
 2188 0113 00000000 		.4byte	.LFB5
 2189 0117 02000000 		.4byte	.LCFI15
 2190 011b 0100     		.2byte	0x1
 2191 011d 5D       		.byte	0x5d
ARM GAS  C:\Users\maxk\AppData\Local\Temp\ccw8u2Eq.s 			page 74


 2192 011e 02000000 		.4byte	.LCFI15
 2193 0122 04000000 		.4byte	.LCFI16
 2194 0126 0200     		.2byte	0x2
 2195 0128 7D       		.byte	0x7d
 2196 0129 08       		.sleb128 8
 2197 012a 04000000 		.4byte	.LCFI16
 2198 012e 06000000 		.4byte	.LCFI17
 2199 0132 0200     		.2byte	0x2
 2200 0134 7D       		.byte	0x7d
 2201 0135 10       		.sleb128 16
 2202 0136 06000000 		.4byte	.LCFI17
 2203 013a 64000000 		.4byte	.LFE5
 2204 013e 0200     		.2byte	0x2
 2205 0140 77       		.byte	0x77
 2206 0141 10       		.sleb128 16
 2207 0142 00000000 		.4byte	0x0
 2208 0146 00000000 		.4byte	0x0
 2209              	.LLST6:
 2210 014a 00000000 		.4byte	.LFB6
 2211 014e 02000000 		.4byte	.LCFI18
 2212 0152 0100     		.2byte	0x1
 2213 0154 5D       		.byte	0x5d
 2214 0155 02000000 		.4byte	.LCFI18
 2215 0159 04000000 		.4byte	.LCFI19
 2216 015d 0200     		.2byte	0x2
 2217 015f 7D       		.byte	0x7d
 2218 0160 08       		.sleb128 8
 2219 0161 04000000 		.4byte	.LCFI19
 2220 0165 06000000 		.4byte	.LCFI20
 2221 0169 0200     		.2byte	0x2
 2222 016b 7D       		.byte	0x7d
 2223 016c 18       		.sleb128 24
 2224 016d 06000000 		.4byte	.LCFI20
 2225 0171 A0010000 		.4byte	.LFE6
 2226 0175 0200     		.2byte	0x2
 2227 0177 77       		.byte	0x77
 2228 0178 18       		.sleb128 24
 2229 0179 00000000 		.4byte	0x0
 2230 017d 00000000 		.4byte	0x0
 2231              	.LLST7:
 2232 0181 00000000 		.4byte	.LFB7
 2233 0185 02000000 		.4byte	.LCFI21
 2234 0189 0100     		.2byte	0x1
 2235 018b 5D       		.byte	0x5d
 2236 018c 02000000 		.4byte	.LCFI21
 2237 0190 04000000 		.4byte	.LCFI22
 2238 0194 0200     		.2byte	0x2
 2239 0196 7D       		.byte	0x7d
 2240 0197 08       		.sleb128 8
 2241 0198 04000000 		.4byte	.LCFI22
 2242 019c 06000000 		.4byte	.LCFI23
 2243 01a0 0200     		.2byte	0x2
 2244 01a2 7D       		.byte	0x7d
 2245 01a3 18       		.sleb128 24
 2246 01a4 06000000 		.4byte	.LCFI23
 2247 01a8 88000000 		.4byte	.LFE7
 2248 01ac 0200     		.2byte	0x2
ARM GAS  C:\Users\maxk\AppData\Local\Temp\ccw8u2Eq.s 			page 75


 2249 01ae 77       		.byte	0x77
 2250 01af 18       		.sleb128 24
 2251 01b0 00000000 		.4byte	0x0
 2252 01b4 00000000 		.4byte	0x0
 2253              	.LLST8:
 2254 01b8 00000000 		.4byte	.LFB8
 2255 01bc 02000000 		.4byte	.LCFI24
 2256 01c0 0100     		.2byte	0x1
 2257 01c2 5D       		.byte	0x5d
 2258 01c3 02000000 		.4byte	.LCFI24
 2259 01c7 04000000 		.4byte	.LCFI25
 2260 01cb 0200     		.2byte	0x2
 2261 01cd 7D       		.byte	0x7d
 2262 01ce 08       		.sleb128 8
 2263 01cf 04000000 		.4byte	.LCFI25
 2264 01d3 06000000 		.4byte	.LCFI26
 2265 01d7 0200     		.2byte	0x2
 2266 01d9 7D       		.byte	0x7d
 2267 01da 10       		.sleb128 16
 2268 01db 06000000 		.4byte	.LCFI26
 2269 01df 48000000 		.4byte	.LFE8
 2270 01e3 0200     		.2byte	0x2
 2271 01e5 77       		.byte	0x77
 2272 01e6 10       		.sleb128 16
 2273 01e7 00000000 		.4byte	0x0
 2274 01eb 00000000 		.4byte	0x0
 2275              	.LLST9:
 2276 01ef 00000000 		.4byte	.LFB9
 2277 01f3 02000000 		.4byte	.LCFI27
 2278 01f7 0100     		.2byte	0x1
 2279 01f9 5D       		.byte	0x5d
 2280 01fa 02000000 		.4byte	.LCFI27
 2281 01fe 04000000 		.4byte	.LCFI28
 2282 0202 0200     		.2byte	0x2
 2283 0204 7D       		.byte	0x7d
 2284 0205 08       		.sleb128 8
 2285 0206 04000000 		.4byte	.LCFI28
 2286 020a 06000000 		.4byte	.LCFI29
 2287 020e 0200     		.2byte	0x2
 2288 0210 7D       		.byte	0x7d
 2289 0211 18       		.sleb128 24
 2290 0212 06000000 		.4byte	.LCFI29
 2291 0216 A0000000 		.4byte	.LFE9
 2292 021a 0200     		.2byte	0x2
 2293 021c 77       		.byte	0x77
 2294 021d 18       		.sleb128 24
 2295 021e 00000000 		.4byte	0x0
 2296 0222 00000000 		.4byte	0x0
 2297              	.LLST10:
 2298 0226 00000000 		.4byte	.LFB10
 2299 022a 02000000 		.4byte	.LCFI30
 2300 022e 0100     		.2byte	0x1
 2301 0230 5D       		.byte	0x5d
 2302 0231 02000000 		.4byte	.LCFI30
 2303 0235 04000000 		.4byte	.LCFI31
 2304 0239 0200     		.2byte	0x2
 2305 023b 7D       		.byte	0x7d
ARM GAS  C:\Users\maxk\AppData\Local\Temp\ccw8u2Eq.s 			page 76


 2306 023c 08       		.sleb128 8
 2307 023d 04000000 		.4byte	.LCFI31
 2308 0241 06000000 		.4byte	.LCFI32
 2309 0245 0200     		.2byte	0x2
 2310 0247 7D       		.byte	0x7d
 2311 0248 18       		.sleb128 24
 2312 0249 06000000 		.4byte	.LCFI32
 2313 024d A8000000 		.4byte	.LFE10
 2314 0251 0200     		.2byte	0x2
 2315 0253 77       		.byte	0x77
 2316 0254 18       		.sleb128 24
 2317 0255 00000000 		.4byte	0x0
 2318 0259 00000000 		.4byte	0x0
 2319              	.LLST11:
 2320 025d 00000000 		.4byte	.LFB11
 2321 0261 02000000 		.4byte	.LCFI33
 2322 0265 0100     		.2byte	0x1
 2323 0267 5D       		.byte	0x5d
 2324 0268 02000000 		.4byte	.LCFI33
 2325 026c 04000000 		.4byte	.LCFI34
 2326 0270 0200     		.2byte	0x2
 2327 0272 7D       		.byte	0x7d
 2328 0273 08       		.sleb128 8
 2329 0274 04000000 		.4byte	.LCFI34
 2330 0278 06000000 		.4byte	.LCFI35
 2331 027c 0200     		.2byte	0x2
 2332 027e 7D       		.byte	0x7d
 2333 027f 18       		.sleb128 24
 2334 0280 06000000 		.4byte	.LCFI35
 2335 0284 B0000000 		.4byte	.LFE11
 2336 0288 0200     		.2byte	0x2
 2337 028a 77       		.byte	0x77
 2338 028b 18       		.sleb128 24
 2339 028c 00000000 		.4byte	0x0
 2340 0290 00000000 		.4byte	0x0
 2341              	.LLST12:
 2342 0294 00000000 		.4byte	.LFB12
 2343 0298 02000000 		.4byte	.LCFI36
 2344 029c 0100     		.2byte	0x1
 2345 029e 5D       		.byte	0x5d
 2346 029f 02000000 		.4byte	.LCFI36
 2347 02a3 04000000 		.4byte	.LCFI37
 2348 02a7 0200     		.2byte	0x2
 2349 02a9 7D       		.byte	0x7d
 2350 02aa 0C       		.sleb128 12
 2351 02ab 04000000 		.4byte	.LCFI37
 2352 02af 06000000 		.4byte	.LCFI38
 2353 02b3 0200     		.2byte	0x2
 2354 02b5 7D       		.byte	0x7d
 2355 02b6 28       		.sleb128 40
 2356 02b7 06000000 		.4byte	.LCFI38
 2357 02bb 84010000 		.4byte	.LFE12
 2358 02bf 0200     		.2byte	0x2
 2359 02c1 77       		.byte	0x77
 2360 02c2 28       		.sleb128 40
 2361 02c3 00000000 		.4byte	0x0
 2362 02c7 00000000 		.4byte	0x0
ARM GAS  C:\Users\maxk\AppData\Local\Temp\ccw8u2Eq.s 			page 77


 2363              	.LLST13:
 2364 02cb 00000000 		.4byte	.LFB13
 2365 02cf 02000000 		.4byte	.LCFI39
 2366 02d3 0100     		.2byte	0x1
 2367 02d5 5D       		.byte	0x5d
 2368 02d6 02000000 		.4byte	.LCFI39
 2369 02da 04000000 		.4byte	.LCFI40
 2370 02de 0200     		.2byte	0x2
 2371 02e0 7D       		.byte	0x7d
 2372 02e1 0C       		.sleb128 12
 2373 02e2 04000000 		.4byte	.LCFI40
 2374 02e6 06000000 		.4byte	.LCFI41
 2375 02ea 0200     		.2byte	0x2
 2376 02ec 7D       		.byte	0x7d
 2377 02ed 28       		.sleb128 40
 2378 02ee 06000000 		.4byte	.LCFI41
 2379 02f2 94010000 		.4byte	.LFE13
 2380 02f6 0200     		.2byte	0x2
 2381 02f8 77       		.byte	0x77
 2382 02f9 20       		.sleb128 32
 2383 02fa 00000000 		.4byte	0x0
 2384 02fe 00000000 		.4byte	0x0
 2385              	.LLST14:
 2386 0302 00000000 		.4byte	.LFB14
 2387 0306 02000000 		.4byte	.LCFI42
 2388 030a 0100     		.2byte	0x1
 2389 030c 5D       		.byte	0x5d
 2390 030d 02000000 		.4byte	.LCFI42
 2391 0311 04000000 		.4byte	.LCFI43
 2392 0315 0200     		.2byte	0x2
 2393 0317 7D       		.byte	0x7d
 2394 0318 08       		.sleb128 8
 2395 0319 04000000 		.4byte	.LCFI43
 2396 031d 06000000 		.4byte	.LCFI44
 2397 0321 0200     		.2byte	0x2
 2398 0323 7D       		.byte	0x7d
 2399 0324 18       		.sleb128 24
 2400 0325 06000000 		.4byte	.LCFI44
 2401 0329 3C000000 		.4byte	.LFE14
 2402 032d 0200     		.2byte	0x2
 2403 032f 77       		.byte	0x77
 2404 0330 18       		.sleb128 24
 2405 0331 00000000 		.4byte	0x0
 2406 0335 00000000 		.4byte	0x0
 2407              		.file 2 ".\\Generated_Source\\PSoC4\\/cytypes.h"
 2408              		.section	.debug_info
 2409 0000 23080000 		.4byte	0x823
 2410 0004 0200     		.2byte	0x2
 2411 0006 00000000 		.4byte	.Ldebug_abbrev0
 2412 000a 04       		.byte	0x4
 2413 000b 01       		.uleb128 0x1
 2414 000c A1000000 		.4byte	.LASF79
 2415 0010 01       		.byte	0x1
 2416 0011 CC050000 		.4byte	.LASF80
 2417 0015 75030000 		.4byte	.LASF81
 2418 0019 00000000 		.4byte	0x0
 2419 001d 00000000 		.4byte	0x0
ARM GAS  C:\Users\maxk\AppData\Local\Temp\ccw8u2Eq.s 			page 78


 2420 0021 00000000 		.4byte	.Ldebug_ranges0+0x0
 2421 0025 00000000 		.4byte	.Ldebug_line0
 2422 0029 02       		.uleb128 0x2
 2423 002a 01       		.byte	0x1
 2424 002b 06       		.byte	0x6
 2425 002c E9000000 		.4byte	.LASF0
 2426 0030 02       		.uleb128 0x2
 2427 0031 01       		.byte	0x1
 2428 0032 08       		.byte	0x8
 2429 0033 16040000 		.4byte	.LASF1
 2430 0037 02       		.uleb128 0x2
 2431 0038 02       		.byte	0x2
 2432 0039 05       		.byte	0x5
 2433 003a 59040000 		.4byte	.LASF2
 2434 003e 02       		.uleb128 0x2
 2435 003f 02       		.byte	0x2
 2436 0040 07       		.byte	0x7
 2437 0041 5D020000 		.4byte	.LASF3
 2438 0045 02       		.uleb128 0x2
 2439 0046 04       		.byte	0x4
 2440 0047 05       		.byte	0x5
 2441 0048 61010000 		.4byte	.LASF4
 2442 004c 02       		.uleb128 0x2
 2443 004d 04       		.byte	0x4
 2444 004e 07       		.byte	0x7
 2445 004f 17020000 		.4byte	.LASF5
 2446 0053 02       		.uleb128 0x2
 2447 0054 08       		.byte	0x8
 2448 0055 05       		.byte	0x5
 2449 0056 DB000000 		.4byte	.LASF6
 2450 005a 02       		.uleb128 0x2
 2451 005b 08       		.byte	0x8
 2452 005c 07       		.byte	0x7
 2453 005d 63000000 		.4byte	.LASF7
 2454 0061 03       		.uleb128 0x3
 2455 0062 04       		.byte	0x4
 2456 0063 05       		.byte	0x5
 2457 0064 696E7400 		.ascii	"int\000"
 2458 0068 02       		.uleb128 0x2
 2459 0069 04       		.byte	0x4
 2460 006a 07       		.byte	0x7
 2461 006b 01020000 		.4byte	.LASF8
 2462 006f 04       		.uleb128 0x4
 2463 0070 99010000 		.4byte	.LASF9
 2464 0074 02       		.byte	0x2
 2465 0075 4C       		.byte	0x4c
 2466 0076 30000000 		.4byte	0x30
 2467 007a 04       		.uleb128 0x4
 2468 007b 06000000 		.4byte	.LASF10
 2469 007f 02       		.byte	0x2
 2470 0080 4D       		.byte	0x4d
 2471 0081 3E000000 		.4byte	0x3e
 2472 0085 04       		.uleb128 0x4
 2473 0086 A6010000 		.4byte	.LASF11
 2474 008a 02       		.byte	0x2
 2475 008b 4E       		.byte	0x4e
 2476 008c 4C000000 		.4byte	0x4c
ARM GAS  C:\Users\maxk\AppData\Local\Temp\ccw8u2Eq.s 			page 79


 2477 0090 04       		.uleb128 0x4
 2478 0091 3E010000 		.4byte	.LASF12
 2479 0095 02       		.byte	0x2
 2480 0096 51       		.byte	0x51
 2481 0097 45000000 		.4byte	0x45
 2482 009b 02       		.uleb128 0x2
 2483 009c 04       		.byte	0x4
 2484 009d 04       		.byte	0x4
 2485 009e 6F030000 		.4byte	.LASF13
 2486 00a2 02       		.uleb128 0x2
 2487 00a3 08       		.byte	0x8
 2488 00a4 04       		.byte	0x4
 2489 00a5 9F010000 		.4byte	.LASF14
 2490 00a9 02       		.uleb128 0x2
 2491 00aa 01       		.byte	0x1
 2492 00ab 08       		.byte	0x8
 2493 00ac 27050000 		.4byte	.LASF15
 2494 00b0 05       		.uleb128 0x5
 2495 00b1 04       		.byte	0x4
 2496 00b2 07       		.byte	0x7
 2497 00b3 06       		.uleb128 0x6
 2498 00b4 01       		.byte	0x1
 2499 00b5 4F000000 		.4byte	.LASF16
 2500 00b9 01       		.byte	0x1
 2501 00ba BB       		.byte	0xbb
 2502 00bb 01       		.byte	0x1
 2503 00bc 00000000 		.4byte	.LFB0
 2504 00c0 4C000000 		.4byte	.LFE0
 2505 00c4 00000000 		.4byte	.LLST0
 2506 00c8 DB000000 		.4byte	0xdb
 2507 00cc 07       		.uleb128 0x7
 2508 00cd 70020000 		.4byte	.LASF18
 2509 00d1 01       		.byte	0x1
 2510 00d2 BB       		.byte	0xbb
 2511 00d3 6F000000 		.4byte	0x6f
 2512 00d7 02       		.byte	0x2
 2513 00d8 91       		.byte	0x91
 2514 00d9 77       		.sleb128 -9
 2515 00da 00       		.byte	0x0
 2516 00db 08       		.uleb128 0x8
 2517 00dc 01       		.byte	0x1
 2518 00dd 29030000 		.4byte	.LASF17
 2519 00e1 01       		.byte	0x1
 2520 00e2 0301     		.2byte	0x103
 2521 00e4 01       		.byte	0x1
 2522 00e5 00000000 		.4byte	.LFB1
 2523 00e9 30000000 		.4byte	.LFE1
 2524 00ed 37000000 		.4byte	.LLST1
 2525 00f1 05010000 		.4byte	0x105
 2526 00f5 09       		.uleb128 0x9
 2527 00f6 70020000 		.4byte	.LASF18
 2528 00fa 01       		.byte	0x1
 2529 00fb 0301     		.2byte	0x103
 2530 00fd 6F000000 		.4byte	0x6f
 2531 0101 02       		.byte	0x2
 2532 0102 91       		.byte	0x91
 2533 0103 77       		.sleb128 -9
ARM GAS  C:\Users\maxk\AppData\Local\Temp\ccw8u2Eq.s 			page 80


 2534 0104 00       		.byte	0x0
 2535 0105 08       		.uleb128 0x8
 2536 0106 01       		.byte	0x1
 2537 0107 2D000000 		.4byte	.LASF19
 2538 010b 01       		.byte	0x1
 2539 010c 2201     		.2byte	0x122
 2540 010e 01       		.byte	0x1
 2541 010f 00000000 		.4byte	.LFB2
 2542 0113 30000000 		.4byte	.LFE2
 2543 0117 6E000000 		.4byte	.LLST2
 2544 011b 2D010000 		.4byte	0x12d
 2545 011f 0A       		.uleb128 0xa
 2546 0120 6900     		.ascii	"i\000"
 2547 0122 01       		.byte	0x1
 2548 0123 2401     		.2byte	0x124
 2549 0125 6F000000 		.4byte	0x6f
 2550 0129 02       		.byte	0x2
 2551 012a 91       		.byte	0x91
 2552 012b 77       		.sleb128 -9
 2553 012c 00       		.byte	0x0
 2554 012d 08       		.uleb128 0x8
 2555 012e 01       		.byte	0x1
 2556 012f 24040000 		.4byte	.LASF20
 2557 0133 01       		.byte	0x1
 2558 0134 4201     		.2byte	0x142
 2559 0136 01       		.byte	0x1
 2560 0137 00000000 		.4byte	.LFB3
 2561 013b 80000000 		.4byte	.LFE3
 2562 013f A5000000 		.4byte	.LLST3
 2563 0143 73010000 		.4byte	0x173
 2564 0147 0A       		.uleb128 0xa
 2565 0148 6900     		.ascii	"i\000"
 2566 014a 01       		.byte	0x1
 2567 014b 4401     		.2byte	0x144
 2568 014d 6F000000 		.4byte	0x6f
 2569 0151 02       		.byte	0x2
 2570 0152 91       		.byte	0x91
 2571 0153 75       		.sleb128 -11
 2572 0154 0A       		.uleb128 0xa
 2573 0155 706F7300 		.ascii	"pos\000"
 2574 0159 01       		.byte	0x1
 2575 015a 4501     		.2byte	0x145
 2576 015c 6F000000 		.4byte	0x6f
 2577 0160 02       		.byte	0x2
 2578 0161 91       		.byte	0x91
 2579 0162 76       		.sleb128 -10
 2580 0163 0B       		.uleb128 0xb
 2581 0164 C9020000 		.4byte	.LASF21
 2582 0168 01       		.byte	0x1
 2583 0169 4601     		.2byte	0x146
 2584 016b 6F000000 		.4byte	0x6f
 2585 016f 02       		.byte	0x2
 2586 0170 91       		.byte	0x91
 2587 0171 77       		.sleb128 -9
 2588 0172 00       		.byte	0x0
 2589 0173 08       		.uleb128 0x8
 2590 0174 01       		.byte	0x1
ARM GAS  C:\Users\maxk\AppData\Local\Temp\ccw8u2Eq.s 			page 81


 2591 0175 71040000 		.4byte	.LASF22
 2592 0179 01       		.byte	0x1
 2593 017a 8101     		.2byte	0x181
 2594 017c 01       		.byte	0x1
 2595 017d 00000000 		.4byte	.LFB4
 2596 0181 CC010000 		.4byte	.LFE4
 2597 0185 DC000000 		.4byte	.LLST4
 2598 0189 E8010000 		.4byte	0x1e8
 2599 018d 09       		.uleb128 0x9
 2600 018e 70020000 		.4byte	.LASF18
 2601 0192 01       		.byte	0x1
 2602 0193 8101     		.2byte	0x181
 2603 0195 6F000000 		.4byte	0x6f
 2604 0199 02       		.byte	0x2
 2605 019a 91       		.byte	0x91
 2606 019b 67       		.sleb128 -25
 2607 019c 0B       		.uleb128 0xb
 2608 019d 9A020000 		.4byte	.LASF23
 2609 01a1 01       		.byte	0x1
 2610 01a2 8301     		.2byte	0x183
 2611 01a4 85000000 		.4byte	0x85
 2612 01a8 02       		.byte	0x2
 2613 01a9 91       		.byte	0x91
 2614 01aa 6C       		.sleb128 -20
 2615 01ab 0B       		.uleb128 0xb
 2616 01ac AA050000 		.4byte	.LASF24
 2617 01b0 01       		.byte	0x1
 2618 01b1 8401     		.2byte	0x184
 2619 01b3 7A000000 		.4byte	0x7a
 2620 01b7 02       		.byte	0x2
 2621 01b8 91       		.byte	0x91
 2622 01b9 72       		.sleb128 -14
 2623 01ba 0B       		.uleb128 0xb
 2624 01bb 0D000000 		.4byte	.LASF25
 2625 01bf 01       		.byte	0x1
 2626 01c0 8501     		.2byte	0x185
 2627 01c2 7A000000 		.4byte	0x7a
 2628 01c6 02       		.byte	0x2
 2629 01c7 91       		.byte	0x91
 2630 01c8 74       		.sleb128 -12
 2631 01c9 0B       		.uleb128 0xb
 2632 01ca 63040000 		.4byte	.LASF26
 2633 01ce 01       		.byte	0x1
 2634 01cf 8601     		.2byte	0x186
 2635 01d1 6F000000 		.4byte	0x6f
 2636 01d5 02       		.byte	0x2
 2637 01d6 91       		.byte	0x91
 2638 01d7 76       		.sleb128 -10
 2639 01d8 0B       		.uleb128 0xb
 2640 01d9 4A040000 		.4byte	.LASF27
 2641 01dd 01       		.byte	0x1
 2642 01de 8701     		.2byte	0x187
 2643 01e0 6F000000 		.4byte	0x6f
 2644 01e4 02       		.byte	0x2
 2645 01e5 91       		.byte	0x91
 2646 01e6 77       		.sleb128 -9
 2647 01e7 00       		.byte	0x0
ARM GAS  C:\Users\maxk\AppData\Local\Temp\ccw8u2Eq.s 			page 82


 2648 01e8 08       		.uleb128 0x8
 2649 01e9 01       		.byte	0x1
 2650 01ea 4D030000 		.4byte	.LASF28
 2651 01ee 01       		.byte	0x1
 2652 01ef 2D02     		.2byte	0x22d
 2653 01f1 01       		.byte	0x1
 2654 01f2 00000000 		.4byte	.LFB5
 2655 01f6 64000000 		.4byte	.LFE5
 2656 01fa 13010000 		.4byte	.LLST5
 2657 01fe 2E020000 		.4byte	0x22e
 2658 0202 0A       		.uleb128 0xa
 2659 0203 6900     		.ascii	"i\000"
 2660 0205 01       		.byte	0x1
 2661 0206 2F02     		.2byte	0x22f
 2662 0208 6F000000 		.4byte	0x6f
 2663 020c 02       		.byte	0x2
 2664 020d 91       		.byte	0x91
 2665 020e 75       		.sleb128 -11
 2666 020f 0A       		.uleb128 0xa
 2667 0210 706F7300 		.ascii	"pos\000"
 2668 0214 01       		.byte	0x1
 2669 0215 3002     		.2byte	0x230
 2670 0217 6F000000 		.4byte	0x6f
 2671 021b 02       		.byte	0x2
 2672 021c 91       		.byte	0x91
 2673 021d 76       		.sleb128 -10
 2674 021e 0B       		.uleb128 0xb
 2675 021f C9020000 		.4byte	.LASF21
 2676 0223 01       		.byte	0x1
 2677 0224 3102     		.2byte	0x231
 2678 0226 6F000000 		.4byte	0x6f
 2679 022a 02       		.byte	0x2
 2680 022b 91       		.byte	0x91
 2681 022c 77       		.sleb128 -9
 2682 022d 00       		.byte	0x0
 2683 022e 0C       		.uleb128 0xc
 2684 022f 01       		.byte	0x1
 2685 0230 D5030000 		.4byte	.LASF34
 2686 0234 01       		.byte	0x1
 2687 0235 6602     		.2byte	0x266
 2688 0237 01       		.byte	0x1
 2689 0238 6F000000 		.4byte	0x6f
 2690 023c 00000000 		.4byte	.LFB6
 2691 0240 A0010000 		.4byte	.LFE6
 2692 0244 4A010000 		.4byte	.LLST6
 2693 0248 C5020000 		.4byte	0x2c5
 2694 024c 09       		.uleb128 0x9
 2695 024d 70020000 		.4byte	.LASF18
 2696 0251 01       		.byte	0x1
 2697 0252 6602     		.2byte	0x266
 2698 0254 6F000000 		.4byte	0x6f
 2699 0258 02       		.byte	0x2
 2700 0259 91       		.byte	0x91
 2701 025a 6F       		.sleb128 -17
 2702 025b 0B       		.uleb128 0xb
 2703 025c 67050000 		.4byte	.LASF29
 2704 0260 01       		.byte	0x1
ARM GAS  C:\Users\maxk\AppData\Local\Temp\ccw8u2Eq.s 			page 83


 2705 0261 6802     		.2byte	0x268
 2706 0263 6F000000 		.4byte	0x6f
 2707 0267 02       		.byte	0x2
 2708 0268 91       		.byte	0x91
 2709 0269 71       		.sleb128 -15
 2710 026a 0A       		.uleb128 0xa
 2711 026b 706F7300 		.ascii	"pos\000"
 2712 026f 01       		.byte	0x1
 2713 0270 6A02     		.2byte	0x26a
 2714 0272 6F000000 		.4byte	0x6f
 2715 0276 02       		.byte	0x2
 2716 0277 91       		.byte	0x91
 2717 0278 72       		.sleb128 -14
 2718 0279 0B       		.uleb128 0xb
 2719 027a 6A040000 		.4byte	.LASF30
 2720 027e 01       		.byte	0x1
 2721 027f 6B02     		.2byte	0x26b
 2722 0281 6F000000 		.4byte	0x6f
 2723 0285 02       		.byte	0x2
 2724 0286 91       		.byte	0x91
 2725 0287 73       		.sleb128 -13
 2726 0288 0B       		.uleb128 0xb
 2727 0289 63040000 		.4byte	.LASF26
 2728 028d 01       		.byte	0x1
 2729 028e 6D02     		.2byte	0x26d
 2730 0290 6F000000 		.4byte	0x6f
 2731 0294 02       		.byte	0x2
 2732 0295 91       		.byte	0x91
 2733 0296 74       		.sleb128 -12
 2734 0297 0B       		.uleb128 0xb
 2735 0298 1D000000 		.4byte	.LASF31
 2736 029c 01       		.byte	0x1
 2737 029d 6E02     		.2byte	0x26e
 2738 029f 6F000000 		.4byte	0x6f
 2739 02a3 02       		.byte	0x2
 2740 02a4 91       		.byte	0x91
 2741 02a5 75       		.sleb128 -11
 2742 02a6 0B       		.uleb128 0xb
 2743 02a7 AD010000 		.4byte	.LASF32
 2744 02ab 01       		.byte	0x1
 2745 02ac 6F02     		.2byte	0x26f
 2746 02ae 6F000000 		.4byte	0x6f
 2747 02b2 02       		.byte	0x2
 2748 02b3 91       		.byte	0x91
 2749 02b4 76       		.sleb128 -10
 2750 02b5 0B       		.uleb128 0xb
 2751 02b6 C0020000 		.4byte	.LASF33
 2752 02ba 01       		.byte	0x1
 2753 02bb 7002     		.2byte	0x270
 2754 02bd 6F000000 		.4byte	0x6f
 2755 02c1 02       		.byte	0x2
 2756 02c2 91       		.byte	0x91
 2757 02c3 77       		.sleb128 -9
 2758 02c4 00       		.byte	0x0
 2759 02c5 0C       		.uleb128 0xc
 2760 02c6 01       		.byte	0x1
 2761 02c7 75050000 		.4byte	.LASF35
ARM GAS  C:\Users\maxk\AppData\Local\Temp\ccw8u2Eq.s 			page 84


 2762 02cb 01       		.byte	0x1
 2763 02cc AD02     		.2byte	0x2ad
 2764 02ce 01       		.byte	0x1
 2765 02cf 6F000000 		.4byte	0x6f
 2766 02d3 00000000 		.4byte	.LFB7
 2767 02d7 88000000 		.4byte	.LFE7
 2768 02db 81010000 		.4byte	.LLST7
 2769 02df 20030000 		.4byte	0x320
 2770 02e3 09       		.uleb128 0x9
 2771 02e4 63040000 		.4byte	.LASF26
 2772 02e8 01       		.byte	0x1
 2773 02e9 AD02     		.2byte	0x2ad
 2774 02eb 6F000000 		.4byte	0x6f
 2775 02ef 02       		.byte	0x2
 2776 02f0 91       		.byte	0x91
 2777 02f1 6F       		.sleb128 -17
 2778 02f2 0B       		.uleb128 0xb
 2779 02f3 11010000 		.4byte	.LASF36
 2780 02f7 01       		.byte	0x1
 2781 02f8 AF02     		.2byte	0x2af
 2782 02fa 6F000000 		.4byte	0x6f
 2783 02fe 02       		.byte	0x2
 2784 02ff 91       		.byte	0x91
 2785 0300 75       		.sleb128 -11
 2786 0301 0B       		.uleb128 0xb
 2787 0302 1A010000 		.4byte	.LASF37
 2788 0306 01       		.byte	0x1
 2789 0307 B002     		.2byte	0x2b0
 2790 0309 6F000000 		.4byte	0x6f
 2791 030d 02       		.byte	0x2
 2792 030e 91       		.byte	0x91
 2793 030f 76       		.sleb128 -10
 2794 0310 0B       		.uleb128 0xb
 2795 0311 44010000 		.4byte	.LASF38
 2796 0315 01       		.byte	0x1
 2797 0316 B102     		.2byte	0x2b1
 2798 0318 6F000000 		.4byte	0x6f
 2799 031c 02       		.byte	0x2
 2800 031d 91       		.byte	0x91
 2801 031e 77       		.sleb128 -9
 2802 031f 00       		.byte	0x0
 2803 0320 0C       		.uleb128 0xc
 2804 0321 01       		.byte	0x1
 2805 0322 F4030000 		.4byte	.LASF39
 2806 0326 01       		.byte	0x1
 2807 0327 D802     		.2byte	0x2d8
 2808 0329 01       		.byte	0x1
 2809 032a 6F000000 		.4byte	0x6f
 2810 032e 00000000 		.4byte	.LFB8
 2811 0332 48000000 		.4byte	.LFE8
 2812 0336 B8010000 		.4byte	.LLST8
 2813 033a 5B030000 		.4byte	0x35b
 2814 033e 0A       		.uleb128 0xa
 2815 033f 6900     		.ascii	"i\000"
 2816 0341 01       		.byte	0x1
 2817 0342 DA02     		.2byte	0x2da
 2818 0344 6F000000 		.4byte	0x6f
ARM GAS  C:\Users\maxk\AppData\Local\Temp\ccw8u2Eq.s 			page 85


 2819 0348 02       		.byte	0x2
 2820 0349 91       		.byte	0x91
 2821 034a 76       		.sleb128 -10
 2822 034b 0B       		.uleb128 0xb
 2823 034c 44010000 		.4byte	.LASF38
 2824 0350 01       		.byte	0x1
 2825 0351 DB02     		.2byte	0x2db
 2826 0353 6F000000 		.4byte	0x6f
 2827 0357 02       		.byte	0x2
 2828 0358 91       		.byte	0x91
 2829 0359 77       		.sleb128 -9
 2830 035a 00       		.byte	0x0
 2831 035b 08       		.uleb128 0x8
 2832 035c 01       		.byte	0x1
 2833 035d 7A000000 		.4byte	.LASF40
 2834 0361 01       		.byte	0x1
 2835 0362 0503     		.2byte	0x305
 2836 0364 01       		.byte	0x1
 2837 0365 00000000 		.4byte	.LFB9
 2838 0369 A0000000 		.4byte	.LFE9
 2839 036d EF010000 		.4byte	.LLST9
 2840 0371 C1030000 		.4byte	0x3c1
 2841 0375 09       		.uleb128 0x9
 2842 0376 63040000 		.4byte	.LASF26
 2843 037a 01       		.byte	0x1
 2844 037b 0503     		.2byte	0x305
 2845 037d 6F000000 		.4byte	0x6f
 2846 0381 02       		.byte	0x2
 2847 0382 91       		.byte	0x91
 2848 0383 6F       		.sleb128 -17
 2849 0384 0A       		.uleb128 0xa
 2850 0385 706F7300 		.ascii	"pos\000"
 2851 0389 01       		.byte	0x1
 2852 038a 0703     		.2byte	0x307
 2853 038c 6F000000 		.4byte	0x6f
 2854 0390 02       		.byte	0x2
 2855 0391 91       		.byte	0x91
 2856 0392 74       		.sleb128 -12
 2857 0393 0B       		.uleb128 0xb
 2858 0394 C9020000 		.4byte	.LASF21
 2859 0398 01       		.byte	0x1
 2860 0399 0803     		.2byte	0x308
 2861 039b 6F000000 		.4byte	0x6f
 2862 039f 02       		.byte	0x2
 2863 03a0 91       		.byte	0x91
 2864 03a1 75       		.sleb128 -11
 2865 03a2 0B       		.uleb128 0xb
 2866 03a3 11010000 		.4byte	.LASF36
 2867 03a7 01       		.byte	0x1
 2868 03a8 0903     		.2byte	0x309
 2869 03aa 6F000000 		.4byte	0x6f
 2870 03ae 02       		.byte	0x2
 2871 03af 91       		.byte	0x91
 2872 03b0 76       		.sleb128 -10
 2873 03b1 0B       		.uleb128 0xb
 2874 03b2 1A010000 		.4byte	.LASF37
 2875 03b6 01       		.byte	0x1
ARM GAS  C:\Users\maxk\AppData\Local\Temp\ccw8u2Eq.s 			page 86


 2876 03b7 0A03     		.2byte	0x30a
 2877 03b9 6F000000 		.4byte	0x6f
 2878 03bd 02       		.byte	0x2
 2879 03be 91       		.byte	0x91
 2880 03bf 77       		.sleb128 -9
 2881 03c0 00       		.byte	0x0
 2882 03c1 08       		.uleb128 0x8
 2883 03c2 01       		.byte	0x1
 2884 03c3 74010000 		.4byte	.LASF41
 2885 03c7 01       		.byte	0x1
 2886 03c8 3603     		.2byte	0x336
 2887 03ca 01       		.byte	0x1
 2888 03cb 00000000 		.4byte	.LFB10
 2889 03cf A8000000 		.4byte	.LFE10
 2890 03d3 26020000 		.4byte	.LLST10
 2891 03d7 27040000 		.4byte	0x427
 2892 03db 09       		.uleb128 0x9
 2893 03dc 63040000 		.4byte	.LASF26
 2894 03e0 01       		.byte	0x1
 2895 03e1 3603     		.2byte	0x336
 2896 03e3 6F000000 		.4byte	0x6f
 2897 03e7 02       		.byte	0x2
 2898 03e8 91       		.byte	0x91
 2899 03e9 6F       		.sleb128 -17
 2900 03ea 0A       		.uleb128 0xa
 2901 03eb 706F7300 		.ascii	"pos\000"
 2902 03ef 01       		.byte	0x1
 2903 03f0 3803     		.2byte	0x338
 2904 03f2 6F000000 		.4byte	0x6f
 2905 03f6 02       		.byte	0x2
 2906 03f7 91       		.byte	0x91
 2907 03f8 74       		.sleb128 -12
 2908 03f9 0B       		.uleb128 0xb
 2909 03fa C9020000 		.4byte	.LASF21
 2910 03fe 01       		.byte	0x1
 2911 03ff 3903     		.2byte	0x339
 2912 0401 6F000000 		.4byte	0x6f
 2913 0405 02       		.byte	0x2
 2914 0406 91       		.byte	0x91
 2915 0407 75       		.sleb128 -11
 2916 0408 0B       		.uleb128 0xb
 2917 0409 11010000 		.4byte	.LASF36
 2918 040d 01       		.byte	0x1
 2919 040e 3A03     		.2byte	0x33a
 2920 0410 6F000000 		.4byte	0x6f
 2921 0414 02       		.byte	0x2
 2922 0415 91       		.byte	0x91
 2923 0416 76       		.sleb128 -10
 2924 0417 0B       		.uleb128 0xb
 2925 0418 1A010000 		.4byte	.LASF37
 2926 041c 01       		.byte	0x1
 2927 041d 3B03     		.2byte	0x33b
 2928 041f 6F000000 		.4byte	0x6f
 2929 0423 02       		.byte	0x2
 2930 0424 91       		.byte	0x91
 2931 0425 77       		.sleb128 -9
 2932 0426 00       		.byte	0x0
ARM GAS  C:\Users\maxk\AppData\Local\Temp\ccw8u2Eq.s 			page 87


 2933 0427 0C       		.uleb128 0xc
 2934 0428 01       		.byte	0x1
 2935 0429 4A010000 		.4byte	.LASF42
 2936 042d 01       		.byte	0x1
 2937 042e 6603     		.2byte	0x366
 2938 0430 01       		.byte	0x1
 2939 0431 6F000000 		.4byte	0x6f
 2940 0435 00000000 		.4byte	.LFB11
 2941 0439 B0000000 		.4byte	.LFE11
 2942 043d 5D020000 		.4byte	.LLST11
 2943 0441 AD040000 		.4byte	0x4ad
 2944 0445 09       		.uleb128 0x9
 2945 0446 46050000 		.4byte	.LASF43
 2946 044a 01       		.byte	0x1
 2947 044b 6603     		.2byte	0x366
 2948 044d 6F000000 		.4byte	0x6f
 2949 0451 02       		.byte	0x2
 2950 0452 91       		.byte	0x91
 2951 0453 6F       		.sleb128 -17
 2952 0454 09       		.uleb128 0x9
 2953 0455 00000000 		.4byte	.LASF44
 2954 0459 01       		.byte	0x1
 2955 045a 6603     		.2byte	0x366
 2956 045c 6F000000 		.4byte	0x6f
 2957 0460 02       		.byte	0x2
 2958 0461 91       		.byte	0x91
 2959 0462 6E       		.sleb128 -18
 2960 0463 09       		.uleb128 0x9
 2961 0464 1D000000 		.4byte	.LASF31
 2962 0468 01       		.byte	0x1
 2963 0469 6603     		.2byte	0x366
 2964 046b 6F000000 		.4byte	0x6f
 2965 046f 02       		.byte	0x2
 2966 0470 91       		.byte	0x91
 2967 0471 6D       		.sleb128 -19
 2968 0472 0A       		.uleb128 0xa
 2969 0473 6900     		.ascii	"i\000"
 2970 0475 01       		.byte	0x1
 2971 0476 6903     		.2byte	0x369
 2972 0478 6F000000 		.4byte	0x6f
 2973 047c 02       		.byte	0x2
 2974 047d 91       		.byte	0x91
 2975 047e 71       		.sleb128 -15
 2976 047f 0B       		.uleb128 0xb
 2977 0480 C4040000 		.4byte	.LASF45
 2978 0484 01       		.byte	0x1
 2979 0485 7303     		.2byte	0x373
 2980 0487 6F000000 		.4byte	0x6f
 2981 048b 02       		.byte	0x2
 2982 048c 91       		.byte	0x91
 2983 048d 72       		.sleb128 -14
 2984 048e 0B       		.uleb128 0xb
 2985 048f FC010000 		.4byte	.LASF46
 2986 0493 01       		.byte	0x1
 2987 0494 7403     		.2byte	0x374
 2988 0496 6F000000 		.4byte	0x6f
 2989 049a 02       		.byte	0x2
ARM GAS  C:\Users\maxk\AppData\Local\Temp\ccw8u2Eq.s 			page 88


 2990 049b 91       		.byte	0x91
 2991 049c 73       		.sleb128 -13
 2992 049d 0B       		.uleb128 0xb
 2993 049e EE010000 		.4byte	.LASF47
 2994 04a2 01       		.byte	0x1
 2995 04a3 7503     		.2byte	0x375
 2996 04a5 AD040000 		.4byte	0x4ad
 2997 04a9 02       		.byte	0x2
 2998 04aa 91       		.byte	0x91
 2999 04ab 74       		.sleb128 -12
 3000 04ac 00       		.byte	0x0
 3001 04ad 0D       		.uleb128 0xd
 3002 04ae 04       		.byte	0x4
 3003 04af 6F000000 		.4byte	0x6f
 3004 04b3 0C       		.uleb128 0xc
 3005 04b4 01       		.byte	0x1
 3006 04b5 F9020000 		.4byte	.LASF48
 3007 04b9 01       		.byte	0x1
 3008 04ba 0104     		.2byte	0x401
 3009 04bc 01       		.byte	0x1
 3010 04bd 6F000000 		.4byte	0x6f
 3011 04c1 00000000 		.4byte	.LFB12
 3012 04c5 84010000 		.4byte	.LFE12
 3013 04c9 94020000 		.4byte	.LLST12
 3014 04cd 77050000 		.4byte	0x577
 3015 04d1 09       		.uleb128 0x9
 3016 04d2 C4040000 		.4byte	.LASF45
 3017 04d6 01       		.byte	0x1
 3018 04d7 0104     		.2byte	0x401
 3019 04d9 6F000000 		.4byte	0x6f
 3020 04dd 02       		.byte	0x2
 3021 04de 91       		.byte	0x91
 3022 04df 5F       		.sleb128 -33
 3023 04e0 09       		.uleb128 0x9
 3024 04e1 46050000 		.4byte	.LASF43
 3025 04e5 01       		.byte	0x1
 3026 04e6 0104     		.2byte	0x401
 3027 04e8 6F000000 		.4byte	0x6f
 3028 04ec 02       		.byte	0x2
 3029 04ed 91       		.byte	0x91
 3030 04ee 5E       		.sleb128 -34
 3031 04ef 09       		.uleb128 0x9
 3032 04f0 00000000 		.4byte	.LASF44
 3033 04f4 01       		.byte	0x1
 3034 04f5 0204     		.2byte	0x402
 3035 04f7 6F000000 		.4byte	0x6f
 3036 04fb 02       		.byte	0x2
 3037 04fc 91       		.byte	0x91
 3038 04fd 5D       		.sleb128 -35
 3039 04fe 09       		.uleb128 0x9
 3040 04ff E9040000 		.4byte	.LASF49
 3041 0503 01       		.byte	0x1
 3042 0504 0204     		.2byte	0x402
 3043 0506 7A000000 		.4byte	0x7a
 3044 050a 02       		.byte	0x2
 3045 050b 91       		.byte	0x91
 3046 050c 5A       		.sleb128 -38
ARM GAS  C:\Users\maxk\AppData\Local\Temp\ccw8u2Eq.s 			page 89


 3047 050d 09       		.uleb128 0x9
 3048 050e 4A040000 		.4byte	.LASF27
 3049 0512 01       		.byte	0x1
 3050 0513 0204     		.2byte	0x402
 3051 0515 6F000000 		.4byte	0x6f
 3052 0519 02       		.byte	0x2
 3053 051a 91       		.byte	0x91
 3054 051b 00       		.sleb128 0
 3055 051c 0B       		.uleb128 0xb
 3056 051d 77020000 		.4byte	.LASF50
 3057 0521 01       		.byte	0x1
 3058 0522 0504     		.2byte	0x405
 3059 0524 6F000000 		.4byte	0x6f
 3060 0528 02       		.byte	0x2
 3061 0529 91       		.byte	0x91
 3062 052a 61       		.sleb128 -31
 3063 052b 0B       		.uleb128 0xb
 3064 052c E6010000 		.4byte	.LASF51
 3065 0530 01       		.byte	0x1
 3066 0531 0604     		.2byte	0x406
 3067 0533 6F000000 		.4byte	0x6f
 3068 0537 02       		.byte	0x2
 3069 0538 91       		.byte	0x91
 3070 0539 62       		.sleb128 -30
 3071 053a 0B       		.uleb128 0xb
 3072 053b 0E020000 		.4byte	.LASF52
 3073 053f 01       		.byte	0x1
 3074 0540 0D04     		.2byte	0x40d
 3075 0542 6F000000 		.4byte	0x6f
 3076 0546 02       		.byte	0x2
 3077 0547 91       		.byte	0x91
 3078 0548 63       		.sleb128 -29
 3079 0549 0B       		.uleb128 0xb
 3080 054a 6A010000 		.4byte	.LASF53
 3081 054e 01       		.byte	0x1
 3082 054f 0E04     		.2byte	0x40e
 3083 0551 90000000 		.4byte	0x90
 3084 0555 02       		.byte	0x2
 3085 0556 91       		.byte	0x91
 3086 0557 64       		.sleb128 -28
 3087 0558 0B       		.uleb128 0xb
 3088 0559 8D010000 		.4byte	.LASF54
 3089 055d 01       		.byte	0x1
 3090 055e 0F04     		.2byte	0x40f
 3091 0560 90000000 		.4byte	0x90
 3092 0564 02       		.byte	0x2
 3093 0565 91       		.byte	0x91
 3094 0566 68       		.sleb128 -24
 3095 0567 0B       		.uleb128 0xb
 3096 0568 EE010000 		.4byte	.LASF47
 3097 056c 01       		.byte	0x1
 3098 056d 1004     		.2byte	0x410
 3099 056f AD040000 		.4byte	0x4ad
 3100 0573 02       		.byte	0x2
 3101 0574 91       		.byte	0x91
 3102 0575 6C       		.sleb128 -20
 3103 0576 00       		.byte	0x0
ARM GAS  C:\Users\maxk\AppData\Local\Temp\ccw8u2Eq.s 			page 90


 3104 0577 0C       		.uleb128 0xc
 3105 0578 01       		.byte	0x1
 3106 0579 2C050000 		.4byte	.LASF55
 3107 057d 01       		.byte	0x1
 3108 057e C704     		.2byte	0x4c7
 3109 0580 01       		.byte	0x1
 3110 0581 7A000000 		.4byte	0x7a
 3111 0585 00000000 		.4byte	.LFB13
 3112 0589 94010000 		.4byte	.LFE13
 3113 058d CB020000 		.4byte	.LLST13
 3114 0591 0E060000 		.4byte	0x60e
 3115 0595 09       		.uleb128 0x9
 3116 0596 63040000 		.4byte	.LASF26
 3117 059a 01       		.byte	0x1
 3118 059b C704     		.2byte	0x4c7
 3119 059d 6F000000 		.4byte	0x6f
 3120 05a1 02       		.byte	0x2
 3121 05a2 91       		.byte	0x91
 3122 05a3 67       		.sleb128 -25
 3123 05a4 0B       		.uleb128 0xb
 3124 05a5 B7020000 		.4byte	.LASF56
 3125 05a9 01       		.byte	0x1
 3126 05aa CE04     		.2byte	0x4ce
 3127 05ac 6F000000 		.4byte	0x6f
 3128 05b0 02       		.byte	0x2
 3129 05b1 91       		.byte	0x91
 3130 05b2 68       		.sleb128 -24
 3131 05b3 0B       		.uleb128 0xb
 3132 05b4 92000000 		.4byte	.LASF57
 3133 05b8 01       		.byte	0x1
 3134 05b9 CF04     		.2byte	0x4cf
 3135 05bb 6F000000 		.4byte	0x6f
 3136 05bf 02       		.byte	0x2
 3137 05c0 91       		.byte	0x91
 3138 05c1 69       		.sleb128 -23
 3139 05c2 0B       		.uleb128 0xb
 3140 05c3 D0020000 		.4byte	.LASF58
 3141 05c7 01       		.byte	0x1
 3142 05c8 D004     		.2byte	0x4d0
 3143 05ca 6F000000 		.4byte	0x6f
 3144 05ce 02       		.byte	0x2
 3145 05cf 91       		.byte	0x91
 3146 05d0 6A       		.sleb128 -22
 3147 05d1 0B       		.uleb128 0xb
 3148 05d2 C4040000 		.4byte	.LASF45
 3149 05d6 01       		.byte	0x1
 3150 05d7 DA04     		.2byte	0x4da
 3151 05d9 6F000000 		.4byte	0x6f
 3152 05dd 02       		.byte	0x2
 3153 05de 91       		.byte	0x91
 3154 05df 6B       		.sleb128 -21
 3155 05e0 0B       		.uleb128 0xb
 3156 05e1 0E020000 		.4byte	.LASF52
 3157 05e5 01       		.byte	0x1
 3158 05e6 DB04     		.2byte	0x4db
 3159 05e8 7A000000 		.4byte	0x7a
 3160 05ec 02       		.byte	0x2
ARM GAS  C:\Users\maxk\AppData\Local\Temp\ccw8u2Eq.s 			page 91


 3161 05ed 91       		.byte	0x91
 3162 05ee 6C       		.sleb128 -20
 3163 05ef 0B       		.uleb128 0xb
 3164 05f0 46050000 		.4byte	.LASF43
 3165 05f4 01       		.byte	0x1
 3166 05f5 DC04     		.2byte	0x4dc
 3167 05f7 6F000000 		.4byte	0x6f
 3168 05fb 02       		.byte	0x2
 3169 05fc 91       		.byte	0x91
 3170 05fd 6E       		.sleb128 -18
 3171 05fe 0B       		.uleb128 0xb
 3172 05ff 00000000 		.4byte	.LASF44
 3173 0603 01       		.byte	0x1
 3174 0604 DD04     		.2byte	0x4dd
 3175 0606 6F000000 		.4byte	0x6f
 3176 060a 02       		.byte	0x2
 3177 060b 91       		.byte	0x91
 3178 060c 6F       		.sleb128 -17
 3179 060d 00       		.byte	0x0
 3180 060e 0C       		.uleb128 0xc
 3181 060f 01       		.byte	0x1
 3182 0610 94050000 		.4byte	.LASF59
 3183 0614 01       		.byte	0x1
 3184 0615 A007     		.2byte	0x7a0
 3185 0617 01       		.byte	0x1
 3186 0618 7A000000 		.4byte	0x7a
 3187 061c 00000000 		.4byte	.LFB14
 3188 0620 3C000000 		.4byte	.LFE14
 3189 0624 02030000 		.4byte	.LLST14
 3190 0628 58060000 		.4byte	0x658
 3191 062c 0E       		.uleb128 0xe
 3192 062d 783100   		.ascii	"x1\000"
 3193 0630 01       		.byte	0x1
 3194 0631 A007     		.2byte	0x7a0
 3195 0633 7A000000 		.4byte	0x7a
 3196 0637 02       		.byte	0x2
 3197 0638 91       		.byte	0x91
 3198 0639 6E       		.sleb128 -18
 3199 063a 0E       		.uleb128 0xe
 3200 063b 783200   		.ascii	"x2\000"
 3201 063e 01       		.byte	0x1
 3202 063f A007     		.2byte	0x7a0
 3203 0641 7A000000 		.4byte	0x7a
 3204 0645 02       		.byte	0x2
 3205 0646 91       		.byte	0x91
 3206 0647 6C       		.sleb128 -20
 3207 0648 0A       		.uleb128 0xa
 3208 0649 746D7000 		.ascii	"tmp\000"
 3209 064d 01       		.byte	0x1
 3210 064e A207     		.2byte	0x7a2
 3211 0650 85000000 		.4byte	0x85
 3212 0654 02       		.byte	0x2
 3213 0655 91       		.byte	0x91
 3214 0656 74       		.sleb128 -12
 3215 0657 00       		.byte	0x0
 3216 0658 0F       		.uleb128 0xf
 3217 0659 6F000000 		.4byte	0x6f
ARM GAS  C:\Users\maxk\AppData\Local\Temp\ccw8u2Eq.s 			page 92


 3218 065d 68060000 		.4byte	0x668
 3219 0661 10       		.uleb128 0x10
 3220 0662 B0000000 		.4byte	0xb0
 3221 0666 02       		.byte	0x2
 3222 0667 00       		.byte	0x0
 3223 0668 11       		.uleb128 0x11
 3224 0669 2A010000 		.4byte	.LASF60
 3225 066d 01       		.byte	0x1
 3226 066e 63       		.byte	0x63
 3227 066f 58060000 		.4byte	0x658
 3228 0673 05       		.byte	0x5
 3229 0674 03       		.byte	0x3
 3230 0675 20000000 		.4byte	CapSense_1_centroid
 3231 0679 0F       		.uleb128 0xf
 3232 067a 7A000000 		.4byte	0x7a
 3233 067e 89060000 		.4byte	0x689
 3234 0682 10       		.uleb128 0x10
 3235 0683 B0000000 		.4byte	0xb0
 3236 0687 04       		.byte	0x4
 3237 0688 00       		.byte	0x0
 3238 0689 12       		.uleb128 0x12
 3239 068a 29020000 		.4byte	.LASF61
 3240 068e 01       		.byte	0x1
 3241 068f 56       		.byte	0x56
 3242 0690 79060000 		.4byte	0x679
 3243 0694 01       		.byte	0x1
 3244 0695 01       		.byte	0x1
 3245 0696 0F       		.uleb128 0xf
 3246 0697 6F000000 		.4byte	0x6f
 3247 069b A6060000 		.4byte	0x6a6
 3248 069f 10       		.uleb128 0x10
 3249 06a0 B0000000 		.4byte	0xb0
 3250 06a4 00       		.byte	0x0
 3251 06a5 00       		.byte	0x0
 3252 06a6 12       		.uleb128 0x12
 3253 06a7 F5000000 		.4byte	.LASF62
 3254 06ab 01       		.byte	0x1
 3255 06ac 57       		.byte	0x57
 3256 06ad 96060000 		.4byte	0x696
 3257 06b1 01       		.byte	0x1
 3258 06b2 01       		.byte	0x1
 3259 06b3 0F       		.uleb128 0xf
 3260 06b4 6F000000 		.4byte	0x6f
 3261 06b8 BE060000 		.4byte	0x6be
 3262 06bc 13       		.uleb128 0x13
 3263 06bd 00       		.byte	0x0
 3264 06be 12       		.uleb128 0x12
 3265 06bf 11030000 		.4byte	.LASF63
 3266 06c3 01       		.byte	0x1
 3267 06c4 58       		.byte	0x58
 3268 06c5 CB060000 		.4byte	0x6cb
 3269 06c9 01       		.byte	0x1
 3270 06ca 01       		.byte	0x1
 3271 06cb 14       		.uleb128 0x14
 3272 06cc B3060000 		.4byte	0x6b3
 3273 06d0 15       		.uleb128 0x15
 3274 06d1 4D050000 		.4byte	.LASF64
ARM GAS  C:\Users\maxk\AppData\Local\Temp\ccw8u2Eq.s 			page 93


 3275 06d5 01       		.byte	0x1
 3276 06d6 5A       		.byte	0x5a
 3277 06d7 79060000 		.4byte	0x679
 3278 06db 01       		.byte	0x1
 3279 06dc 05       		.byte	0x5
 3280 06dd 03       		.byte	0x3
 3281 06de 00000000 		.4byte	CapSense_1_SensorBaseline
 3282 06e2 0F       		.uleb128 0xf
 3283 06e3 6F000000 		.4byte	0x6f
 3284 06e7 F2060000 		.4byte	0x6f2
 3285 06eb 10       		.uleb128 0x10
 3286 06ec B0000000 		.4byte	0xb0
 3287 06f0 04       		.byte	0x4
 3288 06f1 00       		.byte	0x0
 3289 06f2 15       		.uleb128 0x15
 3290 06f3 CC040000 		.4byte	.LASF65
 3291 06f7 01       		.byte	0x1
 3292 06f8 5B       		.byte	0x5b
 3293 06f9 E2060000 		.4byte	0x6e2
 3294 06fd 01       		.byte	0x1
 3295 06fe 05       		.byte	0x5
 3296 06ff 03       		.byte	0x3
 3297 0700 00000000 		.4byte	CapSense_1_SensorBaselineLow
 3298 0704 15       		.uleb128 0x15
 3299 0705 9F020000 		.4byte	.LASF66
 3300 0709 01       		.byte	0x1
 3301 070a 5C       		.byte	0x5c
 3302 070b E2060000 		.4byte	0x6e2
 3303 070f 01       		.byte	0x1
 3304 0710 05       		.byte	0x5
 3305 0711 03       		.byte	0x3
 3306 0712 00000000 		.4byte	CapSense_1_SensorSignal
 3307 0716 15       		.uleb128 0x15
 3308 0717 F4040000 		.4byte	.LASF67
 3309 071b 01       		.byte	0x1
 3310 071c 5D       		.byte	0x5d
 3311 071d 96060000 		.4byte	0x696
 3312 0721 01       		.byte	0x1
 3313 0722 05       		.byte	0x5
 3314 0723 03       		.byte	0x3
 3315 0724 00000000 		.4byte	CapSense_1_SensorOnMask
 3316 0728 15       		.uleb128 0x15
 3317 0729 3E020000 		.4byte	.LASF68
 3318 072d 01       		.byte	0x1
 3319 072e 5F       		.byte	0x5f
 3320 072f E2060000 		.4byte	0x6e2
 3321 0733 01       		.byte	0x1
 3322 0734 05       		.byte	0x5
 3323 0735 03       		.byte	0x3
 3324 0736 00000000 		.4byte	CapSense_1_LowBaselineResetCnt
 3325 073a 15       		.uleb128 0x15
 3326 073b 0C050000 		.4byte	.LASF69
 3327 073f 01       		.byte	0x1
 3328 0740 66       		.byte	0x66
 3329 0741 4C070000 		.4byte	0x74c
 3330 0745 01       		.byte	0x1
 3331 0746 05       		.byte	0x5
ARM GAS  C:\Users\maxk\AppData\Local\Temp\ccw8u2Eq.s 			page 94


 3332 0747 03       		.byte	0x3
 3333 0748 00000000 		.4byte	CapSense_1_fingerThreshold
 3334 074c 14       		.uleb128 0x14
 3335 074d 96060000 		.4byte	0x696
 3336 0751 15       		.uleb128 0x15
 3337 0752 AD000000 		.4byte	.LASF70
 3338 0756 01       		.byte	0x1
 3339 0757 6A       		.byte	0x6a
 3340 0758 63070000 		.4byte	0x763
 3341 075c 01       		.byte	0x1
 3342 075d 05       		.byte	0x5
 3343 075e 03       		.byte	0x3
 3344 075f 00000000 		.4byte	CapSense_1_noiseThreshold
 3345 0763 14       		.uleb128 0x14
 3346 0764 96060000 		.4byte	0x696
 3347 0768 15       		.uleb128 0x15
 3348 0769 B8010000 		.4byte	.LASF71
 3349 076d 01       		.byte	0x1
 3350 076e 6E       		.byte	0x6e
 3351 076f 7A070000 		.4byte	0x77a
 3352 0773 01       		.byte	0x1
 3353 0774 05       		.byte	0x5
 3354 0775 03       		.byte	0x3
 3355 0776 00000000 		.4byte	CapSense_1_hysteresis
 3356 077a 14       		.uleb128 0x14
 3357 077b 96060000 		.4byte	0x696
 3358 077f 15       		.uleb128 0x15
 3359 0780 C7000000 		.4byte	.LASF72
 3360 0784 01       		.byte	0x1
 3361 0785 72       		.byte	0x72
 3362 0786 91070000 		.4byte	0x791
 3363 078a 01       		.byte	0x1
 3364 078b 05       		.byte	0x5
 3365 078c 03       		.byte	0x3
 3366 078d 00000000 		.4byte	CapSense_1_debounce
 3367 0791 14       		.uleb128 0x14
 3368 0792 96060000 		.4byte	0x696
 3369 0796 15       		.uleb128 0x15
 3370 0797 A9040000 		.4byte	.LASF73
 3371 079b 01       		.byte	0x1
 3372 079c 76       		.byte	0x76
 3373 079d 96060000 		.4byte	0x696
 3374 07a1 01       		.byte	0x1
 3375 07a2 05       		.byte	0x5
 3376 07a3 03       		.byte	0x3
 3377 07a4 00000000 		.4byte	CapSense_1_debounceCounter
 3378 07a8 15       		.uleb128 0x15
 3379 07a9 CE010000 		.4byte	.LASF74
 3380 07ad 01       		.byte	0x1
 3381 07ae 7A       		.byte	0x7a
 3382 07af BA070000 		.4byte	0x7ba
 3383 07b3 01       		.byte	0x1
 3384 07b4 05       		.byte	0x5
 3385 07b5 03       		.byte	0x3
 3386 07b6 00000000 		.4byte	CapSense_1_rawDataIndex
 3387 07ba 14       		.uleb128 0x14
 3388 07bb 96060000 		.4byte	0x696
ARM GAS  C:\Users\maxk\AppData\Local\Temp\ccw8u2Eq.s 			page 95


 3389 07bf 15       		.uleb128 0x15
 3390 07c0 7F020000 		.4byte	.LASF75
 3391 07c4 01       		.byte	0x1
 3392 07c5 7F       		.byte	0x7f
 3393 07c6 D1070000 		.4byte	0x7d1
 3394 07ca 01       		.byte	0x1
 3395 07cb 05       		.byte	0x5
 3396 07cc 03       		.byte	0x3
 3397 07cd 00000000 		.4byte	CapSense_1_numberOfSensors
 3398 07d1 14       		.uleb128 0x14
 3399 07d2 96060000 		.4byte	0x696
 3400 07d6 0F       		.uleb128 0xf
 3401 07d7 7A000000 		.4byte	0x7a
 3402 07db E6070000 		.4byte	0x7e6
 3403 07df 10       		.uleb128 0x10
 3404 07e0 B0000000 		.4byte	0xb0
 3405 07e4 00       		.byte	0x0
 3406 07e5 00       		.byte	0x0
 3407 07e6 15       		.uleb128 0x15
 3408 07e7 91040000 		.4byte	.LASF76
 3409 07eb 01       		.byte	0x1
 3410 07ec 84       		.byte	0x84
 3411 07ed F8070000 		.4byte	0x7f8
 3412 07f1 01       		.byte	0x1
 3413 07f2 05       		.byte	0x5
 3414 07f3 03       		.byte	0x3
 3415 07f4 00000000 		.4byte	CapSense_1_centroidMult
 3416 07f8 14       		.uleb128 0x14
 3417 07f9 D6070000 		.4byte	0x7d6
 3418 07fd 15       		.uleb128 0x15
 3419 07fe B2050000 		.4byte	.LASF77
 3420 0802 01       		.byte	0x1
 3421 0803 88       		.byte	0x88
 3422 0804 0F080000 		.4byte	0x80f
 3423 0808 01       		.byte	0x1
 3424 0809 05       		.byte	0x5
 3425 080a 03       		.byte	0x3
 3426 080b 00000000 		.4byte	CapSense_1_posFiltersMask
 3427 080f 14       		.uleb128 0x14
 3428 0810 96060000 		.4byte	0x696
 3429 0814 15       		.uleb128 0x15
 3430 0815 DF020000 		.4byte	.LASF78
 3431 0819 01       		.byte	0x1
 3432 081a 8C       		.byte	0x8c
 3433 081b 58060000 		.4byte	0x658
 3434 081f 01       		.byte	0x1
 3435 0820 05       		.byte	0x5
 3436 0821 03       		.byte	0x3
 3437 0822 00000000 		.4byte	CapSense_1_posFiltersData
 3438 0826 00       		.byte	0x0
 3439              		.section	.debug_abbrev
 3440 0000 01       		.uleb128 0x1
 3441 0001 11       		.uleb128 0x11
 3442 0002 01       		.byte	0x1
 3443 0003 25       		.uleb128 0x25
 3444 0004 0E       		.uleb128 0xe
 3445 0005 13       		.uleb128 0x13
ARM GAS  C:\Users\maxk\AppData\Local\Temp\ccw8u2Eq.s 			page 96


 3446 0006 0B       		.uleb128 0xb
 3447 0007 03       		.uleb128 0x3
 3448 0008 0E       		.uleb128 0xe
 3449 0009 1B       		.uleb128 0x1b
 3450 000a 0E       		.uleb128 0xe
 3451 000b 11       		.uleb128 0x11
 3452 000c 01       		.uleb128 0x1
 3453 000d 52       		.uleb128 0x52
 3454 000e 01       		.uleb128 0x1
 3455 000f 55       		.uleb128 0x55
 3456 0010 06       		.uleb128 0x6
 3457 0011 10       		.uleb128 0x10
 3458 0012 06       		.uleb128 0x6
 3459 0013 00       		.byte	0x0
 3460 0014 00       		.byte	0x0
 3461 0015 02       		.uleb128 0x2
 3462 0016 24       		.uleb128 0x24
 3463 0017 00       		.byte	0x0
 3464 0018 0B       		.uleb128 0xb
 3465 0019 0B       		.uleb128 0xb
 3466 001a 3E       		.uleb128 0x3e
 3467 001b 0B       		.uleb128 0xb
 3468 001c 03       		.uleb128 0x3
 3469 001d 0E       		.uleb128 0xe
 3470 001e 00       		.byte	0x0
 3471 001f 00       		.byte	0x0
 3472 0020 03       		.uleb128 0x3
 3473 0021 24       		.uleb128 0x24
 3474 0022 00       		.byte	0x0
 3475 0023 0B       		.uleb128 0xb
 3476 0024 0B       		.uleb128 0xb
 3477 0025 3E       		.uleb128 0x3e
 3478 0026 0B       		.uleb128 0xb
 3479 0027 03       		.uleb128 0x3
 3480 0028 08       		.uleb128 0x8
 3481 0029 00       		.byte	0x0
 3482 002a 00       		.byte	0x0
 3483 002b 04       		.uleb128 0x4
 3484 002c 16       		.uleb128 0x16
 3485 002d 00       		.byte	0x0
 3486 002e 03       		.uleb128 0x3
 3487 002f 0E       		.uleb128 0xe
 3488 0030 3A       		.uleb128 0x3a
 3489 0031 0B       		.uleb128 0xb
 3490 0032 3B       		.uleb128 0x3b
 3491 0033 0B       		.uleb128 0xb
 3492 0034 49       		.uleb128 0x49
 3493 0035 13       		.uleb128 0x13
 3494 0036 00       		.byte	0x0
 3495 0037 00       		.byte	0x0
 3496 0038 05       		.uleb128 0x5
 3497 0039 24       		.uleb128 0x24
 3498 003a 00       		.byte	0x0
 3499 003b 0B       		.uleb128 0xb
 3500 003c 0B       		.uleb128 0xb
 3501 003d 3E       		.uleb128 0x3e
 3502 003e 0B       		.uleb128 0xb
ARM GAS  C:\Users\maxk\AppData\Local\Temp\ccw8u2Eq.s 			page 97


 3503 003f 00       		.byte	0x0
 3504 0040 00       		.byte	0x0
 3505 0041 06       		.uleb128 0x6
 3506 0042 2E       		.uleb128 0x2e
 3507 0043 01       		.byte	0x1
 3508 0044 3F       		.uleb128 0x3f
 3509 0045 0C       		.uleb128 0xc
 3510 0046 03       		.uleb128 0x3
 3511 0047 0E       		.uleb128 0xe
 3512 0048 3A       		.uleb128 0x3a
 3513 0049 0B       		.uleb128 0xb
 3514 004a 3B       		.uleb128 0x3b
 3515 004b 0B       		.uleb128 0xb
 3516 004c 27       		.uleb128 0x27
 3517 004d 0C       		.uleb128 0xc
 3518 004e 11       		.uleb128 0x11
 3519 004f 01       		.uleb128 0x1
 3520 0050 12       		.uleb128 0x12
 3521 0051 01       		.uleb128 0x1
 3522 0052 40       		.uleb128 0x40
 3523 0053 06       		.uleb128 0x6
 3524 0054 01       		.uleb128 0x1
 3525 0055 13       		.uleb128 0x13
 3526 0056 00       		.byte	0x0
 3527 0057 00       		.byte	0x0
 3528 0058 07       		.uleb128 0x7
 3529 0059 05       		.uleb128 0x5
 3530 005a 00       		.byte	0x0
 3531 005b 03       		.uleb128 0x3
 3532 005c 0E       		.uleb128 0xe
 3533 005d 3A       		.uleb128 0x3a
 3534 005e 0B       		.uleb128 0xb
 3535 005f 3B       		.uleb128 0x3b
 3536 0060 0B       		.uleb128 0xb
 3537 0061 49       		.uleb128 0x49
 3538 0062 13       		.uleb128 0x13
 3539 0063 02       		.uleb128 0x2
 3540 0064 0A       		.uleb128 0xa
 3541 0065 00       		.byte	0x0
 3542 0066 00       		.byte	0x0
 3543 0067 08       		.uleb128 0x8
 3544 0068 2E       		.uleb128 0x2e
 3545 0069 01       		.byte	0x1
 3546 006a 3F       		.uleb128 0x3f
 3547 006b 0C       		.uleb128 0xc
 3548 006c 03       		.uleb128 0x3
 3549 006d 0E       		.uleb128 0xe
 3550 006e 3A       		.uleb128 0x3a
 3551 006f 0B       		.uleb128 0xb
 3552 0070 3B       		.uleb128 0x3b
 3553 0071 05       		.uleb128 0x5
 3554 0072 27       		.uleb128 0x27
 3555 0073 0C       		.uleb128 0xc
 3556 0074 11       		.uleb128 0x11
 3557 0075 01       		.uleb128 0x1
 3558 0076 12       		.uleb128 0x12
 3559 0077 01       		.uleb128 0x1
ARM GAS  C:\Users\maxk\AppData\Local\Temp\ccw8u2Eq.s 			page 98


 3560 0078 40       		.uleb128 0x40
 3561 0079 06       		.uleb128 0x6
 3562 007a 01       		.uleb128 0x1
 3563 007b 13       		.uleb128 0x13
 3564 007c 00       		.byte	0x0
 3565 007d 00       		.byte	0x0
 3566 007e 09       		.uleb128 0x9
 3567 007f 05       		.uleb128 0x5
 3568 0080 00       		.byte	0x0
 3569 0081 03       		.uleb128 0x3
 3570 0082 0E       		.uleb128 0xe
 3571 0083 3A       		.uleb128 0x3a
 3572 0084 0B       		.uleb128 0xb
 3573 0085 3B       		.uleb128 0x3b
 3574 0086 05       		.uleb128 0x5
 3575 0087 49       		.uleb128 0x49
 3576 0088 13       		.uleb128 0x13
 3577 0089 02       		.uleb128 0x2
 3578 008a 0A       		.uleb128 0xa
 3579 008b 00       		.byte	0x0
 3580 008c 00       		.byte	0x0
 3581 008d 0A       		.uleb128 0xa
 3582 008e 34       		.uleb128 0x34
 3583 008f 00       		.byte	0x0
 3584 0090 03       		.uleb128 0x3
 3585 0091 08       		.uleb128 0x8
 3586 0092 3A       		.uleb128 0x3a
 3587 0093 0B       		.uleb128 0xb
 3588 0094 3B       		.uleb128 0x3b
 3589 0095 05       		.uleb128 0x5
 3590 0096 49       		.uleb128 0x49
 3591 0097 13       		.uleb128 0x13
 3592 0098 02       		.uleb128 0x2
 3593 0099 0A       		.uleb128 0xa
 3594 009a 00       		.byte	0x0
 3595 009b 00       		.byte	0x0
 3596 009c 0B       		.uleb128 0xb
 3597 009d 34       		.uleb128 0x34
 3598 009e 00       		.byte	0x0
 3599 009f 03       		.uleb128 0x3
 3600 00a0 0E       		.uleb128 0xe
 3601 00a1 3A       		.uleb128 0x3a
 3602 00a2 0B       		.uleb128 0xb
 3603 00a3 3B       		.uleb128 0x3b
 3604 00a4 05       		.uleb128 0x5
 3605 00a5 49       		.uleb128 0x49
 3606 00a6 13       		.uleb128 0x13
 3607 00a7 02       		.uleb128 0x2
 3608 00a8 0A       		.uleb128 0xa
 3609 00a9 00       		.byte	0x0
 3610 00aa 00       		.byte	0x0
 3611 00ab 0C       		.uleb128 0xc
 3612 00ac 2E       		.uleb128 0x2e
 3613 00ad 01       		.byte	0x1
 3614 00ae 3F       		.uleb128 0x3f
 3615 00af 0C       		.uleb128 0xc
 3616 00b0 03       		.uleb128 0x3
ARM GAS  C:\Users\maxk\AppData\Local\Temp\ccw8u2Eq.s 			page 99


 3617 00b1 0E       		.uleb128 0xe
 3618 00b2 3A       		.uleb128 0x3a
 3619 00b3 0B       		.uleb128 0xb
 3620 00b4 3B       		.uleb128 0x3b
 3621 00b5 05       		.uleb128 0x5
 3622 00b6 27       		.uleb128 0x27
 3623 00b7 0C       		.uleb128 0xc
 3624 00b8 49       		.uleb128 0x49
 3625 00b9 13       		.uleb128 0x13
 3626 00ba 11       		.uleb128 0x11
 3627 00bb 01       		.uleb128 0x1
 3628 00bc 12       		.uleb128 0x12
 3629 00bd 01       		.uleb128 0x1
 3630 00be 40       		.uleb128 0x40
 3631 00bf 06       		.uleb128 0x6
 3632 00c0 01       		.uleb128 0x1
 3633 00c1 13       		.uleb128 0x13
 3634 00c2 00       		.byte	0x0
 3635 00c3 00       		.byte	0x0
 3636 00c4 0D       		.uleb128 0xd
 3637 00c5 0F       		.uleb128 0xf
 3638 00c6 00       		.byte	0x0
 3639 00c7 0B       		.uleb128 0xb
 3640 00c8 0B       		.uleb128 0xb
 3641 00c9 49       		.uleb128 0x49
 3642 00ca 13       		.uleb128 0x13
 3643 00cb 00       		.byte	0x0
 3644 00cc 00       		.byte	0x0
 3645 00cd 0E       		.uleb128 0xe
 3646 00ce 05       		.uleb128 0x5
 3647 00cf 00       		.byte	0x0
 3648 00d0 03       		.uleb128 0x3
 3649 00d1 08       		.uleb128 0x8
 3650 00d2 3A       		.uleb128 0x3a
 3651 00d3 0B       		.uleb128 0xb
 3652 00d4 3B       		.uleb128 0x3b
 3653 00d5 05       		.uleb128 0x5
 3654 00d6 49       		.uleb128 0x49
 3655 00d7 13       		.uleb128 0x13
 3656 00d8 02       		.uleb128 0x2
 3657 00d9 0A       		.uleb128 0xa
 3658 00da 00       		.byte	0x0
 3659 00db 00       		.byte	0x0
 3660 00dc 0F       		.uleb128 0xf
 3661 00dd 01       		.uleb128 0x1
 3662 00de 01       		.byte	0x1
 3663 00df 49       		.uleb128 0x49
 3664 00e0 13       		.uleb128 0x13
 3665 00e1 01       		.uleb128 0x1
 3666 00e2 13       		.uleb128 0x13
 3667 00e3 00       		.byte	0x0
 3668 00e4 00       		.byte	0x0
 3669 00e5 10       		.uleb128 0x10
 3670 00e6 21       		.uleb128 0x21
 3671 00e7 00       		.byte	0x0
 3672 00e8 49       		.uleb128 0x49
 3673 00e9 13       		.uleb128 0x13
ARM GAS  C:\Users\maxk\AppData\Local\Temp\ccw8u2Eq.s 			page 100


 3674 00ea 2F       		.uleb128 0x2f
 3675 00eb 0B       		.uleb128 0xb
 3676 00ec 00       		.byte	0x0
 3677 00ed 00       		.byte	0x0
 3678 00ee 11       		.uleb128 0x11
 3679 00ef 34       		.uleb128 0x34
 3680 00f0 00       		.byte	0x0
 3681 00f1 03       		.uleb128 0x3
 3682 00f2 0E       		.uleb128 0xe
 3683 00f3 3A       		.uleb128 0x3a
 3684 00f4 0B       		.uleb128 0xb
 3685 00f5 3B       		.uleb128 0x3b
 3686 00f6 0B       		.uleb128 0xb
 3687 00f7 49       		.uleb128 0x49
 3688 00f8 13       		.uleb128 0x13
 3689 00f9 02       		.uleb128 0x2
 3690 00fa 0A       		.uleb128 0xa
 3691 00fb 00       		.byte	0x0
 3692 00fc 00       		.byte	0x0
 3693 00fd 12       		.uleb128 0x12
 3694 00fe 34       		.uleb128 0x34
 3695 00ff 00       		.byte	0x0
 3696 0100 03       		.uleb128 0x3
 3697 0101 0E       		.uleb128 0xe
 3698 0102 3A       		.uleb128 0x3a
 3699 0103 0B       		.uleb128 0xb
 3700 0104 3B       		.uleb128 0x3b
 3701 0105 0B       		.uleb128 0xb
 3702 0106 49       		.uleb128 0x49
 3703 0107 13       		.uleb128 0x13
 3704 0108 3F       		.uleb128 0x3f
 3705 0109 0C       		.uleb128 0xc
 3706 010a 3C       		.uleb128 0x3c
 3707 010b 0C       		.uleb128 0xc
 3708 010c 00       		.byte	0x0
 3709 010d 00       		.byte	0x0
 3710 010e 13       		.uleb128 0x13
 3711 010f 21       		.uleb128 0x21
 3712 0110 00       		.byte	0x0
 3713 0111 00       		.byte	0x0
 3714 0112 00       		.byte	0x0
 3715 0113 14       		.uleb128 0x14
 3716 0114 26       		.uleb128 0x26
 3717 0115 00       		.byte	0x0
 3718 0116 49       		.uleb128 0x49
 3719 0117 13       		.uleb128 0x13
 3720 0118 00       		.byte	0x0
 3721 0119 00       		.byte	0x0
 3722 011a 15       		.uleb128 0x15
 3723 011b 34       		.uleb128 0x34
 3724 011c 00       		.byte	0x0
 3725 011d 03       		.uleb128 0x3
 3726 011e 0E       		.uleb128 0xe
 3727 011f 3A       		.uleb128 0x3a
 3728 0120 0B       		.uleb128 0xb
 3729 0121 3B       		.uleb128 0x3b
 3730 0122 0B       		.uleb128 0xb
ARM GAS  C:\Users\maxk\AppData\Local\Temp\ccw8u2Eq.s 			page 101


 3731 0123 49       		.uleb128 0x49
 3732 0124 13       		.uleb128 0x13
 3733 0125 3F       		.uleb128 0x3f
 3734 0126 0C       		.uleb128 0xc
 3735 0127 02       		.uleb128 0x2
 3736 0128 0A       		.uleb128 0xa
 3737 0129 00       		.byte	0x0
 3738 012a 00       		.byte	0x0
 3739 012b 00       		.byte	0x0
 3740              		.section	.debug_pubnames,"",%progbits
 3741 0000 B7030000 		.4byte	0x3b7
 3742 0004 0200     		.2byte	0x2
 3743 0006 00000000 		.4byte	.Ldebug_info0
 3744 000a 27080000 		.4byte	0x827
 3745 000e B3000000 		.4byte	0xb3
 3746 0012 43617053 		.ascii	"CapSense_1_BaseInit\000"
 3746      656E7365 
 3746      5F315F42 
 3746      61736549 
 3746      6E697400 
 3747 0026 DB000000 		.4byte	0xdb
 3748 002a 43617053 		.ascii	"CapSense_1_InitializeSensorBaseline\000"
 3748      656E7365 
 3748      5F315F49 
 3748      6E697469 
 3748      616C697A 
 3749 004e 05010000 		.4byte	0x105
 3750 0052 43617053 		.ascii	"CapSense_1_InitializeAllBaselines\000"
 3750      656E7365 
 3750      5F315F49 
 3750      6E697469 
 3750      616C697A 
 3751 0074 2D010000 		.4byte	0x12d
 3752 0078 43617053 		.ascii	"CapSense_1_InitializeEnabledBaselines\000"
 3752      656E7365 
 3752      5F315F49 
 3752      6E697469 
 3752      616C697A 
 3753 009e 73010000 		.4byte	0x173
 3754 00a2 43617053 		.ascii	"CapSense_1_UpdateSensorBaseline\000"
 3754      656E7365 
 3754      5F315F55 
 3754      70646174 
 3754      6553656E 
 3755 00c2 E8010000 		.4byte	0x1e8
 3756 00c6 43617053 		.ascii	"CapSense_1_UpdateEnabledBaselines\000"
 3756      656E7365 
 3756      5F315F55 
 3756      70646174 
 3756      65456E61 
 3757 00e8 2E020000 		.4byte	0x22e
 3758 00ec 43617053 		.ascii	"CapSense_1_CheckIsSensorActive\000"
 3758      656E7365 
 3758      5F315F43 
 3758      6865636B 
 3758      49735365 
 3759 010b C5020000 		.4byte	0x2c5
ARM GAS  C:\Users\maxk\AppData\Local\Temp\ccw8u2Eq.s 			page 102


 3760 010f 43617053 		.ascii	"CapSense_1_CheckIsWidgetActive\000"
 3760      656E7365 
 3760      5F315F43 
 3760      6865636B 
 3760      49735769 
 3761 012e 20030000 		.4byte	0x320
 3762 0132 43617053 		.ascii	"CapSense_1_CheckIsAnyWidgetActive\000"
 3762      656E7365 
 3762      5F315F43 
 3762      6865636B 
 3762      4973416E 
 3763 0154 5B030000 		.4byte	0x35b
 3764 0158 43617053 		.ascii	"CapSense_1_EnableWidget\000"
 3764      656E7365 
 3764      5F315F45 
 3764      6E61626C 
 3764      65576964 
 3765 0170 C1030000 		.4byte	0x3c1
 3766 0174 43617053 		.ascii	"CapSense_1_DisableWidget\000"
 3766      656E7365 
 3766      5F315F44 
 3766      69736162 
 3766      6C655769 
 3767 018d 27040000 		.4byte	0x427
 3768 0191 43617053 		.ascii	"CapSense_1_FindMaximum\000"
 3768      656E7365 
 3768      5F315F46 
 3768      696E644D 
 3768      6178696D 
 3769 01a8 B3040000 		.4byte	0x4b3
 3770 01ac 43617053 		.ascii	"CapSense_1_CalcCentroid\000"
 3770      656E7365 
 3770      5F315F43 
 3770      616C6343 
 3770      656E7472 
 3771 01c4 77050000 		.4byte	0x577
 3772 01c8 43617053 		.ascii	"CapSense_1_GetCentroidPos\000"
 3772      656E7365 
 3772      5F315F47 
 3772      65744365 
 3772      6E74726F 
 3773 01e2 0E060000 		.4byte	0x60e
 3774 01e6 43617053 		.ascii	"CapSense_1_IIR4Filter\000"
 3774      656E7365 
 3774      5F315F49 
 3774      49523446 
 3774      696C7465 
 3775 01fc D0060000 		.4byte	0x6d0
 3776 0200 43617053 		.ascii	"CapSense_1_SensorBaseline\000"
 3776      656E7365 
 3776      5F315F53 
 3776      656E736F 
 3776      72426173 
 3777 021a F2060000 		.4byte	0x6f2
 3778 021e 43617053 		.ascii	"CapSense_1_SensorBaselineLow\000"
 3778      656E7365 
 3778      5F315F53 
ARM GAS  C:\Users\maxk\AppData\Local\Temp\ccw8u2Eq.s 			page 103


 3778      656E736F 
 3778      72426173 
 3779 023b 04070000 		.4byte	0x704
 3780 023f 43617053 		.ascii	"CapSense_1_SensorSignal\000"
 3780      656E7365 
 3780      5F315F53 
 3780      656E736F 
 3780      72536967 
 3781 0257 16070000 		.4byte	0x716
 3782 025b 43617053 		.ascii	"CapSense_1_SensorOnMask\000"
 3782      656E7365 
 3782      5F315F53 
 3782      656E736F 
 3782      724F6E4D 
 3783 0273 28070000 		.4byte	0x728
 3784 0277 43617053 		.ascii	"CapSense_1_LowBaselineResetCnt\000"
 3784      656E7365 
 3784      5F315F4C 
 3784      6F774261 
 3784      73656C69 
 3785 0296 3A070000 		.4byte	0x73a
 3786 029a 43617053 		.ascii	"CapSense_1_fingerThreshold\000"
 3786      656E7365 
 3786      5F315F66 
 3786      696E6765 
 3786      72546872 
 3787 02b5 51070000 		.4byte	0x751
 3788 02b9 43617053 		.ascii	"CapSense_1_noiseThreshold\000"
 3788      656E7365 
 3788      5F315F6E 
 3788      6F697365 
 3788      54687265 
 3789 02d3 68070000 		.4byte	0x768
 3790 02d7 43617053 		.ascii	"CapSense_1_hysteresis\000"
 3790      656E7365 
 3790      5F315F68 
 3790      79737465 
 3790      72657369 
 3791 02ed 7F070000 		.4byte	0x77f
 3792 02f1 43617053 		.ascii	"CapSense_1_debounce\000"
 3792      656E7365 
 3792      5F315F64 
 3792      65626F75 
 3792      6E636500 
 3793 0305 96070000 		.4byte	0x796
 3794 0309 43617053 		.ascii	"CapSense_1_debounceCounter\000"
 3794      656E7365 
 3794      5F315F64 
 3794      65626F75 
 3794      6E636543 
 3795 0324 A8070000 		.4byte	0x7a8
 3796 0328 43617053 		.ascii	"CapSense_1_rawDataIndex\000"
 3796      656E7365 
 3796      5F315F72 
 3796      61774461 
 3796      7461496E 
 3797 0340 BF070000 		.4byte	0x7bf
ARM GAS  C:\Users\maxk\AppData\Local\Temp\ccw8u2Eq.s 			page 104


 3798 0344 43617053 		.ascii	"CapSense_1_numberOfSensors\000"
 3798      656E7365 
 3798      5F315F6E 
 3798      756D6265 
 3798      724F6653 
 3799 035f E6070000 		.4byte	0x7e6
 3800 0363 43617053 		.ascii	"CapSense_1_centroidMult\000"
 3800      656E7365 
 3800      5F315F63 
 3800      656E7472 
 3800      6F69644D 
 3801 037b FD070000 		.4byte	0x7fd
 3802 037f 43617053 		.ascii	"CapSense_1_posFiltersMask\000"
 3802      656E7365 
 3802      5F315F70 
 3802      6F734669 
 3802      6C746572 
 3803 0399 14080000 		.4byte	0x814
 3804 039d 43617053 		.ascii	"CapSense_1_posFiltersData\000"
 3804      656E7365 
 3804      5F315F70 
 3804      6F734669 
 3804      6C746572 
 3805 03b7 00000000 		.4byte	0x0
 3806              		.section	.debug_aranges,"",%progbits
 3807 0000 8C000000 		.4byte	0x8c
 3808 0004 0200     		.2byte	0x2
 3809 0006 00000000 		.4byte	.Ldebug_info0
 3810 000a 04       		.byte	0x4
 3811 000b 00       		.byte	0x0
 3812 000c 0000     		.2byte	0x0
 3813 000e 0000     		.2byte	0x0
 3814 0010 00000000 		.4byte	.LFB0
 3815 0014 4C000000 		.4byte	.LFE0-.LFB0
 3816 0018 00000000 		.4byte	.LFB1
 3817 001c 30000000 		.4byte	.LFE1-.LFB1
 3818 0020 00000000 		.4byte	.LFB2
 3819 0024 30000000 		.4byte	.LFE2-.LFB2
 3820 0028 00000000 		.4byte	.LFB3
 3821 002c 80000000 		.4byte	.LFE3-.LFB3
 3822 0030 00000000 		.4byte	.LFB4
 3823 0034 CC010000 		.4byte	.LFE4-.LFB4
 3824 0038 00000000 		.4byte	.LFB5
 3825 003c 64000000 		.4byte	.LFE5-.LFB5
 3826 0040 00000000 		.4byte	.LFB6
 3827 0044 A0010000 		.4byte	.LFE6-.LFB6
 3828 0048 00000000 		.4byte	.LFB7
 3829 004c 88000000 		.4byte	.LFE7-.LFB7
 3830 0050 00000000 		.4byte	.LFB8
 3831 0054 48000000 		.4byte	.LFE8-.LFB8
 3832 0058 00000000 		.4byte	.LFB9
 3833 005c A0000000 		.4byte	.LFE9-.LFB9
 3834 0060 00000000 		.4byte	.LFB10
 3835 0064 A8000000 		.4byte	.LFE10-.LFB10
 3836 0068 00000000 		.4byte	.LFB11
 3837 006c B0000000 		.4byte	.LFE11-.LFB11
 3838 0070 00000000 		.4byte	.LFB12
ARM GAS  C:\Users\maxk\AppData\Local\Temp\ccw8u2Eq.s 			page 105


 3839 0074 84010000 		.4byte	.LFE12-.LFB12
 3840 0078 00000000 		.4byte	.LFB13
 3841 007c 94010000 		.4byte	.LFE13-.LFB13
 3842 0080 00000000 		.4byte	.LFB14
 3843 0084 3C000000 		.4byte	.LFE14-.LFB14
 3844 0088 00000000 		.4byte	0x0
 3845 008c 00000000 		.4byte	0x0
 3846              		.section	.debug_ranges,"",%progbits
 3847              	.Ldebug_ranges0:
 3848 0000 00000000 		.4byte	.Ltext0
 3849 0004 00000000 		.4byte	.Letext0
 3850 0008 00000000 		.4byte	.LFB0
 3851 000c 4C000000 		.4byte	.LFE0
 3852 0010 00000000 		.4byte	.LFB1
 3853 0014 30000000 		.4byte	.LFE1
 3854 0018 00000000 		.4byte	.LFB2
 3855 001c 30000000 		.4byte	.LFE2
 3856 0020 00000000 		.4byte	.LFB3
 3857 0024 80000000 		.4byte	.LFE3
 3858 0028 00000000 		.4byte	.LFB4
 3859 002c CC010000 		.4byte	.LFE4
 3860 0030 00000000 		.4byte	.LFB5
 3861 0034 64000000 		.4byte	.LFE5
 3862 0038 00000000 		.4byte	.LFB6
 3863 003c A0010000 		.4byte	.LFE6
 3864 0040 00000000 		.4byte	.LFB7
 3865 0044 88000000 		.4byte	.LFE7
 3866 0048 00000000 		.4byte	.LFB8
 3867 004c 48000000 		.4byte	.LFE8
 3868 0050 00000000 		.4byte	.LFB9
 3869 0054 A0000000 		.4byte	.LFE9
 3870 0058 00000000 		.4byte	.LFB10
 3871 005c A8000000 		.4byte	.LFE10
 3872 0060 00000000 		.4byte	.LFB11
 3873 0064 B0000000 		.4byte	.LFE11
 3874 0068 00000000 		.4byte	.LFB12
 3875 006c 84010000 		.4byte	.LFE12
 3876 0070 00000000 		.4byte	.LFB13
 3877 0074 94010000 		.4byte	.LFE13
 3878 0078 00000000 		.4byte	.LFB14
 3879 007c 3C000000 		.4byte	.LFE14
 3880 0080 00000000 		.4byte	0x0
 3881 0084 00000000 		.4byte	0x0
 3882              		.section	.debug_str,"MS",%progbits,1
 3883              	.LASF44:
 3884 0000 636F756E 		.ascii	"count\000"
 3884      7400
 3885              	.LASF10:
 3886 0006 75696E74 		.ascii	"uint16\000"
 3886      313600
 3887              	.LASF25:
 3888 000d 66696C74 		.ascii	"filteredRawData\000"
 3888      65726564 
 3888      52617744 
 3888      61746100 
 3889              	.LASF31:
 3890 001d 66696E67 		.ascii	"fingerThreshold\000"
ARM GAS  C:\Users\maxk\AppData\Local\Temp\ccw8u2Eq.s 			page 106


 3890      65725468 
 3890      72657368 
 3890      6F6C6400 
 3891              	.LASF19:
 3892 002d 43617053 		.ascii	"CapSense_1_InitializeAllBaselines\000"
 3892      656E7365 
 3892      5F315F49 
 3892      6E697469 
 3892      616C697A 
 3893              	.LASF16:
 3894 004f 43617053 		.ascii	"CapSense_1_BaseInit\000"
 3894      656E7365 
 3894      5F315F42 
 3894      61736549 
 3894      6E697400 
 3895              	.LASF7:
 3896 0063 6C6F6E67 		.ascii	"long long unsigned int\000"
 3896      206C6F6E 
 3896      6720756E 
 3896      7369676E 
 3896      65642069 
 3897              	.LASF40:
 3898 007a 43617053 		.ascii	"CapSense_1_EnableWidget\000"
 3898      656E7365 
 3898      5F315F45 
 3898      6E61626C 
 3898      65576964 
 3899              	.LASF57:
 3900 0092 66697273 		.ascii	"firstTimeIndex\000"
 3900      7454696D 
 3900      65496E64 
 3900      657800
 3901              	.LASF79:
 3902 00a1 474E5520 		.ascii	"GNU C 4.4.1\000"
 3902      4320342E 
 3902      342E3100 
 3903              	.LASF70:
 3904 00ad 43617053 		.ascii	"CapSense_1_noiseThreshold\000"
 3904      656E7365 
 3904      5F315F6E 
 3904      6F697365 
 3904      54687265 
 3905              	.LASF72:
 3906 00c7 43617053 		.ascii	"CapSense_1_debounce\000"
 3906      656E7365 
 3906      5F315F64 
 3906      65626F75 
 3906      6E636500 
 3907              	.LASF6:
 3908 00db 6C6F6E67 		.ascii	"long long int\000"
 3908      206C6F6E 
 3908      6720696E 
 3908      7400
 3909              	.LASF0:
 3910 00e9 7369676E 		.ascii	"signed char\000"
 3910      65642063 
 3910      68617200 
ARM GAS  C:\Users\maxk\AppData\Local\Temp\ccw8u2Eq.s 			page 107


 3911              	.LASF62:
 3912 00f5 43617053 		.ascii	"CapSense_1_SensorEnableMask\000"
 3912      656E7365 
 3912      5F315F53 
 3912      656E736F 
 3912      72456E61 
 3913              	.LASF36:
 3914 0111 72617749 		.ascii	"rawIndex\000"
 3914      6E646578 
 3914      00
 3915              	.LASF37:
 3916 011a 6E756D62 		.ascii	"numberOfSensors\000"
 3916      65724F66 
 3916      53656E73 
 3916      6F727300 
 3917              	.LASF60:
 3918 012a 43617053 		.ascii	"CapSense_1_centroid\000"
 3918      656E7365 
 3918      5F315F63 
 3918      656E7472 
 3918      6F696400 
 3919              	.LASF12:
 3920 013e 696E7433 		.ascii	"int32\000"
 3920      3200
 3921              	.LASF38:
 3922 0144 73746174 		.ascii	"state\000"
 3922      6500
 3923              	.LASF42:
 3924 014a 43617053 		.ascii	"CapSense_1_FindMaximum\000"
 3924      656E7365 
 3924      5F315F46 
 3924      696E644D 
 3924      6178696D 
 3925              	.LASF4:
 3926 0161 6C6F6E67 		.ascii	"long int\000"
 3926      20696E74 
 3926      00
 3927              	.LASF53:
 3928 016a 6E756D65 		.ascii	"numerator\000"
 3928      7261746F 
 3928      7200
 3929              	.LASF41:
 3930 0174 43617053 		.ascii	"CapSense_1_DisableWidget\000"
 3930      656E7365 
 3930      5F315F44 
 3930      69736162 
 3930      6C655769 
 3931              	.LASF54:
 3932 018d 64656E6F 		.ascii	"denominator\000"
 3932      6D696E61 
 3932      746F7200 
 3933              	.LASF9:
 3934 0199 75696E74 		.ascii	"uint8\000"
 3934      3800
 3935              	.LASF14:
 3936 019f 646F7562 		.ascii	"double\000"
 3936      6C6500
ARM GAS  C:\Users\maxk\AppData\Local\Temp\ccw8u2Eq.s 			page 108


 3937              	.LASF11:
 3938 01a6 75696E74 		.ascii	"uint32\000"
 3938      333200
 3939              	.LASF32:
 3940 01ad 68797374 		.ascii	"hysteresis\000"
 3940      65726573 
 3940      697300
 3941              	.LASF71:
 3942 01b8 43617053 		.ascii	"CapSense_1_hysteresis\000"
 3942      656E7365 
 3942      5F315F68 
 3942      79737465 
 3942      72657369 
 3943              	.LASF74:
 3944 01ce 43617053 		.ascii	"CapSense_1_rawDataIndex\000"
 3944      656E7365 
 3944      5F315F72 
 3944      61774461 
 3944      7461496E 
 3945              	.LASF51:
 3946 01e6 706F734E 		.ascii	"posNext\000"
 3946      65787400 
 3947              	.LASF47:
 3948 01ee 73746172 		.ascii	"startOfSlider\000"
 3948      744F6653 
 3948      6C696465 
 3948      7200
 3949              	.LASF46:
 3950 01fc 74656D70 		.ascii	"temp\000"
 3950      00
 3951              	.LASF8:
 3952 0201 756E7369 		.ascii	"unsigned int\000"
 3952      676E6564 
 3952      20696E74 
 3952      00
 3953              	.LASF52:
 3954 020e 706F7369 		.ascii	"position\000"
 3954      74696F6E 
 3954      00
 3955              	.LASF5:
 3956 0217 6C6F6E67 		.ascii	"long unsigned int\000"
 3956      20756E73 
 3956      69676E65 
 3956      6420696E 
 3956      7400
 3957              	.LASF61:
 3958 0229 43617053 		.ascii	"CapSense_1_SensorRaw\000"
 3958      656E7365 
 3958      5F315F53 
 3958      656E736F 
 3958      72526177 
 3959              	.LASF68:
 3960 023e 43617053 		.ascii	"CapSense_1_LowBaselineResetCnt\000"
 3960      656E7365 
 3960      5F315F4C 
 3960      6F774261 
 3960      73656C69 
ARM GAS  C:\Users\maxk\AppData\Local\Temp\ccw8u2Eq.s 			page 109


 3961              	.LASF3:
 3962 025d 73686F72 		.ascii	"short unsigned int\000"
 3962      7420756E 
 3962      7369676E 
 3962      65642069 
 3962      6E7400
 3963              	.LASF18:
 3964 0270 73656E73 		.ascii	"sensor\000"
 3964      6F7200
 3965              	.LASF50:
 3966 0277 706F7350 		.ascii	"posPrev\000"
 3966      72657600 
 3967              	.LASF75:
 3968 027f 43617053 		.ascii	"CapSense_1_numberOfSensors\000"
 3968      656E7365 
 3968      5F315F6E 
 3968      756D6265 
 3968      724F6653 
 3969              	.LASF23:
 3970 029a 63616C63 		.ascii	"calc\000"
 3970      00
 3971              	.LASF66:
 3972 029f 43617053 		.ascii	"CapSense_1_SensorSignal\000"
 3972      656E7365 
 3972      5F315F53 
 3972      656E736F 
 3972      72536967 
 3973              	.LASF56:
 3974 02b7 706F7349 		.ascii	"posIndex\000"
 3974      6E646578 
 3974      00
 3975              	.LASF33:
 3976 02c0 6465626F 		.ascii	"debounce\000"
 3976      756E6365 
 3976      00
 3977              	.LASF21:
 3978 02c9 656E4D61 		.ascii	"enMask\000"
 3978      736B00
 3979              	.LASF58:
 3980 02d0 706F7346 		.ascii	"posFiltersMask\000"
 3980      696C7465 
 3980      72734D61 
 3980      736B00
 3981              	.LASF78:
 3982 02df 43617053 		.ascii	"CapSense_1_posFiltersData\000"
 3982      656E7365 
 3982      5F315F70 
 3982      6F734669 
 3982      6C746572 
 3983              	.LASF48:
 3984 02f9 43617053 		.ascii	"CapSense_1_CalcCentroid\000"
 3984      656E7365 
 3984      5F315F43 
 3984      616C6343 
 3984      656E7472 
 3985              	.LASF63:
 3986 0311 43617053 		.ascii	"CapSense_1_widgetNumber\000"
ARM GAS  C:\Users\maxk\AppData\Local\Temp\ccw8u2Eq.s 			page 110


 3986      656E7365 
 3986      5F315F77 
 3986      69646765 
 3986      744E756D 
 3987              	.LASF17:
 3988 0329 43617053 		.ascii	"CapSense_1_InitializeSensorBaseline\000"
 3988      656E7365 
 3988      5F315F49 
 3988      6E697469 
 3988      616C697A 
 3989              	.LASF28:
 3990 034d 43617053 		.ascii	"CapSense_1_UpdateEnabledBaselines\000"
 3990      656E7365 
 3990      5F315F55 
 3990      70646174 
 3990      65456E61 
 3991              	.LASF13:
 3992 036f 666C6F61 		.ascii	"float\000"
 3992      7400
 3993              	.LASF81:
 3994 0375 433A5C55 		.ascii	"C:\\Users\\maxk\\Desktop\\PSoC 4A\\FAE Workshop\\La"
 3994      73657273 
 3994      5C6D6178 
 3994      6B5C4465 
 3994      736B746F 
 3995 03a2 62205072 		.ascii	"b Projects\\Lab Solutions\\Lab 3 CapSense UART.cyds"
 3995      6F6A6563 
 3995      74735C4C 
 3995      61622053 
 3995      6F6C7574 
 3996 03d3 6E00     		.ascii	"n\000"
 3997              	.LASF34:
 3998 03d5 43617053 		.ascii	"CapSense_1_CheckIsSensorActive\000"
 3998      656E7365 
 3998      5F315F43 
 3998      6865636B 
 3998      49735365 
 3999              	.LASF39:
 4000 03f4 43617053 		.ascii	"CapSense_1_CheckIsAnyWidgetActive\000"
 4000      656E7365 
 4000      5F315F43 
 4000      6865636B 
 4000      4973416E 
 4001              	.LASF1:
 4002 0416 756E7369 		.ascii	"unsigned char\000"
 4002      676E6564 
 4002      20636861 
 4002      7200
 4003              	.LASF20:
 4004 0424 43617053 		.ascii	"CapSense_1_InitializeEnabledBaselines\000"
 4004      656E7365 
 4004      5F315F49 
 4004      6E697469 
 4004      616C697A 
 4005              	.LASF27:
 4006 044a 6E6F6973 		.ascii	"noiseThreshold\000"
 4006      65546872 
ARM GAS  C:\Users\maxk\AppData\Local\Temp\ccw8u2Eq.s 			page 111


 4006      6573686F 
 4006      6C6400
 4007              	.LASF2:
 4008 0459 73686F72 		.ascii	"short int\000"
 4008      7420696E 
 4008      7400
 4009              	.LASF26:
 4010 0463 77696467 		.ascii	"widget\000"
 4010      657400
 4011              	.LASF30:
 4012 046a 6F6E4D61 		.ascii	"onMask\000"
 4012      736B00
 4013              	.LASF22:
 4014 0471 43617053 		.ascii	"CapSense_1_UpdateSensorBaseline\000"
 4014      656E7365 
 4014      5F315F55 
 4014      70646174 
 4014      6553656E 
 4015              	.LASF76:
 4016 0491 43617053 		.ascii	"CapSense_1_centroidMult\000"
 4016      656E7365 
 4016      5F315F63 
 4016      656E7472 
 4016      6F69644D 
 4017              	.LASF73:
 4018 04a9 43617053 		.ascii	"CapSense_1_debounceCounter\000"
 4018      656E7365 
 4018      5F315F64 
 4018      65626F75 
 4018      6E636543 
 4019              	.LASF45:
 4020 04c4 6D617869 		.ascii	"maximum\000"
 4020      6D756D00 
 4021              	.LASF65:
 4022 04cc 43617053 		.ascii	"CapSense_1_SensorBaselineLow\000"
 4022      656E7365 
 4022      5F315F53 
 4022      656E736F 
 4022      72426173 
 4023              	.LASF49:
 4024 04e9 7265736F 		.ascii	"resolution\000"
 4024      6C757469 
 4024      6F6E00
 4025              	.LASF67:
 4026 04f4 43617053 		.ascii	"CapSense_1_SensorOnMask\000"
 4026      656E7365 
 4026      5F315F53 
 4026      656E736F 
 4026      724F6E4D 
 4027              	.LASF69:
 4028 050c 43617053 		.ascii	"CapSense_1_fingerThreshold\000"
 4028      656E7365 
 4028      5F315F66 
 4028      696E6765 
 4028      72546872 
 4029              	.LASF15:
 4030 0527 63686172 		.ascii	"char\000"
ARM GAS  C:\Users\maxk\AppData\Local\Temp\ccw8u2Eq.s 			page 112


 4030      00
 4031              	.LASF55:
 4032 052c 43617053 		.ascii	"CapSense_1_GetCentroidPos\000"
 4032      656E7365 
 4032      5F315F47 
 4032      65744365 
 4032      6E74726F 
 4033              	.LASF43:
 4034 0546 6F666673 		.ascii	"offset\000"
 4034      657400
 4035              	.LASF64:
 4036 054d 43617053 		.ascii	"CapSense_1_SensorBaseline\000"
 4036      656E7365 
 4036      5F315F53 
 4036      656E736F 
 4036      72426173 
 4037              	.LASF29:
 4038 0567 6465626F 		.ascii	"debounceIndex\000"
 4038      756E6365 
 4038      496E6465 
 4038      7800
 4039              	.LASF35:
 4040 0575 43617053 		.ascii	"CapSense_1_CheckIsWidgetActive\000"
 4040      656E7365 
 4040      5F315F43 
 4040      6865636B 
 4040      49735769 
 4041              	.LASF59:
 4042 0594 43617053 		.ascii	"CapSense_1_IIR4Filter\000"
 4042      656E7365 
 4042      5F315F49 
 4042      49523446 
 4042      696C7465 
 4043              	.LASF24:
 4044 05aa 74656D70 		.ascii	"tempRaw\000"
 4044      52617700 
 4045              	.LASF77:
 4046 05b2 43617053 		.ascii	"CapSense_1_posFiltersMask\000"
 4046      656E7365 
 4046      5F315F70 
 4046      6F734669 
 4046      6C746572 
 4047              	.LASF80:
 4048 05cc 2E5C4765 		.ascii	".\\Generated_Source\\PSoC4\\CapSense_1_CSHL.c\000"
 4048      6E657261 
 4048      7465645F 
 4048      536F7572 
 4048      63655C50 
 4049              		.ident	"GCC: (Sourcery G++ Lite 2010q1-188) 4.4.1"
