ARM GAS  C:\Users\maxk\AppData\Local\Temp\cc0ClDlQ.s 			page 1


   1              		.cpu cortex-m0
   2              		.fpu softvfp
   3              		.eabi_attribute 20, 1
   4              		.eabi_attribute 21, 1
   5              		.eabi_attribute 23, 3
   6              		.eabi_attribute 24, 1
   7              		.eabi_attribute 25, 1
   8              		.eabi_attribute 26, 1
   9              		.eabi_attribute 30, 6
  10              		.eabi_attribute 18, 4
  11              		.code	16
  12              		.file	"CapSense_1.c"
  13              		.section	.debug_abbrev,"",%progbits
  14              	.Ldebug_abbrev0:
  15              		.section	.debug_info,"",%progbits
  16              	.Ldebug_info0:
  17              		.section	.debug_line,"",%progbits
  18              	.Ldebug_line0:
  19 0000 21020000 		.text
  19      02006300 
  19      00000201 
  19      FB0E0D00 
  19      01010101 
  20              	.Ltext0:
  21              		.cfi_sections	.debug_frame
  22              		.global	CapSense_1_initVar
  23              		.bss
  24              		.type	CapSense_1_initVar, %object
  25              		.size	CapSense_1_initVar, 1
  26              	CapSense_1_initVar:
  27 0000 00       		.space	1
  28              		.global	CapSense_1_csv
  29              		.type	CapSense_1_csv, %object
  30              		.size	CapSense_1_csv, 1
  31              	CapSense_1_csv:
  32 0001 00       		.space	1
  33              		.global	CapSense_1_sensorIndex
  34              		.type	CapSense_1_sensorIndex, %object
  35              		.size	CapSense_1_sensorIndex, 1
  36              	CapSense_1_sensorIndex:
  37 0002 00       		.space	1
  38              		.global	CapSense_1_SensorRaw
  39 0003 00       		.align	2
  40              		.type	CapSense_1_SensorRaw, %object
  41              		.size	CapSense_1_SensorRaw, 10
  42              	CapSense_1_SensorRaw:
  43 0004 00000000 		.space	10
  43      00000000 
  43      0000
  44              		.global	CapSense_1_PRSResolutionTbl
  45 000e 0000     		.align	2
  46              		.type	CapSense_1_PRSResolutionTbl, %object
  47              		.size	CapSense_1_PRSResolutionTbl, 20
  48              	CapSense_1_PRSResolutionTbl:
  49 0010 00000000 		.space	20
  49      00000000 
  49      00000000 
ARM GAS  C:\Users\maxk\AppData\Local\Temp\cc0ClDlQ.s 			page 2


  49      00000000 
  49      00000000 
  50              		.global	CapSense_1_SensorEnableMask
  51              		.data
  52              		.align	2
  53              		.type	CapSense_1_SensorEnableMask, %object
  54              		.size	CapSense_1_SensorEnableMask, 1
  55              	CapSense_1_SensorEnableMask:
  56 0000 1F       		.byte	31
  57              		.global	CapSense_1_pcTable
  58 0001 000000   		.align	2
  59              		.type	CapSense_1_pcTable, %object
  60              		.size	CapSense_1_pcTable, 20
  61              	CapSense_1_pcTable:
  62 0004 08010440 		.word	1074004232
  63 0008 08010440 		.word	1074004232
  64 000c 08010440 		.word	1074004232
  65 0010 08010440 		.word	1074004232
  66 0014 08010440 		.word	1074004232
  67              		.global	CapSense_1_portTable
  68              		.section	.rodata
  69              		.align	2
  70              		.type	CapSense_1_portTable, %object
  71              		.size	CapSense_1_portTable, 5
  72              	CapSense_1_portTable:
  73 0000 01       		.byte	1
  74 0001 01       		.byte	1
  75 0002 01       		.byte	1
  76 0003 01       		.byte	1
  77 0004 01       		.byte	1
  78              		.global	CapSense_1_maskTable
  79 0005 000000   		.align	2
  80              		.type	CapSense_1_maskTable, %object
  81              		.size	CapSense_1_maskTable, 20
  82              	CapSense_1_maskTable:
  83 0008 02000000 		.word	2
  84 000c 04000000 		.word	4
  85 0010 08000000 		.word	8
  86 0014 10000000 		.word	16
  87 0018 20000000 		.word	32
  88              		.global	CapSense_1_pinShiftTbl
  89              		.align	2
  90              		.type	CapSense_1_pinShiftTbl, %object
  91              		.size	CapSense_1_pinShiftTbl, 5
  92              	CapSense_1_pinShiftTbl:
  93 001c 01       		.byte	1
  94 001d 02       		.byte	2
  95 001e 03       		.byte	3
  96 001f 04       		.byte	4
  97 0020 05       		.byte	5
  98              		.global	CapSense_1_idac1Settings
  99 0021 000000   		.align	2
 100              		.type	CapSense_1_idac1Settings, %object
 101              		.size	CapSense_1_idac1Settings, 5
 102              	CapSense_1_idac1Settings:
 103 0024 3C       		.byte	60
 104 0025 78       		.byte	120
ARM GAS  C:\Users\maxk\AppData\Local\Temp\cc0ClDlQ.s 			page 3


 105 0026 78       		.byte	120
 106 0027 78       		.byte	120
 107 0028 78       		.byte	120
 108              		.global	CapSense_1_idac2Settings
 109 0029 000000   		.align	2
 110              		.type	CapSense_1_idac2Settings, %object
 111              		.size	CapSense_1_idac2Settings, 5
 112              	CapSense_1_idac2Settings:
 113 002c 50       		.byte	80
 114 002d 50       		.byte	80
 115 002e 50       		.byte	80
 116 002f 50       		.byte	80
 117 0030 50       		.byte	80
 118              		.global	CapSense_1_widgetResolution
 119 0031 000000   		.align	2
 120              		.type	CapSense_1_widgetResolution, %object
 121              		.size	CapSense_1_widgetResolution, 4
 122              	CapSense_1_widgetResolution:
 123 0034 0000FF0F 		.word	268369920
 124              		.global	CapSense_1_Clk1DividerVal
 125              		.data
 126              		.type	CapSense_1_Clk1DividerVal, %object
 127              		.size	CapSense_1_Clk1DividerVal, 1
 128              	CapSense_1_Clk1DividerVal:
 129 0018 01       		.byte	1
 130              		.global	CapSense_1_Clk2DividerVal
 131              		.type	CapSense_1_Clk2DividerVal, %object
 132              		.size	CapSense_1_Clk2DividerVal, 1
 133              	CapSense_1_Clk2DividerVal:
 134 0019 0C       		.byte	12
 135              		.global	CapSense_1_widgetNumber
 136 001a 0000     		.section	.rodata
 137              		.align	2
 138              		.type	CapSense_1_widgetNumber, %object
 139              		.size	CapSense_1_widgetNumber, 5
 140              	CapSense_1_widgetNumber:
 141 0038 00000000 		.space	5
 141      00
 142              		.global	CapSense_1_PrtSelTbl
 143 003d 000000   		.align	2
 144              		.type	CapSense_1_PrtSelTbl, %object
 145              		.size	CapSense_1_PrtSelTbl, 16
 146              	CapSense_1_PrtSelTbl:
 147 0040 00000140 		.word	1073807360
 148 0044 04000140 		.word	1073807364
 149 0048 08000140 		.word	1073807368
 150 004c 0C000140 		.word	1073807372
 151              		.global	CapSense_1_PrtCfgTbl
 152              		.align	2
 153              		.type	CapSense_1_PrtCfgTbl, %object
 154              		.size	CapSense_1_PrtCfgTbl, 16
 155              	CapSense_1_PrtCfgTbl:
 156 0050 08000440 		.word	1074003976
 157 0054 08010440 		.word	1074004232
 158 0058 08020440 		.word	1074004488
 159 005c 08030440 		.word	1074004744
 160              		.global	CapSense_1_PrtDRTbl
ARM GAS  C:\Users\maxk\AppData\Local\Temp\cc0ClDlQ.s 			page 4


 161              		.align	2
 162              		.type	CapSense_1_PrtDRTbl, %object
 163              		.size	CapSense_1_PrtDRTbl, 16
 164              	CapSense_1_PrtDRTbl:
 165 0060 00000440 		.word	1074003968
 166 0064 00010440 		.word	1074004224
 167 0068 00020440 		.word	1074004480
 168 006c 00030440 		.word	1074004736
 169              		.section	.text.CapSense_1_Init,"ax",%progbits
 170              		.align	2
 171              		.global	CapSense_1_Init
 172              		.code	16
 173              		.thumb_func
 174              		.type	CapSense_1_Init, %function
 175              	CapSense_1_Init:
 176              	.LFB0:
 177              		.file 1 ".\\Generated_Source\\PSoC4\\CapSense_1.c"
   1:.\Generated_Source\PSoC4/CapSense_1.c **** /*******************************************************************************
   2:.\Generated_Source\PSoC4/CapSense_1.c **** * File Name: CapSense_1.c
   3:.\Generated_Source\PSoC4/CapSense_1.c **** * Version 1.0
   4:.\Generated_Source\PSoC4/CapSense_1.c **** *
   5:.\Generated_Source\PSoC4/CapSense_1.c **** * Description:
   6:.\Generated_Source\PSoC4/CapSense_1.c **** *  This file provides the source code of scanning APIs for the CapSense CSD 
   7:.\Generated_Source\PSoC4/CapSense_1.c **** *  component.
   8:.\Generated_Source\PSoC4/CapSense_1.c **** *
   9:.\Generated_Source\PSoC4/CapSense_1.c **** * Note:
  10:.\Generated_Source\PSoC4/CapSense_1.c **** *
  11:.\Generated_Source\PSoC4/CapSense_1.c **** ********************************************************************************
  12:.\Generated_Source\PSoC4/CapSense_1.c **** * Copyright 2013, Cypress Semiconductor Corporation.  All rights reserved.
  13:.\Generated_Source\PSoC4/CapSense_1.c **** * You may use this file only in accordance with the license, terms, conditions,
  14:.\Generated_Source\PSoC4/CapSense_1.c **** * disclaimers, and limitations in the end user license agreement accompanying
  15:.\Generated_Source\PSoC4/CapSense_1.c **** * the software package with which this file was provided.
  16:.\Generated_Source\PSoC4/CapSense_1.c **** *******************************************************************************/
  17:.\Generated_Source\PSoC4/CapSense_1.c **** 
  18:.\Generated_Source\PSoC4/CapSense_1.c **** #include "CapSense_1.h"
  19:.\Generated_Source\PSoC4/CapSense_1.c **** 
  20:.\Generated_Source\PSoC4/CapSense_1.c **** #if(CapSense_1_IS_SHIELD_ENABLE)
  21:.\Generated_Source\PSoC4/CapSense_1.c ****     #define CapSense_1_SHIELD_PORT_NUMBER CapSense_1_Shield__PORT
  22:.\Generated_Source\PSoC4/CapSense_1.c ****     #define CapSense_1_SHIELD_PIN_NUMBER  CapSense_1_Shield__SHIFT
  23:.\Generated_Source\PSoC4/CapSense_1.c **** #endif /* (CapSense_1_IS_SHIELD_ENABLE) */
  24:.\Generated_Source\PSoC4/CapSense_1.c **** 
  25:.\Generated_Source\PSoC4/CapSense_1.c **** #if (CapSense_1_IS_COMPLEX_SCANSLOTS)
  26:.\Generated_Source\PSoC4/CapSense_1.c ****     void CapSense_1_EnableScanSlot(uint8 slot);
  27:.\Generated_Source\PSoC4/CapSense_1.c ****     void CapSense_1_DisableScanSlot(uint8 slot);
  28:.\Generated_Source\PSoC4/CapSense_1.c **** #else
  29:.\Generated_Source\PSoC4/CapSense_1.c ****     #define CapSense_1_EnableScanSlot(slot)   CapSense_1_EnableSensor(slot)
  30:.\Generated_Source\PSoC4/CapSense_1.c ****     #define CapSense_1_DisableScanSlot(slot)  CapSense_1_DisableSensor(slot)
  31:.\Generated_Source\PSoC4/CapSense_1.c **** #endif  /* End CapSense_1_IS_COMPLEX_SCANSLOTS */
  32:.\Generated_Source\PSoC4/CapSense_1.c **** 
  33:.\Generated_Source\PSoC4/CapSense_1.c **** /* Find next sensor for One Channel design */
  34:.\Generated_Source\PSoC4/CapSense_1.c **** uint8 CapSense_1_FindNextSensor(uint8 snsIndex);
  35:.\Generated_Source\PSoC4/CapSense_1.c **** 
  36:.\Generated_Source\PSoC4/CapSense_1.c **** /* Start and Compete the scan */
  37:.\Generated_Source\PSoC4/CapSense_1.c **** void CapSense_1_PreScan(uint8 sensor);
  38:.\Generated_Source\PSoC4/CapSense_1.c **** void CapSense_1_PostScan(uint8 sensor);
  39:.\Generated_Source\PSoC4/CapSense_1.c **** 
  40:.\Generated_Source\PSoC4/CapSense_1.c **** 
ARM GAS  C:\Users\maxk\AppData\Local\Temp\cc0ClDlQ.s 			page 5


  41:.\Generated_Source\PSoC4/CapSense_1.c **** /* SmartSense functions */
  42:.\Generated_Source\PSoC4/CapSense_1.c **** #if (CapSense_1_TUNING_METHOD == CapSense_1_AUTO_TUNING)
  43:.\Generated_Source\PSoC4/CapSense_1.c ****     uint8 CapSense_1_lowLevelTuningDone = 0u;
  44:.\Generated_Source\PSoC4/CapSense_1.c ****     extern void CapSense_1_AutoTune(void);
  45:.\Generated_Source\PSoC4/CapSense_1.c **** #endif /* End (CapSense_1_TUNING_METHOD == CapSense_1_AUTO_TUNING) */
  46:.\Generated_Source\PSoC4/CapSense_1.c **** 
  47:.\Generated_Source\PSoC4/CapSense_1.c **** #if(CapSense_1_PRS_OPTIONS != CapSense_1__PRS_NONE)
  48:.\Generated_Source\PSoC4/CapSense_1.c **** 	uint8 CapSense_1_PrescalersTuningDone = 0u;
  49:.\Generated_Source\PSoC4/CapSense_1.c **** #endif /* (CapSense_1_PRS_OPTIONS == CapSense_1__PRS_NONE) */
  50:.\Generated_Source\PSoC4/CapSense_1.c **** 
  51:.\Generated_Source\PSoC4/CapSense_1.c **** uint8 CapSense_1_initVar = 0u;
  52:.\Generated_Source\PSoC4/CapSense_1.c ****             
  53:.\Generated_Source\PSoC4/CapSense_1.c **** /* Global software variables */
  54:.\Generated_Source\PSoC4/CapSense_1.c **** volatile uint8 CapSense_1_csv = 0u;            /* CapSense CSD status, control variable */
  55:.\Generated_Source\PSoC4/CapSense_1.c **** volatile uint8 CapSense_1_sensorIndex = 0u;    /* Index of scannig sensor */
  56:.\Generated_Source\PSoC4/CapSense_1.c **** 
  57:.\Generated_Source\PSoC4/CapSense_1.c **** /* Global array of Raw Counts */
  58:.\Generated_Source\PSoC4/CapSense_1.c **** uint16 CapSense_1_SensorRaw[CapSense_1_TOTAL_SENSOR_COUNT] = {0u};
  59:.\Generated_Source\PSoC4/CapSense_1.c **** 
  60:.\Generated_Source\PSoC4/CapSense_1.c **** /* Global array of PRS resolutions */
  61:.\Generated_Source\PSoC4/CapSense_1.c **** uint32 CapSense_1_PRSResolutionTbl[CapSense_1_TOTAL_SCANSLOT_COUNT] = {0u};
  62:.\Generated_Source\PSoC4/CapSense_1.c **** 
  63:.\Generated_Source\PSoC4/CapSense_1.c **** uint8 CapSense_1_SensorEnableMask[(((CapSense_1_TOTAL_SENSOR_COUNT - 1u) / 8u) + 1u)] = {
  64:.\Generated_Source\PSoC4/CapSense_1.c **** 0x1Fu, };
  65:.\Generated_Source\PSoC4/CapSense_1.c **** 
  66:.\Generated_Source\PSoC4/CapSense_1.c **** reg32 * CapSense_1_pcTable[] = {
  67:.\Generated_Source\PSoC4/CapSense_1.c ****     (reg32 *)CapSense_1_Sns__LinearSlider0_e0__LS__PC, 
  68:.\Generated_Source\PSoC4/CapSense_1.c ****     (reg32 *)CapSense_1_Sns__LinearSlider0_e1__LS__PC, 
  69:.\Generated_Source\PSoC4/CapSense_1.c ****     (reg32 *)CapSense_1_Sns__LinearSlider0_e2__LS__PC, 
  70:.\Generated_Source\PSoC4/CapSense_1.c ****     (reg32 *)CapSense_1_Sns__LinearSlider0_e3__LS__PC, 
  71:.\Generated_Source\PSoC4/CapSense_1.c ****     (reg32 *)CapSense_1_Sns__LinearSlider0_e4__LS__PC, 
  72:.\Generated_Source\PSoC4/CapSense_1.c **** };
  73:.\Generated_Source\PSoC4/CapSense_1.c **** 
  74:.\Generated_Source\PSoC4/CapSense_1.c **** const uint8 CapSense_1_portTable[] = {
  75:.\Generated_Source\PSoC4/CapSense_1.c ****     CapSense_1_Sns__LinearSlider0_e0__LS__PORT, 
  76:.\Generated_Source\PSoC4/CapSense_1.c ****     CapSense_1_Sns__LinearSlider0_e1__LS__PORT, 
  77:.\Generated_Source\PSoC4/CapSense_1.c ****     CapSense_1_Sns__LinearSlider0_e2__LS__PORT, 
  78:.\Generated_Source\PSoC4/CapSense_1.c ****     CapSense_1_Sns__LinearSlider0_e3__LS__PORT, 
  79:.\Generated_Source\PSoC4/CapSense_1.c ****     CapSense_1_Sns__LinearSlider0_e4__LS__PORT, 
  80:.\Generated_Source\PSoC4/CapSense_1.c **** };
  81:.\Generated_Source\PSoC4/CapSense_1.c **** 
  82:.\Generated_Source\PSoC4/CapSense_1.c **** const uint32 CapSense_1_maskTable[] = {
  83:.\Generated_Source\PSoC4/CapSense_1.c ****     CapSense_1_Sns__LinearSlider0_e0__LS__MASK, 
  84:.\Generated_Source\PSoC4/CapSense_1.c ****     CapSense_1_Sns__LinearSlider0_e1__LS__MASK, 
  85:.\Generated_Source\PSoC4/CapSense_1.c ****     CapSense_1_Sns__LinearSlider0_e2__LS__MASK, 
  86:.\Generated_Source\PSoC4/CapSense_1.c ****     CapSense_1_Sns__LinearSlider0_e3__LS__MASK, 
  87:.\Generated_Source\PSoC4/CapSense_1.c ****     CapSense_1_Sns__LinearSlider0_e4__LS__MASK, 
  88:.\Generated_Source\PSoC4/CapSense_1.c **** };
  89:.\Generated_Source\PSoC4/CapSense_1.c **** 
  90:.\Generated_Source\PSoC4/CapSense_1.c **** const uint8 CapSense_1_pinShiftTbl[] = {
  91:.\Generated_Source\PSoC4/CapSense_1.c ****     CapSense_1_Sns__LinearSlider0_e0__LS__SHIFT, 
  92:.\Generated_Source\PSoC4/CapSense_1.c ****     CapSense_1_Sns__LinearSlider0_e1__LS__SHIFT, 
  93:.\Generated_Source\PSoC4/CapSense_1.c ****     CapSense_1_Sns__LinearSlider0_e2__LS__SHIFT, 
  94:.\Generated_Source\PSoC4/CapSense_1.c ****     CapSense_1_Sns__LinearSlider0_e3__LS__SHIFT, 
  95:.\Generated_Source\PSoC4/CapSense_1.c ****     CapSense_1_Sns__LinearSlider0_e4__LS__SHIFT, 
  96:.\Generated_Source\PSoC4/CapSense_1.c **** };
  97:.\Generated_Source\PSoC4/CapSense_1.c **** 
ARM GAS  C:\Users\maxk\AppData\Local\Temp\cc0ClDlQ.s 			page 6


  98:.\Generated_Source\PSoC4/CapSense_1.c **** const uint8 CYCODE CapSense_1_idac1Settings[] = {
  99:.\Generated_Source\PSoC4/CapSense_1.c ****     60u,120u,120u,120u,120u,
 100:.\Generated_Source\PSoC4/CapSense_1.c **** };
 101:.\Generated_Source\PSoC4/CapSense_1.c **** 
 102:.\Generated_Source\PSoC4/CapSense_1.c **** const uint8 CYCODE CapSense_1_idac2Settings[] = {
 103:.\Generated_Source\PSoC4/CapSense_1.c ****     80u,80u,80u,80u,80u,
 104:.\Generated_Source\PSoC4/CapSense_1.c **** };
 105:.\Generated_Source\PSoC4/CapSense_1.c **** 
 106:.\Generated_Source\PSoC4/CapSense_1.c **** const uint32 CYCODE CapSense_1_widgetResolution[] = {
 107:.\Generated_Source\PSoC4/CapSense_1.c ****     CapSense_1_RESOLUTION_12_BITS,
 108:.\Generated_Source\PSoC4/CapSense_1.c **** };
 109:.\Generated_Source\PSoC4/CapSense_1.c **** 
 110:.\Generated_Source\PSoC4/CapSense_1.c **** uint8 CapSense_1_Clk1DividerVal = 1u;
 111:.\Generated_Source\PSoC4/CapSense_1.c **** uint8 CapSense_1_Clk2DividerVal = 12u;
 112:.\Generated_Source\PSoC4/CapSense_1.c **** 
 113:.\Generated_Source\PSoC4/CapSense_1.c **** const uint8 CYCODE CapSense_1_widgetNumber[] = {
 114:.\Generated_Source\PSoC4/CapSense_1.c ****     0u, 0u, 0u, 0u, 0u, /* LinearSlider0__LS */
 115:.\Generated_Source\PSoC4/CapSense_1.c ****     
 116:.\Generated_Source\PSoC4/CapSense_1.c **** };
 117:.\Generated_Source\PSoC4/CapSense_1.c **** 
 118:.\Generated_Source\PSoC4/CapSense_1.c **** 
 119:.\Generated_Source\PSoC4/CapSense_1.c **** reg32* const CYCODE CapSense_1_PrtSelTbl[] = {
 120:.\Generated_Source\PSoC4/CapSense_1.c ****     ((reg32 *) CYREG_HSIOM_PORT_SEL0),
 121:.\Generated_Source\PSoC4/CapSense_1.c ****     ((reg32 *) CYREG_HSIOM_PORT_SEL1),
 122:.\Generated_Source\PSoC4/CapSense_1.c ****     ((reg32 *) CYREG_HSIOM_PORT_SEL2),
 123:.\Generated_Source\PSoC4/CapSense_1.c ****     ((reg32 *) CYREG_HSIOM_PORT_SEL3)
 124:.\Generated_Source\PSoC4/CapSense_1.c **** };
 125:.\Generated_Source\PSoC4/CapSense_1.c **** 
 126:.\Generated_Source\PSoC4/CapSense_1.c **** reg32* const CYCODE CapSense_1_PrtCfgTbl[] = {
 127:.\Generated_Source\PSoC4/CapSense_1.c ****     ((reg32 *) CYREG_PRT0_PC),
 128:.\Generated_Source\PSoC4/CapSense_1.c ****     ((reg32 *) CYREG_PRT1_PC),
 129:.\Generated_Source\PSoC4/CapSense_1.c ****     ((reg32 *) CYREG_PRT2_PC),
 130:.\Generated_Source\PSoC4/CapSense_1.c ****     ((reg32 *) CYREG_PRT3_PC)
 131:.\Generated_Source\PSoC4/CapSense_1.c **** };
 132:.\Generated_Source\PSoC4/CapSense_1.c **** 
 133:.\Generated_Source\PSoC4/CapSense_1.c **** reg32* const CYCODE CapSense_1_PrtDRTbl[] = {
 134:.\Generated_Source\PSoC4/CapSense_1.c ****     ((reg32 *) CYREG_PRT0_DR),
 135:.\Generated_Source\PSoC4/CapSense_1.c ****     ((reg32 *) CYREG_PRT1_DR),
 136:.\Generated_Source\PSoC4/CapSense_1.c ****     ((reg32 *) CYREG_PRT2_DR),
 137:.\Generated_Source\PSoC4/CapSense_1.c ****     ((reg32 *) CYREG_PRT3_DR)
 138:.\Generated_Source\PSoC4/CapSense_1.c **** };
 139:.\Generated_Source\PSoC4/CapSense_1.c **** 
 140:.\Generated_Source\PSoC4/CapSense_1.c **** 
 141:.\Generated_Source\PSoC4/CapSense_1.c **** 
 142:.\Generated_Source\PSoC4/CapSense_1.c **** 
 143:.\Generated_Source\PSoC4/CapSense_1.c **** 
 144:.\Generated_Source\PSoC4/CapSense_1.c **** /*******************************************************************************
 145:.\Generated_Source\PSoC4/CapSense_1.c **** * Function Name: CapSense_1_Init
 146:.\Generated_Source\PSoC4/CapSense_1.c **** ********************************************************************************
 147:.\Generated_Source\PSoC4/CapSense_1.c **** *
 148:.\Generated_Source\PSoC4/CapSense_1.c **** * Summary:
 149:.\Generated_Source\PSoC4/CapSense_1.c **** *  Inits default CapSense configuration provided with customizer that defines 
 150:.\Generated_Source\PSoC4/CapSense_1.c **** *  mode of component operations and resets all sensors to an inactive state.
 151:.\Generated_Source\PSoC4/CapSense_1.c **** *
 152:.\Generated_Source\PSoC4/CapSense_1.c **** * Parameters:
 153:.\Generated_Source\PSoC4/CapSense_1.c **** *  None
 154:.\Generated_Source\PSoC4/CapSense_1.c **** *
ARM GAS  C:\Users\maxk\AppData\Local\Temp\cc0ClDlQ.s 			page 7


 155:.\Generated_Source\PSoC4/CapSense_1.c **** * Return:
 156:.\Generated_Source\PSoC4/CapSense_1.c **** *  None
 157:.\Generated_Source\PSoC4/CapSense_1.c **** *
 158:.\Generated_Source\PSoC4/CapSense_1.c **** *******************************************************************************/
 159:.\Generated_Source\PSoC4/CapSense_1.c **** void CapSense_1_Init(void)
 160:.\Generated_Source\PSoC4/CapSense_1.c **** {
 178              		.loc 1 160 0
 179              		.cfi_startproc
 180 0000 80B5     		push	{r7, lr}
 181              	.LCFI0:
 182              		.cfi_def_cfa_offset 8
 183              		.cfi_offset 7, -8
 184              		.cfi_offset 14, -4
 185 0002 00AF     		add	r7, sp, #0
 186              	.LCFI1:
 187              		.cfi_def_cfa_register 7
 161:.\Generated_Source\PSoC4/CapSense_1.c **** 
 162:.\Generated_Source\PSoC4/CapSense_1.c **** #if ( ( CapSense_1_MULTIPLE_FREQUENCY_SET ) || (CapSense_1_TUNING_METHOD == CapSense_1_AUTO_TUNING)
 163:.\Generated_Source\PSoC4/CapSense_1.c **** 
 164:.\Generated_Source\PSoC4/CapSense_1.c ****     uint8 snsNumber;
 165:.\Generated_Source\PSoC4/CapSense_1.c **** 
 166:.\Generated_Source\PSoC4/CapSense_1.c ****     for(snsNumber = 0u; snsNumber < CapSense_1_TOTAL_SENSOR_COUNT; snsNumber++)  
 167:.\Generated_Source\PSoC4/CapSense_1.c ****     {  
 168:.\Generated_Source\PSoC4/CapSense_1.c ****         CapSense_1_CSD_Clk1_SetDividerValue(CapSense_1_Clk1DividerVal[snsNumber]);
 169:.\Generated_Source\PSoC4/CapSense_1.c ****         CapSense_1_CSD_Clk2_SetDividerValue(CapSense_1_Clk2DividerVal[snsNumber]);
 170:.\Generated_Source\PSoC4/CapSense_1.c ****     }
 171:.\Generated_Source\PSoC4/CapSense_1.c **** #else
 172:.\Generated_Source\PSoC4/CapSense_1.c ****     CapSense_1_CSD_Clk1_SetDividerValue(CapSense_1_Clk1DividerVal);
 188              		.loc 1 172 0
 189 0004 1B4B     		ldr	r3, .L3
 190 0006 1B78     		ldrb	r3, [r3]
 191 0008 013B     		sub	r3, r3, #1
 192 000a 9BB2     		uxth	r3, r3
 193 000c 181C     		mov	r0, r3
 194 000e 0021     		mov	r1, #0
 195 0010 FFF7FEFF 		bl	CapSense_1_CSD_Clk1_SetFractionalDividerRegister
 173:.\Generated_Source\PSoC4/CapSense_1.c ****     CapSense_1_CSD_Clk2_SetDividerValue(CapSense_1_Clk2DividerVal);
 196              		.loc 1 173 0
 197 0014 184B     		ldr	r3, .L3+4
 198 0016 1B78     		ldrb	r3, [r3]
 199 0018 013B     		sub	r3, r3, #1
 200 001a 9BB2     		uxth	r3, r3
 201 001c 181C     		mov	r0, r3
 202 001e 0021     		mov	r1, #0
 203 0020 FFF7FEFF 		bl	CapSense_1_CSD_Clk2_SetFractionalDividerRegister
 174:.\Generated_Source\PSoC4/CapSense_1.c **** #endif /* (CapSense_1_MULTIPLE_FREQUENCY_SET) || \
 175:.\Generated_Source\PSoC4/CapSense_1.c ****       (CapSense_1_TUNING_METHOD == CapSense_1_AUTO_TUNING) */
 176:.\Generated_Source\PSoC4/CapSense_1.c ****       
 177:.\Generated_Source\PSoC4/CapSense_1.c ****     /* Clear all sensors */
 178:.\Generated_Source\PSoC4/CapSense_1.c ****     CapSense_1_ClearSensors();
 204              		.loc 1 178 0
 205 0024 FFF7FEFF 		bl	CapSense_1_ClearSensors
 179:.\Generated_Source\PSoC4/CapSense_1.c ****     
 180:.\Generated_Source\PSoC4/CapSense_1.c **** #if(CapSense_1_IS_SHIELD_ENABLE)
 181:.\Generated_Source\PSoC4/CapSense_1.c ****     *CapSense_1_PrtCfgTbl[CapSense_1_SHIELD_PORT_NUMBER] &= ~(CapSense_1_CSD_PIN_MODE_MASK << (CapS
 182:.\Generated_Source\PSoC4/CapSense_1.c ****     *CapSense_1_PrtSelTbl[CapSense_1_SHIELD_PORT_NUMBER] &= ~(CapSense_1_CSD_HSIOM_MASK << (CapSens
 183:.\Generated_Source\PSoC4/CapSense_1.c ****     *CapSense_1_PrtSelTbl[CapSense_1_SHIELD_PORT_NUMBER] |= (CapSense_1_CSD_SHIELD_PORT_MODE << (Ca
ARM GAS  C:\Users\maxk\AppData\Local\Temp\cc0ClDlQ.s 			page 8


 184:.\Generated_Source\PSoC4/CapSense_1.c **** 	
 185:.\Generated_Source\PSoC4/CapSense_1.c **** 	#if((CapSense_1_CSH_TANK_PREGARGE_OPTION == CapSense_1__CAPPRIOBUF) || (CapSense_1_CSH_TANK_ENABLE
 186:.\Generated_Source\PSoC4/CapSense_1.c **** 		CapSense_1_PORT_SEL4_REG &= ~(CapSense_1_CSD_CTANK_CONNECTION_MASK);
 187:.\Generated_Source\PSoC4/CapSense_1.c **** 		CapSense_1_PORT_SEL4_REG |= CapSense_1_CSD_CTANK_TO_AMUXBUS_B;
 188:.\Generated_Source\PSoC4/CapSense_1.c **** 	#endif /* */
 189:.\Generated_Source\PSoC4/CapSense_1.c **** 	
 190:.\Generated_Source\PSoC4/CapSense_1.c **** 	#if(CapSense_1_CSH_TANK_PREGARGE_OPTION == CapSense_1__CAPPRIOBUF)
 191:.\Generated_Source\PSoC4/CapSense_1.c **** 		CapSense_1_PORT4_PC_REG &= ~(CapSense_1_CSD_CTANK_PC_MASK);
 192:.\Generated_Source\PSoC4/CapSense_1.c **** 		CapSense_1_PORT4_PC_REG |= CapSense_1_CTANK_PC_STRONG_MODE;
 193:.\Generated_Source\PSoC4/CapSense_1.c **** 		
 194:.\Generated_Source\PSoC4/CapSense_1.c **** 		CapSense_1_PORT4_DR_REG &= ~(CapSense_1_CTANK_DR_MASK);
 195:.\Generated_Source\PSoC4/CapSense_1.c **** 		CapSense_1_PORT4_DR_REG |= CapSense_1_CTANK_DR_CONFIG;
 196:.\Generated_Source\PSoC4/CapSense_1.c **** 	#endif/* (CapSense_1_CSH_TANK_PREGARGE_OPTION == CapSense_1__CAPPRIOBUF) */
 197:.\Generated_Source\PSoC4/CapSense_1.c **** 
 198:.\Generated_Source\PSoC4/CapSense_1.c **** #endif /* (CapSense_1_IS_SHIELD_ENABLE) */
 199:.\Generated_Source\PSoC4/CapSense_1.c ****     
 200:.\Generated_Source\PSoC4/CapSense_1.c ****     CapSense_1_CSD_CFG_REG = CapSense_1_DEFAULT_CSD_CONFIG;
 206              		.loc 1 200 0
 207 0028 144B     		ldr	r3, .L3+8
 208 002a 154A     		ldr	r2, .L3+12
 209 002c 1A60     		str	r2, [r3]
 201:.\Generated_Source\PSoC4/CapSense_1.c ****     CapSense_1_CSD_IDAC_REG = CapSense_1_DEFAULT_CSD_IDAC_CONFIG;   
 210              		.loc 1 201 0
 211 002e 154A     		ldr	r2, .L3+16
 212 0030 8023     		mov	r3, #128
 213 0032 9B00     		lsl	r3, r3, #2
 214 0034 1360     		str	r3, [r2]
 202:.\Generated_Source\PSoC4/CapSense_1.c ****     CapSense_1_SetShieldDelay(CapSense_1_SHIELD_DELAY ); 
 215              		.loc 1 202 0
 216 0036 0020     		mov	r0, #0
 217 0038 FFF7FEFF 		bl	CapSense_1_SetShieldDelay
 203:.\Generated_Source\PSoC4/CapSense_1.c **** 
 204:.\Generated_Source\PSoC4/CapSense_1.c ****     CapSense_1_PORT_SEL4_REG &= ~(CapSense_1_CSD_CMOD_CONNECTION_MASK);
 218              		.loc 1 204 0
 219 003c 124B     		ldr	r3, .L3+20
 220 003e 124A     		ldr	r2, .L3+20
 221 0040 1168     		ldr	r1, [r2]
 222 0042 124A     		ldr	r2, .L3+24
 223 0044 0A40     		and	r2, r2, r1
 224 0046 1A60     		str	r2, [r3]
 205:.\Generated_Source\PSoC4/CapSense_1.c ****     CapSense_1_PORT_SEL4_REG |= CapSense_1_CSD_CMOD_TO_AMUXBUS_A;
 225              		.loc 1 205 0
 226 0048 0F4A     		ldr	r2, .L3+20
 227 004a 0F4B     		ldr	r3, .L3+20
 228 004c 1968     		ldr	r1, [r3]
 229 004e C023     		mov	r3, #192
 230 0050 DB00     		lsl	r3, r3, #3
 231 0052 0B43     		orr	r3, r3, r1
 232 0054 1360     		str	r3, [r2]
 206:.\Generated_Source\PSoC4/CapSense_1.c ****     
 207:.\Generated_Source\PSoC4/CapSense_1.c ****     /* Setup ISR */
 208:.\Generated_Source\PSoC4/CapSense_1.c ****     CyIntDisable(CapSense_1_ISR_NUMBER);
 233              		.loc 1 208 0
 234 0056 0F20     		mov	r0, #15
 235 0058 FFF7FEFF 		bl	CyIntDisable
 209:.\Generated_Source\PSoC4/CapSense_1.c ****     CyIntSetVector(CapSense_1_ISR_NUMBER, CapSense_1_ISR);
 236              		.loc 1 209 0
ARM GAS  C:\Users\maxk\AppData\Local\Temp\cc0ClDlQ.s 			page 9


 237 005c 0C4B     		ldr	r3, .L3+28
 238 005e 0F20     		mov	r0, #15
 239 0060 191C     		mov	r1, r3
 240 0062 FFF7FEFF 		bl	CyIntSetVector
 210:.\Generated_Source\PSoC4/CapSense_1.c ****     CyIntSetPriority(CapSense_1_ISR_NUMBER, CapSense_1_ISR_PRIORITY);
 241              		.loc 1 210 0
 242 0066 0F20     		mov	r0, #15
 243 0068 0321     		mov	r1, #3
 244 006a FFF7FEFF 		bl	CyIntSetPriority
 211:.\Generated_Source\PSoC4/CapSense_1.c **** }
 245              		.loc 1 211 0
 246 006e BD46     		mov	sp, r7
 247              		@ sp needed for prologue
 248 0070 80BD     		pop	{r7, pc}
 249              	.L4:
 250 0072 C046     		.align	2
 251              	.L3:
 252 0074 00000000 		.word	CapSense_1_Clk1DividerVal
 253 0078 00000000 		.word	CapSense_1_Clk2DividerVal
 254 007c 04000840 		.word	1074266116
 255 0080 0028A001 		.word	27273216
 256 0084 08000840 		.word	1074266120
 257 0088 10000140 		.word	1073807376
 258 008c FFF0FFFF 		.word	-3841
 259 0090 00000000 		.word	CapSense_1_ISR
 260              		.cfi_endproc
 261              	.LFE0:
 262              		.size	CapSense_1_Init, .-CapSense_1_Init
 263              		.section	.text.CapSense_1_Enable,"ax",%progbits
 264              		.align	2
 265              		.global	CapSense_1_Enable
 266              		.code	16
 267              		.thumb_func
 268              		.type	CapSense_1_Enable, %function
 269              	CapSense_1_Enable:
 270              	.LFB1:
 212:.\Generated_Source\PSoC4/CapSense_1.c **** 
 213:.\Generated_Source\PSoC4/CapSense_1.c **** 
 214:.\Generated_Source\PSoC4/CapSense_1.c **** /*******************************************************************************
 215:.\Generated_Source\PSoC4/CapSense_1.c **** * Function Name: CapSense_1_Enable
 216:.\Generated_Source\PSoC4/CapSense_1.c **** ********************************************************************************
 217:.\Generated_Source\PSoC4/CapSense_1.c **** *
 218:.\Generated_Source\PSoC4/CapSense_1.c **** * Summary:
 219:.\Generated_Source\PSoC4/CapSense_1.c **** *  Enables active mode power template bits for number of component used within 
 220:.\Generated_Source\PSoC4/CapSense_1.c **** *  CapSense.
 221:.\Generated_Source\PSoC4/CapSense_1.c **** *
 222:.\Generated_Source\PSoC4/CapSense_1.c **** * Parameters:
 223:.\Generated_Source\PSoC4/CapSense_1.c **** *  None
 224:.\Generated_Source\PSoC4/CapSense_1.c **** *
 225:.\Generated_Source\PSoC4/CapSense_1.c **** * Return:
 226:.\Generated_Source\PSoC4/CapSense_1.c **** *  None
 227:.\Generated_Source\PSoC4/CapSense_1.c **** *
 228:.\Generated_Source\PSoC4/CapSense_1.c **** *******************************************************************************/
 229:.\Generated_Source\PSoC4/CapSense_1.c **** void CapSense_1_Enable(void)
 230:.\Generated_Source\PSoC4/CapSense_1.c **** {
 271              		.loc 1 230 0
 272              		.cfi_startproc
ARM GAS  C:\Users\maxk\AppData\Local\Temp\cc0ClDlQ.s 			page 10


 273 0000 80B5     		push	{r7, lr}
 274              	.LCFI2:
 275              		.cfi_def_cfa_offset 8
 276              		.cfi_offset 7, -8
 277              		.cfi_offset 14, -4
 278 0002 00AF     		add	r7, sp, #0
 279              	.LCFI3:
 280              		.cfi_def_cfa_register 7
 231:.\Generated_Source\PSoC4/CapSense_1.c ****     /* Enable the Clocks */
 232:.\Generated_Source\PSoC4/CapSense_1.c ****     CapSense_1_CSD_Clk1_Start();
 281              		.loc 1 232 0
 282 0004 FFF7FEFF 		bl	CapSense_1_CSD_Clk1_Start
 233:.\Generated_Source\PSoC4/CapSense_1.c ****     CapSense_1_CSD_Clk2_Start();
 283              		.loc 1 233 0
 284 0008 FFF7FEFF 		bl	CapSense_1_CSD_Clk2_Start
 234:.\Generated_Source\PSoC4/CapSense_1.c ****     
 235:.\Generated_Source\PSoC4/CapSense_1.c **** 	CapSense_1_CSD_CFG_REG |= CapSense_1_CSD_CFG_ENABLE;
 285              		.loc 1 235 0
 286 000c 0E4A     		ldr	r2, .L7
 287 000e 0E4B     		ldr	r3, .L7
 288 0010 1968     		ldr	r1, [r3]
 289 0012 8023     		mov	r3, #128
 290 0014 1B06     		lsl	r3, r3, #24
 291 0016 0B43     		orr	r3, r3, r1
 292 0018 1360     		str	r3, [r2]
 236:.\Generated_Source\PSoC4/CapSense_1.c **** 	
 237:.\Generated_Source\PSoC4/CapSense_1.c ****     CapSense_1_CSD_CFG_REG |= CapSense_1_CSD_CFG_SENSE_COMP_EN;
 293              		.loc 1 237 0
 294 001a 0B4A     		ldr	r2, .L7
 295 001c 0A4B     		ldr	r3, .L7
 296 001e 1968     		ldr	r1, [r3]
 297 0020 8023     		mov	r3, #128
 298 0022 1B03     		lsl	r3, r3, #12
 299 0024 0B43     		orr	r3, r3, r1
 300 0026 1360     		str	r3, [r2]
 238:.\Generated_Source\PSoC4/CapSense_1.c ****     CyDelayUs(100u);
 301              		.loc 1 238 0
 302 0028 6420     		mov	r0, #100
 303 002a FFF7FEFF 		bl	CyDelayUs
 239:.\Generated_Source\PSoC4/CapSense_1.c ****     CapSense_1_CSD_CFG_REG |= CapSense_1_CSD_CFG_SENSE_EN;
 304              		.loc 1 239 0
 305 002e 064A     		ldr	r2, .L7
 306 0030 054B     		ldr	r3, .L7
 307 0032 1968     		ldr	r1, [r3]
 308 0034 8023     		mov	r3, #128
 309 0036 5B01     		lsl	r3, r3, #5
 310 0038 0B43     		orr	r3, r3, r1
 311 003a 1360     		str	r3, [r2]
 240:.\Generated_Source\PSoC4/CapSense_1.c **** 
 241:.\Generated_Source\PSoC4/CapSense_1.c ****     /* Enable interrupt */
 242:.\Generated_Source\PSoC4/CapSense_1.c ****     CyIntEnable(CapSense_1_ISR_NUMBER);
 312              		.loc 1 242 0
 313 003c 0F20     		mov	r0, #15
 314 003e FFF7FEFF 		bl	CyIntEnable
 243:.\Generated_Source\PSoC4/CapSense_1.c **** }
 315              		.loc 1 243 0
 316 0042 BD46     		mov	sp, r7
ARM GAS  C:\Users\maxk\AppData\Local\Temp\cc0ClDlQ.s 			page 11


 317              		@ sp needed for prologue
 318 0044 80BD     		pop	{r7, pc}
 319              	.L8:
 320 0046 C046     		.align	2
 321              	.L7:
 322 0048 04000840 		.word	1074266116
 323              		.cfi_endproc
 324              	.LFE1:
 325              		.size	CapSense_1_Enable, .-CapSense_1_Enable
 326              		.section	.text.CapSense_1_Start,"ax",%progbits
 327              		.align	2
 328              		.global	CapSense_1_Start
 329              		.code	16
 330              		.thumb_func
 331              		.type	CapSense_1_Start, %function
 332              	CapSense_1_Start:
 333              	.LFB2:
 244:.\Generated_Source\PSoC4/CapSense_1.c **** 
 245:.\Generated_Source\PSoC4/CapSense_1.c **** 
 246:.\Generated_Source\PSoC4/CapSense_1.c **** /*******************************************************************************
 247:.\Generated_Source\PSoC4/CapSense_1.c **** * Function Name: CapSense_1_Start
 248:.\Generated_Source\PSoC4/CapSense_1.c **** ********************************************************************************
 249:.\Generated_Source\PSoC4/CapSense_1.c **** *
 250:.\Generated_Source\PSoC4/CapSense_1.c **** * Summary:
 251:.\Generated_Source\PSoC4/CapSense_1.c **** *  Initializes registers and starts the CSD method of CapSense component. Reset 
 252:.\Generated_Source\PSoC4/CapSense_1.c **** *  all sensors to an inactive state. Enables interrupts for sensors scanning.
 253:.\Generated_Source\PSoC4/CapSense_1.c **** *  When Auto Tuning (SmartSense) mode is selected the tuning procedure is 
 254:.\Generated_Source\PSoC4/CapSense_1.c **** *  applied for all sensors.
 255:.\Generated_Source\PSoC4/CapSense_1.c **** *
 256:.\Generated_Source\PSoC4/CapSense_1.c **** * Parameters:
 257:.\Generated_Source\PSoC4/CapSense_1.c **** *  None
 258:.\Generated_Source\PSoC4/CapSense_1.c **** *
 259:.\Generated_Source\PSoC4/CapSense_1.c **** * Return:
 260:.\Generated_Source\PSoC4/CapSense_1.c **** *  None
 261:.\Generated_Source\PSoC4/CapSense_1.c **** *
 262:.\Generated_Source\PSoC4/CapSense_1.c **** * Global Variables:
 263:.\Generated_Source\PSoC4/CapSense_1.c **** *  CapSense_1_initVar - used to check initial configuration, modified on 
 264:.\Generated_Source\PSoC4/CapSense_1.c **** *  first function call.
 265:.\Generated_Source\PSoC4/CapSense_1.c **** *  CapSense_1_lowLevelTuningDone - used to notify the Tuner GUI that 
 266:.\Generated_Source\PSoC4/CapSense_1.c **** *  tuning of scanning parameters are done.
 267:.\Generated_Source\PSoC4/CapSense_1.c **** *
 268:.\Generated_Source\PSoC4/CapSense_1.c **** * Reentrant:
 269:.\Generated_Source\PSoC4/CapSense_1.c **** *  No
 270:.\Generated_Source\PSoC4/CapSense_1.c **** *
 271:.\Generated_Source\PSoC4/CapSense_1.c **** *******************************************************************************/
 272:.\Generated_Source\PSoC4/CapSense_1.c **** void CapSense_1_Start(void)
 273:.\Generated_Source\PSoC4/CapSense_1.c **** {
 334              		.loc 1 273 0
 335              		.cfi_startproc
 336 0000 80B5     		push	{r7, lr}
 337              	.LCFI4:
 338              		.cfi_def_cfa_offset 8
 339              		.cfi_offset 7, -8
 340              		.cfi_offset 14, -4
 341 0002 00AF     		add	r7, sp, #0
 342              	.LCFI5:
 343              		.cfi_def_cfa_register 7
ARM GAS  C:\Users\maxk\AppData\Local\Temp\cc0ClDlQ.s 			page 12


 274:.\Generated_Source\PSoC4/CapSense_1.c ****     if (CapSense_1_initVar == 0u)
 344              		.loc 1 274 0
 345 0004 094B     		ldr	r3, .L12
 346 0006 1B78     		ldrb	r3, [r3]
 347 0008 002B     		cmp	r3, #0
 348 000a 04D1     		bne	.L10
 275:.\Generated_Source\PSoC4/CapSense_1.c ****     {
 276:.\Generated_Source\PSoC4/CapSense_1.c ****         CapSense_1_Init();
 349              		.loc 1 276 0
 350 000c FFF7FEFF 		bl	CapSense_1_Init
 277:.\Generated_Source\PSoC4/CapSense_1.c ****         CapSense_1_initVar = 1u;
 351              		.loc 1 277 0
 352 0010 064B     		ldr	r3, .L12
 353 0012 0122     		mov	r2, #1
 354 0014 1A70     		strb	r2, [r3]
 355              	.L10:
 278:.\Generated_Source\PSoC4/CapSense_1.c ****     }
 279:.\Generated_Source\PSoC4/CapSense_1.c ****     CapSense_1_Enable();
 356              		.loc 1 279 0
 357 0016 FFF7FEFF 		bl	CapSense_1_Enable
 280:.\Generated_Source\PSoC4/CapSense_1.c ****     
 281:.\Generated_Source\PSoC4/CapSense_1.c ****     /* AutoTunning start */
 282:.\Generated_Source\PSoC4/CapSense_1.c ****     #if (CapSense_1_TUNING_METHOD == CapSense_1_AUTO_TUNING)
 283:.\Generated_Source\PSoC4/CapSense_1.c ****         /* AutoTune by sensor basis */
 284:.\Generated_Source\PSoC4/CapSense_1.c ****         CapSense_1_AutoTune();
 285:.\Generated_Source\PSoC4/CapSense_1.c ****         CapSense_1_lowLevelTuningDone = 1u;
 286:.\Generated_Source\PSoC4/CapSense_1.c **** 	#else
 287:.\Generated_Source\PSoC4/CapSense_1.c ****         #if(CapSense_1_PRS_OPTIONS == CapSense_1__PRS_AUTO)
 288:.\Generated_Source\PSoC4/CapSense_1.c ****             CapSense_1_Calc_PRS_Resolution();
 289:.\Generated_Source\PSoC4/CapSense_1.c ****         #endif /* (CapSense_1_PRS_OPTIONS == CapSense_1__PRS_AUTO) */     
 290:.\Generated_Source\PSoC4/CapSense_1.c ****     #endif /* (CapSense_1_TUNING_METHOD == CapSense_1_AUTO_TUNING) */	
 291:.\Generated_Source\PSoC4/CapSense_1.c **** 	
 292:.\Generated_Source\PSoC4/CapSense_1.c **** 	CapSense_1_CSD_CFG_REG |= CapSense_1_CSD_SENSE_AMUXA;
 358              		.loc 1 292 0
 359 001a 054A     		ldr	r2, .L12+4
 360 001c 044B     		ldr	r3, .L12+4
 361 001e 1968     		ldr	r1, [r3]
 362 0020 8023     		mov	r3, #128
 363 0022 DB03     		lsl	r3, r3, #15
 364 0024 0B43     		orr	r3, r3, r1
 365 0026 1360     		str	r3, [r2]
 293:.\Generated_Source\PSoC4/CapSense_1.c **** }
 366              		.loc 1 293 0
 367 0028 BD46     		mov	sp, r7
 368              		@ sp needed for prologue
 369 002a 80BD     		pop	{r7, pc}
 370              	.L13:
 371              		.align	2
 372              	.L12:
 373 002c 00000000 		.word	CapSense_1_initVar
 374 0030 04000840 		.word	1074266116
 375              		.cfi_endproc
 376              	.LFE2:
 377              		.size	CapSense_1_Start, .-CapSense_1_Start
 378              		.section	.text.CapSense_1_Stop,"ax",%progbits
 379              		.align	2
 380              		.global	CapSense_1_Stop
ARM GAS  C:\Users\maxk\AppData\Local\Temp\cc0ClDlQ.s 			page 13


 381              		.code	16
 382              		.thumb_func
 383              		.type	CapSense_1_Stop, %function
 384              	CapSense_1_Stop:
 385              	.LFB3:
 294:.\Generated_Source\PSoC4/CapSense_1.c **** 
 295:.\Generated_Source\PSoC4/CapSense_1.c **** 
 296:.\Generated_Source\PSoC4/CapSense_1.c **** /*******************************************************************************
 297:.\Generated_Source\PSoC4/CapSense_1.c **** * Function Name: CapSense_1_Stop
 298:.\Generated_Source\PSoC4/CapSense_1.c **** ********************************************************************************
 299:.\Generated_Source\PSoC4/CapSense_1.c **** *
 300:.\Generated_Source\PSoC4/CapSense_1.c **** * Summary:
 301:.\Generated_Source\PSoC4/CapSense_1.c **** *  Stops the sensors scanner, disables internal interrupts, and resets all 
 302:.\Generated_Source\PSoC4/CapSense_1.c **** *  sensors to an inactive state. Disables Active mode power template bits for 
 303:.\Generated_Source\PSoC4/CapSense_1.c **** *  number of component used within CapSense.
 304:.\Generated_Source\PSoC4/CapSense_1.c **** *
 305:.\Generated_Source\PSoC4/CapSense_1.c **** * Parameters:
 306:.\Generated_Source\PSoC4/CapSense_1.c **** *  None
 307:.\Generated_Source\PSoC4/CapSense_1.c **** *
 308:.\Generated_Source\PSoC4/CapSense_1.c **** * Return:
 309:.\Generated_Source\PSoC4/CapSense_1.c **** *  None
 310:.\Generated_Source\PSoC4/CapSense_1.c **** *
 311:.\Generated_Source\PSoC4/CapSense_1.c **** * Side Effects:
 312:.\Generated_Source\PSoC4/CapSense_1.c **** *  This function should be called after scans will be completed.
 313:.\Generated_Source\PSoC4/CapSense_1.c **** *
 314:.\Generated_Source\PSoC4/CapSense_1.c **** *******************************************************************************/
 315:.\Generated_Source\PSoC4/CapSense_1.c **** void CapSense_1_Stop(void)
 316:.\Generated_Source\PSoC4/CapSense_1.c **** {
 386              		.loc 1 316 0
 387              		.cfi_startproc
 388 0000 80B5     		push	{r7, lr}
 389              	.LCFI6:
 390              		.cfi_def_cfa_offset 8
 391              		.cfi_offset 7, -8
 392              		.cfi_offset 14, -4
 393 0002 00AF     		add	r7, sp, #0
 394              	.LCFI7:
 395              		.cfi_def_cfa_register 7
 317:.\Generated_Source\PSoC4/CapSense_1.c ****     /* Disable interrupt */
 318:.\Generated_Source\PSoC4/CapSense_1.c ****     CyIntDisable(CapSense_1_ISR_NUMBER);
 396              		.loc 1 318 0
 397 0004 0F20     		mov	r0, #15
 398 0006 FFF7FEFF 		bl	CyIntDisable
 319:.\Generated_Source\PSoC4/CapSense_1.c **** 
 320:.\Generated_Source\PSoC4/CapSense_1.c ****     /* Clear all sensors */
 321:.\Generated_Source\PSoC4/CapSense_1.c ****     CapSense_1_ClearSensors();
 399              		.loc 1 321 0
 400 000a FFF7FEFF 		bl	CapSense_1_ClearSensors
 322:.\Generated_Source\PSoC4/CapSense_1.c **** 
 323:.\Generated_Source\PSoC4/CapSense_1.c ****     /* Disable the Clocks */
 324:.\Generated_Source\PSoC4/CapSense_1.c ****     CapSense_1_CSD_Clk1_Stop();
 401              		.loc 1 324 0
 402 000e FFF7FEFF 		bl	CapSense_1_CSD_Clk1_Stop
 325:.\Generated_Source\PSoC4/CapSense_1.c ****     CapSense_1_CSD_Clk2_Stop();
 403              		.loc 1 325 0
 404 0012 FFF7FEFF 		bl	CapSense_1_CSD_Clk2_Stop
 326:.\Generated_Source\PSoC4/CapSense_1.c **** }
ARM GAS  C:\Users\maxk\AppData\Local\Temp\cc0ClDlQ.s 			page 14


 405              		.loc 1 326 0
 406 0016 BD46     		mov	sp, r7
 407              		@ sp needed for prologue
 408 0018 80BD     		pop	{r7, pc}
 409              		.cfi_endproc
 410              	.LFE3:
 411              		.size	CapSense_1_Stop, .-CapSense_1_Stop
 412 001a C046     		.section	.text.CapSense_1_FindNextSensor,"ax",%progbits
 413              		.align	2
 414              		.global	CapSense_1_FindNextSensor
 415              		.code	16
 416              		.thumb_func
 417              		.type	CapSense_1_FindNextSensor, %function
 418              	CapSense_1_FindNextSensor:
 419              	.LFB4:
 327:.\Generated_Source\PSoC4/CapSense_1.c **** 
 328:.\Generated_Source\PSoC4/CapSense_1.c **** 
 329:.\Generated_Source\PSoC4/CapSense_1.c **** /*******************************************************************************
 330:.\Generated_Source\PSoC4/CapSense_1.c **** * Function Name: CapSense_1_FindNextSensor
 331:.\Generated_Source\PSoC4/CapSense_1.c **** ********************************************************************************
 332:.\Generated_Source\PSoC4/CapSense_1.c **** *
 333:.\Generated_Source\PSoC4/CapSense_1.c **** * Summary:
 334:.\Generated_Source\PSoC4/CapSense_1.c **** *  Finds next sensor to scan. 
 335:.\Generated_Source\PSoC4/CapSense_1.c **** *
 336:.\Generated_Source\PSoC4/CapSense_1.c **** * Parameters:
 337:.\Generated_Source\PSoC4/CapSense_1.c **** *  snsIndex:  Current index of sensor.
 338:.\Generated_Source\PSoC4/CapSense_1.c **** *
 339:.\Generated_Source\PSoC4/CapSense_1.c **** * Return:
 340:.\Generated_Source\PSoC4/CapSense_1.c **** *  Returns the next sensor index to scan.
 341:.\Generated_Source\PSoC4/CapSense_1.c **** *
 342:.\Generated_Source\PSoC4/CapSense_1.c **** * Global Variables:
 343:.\Generated_Source\PSoC4/CapSense_1.c **** *  CapSense_1_SensorEnableMask[ ] - used to store bit masks of enabled 
 344:.\Generated_Source\PSoC4/CapSense_1.c **** *  sensors.
 345:.\Generated_Source\PSoC4/CapSense_1.c **** *  CapSense_1_SensorEnableMask[0] contains the masked bits for sensors 0
 346:.\Generated_Source\PSoC4/CapSense_1.c **** *  through 7 (sensor 0 is bit 0, sensor 1 is bit 1).
 347:.\Generated_Source\PSoC4/CapSense_1.c **** *  CapSense_1_SensorEnableMask[1] contains the masked bits for sensors 
 348:.\Generated_Source\PSoC4/CapSense_1.c **** *  8 through 15 (if needed), and so on.
 349:.\Generated_Source\PSoC4/CapSense_1.c **** *    0 - sensor doesn't scan by CapSense_1_ScanEnabledWidgets().
 350:.\Generated_Source\PSoC4/CapSense_1.c **** *    1 - sensor scans by CapSense_1_ScanEnabledWidgets().
 351:.\Generated_Source\PSoC4/CapSense_1.c **** *
 352:.\Generated_Source\PSoC4/CapSense_1.c **** * Note: 
 353:.\Generated_Source\PSoC4/CapSense_1.c **** *  This function has effect on current scanning scanning and should not
 354:.\Generated_Source\PSoC4/CapSense_1.c **** *  be used outisde of component.
 355:.\Generated_Source\PSoC4/CapSense_1.c **** *
 356:.\Generated_Source\PSoC4/CapSense_1.c **** *******************************************************************************/
 357:.\Generated_Source\PSoC4/CapSense_1.c **** uint8 CapSense_1_FindNextSensor(uint8 snsIndex)
 358:.\Generated_Source\PSoC4/CapSense_1.c **** {
 420              		.loc 1 358 0
 421              		.cfi_startproc
 422 0000 80B5     		push	{r7, lr}
 423              	.LCFI8:
 424              		.cfi_def_cfa_offset 8
 425              		.cfi_offset 7, -8
 426              		.cfi_offset 14, -4
 427 0002 84B0     		sub	sp, sp, #16
 428              	.LCFI9:
 429              		.cfi_def_cfa_offset 24
ARM GAS  C:\Users\maxk\AppData\Local\Temp\cc0ClDlQ.s 			page 15


 430 0004 00AF     		add	r7, sp, #0
 431              	.LCFI10:
 432              		.cfi_def_cfa_register 7
 433 0006 021C     		mov	r2, r0
 434 0008 FB1D     		add	r3, r7, #7
 435 000a 1A70     		strb	r2, [r3]
 436              	.L19:
 359:.\Generated_Source\PSoC4/CapSense_1.c ****     uint8 pos;
 360:.\Generated_Source\PSoC4/CapSense_1.c ****     uint8 enMask;
 361:.\Generated_Source\PSoC4/CapSense_1.c ****     
 362:.\Generated_Source\PSoC4/CapSense_1.c ****     /* Check if sensor enabled */
 363:.\Generated_Source\PSoC4/CapSense_1.c ****     do
 364:.\Generated_Source\PSoC4/CapSense_1.c ****     {
 365:.\Generated_Source\PSoC4/CapSense_1.c ****         /* Proceed with the next sensor */
 366:.\Generated_Source\PSoC4/CapSense_1.c ****         snsIndex++;
 437              		.loc 1 366 0
 438 000c FB1D     		add	r3, r7, #7
 439 000e FA1D     		add	r2, r7, #7
 440 0010 1278     		ldrb	r2, [r2]
 441 0012 0132     		add	r2, r2, #1
 442 0014 1A70     		strb	r2, [r3]
 367:.\Generated_Source\PSoC4/CapSense_1.c ****         if(snsIndex == CapSense_1_TOTAL_SENSOR_COUNT)
 443              		.loc 1 367 0
 444 0016 FB1D     		add	r3, r7, #7
 445 0018 1B78     		ldrb	r3, [r3]
 446 001a 052B     		cmp	r3, #5
 447 001c 1BD0     		beq	.L21
 448              	.L17:
 368:.\Generated_Source\PSoC4/CapSense_1.c ****         {
 369:.\Generated_Source\PSoC4/CapSense_1.c ****             break;
 370:.\Generated_Source\PSoC4/CapSense_1.c ****         }
 371:.\Generated_Source\PSoC4/CapSense_1.c ****         pos = (snsIndex >> 3u);
 449              		.loc 1 371 0
 450 001e 3B1C     		mov	r3, r7
 451 0020 0E33     		add	r3, r3, #14
 452 0022 FA1D     		add	r2, r7, #7
 453 0024 1278     		ldrb	r2, [r2]
 454 0026 D208     		lsr	r2, r2, #3
 455 0028 1A70     		strb	r2, [r3]
 372:.\Generated_Source\PSoC4/CapSense_1.c ****         enMask = 0x01u << (snsIndex & 0x07u);
 456              		.loc 1 372 0
 457 002a FB1D     		add	r3, r7, #7
 458 002c 1A78     		ldrb	r2, [r3]
 459 002e 0723     		mov	r3, #7
 460 0030 1340     		and	r3, r3, r2
 461 0032 0122     		mov	r2, #1
 462 0034 9A40     		lsl	r2, r2, r3
 463 0036 3B1C     		mov	r3, r7
 464 0038 0F33     		add	r3, r3, #15
 465 003a 1A70     		strb	r2, [r3]
 373:.\Generated_Source\PSoC4/CapSense_1.c ****     }    
 374:.\Generated_Source\PSoC4/CapSense_1.c ****     while((CapSense_1_SensorEnableMask[pos] & enMask) == 0u);
 466              		.loc 1 374 0
 467 003c 3B1C     		mov	r3, r7
 468 003e 0E33     		add	r3, r3, #14
 469 0040 1B78     		ldrb	r3, [r3]
 470 0042 084A     		ldr	r2, .L22
ARM GAS  C:\Users\maxk\AppData\Local\Temp\cc0ClDlQ.s 			page 16


 471 0044 D25C     		ldrb	r2, [r2, r3]
 472 0046 3B1C     		mov	r3, r7
 473 0048 0F33     		add	r3, r3, #15
 474 004a 1B78     		ldrb	r3, [r3]
 475 004c 1340     		and	r3, r3, r2
 476 004e DBB2     		uxtb	r3, r3
 477 0050 002B     		cmp	r3, #0
 478 0052 DBD0     		beq	.L19
 479 0054 00E0     		b	.L18
 480              	.L21:
 481              		.loc 1 369 0
 482 0056 C046     		mov	r8, r8
 483              	.L18:
 375:.\Generated_Source\PSoC4/CapSense_1.c ****     
 376:.\Generated_Source\PSoC4/CapSense_1.c ****     return snsIndex;
 484              		.loc 1 376 0
 485 0058 FB1D     		add	r3, r7, #7
 486 005a 1B78     		ldrb	r3, [r3]
 377:.\Generated_Source\PSoC4/CapSense_1.c **** }
 487              		.loc 1 377 0
 488 005c 181C     		mov	r0, r3
 489 005e BD46     		mov	sp, r7
 490 0060 04B0     		add	sp, sp, #16
 491              		@ sp needed for prologue
 492 0062 80BD     		pop	{r7, pc}
 493              	.L23:
 494              		.align	2
 495              	.L22:
 496 0064 00000000 		.word	CapSense_1_SensorEnableMask
 497              		.cfi_endproc
 498              	.LFE4:
 499              		.size	CapSense_1_FindNextSensor, .-CapSense_1_FindNextSensor
 500              		.section	.text.CapSense_1_SetScanSlotSettings,"ax",%progbits
 501              		.align	2
 502              		.global	CapSense_1_SetScanSlotSettings
 503              		.code	16
 504              		.thumb_func
 505              		.type	CapSense_1_SetScanSlotSettings, %function
 506              	CapSense_1_SetScanSlotSettings:
 507              	.LFB5:
 378:.\Generated_Source\PSoC4/CapSense_1.c **** 
 379:.\Generated_Source\PSoC4/CapSense_1.c **** 
 380:.\Generated_Source\PSoC4/CapSense_1.c **** /*******************************************************************************
 381:.\Generated_Source\PSoC4/CapSense_1.c **** * Function Name: CapSense_1_SetScanSlotSettings
 382:.\Generated_Source\PSoC4/CapSense_1.c **** ********************************************************************************
 383:.\Generated_Source\PSoC4/CapSense_1.c **** *
 384:.\Generated_Source\PSoC4/CapSense_1.c **** * Summary:
 385:.\Generated_Source\PSoC4/CapSense_1.c **** *  Sets the scan settings of the selected scan slot (sensor or pair of sensors). 
 386:.\Generated_Source\PSoC4/CapSense_1.c **** *  The scan settings incorporate IDAC value (for IDAC configurations) for every 
 387:.\Generated_Source\PSoC4/CapSense_1.c **** *  sensor and resolution. The resolution is the same for all sensors within 
 388:.\Generated_Source\PSoC4/CapSense_1.c **** *  widget.
 389:.\Generated_Source\PSoC4/CapSense_1.c **** *
 390:.\Generated_Source\PSoC4/CapSense_1.c **** * Parameters:
 391:.\Generated_Source\PSoC4/CapSense_1.c **** *  slot:  Scan slot number (sensor or pair of sensors).
 392:.\Generated_Source\PSoC4/CapSense_1.c **** *
 393:.\Generated_Source\PSoC4/CapSense_1.c **** * Return:
 394:.\Generated_Source\PSoC4/CapSense_1.c **** *  None
ARM GAS  C:\Users\maxk\AppData\Local\Temp\cc0ClDlQ.s 			page 17


 395:.\Generated_Source\PSoC4/CapSense_1.c **** *
 396:.\Generated_Source\PSoC4/CapSense_1.c **** * Global Variables:
 397:.\Generated_Source\PSoC4/CapSense_1.c **** *  CapSense_1_idacSettings[] - used to store idac value for every sensor.
 398:.\Generated_Source\PSoC4/CapSense_1.c **** *  CapSense_1_widgetResolution[] - used to store scan resolution of every 
 399:.\Generated_Source\PSoC4/CapSense_1.c **** *  widget.
 400:.\Generated_Source\PSoC4/CapSense_1.c **** *
 401:.\Generated_Source\PSoC4/CapSense_1.c **** *******************************************************************************/
 402:.\Generated_Source\PSoC4/CapSense_1.c **** void CapSense_1_SetScanSlotSettings(uint8 slot)
 403:.\Generated_Source\PSoC4/CapSense_1.c **** {
 508              		.loc 1 403 0
 509              		.cfi_startproc
 510 0000 80B5     		push	{r7, lr}
 511              	.LCFI11:
 512              		.cfi_def_cfa_offset 8
 513              		.cfi_offset 7, -8
 514              		.cfi_offset 14, -4
 515 0002 84B0     		sub	sp, sp, #16
 516              	.LCFI12:
 517              		.cfi_def_cfa_offset 24
 518 0004 00AF     		add	r7, sp, #0
 519              	.LCFI13:
 520              		.cfi_def_cfa_register 7
 521 0006 021C     		mov	r2, r0
 522 0008 FB1D     		add	r3, r7, #7
 523 000a 1A70     		strb	r2, [r3]
 404:.\Generated_Source\PSoC4/CapSense_1.c ****     uint32 newRegisterValue;
 405:.\Generated_Source\PSoC4/CapSense_1.c **** 
 406:.\Generated_Source\PSoC4/CapSense_1.c **** 	
 407:.\Generated_Source\PSoC4/CapSense_1.c **** 	/* Set Idac Value */
 408:.\Generated_Source\PSoC4/CapSense_1.c ****     newRegisterValue = CapSense_1_CSD_IDAC_REG;
 524              		.loc 1 408 0
 525 000c 114B     		ldr	r3, .L26
 526 000e 1B68     		ldr	r3, [r3]
 527 0010 FB60     		str	r3, [r7, #12]
 409:.\Generated_Source\PSoC4/CapSense_1.c ****     
 410:.\Generated_Source\PSoC4/CapSense_1.c **** 	newRegisterValue &= ~(CapSense_1_CSD_IDAC1_DATA_MASK);
 528              		.loc 1 410 0
 529 0012 FB68     		ldr	r3, [r7, #12]
 530 0014 FF22     		mov	r2, #255
 531 0016 9343     		bic	r3, r3, r2
 532 0018 FB60     		str	r3, [r7, #12]
 411:.\Generated_Source\PSoC4/CapSense_1.c ****     newRegisterValue |= CapSense_1_idac1Settings[slot];
 533              		.loc 1 411 0
 534 001a FB1D     		add	r3, r7, #7
 535 001c 1B78     		ldrb	r3, [r3]
 536 001e 0E4A     		ldr	r2, .L26+4
 537 0020 D35C     		ldrb	r3, [r2, r3]
 538 0022 FA68     		ldr	r2, [r7, #12]
 539 0024 1343     		orr	r3, r3, r2
 540 0026 FB60     		str	r3, [r7, #12]
 412:.\Generated_Source\PSoC4/CapSense_1.c ****     
 413:.\Generated_Source\PSoC4/CapSense_1.c ****     #if (CapSense_1_IDAC_CNT == 2u)
 414:.\Generated_Source\PSoC4/CapSense_1.c ****         newRegisterValue &= ~(CapSense_1_CSD_IDAC2_DATA_MASK);
 415:.\Generated_Source\PSoC4/CapSense_1.c ****         newRegisterValue |= (CapSense_1_idac2Settings[slot] 
 416:.\Generated_Source\PSoC4/CapSense_1.c ****                                            << CapSense_1_CSD_IDAC2_DATA_OFFSET);                   
 417:.\Generated_Source\PSoC4/CapSense_1.c ****     #endif /* (CapSense_1_IDAC_CNT == 2u) */
 418:.\Generated_Source\PSoC4/CapSense_1.c **** 	
ARM GAS  C:\Users\maxk\AppData\Local\Temp\cc0ClDlQ.s 			page 18


 419:.\Generated_Source\PSoC4/CapSense_1.c **** 	CapSense_1_CSD_IDAC_REG = newRegisterValue;
 541              		.loc 1 419 0
 542 0028 0A4B     		ldr	r3, .L26
 543 002a FA68     		ldr	r2, [r7, #12]
 544 002c 1A60     		str	r2, [r3]
 420:.\Generated_Source\PSoC4/CapSense_1.c **** 
 421:.\Generated_Source\PSoC4/CapSense_1.c ****     #if ( (CapSense_1_MULTIPLE_FREQUENCY_SET) || \
 422:.\Generated_Source\PSoC4/CapSense_1.c ****           (CapSense_1_TUNING_METHOD == CapSense_1_AUTO_TUNING) )
 423:.\Generated_Source\PSoC4/CapSense_1.c **** 		CapSense_1_CSD_Clk1_SetDividerValue(CapSense_1_Clk1DividerVal[slot]);
 424:.\Generated_Source\PSoC4/CapSense_1.c **** 		CapSense_1_CSD_Clk2_SetDividerValue(CapSense_1_Clk2DividerVal[slot]);
 425:.\Generated_Source\PSoC4/CapSense_1.c ****     #else
 426:.\Generated_Source\PSoC4/CapSense_1.c **** 		CapSense_1_CSD_Clk1_SetDividerValue(CapSense_1_Clk1DividerVal);
 545              		.loc 1 426 0
 546 002e 0B4B     		ldr	r3, .L26+8
 547 0030 1B78     		ldrb	r3, [r3]
 548 0032 013B     		sub	r3, r3, #1
 549 0034 9BB2     		uxth	r3, r3
 550 0036 181C     		mov	r0, r3
 551 0038 0021     		mov	r1, #0
 552 003a FFF7FEFF 		bl	CapSense_1_CSD_Clk1_SetFractionalDividerRegister
 427:.\Generated_Source\PSoC4/CapSense_1.c **** 		CapSense_1_CSD_Clk2_SetDividerValue(CapSense_1_Clk2DividerVal);
 553              		.loc 1 427 0
 554 003e 084B     		ldr	r3, .L26+12
 555 0040 1B78     		ldrb	r3, [r3]
 556 0042 013B     		sub	r3, r3, #1
 557 0044 9BB2     		uxth	r3, r3
 558 0046 181C     		mov	r0, r3
 559 0048 0021     		mov	r1, #0
 560 004a FFF7FEFF 		bl	CapSense_1_CSD_Clk2_SetFractionalDividerRegister
 428:.\Generated_Source\PSoC4/CapSense_1.c ****     #endif /* ( (CapSense_1_MULTIPLE_FREQUENCY_SET) || \
 429:.\Generated_Source\PSoC4/CapSense_1.c ****                 (CapSense_1_TUNING_METHOD == CapSense_1_AUTO_TUNING) )
 430:.\Generated_Source\PSoC4/CapSense_1.c ****            */
 431:.\Generated_Source\PSoC4/CapSense_1.c **** 		   
 432:.\Generated_Source\PSoC4/CapSense_1.c **** 	#if(CapSense_1_PRS_OPTIONS != CapSense_1__PRS_NONE)
 433:.\Generated_Source\PSoC4/CapSense_1.c **** 	
 434:.\Generated_Source\PSoC4/CapSense_1.c **** 		#if(CapSense_1_TUNING_METHOD == CapSense_1_AUTO_TUNING)
 435:.\Generated_Source\PSoC4/CapSense_1.c **** 			if(CapSense_1_PrescalersTuningDone != 0u)
 436:.\Generated_Source\PSoC4/CapSense_1.c **** 			{
 437:.\Generated_Source\PSoC4/CapSense_1.c **** 		#endif /* (CapSense_1_TUNING_METHOD == CapSense_1_AUTO_TUNING) */
 438:.\Generated_Source\PSoC4/CapSense_1.c **** 				
 439:.\Generated_Source\PSoC4/CapSense_1.c **** 				newRegisterValue = CapSense_1_CSD_CFG_REG;
 440:.\Generated_Source\PSoC4/CapSense_1.c **** 				newRegisterValue |= CapSense_1_CSD_PRS_SELECT_PRS;
 441:.\Generated_Source\PSoC4/CapSense_1.c **** 				
 442:.\Generated_Source\PSoC4/CapSense_1.c **** 				#if(CapSense_1_PRS_OPTIONS == CapSense_1__PRS_AUTO)
 443:.\Generated_Source\PSoC4/CapSense_1.c **** 
 444:.\Generated_Source\PSoC4/CapSense_1.c **** 					newRegisterValue &= ~(CapSense_1_CSD_PRS_12_BIT);
 445:.\Generated_Source\PSoC4/CapSense_1.c **** 					newRegisterValue |= CapSense_1_PRSResolutionTbl[slot];	
 446:.\Generated_Source\PSoC4/CapSense_1.c **** 				#endif /* (CapSense_1_PRS_OPTIONS == CapSense_1__PRS_AUTO) */
 447:.\Generated_Source\PSoC4/CapSense_1.c **** 				
 448:.\Generated_Source\PSoC4/CapSense_1.c **** 				CapSense_1_CSD_CFG_REG = newRegisterValue;
 449:.\Generated_Source\PSoC4/CapSense_1.c **** 				
 450:.\Generated_Source\PSoC4/CapSense_1.c **** 		#if(CapSense_1_TUNING_METHOD == CapSense_1_AUTO_TUNING)	
 451:.\Generated_Source\PSoC4/CapSense_1.c **** 			}
 452:.\Generated_Source\PSoC4/CapSense_1.c **** 		#endif /* (CapSense_1_PRS_OPTIONS != CapSense_1__PRS_NONE) */
 453:.\Generated_Source\PSoC4/CapSense_1.c **** 
 454:.\Generated_Source\PSoC4/CapSense_1.c **** 	#endif /* (CapSense_1_PRS_OPTIONS == CapSense_1__PRS_NONE) */
 455:.\Generated_Source\PSoC4/CapSense_1.c **** 	
ARM GAS  C:\Users\maxk\AppData\Local\Temp\cc0ClDlQ.s 			page 19


 456:.\Generated_Source\PSoC4/CapSense_1.c **** }
 561              		.loc 1 456 0
 562 004e BD46     		mov	sp, r7
 563 0050 04B0     		add	sp, sp, #16
 564              		@ sp needed for prologue
 565 0052 80BD     		pop	{r7, pc}
 566              	.L27:
 567              		.align	2
 568              	.L26:
 569 0054 08000840 		.word	1074266120
 570 0058 00000000 		.word	CapSense_1_idac1Settings
 571 005c 00000000 		.word	CapSense_1_Clk1DividerVal
 572 0060 00000000 		.word	CapSense_1_Clk2DividerVal
 573              		.cfi_endproc
 574              	.LFE5:
 575              		.size	CapSense_1_SetScanSlotSettings, .-CapSense_1_SetScanSlotSettings
 576              		.section	.text.CapSense_1_ScanSensor,"ax",%progbits
 577              		.align	2
 578              		.global	CapSense_1_ScanSensor
 579              		.code	16
 580              		.thumb_func
 581              		.type	CapSense_1_ScanSensor, %function
 582              	CapSense_1_ScanSensor:
 583              	.LFB6:
 457:.\Generated_Source\PSoC4/CapSense_1.c **** 
 458:.\Generated_Source\PSoC4/CapSense_1.c **** 
 459:.\Generated_Source\PSoC4/CapSense_1.c **** /*******************************************************************************
 460:.\Generated_Source\PSoC4/CapSense_1.c **** * Function Name: CapSense_1_ScanSensor
 461:.\Generated_Source\PSoC4/CapSense_1.c **** ********************************************************************************
 462:.\Generated_Source\PSoC4/CapSense_1.c **** *
 463:.\Generated_Source\PSoC4/CapSense_1.c **** * Summary:
 464:.\Generated_Source\PSoC4/CapSense_1.c **** *  Sets scan settings and starts scanning a sensor or pair of combined sensors
 465:.\Generated_Source\PSoC4/CapSense_1.c **** *  on each channel. If two channels are configured, two sensors may be scanned 
 466:.\Generated_Source\PSoC4/CapSense_1.c **** *  at the same time. After scanning is complete the isr copies the measured 
 467:.\Generated_Source\PSoC4/CapSense_1.c **** *  sensor raw data to the global array. Use of the isr ensures this function 
 468:.\Generated_Source\PSoC4/CapSense_1.c **** *  is non-blocking. Each sensor has a unique number within the sensor array. 
 469:.\Generated_Source\PSoC4/CapSense_1.c **** *  This number is assigned by the CapSense customizer in sequence.
 470:.\Generated_Source\PSoC4/CapSense_1.c **** *
 471:.\Generated_Source\PSoC4/CapSense_1.c **** * Parameters:
 472:.\Generated_Source\PSoC4/CapSense_1.c **** *  sensor:  Sensor number.
 473:.\Generated_Source\PSoC4/CapSense_1.c **** *
 474:.\Generated_Source\PSoC4/CapSense_1.c **** * Return:
 475:.\Generated_Source\PSoC4/CapSense_1.c **** *  None
 476:.\Generated_Source\PSoC4/CapSense_1.c **** *
 477:.\Generated_Source\PSoC4/CapSense_1.c **** * Global Variables:
 478:.\Generated_Source\PSoC4/CapSense_1.c **** *  CapSense_1_csv - used to provide status and mode of scanning process. 
 479:.\Generated_Source\PSoC4/CapSense_1.c **** *  Sets busy status(scan in progress) and mode of scan as single scan.
 480:.\Generated_Source\PSoC4/CapSense_1.c **** *  For two channel design the additional bits are set to define if scan a 
 481:.\Generated_Source\PSoC4/CapSense_1.c **** *  pair of sensors or single one.
 482:.\Generated_Source\PSoC4/CapSense_1.c **** *  CapSense_1_sensorIndex - used to store sensor scanning sensor number.
 483:.\Generated_Source\PSoC4/CapSense_1.c **** *  Sets to provided sensor argument.
 484:.\Generated_Source\PSoC4/CapSense_1.c **** *
 485:.\Generated_Source\PSoC4/CapSense_1.c **** * Reentrant:
 486:.\Generated_Source\PSoC4/CapSense_1.c **** *  No
 487:.\Generated_Source\PSoC4/CapSense_1.c **** *
 488:.\Generated_Source\PSoC4/CapSense_1.c **** *******************************************************************************/
 489:.\Generated_Source\PSoC4/CapSense_1.c **** void CapSense_1_ScanSensor(uint8 sensor)
ARM GAS  C:\Users\maxk\AppData\Local\Temp\cc0ClDlQ.s 			page 20


 490:.\Generated_Source\PSoC4/CapSense_1.c **** {
 584              		.loc 1 490 0
 585              		.cfi_startproc
 586 0000 80B5     		push	{r7, lr}
 587              	.LCFI14:
 588              		.cfi_def_cfa_offset 8
 589              		.cfi_offset 7, -8
 590              		.cfi_offset 14, -4
 591 0002 82B0     		sub	sp, sp, #8
 592              	.LCFI15:
 593              		.cfi_def_cfa_offset 16
 594 0004 00AF     		add	r7, sp, #0
 595              	.LCFI16:
 596              		.cfi_def_cfa_register 7
 597 0006 021C     		mov	r2, r0
 598 0008 FB1D     		add	r3, r7, #7
 599 000a 1A70     		strb	r2, [r3]
 491:.\Generated_Source\PSoC4/CapSense_1.c ****     /* Clears status/control variable and set sensorIndex */
 492:.\Generated_Source\PSoC4/CapSense_1.c ****     CapSense_1_csv = 0u;
 600              		.loc 1 492 0
 601 000c 094B     		ldr	r3, .L30
 602 000e 0022     		mov	r2, #0
 603 0010 1A70     		strb	r2, [r3]
 493:.\Generated_Source\PSoC4/CapSense_1.c ****     CapSense_1_sensorIndex = sensor;
 604              		.loc 1 493 0
 605 0012 094B     		ldr	r3, .L30+4
 606 0014 FA1D     		add	r2, r7, #7
 607 0016 1278     		ldrb	r2, [r2]
 608 0018 1A70     		strb	r2, [r3]
 494:.\Generated_Source\PSoC4/CapSense_1.c ****     
 495:.\Generated_Source\PSoC4/CapSense_1.c ****     /* Start of sensor scan */
 496:.\Generated_Source\PSoC4/CapSense_1.c ****     CapSense_1_csv = (CapSense_1_SW_STS_BUSY | CapSense_1_SW_CTRL_SINGLE_SCAN);
 609              		.loc 1 496 0
 610 001a 064A     		ldr	r2, .L30
 611 001c 7F23     		mov	r3, #127
 612 001e 5B42     		neg	r3, r3
 613 0020 1370     		strb	r3, [r2]
 497:.\Generated_Source\PSoC4/CapSense_1.c ****     CapSense_1_PreScan(sensor);
 614              		.loc 1 497 0
 615 0022 FB1D     		add	r3, r7, #7
 616 0024 1B78     		ldrb	r3, [r3]
 617 0026 181C     		mov	r0, r3
 618 0028 FFF7FEFF 		bl	CapSense_1_PreScan
 498:.\Generated_Source\PSoC4/CapSense_1.c **** }
 619              		.loc 1 498 0
 620 002c BD46     		mov	sp, r7
 621 002e 02B0     		add	sp, sp, #8
 622              		@ sp needed for prologue
 623 0030 80BD     		pop	{r7, pc}
 624              	.L31:
 625 0032 C046     		.align	2
 626              	.L30:
 627 0034 00000000 		.word	CapSense_1_csv
 628 0038 00000000 		.word	CapSense_1_sensorIndex
 629              		.cfi_endproc
 630              	.LFE6:
 631              		.size	CapSense_1_ScanSensor, .-CapSense_1_ScanSensor
ARM GAS  C:\Users\maxk\AppData\Local\Temp\cc0ClDlQ.s 			page 21


 632              		.section	.text.CapSense_1_ScanEnabledWidgets,"ax",%progbits
 633              		.align	2
 634              		.global	CapSense_1_ScanEnabledWidgets
 635              		.code	16
 636              		.thumb_func
 637              		.type	CapSense_1_ScanEnabledWidgets, %function
 638              	CapSense_1_ScanEnabledWidgets:
 639              	.LFB7:
 499:.\Generated_Source\PSoC4/CapSense_1.c **** 
 500:.\Generated_Source\PSoC4/CapSense_1.c **** 
 501:.\Generated_Source\PSoC4/CapSense_1.c **** /*******************************************************************************
 502:.\Generated_Source\PSoC4/CapSense_1.c **** * Function Name: CapSense_1_ScanEnableWidgets
 503:.\Generated_Source\PSoC4/CapSense_1.c **** ********************************************************************************
 504:.\Generated_Source\PSoC4/CapSense_1.c **** *
 505:.\Generated_Source\PSoC4/CapSense_1.c **** * Summary:
 506:.\Generated_Source\PSoC4/CapSense_1.c **** *  Scans all of the enabled widgets. Starts scanning a sensor or pair of sensors 
 507:.\Generated_Source\PSoC4/CapSense_1.c **** *  within enabled widget. The isr proceeding scanning next sensor or pair till 
 508:.\Generated_Source\PSoC4/CapSense_1.c **** *  all enabled widgets will be scanned. Use of the isr ensures this function is 
 509:.\Generated_Source\PSoC4/CapSense_1.c **** *  non-blocking. All widgets are enabled by default except proximity widgets. 
 510:.\Generated_Source\PSoC4/CapSense_1.c **** *  Proximity widgets must be manually enabled as their long scan time is 
 511:.\Generated_Source\PSoC4/CapSense_1.c **** *  incompatible with fast response desired of other widget types.
 512:.\Generated_Source\PSoC4/CapSense_1.c **** *
 513:.\Generated_Source\PSoC4/CapSense_1.c **** * Parameters:
 514:.\Generated_Source\PSoC4/CapSense_1.c **** *  None
 515:.\Generated_Source\PSoC4/CapSense_1.c **** *
 516:.\Generated_Source\PSoC4/CapSense_1.c **** * Return:
 517:.\Generated_Source\PSoC4/CapSense_1.c **** *  None
 518:.\Generated_Source\PSoC4/CapSense_1.c **** *
 519:.\Generated_Source\PSoC4/CapSense_1.c **** * Global Variables:
 520:.\Generated_Source\PSoC4/CapSense_1.c **** *  CapSense_1_csv - used to provide status and mode of scanning process. 
 521:.\Generated_Source\PSoC4/CapSense_1.c **** *  Sets busy status(scan in progress) and clears single scan mode.
 522:.\Generated_Source\PSoC4/CapSense_1.c **** *  For two channel design the additional bits are set to define if scan a 
 523:.\Generated_Source\PSoC4/CapSense_1.c **** *  pair of sensors or single one. 
 524:.\Generated_Source\PSoC4/CapSense_1.c **** *  CapSense_1_sensorIndex - used to store sensor scanning sensor number.
 525:.\Generated_Source\PSoC4/CapSense_1.c **** *  Sets to 0xFF and provided to function CapSense_1_FindNextSensor or
 526:.\Generated_Source\PSoC4/CapSense_1.c **** *  CapSense_1_FindNextPair, these functions starts with sensor index
 527:.\Generated_Source\PSoC4/CapSense_1.c **** *  increment and overflow of uint8 gives desired index 0.
 528:.\Generated_Source\PSoC4/CapSense_1.c **** *
 529:.\Generated_Source\PSoC4/CapSense_1.c **** * Reentrant:
 530:.\Generated_Source\PSoC4/CapSense_1.c **** *  No
 531:.\Generated_Source\PSoC4/CapSense_1.c **** *
 532:.\Generated_Source\PSoC4/CapSense_1.c **** *******************************************************************************/
 533:.\Generated_Source\PSoC4/CapSense_1.c **** void CapSense_1_ScanEnabledWidgets(void)
 534:.\Generated_Source\PSoC4/CapSense_1.c **** {
 640              		.loc 1 534 0
 641              		.cfi_startproc
 642 0000 80B5     		push	{r7, lr}
 643              	.LCFI17:
 644              		.cfi_def_cfa_offset 8
 645              		.cfi_offset 7, -8
 646              		.cfi_offset 14, -4
 647 0002 00AF     		add	r7, sp, #0
 648              	.LCFI18:
 649              		.cfi_def_cfa_register 7
 535:.\Generated_Source\PSoC4/CapSense_1.c ****     /* Clears status/control variable and set sensorIndex */
 536:.\Generated_Source\PSoC4/CapSense_1.c ****     CapSense_1_csv = 0u;
 650              		.loc 1 536 0
ARM GAS  C:\Users\maxk\AppData\Local\Temp\cc0ClDlQ.s 			page 22


 651 0004 124B     		ldr	r3, .L35
 652 0006 0022     		mov	r2, #0
 653 0008 1A70     		strb	r2, [r3]
 537:.\Generated_Source\PSoC4/CapSense_1.c ****     CapSense_1_sensorIndex = 0xFFu;
 654              		.loc 1 537 0
 655 000a 124A     		ldr	r2, .L35+4
 656 000c 0123     		mov	r3, #1
 657 000e 5B42     		neg	r3, r3
 658 0010 1370     		strb	r3, [r2]
 538:.\Generated_Source\PSoC4/CapSense_1.c ****     
 539:.\Generated_Source\PSoC4/CapSense_1.c ****     /* Find next sensor */
 540:.\Generated_Source\PSoC4/CapSense_1.c ****     CapSense_1_sensorIndex = CapSense_1_FindNextSensor(CapSense_1_sensorIndex);
 659              		.loc 1 540 0
 660 0012 104B     		ldr	r3, .L35+4
 661 0014 1B78     		ldrb	r3, [r3]
 662 0016 DBB2     		uxtb	r3, r3
 663 0018 181C     		mov	r0, r3
 664 001a FFF7FEFF 		bl	CapSense_1_FindNextSensor
 665 001e 031C     		mov	r3, r0
 666 0020 1A1C     		mov	r2, r3
 667 0022 0C4B     		ldr	r3, .L35+4
 668 0024 1A70     		strb	r2, [r3]
 541:.\Generated_Source\PSoC4/CapSense_1.c **** 
 542:.\Generated_Source\PSoC4/CapSense_1.c ****     /* Check end of scan condition */
 543:.\Generated_Source\PSoC4/CapSense_1.c ****     if(CapSense_1_sensorIndex < CapSense_1_TOTAL_SENSOR_COUNT)
 669              		.loc 1 543 0
 670 0026 0B4B     		ldr	r3, .L35+4
 671 0028 1B78     		ldrb	r3, [r3]
 672 002a DBB2     		uxtb	r3, r3
 673 002c 042B     		cmp	r3, #4
 674 002e 0DD8     		bhi	.L34
 544:.\Generated_Source\PSoC4/CapSense_1.c ****     {
 545:.\Generated_Source\PSoC4/CapSense_1.c ****         CapSense_1_csv |= CapSense_1_SW_STS_BUSY;
 675              		.loc 1 545 0
 676 0030 074B     		ldr	r3, .L35
 677 0032 1B78     		ldrb	r3, [r3]
 678 0034 DAB2     		uxtb	r2, r3
 679 0036 0123     		mov	r3, #1
 680 0038 1343     		orr	r3, r3, r2
 681 003a DAB2     		uxtb	r2, r3
 682 003c 044B     		ldr	r3, .L35
 683 003e 1A70     		strb	r2, [r3]
 546:.\Generated_Source\PSoC4/CapSense_1.c ****         CapSense_1_PreScan(CapSense_1_sensorIndex);
 684              		.loc 1 546 0
 685 0040 044B     		ldr	r3, .L35+4
 686 0042 1B78     		ldrb	r3, [r3]
 687 0044 DBB2     		uxtb	r3, r3
 688 0046 181C     		mov	r0, r3
 689 0048 FFF7FEFF 		bl	CapSense_1_PreScan
 690              	.L34:
 547:.\Generated_Source\PSoC4/CapSense_1.c ****     }
 548:.\Generated_Source\PSoC4/CapSense_1.c **** }
 691              		.loc 1 548 0
 692 004c BD46     		mov	sp, r7
 693              		@ sp needed for prologue
 694 004e 80BD     		pop	{r7, pc}
 695              	.L36:
ARM GAS  C:\Users\maxk\AppData\Local\Temp\cc0ClDlQ.s 			page 23


 696              		.align	2
 697              	.L35:
 698 0050 00000000 		.word	CapSense_1_csv
 699 0054 00000000 		.word	CapSense_1_sensorIndex
 700              		.cfi_endproc
 701              	.LFE7:
 702              		.size	CapSense_1_ScanEnabledWidgets, .-CapSense_1_ScanEnabledWidgets
 703              		.section	.text.CapSense_1_IsBusy,"ax",%progbits
 704              		.align	2
 705              		.global	CapSense_1_IsBusy
 706              		.code	16
 707              		.thumb_func
 708              		.type	CapSense_1_IsBusy, %function
 709              	CapSense_1_IsBusy:
 710              	.LFB8:
 549:.\Generated_Source\PSoC4/CapSense_1.c **** 
 550:.\Generated_Source\PSoC4/CapSense_1.c **** 
 551:.\Generated_Source\PSoC4/CapSense_1.c **** /*******************************************************************************
 552:.\Generated_Source\PSoC4/CapSense_1.c **** * Function Name: CapSense_1_IsBusy
 553:.\Generated_Source\PSoC4/CapSense_1.c **** ********************************************************************************
 554:.\Generated_Source\PSoC4/CapSense_1.c **** *
 555:.\Generated_Source\PSoC4/CapSense_1.c **** * Summary:
 556:.\Generated_Source\PSoC4/CapSense_1.c **** *  Returns the state of CapSense component. The 1 means that scanning in 
 557:.\Generated_Source\PSoC4/CapSense_1.c **** *  progress and 0 means that scanning is complete.
 558:.\Generated_Source\PSoC4/CapSense_1.c **** *
 559:.\Generated_Source\PSoC4/CapSense_1.c **** * Parameters:
 560:.\Generated_Source\PSoC4/CapSense_1.c **** *  None
 561:.\Generated_Source\PSoC4/CapSense_1.c **** *
 562:.\Generated_Source\PSoC4/CapSense_1.c **** * Return:
 563:.\Generated_Source\PSoC4/CapSense_1.c **** *  Returns the state of scanning. 1 - scanning in progress, 0 - scanning 
 564:.\Generated_Source\PSoC4/CapSense_1.c **** *  completed.
 565:.\Generated_Source\PSoC4/CapSense_1.c **** *
 566:.\Generated_Source\PSoC4/CapSense_1.c **** * Global Variables:
 567:.\Generated_Source\PSoC4/CapSense_1.c **** *  CapSense_1_csv - used to provide status and mode of scanning process. 
 568:.\Generated_Source\PSoC4/CapSense_1.c **** *  Checks the busy status.
 569:.\Generated_Source\PSoC4/CapSense_1.c **** *
 570:.\Generated_Source\PSoC4/CapSense_1.c **** *******************************************************************************/
 571:.\Generated_Source\PSoC4/CapSense_1.c **** uint8 CapSense_1_IsBusy(void)
 572:.\Generated_Source\PSoC4/CapSense_1.c **** {
 711              		.loc 1 572 0
 712              		.cfi_startproc
 713 0000 80B5     		push	{r7, lr}
 714              	.LCFI19:
 715              		.cfi_def_cfa_offset 8
 716              		.cfi_offset 7, -8
 717              		.cfi_offset 14, -4
 718 0002 00AF     		add	r7, sp, #0
 719              	.LCFI20:
 720              		.cfi_def_cfa_register 7
 573:.\Generated_Source\PSoC4/CapSense_1.c ****     return ((CapSense_1_csv & CapSense_1_SW_STS_BUSY) == 
 721              		.loc 1 573 0
 722 0004 074B     		ldr	r3, .L41
 723 0006 1B78     		ldrb	r3, [r3]
 724 0008 DBB2     		uxtb	r3, r3
 725 000a 1A1C     		mov	r2, r3
 726 000c 0123     		mov	r3, #1
 727 000e 1340     		and	r3, r3, r2
ARM GAS  C:\Users\maxk\AppData\Local\Temp\cc0ClDlQ.s 			page 24


 728 0010 DBB2     		uxtb	r3, r3
 729 0012 002B     		cmp	r3, #0
 730 0014 01D0     		beq	.L38
 731 0016 0123     		mov	r3, #1
 732 0018 00E0     		b	.L39
 733              	.L38:
 734 001a 0023     		mov	r3, #0
 735              	.L39:
 574:.\Generated_Source\PSoC4/CapSense_1.c ****              CapSense_1_SW_STS_BUSY) ? 1u : 0u;
 575:.\Generated_Source\PSoC4/CapSense_1.c **** }
 736              		.loc 1 575 0
 737 001c 181C     		mov	r0, r3
 738 001e BD46     		mov	sp, r7
 739              		@ sp needed for prologue
 740 0020 80BD     		pop	{r7, pc}
 741              	.L42:
 742 0022 C046     		.align	2
 743              	.L41:
 744 0024 00000000 		.word	CapSense_1_csv
 745              		.cfi_endproc
 746              	.LFE8:
 747              		.size	CapSense_1_IsBusy, .-CapSense_1_IsBusy
 748              		.section	.text.CapSense_1_ReadSensorRaw,"ax",%progbits
 749              		.align	2
 750              		.global	CapSense_1_ReadSensorRaw
 751              		.code	16
 752              		.thumb_func
 753              		.type	CapSense_1_ReadSensorRaw, %function
 754              	CapSense_1_ReadSensorRaw:
 755              	.LFB9:
 576:.\Generated_Source\PSoC4/CapSense_1.c **** 
 577:.\Generated_Source\PSoC4/CapSense_1.c **** 
 578:.\Generated_Source\PSoC4/CapSense_1.c **** /*******************************************************************************
 579:.\Generated_Source\PSoC4/CapSense_1.c **** * Function Name: CapSense_1_ReadSensorRaw
 580:.\Generated_Source\PSoC4/CapSense_1.c **** ********************************************************************************
 581:.\Generated_Source\PSoC4/CapSense_1.c **** *
 582:.\Generated_Source\PSoC4/CapSense_1.c **** * Summary:
 583:.\Generated_Source\PSoC4/CapSense_1.c **** *  Returns scan sensor raw data from the CapSense_1_SensorRaw[] array. 
 584:.\Generated_Source\PSoC4/CapSense_1.c **** *  Each scan sensor has a unique number within the sensor array. This number 
 585:.\Generated_Source\PSoC4/CapSense_1.c **** *  is assigned by the CapSense customizer in sequence.
 586:.\Generated_Source\PSoC4/CapSense_1.c **** *
 587:.\Generated_Source\PSoC4/CapSense_1.c **** * Parameters:
 588:.\Generated_Source\PSoC4/CapSense_1.c **** *  sensor:  Sensor number.
 589:.\Generated_Source\PSoC4/CapSense_1.c **** *
 590:.\Generated_Source\PSoC4/CapSense_1.c **** * Return:
 591:.\Generated_Source\PSoC4/CapSense_1.c **** *  Returns current raw data value for defined sensor number.
 592:.\Generated_Source\PSoC4/CapSense_1.c **** *
 593:.\Generated_Source\PSoC4/CapSense_1.c **** * Global Variables:
 594:.\Generated_Source\PSoC4/CapSense_1.c **** *  CapSense_1_SensorRaw[] - used to store sensors raw data.
 595:.\Generated_Source\PSoC4/CapSense_1.c **** *
 596:.\Generated_Source\PSoC4/CapSense_1.c **** *******************************************************************************/
 597:.\Generated_Source\PSoC4/CapSense_1.c **** uint16 CapSense_1_ReadSensorRaw(uint8 sensor)
 598:.\Generated_Source\PSoC4/CapSense_1.c **** {
 756              		.loc 1 598 0
 757              		.cfi_startproc
 758 0000 80B5     		push	{r7, lr}
 759              	.LCFI21:
ARM GAS  C:\Users\maxk\AppData\Local\Temp\cc0ClDlQ.s 			page 25


 760              		.cfi_def_cfa_offset 8
 761              		.cfi_offset 7, -8
 762              		.cfi_offset 14, -4
 763 0002 82B0     		sub	sp, sp, #8
 764              	.LCFI22:
 765              		.cfi_def_cfa_offset 16
 766 0004 00AF     		add	r7, sp, #0
 767              	.LCFI23:
 768              		.cfi_def_cfa_register 7
 769 0006 021C     		mov	r2, r0
 770 0008 FB1D     		add	r3, r7, #7
 771 000a 1A70     		strb	r2, [r3]
 599:.\Generated_Source\PSoC4/CapSense_1.c ****     return CapSense_1_SensorRaw[sensor];
 772              		.loc 1 599 0
 773 000c FB1D     		add	r3, r7, #7
 774 000e 1A78     		ldrb	r2, [r3]
 775 0010 034B     		ldr	r3, .L45
 776 0012 5200     		lsl	r2, r2, #1
 777 0014 D35A     		ldrh	r3, [r2, r3]
 600:.\Generated_Source\PSoC4/CapSense_1.c **** }
 778              		.loc 1 600 0
 779 0016 181C     		mov	r0, r3
 780 0018 BD46     		mov	sp, r7
 781 001a 02B0     		add	sp, sp, #8
 782              		@ sp needed for prologue
 783 001c 80BD     		pop	{r7, pc}
 784              	.L46:
 785 001e C046     		.align	2
 786              	.L45:
 787 0020 00000000 		.word	CapSense_1_SensorRaw
 788              		.cfi_endproc
 789              	.LFE9:
 790              		.size	CapSense_1_ReadSensorRaw, .-CapSense_1_ReadSensorRaw
 791              		.section	.text.CapSense_1_ClearSensors,"ax",%progbits
 792              		.align	2
 793              		.global	CapSense_1_ClearSensors
 794              		.code	16
 795              		.thumb_func
 796              		.type	CapSense_1_ClearSensors, %function
 797              	CapSense_1_ClearSensors:
 798              	.LFB10:
 601:.\Generated_Source\PSoC4/CapSense_1.c **** 
 602:.\Generated_Source\PSoC4/CapSense_1.c **** 
 603:.\Generated_Source\PSoC4/CapSense_1.c **** /*******************************************************************************
 604:.\Generated_Source\PSoC4/CapSense_1.c **** * Function Name: CapSense_1_ClearSensors
 605:.\Generated_Source\PSoC4/CapSense_1.c **** ********************************************************************************
 606:.\Generated_Source\PSoC4/CapSense_1.c **** *
 607:.\Generated_Source\PSoC4/CapSense_1.c **** * Summary:
 608:.\Generated_Source\PSoC4/CapSense_1.c **** *  Resets all sensors to the non-sampling state by sequentially disconnecting
 609:.\Generated_Source\PSoC4/CapSense_1.c **** *  all sensors from Analog MUX Bus and putting them to inactive state.
 610:.\Generated_Source\PSoC4/CapSense_1.c **** *
 611:.\Generated_Source\PSoC4/CapSense_1.c **** * Parameters:
 612:.\Generated_Source\PSoC4/CapSense_1.c **** *  None
 613:.\Generated_Source\PSoC4/CapSense_1.c **** *
 614:.\Generated_Source\PSoC4/CapSense_1.c **** * Return:
 615:.\Generated_Source\PSoC4/CapSense_1.c **** *  None
 616:.\Generated_Source\PSoC4/CapSense_1.c **** *
ARM GAS  C:\Users\maxk\AppData\Local\Temp\cc0ClDlQ.s 			page 26


 617:.\Generated_Source\PSoC4/CapSense_1.c **** *******************************************************************************/
 618:.\Generated_Source\PSoC4/CapSense_1.c **** void CapSense_1_ClearSensors(void)
 619:.\Generated_Source\PSoC4/CapSense_1.c **** {
 799              		.loc 1 619 0
 800              		.cfi_startproc
 801 0000 80B5     		push	{r7, lr}
 802              	.LCFI24:
 803              		.cfi_def_cfa_offset 8
 804              		.cfi_offset 7, -8
 805              		.cfi_offset 14, -4
 806 0002 82B0     		sub	sp, sp, #8
 807              	.LCFI25:
 808              		.cfi_def_cfa_offset 16
 809 0004 00AF     		add	r7, sp, #0
 810              	.LCFI26:
 811              		.cfi_def_cfa_register 7
 620:.\Generated_Source\PSoC4/CapSense_1.c ****     uint8 i;
 621:.\Generated_Source\PSoC4/CapSense_1.c ****    
 622:.\Generated_Source\PSoC4/CapSense_1.c ****     for (i = 0u; i < CapSense_1_TOTAL_SENSOR_COUNT; i++)
 812              		.loc 1 622 0
 813 0006 FB1D     		add	r3, r7, #7
 814 0008 0022     		mov	r2, #0
 815 000a 1A70     		strb	r2, [r3]
 816 000c 09E0     		b	.L48
 817              	.L49:
 623:.\Generated_Source\PSoC4/CapSense_1.c ****     {
 624:.\Generated_Source\PSoC4/CapSense_1.c ****         CapSense_1_DisableScanSlot(i);
 818              		.loc 1 624 0
 819 000e FB1D     		add	r3, r7, #7
 820 0010 1B78     		ldrb	r3, [r3]
 821 0012 181C     		mov	r0, r3
 822 0014 FFF7FEFF 		bl	CapSense_1_DisableSensor
 823              		.loc 1 622 0
 824 0018 FB1D     		add	r3, r7, #7
 825 001a FA1D     		add	r2, r7, #7
 826 001c 1278     		ldrb	r2, [r2]
 827 001e 0132     		add	r2, r2, #1
 828 0020 1A70     		strb	r2, [r3]
 829              	.L48:
 830 0022 FB1D     		add	r3, r7, #7
 831 0024 1B78     		ldrb	r3, [r3]
 832 0026 042B     		cmp	r3, #4
 833 0028 F1D9     		bls	.L49
 625:.\Generated_Source\PSoC4/CapSense_1.c ****     }
 626:.\Generated_Source\PSoC4/CapSense_1.c **** }
 834              		.loc 1 626 0
 835 002a BD46     		mov	sp, r7
 836 002c 02B0     		add	sp, sp, #8
 837              		@ sp needed for prologue
 838 002e 80BD     		pop	{r7, pc}
 839              		.cfi_endproc
 840              	.LFE10:
 841              		.size	CapSense_1_ClearSensors, .-CapSense_1_ClearSensors
 842              		.section	.text.CapSense_1_EnableSensor,"ax",%progbits
 843              		.align	2
 844              		.global	CapSense_1_EnableSensor
 845              		.code	16
ARM GAS  C:\Users\maxk\AppData\Local\Temp\cc0ClDlQ.s 			page 27


 846              		.thumb_func
 847              		.type	CapSense_1_EnableSensor, %function
 848              	CapSense_1_EnableSensor:
 849              	.LFB11:
 627:.\Generated_Source\PSoC4/CapSense_1.c **** 
 628:.\Generated_Source\PSoC4/CapSense_1.c **** 
 629:.\Generated_Source\PSoC4/CapSense_1.c **** #if (CapSense_1_IS_COMPLEX_SCANSLOTS)
 630:.\Generated_Source\PSoC4/CapSense_1.c ****     /*******************************************************************************
 631:.\Generated_Source\PSoC4/CapSense_1.c ****     * Function Name: CapSense_1_EnableScanSlot
 632:.\Generated_Source\PSoC4/CapSense_1.c ****     ********************************************************************************
 633:.\Generated_Source\PSoC4/CapSense_1.c ****     *
 634:.\Generated_Source\PSoC4/CapSense_1.c ****     * Summary:
 635:.\Generated_Source\PSoC4/CapSense_1.c ****     *  Configures the selected slot to measure during the next measurement 
 636:.\Generated_Source\PSoC4/CapSense_1.c ****     *  cycle. The corresponding pin/pins are set to Analog High-Z mode and 
 637:.\Generated_Source\PSoC4/CapSense_1.c ****     *  connected to the Analog Mux Bus. This also enables the comparator function.
 638:.\Generated_Source\PSoC4/CapSense_1.c ****     *
 639:.\Generated_Source\PSoC4/CapSense_1.c ****     * Parameters:
 640:.\Generated_Source\PSoC4/CapSense_1.c ****     *  slot:  Slot number.
 641:.\Generated_Source\PSoC4/CapSense_1.c ****     *
 642:.\Generated_Source\PSoC4/CapSense_1.c ****     * Return:
 643:.\Generated_Source\PSoC4/CapSense_1.c ****     *  None
 644:.\Generated_Source\PSoC4/CapSense_1.c ****     *
 645:.\Generated_Source\PSoC4/CapSense_1.c ****     * Global Constants:
 646:.\Generated_Source\PSoC4/CapSense_1.c ****     *  CapSense_1_portTable[]  - used to store the port number that pin 
 647:.\Generated_Source\PSoC4/CapSense_1.c ****     *  belongs to for every sensor.
 648:.\Generated_Source\PSoC4/CapSense_1.c ****     *  CapSense_1_maskTable[]  - used to store the pin within the port for 
 649:.\Generated_Source\PSoC4/CapSense_1.c ****     *  every sensor.
 650:.\Generated_Source\PSoC4/CapSense_1.c ****     *  CapSense_1_indexTable[] - used to store indexes of complex sensors.
 651:.\Generated_Source\PSoC4/CapSense_1.c ****     *  The offset and position in this array are stored in port and mask table for 
 652:.\Generated_Source\PSoC4/CapSense_1.c ****     *  complex sensors.
 653:.\Generated_Source\PSoC4/CapSense_1.c ****     *  The bit 7 (msb) is used to define the sensor type: single or complex.
 654:.\Generated_Source\PSoC4/CapSense_1.c ****     *
 655:.\Generated_Source\PSoC4/CapSense_1.c ****     *******************************************************************************/
 656:.\Generated_Source\PSoC4/CapSense_1.c ****     void CapSense_1_EnableScanSlot(uint8 slot)
 657:.\Generated_Source\PSoC4/CapSense_1.c ****     {
 658:.\Generated_Source\PSoC4/CapSense_1.c ****         uint8 j;
 659:.\Generated_Source\PSoC4/CapSense_1.c ****         uint8 snsNumber;
 660:.\Generated_Source\PSoC4/CapSense_1.c ****         const uint8 CYCODE *index;
 661:.\Generated_Source\PSoC4/CapSense_1.c ****         /* Read the sensor type: single or complex */
 662:.\Generated_Source\PSoC4/CapSense_1.c ****         uint8 snsType = CapSense_1_portTable[slot];
 663:.\Generated_Source\PSoC4/CapSense_1.c **** 
 664:.\Generated_Source\PSoC4/CapSense_1.c ****         /* Check if sensor is complex */
 665:.\Generated_Source\PSoC4/CapSense_1.c ****         if ((snsType & CapSense_1_COMPLEX_SS_FLAG) == 0u)
 666:.\Generated_Source\PSoC4/CapSense_1.c ****         {
 667:.\Generated_Source\PSoC4/CapSense_1.c ****             /* Enable sensor (signle) */
 668:.\Generated_Source\PSoC4/CapSense_1.c ****             CapSense_1_EnableSensor(slot);
 669:.\Generated_Source\PSoC4/CapSense_1.c ****         }
 670:.\Generated_Source\PSoC4/CapSense_1.c ****         else
 671:.\Generated_Source\PSoC4/CapSense_1.c ****         {
 672:.\Generated_Source\PSoC4/CapSense_1.c ****             /* Enable complex sensor */
 673:.\Generated_Source\PSoC4/CapSense_1.c ****             snsType &= ~CapSense_1_COMPLEX_SS_FLAG;
 674:.\Generated_Source\PSoC4/CapSense_1.c ****             index = &CapSense_1_indexTable[snsType];
 675:.\Generated_Source\PSoC4/CapSense_1.c ****             snsNumber = CapSense_1_maskTable[slot];
 676:.\Generated_Source\PSoC4/CapSense_1.c ****                         
 677:.\Generated_Source\PSoC4/CapSense_1.c ****             for (j=0; j < snsNumber; j++)
 678:.\Generated_Source\PSoC4/CapSense_1.c ****             {
 679:.\Generated_Source\PSoC4/CapSense_1.c ****                 CapSense_1_EnableSensor(index[j]);
ARM GAS  C:\Users\maxk\AppData\Local\Temp\cc0ClDlQ.s 			page 28


 680:.\Generated_Source\PSoC4/CapSense_1.c ****             }
 681:.\Generated_Source\PSoC4/CapSense_1.c ****         } 
 682:.\Generated_Source\PSoC4/CapSense_1.c ****     }
 683:.\Generated_Source\PSoC4/CapSense_1.c ****     
 684:.\Generated_Source\PSoC4/CapSense_1.c ****     
 685:.\Generated_Source\PSoC4/CapSense_1.c ****     /*******************************************************************************
 686:.\Generated_Source\PSoC4/CapSense_1.c ****     * Function Name: CapSense_1_DisableScanSlot
 687:.\Generated_Source\PSoC4/CapSense_1.c ****     ********************************************************************************
 688:.\Generated_Source\PSoC4/CapSense_1.c ****     *
 689:.\Generated_Source\PSoC4/CapSense_1.c ****     * Summary:
 690:.\Generated_Source\PSoC4/CapSense_1.c ****     *  Disables the selected slot. The corresponding pin/pis is/are disconnected 
 691:.\Generated_Source\PSoC4/CapSense_1.c ****     *  from the Analog Mux Bus and connected to GND, High_Z or Shield electrode.
 692:.\Generated_Source\PSoC4/CapSense_1.c ****     *
 693:.\Generated_Source\PSoC4/CapSense_1.c ****     * Parameters:
 694:.\Generated_Source\PSoC4/CapSense_1.c ****     *  slot:  Slot number.
 695:.\Generated_Source\PSoC4/CapSense_1.c ****     *
 696:.\Generated_Source\PSoC4/CapSense_1.c ****     * Return:
 697:.\Generated_Source\PSoC4/CapSense_1.c ****     *  None
 698:.\Generated_Source\PSoC4/CapSense_1.c ****     *
 699:.\Generated_Source\PSoC4/CapSense_1.c ****     * Global Variables:
 700:.\Generated_Source\PSoC4/CapSense_1.c ****     *  CapSense_1_portTable[]  - used to store the port number that pin 
 701:.\Generated_Source\PSoC4/CapSense_1.c ****     *  belongs to for every sensor.
 702:.\Generated_Source\PSoC4/CapSense_1.c ****     *  CapSense_1_maskTable[]  - used to store the pin within the port for 
 703:.\Generated_Source\PSoC4/CapSense_1.c ****     *  every sensor.
 704:.\Generated_Source\PSoC4/CapSense_1.c ****     *  CapSense_1_indexTable[] - used to store indexes of complex sensors.
 705:.\Generated_Source\PSoC4/CapSense_1.c ****     *  The offset and position in this array are stored in port and mask table for 
 706:.\Generated_Source\PSoC4/CapSense_1.c ****     *  complex sensors.
 707:.\Generated_Source\PSoC4/CapSense_1.c ****     *  The 7bit(msb) is used to define the sensor type: single or complex.
 708:.\Generated_Source\PSoC4/CapSense_1.c ****     *
 709:.\Generated_Source\PSoC4/CapSense_1.c ****     *******************************************************************************/
 710:.\Generated_Source\PSoC4/CapSense_1.c ****     void CapSense_1_DisableScanSlot(uint8 slot)
 711:.\Generated_Source\PSoC4/CapSense_1.c ****     {
 712:.\Generated_Source\PSoC4/CapSense_1.c ****         uint8 j;
 713:.\Generated_Source\PSoC4/CapSense_1.c ****         uint8 snsNumber;
 714:.\Generated_Source\PSoC4/CapSense_1.c ****         const uint8 CYCODE *index;
 715:.\Generated_Source\PSoC4/CapSense_1.c ****         /* Read the sensor type: single or complex */
 716:.\Generated_Source\PSoC4/CapSense_1.c ****         uint8 snsType = CapSense_1_portTable[slot];
 717:.\Generated_Source\PSoC4/CapSense_1.c ****         
 718:.\Generated_Source\PSoC4/CapSense_1.c ****         /* Check if sensor is complex */
 719:.\Generated_Source\PSoC4/CapSense_1.c ****         if ((snsType & CapSense_1_COMPLEX_SS_FLAG) == 0u)
 720:.\Generated_Source\PSoC4/CapSense_1.c ****         {
 721:.\Generated_Source\PSoC4/CapSense_1.c ****             /* Disable sensor (signle) */
 722:.\Generated_Source\PSoC4/CapSense_1.c ****             CapSense_1_DisableSensor(slot);
 723:.\Generated_Source\PSoC4/CapSense_1.c ****         }
 724:.\Generated_Source\PSoC4/CapSense_1.c ****         else
 725:.\Generated_Source\PSoC4/CapSense_1.c ****         {
 726:.\Generated_Source\PSoC4/CapSense_1.c ****             /* Disable complex sensor */
 727:.\Generated_Source\PSoC4/CapSense_1.c ****             snsType &= ~CapSense_1_COMPLEX_SS_FLAG;
 728:.\Generated_Source\PSoC4/CapSense_1.c ****             index = &CapSense_1_indexTable[snsType];
 729:.\Generated_Source\PSoC4/CapSense_1.c ****             snsNumber = CapSense_1_maskTable[slot];
 730:.\Generated_Source\PSoC4/CapSense_1.c ****                         
 731:.\Generated_Source\PSoC4/CapSense_1.c ****             for (j=0; j < snsNumber; j++)
 732:.\Generated_Source\PSoC4/CapSense_1.c ****             {
 733:.\Generated_Source\PSoC4/CapSense_1.c ****                 CapSense_1_DisableSensor(index[j]);
 734:.\Generated_Source\PSoC4/CapSense_1.c ****             }
 735:.\Generated_Source\PSoC4/CapSense_1.c ****         } 
 736:.\Generated_Source\PSoC4/CapSense_1.c ****     }
ARM GAS  C:\Users\maxk\AppData\Local\Temp\cc0ClDlQ.s 			page 29


 737:.\Generated_Source\PSoC4/CapSense_1.c **** #endif  /* CapSense_1_IS_COMPLEX_SCANSLOTS */
 738:.\Generated_Source\PSoC4/CapSense_1.c **** 
 739:.\Generated_Source\PSoC4/CapSense_1.c **** 
 740:.\Generated_Source\PSoC4/CapSense_1.c **** /*******************************************************************************
 741:.\Generated_Source\PSoC4/CapSense_1.c **** * Function Name: CapSense_1_EnableSensor
 742:.\Generated_Source\PSoC4/CapSense_1.c **** ********************************************************************************
 743:.\Generated_Source\PSoC4/CapSense_1.c **** *
 744:.\Generated_Source\PSoC4/CapSense_1.c **** * Summary:
 745:.\Generated_Source\PSoC4/CapSense_1.c **** *  Configures the selected sensor to measure during the next measurement cycle.
 746:.\Generated_Source\PSoC4/CapSense_1.c **** *  The corresponding pins are set to Analog High-Z mode and connected to the
 747:.\Generated_Source\PSoC4/CapSense_1.c **** *  Analog Mux Bus. This also enables the comparator function.
 748:.\Generated_Source\PSoC4/CapSense_1.c **** *
 749:.\Generated_Source\PSoC4/CapSense_1.c **** * Parameters:
 750:.\Generated_Source\PSoC4/CapSense_1.c **** *  sensor:  Sensor number.
 751:.\Generated_Source\PSoC4/CapSense_1.c **** *
 752:.\Generated_Source\PSoC4/CapSense_1.c **** * Return:
 753:.\Generated_Source\PSoC4/CapSense_1.c **** *  None
 754:.\Generated_Source\PSoC4/CapSense_1.c **** *
 755:.\Generated_Source\PSoC4/CapSense_1.c **** * Global Variables:
 756:.\Generated_Source\PSoC4/CapSense_1.c **** *  CapSense_1_portTable[] - used to store the port number that pin 
 757:.\Generated_Source\PSoC4/CapSense_1.c **** *  belongs to for every sensor.
 758:.\Generated_Source\PSoC4/CapSense_1.c **** *  CapSense_1_maskTable[] - used to store the pin within the port for 
 759:.\Generated_Source\PSoC4/CapSense_1.c **** *  every sensor.
 760:.\Generated_Source\PSoC4/CapSense_1.c **** *  CapSense_1_csTable[]   - used to store the pointers to CAPS_SEL 
 761:.\Generated_Source\PSoC4/CapSense_1.c **** *  registers for every port.
 762:.\Generated_Source\PSoC4/CapSense_1.c **** *  CapSense_1_pcTable[]   - used to store the pointers to PC pin 
 763:.\Generated_Source\PSoC4/CapSense_1.c **** *  register for every sensor.
 764:.\Generated_Source\PSoC4/CapSense_1.c **** *  CapSense_1_amuxIndex[] - used to store corrected AMUX index when 
 765:.\Generated_Source\PSoC4/CapSense_1.c **** *  complex sensors are defeined.
 766:.\Generated_Source\PSoC4/CapSense_1.c **** *
 767:.\Generated_Source\PSoC4/CapSense_1.c **** *******************************************************************************/
 768:.\Generated_Source\PSoC4/CapSense_1.c **** void CapSense_1_EnableSensor(uint8 sensor)
 769:.\Generated_Source\PSoC4/CapSense_1.c **** {
 850              		.loc 1 769 0
 851              		.cfi_startproc
 852 0000 90B5     		push	{r4, r7, lr}
 853              	.LCFI27:
 854              		.cfi_def_cfa_offset 12
 855              		.cfi_offset 4, -12
 856              		.cfi_offset 7, -8
 857              		.cfi_offset 14, -4
 858 0002 87B0     		sub	sp, sp, #28
 859              	.LCFI28:
 860              		.cfi_def_cfa_offset 40
 861 0004 00AF     		add	r7, sp, #0
 862              	.LCFI29:
 863              		.cfi_def_cfa_register 7
 864 0006 021C     		mov	r2, r0
 865 0008 FB1D     		add	r3, r7, #7
 866 000a 1A70     		strb	r2, [r3]
 770:.\Generated_Source\PSoC4/CapSense_1.c **** 	uint32 newRegisterValue;
 771:.\Generated_Source\PSoC4/CapSense_1.c **** 	
 772:.\Generated_Source\PSoC4/CapSense_1.c ****     uint32 port = (uint32) CapSense_1_portTable[sensor];
 867              		.loc 1 772 0
 868 000c FB1D     		add	r3, r7, #7
 869 000e 1B78     		ldrb	r3, [r3]
 870 0010 254A     		ldr	r2, .L53
ARM GAS  C:\Users\maxk\AppData\Local\Temp\cc0ClDlQ.s 			page 30


 871 0012 D35C     		ldrb	r3, [r2, r3]
 872 0014 3B61     		str	r3, [r7, #16]
 773:.\Generated_Source\PSoC4/CapSense_1.c ****     uint8  pinModeShift = CapSense_1_pinShiftTbl[sensor]  * 3u;
 873              		.loc 1 773 0
 874 0016 FB1D     		add	r3, r7, #7
 875 0018 1B78     		ldrb	r3, [r3]
 876 001a 244A     		ldr	r2, .L53+4
 877 001c D35C     		ldrb	r3, [r2, r3]
 878 001e 3A1C     		mov	r2, r7
 879 0020 1632     		add	r2, r2, #22
 880 0022 191C     		add	r1, r3, #0
 881 0024 4900     		lsl	r1, r1, #1
 882 0026 CB18     		add	r3, r1, r3
 883 0028 1370     		strb	r3, [r2]
 774:.\Generated_Source\PSoC4/CapSense_1.c ****     uint8  pinHSIOMShift = CapSense_1_pinShiftTbl[sensor] * 4u;
 884              		.loc 1 774 0
 885 002a FB1D     		add	r3, r7, #7
 886 002c 1B78     		ldrb	r3, [r3]
 887 002e 1F4A     		ldr	r2, .L53+4
 888 0030 D25C     		ldrb	r2, [r2, r3]
 889 0032 3B1C     		mov	r3, r7
 890 0034 1733     		add	r3, r3, #23
 891 0036 9200     		lsl	r2, r2, #2
 892 0038 1A70     		strb	r2, [r3]
 775:.\Generated_Source\PSoC4/CapSense_1.c **** 
 776:.\Generated_Source\PSoC4/CapSense_1.c **** 	newRegisterValue = *CapSense_1_PrtSelTbl[port];
 893              		.loc 1 776 0
 894 003a 3A69     		ldr	r2, [r7, #16]
 895 003c 1C4B     		ldr	r3, .L53+8
 896 003e 9200     		lsl	r2, r2, #2
 897 0040 D358     		ldr	r3, [r2, r3]
 898 0042 1B68     		ldr	r3, [r3]
 899 0044 FB60     		str	r3, [r7, #12]
 777:.\Generated_Source\PSoC4/CapSense_1.c **** 	newRegisterValue &= ~(CapSense_1_CSD_HSIOM_MASK << pinHSIOMShift);
 900              		.loc 1 777 0
 901 0046 3B1C     		mov	r3, r7
 902 0048 1733     		add	r3, r3, #23
 903 004a 1B78     		ldrb	r3, [r3]
 904 004c 0F22     		mov	r2, #15
 905 004e 111C     		mov	r1, r2
 906 0050 9940     		lsl	r1, r1, r3
 907 0052 0B1C     		mov	r3, r1
 908 0054 DB43     		mvn	r3, r3
 909 0056 FA68     		ldr	r2, [r7, #12]
 910 0058 1340     		and	r3, r3, r2
 911 005a FB60     		str	r3, [r7, #12]
 778:.\Generated_Source\PSoC4/CapSense_1.c **** 	newRegisterValue |= (CapSense_1_CSD_SENSE_PORT_MODE << pinHSIOMShift);
 912              		.loc 1 778 0
 913 005c 3B1C     		mov	r3, r7
 914 005e 1733     		add	r3, r3, #23
 915 0060 1B78     		ldrb	r3, [r3]
 916 0062 0422     		mov	r2, #4
 917 0064 141C     		mov	r4, r2
 918 0066 9C40     		lsl	r4, r4, r3
 919 0068 231C     		mov	r3, r4
 920 006a FA68     		ldr	r2, [r7, #12]
 921 006c 1343     		orr	r3, r3, r2
ARM GAS  C:\Users\maxk\AppData\Local\Temp\cc0ClDlQ.s 			page 31


 922 006e FB60     		str	r3, [r7, #12]
 779:.\Generated_Source\PSoC4/CapSense_1.c ****    
 780:.\Generated_Source\PSoC4/CapSense_1.c ****     *CapSense_1_PrtCfgTbl[port] &= ~(CapSense_1_CSD_PIN_MODE_MASK << pinModeShift);
 923              		.loc 1 780 0
 924 0070 3A69     		ldr	r2, [r7, #16]
 925 0072 104B     		ldr	r3, .L53+12
 926 0074 9200     		lsl	r2, r2, #2
 927 0076 D358     		ldr	r3, [r2, r3]
 928 0078 3969     		ldr	r1, [r7, #16]
 929 007a 0E4A     		ldr	r2, .L53+12
 930 007c 8900     		lsl	r1, r1, #2
 931 007e 8A58     		ldr	r2, [r1, r2]
 932 0080 1168     		ldr	r1, [r2]
 933 0082 3A1C     		mov	r2, r7
 934 0084 1632     		add	r2, r2, #22
 935 0086 1278     		ldrb	r2, [r2]
 936 0088 0720     		mov	r0, #7
 937 008a 041C     		mov	r4, r0
 938 008c 9440     		lsl	r4, r4, r2
 939 008e 221C     		mov	r2, r4
 940 0090 D243     		mvn	r2, r2
 941 0092 0A40     		and	r2, r2, r1
 942 0094 1A60     		str	r2, [r3]
 781:.\Generated_Source\PSoC4/CapSense_1.c ****     *CapSense_1_PrtSelTbl[port] = newRegisterValue;
 943              		.loc 1 781 0
 944 0096 3A69     		ldr	r2, [r7, #16]
 945 0098 054B     		ldr	r3, .L53+8
 946 009a 9200     		lsl	r2, r2, #2
 947 009c D358     		ldr	r3, [r2, r3]
 948 009e FA68     		ldr	r2, [r7, #12]
 949 00a0 1A60     		str	r2, [r3]
 782:.\Generated_Source\PSoC4/CapSense_1.c **** }
 950              		.loc 1 782 0
 951 00a2 BD46     		mov	sp, r7
 952 00a4 07B0     		add	sp, sp, #28
 953              		@ sp needed for prologue
 954 00a6 90BD     		pop	{r4, r7, pc}
 955              	.L54:
 956              		.align	2
 957              	.L53:
 958 00a8 00000000 		.word	CapSense_1_portTable
 959 00ac 00000000 		.word	CapSense_1_pinShiftTbl
 960 00b0 00000000 		.word	CapSense_1_PrtSelTbl
 961 00b4 00000000 		.word	CapSense_1_PrtCfgTbl
 962              		.cfi_endproc
 963              	.LFE11:
 964              		.size	CapSense_1_EnableSensor, .-CapSense_1_EnableSensor
 965              		.section	.text.CapSense_1_DisableSensor,"ax",%progbits
 966              		.align	2
 967              		.global	CapSense_1_DisableSensor
 968              		.code	16
 969              		.thumb_func
 970              		.type	CapSense_1_DisableSensor, %function
 971              	CapSense_1_DisableSensor:
 972              	.LFB12:
 783:.\Generated_Source\PSoC4/CapSense_1.c **** 
 784:.\Generated_Source\PSoC4/CapSense_1.c **** 
ARM GAS  C:\Users\maxk\AppData\Local\Temp\cc0ClDlQ.s 			page 32


 785:.\Generated_Source\PSoC4/CapSense_1.c **** /*******************************************************************************
 786:.\Generated_Source\PSoC4/CapSense_1.c **** * Function Name: CapSense_1_DisableSensor
 787:.\Generated_Source\PSoC4/CapSense_1.c **** ********************************************************************************
 788:.\Generated_Source\PSoC4/CapSense_1.c **** *
 789:.\Generated_Source\PSoC4/CapSense_1.c **** * Summary:
 790:.\Generated_Source\PSoC4/CapSense_1.c **** *  Disables the selected sensor. The corresponding pin is disconnected from the
 791:.\Generated_Source\PSoC4/CapSense_1.c **** *  Analog Mux Bus and connected to GND, High_Z or Shield electrode.
 792:.\Generated_Source\PSoC4/CapSense_1.c **** *
 793:.\Generated_Source\PSoC4/CapSense_1.c **** * Parameters:
 794:.\Generated_Source\PSoC4/CapSense_1.c **** *  sensor:  Sensor number
 795:.\Generated_Source\PSoC4/CapSense_1.c **** *
 796:.\Generated_Source\PSoC4/CapSense_1.c **** * Return:
 797:.\Generated_Source\PSoC4/CapSense_1.c **** *  None
 798:.\Generated_Source\PSoC4/CapSense_1.c **** *
 799:.\Generated_Source\PSoC4/CapSense_1.c **** * Global Variables:
 800:.\Generated_Source\PSoC4/CapSense_1.c **** *  CapSense_1_portTable[] - used to store the port number that pin 
 801:.\Generated_Source\PSoC4/CapSense_1.c **** *  belongs to for every sensor.
 802:.\Generated_Source\PSoC4/CapSense_1.c **** *  CapSense_1_maskTable[] - used to store the pin within the port for 
 803:.\Generated_Source\PSoC4/CapSense_1.c **** *  every sensor.
 804:.\Generated_Source\PSoC4/CapSense_1.c **** *  CapSense_1_csTable[]   - used to store the pointers to CAPS_SEL 
 805:.\Generated_Source\PSoC4/CapSense_1.c **** *  registers for every port.
 806:.\Generated_Source\PSoC4/CapSense_1.c **** *  CapSense_1_pcTable[]   - used to store the pointers to PC pin 
 807:.\Generated_Source\PSoC4/CapSense_1.c **** *  register for every sensor.
 808:.\Generated_Source\PSoC4/CapSense_1.c **** *  CapSense_1_amuxIndex[] - used to store corrected AMUX index when 
 809:.\Generated_Source\PSoC4/CapSense_1.c **** *  complex sensors are defeined.
 810:.\Generated_Source\PSoC4/CapSense_1.c **** *
 811:.\Generated_Source\PSoC4/CapSense_1.c **** *******************************************************************************/
 812:.\Generated_Source\PSoC4/CapSense_1.c **** void CapSense_1_DisableSensor(uint8 sensor)
 813:.\Generated_Source\PSoC4/CapSense_1.c **** {
 973              		.loc 1 813 0
 974              		.cfi_startproc
 975 0000 90B5     		push	{r4, r7, lr}
 976              	.LCFI30:
 977              		.cfi_def_cfa_offset 12
 978              		.cfi_offset 4, -12
 979              		.cfi_offset 7, -8
 980              		.cfi_offset 14, -4
 981 0002 87B0     		sub	sp, sp, #28
 982              	.LCFI31:
 983              		.cfi_def_cfa_offset 40
 984 0004 00AF     		add	r7, sp, #0
 985              	.LCFI32:
 986              		.cfi_def_cfa_register 7
 987 0006 021C     		mov	r2, r0
 988 0008 FB1D     		add	r3, r7, #7
 989 000a 1A70     		strb	r2, [r3]
 814:.\Generated_Source\PSoC4/CapSense_1.c ****     uint32 port = (uint32) CapSense_1_portTable[sensor];
 990              		.loc 1 814 0
 991 000c FB1D     		add	r3, r7, #7
 992 000e 1B78     		ldrb	r3, [r3]
 993 0010 2F4A     		ldr	r2, .L57
 994 0012 D35C     		ldrb	r3, [r2, r3]
 995 0014 BB60     		str	r3, [r7, #8]
 815:.\Generated_Source\PSoC4/CapSense_1.c ****     uint8  pinHSIOMShift = CapSense_1_pinShiftTbl[sensor] * 4u;
 996              		.loc 1 815 0
 997 0016 FB1D     		add	r3, r7, #7
 998 0018 1B78     		ldrb	r3, [r3]
ARM GAS  C:\Users\maxk\AppData\Local\Temp\cc0ClDlQ.s 			page 33


 999 001a 2E4A     		ldr	r2, .L57+4
 1000 001c D25C     		ldrb	r2, [r2, r3]
 1001 001e 3B1C     		mov	r3, r7
 1002 0020 0F33     		add	r3, r3, #15
 1003 0022 9200     		lsl	r2, r2, #2
 1004 0024 1A70     		strb	r2, [r3]
 816:.\Generated_Source\PSoC4/CapSense_1.c **** #if (CapSense_1_CONNECT_INACTIVE_SNS != CapSense_1__SHIELD)
 817:.\Generated_Source\PSoC4/CapSense_1.c **** 	uint32 newRegisterValue;
 818:.\Generated_Source\PSoC4/CapSense_1.c ****     uint8  pinModeShift = CapSense_1_pinShiftTbl[sensor]  * 3u;
 1005              		.loc 1 818 0
 1006 0026 FB1D     		add	r3, r7, #7
 1007 0028 1B78     		ldrb	r3, [r3]
 1008 002a 2A4A     		ldr	r2, .L57+4
 1009 002c D35C     		ldrb	r3, [r2, r3]
 1010 002e 3A1C     		mov	r2, r7
 1011 0030 1732     		add	r2, r2, #23
 1012 0032 191C     		add	r1, r3, #0
 1013 0034 4900     		lsl	r1, r1, #1
 1014 0036 CB18     		add	r3, r1, r3
 1015 0038 1370     		strb	r3, [r2]
 819:.\Generated_Source\PSoC4/CapSense_1.c **** #endif    
 820:.\Generated_Source\PSoC4/CapSense_1.c **** 
 821:.\Generated_Source\PSoC4/CapSense_1.c **** 
 822:.\Generated_Source\PSoC4/CapSense_1.c ****     *CapSense_1_PrtSelTbl[port] &= ~(CapSense_1_CSD_HSIOM_MASK << pinHSIOMShift);
 1016              		.loc 1 822 0
 1017 003a BA68     		ldr	r2, [r7, #8]
 1018 003c 264B     		ldr	r3, .L57+8
 1019 003e 9200     		lsl	r2, r2, #2
 1020 0040 D358     		ldr	r3, [r2, r3]
 1021 0042 B968     		ldr	r1, [r7, #8]
 1022 0044 244A     		ldr	r2, .L57+8
 1023 0046 8900     		lsl	r1, r1, #2
 1024 0048 8A58     		ldr	r2, [r1, r2]
 1025 004a 1168     		ldr	r1, [r2]
 1026 004c 3A1C     		mov	r2, r7
 1027 004e 0F32     		add	r2, r2, #15
 1028 0050 1278     		ldrb	r2, [r2]
 1029 0052 0F20     		mov	r0, #15
 1030 0054 041C     		mov	r4, r0
 1031 0056 9440     		lsl	r4, r4, r2
 1032 0058 221C     		mov	r2, r4
 1033 005a D243     		mvn	r2, r2
 1034 005c 0A40     		and	r2, r2, r1
 1035 005e 1A60     		str	r2, [r3]
 823:.\Generated_Source\PSoC4/CapSense_1.c ****         
 824:.\Generated_Source\PSoC4/CapSense_1.c **** #if (CapSense_1_CONNECT_INACTIVE_SNS == CapSense_1__SHIELD)
 825:.\Generated_Source\PSoC4/CapSense_1.c ****     *CapSense_1_PrtSelTbl[port] |= (CapSense_1_CSD_SHIELD_PORT_MODE << pinHSIOMShift);
 826:.\Generated_Source\PSoC4/CapSense_1.c **** #else
 827:.\Generated_Source\PSoC4/CapSense_1.c **** 
 828:.\Generated_Source\PSoC4/CapSense_1.c **** 	newRegisterValue = *CapSense_1_PrtCfgTbl[port];
 1036              		.loc 1 828 0
 1037 0060 BA68     		ldr	r2, [r7, #8]
 1038 0062 1E4B     		ldr	r3, .L57+12
 1039 0064 9200     		lsl	r2, r2, #2
 1040 0066 D358     		ldr	r3, [r2, r3]
 1041 0068 1B68     		ldr	r3, [r3]
 1042 006a 3B61     		str	r3, [r7, #16]
ARM GAS  C:\Users\maxk\AppData\Local\Temp\cc0ClDlQ.s 			page 34


 829:.\Generated_Source\PSoC4/CapSense_1.c **** 	newRegisterValue &= ~(CapSense_1_CSD_PIN_MODE_MASK << pinModeShift);
 1043              		.loc 1 829 0
 1044 006c 3B1C     		mov	r3, r7
 1045 006e 1733     		add	r3, r3, #23
 1046 0070 1B78     		ldrb	r3, [r3]
 1047 0072 0722     		mov	r2, #7
 1048 0074 111C     		mov	r1, r2
 1049 0076 9940     		lsl	r1, r1, r3
 1050 0078 0B1C     		mov	r3, r1
 1051 007a DB43     		mvn	r3, r3
 1052 007c 3A69     		ldr	r2, [r7, #16]
 1053 007e 1340     		and	r3, r3, r2
 1054 0080 3B61     		str	r3, [r7, #16]
 830:.\Generated_Source\PSoC4/CapSense_1.c **** 	newRegisterValue |=  (CapSense_1_CSD_INACTIVE_CONNECT << pinModeShift);
 1055              		.loc 1 830 0
 1056 0082 3B1C     		mov	r3, r7
 1057 0084 1733     		add	r3, r3, #23
 1058 0086 1B78     		ldrb	r3, [r3]
 1059 0088 0622     		mov	r2, #6
 1060 008a 141C     		mov	r4, r2
 1061 008c 9C40     		lsl	r4, r4, r3
 1062 008e 231C     		mov	r3, r4
 1063 0090 3A69     		ldr	r2, [r7, #16]
 1064 0092 1343     		orr	r3, r3, r2
 1065 0094 3B61     		str	r3, [r7, #16]
 831:.\Generated_Source\PSoC4/CapSense_1.c ****     *CapSense_1_PrtCfgTbl[port] =  newRegisterValue;
 1066              		.loc 1 831 0
 1067 0096 BA68     		ldr	r2, [r7, #8]
 1068 0098 104B     		ldr	r3, .L57+12
 1069 009a 9200     		lsl	r2, r2, #2
 1070 009c D358     		ldr	r3, [r2, r3]
 1071 009e 3A69     		ldr	r2, [r7, #16]
 1072 00a0 1A60     		str	r2, [r3]
 832:.\Generated_Source\PSoC4/CapSense_1.c ****     
 833:.\Generated_Source\PSoC4/CapSense_1.c **** 	*CapSense_1_PrtDRTbl[port]  &=  ~(1u << CapSense_1_pinShiftTbl[sensor]);  
 1073              		.loc 1 833 0
 1074 00a2 BA68     		ldr	r2, [r7, #8]
 1075 00a4 0E4B     		ldr	r3, .L57+16
 1076 00a6 9200     		lsl	r2, r2, #2
 1077 00a8 D358     		ldr	r3, [r2, r3]
 1078 00aa B968     		ldr	r1, [r7, #8]
 1079 00ac 0C4A     		ldr	r2, .L57+16
 1080 00ae 8900     		lsl	r1, r1, #2
 1081 00b0 8A58     		ldr	r2, [r1, r2]
 1082 00b2 1168     		ldr	r1, [r2]
 1083 00b4 FA1D     		add	r2, r7, #7
 1084 00b6 1278     		ldrb	r2, [r2]
 1085 00b8 0648     		ldr	r0, .L57+4
 1086 00ba 825C     		ldrb	r2, [r0, r2]
 1087 00bc 0120     		mov	r0, #1
 1088 00be 041C     		mov	r4, r0
 1089 00c0 9440     		lsl	r4, r4, r2
 1090 00c2 221C     		mov	r2, r4
 1091 00c4 D243     		mvn	r2, r2
 1092 00c6 0A40     		and	r2, r2, r1
 1093 00c8 1A60     		str	r2, [r3]
 834:.\Generated_Source\PSoC4/CapSense_1.c ****     
ARM GAS  C:\Users\maxk\AppData\Local\Temp\cc0ClDlQ.s 			page 35


 835:.\Generated_Source\PSoC4/CapSense_1.c **** #endif /* CapSense_1_CONNECT_INACTIVE_SNS == CapSense_1__SHIELD */
 836:.\Generated_Source\PSoC4/CapSense_1.c **** }
 1094              		.loc 1 836 0
 1095 00ca BD46     		mov	sp, r7
 1096 00cc 07B0     		add	sp, sp, #28
 1097              		@ sp needed for prologue
 1098 00ce 90BD     		pop	{r4, r7, pc}
 1099              	.L58:
 1100              		.align	2
 1101              	.L57:
 1102 00d0 00000000 		.word	CapSense_1_portTable
 1103 00d4 00000000 		.word	CapSense_1_pinShiftTbl
 1104 00d8 00000000 		.word	CapSense_1_PrtSelTbl
 1105 00dc 00000000 		.word	CapSense_1_PrtCfgTbl
 1106 00e0 00000000 		.word	CapSense_1_PrtDRTbl
 1107              		.cfi_endproc
 1108              	.LFE12:
 1109              		.size	CapSense_1_DisableSensor, .-CapSense_1_DisableSensor
 1110              		.section	.text.CapSense_1_PreScan,"ax",%progbits
 1111              		.align	2
 1112              		.global	CapSense_1_PreScan
 1113              		.code	16
 1114              		.thumb_func
 1115              		.type	CapSense_1_PreScan, %function
 1116              	CapSense_1_PreScan:
 1117              	.LFB13:
 837:.\Generated_Source\PSoC4/CapSense_1.c **** 
 838:.\Generated_Source\PSoC4/CapSense_1.c **** 
 839:.\Generated_Source\PSoC4/CapSense_1.c **** /*******************************************************************************
 840:.\Generated_Source\PSoC4/CapSense_1.c **** * Function Name: CapSense_1_PreScan
 841:.\Generated_Source\PSoC4/CapSense_1.c **** ********************************************************************************
 842:.\Generated_Source\PSoC4/CapSense_1.c **** *
 843:.\Generated_Source\PSoC4/CapSense_1.c **** * Summary:
 844:.\Generated_Source\PSoC4/CapSense_1.c **** *  Set required settings, enable sensor, remove Vref from AMUX and start the 
 845:.\Generated_Source\PSoC4/CapSense_1.c **** *  scanning process of the sensor.
 846:.\Generated_Source\PSoC4/CapSense_1.c **** *
 847:.\Generated_Source\PSoC4/CapSense_1.c **** * Parameters:
 848:.\Generated_Source\PSoC4/CapSense_1.c **** *  sensor:  Sensor number.
 849:.\Generated_Source\PSoC4/CapSense_1.c **** *
 850:.\Generated_Source\PSoC4/CapSense_1.c **** * Return:
 851:.\Generated_Source\PSoC4/CapSense_1.c **** *  None
 852:.\Generated_Source\PSoC4/CapSense_1.c **** *
 853:.\Generated_Source\PSoC4/CapSense_1.c **** * Global Variables:
 854:.\Generated_Source\PSoC4/CapSense_1.c **** *
 855:.\Generated_Source\PSoC4/CapSense_1.c **** *******************************************************************************/
 856:.\Generated_Source\PSoC4/CapSense_1.c **** void CapSense_1_PreScan(uint8 sensor)
 857:.\Generated_Source\PSoC4/CapSense_1.c **** {
 1118              		.loc 1 857 0
 1119              		.cfi_startproc
 1120 0000 80B5     		push	{r7, lr}
 1121              	.LCFI33:
 1122              		.cfi_def_cfa_offset 8
 1123              		.cfi_offset 7, -8
 1124              		.cfi_offset 14, -4
 1125 0002 84B0     		sub	sp, sp, #16
 1126              	.LCFI34:
 1127              		.cfi_def_cfa_offset 24
ARM GAS  C:\Users\maxk\AppData\Local\Temp\cc0ClDlQ.s 			page 36


 1128 0004 00AF     		add	r7, sp, #0
 1129              	.LCFI35:
 1130              		.cfi_def_cfa_register 7
 1131 0006 021C     		mov	r2, r0
 1132 0008 FB1D     		add	r3, r7, #7
 1133 000a 1A70     		strb	r2, [r3]
 858:.\Generated_Source\PSoC4/CapSense_1.c ****     uint8 widget;
 859:.\Generated_Source\PSoC4/CapSense_1.c ****     uint8 interruptState;
 860:.\Generated_Source\PSoC4/CapSense_1.c **** 	uint32 newRegisterValue;
 861:.\Generated_Source\PSoC4/CapSense_1.c ****     
 862:.\Generated_Source\PSoC4/CapSense_1.c ****     interruptState = CyEnterCriticalSection();
 1134              		.loc 1 862 0
 1135 000c FFF7FEFF 		bl	CyEnterCriticalSection
 1136 0010 031C     		mov	r3, r0
 1137 0012 1A1C     		mov	r2, r3
 1138 0014 3B1C     		mov	r3, r7
 1139 0016 0B33     		add	r3, r3, #11
 1140 0018 1A70     		strb	r2, [r3]
 863:.\Generated_Source\PSoC4/CapSense_1.c **** 
 864:.\Generated_Source\PSoC4/CapSense_1.c ****     /* Define widget sensor belongs to */
 865:.\Generated_Source\PSoC4/CapSense_1.c ****     widget = CapSense_1_widgetNumber[sensor];
 1141              		.loc 1 865 0
 1142 001a FB1D     		add	r3, r7, #7
 1143 001c 1A78     		ldrb	r2, [r3]
 1144 001e 3B1C     		mov	r3, r7
 1145 0020 0A33     		add	r3, r3, #10
 1146 0022 2449     		ldr	r1, .L61
 1147 0024 8A5C     		ldrb	r2, [r1, r2]
 1148 0026 1A70     		strb	r2, [r3]
 866:.\Generated_Source\PSoC4/CapSense_1.c **** 
 867:.\Generated_Source\PSoC4/CapSense_1.c ****     /* Set Sensor Settings */
 868:.\Generated_Source\PSoC4/CapSense_1.c ****     CapSense_1_SetScanSlotSettings(sensor);
 1149              		.loc 1 868 0
 1150 0028 FB1D     		add	r3, r7, #7
 1151 002a 1B78     		ldrb	r3, [r3]
 1152 002c 181C     		mov	r0, r3
 1153 002e FFF7FEFF 		bl	CapSense_1_SetScanSlotSettings
 869:.\Generated_Source\PSoC4/CapSense_1.c **** 
 870:.\Generated_Source\PSoC4/CapSense_1.c ****     /* Enable Sensor */
 871:.\Generated_Source\PSoC4/CapSense_1.c ****     CapSense_1_EnableScanSlot(sensor);
 1154              		.loc 1 871 0
 1155 0032 FB1D     		add	r3, r7, #7
 1156 0034 1B78     		ldrb	r3, [r3]
 1157 0036 181C     		mov	r0, r3
 1158 0038 FFF7FEFF 		bl	CapSense_1_EnableSensor
 872:.\Generated_Source\PSoC4/CapSense_1.c **** 	
 873:.\Generated_Source\PSoC4/CapSense_1.c **** #if(CapSense_1_CMOD_PREGARGE_OPTION == CapSense_1__CAPPRIOBUF)
 874:.\Generated_Source\PSoC4/CapSense_1.c **** 	CapSense_1_PORT4_PC_REG &= ~(CapSense_1_CSD_CMOD_PC_MASK);
 875:.\Generated_Source\PSoC4/CapSense_1.c **** 	CapSense_1_PORT4_PC_REG |= CapSense_1_CMOD_PC_STRONG_MODE;
 876:.\Generated_Source\PSoC4/CapSense_1.c **** 	
 877:.\Generated_Source\PSoC4/CapSense_1.c **** 	CapSense_1_PORT4_DR_REG &= ~(CapSense_1_CMOD_DR_MASK);
 878:.\Generated_Source\PSoC4/CapSense_1.c **** 	CapSense_1_PORT4_DR_REG |= CapSense_1_CMOD_DR_CONFIG;
 879:.\Generated_Source\PSoC4/CapSense_1.c **** #endif /* (CapSense_1_CMOD_PREGARGE_OPTION == CapSense_1__CAPPRIOBUF) */
 880:.\Generated_Source\PSoC4/CapSense_1.c **** 
 881:.\Generated_Source\PSoC4/CapSense_1.c **** 	newRegisterValue = CapSense_1_CSD_CFG_REG;
 1159              		.loc 1 881 0
 1160 003c 1E4B     		ldr	r3, .L61+4
ARM GAS  C:\Users\maxk\AppData\Local\Temp\cc0ClDlQ.s 			page 37


 1161 003e 1B68     		ldr	r3, [r3]
 1162 0040 FB60     		str	r3, [r7, #12]
 882:.\Generated_Source\PSoC4/CapSense_1.c **** 	newRegisterValue &= ~(CapSense_1_PRECHARGE_CONFIG_MASK);
 1163              		.loc 1 882 0
 1164 0042 FA68     		ldr	r2, [r7, #12]
 1165 0044 1D4B     		ldr	r3, .L61+8
 1166 0046 1340     		and	r3, r3, r2
 1167 0048 FB60     		str	r3, [r7, #12]
 883:.\Generated_Source\PSoC4/CapSense_1.c **** 	newRegisterValue |= CapSense_1_CMOD_PRECHARGE_CONFIG;
 1168              		.loc 1 883 0
 1169 004a FA68     		ldr	r2, [r7, #12]
 1170 004c A023     		mov	r3, #160
 1171 004e 1B02     		lsl	r3, r3, #8
 1172 0050 1343     		orr	r3, r3, r2
 1173 0052 FB60     		str	r3, [r7, #12]
 884:.\Generated_Source\PSoC4/CapSense_1.c **** 	CapSense_1_CSD_CFG_REG = newRegisterValue;
 1174              		.loc 1 884 0
 1175 0054 184B     		ldr	r3, .L61+4
 1176 0056 FA68     		ldr	r2, [r7, #12]
 1177 0058 1A60     		str	r2, [r3]
 885:.\Generated_Source\PSoC4/CapSense_1.c **** 	
 886:.\Generated_Source\PSoC4/CapSense_1.c **** 	CyDelayUs(MAX_CHARGE_TIME_US);
 1178              		.loc 1 886 0
 1179 005a 6420     		mov	r0, #100
 1180 005c FFF7FEFF 		bl	CyDelayUs
 887:.\Generated_Source\PSoC4/CapSense_1.c **** 	
 888:.\Generated_Source\PSoC4/CapSense_1.c **** #if(CapSense_1_CMOD_PREGARGE_OPTION == CapSense_1__CAPPRIOBUF)
 889:.\Generated_Source\PSoC4/CapSense_1.c **** 	CapSense_1_PORT4_PC_REG &= ~(CapSense_1_CSD_CMOD_PC_MASK);
 890:.\Generated_Source\PSoC4/CapSense_1.c **** 	CapSense_1_PORT4_PC_REG |= CapSense_1_CMOD_PC_HIGH_Z_MODE;
 891:.\Generated_Source\PSoC4/CapSense_1.c **** #endif /* (CapSense_1_CMOD_PREGARGE_OPTION == CapSense_1__CAPPRIOBUF) */
 892:.\Generated_Source\PSoC4/CapSense_1.c **** 	
 893:.\Generated_Source\PSoC4/CapSense_1.c **** 	newRegisterValue = CapSense_1_CSD_CFG_REG;
 1181              		.loc 1 893 0
 1182 0060 154B     		ldr	r3, .L61+4
 1183 0062 1B68     		ldr	r3, [r3]
 1184 0064 FB60     		str	r3, [r7, #12]
 894:.\Generated_Source\PSoC4/CapSense_1.c **** 	newRegisterValue &= ~(CapSense_1_PRECHARGE_CONFIG_MASK);
 1185              		.loc 1 894 0
 1186 0066 FA68     		ldr	r2, [r7, #12]
 1187 0068 144B     		ldr	r3, .L61+8
 1188 006a 1340     		and	r3, r3, r2
 1189 006c FB60     		str	r3, [r7, #12]
 895:.\Generated_Source\PSoC4/CapSense_1.c **** 	newRegisterValue |= CapSense_1_CTANK_PRECHARGE_CONFIG;
 1190              		.loc 1 895 0
 1191 006e FA68     		ldr	r2, [r7, #12]
 1192 0070 134B     		ldr	r3, .L61+12
 1193 0072 1343     		orr	r3, r3, r2
 1194 0074 FB60     		str	r3, [r7, #12]
 896:.\Generated_Source\PSoC4/CapSense_1.c **** 	CapSense_1_CSD_CFG_REG = newRegisterValue;
 1195              		.loc 1 896 0
 1196 0076 104B     		ldr	r3, .L61+4
 1197 0078 FA68     		ldr	r2, [r7, #12]
 1198 007a 1A60     		str	r2, [r3]
 897:.\Generated_Source\PSoC4/CapSense_1.c **** 	
 898:.\Generated_Source\PSoC4/CapSense_1.c **** #if(CapSense_1_PRS_OPTIONS  != CapSense_1__PRS_NONE)
 899:.\Generated_Source\PSoC4/CapSense_1.c **** 	CapSense_1_CSD_CFG_REG |= CapSense_1_CSD_CFG_PRS_CLEAR;
 900:.\Generated_Source\PSoC4/CapSense_1.c **** #endif /* (CapSense_1_PRS_OPTIONS  != CapSense_1__PRS_NONE) */
ARM GAS  C:\Users\maxk\AppData\Local\Temp\cc0ClDlQ.s 			page 38


 901:.\Generated_Source\PSoC4/CapSense_1.c **** 	
 902:.\Generated_Source\PSoC4/CapSense_1.c **** 	CapSense_1_CSD_Clk1_Stop();
 1199              		.loc 1 902 0
 1200 007c FFF7FEFF 		bl	CapSense_1_CSD_Clk1_Stop
 903:.\Generated_Source\PSoC4/CapSense_1.c ****     CapSense_1_CSD_Clk2_Stop();
 1201              		.loc 1 903 0
 1202 0080 FFF7FEFF 		bl	CapSense_1_CSD_Clk2_Stop
 904:.\Generated_Source\PSoC4/CapSense_1.c **** 	
 905:.\Generated_Source\PSoC4/CapSense_1.c **** 	CapSense_1_CSD_Clk1_Start();
 1203              		.loc 1 905 0
 1204 0084 FFF7FEFF 		bl	CapSense_1_CSD_Clk1_Start
 906:.\Generated_Source\PSoC4/CapSense_1.c ****     CapSense_1_CSD_Clk2_Start();
 1205              		.loc 1 906 0
 1206 0088 FFF7FEFF 		bl	CapSense_1_CSD_Clk2_Start
 907:.\Generated_Source\PSoC4/CapSense_1.c **** 	
 908:.\Generated_Source\PSoC4/CapSense_1.c **** 	CyDelayUs(10u);
 1207              		.loc 1 908 0
 1208 008c 0A20     		mov	r0, #10
 1209 008e FFF7FEFF 		bl	CyDelayUs
 909:.\Generated_Source\PSoC4/CapSense_1.c ****     
 910:.\Generated_Source\PSoC4/CapSense_1.c ****     CapSense_1_CSD_CNT_REG = CapSense_1_widgetResolution[widget];
 1210              		.loc 1 910 0
 1211 0092 0C4B     		ldr	r3, .L61+16
 1212 0094 3A1C     		mov	r2, r7
 1213 0096 0A32     		add	r2, r2, #10
 1214 0098 1178     		ldrb	r1, [r2]
 1215 009a 0B4A     		ldr	r2, .L61+20
 1216 009c 8900     		lsl	r1, r1, #2
 1217 009e 8A58     		ldr	r2, [r1, r2]
 1218 00a0 1A60     		str	r2, [r3]
 911:.\Generated_Source\PSoC4/CapSense_1.c ****     CyExitCriticalSection(interruptState);
 1219              		.loc 1 911 0
 1220 00a2 3B1C     		mov	r3, r7
 1221 00a4 0B33     		add	r3, r3, #11
 1222 00a6 1B78     		ldrb	r3, [r3]
 1223 00a8 181C     		mov	r0, r3
 1224 00aa FFF7FEFF 		bl	CyExitCriticalSection
 912:.\Generated_Source\PSoC4/CapSense_1.c **** }
 1225              		.loc 1 912 0
 1226 00ae BD46     		mov	sp, r7
 1227 00b0 04B0     		add	sp, sp, #16
 1228              		@ sp needed for prologue
 1229 00b2 80BD     		pop	{r7, pc}
 1230              	.L62:
 1231              		.align	2
 1232              	.L61:
 1233 00b4 00000000 		.word	CapSense_1_widgetNumber
 1234 00b8 04000840 		.word	1074266116
 1235 00bc FF3FDFFF 		.word	-2146305
 1236 00c0 00202000 		.word	2105344
 1237 00c4 0C000840 		.word	1074266124
 1238 00c8 00000000 		.word	CapSense_1_widgetResolution
 1239              		.cfi_endproc
 1240              	.LFE13:
 1241              		.size	CapSense_1_PreScan, .-CapSense_1_PreScan
 1242              		.section	.text.CapSense_1_PostScan,"ax",%progbits
 1243              		.align	2
ARM GAS  C:\Users\maxk\AppData\Local\Temp\cc0ClDlQ.s 			page 39


 1244              		.global	CapSense_1_PostScan
 1245              		.code	16
 1246              		.thumb_func
 1247              		.type	CapSense_1_PostScan, %function
 1248              	CapSense_1_PostScan:
 1249              	.LFB14:
 913:.\Generated_Source\PSoC4/CapSense_1.c **** 
 914:.\Generated_Source\PSoC4/CapSense_1.c **** 
 915:.\Generated_Source\PSoC4/CapSense_1.c **** /*******************************************************************************
 916:.\Generated_Source\PSoC4/CapSense_1.c **** * Function Name: CapSense_1_PostScan
 917:.\Generated_Source\PSoC4/CapSense_1.c **** ********************************************************************************
 918:.\Generated_Source\PSoC4/CapSense_1.c **** *
 919:.\Generated_Source\PSoC4/CapSense_1.c **** * Summary:
 920:.\Generated_Source\PSoC4/CapSense_1.c **** *  Store results of measurament in CapSense_1_SensorResult[] array,
 921:.\Generated_Source\PSoC4/CapSense_1.c **** *  sets scan sensor in none sampling state, turn off Idac(Current Source IDAC),
 922:.\Generated_Source\PSoC4/CapSense_1.c **** *  disconnect IDAC(Sink mode) or bleed resistor (Rb) and apply Vref on AMUX.
 923:.\Generated_Source\PSoC4/CapSense_1.c **** *  Only one channel designs.
 924:.\Generated_Source\PSoC4/CapSense_1.c **** *
 925:.\Generated_Source\PSoC4/CapSense_1.c **** * Parameters:
 926:.\Generated_Source\PSoC4/CapSense_1.c **** *  sensor:  Sensor number.
 927:.\Generated_Source\PSoC4/CapSense_1.c **** *
 928:.\Generated_Source\PSoC4/CapSense_1.c **** * Return:
 929:.\Generated_Source\PSoC4/CapSense_1.c **** *  None
 930:.\Generated_Source\PSoC4/CapSense_1.c **** *
 931:.\Generated_Source\PSoC4/CapSense_1.c **** * Global Variables:
 932:.\Generated_Source\PSoC4/CapSense_1.c **** *  CapSense_1_SensorRaw[] - used to store sensors raw data.
 933:.\Generated_Source\PSoC4/CapSense_1.c **** *
 934:.\Generated_Source\PSoC4/CapSense_1.c **** * Reentrant:
 935:.\Generated_Source\PSoC4/CapSense_1.c **** *  No
 936:.\Generated_Source\PSoC4/CapSense_1.c **** *
 937:.\Generated_Source\PSoC4/CapSense_1.c **** *******************************************************************************/
 938:.\Generated_Source\PSoC4/CapSense_1.c **** void CapSense_1_PostScan(uint8 sensor)
 939:.\Generated_Source\PSoC4/CapSense_1.c **** {
 1250              		.loc 1 939 0
 1251              		.cfi_startproc
 1252 0000 80B5     		push	{r7, lr}
 1253              	.LCFI36:
 1254              		.cfi_def_cfa_offset 8
 1255              		.cfi_offset 7, -8
 1256              		.cfi_offset 14, -4
 1257 0002 82B0     		sub	sp, sp, #8
 1258              	.LCFI37:
 1259              		.cfi_def_cfa_offset 16
 1260 0004 00AF     		add	r7, sp, #0
 1261              	.LCFI38:
 1262              		.cfi_def_cfa_register 7
 1263 0006 021C     		mov	r2, r0
 1264 0008 FB1D     		add	r3, r7, #7
 1265 000a 1A70     		strb	r2, [r3]
 940:.\Generated_Source\PSoC4/CapSense_1.c ****    
 941:.\Generated_Source\PSoC4/CapSense_1.c ****     /* Read SlotResult from Raw Counter */
 942:.\Generated_Source\PSoC4/CapSense_1.c ****     CapSense_1_SensorRaw[sensor]  = CapSense_1_CSD_CNT_REG;
 1266              		.loc 1 942 0
 1267 000c FB1D     		add	r3, r7, #7
 1268 000e 1A78     		ldrb	r2, [r3]
 1269 0010 064B     		ldr	r3, .L65
 1270 0012 1B68     		ldr	r3, [r3]
ARM GAS  C:\Users\maxk\AppData\Local\Temp\cc0ClDlQ.s 			page 40


 1271 0014 99B2     		uxth	r1, r3
 1272 0016 064B     		ldr	r3, .L65+4
 1273 0018 5200     		lsl	r2, r2, #1
 1274 001a D152     		strh	r1, [r2, r3]
 943:.\Generated_Source\PSoC4/CapSense_1.c ****     /* Disable Sensor */
 944:.\Generated_Source\PSoC4/CapSense_1.c ****     CapSense_1_DisableScanSlot(sensor);
 1275              		.loc 1 944 0
 1276 001c FB1D     		add	r3, r7, #7
 1277 001e 1B78     		ldrb	r3, [r3]
 1278 0020 181C     		mov	r0, r3
 1279 0022 FFF7FEFF 		bl	CapSense_1_DisableSensor
 945:.\Generated_Source\PSoC4/CapSense_1.c **** }
 1280              		.loc 1 945 0
 1281 0026 BD46     		mov	sp, r7
 1282 0028 02B0     		add	sp, sp, #8
 1283              		@ sp needed for prologue
 1284 002a 80BD     		pop	{r7, pc}
 1285              	.L66:
 1286              		.align	2
 1287              	.L65:
 1288 002c 0C000840 		.word	1074266124
 1289 0030 00000000 		.word	CapSense_1_SensorRaw
 1290              		.cfi_endproc
 1291              	.LFE14:
 1292              		.size	CapSense_1_PostScan, .-CapSense_1_PostScan
 1293              		.section	.text.CapSense_1_SetShieldDelay,"ax",%progbits
 1294              		.align	2
 1295              		.global	CapSense_1_SetShieldDelay
 1296              		.code	16
 1297              		.thumb_func
 1298              		.type	CapSense_1_SetShieldDelay, %function
 1299              	CapSense_1_SetShieldDelay:
 1300              	.LFB15:
 946:.\Generated_Source\PSoC4/CapSense_1.c **** 
 947:.\Generated_Source\PSoC4/CapSense_1.c **** 
 948:.\Generated_Source\PSoC4/CapSense_1.c **** 
 949:.\Generated_Source\PSoC4/CapSense_1.c **** /*******************************************************************************
 950:.\Generated_Source\PSoC4/CapSense_1.c **** * Function Name: CapSense_1_SetShieldDelay
 951:.\Generated_Source\PSoC4/CapSense_1.c **** ********************************************************************************
 952:.\Generated_Source\PSoC4/CapSense_1.c **** *
 953:.\Generated_Source\PSoC4/CapSense_1.c **** * Summary:
 954:.\Generated_Source\PSoC4/CapSense_1.c **** *  Sets plarity for IDAC2.
 955:.\Generated_Source\PSoC4/CapSense_1.c **** *
 956:.\Generated_Source\PSoC4/CapSense_1.c **** * Parameters:
 957:.\Generated_Source\PSoC4/CapSense_1.c **** *  delay:  shield delya value:
 958:.\Generated_Source\PSoC4/CapSense_1.c **** *                               0 - no delay
 959:.\Generated_Source\PSoC4/CapSense_1.c **** *                               1 - 1 tact delay
 960:.\Generated_Source\PSoC4/CapSense_1.c **** *                               2 - 2 tacts delay
 961:.\Generated_Source\PSoC4/CapSense_1.c **** *
 962:.\Generated_Source\PSoC4/CapSense_1.c **** * Return:
 963:.\Generated_Source\PSoC4/CapSense_1.c **** *  None
 964:.\Generated_Source\PSoC4/CapSense_1.c **** *
 965:.\Generated_Source\PSoC4/CapSense_1.c **** *******************************************************************************/
 966:.\Generated_Source\PSoC4/CapSense_1.c **** void CapSense_1_SetShieldDelay(uint32 delay)
 967:.\Generated_Source\PSoC4/CapSense_1.c **** {
 1301              		.loc 1 967 0
 1302              		.cfi_startproc
ARM GAS  C:\Users\maxk\AppData\Local\Temp\cc0ClDlQ.s 			page 41


 1303 0000 80B5     		push	{r7, lr}
 1304              	.LCFI39:
 1305              		.cfi_def_cfa_offset 8
 1306              		.cfi_offset 7, -8
 1307              		.cfi_offset 14, -4
 1308 0002 82B0     		sub	sp, sp, #8
 1309              	.LCFI40:
 1310              		.cfi_def_cfa_offset 16
 1311 0004 00AF     		add	r7, sp, #0
 1312              	.LCFI41:
 1313              		.cfi_def_cfa_register 7
 1314 0006 7860     		str	r0, [r7, #4]
 968:.\Generated_Source\PSoC4/CapSense_1.c ****     CapSense_1_CSD_CFG_REG &= ~CapSense_1_CSD_CFG_SHIELD_DELAY;
 1315              		.loc 1 968 0
 1316 0008 094B     		ldr	r3, .L69
 1317 000a 094A     		ldr	r2, .L69
 1318 000c 1168     		ldr	r1, [r2]
 1319 000e 094A     		ldr	r2, .L69+4
 1320 0010 0A40     		and	r2, r2, r1
 1321 0012 1A60     		str	r2, [r3]
 969:.\Generated_Source\PSoC4/CapSense_1.c ****     delay &= 0x03u;
 1322              		.loc 1 969 0
 1323 0014 7A68     		ldr	r2, [r7, #4]
 1324 0016 0323     		mov	r3, #3
 1325 0018 1340     		and	r3, r3, r2
 1326 001a 7B60     		str	r3, [r7, #4]
 970:.\Generated_Source\PSoC4/CapSense_1.c ****     CapSense_1_CSD_CFG_REG |= (delay << CapSense_1_CSD_CFG_SHIELD_DELAY__POS);
 1327              		.loc 1 970 0
 1328 001c 044B     		ldr	r3, .L69
 1329 001e 044A     		ldr	r2, .L69
 1330 0020 1168     		ldr	r1, [r2]
 1331 0022 7A68     		ldr	r2, [r7, #4]
 1332 0024 5202     		lsl	r2, r2, #9
 1333 0026 0A43     		orr	r2, r2, r1
 1334 0028 1A60     		str	r2, [r3]
 971:.\Generated_Source\PSoC4/CapSense_1.c **** }
 1335              		.loc 1 971 0
 1336 002a BD46     		mov	sp, r7
 1337 002c 02B0     		add	sp, sp, #8
 1338              		@ sp needed for prologue
 1339 002e 80BD     		pop	{r7, pc}
 1340              	.L70:
 1341              		.align	2
 1342              	.L69:
 1343 0030 04000840 		.word	1074266116
 1344 0034 FFF9FFFF 		.word	-1537
 1345              		.cfi_endproc
 1346              	.LFE15:
 1347              		.size	CapSense_1_SetShieldDelay, .-CapSense_1_SetShieldDelay
 1348              		.section	.text.CapSense_1_GetResolutionIndex,"ax",%progbits
 1349              		.align	2
 1350              		.global	CapSense_1_GetResolutionIndex
 1351              		.code	16
 1352              		.thumb_func
 1353              		.type	CapSense_1_GetResolutionIndex, %function
 1354              	CapSense_1_GetResolutionIndex:
 1355              	.LFB16:
ARM GAS  C:\Users\maxk\AppData\Local\Temp\cc0ClDlQ.s 			page 42


 972:.\Generated_Source\PSoC4/CapSense_1.c **** 
 973:.\Generated_Source\PSoC4/CapSense_1.c **** 
 974:.\Generated_Source\PSoC4/CapSense_1.c **** /*******************************************************************************
 975:.\Generated_Source\PSoC4/CapSense_1.c **** * Function Name: CapSense_1_GetResolutionIndex
 976:.\Generated_Source\PSoC4/CapSense_1.c **** ********************************************************************************
 977:.\Generated_Source\PSoC4/CapSense_1.c **** *
 978:.\Generated_Source\PSoC4/CapSense_1.c **** * Summary:
 979:.\Generated_Source\PSoC4/CapSense_1.c **** *  Recalculating the counter value tu the resolution.
 980:.\Generated_Source\PSoC4/CapSense_1.c **** *
 981:.\Generated_Source\PSoC4/CapSense_1.c **** * Parameters:
 982:.\Generated_Source\PSoC4/CapSense_1.c **** *	sensor: Sensor number.
 983:.\Generated_Source\PSoC4/CapSense_1.c **** *
 984:.\Generated_Source\PSoC4/CapSense_1.c **** * Return:
 985:.\Generated_Source\PSoC4/CapSense_1.c **** *  Returns scanning resolution for the selected sensor.
 986:.\Generated_Source\PSoC4/CapSense_1.c **** *
 987:.\Generated_Source\PSoC4/CapSense_1.c **** *******************************************************************************/
 988:.\Generated_Source\PSoC4/CapSense_1.c **** uint32 CapSense_1_GetResolutionIndex(uint32 sensor)
 989:.\Generated_Source\PSoC4/CapSense_1.c **** {
 1356              		.loc 1 989 0
 1357              		.cfi_startproc
 1358 0000 80B5     		push	{r7, lr}
 1359              	.LCFI42:
 1360              		.cfi_def_cfa_offset 8
 1361              		.cfi_offset 7, -8
 1362              		.cfi_offset 14, -4
 1363 0002 86B0     		sub	sp, sp, #24
 1364              	.LCFI43:
 1365              		.cfi_def_cfa_offset 32
 1366 0004 00AF     		add	r7, sp, #0
 1367              	.LCFI44:
 1368              		.cfi_def_cfa_register 7
 1369 0006 7860     		str	r0, [r7, #4]
 990:.\Generated_Source\PSoC4/CapSense_1.c **** 	uint32 widgetResolution;
 991:.\Generated_Source\PSoC4/CapSense_1.c **** 	uint32 result = 0u;
 1370              		.loc 1 991 0
 1371 0008 0023     		mov	r3, #0
 1372 000a FB60     		str	r3, [r7, #12]
 992:.\Generated_Source\PSoC4/CapSense_1.c **** 	uint32 mask = 1u;
 1373              		.loc 1 992 0
 1374 000c 0123     		mov	r3, #1
 1375 000e 3B61     		str	r3, [r7, #16]
 993:.\Generated_Source\PSoC4/CapSense_1.c **** 	
 994:.\Generated_Source\PSoC4/CapSense_1.c **** 	uint8 widget;
 995:.\Generated_Source\PSoC4/CapSense_1.c **** 	
 996:.\Generated_Source\PSoC4/CapSense_1.c **** 	widget = CapSense_1_widgetNumber[sensor];
 1376              		.loc 1 996 0
 1377 0010 7A68     		ldr	r2, [r7, #4]
 1378 0012 3B1C     		mov	r3, r7
 1379 0014 1733     		add	r3, r3, #23
 1380 0016 0F49     		ldr	r1, .L75
 1381 0018 8A5C     		ldrb	r2, [r1, r2]
 1382 001a 1A70     		strb	r2, [r3]
 997:.\Generated_Source\PSoC4/CapSense_1.c **** 	widgetResolution = CapSense_1_widgetResolution[widget];
 1383              		.loc 1 997 0
 1384 001c 3B1C     		mov	r3, r7
 1385 001e 1733     		add	r3, r3, #23
 1386 0020 1A78     		ldrb	r2, [r3]
ARM GAS  C:\Users\maxk\AppData\Local\Temp\cc0ClDlQ.s 			page 43


 1387 0022 0D4B     		ldr	r3, .L75+4
 1388 0024 9200     		lsl	r2, r2, #2
 1389 0026 D358     		ldr	r3, [r2, r3]
 1390 0028 BB60     		str	r3, [r7, #8]
 998:.\Generated_Source\PSoC4/CapSense_1.c **** 	
 999:.\Generated_Source\PSoC4/CapSense_1.c **** 	widgetResolution >>= 16u;
 1391              		.loc 1 999 0
 1392 002a BB68     		ldr	r3, [r7, #8]
 1393 002c 1B0C     		lsr	r3, r3, #16
 1394 002e BB60     		str	r3, [r7, #8]
1000:.\Generated_Source\PSoC4/CapSense_1.c **** 	
1001:.\Generated_Source\PSoC4/CapSense_1.c **** 	while(widgetResolution & mask)
 1395              		.loc 1 1001 0
 1396 0030 05E0     		b	.L72
 1397              	.L73:
1002:.\Generated_Source\PSoC4/CapSense_1.c **** 	{
1003:.\Generated_Source\PSoC4/CapSense_1.c **** 		result++;
 1398              		.loc 1 1003 0
 1399 0032 FB68     		ldr	r3, [r7, #12]
 1400 0034 0133     		add	r3, r3, #1
 1401 0036 FB60     		str	r3, [r7, #12]
1004:.\Generated_Source\PSoC4/CapSense_1.c **** 		mask <<= 1u;
 1402              		.loc 1 1004 0
 1403 0038 3B69     		ldr	r3, [r7, #16]
 1404 003a 5B00     		lsl	r3, r3, #1
 1405 003c 3B61     		str	r3, [r7, #16]
 1406              	.L72:
 1407              		.loc 1 1001 0
 1408 003e BA68     		ldr	r2, [r7, #8]
 1409 0040 3B69     		ldr	r3, [r7, #16]
 1410 0042 1340     		and	r3, r3, r2
 1411 0044 002B     		cmp	r3, #0
 1412 0046 F4D1     		bne	.L73
1005:.\Generated_Source\PSoC4/CapSense_1.c **** 	}
1006:.\Generated_Source\PSoC4/CapSense_1.c **** 	
1007:.\Generated_Source\PSoC4/CapSense_1.c **** 	return(result);
 1413              		.loc 1 1007 0
 1414 0048 FB68     		ldr	r3, [r7, #12]
1008:.\Generated_Source\PSoC4/CapSense_1.c **** }
 1415              		.loc 1 1008 0
 1416 004a 181C     		mov	r0, r3
 1417 004c BD46     		mov	sp, r7
 1418 004e 06B0     		add	sp, sp, #24
 1419              		@ sp needed for prologue
 1420 0050 80BD     		pop	{r7, pc}
 1421              	.L76:
 1422 0052 C046     		.align	2
 1423              	.L75:
 1424 0054 00000000 		.word	CapSense_1_widgetNumber
 1425 0058 00000000 		.word	CapSense_1_widgetResolution
 1426              		.cfi_endproc
 1427              	.LFE16:
 1428              		.size	CapSense_1_GetResolutionIndex, .-CapSense_1_GetResolutionIndex
 1429              		.section	.text.CapSense_1_Calc_PRS_Resolution,"ax",%progbits
 1430              		.align	2
 1431              		.global	CapSense_1_Calc_PRS_Resolution
 1432              		.code	16
ARM GAS  C:\Users\maxk\AppData\Local\Temp\cc0ClDlQ.s 			page 44


 1433              		.thumb_func
 1434              		.type	CapSense_1_Calc_PRS_Resolution, %function
 1435              	CapSense_1_Calc_PRS_Resolution:
 1436              	.LFB17:
1009:.\Generated_Source\PSoC4/CapSense_1.c **** 
1010:.\Generated_Source\PSoC4/CapSense_1.c **** 
1011:.\Generated_Source\PSoC4/CapSense_1.c **** /*******************************************************************************
1012:.\Generated_Source\PSoC4/CapSense_1.c **** * Function Name: CapSense_1_Calc_PRS_Resolution
1013:.\Generated_Source\PSoC4/CapSense_1.c **** ********************************************************************************
1014:.\Generated_Source\PSoC4/CapSense_1.c **** *
1015:.\Generated_Source\PSoC4/CapSense_1.c **** * Summary:
1016:.\Generated_Source\PSoC4/CapSense_1.c **** *  Calculates the PRS resolution if the PRS-Auto mode is selected.
1017:.\Generated_Source\PSoC4/CapSense_1.c **** *
1018:.\Generated_Source\PSoC4/CapSense_1.c **** * Parameters:
1019:.\Generated_Source\PSoC4/CapSense_1.c **** *  None
1020:.\Generated_Source\PSoC4/CapSense_1.c **** *
1021:.\Generated_Source\PSoC4/CapSense_1.c **** * Return:
1022:.\Generated_Source\PSoC4/CapSense_1.c **** *  None
1023:.\Generated_Source\PSoC4/CapSense_1.c **** *
1024:.\Generated_Source\PSoC4/CapSense_1.c **** *******************************************************************************/
1025:.\Generated_Source\PSoC4/CapSense_1.c **** void CapSense_1_Calc_PRS_Resolution(void)
1026:.\Generated_Source\PSoC4/CapSense_1.c **** {
 1437              		.loc 1 1026 0
 1438              		.cfi_startproc
 1439 0000 80B5     		push	{r7, lr}
 1440              	.LCFI45:
 1441              		.cfi_def_cfa_offset 8
 1442              		.cfi_offset 7, -8
 1443              		.cfi_offset 14, -4
 1444 0002 84B0     		sub	sp, sp, #16
 1445              	.LCFI46:
 1446              		.cfi_def_cfa_offset 24
 1447 0004 00AF     		add	r7, sp, #0
 1448              	.LCFI47:
 1449              		.cfi_def_cfa_register 7
1027:.\Generated_Source\PSoC4/CapSense_1.c **** 	uint32 curSensor;
1028:.\Generated_Source\PSoC4/CapSense_1.c **** 	uint32 widgetResolution;
1029:.\Generated_Source\PSoC4/CapSense_1.c ****     
1030:.\Generated_Source\PSoC4/CapSense_1.c ****     uint8 senseClk;
1031:.\Generated_Source\PSoC4/CapSense_1.c ****     uint8 sampleClk;
1032:.\Generated_Source\PSoC4/CapSense_1.c **** 	
1033:.\Generated_Source\PSoC4/CapSense_1.c ****     for(curSensor = 0u; curSensor < CapSense_1_TOTAL_SENSOR_COUNT; curSensor++)
 1450              		.loc 1 1033 0
 1451 0006 0023     		mov	r3, #0
 1452 0008 7B60     		str	r3, [r7, #4]
 1453 000a 34E0     		b	.L78
 1454              	.L82:
1034:.\Generated_Source\PSoC4/CapSense_1.c **** 	{
1035:.\Generated_Source\PSoC4/CapSense_1.c ****     
1036:.\Generated_Source\PSoC4/CapSense_1.c ****         #if ( (CapSense_1_MULTIPLE_FREQUENCY_SET) || \
1037:.\Generated_Source\PSoC4/CapSense_1.c ****               (CapSense_1_TUNING_METHOD == CapSense_1_AUTO_TUNING) )
1038:.\Generated_Source\PSoC4/CapSense_1.c ****             senseClk = CapSense_1_Clk1DividerVal[curSensor];
1039:.\Generated_Source\PSoC4/CapSense_1.c ****             sampleClk = CapSense_1_Clk2DividerVal[curSensor];
1040:.\Generated_Source\PSoC4/CapSense_1.c ****         #else
1041:.\Generated_Source\PSoC4/CapSense_1.c ****             senseClk = CapSense_1_Clk1DividerVal;
 1455              		.loc 1 1041 0
 1456 000c 3B1C     		mov	r3, r7
ARM GAS  C:\Users\maxk\AppData\Local\Temp\cc0ClDlQ.s 			page 45


 1457 000e 0E33     		add	r3, r3, #14
 1458 0010 1C4A     		ldr	r2, .L84
 1459 0012 1278     		ldrb	r2, [r2]
 1460 0014 1A70     		strb	r2, [r3]
1042:.\Generated_Source\PSoC4/CapSense_1.c ****             sampleClk = CapSense_1_Clk2DividerVal;
 1461              		.loc 1 1042 0
 1462 0016 3B1C     		mov	r3, r7
 1463 0018 0F33     		add	r3, r3, #15
 1464 001a 1B4A     		ldr	r2, .L84+4
 1465 001c 1278     		ldrb	r2, [r2]
 1466 001e 1A70     		strb	r2, [r3]
1043:.\Generated_Source\PSoC4/CapSense_1.c ****         #endif /* ( (CapSense_1_MULTIPLE_FREQUENCY_SET) || \
1044:.\Generated_Source\PSoC4/CapSense_1.c ****                     (CapSense_1_TUNING_METHOD == CapSense_1_AUTO_TUNING) ) */
1045:.\Generated_Source\PSoC4/CapSense_1.c ****         
1046:.\Generated_Source\PSoC4/CapSense_1.c **** 		if(senseClk > 1u)
 1467              		.loc 1 1046 0
 1468 0020 3B1C     		mov	r3, r7
 1469 0022 0E33     		add	r3, r3, #14
 1470 0024 1B78     		ldrb	r3, [r3]
 1471 0026 012B     		cmp	r3, #1
 1472 0028 06D9     		bls	.L79
1047:.\Generated_Source\PSoC4/CapSense_1.c **** 		{
1048:.\Generated_Source\PSoC4/CapSense_1.c **** 			senseClk >>= 1u;
 1473              		.loc 1 1048 0
 1474 002a 3B1C     		mov	r3, r7
 1475 002c 0E33     		add	r3, r3, #14
 1476 002e 3A1C     		mov	r2, r7
 1477 0030 0E32     		add	r2, r2, #14
 1478 0032 1278     		ldrb	r2, [r2]
 1479 0034 5208     		lsr	r2, r2, #1
 1480 0036 1A70     		strb	r2, [r3]
 1481              	.L79:
1049:.\Generated_Source\PSoC4/CapSense_1.c **** 		}
1050:.\Generated_Source\PSoC4/CapSense_1.c **** 		
1051:.\Generated_Source\PSoC4/CapSense_1.c **** 		widgetResolution = CapSense_1_GetResolutionIndex(curSensor);
 1482              		.loc 1 1051 0
 1483 0038 7B68     		ldr	r3, [r7, #4]
 1484 003a 181C     		mov	r0, r3
 1485 003c FFF7FEFF 		bl	CapSense_1_GetResolutionIndex
 1486 0040 031C     		mov	r3, r0
 1487 0042 BB60     		str	r3, [r7, #8]
1052:.\Generated_Source\PSoC4/CapSense_1.c **** 		
1053:.\Generated_Source\PSoC4/CapSense_1.c **** 		if((sampleClk + widgetResolution) > (12u + senseClk))
 1488              		.loc 1 1053 0
 1489 0044 3B1C     		mov	r3, r7
 1490 0046 0F33     		add	r3, r3, #15
 1491 0048 1A78     		ldrb	r2, [r3]
 1492 004a BB68     		ldr	r3, [r7, #8]
 1493 004c D218     		add	r2, r2, r3
 1494 004e 3B1C     		mov	r3, r7
 1495 0050 0E33     		add	r3, r3, #14
 1496 0052 1B78     		ldrb	r3, [r3]
 1497 0054 0C33     		add	r3, r3, #12
 1498 0056 9A42     		cmp	r2, r3
 1499 0058 05D9     		bls	.L80
1054:.\Generated_Source\PSoC4/CapSense_1.c **** 		{
1055:.\Generated_Source\PSoC4/CapSense_1.c **** 			CapSense_1_PRSResolutionTbl[curSensor] = CapSense_1_CSD_PRS_12_BIT;
ARM GAS  C:\Users\maxk\AppData\Local\Temp\cc0ClDlQ.s 			page 46


 1500              		.loc 1 1055 0
 1501 005a 7A68     		ldr	r2, [r7, #4]
 1502 005c 0B4B     		ldr	r3, .L84+8
 1503 005e 9200     		lsl	r2, r2, #2
 1504 0060 8021     		mov	r1, #128
 1505 0062 D150     		str	r1, [r2, r3]
 1506 0064 04E0     		b	.L81
 1507              	.L80:
1056:.\Generated_Source\PSoC4/CapSense_1.c **** 		}
1057:.\Generated_Source\PSoC4/CapSense_1.c **** 		else
1058:.\Generated_Source\PSoC4/CapSense_1.c **** 		{
1059:.\Generated_Source\PSoC4/CapSense_1.c **** 			CapSense_1_PRSResolutionTbl[curSensor] = CapSense_1_CSD_PRS_8_BIT;
 1508              		.loc 1 1059 0
 1509 0066 7A68     		ldr	r2, [r7, #4]
 1510 0068 084B     		ldr	r3, .L84+8
 1511 006a 9200     		lsl	r2, r2, #2
 1512 006c 0021     		mov	r1, #0
 1513 006e D150     		str	r1, [r2, r3]
 1514              	.L81:
 1515              		.loc 1 1033 0
 1516 0070 7B68     		ldr	r3, [r7, #4]
 1517 0072 0133     		add	r3, r3, #1
 1518 0074 7B60     		str	r3, [r7, #4]
 1519              	.L78:
 1520 0076 7B68     		ldr	r3, [r7, #4]
 1521 0078 042B     		cmp	r3, #4
 1522 007a C7D9     		bls	.L82
1060:.\Generated_Source\PSoC4/CapSense_1.c **** 		}
1061:.\Generated_Source\PSoC4/CapSense_1.c **** 	}
1062:.\Generated_Source\PSoC4/CapSense_1.c **** }
 1523              		.loc 1 1062 0
 1524 007c BD46     		mov	sp, r7
 1525 007e 04B0     		add	sp, sp, #16
 1526              		@ sp needed for prologue
 1527 0080 80BD     		pop	{r7, pc}
 1528              	.L85:
 1529 0082 C046     		.align	2
 1530              	.L84:
 1531 0084 00000000 		.word	CapSense_1_Clk1DividerVal
 1532 0088 00000000 		.word	CapSense_1_Clk2DividerVal
 1533 008c 00000000 		.word	CapSense_1_PRSResolutionTbl
 1534              		.cfi_endproc
 1535              	.LFE17:
 1536              		.size	CapSense_1_Calc_PRS_Resolution, .-CapSense_1_Calc_PRS_Resolution
 1537              		.text
 1538              	.Letext0:
 1539              		.section	.debug_loc,"",%progbits
 1540              	.Ldebug_loc0:
 1541              	.LLST0:
 1542 0000 00000000 		.4byte	.LFB0
 1543 0004 02000000 		.4byte	.LCFI0
 1544 0008 0100     		.2byte	0x1
 1545 000a 5D       		.byte	0x5d
 1546 000b 02000000 		.4byte	.LCFI0
 1547 000f 04000000 		.4byte	.LCFI1
 1548 0013 0200     		.2byte	0x2
 1549 0015 7D       		.byte	0x7d
ARM GAS  C:\Users\maxk\AppData\Local\Temp\cc0ClDlQ.s 			page 47


 1550 0016 08       		.sleb128 8
 1551 0017 04000000 		.4byte	.LCFI1
 1552 001b 94000000 		.4byte	.LFE0
 1553 001f 0200     		.2byte	0x2
 1554 0021 77       		.byte	0x77
 1555 0022 08       		.sleb128 8
 1556 0023 00000000 		.4byte	0x0
 1557 0027 00000000 		.4byte	0x0
 1558              	.LLST1:
 1559 002b 00000000 		.4byte	.LFB1
 1560 002f 02000000 		.4byte	.LCFI2
 1561 0033 0100     		.2byte	0x1
 1562 0035 5D       		.byte	0x5d
 1563 0036 02000000 		.4byte	.LCFI2
 1564 003a 04000000 		.4byte	.LCFI3
 1565 003e 0200     		.2byte	0x2
 1566 0040 7D       		.byte	0x7d
 1567 0041 08       		.sleb128 8
 1568 0042 04000000 		.4byte	.LCFI3
 1569 0046 4C000000 		.4byte	.LFE1
 1570 004a 0200     		.2byte	0x2
 1571 004c 77       		.byte	0x77
 1572 004d 08       		.sleb128 8
 1573 004e 00000000 		.4byte	0x0
 1574 0052 00000000 		.4byte	0x0
 1575              	.LLST2:
 1576 0056 00000000 		.4byte	.LFB2
 1577 005a 02000000 		.4byte	.LCFI4
 1578 005e 0100     		.2byte	0x1
 1579 0060 5D       		.byte	0x5d
 1580 0061 02000000 		.4byte	.LCFI4
 1581 0065 04000000 		.4byte	.LCFI5
 1582 0069 0200     		.2byte	0x2
 1583 006b 7D       		.byte	0x7d
 1584 006c 08       		.sleb128 8
 1585 006d 04000000 		.4byte	.LCFI5
 1586 0071 34000000 		.4byte	.LFE2
 1587 0075 0200     		.2byte	0x2
 1588 0077 77       		.byte	0x77
 1589 0078 08       		.sleb128 8
 1590 0079 00000000 		.4byte	0x0
 1591 007d 00000000 		.4byte	0x0
 1592              	.LLST3:
 1593 0081 00000000 		.4byte	.LFB3
 1594 0085 02000000 		.4byte	.LCFI6
 1595 0089 0100     		.2byte	0x1
 1596 008b 5D       		.byte	0x5d
 1597 008c 02000000 		.4byte	.LCFI6
 1598 0090 04000000 		.4byte	.LCFI7
 1599 0094 0200     		.2byte	0x2
 1600 0096 7D       		.byte	0x7d
 1601 0097 08       		.sleb128 8
 1602 0098 04000000 		.4byte	.LCFI7
 1603 009c 1A000000 		.4byte	.LFE3
 1604 00a0 0200     		.2byte	0x2
 1605 00a2 77       		.byte	0x77
 1606 00a3 08       		.sleb128 8
ARM GAS  C:\Users\maxk\AppData\Local\Temp\cc0ClDlQ.s 			page 48


 1607 00a4 00000000 		.4byte	0x0
 1608 00a8 00000000 		.4byte	0x0
 1609              	.LLST4:
 1610 00ac 00000000 		.4byte	.LFB4
 1611 00b0 02000000 		.4byte	.LCFI8
 1612 00b4 0100     		.2byte	0x1
 1613 00b6 5D       		.byte	0x5d
 1614 00b7 02000000 		.4byte	.LCFI8
 1615 00bb 04000000 		.4byte	.LCFI9
 1616 00bf 0200     		.2byte	0x2
 1617 00c1 7D       		.byte	0x7d
 1618 00c2 08       		.sleb128 8
 1619 00c3 04000000 		.4byte	.LCFI9
 1620 00c7 06000000 		.4byte	.LCFI10
 1621 00cb 0200     		.2byte	0x2
 1622 00cd 7D       		.byte	0x7d
 1623 00ce 18       		.sleb128 24
 1624 00cf 06000000 		.4byte	.LCFI10
 1625 00d3 68000000 		.4byte	.LFE4
 1626 00d7 0200     		.2byte	0x2
 1627 00d9 77       		.byte	0x77
 1628 00da 18       		.sleb128 24
 1629 00db 00000000 		.4byte	0x0
 1630 00df 00000000 		.4byte	0x0
 1631              	.LLST5:
 1632 00e3 00000000 		.4byte	.LFB5
 1633 00e7 02000000 		.4byte	.LCFI11
 1634 00eb 0100     		.2byte	0x1
 1635 00ed 5D       		.byte	0x5d
 1636 00ee 02000000 		.4byte	.LCFI11
 1637 00f2 04000000 		.4byte	.LCFI12
 1638 00f6 0200     		.2byte	0x2
 1639 00f8 7D       		.byte	0x7d
 1640 00f9 08       		.sleb128 8
 1641 00fa 04000000 		.4byte	.LCFI12
 1642 00fe 06000000 		.4byte	.LCFI13
 1643 0102 0200     		.2byte	0x2
 1644 0104 7D       		.byte	0x7d
 1645 0105 18       		.sleb128 24
 1646 0106 06000000 		.4byte	.LCFI13
 1647 010a 64000000 		.4byte	.LFE5
 1648 010e 0200     		.2byte	0x2
 1649 0110 77       		.byte	0x77
 1650 0111 18       		.sleb128 24
 1651 0112 00000000 		.4byte	0x0
 1652 0116 00000000 		.4byte	0x0
 1653              	.LLST6:
 1654 011a 00000000 		.4byte	.LFB6
 1655 011e 02000000 		.4byte	.LCFI14
 1656 0122 0100     		.2byte	0x1
 1657 0124 5D       		.byte	0x5d
 1658 0125 02000000 		.4byte	.LCFI14
 1659 0129 04000000 		.4byte	.LCFI15
 1660 012d 0200     		.2byte	0x2
 1661 012f 7D       		.byte	0x7d
 1662 0130 08       		.sleb128 8
 1663 0131 04000000 		.4byte	.LCFI15
ARM GAS  C:\Users\maxk\AppData\Local\Temp\cc0ClDlQ.s 			page 49


 1664 0135 06000000 		.4byte	.LCFI16
 1665 0139 0200     		.2byte	0x2
 1666 013b 7D       		.byte	0x7d
 1667 013c 10       		.sleb128 16
 1668 013d 06000000 		.4byte	.LCFI16
 1669 0141 3C000000 		.4byte	.LFE6
 1670 0145 0200     		.2byte	0x2
 1671 0147 77       		.byte	0x77
 1672 0148 10       		.sleb128 16
 1673 0149 00000000 		.4byte	0x0
 1674 014d 00000000 		.4byte	0x0
 1675              	.LLST7:
 1676 0151 00000000 		.4byte	.LFB7
 1677 0155 02000000 		.4byte	.LCFI17
 1678 0159 0100     		.2byte	0x1
 1679 015b 5D       		.byte	0x5d
 1680 015c 02000000 		.4byte	.LCFI17
 1681 0160 04000000 		.4byte	.LCFI18
 1682 0164 0200     		.2byte	0x2
 1683 0166 7D       		.byte	0x7d
 1684 0167 08       		.sleb128 8
 1685 0168 04000000 		.4byte	.LCFI18
 1686 016c 58000000 		.4byte	.LFE7
 1687 0170 0200     		.2byte	0x2
 1688 0172 77       		.byte	0x77
 1689 0173 08       		.sleb128 8
 1690 0174 00000000 		.4byte	0x0
 1691 0178 00000000 		.4byte	0x0
 1692              	.LLST8:
 1693 017c 00000000 		.4byte	.LFB8
 1694 0180 02000000 		.4byte	.LCFI19
 1695 0184 0100     		.2byte	0x1
 1696 0186 5D       		.byte	0x5d
 1697 0187 02000000 		.4byte	.LCFI19
 1698 018b 04000000 		.4byte	.LCFI20
 1699 018f 0200     		.2byte	0x2
 1700 0191 7D       		.byte	0x7d
 1701 0192 08       		.sleb128 8
 1702 0193 04000000 		.4byte	.LCFI20
 1703 0197 28000000 		.4byte	.LFE8
 1704 019b 0200     		.2byte	0x2
 1705 019d 77       		.byte	0x77
 1706 019e 08       		.sleb128 8
 1707 019f 00000000 		.4byte	0x0
 1708 01a3 00000000 		.4byte	0x0
 1709              	.LLST9:
 1710 01a7 00000000 		.4byte	.LFB9
 1711 01ab 02000000 		.4byte	.LCFI21
 1712 01af 0100     		.2byte	0x1
 1713 01b1 5D       		.byte	0x5d
 1714 01b2 02000000 		.4byte	.LCFI21
 1715 01b6 04000000 		.4byte	.LCFI22
 1716 01ba 0200     		.2byte	0x2
 1717 01bc 7D       		.byte	0x7d
 1718 01bd 08       		.sleb128 8
 1719 01be 04000000 		.4byte	.LCFI22
 1720 01c2 06000000 		.4byte	.LCFI23
ARM GAS  C:\Users\maxk\AppData\Local\Temp\cc0ClDlQ.s 			page 50


 1721 01c6 0200     		.2byte	0x2
 1722 01c8 7D       		.byte	0x7d
 1723 01c9 10       		.sleb128 16
 1724 01ca 06000000 		.4byte	.LCFI23
 1725 01ce 24000000 		.4byte	.LFE9
 1726 01d2 0200     		.2byte	0x2
 1727 01d4 77       		.byte	0x77
 1728 01d5 10       		.sleb128 16
 1729 01d6 00000000 		.4byte	0x0
 1730 01da 00000000 		.4byte	0x0
 1731              	.LLST10:
 1732 01de 00000000 		.4byte	.LFB10
 1733 01e2 02000000 		.4byte	.LCFI24
 1734 01e6 0100     		.2byte	0x1
 1735 01e8 5D       		.byte	0x5d
 1736 01e9 02000000 		.4byte	.LCFI24
 1737 01ed 04000000 		.4byte	.LCFI25
 1738 01f1 0200     		.2byte	0x2
 1739 01f3 7D       		.byte	0x7d
 1740 01f4 08       		.sleb128 8
 1741 01f5 04000000 		.4byte	.LCFI25
 1742 01f9 06000000 		.4byte	.LCFI26
 1743 01fd 0200     		.2byte	0x2
 1744 01ff 7D       		.byte	0x7d
 1745 0200 10       		.sleb128 16
 1746 0201 06000000 		.4byte	.LCFI26
 1747 0205 30000000 		.4byte	.LFE10
 1748 0209 0200     		.2byte	0x2
 1749 020b 77       		.byte	0x77
 1750 020c 10       		.sleb128 16
 1751 020d 00000000 		.4byte	0x0
 1752 0211 00000000 		.4byte	0x0
 1753              	.LLST11:
 1754 0215 00000000 		.4byte	.LFB11
 1755 0219 02000000 		.4byte	.LCFI27
 1756 021d 0100     		.2byte	0x1
 1757 021f 5D       		.byte	0x5d
 1758 0220 02000000 		.4byte	.LCFI27
 1759 0224 04000000 		.4byte	.LCFI28
 1760 0228 0200     		.2byte	0x2
 1761 022a 7D       		.byte	0x7d
 1762 022b 0C       		.sleb128 12
 1763 022c 04000000 		.4byte	.LCFI28
 1764 0230 06000000 		.4byte	.LCFI29
 1765 0234 0200     		.2byte	0x2
 1766 0236 7D       		.byte	0x7d
 1767 0237 28       		.sleb128 40
 1768 0238 06000000 		.4byte	.LCFI29
 1769 023c B8000000 		.4byte	.LFE11
 1770 0240 0200     		.2byte	0x2
 1771 0242 77       		.byte	0x77
 1772 0243 28       		.sleb128 40
 1773 0244 00000000 		.4byte	0x0
 1774 0248 00000000 		.4byte	0x0
 1775              	.LLST12:
 1776 024c 00000000 		.4byte	.LFB12
 1777 0250 02000000 		.4byte	.LCFI30
ARM GAS  C:\Users\maxk\AppData\Local\Temp\cc0ClDlQ.s 			page 51


 1778 0254 0100     		.2byte	0x1
 1779 0256 5D       		.byte	0x5d
 1780 0257 02000000 		.4byte	.LCFI30
 1781 025b 04000000 		.4byte	.LCFI31
 1782 025f 0200     		.2byte	0x2
 1783 0261 7D       		.byte	0x7d
 1784 0262 0C       		.sleb128 12
 1785 0263 04000000 		.4byte	.LCFI31
 1786 0267 06000000 		.4byte	.LCFI32
 1787 026b 0200     		.2byte	0x2
 1788 026d 7D       		.byte	0x7d
 1789 026e 28       		.sleb128 40
 1790 026f 06000000 		.4byte	.LCFI32
 1791 0273 E4000000 		.4byte	.LFE12
 1792 0277 0200     		.2byte	0x2
 1793 0279 77       		.byte	0x77
 1794 027a 28       		.sleb128 40
 1795 027b 00000000 		.4byte	0x0
 1796 027f 00000000 		.4byte	0x0
 1797              	.LLST13:
 1798 0283 00000000 		.4byte	.LFB13
 1799 0287 02000000 		.4byte	.LCFI33
 1800 028b 0100     		.2byte	0x1
 1801 028d 5D       		.byte	0x5d
 1802 028e 02000000 		.4byte	.LCFI33
 1803 0292 04000000 		.4byte	.LCFI34
 1804 0296 0200     		.2byte	0x2
 1805 0298 7D       		.byte	0x7d
 1806 0299 08       		.sleb128 8
 1807 029a 04000000 		.4byte	.LCFI34
 1808 029e 06000000 		.4byte	.LCFI35
 1809 02a2 0200     		.2byte	0x2
 1810 02a4 7D       		.byte	0x7d
 1811 02a5 18       		.sleb128 24
 1812 02a6 06000000 		.4byte	.LCFI35
 1813 02aa CC000000 		.4byte	.LFE13
 1814 02ae 0200     		.2byte	0x2
 1815 02b0 77       		.byte	0x77
 1816 02b1 18       		.sleb128 24
 1817 02b2 00000000 		.4byte	0x0
 1818 02b6 00000000 		.4byte	0x0
 1819              	.LLST14:
 1820 02ba 00000000 		.4byte	.LFB14
 1821 02be 02000000 		.4byte	.LCFI36
 1822 02c2 0100     		.2byte	0x1
 1823 02c4 5D       		.byte	0x5d
 1824 02c5 02000000 		.4byte	.LCFI36
 1825 02c9 04000000 		.4byte	.LCFI37
 1826 02cd 0200     		.2byte	0x2
 1827 02cf 7D       		.byte	0x7d
 1828 02d0 08       		.sleb128 8
 1829 02d1 04000000 		.4byte	.LCFI37
 1830 02d5 06000000 		.4byte	.LCFI38
 1831 02d9 0200     		.2byte	0x2
 1832 02db 7D       		.byte	0x7d
 1833 02dc 10       		.sleb128 16
 1834 02dd 06000000 		.4byte	.LCFI38
ARM GAS  C:\Users\maxk\AppData\Local\Temp\cc0ClDlQ.s 			page 52


 1835 02e1 34000000 		.4byte	.LFE14
 1836 02e5 0200     		.2byte	0x2
 1837 02e7 77       		.byte	0x77
 1838 02e8 10       		.sleb128 16
 1839 02e9 00000000 		.4byte	0x0
 1840 02ed 00000000 		.4byte	0x0
 1841              	.LLST15:
 1842 02f1 00000000 		.4byte	.LFB15
 1843 02f5 02000000 		.4byte	.LCFI39
 1844 02f9 0100     		.2byte	0x1
 1845 02fb 5D       		.byte	0x5d
 1846 02fc 02000000 		.4byte	.LCFI39
 1847 0300 04000000 		.4byte	.LCFI40
 1848 0304 0200     		.2byte	0x2
 1849 0306 7D       		.byte	0x7d
 1850 0307 08       		.sleb128 8
 1851 0308 04000000 		.4byte	.LCFI40
 1852 030c 06000000 		.4byte	.LCFI41
 1853 0310 0200     		.2byte	0x2
 1854 0312 7D       		.byte	0x7d
 1855 0313 10       		.sleb128 16
 1856 0314 06000000 		.4byte	.LCFI41
 1857 0318 38000000 		.4byte	.LFE15
 1858 031c 0200     		.2byte	0x2
 1859 031e 77       		.byte	0x77
 1860 031f 10       		.sleb128 16
 1861 0320 00000000 		.4byte	0x0
 1862 0324 00000000 		.4byte	0x0
 1863              	.LLST16:
 1864 0328 00000000 		.4byte	.LFB16
 1865 032c 02000000 		.4byte	.LCFI42
 1866 0330 0100     		.2byte	0x1
 1867 0332 5D       		.byte	0x5d
 1868 0333 02000000 		.4byte	.LCFI42
 1869 0337 04000000 		.4byte	.LCFI43
 1870 033b 0200     		.2byte	0x2
 1871 033d 7D       		.byte	0x7d
 1872 033e 08       		.sleb128 8
 1873 033f 04000000 		.4byte	.LCFI43
 1874 0343 06000000 		.4byte	.LCFI44
 1875 0347 0200     		.2byte	0x2
 1876 0349 7D       		.byte	0x7d
 1877 034a 20       		.sleb128 32
 1878 034b 06000000 		.4byte	.LCFI44
 1879 034f 5C000000 		.4byte	.LFE16
 1880 0353 0200     		.2byte	0x2
 1881 0355 77       		.byte	0x77
 1882 0356 20       		.sleb128 32
 1883 0357 00000000 		.4byte	0x0
 1884 035b 00000000 		.4byte	0x0
 1885              	.LLST17:
 1886 035f 00000000 		.4byte	.LFB17
 1887 0363 02000000 		.4byte	.LCFI45
 1888 0367 0100     		.2byte	0x1
 1889 0369 5D       		.byte	0x5d
 1890 036a 02000000 		.4byte	.LCFI45
 1891 036e 04000000 		.4byte	.LCFI46
ARM GAS  C:\Users\maxk\AppData\Local\Temp\cc0ClDlQ.s 			page 53


 1892 0372 0200     		.2byte	0x2
 1893 0374 7D       		.byte	0x7d
 1894 0375 08       		.sleb128 8
 1895 0376 04000000 		.4byte	.LCFI46
 1896 037a 06000000 		.4byte	.LCFI47
 1897 037e 0200     		.2byte	0x2
 1898 0380 7D       		.byte	0x7d
 1899 0381 18       		.sleb128 24
 1900 0382 06000000 		.4byte	.LCFI47
 1901 0386 90000000 		.4byte	.LFE17
 1902 038a 0200     		.2byte	0x2
 1903 038c 77       		.byte	0x77
 1904 038d 18       		.sleb128 24
 1905 038e 00000000 		.4byte	0x0
 1906 0392 00000000 		.4byte	0x0
 1907              		.file 2 ".\\Generated_Source\\PSoC4\\/cytypes.h"
 1908              		.section	.debug_info
 1909 0000 70060000 		.4byte	0x670
 1910 0004 0200     		.2byte	0x2
 1911 0006 00000000 		.4byte	.Ldebug_abbrev0
 1912 000a 04       		.byte	0x4
 1913 000b 01       		.uleb128 0x1
 1914 000c A3000000 		.4byte	.LASF68
 1915 0010 01       		.byte	0x1
 1916 0011 EF040000 		.4byte	.LASF69
 1917 0015 0E030000 		.4byte	.LASF70
 1918 0019 00000000 		.4byte	0x0
 1919 001d 00000000 		.4byte	0x0
 1920 0021 00000000 		.4byte	.Ldebug_ranges0+0x0
 1921 0025 00000000 		.4byte	.Ldebug_line0
 1922 0029 02       		.uleb128 0x2
 1923 002a 01       		.byte	0x1
 1924 002b 06       		.byte	0x6
 1925 002c E3000000 		.4byte	.LASF0
 1926 0030 02       		.uleb128 0x2
 1927 0031 01       		.byte	0x1
 1928 0032 08       		.byte	0x8
 1929 0033 8F030000 		.4byte	.LASF1
 1930 0037 02       		.uleb128 0x2
 1931 0038 02       		.byte	0x2
 1932 0039 05       		.byte	0x5
 1933 003a B1030000 		.4byte	.LASF2
 1934 003e 02       		.uleb128 0x2
 1935 003f 02       		.byte	0x2
 1936 0040 07       		.byte	0x7
 1937 0041 4A020000 		.4byte	.LASF3
 1938 0045 02       		.uleb128 0x2
 1939 0046 04       		.byte	0x4
 1940 0047 05       		.byte	0x5
 1941 0048 33010000 		.4byte	.LASF4
 1942 004c 02       		.uleb128 0x2
 1943 004d 04       		.byte	0x4
 1944 004e 07       		.byte	0x7
 1945 004f 07020000 		.4byte	.LASF5
 1946 0053 02       		.uleb128 0x2
 1947 0054 08       		.byte	0x8
 1948 0055 05       		.byte	0x5
ARM GAS  C:\Users\maxk\AppData\Local\Temp\cc0ClDlQ.s 			page 54


 1949 0056 D5000000 		.4byte	.LASF6
 1950 005a 02       		.uleb128 0x2
 1951 005b 08       		.byte	0x8
 1952 005c 07       		.byte	0x7
 1953 005d 8C000000 		.4byte	.LASF7
 1954 0061 03       		.uleb128 0x3
 1955 0062 04       		.byte	0x4
 1956 0063 05       		.byte	0x5
 1957 0064 696E7400 		.ascii	"int\000"
 1958 0068 02       		.uleb128 0x2
 1959 0069 04       		.byte	0x4
 1960 006a 07       		.byte	0x7
 1961 006b C2010000 		.4byte	.LASF8
 1962 006f 04       		.uleb128 0x4
 1963 0070 50010000 		.4byte	.LASF9
 1964 0074 02       		.byte	0x2
 1965 0075 4C       		.byte	0x4c
 1966 0076 30000000 		.4byte	0x30
 1967 007a 04       		.uleb128 0x4
 1968 007b 0A000000 		.4byte	.LASF10
 1969 007f 02       		.byte	0x2
 1970 0080 4D       		.byte	0x4d
 1971 0081 3E000000 		.4byte	0x3e
 1972 0085 04       		.uleb128 0x4
 1973 0086 6D010000 		.4byte	.LASF11
 1974 008a 02       		.byte	0x2
 1975 008b 4E       		.byte	0x4e
 1976 008c 4C000000 		.4byte	0x4c
 1977 0090 02       		.uleb128 0x2
 1978 0091 04       		.byte	0x4
 1979 0092 04       		.byte	0x4
 1980 0093 89030000 		.4byte	.LASF12
 1981 0097 02       		.uleb128 0x2
 1982 0098 08       		.byte	0x8
 1983 0099 04       		.byte	0x4
 1984 009a 56010000 		.4byte	.LASF13
 1985 009e 02       		.uleb128 0x2
 1986 009f 01       		.byte	0x1
 1987 00a0 08       		.byte	0x8
 1988 00a1 0C040000 		.4byte	.LASF14
 1989 00a5 05       		.uleb128 0x5
 1990 00a6 6F000000 		.4byte	0x6f
 1991 00aa 06       		.uleb128 0x6
 1992 00ab 04       		.byte	0x4
 1993 00ac 07       		.byte	0x7
 1994 00ad 07       		.uleb128 0x7
 1995 00ae 01       		.byte	0x1
 1996 00af 5D010000 		.4byte	.LASF15
 1997 00b3 01       		.byte	0x1
 1998 00b4 9F       		.byte	0x9f
 1999 00b5 01       		.byte	0x1
 2000 00b6 00000000 		.4byte	.LFB0
 2001 00ba 94000000 		.4byte	.LFE0
 2002 00be 00000000 		.4byte	.LLST0
 2003 00c2 07       		.uleb128 0x7
 2004 00c3 01       		.byte	0x1
 2005 00c4 AC040000 		.4byte	.LASF16
ARM GAS  C:\Users\maxk\AppData\Local\Temp\cc0ClDlQ.s 			page 55


 2006 00c8 01       		.byte	0x1
 2007 00c9 E5       		.byte	0xe5
 2008 00ca 01       		.byte	0x1
 2009 00cb 00000000 		.4byte	.LFB1
 2010 00cf 4C000000 		.4byte	.LFE1
 2011 00d3 2B000000 		.4byte	.LLST1
 2012 00d7 08       		.uleb128 0x8
 2013 00d8 01       		.byte	0x1
 2014 00d9 8A040000 		.4byte	.LASF17
 2015 00dd 01       		.byte	0x1
 2016 00de 1001     		.2byte	0x110
 2017 00e0 01       		.byte	0x1
 2018 00e1 00000000 		.4byte	.LFB2
 2019 00e5 34000000 		.4byte	.LFE2
 2020 00e9 56000000 		.4byte	.LLST2
 2021 00ed 08       		.uleb128 0x8
 2022 00ee 01       		.byte	0x1
 2023 00ef 70040000 		.4byte	.LASF18
 2024 00f3 01       		.byte	0x1
 2025 00f4 3B01     		.2byte	0x13b
 2026 00f6 01       		.byte	0x1
 2027 00f7 00000000 		.4byte	.LFB3
 2028 00fb 1A000000 		.4byte	.LFE3
 2029 00ff 81000000 		.4byte	.LLST3
 2030 0103 09       		.uleb128 0x9
 2031 0104 01       		.byte	0x1
 2032 0105 C2030000 		.4byte	.LASF27
 2033 0109 01       		.byte	0x1
 2034 010a 6501     		.2byte	0x165
 2035 010c 01       		.byte	0x1
 2036 010d 6F000000 		.4byte	0x6f
 2037 0111 00000000 		.4byte	.LFB4
 2038 0115 68000000 		.4byte	.LFE4
 2039 0119 AC000000 		.4byte	.LLST4
 2040 011d 4F010000 		.4byte	0x14f
 2041 0121 0A       		.uleb128 0xa
 2042 0122 51000000 		.4byte	.LASF20
 2043 0126 01       		.byte	0x1
 2044 0127 6501     		.2byte	0x165
 2045 0129 6F000000 		.4byte	0x6f
 2046 012d 02       		.byte	0x2
 2047 012e 91       		.byte	0x91
 2048 012f 6F       		.sleb128 -17
 2049 0130 0B       		.uleb128 0xb
 2050 0131 706F7300 		.ascii	"pos\000"
 2051 0135 01       		.byte	0x1
 2052 0136 6701     		.2byte	0x167
 2053 0138 6F000000 		.4byte	0x6f
 2054 013c 02       		.byte	0x2
 2055 013d 91       		.byte	0x91
 2056 013e 76       		.sleb128 -10
 2057 013f 0C       		.uleb128 0xc
 2058 0140 C8020000 		.4byte	.LASF19
 2059 0144 01       		.byte	0x1
 2060 0145 6801     		.2byte	0x168
 2061 0147 6F000000 		.4byte	0x6f
 2062 014b 02       		.byte	0x2
ARM GAS  C:\Users\maxk\AppData\Local\Temp\cc0ClDlQ.s 			page 56


 2063 014c 91       		.byte	0x91
 2064 014d 77       		.sleb128 -9
 2065 014e 00       		.byte	0x0
 2066 014f 0D       		.uleb128 0xd
 2067 0150 01       		.byte	0x1
 2068 0151 1C050000 		.4byte	.LASF23
 2069 0155 01       		.byte	0x1
 2070 0156 9201     		.2byte	0x192
 2071 0158 01       		.byte	0x1
 2072 0159 00000000 		.4byte	.LFB5
 2073 015d 64000000 		.4byte	.LFE5
 2074 0161 E3000000 		.4byte	.LLST5
 2075 0165 88010000 		.4byte	0x188
 2076 0169 0A       		.uleb128 0xa
 2077 016a 64020000 		.4byte	.LASF21
 2078 016e 01       		.byte	0x1
 2079 016f 9201     		.2byte	0x192
 2080 0171 6F000000 		.4byte	0x6f
 2081 0175 02       		.byte	0x2
 2082 0176 91       		.byte	0x91
 2083 0177 6F       		.sleb128 -17
 2084 0178 0C       		.uleb128 0xc
 2085 0179 9B040000 		.4byte	.LASF22
 2086 017d 01       		.byte	0x1
 2087 017e 9401     		.2byte	0x194
 2088 0180 85000000 		.4byte	0x85
 2089 0184 02       		.byte	0x2
 2090 0185 91       		.byte	0x91
 2091 0186 74       		.sleb128 -12
 2092 0187 00       		.byte	0x0
 2093 0188 0D       		.uleb128 0xd
 2094 0189 01       		.byte	0x1
 2095 018a 74010000 		.4byte	.LASF24
 2096 018e 01       		.byte	0x1
 2097 018f E901     		.2byte	0x1e9
 2098 0191 01       		.byte	0x1
 2099 0192 00000000 		.4byte	.LFB6
 2100 0196 3C000000 		.4byte	.LFE6
 2101 019a 1A010000 		.4byte	.LLST6
 2102 019e B2010000 		.4byte	0x1b2
 2103 01a2 0A       		.uleb128 0xa
 2104 01a3 5D020000 		.4byte	.LASF25
 2105 01a7 01       		.byte	0x1
 2106 01a8 E901     		.2byte	0x1e9
 2107 01aa 6F000000 		.4byte	0x6f
 2108 01ae 02       		.byte	0x2
 2109 01af 91       		.byte	0x91
 2110 01b0 77       		.sleb128 -9
 2111 01b1 00       		.byte	0x0
 2112 01b2 08       		.uleb128 0x8
 2113 01b3 01       		.byte	0x1
 2114 01b4 E9010000 		.4byte	.LASF26
 2115 01b8 01       		.byte	0x1
 2116 01b9 1502     		.2byte	0x215
 2117 01bb 01       		.byte	0x1
 2118 01bc 00000000 		.4byte	.LFB7
 2119 01c0 58000000 		.4byte	.LFE7
ARM GAS  C:\Users\maxk\AppData\Local\Temp\cc0ClDlQ.s 			page 57


 2120 01c4 51010000 		.4byte	.LLST7
 2121 01c8 0E       		.uleb128 0xe
 2122 01c9 01       		.byte	0x1
 2123 01ca 28040000 		.4byte	.LASF71
 2124 01ce 01       		.byte	0x1
 2125 01cf 3B02     		.2byte	0x23b
 2126 01d1 01       		.byte	0x1
 2127 01d2 6F000000 		.4byte	0x6f
 2128 01d6 00000000 		.4byte	.LFB8
 2129 01da 28000000 		.4byte	.LFE8
 2130 01de 7C010000 		.4byte	.LLST8
 2131 01e2 09       		.uleb128 0x9
 2132 01e3 01       		.byte	0x1
 2133 01e4 A4010000 		.4byte	.LASF28
 2134 01e8 01       		.byte	0x1
 2135 01e9 5502     		.2byte	0x255
 2136 01eb 01       		.byte	0x1
 2137 01ec 7A000000 		.4byte	0x7a
 2138 01f0 00000000 		.4byte	.LFB9
 2139 01f4 24000000 		.4byte	.LFE9
 2140 01f8 A7010000 		.4byte	.LLST9
 2141 01fc 10020000 		.4byte	0x210
 2142 0200 0A       		.uleb128 0xa
 2143 0201 5D020000 		.4byte	.LASF25
 2144 0205 01       		.byte	0x1
 2145 0206 5502     		.2byte	0x255
 2146 0208 6F000000 		.4byte	0x6f
 2147 020c 02       		.byte	0x2
 2148 020d 91       		.byte	0x91
 2149 020e 77       		.sleb128 -9
 2150 020f 00       		.byte	0x0
 2151 0210 0D       		.uleb128 0xd
 2152 0211 01       		.byte	0x1
 2153 0212 BE040000 		.4byte	.LASF29
 2154 0216 01       		.byte	0x1
 2155 0217 6A02     		.2byte	0x26a
 2156 0219 01       		.byte	0x1
 2157 021a 00000000 		.4byte	.LFB10
 2158 021e 30000000 		.4byte	.LFE10
 2159 0222 DE010000 		.4byte	.LLST10
 2160 0226 38020000 		.4byte	0x238
 2161 022a 0B       		.uleb128 0xb
 2162 022b 6900     		.ascii	"i\000"
 2163 022d 01       		.byte	0x1
 2164 022e 6C02     		.2byte	0x26c
 2165 0230 6F000000 		.4byte	0x6f
 2166 0234 02       		.byte	0x2
 2167 0235 91       		.byte	0x91
 2168 0236 77       		.sleb128 -9
 2169 0237 00       		.byte	0x0
 2170 0238 0D       		.uleb128 0xd
 2171 0239 01       		.byte	0x1
 2172 023a 58040000 		.4byte	.LASF30
 2173 023e 01       		.byte	0x1
 2174 023f 0003     		.2byte	0x300
 2175 0241 01       		.byte	0x1
 2176 0242 00000000 		.4byte	.LFB11
ARM GAS  C:\Users\maxk\AppData\Local\Temp\cc0ClDlQ.s 			page 58


 2177 0246 B8000000 		.4byte	.LFE11
 2178 024a 15020000 		.4byte	.LLST11
 2179 024e 9E020000 		.4byte	0x29e
 2180 0252 0A       		.uleb128 0xa
 2181 0253 5D020000 		.4byte	.LASF25
 2182 0257 01       		.byte	0x1
 2183 0258 0003     		.2byte	0x300
 2184 025a 6F000000 		.4byte	0x6f
 2185 025e 02       		.byte	0x2
 2186 025f 91       		.byte	0x91
 2187 0260 5F       		.sleb128 -33
 2188 0261 0C       		.uleb128 0xc
 2189 0262 9B040000 		.4byte	.LASF22
 2190 0266 01       		.byte	0x1
 2191 0267 0203     		.2byte	0x302
 2192 0269 85000000 		.4byte	0x85
 2193 026d 02       		.byte	0x2
 2194 026e 91       		.byte	0x91
 2195 026f 64       		.sleb128 -28
 2196 0270 0C       		.uleb128 0xc
 2197 0271 BD010000 		.4byte	.LASF31
 2198 0275 01       		.byte	0x1
 2199 0276 0403     		.2byte	0x304
 2200 0278 85000000 		.4byte	0x85
 2201 027c 02       		.byte	0x2
 2202 027d 91       		.byte	0x91
 2203 027e 68       		.sleb128 -24
 2204 027f 0C       		.uleb128 0xc
 2205 0280 AF000000 		.4byte	.LASF32
 2206 0284 01       		.byte	0x1
 2207 0285 0503     		.2byte	0x305
 2208 0287 6F000000 		.4byte	0x6f
 2209 028b 02       		.byte	0x2
 2210 028c 91       		.byte	0x91
 2211 028d 6E       		.sleb128 -18
 2212 028e 0C       		.uleb128 0xc
 2213 028f 9D030000 		.4byte	.LASF33
 2214 0293 01       		.byte	0x1
 2215 0294 0603     		.2byte	0x306
 2216 0296 6F000000 		.4byte	0x6f
 2217 029a 02       		.byte	0x2
 2218 029b 91       		.byte	0x91
 2219 029c 6F       		.sleb128 -17
 2220 029d 00       		.byte	0x0
 2221 029e 0D       		.uleb128 0xd
 2222 029f 01       		.byte	0x1
 2223 02a0 D6040000 		.4byte	.LASF34
 2224 02a4 01       		.byte	0x1
 2225 02a5 2C03     		.2byte	0x32c
 2226 02a7 01       		.byte	0x1
 2227 02a8 00000000 		.4byte	.LFB12
 2228 02ac E4000000 		.4byte	.LFE12
 2229 02b0 4C020000 		.4byte	.LLST12
 2230 02b4 04030000 		.4byte	0x304
 2231 02b8 0A       		.uleb128 0xa
 2232 02b9 5D020000 		.4byte	.LASF25
 2233 02bd 01       		.byte	0x1
ARM GAS  C:\Users\maxk\AppData\Local\Temp\cc0ClDlQ.s 			page 59


 2234 02be 2C03     		.2byte	0x32c
 2235 02c0 6F000000 		.4byte	0x6f
 2236 02c4 02       		.byte	0x2
 2237 02c5 91       		.byte	0x91
 2238 02c6 5F       		.sleb128 -33
 2239 02c7 0C       		.uleb128 0xc
 2240 02c8 BD010000 		.4byte	.LASF31
 2241 02cc 01       		.byte	0x1
 2242 02cd 2E03     		.2byte	0x32e
 2243 02cf 85000000 		.4byte	0x85
 2244 02d3 02       		.byte	0x2
 2245 02d4 91       		.byte	0x91
 2246 02d5 60       		.sleb128 -32
 2247 02d6 0C       		.uleb128 0xc
 2248 02d7 9D030000 		.4byte	.LASF33
 2249 02db 01       		.byte	0x1
 2250 02dc 2F03     		.2byte	0x32f
 2251 02de 6F000000 		.4byte	0x6f
 2252 02e2 02       		.byte	0x2
 2253 02e3 91       		.byte	0x91
 2254 02e4 67       		.sleb128 -25
 2255 02e5 0C       		.uleb128 0xc
 2256 02e6 9B040000 		.4byte	.LASF22
 2257 02ea 01       		.byte	0x1
 2258 02eb 3103     		.2byte	0x331
 2259 02ed 85000000 		.4byte	0x85
 2260 02f1 02       		.byte	0x2
 2261 02f2 91       		.byte	0x91
 2262 02f3 68       		.sleb128 -24
 2263 02f4 0C       		.uleb128 0xc
 2264 02f5 AF000000 		.4byte	.LASF32
 2265 02f9 01       		.byte	0x1
 2266 02fa 3203     		.2byte	0x332
 2267 02fc 6F000000 		.4byte	0x6f
 2268 0300 02       		.byte	0x2
 2269 0301 91       		.byte	0x91
 2270 0302 6F       		.sleb128 -17
 2271 0303 00       		.byte	0x0
 2272 0304 0D       		.uleb128 0xd
 2273 0305 01       		.byte	0x1
 2274 0306 7A020000 		.4byte	.LASF35
 2275 030a 01       		.byte	0x1
 2276 030b 5803     		.2byte	0x358
 2277 030d 01       		.byte	0x1
 2278 030e 00000000 		.4byte	.LFB13
 2279 0312 CC000000 		.4byte	.LFE13
 2280 0316 83020000 		.4byte	.LLST13
 2281 031a 5B030000 		.4byte	0x35b
 2282 031e 0A       		.uleb128 0xa
 2283 031f 5D020000 		.4byte	.LASF25
 2284 0323 01       		.byte	0x1
 2285 0324 5803     		.2byte	0x358
 2286 0326 6F000000 		.4byte	0x6f
 2287 032a 02       		.byte	0x2
 2288 032b 91       		.byte	0x91
 2289 032c 6F       		.sleb128 -17
 2290 032d 0C       		.uleb128 0xc
ARM GAS  C:\Users\maxk\AppData\Local\Temp\cc0ClDlQ.s 			page 60


 2291 032e BB030000 		.4byte	.LASF36
 2292 0332 01       		.byte	0x1
 2293 0333 5A03     		.2byte	0x35a
 2294 0335 6F000000 		.4byte	0x6f
 2295 0339 02       		.byte	0x2
 2296 033a 91       		.byte	0x91
 2297 033b 72       		.sleb128 -14
 2298 033c 0C       		.uleb128 0xc
 2299 033d 24010000 		.4byte	.LASF37
 2300 0341 01       		.byte	0x1
 2301 0342 5B03     		.2byte	0x35b
 2302 0344 6F000000 		.4byte	0x6f
 2303 0348 02       		.byte	0x2
 2304 0349 91       		.byte	0x91
 2305 034a 73       		.sleb128 -13
 2306 034b 0C       		.uleb128 0xc
 2307 034c 9B040000 		.4byte	.LASF22
 2308 0350 01       		.byte	0x1
 2309 0351 5C03     		.2byte	0x35c
 2310 0353 85000000 		.4byte	0x85
 2311 0357 02       		.byte	0x2
 2312 0358 91       		.byte	0x91
 2313 0359 74       		.sleb128 -12
 2314 035a 00       		.byte	0x0
 2315 035b 0D       		.uleb128 0xd
 2316 035c 01       		.byte	0x1
 2317 035d 3C010000 		.4byte	.LASF38
 2318 0361 01       		.byte	0x1
 2319 0362 AA03     		.2byte	0x3aa
 2320 0364 01       		.byte	0x1
 2321 0365 00000000 		.4byte	.LFB14
 2322 0369 34000000 		.4byte	.LFE14
 2323 036d BA020000 		.4byte	.LLST14
 2324 0371 85030000 		.4byte	0x385
 2325 0375 0A       		.uleb128 0xa
 2326 0376 5D020000 		.4byte	.LASF25
 2327 037a 01       		.byte	0x1
 2328 037b AA03     		.2byte	0x3aa
 2329 037d 6F000000 		.4byte	0x6f
 2330 0381 02       		.byte	0x2
 2331 0382 91       		.byte	0x91
 2332 0383 77       		.sleb128 -9
 2333 0384 00       		.byte	0x0
 2334 0385 0D       		.uleb128 0xd
 2335 0386 01       		.byte	0x1
 2336 0387 CF010000 		.4byte	.LASF39
 2337 038b 01       		.byte	0x1
 2338 038c C603     		.2byte	0x3c6
 2339 038e 01       		.byte	0x1
 2340 038f 00000000 		.4byte	.LFB15
 2341 0393 38000000 		.4byte	.LFE15
 2342 0397 F1020000 		.4byte	.LLST15
 2343 039b AF030000 		.4byte	0x3af
 2344 039f 0A       		.uleb128 0xa
 2345 03a0 AB030000 		.4byte	.LASF40
 2346 03a4 01       		.byte	0x1
 2347 03a5 C603     		.2byte	0x3c6
ARM GAS  C:\Users\maxk\AppData\Local\Temp\cc0ClDlQ.s 			page 61


 2348 03a7 85000000 		.4byte	0x85
 2349 03ab 02       		.byte	0x2
 2350 03ac 91       		.byte	0x91
 2351 03ad 74       		.sleb128 -12
 2352 03ae 00       		.byte	0x0
 2353 03af 09       		.uleb128 0x9
 2354 03b0 01       		.byte	0x1
 2355 03b1 3A040000 		.4byte	.LASF41
 2356 03b5 01       		.byte	0x1
 2357 03b6 DC03     		.2byte	0x3dc
 2358 03b8 01       		.byte	0x1
 2359 03b9 85000000 		.4byte	0x85
 2360 03bd 00000000 		.4byte	.LFB16
 2361 03c1 5C000000 		.4byte	.LFE16
 2362 03c5 28030000 		.4byte	.LLST16
 2363 03c9 19040000 		.4byte	0x419
 2364 03cd 0A       		.uleb128 0xa
 2365 03ce 5D020000 		.4byte	.LASF25
 2366 03d2 01       		.byte	0x1
 2367 03d3 DC03     		.2byte	0x3dc
 2368 03d5 85000000 		.4byte	0x85
 2369 03d9 02       		.byte	0x2
 2370 03da 91       		.byte	0x91
 2371 03db 64       		.sleb128 -28
 2372 03dc 0C       		.uleb128 0xc
 2373 03dd 69020000 		.4byte	.LASF42
 2374 03e1 01       		.byte	0x1
 2375 03e2 DE03     		.2byte	0x3de
 2376 03e4 85000000 		.4byte	0x85
 2377 03e8 02       		.byte	0x2
 2378 03e9 91       		.byte	0x91
 2379 03ea 68       		.sleb128 -24
 2380 03eb 0C       		.uleb128 0xc
 2381 03ec 15050000 		.4byte	.LASF43
 2382 03f0 01       		.byte	0x1
 2383 03f1 DF03     		.2byte	0x3df
 2384 03f3 85000000 		.4byte	0x85
 2385 03f7 02       		.byte	0x2
 2386 03f8 91       		.byte	0x91
 2387 03f9 6C       		.sleb128 -20
 2388 03fa 0C       		.uleb128 0xc
 2389 03fb 9F010000 		.4byte	.LASF44
 2390 03ff 01       		.byte	0x1
 2391 0400 E003     		.2byte	0x3e0
 2392 0402 85000000 		.4byte	0x85
 2393 0406 02       		.byte	0x2
 2394 0407 91       		.byte	0x91
 2395 0408 70       		.sleb128 -16
 2396 0409 0C       		.uleb128 0xc
 2397 040a BB030000 		.4byte	.LASF36
 2398 040e 01       		.byte	0x1
 2399 040f E203     		.2byte	0x3e2
 2400 0411 6F000000 		.4byte	0x6f
 2401 0415 02       		.byte	0x2
 2402 0416 91       		.byte	0x91
 2403 0417 77       		.sleb128 -9
 2404 0418 00       		.byte	0x0
ARM GAS  C:\Users\maxk\AppData\Local\Temp\cc0ClDlQ.s 			page 62


 2405 0419 0D       		.uleb128 0xd
 2406 041a 01       		.byte	0x1
 2407 041b 6D000000 		.4byte	.LASF45
 2408 041f 01       		.byte	0x1
 2409 0420 0104     		.2byte	0x401
 2410 0422 01       		.byte	0x1
 2411 0423 00000000 		.4byte	.LFB17
 2412 0427 90000000 		.4byte	.LFE17
 2413 042b 5F030000 		.4byte	.LLST17
 2414 042f 70040000 		.4byte	0x470
 2415 0433 0C       		.uleb128 0xc
 2416 0434 00000000 		.4byte	.LASF46
 2417 0438 01       		.byte	0x1
 2418 0439 0304     		.2byte	0x403
 2419 043b 85000000 		.4byte	0x85
 2420 043f 02       		.byte	0x2
 2421 0440 91       		.byte	0x91
 2422 0441 6C       		.sleb128 -20
 2423 0442 0C       		.uleb128 0xc
 2424 0443 69020000 		.4byte	.LASF42
 2425 0447 01       		.byte	0x1
 2426 0448 0404     		.2byte	0x404
 2427 044a 85000000 		.4byte	0x85
 2428 044e 02       		.byte	0x2
 2429 044f 91       		.byte	0x91
 2430 0450 70       		.sleb128 -16
 2431 0451 0C       		.uleb128 0xc
 2432 0452 8D020000 		.4byte	.LASF47
 2433 0456 01       		.byte	0x1
 2434 0457 0604     		.2byte	0x406
 2435 0459 6F000000 		.4byte	0x6f
 2436 045d 02       		.byte	0x2
 2437 045e 91       		.byte	0x91
 2438 045f 76       		.sleb128 -10
 2439 0460 0C       		.uleb128 0xc
 2440 0461 80040000 		.4byte	.LASF48
 2441 0465 01       		.byte	0x1
 2442 0466 0704     		.2byte	0x407
 2443 0468 6F000000 		.4byte	0x6f
 2444 046c 02       		.byte	0x2
 2445 046d 91       		.byte	0x91
 2446 046e 77       		.sleb128 -9
 2447 046f 00       		.byte	0x0
 2448 0470 0F       		.uleb128 0xf
 2449 0471 5A000000 		.4byte	.LASF49
 2450 0475 01       		.byte	0x1
 2451 0476 33       		.byte	0x33
 2452 0477 6F000000 		.4byte	0x6f
 2453 047b 01       		.byte	0x1
 2454 047c 05       		.byte	0x5
 2455 047d 03       		.byte	0x3
 2456 047e 00000000 		.4byte	CapSense_1_initVar
 2457 0482 0F       		.uleb128 0xf
 2458 0483 11000000 		.4byte	.LASF50
 2459 0487 01       		.byte	0x1
 2460 0488 36       		.byte	0x36
 2461 0489 A5000000 		.4byte	0xa5
ARM GAS  C:\Users\maxk\AppData\Local\Temp\cc0ClDlQ.s 			page 63


 2462 048d 01       		.byte	0x1
 2463 048e 05       		.byte	0x5
 2464 048f 03       		.byte	0x3
 2465 0490 00000000 		.4byte	CapSense_1_csv
 2466 0494 0F       		.uleb128 0xf
 2467 0495 11040000 		.4byte	.LASF51
 2468 0499 01       		.byte	0x1
 2469 049a 37       		.byte	0x37
 2470 049b A5000000 		.4byte	0xa5
 2471 049f 01       		.byte	0x1
 2472 04a0 05       		.byte	0x5
 2473 04a1 03       		.byte	0x3
 2474 04a2 00000000 		.4byte	CapSense_1_sensorIndex
 2475 04a6 10       		.uleb128 0x10
 2476 04a7 7A000000 		.4byte	0x7a
 2477 04ab B6040000 		.4byte	0x4b6
 2478 04af 11       		.uleb128 0x11
 2479 04b0 AA000000 		.4byte	0xaa
 2480 04b4 04       		.byte	0x4
 2481 04b5 00       		.byte	0x0
 2482 04b6 0F       		.uleb128 0xf
 2483 04b7 19020000 		.4byte	.LASF52
 2484 04bb 01       		.byte	0x1
 2485 04bc 3A       		.byte	0x3a
 2486 04bd A6040000 		.4byte	0x4a6
 2487 04c1 01       		.byte	0x1
 2488 04c2 05       		.byte	0x5
 2489 04c3 03       		.byte	0x3
 2490 04c4 00000000 		.4byte	CapSense_1_SensorRaw
 2491 04c8 10       		.uleb128 0x10
 2492 04c9 85000000 		.4byte	0x85
 2493 04cd D8040000 		.4byte	0x4d8
 2494 04d1 11       		.uleb128 0x11
 2495 04d2 AA000000 		.4byte	0xaa
 2496 04d6 04       		.byte	0x4
 2497 04d7 00       		.byte	0x0
 2498 04d8 0F       		.uleb128 0xf
 2499 04d9 2E020000 		.4byte	.LASF53
 2500 04dd 01       		.byte	0x1
 2501 04de 3D       		.byte	0x3d
 2502 04df C8040000 		.4byte	0x4c8
 2503 04e3 01       		.byte	0x1
 2504 04e4 05       		.byte	0x5
 2505 04e5 03       		.byte	0x3
 2506 04e6 00000000 		.4byte	CapSense_1_PRSResolutionTbl
 2507 04ea 10       		.uleb128 0x10
 2508 04eb 6F000000 		.4byte	0x6f
 2509 04ef FA040000 		.4byte	0x4fa
 2510 04f3 11       		.uleb128 0x11
 2511 04f4 AA000000 		.4byte	0xaa
 2512 04f8 00       		.byte	0x0
 2513 04f9 00       		.byte	0x0
 2514 04fa 0F       		.uleb128 0xf
 2515 04fb EF000000 		.4byte	.LASF54
 2516 04ff 01       		.byte	0x1
 2517 0500 3F       		.byte	0x3f
 2518 0501 EA040000 		.4byte	0x4ea
ARM GAS  C:\Users\maxk\AppData\Local\Temp\cc0ClDlQ.s 			page 64


 2519 0505 01       		.byte	0x1
 2520 0506 05       		.byte	0x5
 2521 0507 03       		.byte	0x3
 2522 0508 00000000 		.4byte	CapSense_1_SensorEnableMask
 2523 050c 10       		.uleb128 0x10
 2524 050d 1C050000 		.4byte	0x51c
 2525 0511 1C050000 		.4byte	0x51c
 2526 0515 11       		.uleb128 0x11
 2527 0516 AA000000 		.4byte	0xaa
 2528 051a 04       		.byte	0x4
 2529 051b 00       		.byte	0x0
 2530 051c 12       		.uleb128 0x12
 2531 051d 04       		.byte	0x4
 2532 051e 22050000 		.4byte	0x522
 2533 0522 05       		.uleb128 0x5
 2534 0523 4C000000 		.4byte	0x4c
 2535 0527 0F       		.uleb128 0xf
 2536 0528 76030000 		.4byte	.LASF55
 2537 052c 01       		.byte	0x1
 2538 052d 42       		.byte	0x42
 2539 052e 0C050000 		.4byte	0x50c
 2540 0532 01       		.byte	0x1
 2541 0533 05       		.byte	0x5
 2542 0534 03       		.byte	0x3
 2543 0535 00000000 		.4byte	CapSense_1_pcTable
 2544 0539 10       		.uleb128 0x10
 2545 053a 6F000000 		.4byte	0x6f
 2546 053e 49050000 		.4byte	0x549
 2547 0542 11       		.uleb128 0x11
 2548 0543 AA000000 		.4byte	0xaa
 2549 0547 04       		.byte	0x4
 2550 0548 00       		.byte	0x0
 2551 0549 0F       		.uleb128 0xf
 2552 054a E4020000 		.4byte	.LASF56
 2553 054e 01       		.byte	0x1
 2554 054f 4A       		.byte	0x4a
 2555 0550 5B050000 		.4byte	0x55b
 2556 0554 01       		.byte	0x1
 2557 0555 05       		.byte	0x5
 2558 0556 03       		.byte	0x3
 2559 0557 00000000 		.4byte	CapSense_1_portTable
 2560 055b 13       		.uleb128 0x13
 2561 055c 39050000 		.4byte	0x539
 2562 0560 0F       		.uleb128 0xf
 2563 0561 CF020000 		.4byte	.LASF57
 2564 0565 01       		.byte	0x1
 2565 0566 52       		.byte	0x52
 2566 0567 72050000 		.4byte	0x572
 2567 056b 01       		.byte	0x1
 2568 056c 05       		.byte	0x5
 2569 056d 03       		.byte	0x3
 2570 056e 00000000 		.4byte	CapSense_1_maskTable
 2571 0572 13       		.uleb128 0x13
 2572 0573 C8040000 		.4byte	0x4c8
 2573 0577 0F       		.uleb128 0xf
 2574 0578 20000000 		.4byte	.LASF58
 2575 057c 01       		.byte	0x1
ARM GAS  C:\Users\maxk\AppData\Local\Temp\cc0ClDlQ.s 			page 65


 2576 057d 5A       		.byte	0x5a
 2577 057e 89050000 		.4byte	0x589
 2578 0582 01       		.byte	0x1
 2579 0583 05       		.byte	0x5
 2580 0584 03       		.byte	0x3
 2581 0585 00000000 		.4byte	CapSense_1_pinShiftTbl
 2582 0589 13       		.uleb128 0x13
 2583 058a 39050000 		.4byte	0x539
 2584 058e 0F       		.uleb128 0xf
 2585 058f 0B010000 		.4byte	.LASF59
 2586 0593 01       		.byte	0x1
 2587 0594 62       		.byte	0x62
 2588 0595 A0050000 		.4byte	0x5a0
 2589 0599 01       		.byte	0x1
 2590 059a 05       		.byte	0x5
 2591 059b 03       		.byte	0x3
 2592 059c 00000000 		.4byte	CapSense_1_idac1Settings
 2593 05a0 13       		.uleb128 0x13
 2594 05a1 39050000 		.4byte	0x539
 2595 05a5 0F       		.uleb128 0xf
 2596 05a6 BC000000 		.4byte	.LASF60
 2597 05aa 01       		.byte	0x1
 2598 05ab 66       		.byte	0x66
 2599 05ac B7050000 		.4byte	0x5b7
 2600 05b0 01       		.byte	0x1
 2601 05b1 05       		.byte	0x5
 2602 05b2 03       		.byte	0x3
 2603 05b3 00000000 		.4byte	CapSense_1_idac2Settings
 2604 05b7 13       		.uleb128 0x13
 2605 05b8 39050000 		.4byte	0x539
 2606 05bc 10       		.uleb128 0x10
 2607 05bd 85000000 		.4byte	0x85
 2608 05c1 CC050000 		.4byte	0x5cc
 2609 05c5 11       		.uleb128 0x11
 2610 05c6 AA000000 		.4byte	0xaa
 2611 05ca 00       		.byte	0x0
 2612 05cb 00       		.byte	0x0
 2613 05cc 0F       		.uleb128 0xf
 2614 05cd F0030000 		.4byte	.LASF61
 2615 05d1 01       		.byte	0x1
 2616 05d2 6A       		.byte	0x6a
 2617 05d3 DE050000 		.4byte	0x5de
 2618 05d7 01       		.byte	0x1
 2619 05d8 05       		.byte	0x5
 2620 05d9 03       		.byte	0x3
 2621 05da 00000000 		.4byte	CapSense_1_widgetResolution
 2622 05de 13       		.uleb128 0x13
 2623 05df BC050000 		.4byte	0x5bc
 2624 05e3 0F       		.uleb128 0xf
 2625 05e4 37000000 		.4byte	.LASF62
 2626 05e8 01       		.byte	0x1
 2627 05e9 6E       		.byte	0x6e
 2628 05ea 6F000000 		.4byte	0x6f
 2629 05ee 01       		.byte	0x1
 2630 05ef 05       		.byte	0x5
 2631 05f0 03       		.byte	0x3
 2632 05f1 00000000 		.4byte	CapSense_1_Clk1DividerVal
ARM GAS  C:\Users\maxk\AppData\Local\Temp\cc0ClDlQ.s 			page 66


 2633 05f5 0F       		.uleb128 0xf
 2634 05f6 96020000 		.4byte	.LASF63
 2635 05fa 01       		.byte	0x1
 2636 05fb 6F       		.byte	0x6f
 2637 05fc 6F000000 		.4byte	0x6f
 2638 0600 01       		.byte	0x1
 2639 0601 05       		.byte	0x5
 2640 0602 03       		.byte	0x3
 2641 0603 00000000 		.4byte	CapSense_1_Clk2DividerVal
 2642 0607 0F       		.uleb128 0xf
 2643 0608 B0020000 		.4byte	.LASF64
 2644 060c 01       		.byte	0x1
 2645 060d 71       		.byte	0x71
 2646 060e 19060000 		.4byte	0x619
 2647 0612 01       		.byte	0x1
 2648 0613 05       		.byte	0x5
 2649 0614 03       		.byte	0x3
 2650 0615 00000000 		.4byte	CapSense_1_widgetNumber
 2651 0619 13       		.uleb128 0x13
 2652 061a 39050000 		.4byte	0x539
 2653 061e 10       		.uleb128 0x10
 2654 061f 1C050000 		.4byte	0x51c
 2655 0623 2E060000 		.4byte	0x62e
 2656 0627 11       		.uleb128 0x11
 2657 0628 AA000000 		.4byte	0xaa
 2658 062c 03       		.byte	0x3
 2659 062d 00       		.byte	0x0
 2660 062e 0F       		.uleb128 0xf
 2661 062f F9020000 		.4byte	.LASF65
 2662 0633 01       		.byte	0x1
 2663 0634 77       		.byte	0x77
 2664 0635 40060000 		.4byte	0x640
 2665 0639 01       		.byte	0x1
 2666 063a 05       		.byte	0x5
 2667 063b 03       		.byte	0x3
 2668 063c 00000000 		.4byte	CapSense_1_PrtSelTbl
 2669 0640 13       		.uleb128 0x13
 2670 0641 1E060000 		.4byte	0x61e
 2671 0645 0F       		.uleb128 0xf
 2672 0646 8A010000 		.4byte	.LASF66
 2673 064a 01       		.byte	0x1
 2674 064b 7E       		.byte	0x7e
 2675 064c 57060000 		.4byte	0x657
 2676 0650 01       		.byte	0x1
 2677 0651 05       		.byte	0x5
 2678 0652 03       		.byte	0x3
 2679 0653 00000000 		.4byte	CapSense_1_PrtCfgTbl
 2680 0657 13       		.uleb128 0x13
 2681 0658 1E060000 		.4byte	0x61e
 2682 065c 0F       		.uleb128 0xf
 2683 065d DC030000 		.4byte	.LASF67
 2684 0661 01       		.byte	0x1
 2685 0662 85       		.byte	0x85
 2686 0663 6E060000 		.4byte	0x66e
 2687 0667 01       		.byte	0x1
 2688 0668 05       		.byte	0x5
 2689 0669 03       		.byte	0x3
ARM GAS  C:\Users\maxk\AppData\Local\Temp\cc0ClDlQ.s 			page 67


 2690 066a 00000000 		.4byte	CapSense_1_PrtDRTbl
 2691 066e 13       		.uleb128 0x13
 2692 066f 1E060000 		.4byte	0x61e
 2693 0673 00       		.byte	0x0
 2694              		.section	.debug_abbrev
 2695 0000 01       		.uleb128 0x1
 2696 0001 11       		.uleb128 0x11
 2697 0002 01       		.byte	0x1
 2698 0003 25       		.uleb128 0x25
 2699 0004 0E       		.uleb128 0xe
 2700 0005 13       		.uleb128 0x13
 2701 0006 0B       		.uleb128 0xb
 2702 0007 03       		.uleb128 0x3
 2703 0008 0E       		.uleb128 0xe
 2704 0009 1B       		.uleb128 0x1b
 2705 000a 0E       		.uleb128 0xe
 2706 000b 11       		.uleb128 0x11
 2707 000c 01       		.uleb128 0x1
 2708 000d 52       		.uleb128 0x52
 2709 000e 01       		.uleb128 0x1
 2710 000f 55       		.uleb128 0x55
 2711 0010 06       		.uleb128 0x6
 2712 0011 10       		.uleb128 0x10
 2713 0012 06       		.uleb128 0x6
 2714 0013 00       		.byte	0x0
 2715 0014 00       		.byte	0x0
 2716 0015 02       		.uleb128 0x2
 2717 0016 24       		.uleb128 0x24
 2718 0017 00       		.byte	0x0
 2719 0018 0B       		.uleb128 0xb
 2720 0019 0B       		.uleb128 0xb
 2721 001a 3E       		.uleb128 0x3e
 2722 001b 0B       		.uleb128 0xb
 2723 001c 03       		.uleb128 0x3
 2724 001d 0E       		.uleb128 0xe
 2725 001e 00       		.byte	0x0
 2726 001f 00       		.byte	0x0
 2727 0020 03       		.uleb128 0x3
 2728 0021 24       		.uleb128 0x24
 2729 0022 00       		.byte	0x0
 2730 0023 0B       		.uleb128 0xb
 2731 0024 0B       		.uleb128 0xb
 2732 0025 3E       		.uleb128 0x3e
 2733 0026 0B       		.uleb128 0xb
 2734 0027 03       		.uleb128 0x3
 2735 0028 08       		.uleb128 0x8
 2736 0029 00       		.byte	0x0
 2737 002a 00       		.byte	0x0
 2738 002b 04       		.uleb128 0x4
 2739 002c 16       		.uleb128 0x16
 2740 002d 00       		.byte	0x0
 2741 002e 03       		.uleb128 0x3
 2742 002f 0E       		.uleb128 0xe
 2743 0030 3A       		.uleb128 0x3a
 2744 0031 0B       		.uleb128 0xb
 2745 0032 3B       		.uleb128 0x3b
 2746 0033 0B       		.uleb128 0xb
ARM GAS  C:\Users\maxk\AppData\Local\Temp\cc0ClDlQ.s 			page 68


 2747 0034 49       		.uleb128 0x49
 2748 0035 13       		.uleb128 0x13
 2749 0036 00       		.byte	0x0
 2750 0037 00       		.byte	0x0
 2751 0038 05       		.uleb128 0x5
 2752 0039 35       		.uleb128 0x35
 2753 003a 00       		.byte	0x0
 2754 003b 49       		.uleb128 0x49
 2755 003c 13       		.uleb128 0x13
 2756 003d 00       		.byte	0x0
 2757 003e 00       		.byte	0x0
 2758 003f 06       		.uleb128 0x6
 2759 0040 24       		.uleb128 0x24
 2760 0041 00       		.byte	0x0
 2761 0042 0B       		.uleb128 0xb
 2762 0043 0B       		.uleb128 0xb
 2763 0044 3E       		.uleb128 0x3e
 2764 0045 0B       		.uleb128 0xb
 2765 0046 00       		.byte	0x0
 2766 0047 00       		.byte	0x0
 2767 0048 07       		.uleb128 0x7
 2768 0049 2E       		.uleb128 0x2e
 2769 004a 00       		.byte	0x0
 2770 004b 3F       		.uleb128 0x3f
 2771 004c 0C       		.uleb128 0xc
 2772 004d 03       		.uleb128 0x3
 2773 004e 0E       		.uleb128 0xe
 2774 004f 3A       		.uleb128 0x3a
 2775 0050 0B       		.uleb128 0xb
 2776 0051 3B       		.uleb128 0x3b
 2777 0052 0B       		.uleb128 0xb
 2778 0053 27       		.uleb128 0x27
 2779 0054 0C       		.uleb128 0xc
 2780 0055 11       		.uleb128 0x11
 2781 0056 01       		.uleb128 0x1
 2782 0057 12       		.uleb128 0x12
 2783 0058 01       		.uleb128 0x1
 2784 0059 40       		.uleb128 0x40
 2785 005a 06       		.uleb128 0x6
 2786 005b 00       		.byte	0x0
 2787 005c 00       		.byte	0x0
 2788 005d 08       		.uleb128 0x8
 2789 005e 2E       		.uleb128 0x2e
 2790 005f 00       		.byte	0x0
 2791 0060 3F       		.uleb128 0x3f
 2792 0061 0C       		.uleb128 0xc
 2793 0062 03       		.uleb128 0x3
 2794 0063 0E       		.uleb128 0xe
 2795 0064 3A       		.uleb128 0x3a
 2796 0065 0B       		.uleb128 0xb
 2797 0066 3B       		.uleb128 0x3b
 2798 0067 05       		.uleb128 0x5
 2799 0068 27       		.uleb128 0x27
 2800 0069 0C       		.uleb128 0xc
 2801 006a 11       		.uleb128 0x11
 2802 006b 01       		.uleb128 0x1
 2803 006c 12       		.uleb128 0x12
ARM GAS  C:\Users\maxk\AppData\Local\Temp\cc0ClDlQ.s 			page 69


 2804 006d 01       		.uleb128 0x1
 2805 006e 40       		.uleb128 0x40
 2806 006f 06       		.uleb128 0x6
 2807 0070 00       		.byte	0x0
 2808 0071 00       		.byte	0x0
 2809 0072 09       		.uleb128 0x9
 2810 0073 2E       		.uleb128 0x2e
 2811 0074 01       		.byte	0x1
 2812 0075 3F       		.uleb128 0x3f
 2813 0076 0C       		.uleb128 0xc
 2814 0077 03       		.uleb128 0x3
 2815 0078 0E       		.uleb128 0xe
 2816 0079 3A       		.uleb128 0x3a
 2817 007a 0B       		.uleb128 0xb
 2818 007b 3B       		.uleb128 0x3b
 2819 007c 05       		.uleb128 0x5
 2820 007d 27       		.uleb128 0x27
 2821 007e 0C       		.uleb128 0xc
 2822 007f 49       		.uleb128 0x49
 2823 0080 13       		.uleb128 0x13
 2824 0081 11       		.uleb128 0x11
 2825 0082 01       		.uleb128 0x1
 2826 0083 12       		.uleb128 0x12
 2827 0084 01       		.uleb128 0x1
 2828 0085 40       		.uleb128 0x40
 2829 0086 06       		.uleb128 0x6
 2830 0087 01       		.uleb128 0x1
 2831 0088 13       		.uleb128 0x13
 2832 0089 00       		.byte	0x0
 2833 008a 00       		.byte	0x0
 2834 008b 0A       		.uleb128 0xa
 2835 008c 05       		.uleb128 0x5
 2836 008d 00       		.byte	0x0
 2837 008e 03       		.uleb128 0x3
 2838 008f 0E       		.uleb128 0xe
 2839 0090 3A       		.uleb128 0x3a
 2840 0091 0B       		.uleb128 0xb
 2841 0092 3B       		.uleb128 0x3b
 2842 0093 05       		.uleb128 0x5
 2843 0094 49       		.uleb128 0x49
 2844 0095 13       		.uleb128 0x13
 2845 0096 02       		.uleb128 0x2
 2846 0097 0A       		.uleb128 0xa
 2847 0098 00       		.byte	0x0
 2848 0099 00       		.byte	0x0
 2849 009a 0B       		.uleb128 0xb
 2850 009b 34       		.uleb128 0x34
 2851 009c 00       		.byte	0x0
 2852 009d 03       		.uleb128 0x3
 2853 009e 08       		.uleb128 0x8
 2854 009f 3A       		.uleb128 0x3a
 2855 00a0 0B       		.uleb128 0xb
 2856 00a1 3B       		.uleb128 0x3b
 2857 00a2 05       		.uleb128 0x5
 2858 00a3 49       		.uleb128 0x49
 2859 00a4 13       		.uleb128 0x13
 2860 00a5 02       		.uleb128 0x2
ARM GAS  C:\Users\maxk\AppData\Local\Temp\cc0ClDlQ.s 			page 70


 2861 00a6 0A       		.uleb128 0xa
 2862 00a7 00       		.byte	0x0
 2863 00a8 00       		.byte	0x0
 2864 00a9 0C       		.uleb128 0xc
 2865 00aa 34       		.uleb128 0x34
 2866 00ab 00       		.byte	0x0
 2867 00ac 03       		.uleb128 0x3
 2868 00ad 0E       		.uleb128 0xe
 2869 00ae 3A       		.uleb128 0x3a
 2870 00af 0B       		.uleb128 0xb
 2871 00b0 3B       		.uleb128 0x3b
 2872 00b1 05       		.uleb128 0x5
 2873 00b2 49       		.uleb128 0x49
 2874 00b3 13       		.uleb128 0x13
 2875 00b4 02       		.uleb128 0x2
 2876 00b5 0A       		.uleb128 0xa
 2877 00b6 00       		.byte	0x0
 2878 00b7 00       		.byte	0x0
 2879 00b8 0D       		.uleb128 0xd
 2880 00b9 2E       		.uleb128 0x2e
 2881 00ba 01       		.byte	0x1
 2882 00bb 3F       		.uleb128 0x3f
 2883 00bc 0C       		.uleb128 0xc
 2884 00bd 03       		.uleb128 0x3
 2885 00be 0E       		.uleb128 0xe
 2886 00bf 3A       		.uleb128 0x3a
 2887 00c0 0B       		.uleb128 0xb
 2888 00c1 3B       		.uleb128 0x3b
 2889 00c2 05       		.uleb128 0x5
 2890 00c3 27       		.uleb128 0x27
 2891 00c4 0C       		.uleb128 0xc
 2892 00c5 11       		.uleb128 0x11
 2893 00c6 01       		.uleb128 0x1
 2894 00c7 12       		.uleb128 0x12
 2895 00c8 01       		.uleb128 0x1
 2896 00c9 40       		.uleb128 0x40
 2897 00ca 06       		.uleb128 0x6
 2898 00cb 01       		.uleb128 0x1
 2899 00cc 13       		.uleb128 0x13
 2900 00cd 00       		.byte	0x0
 2901 00ce 00       		.byte	0x0
 2902 00cf 0E       		.uleb128 0xe
 2903 00d0 2E       		.uleb128 0x2e
 2904 00d1 00       		.byte	0x0
 2905 00d2 3F       		.uleb128 0x3f
 2906 00d3 0C       		.uleb128 0xc
 2907 00d4 03       		.uleb128 0x3
 2908 00d5 0E       		.uleb128 0xe
 2909 00d6 3A       		.uleb128 0x3a
 2910 00d7 0B       		.uleb128 0xb
 2911 00d8 3B       		.uleb128 0x3b
 2912 00d9 05       		.uleb128 0x5
 2913 00da 27       		.uleb128 0x27
 2914 00db 0C       		.uleb128 0xc
 2915 00dc 49       		.uleb128 0x49
 2916 00dd 13       		.uleb128 0x13
 2917 00de 11       		.uleb128 0x11
ARM GAS  C:\Users\maxk\AppData\Local\Temp\cc0ClDlQ.s 			page 71


 2918 00df 01       		.uleb128 0x1
 2919 00e0 12       		.uleb128 0x12
 2920 00e1 01       		.uleb128 0x1
 2921 00e2 40       		.uleb128 0x40
 2922 00e3 06       		.uleb128 0x6
 2923 00e4 00       		.byte	0x0
 2924 00e5 00       		.byte	0x0
 2925 00e6 0F       		.uleb128 0xf
 2926 00e7 34       		.uleb128 0x34
 2927 00e8 00       		.byte	0x0
 2928 00e9 03       		.uleb128 0x3
 2929 00ea 0E       		.uleb128 0xe
 2930 00eb 3A       		.uleb128 0x3a
 2931 00ec 0B       		.uleb128 0xb
 2932 00ed 3B       		.uleb128 0x3b
 2933 00ee 0B       		.uleb128 0xb
 2934 00ef 49       		.uleb128 0x49
 2935 00f0 13       		.uleb128 0x13
 2936 00f1 3F       		.uleb128 0x3f
 2937 00f2 0C       		.uleb128 0xc
 2938 00f3 02       		.uleb128 0x2
 2939 00f4 0A       		.uleb128 0xa
 2940 00f5 00       		.byte	0x0
 2941 00f6 00       		.byte	0x0
 2942 00f7 10       		.uleb128 0x10
 2943 00f8 01       		.uleb128 0x1
 2944 00f9 01       		.byte	0x1
 2945 00fa 49       		.uleb128 0x49
 2946 00fb 13       		.uleb128 0x13
 2947 00fc 01       		.uleb128 0x1
 2948 00fd 13       		.uleb128 0x13
 2949 00fe 00       		.byte	0x0
 2950 00ff 00       		.byte	0x0
 2951 0100 11       		.uleb128 0x11
 2952 0101 21       		.uleb128 0x21
 2953 0102 00       		.byte	0x0
 2954 0103 49       		.uleb128 0x49
 2955 0104 13       		.uleb128 0x13
 2956 0105 2F       		.uleb128 0x2f
 2957 0106 0B       		.uleb128 0xb
 2958 0107 00       		.byte	0x0
 2959 0108 00       		.byte	0x0
 2960 0109 12       		.uleb128 0x12
 2961 010a 0F       		.uleb128 0xf
 2962 010b 00       		.byte	0x0
 2963 010c 0B       		.uleb128 0xb
 2964 010d 0B       		.uleb128 0xb
 2965 010e 49       		.uleb128 0x49
 2966 010f 13       		.uleb128 0x13
 2967 0110 00       		.byte	0x0
 2968 0111 00       		.byte	0x0
 2969 0112 13       		.uleb128 0x13
 2970 0113 26       		.uleb128 0x26
 2971 0114 00       		.byte	0x0
 2972 0115 49       		.uleb128 0x49
 2973 0116 13       		.uleb128 0x13
 2974 0117 00       		.byte	0x0
ARM GAS  C:\Users\maxk\AppData\Local\Temp\cc0ClDlQ.s 			page 72


 2975 0118 00       		.byte	0x0
 2976 0119 00       		.byte	0x0
 2977              		.section	.debug_pubnames,"",%progbits
 2978 0000 F6030000 		.4byte	0x3f6
 2979 0004 0200     		.2byte	0x2
 2980 0006 00000000 		.4byte	.Ldebug_info0
 2981 000a 74060000 		.4byte	0x674
 2982 000e AD000000 		.4byte	0xad
 2983 0012 43617053 		.ascii	"CapSense_1_Init\000"
 2983      656E7365 
 2983      5F315F49 
 2983      6E697400 
 2984 0022 C2000000 		.4byte	0xc2
 2985 0026 43617053 		.ascii	"CapSense_1_Enable\000"
 2985      656E7365 
 2985      5F315F45 
 2985      6E61626C 
 2985      6500
 2986 0038 D7000000 		.4byte	0xd7
 2987 003c 43617053 		.ascii	"CapSense_1_Start\000"
 2987      656E7365 
 2987      5F315F53 
 2987      74617274 
 2987      00
 2988 004d ED000000 		.4byte	0xed
 2989 0051 43617053 		.ascii	"CapSense_1_Stop\000"
 2989      656E7365 
 2989      5F315F53 
 2989      746F7000 
 2990 0061 03010000 		.4byte	0x103
 2991 0065 43617053 		.ascii	"CapSense_1_FindNextSensor\000"
 2991      656E7365 
 2991      5F315F46 
 2991      696E644E 
 2991      65787453 
 2992 007f 4F010000 		.4byte	0x14f
 2993 0083 43617053 		.ascii	"CapSense_1_SetScanSlotSettings\000"
 2993      656E7365 
 2993      5F315F53 
 2993      65745363 
 2993      616E536C 
 2994 00a2 88010000 		.4byte	0x188
 2995 00a6 43617053 		.ascii	"CapSense_1_ScanSensor\000"
 2995      656E7365 
 2995      5F315F53 
 2995      63616E53 
 2995      656E736F 
 2996 00bc B2010000 		.4byte	0x1b2
 2997 00c0 43617053 		.ascii	"CapSense_1_ScanEnabledWidgets\000"
 2997      656E7365 
 2997      5F315F53 
 2997      63616E45 
 2997      6E61626C 
 2998 00de C8010000 		.4byte	0x1c8
 2999 00e2 43617053 		.ascii	"CapSense_1_IsBusy\000"
 2999      656E7365 
 2999      5F315F49 
ARM GAS  C:\Users\maxk\AppData\Local\Temp\cc0ClDlQ.s 			page 73


 2999      73427573 
 2999      7900
 3000 00f4 E2010000 		.4byte	0x1e2
 3001 00f8 43617053 		.ascii	"CapSense_1_ReadSensorRaw\000"
 3001      656E7365 
 3001      5F315F52 
 3001      65616453 
 3001      656E736F 
 3002 0111 10020000 		.4byte	0x210
 3003 0115 43617053 		.ascii	"CapSense_1_ClearSensors\000"
 3003      656E7365 
 3003      5F315F43 
 3003      6C656172 
 3003      53656E73 
 3004 012d 38020000 		.4byte	0x238
 3005 0131 43617053 		.ascii	"CapSense_1_EnableSensor\000"
 3005      656E7365 
 3005      5F315F45 
 3005      6E61626C 
 3005      6553656E 
 3006 0149 9E020000 		.4byte	0x29e
 3007 014d 43617053 		.ascii	"CapSense_1_DisableSensor\000"
 3007      656E7365 
 3007      5F315F44 
 3007      69736162 
 3007      6C655365 
 3008 0166 04030000 		.4byte	0x304
 3009 016a 43617053 		.ascii	"CapSense_1_PreScan\000"
 3009      656E7365 
 3009      5F315F50 
 3009      72655363 
 3009      616E00
 3010 017d 5B030000 		.4byte	0x35b
 3011 0181 43617053 		.ascii	"CapSense_1_PostScan\000"
 3011      656E7365 
 3011      5F315F50 
 3011      6F737453 
 3011      63616E00 
 3012 0195 85030000 		.4byte	0x385
 3013 0199 43617053 		.ascii	"CapSense_1_SetShieldDelay\000"
 3013      656E7365 
 3013      5F315F53 
 3013      65745368 
 3013      69656C64 
 3014 01b3 AF030000 		.4byte	0x3af
 3015 01b7 43617053 		.ascii	"CapSense_1_GetResolutionIndex\000"
 3015      656E7365 
 3015      5F315F47 
 3015      65745265 
 3015      736F6C75 
 3016 01d5 19040000 		.4byte	0x419
 3017 01d9 43617053 		.ascii	"CapSense_1_Calc_PRS_Resolution\000"
 3017      656E7365 
 3017      5F315F43 
 3017      616C635F 
 3017      5052535F 
 3018 01f8 70040000 		.4byte	0x470
ARM GAS  C:\Users\maxk\AppData\Local\Temp\cc0ClDlQ.s 			page 74


 3019 01fc 43617053 		.ascii	"CapSense_1_initVar\000"
 3019      656E7365 
 3019      5F315F69 
 3019      6E697456 
 3019      617200
 3020 020f 82040000 		.4byte	0x482
 3021 0213 43617053 		.ascii	"CapSense_1_csv\000"
 3021      656E7365 
 3021      5F315F63 
 3021      737600
 3022 0222 94040000 		.4byte	0x494
 3023 0226 43617053 		.ascii	"CapSense_1_sensorIndex\000"
 3023      656E7365 
 3023      5F315F73 
 3023      656E736F 
 3023      72496E64 
 3024 023d B6040000 		.4byte	0x4b6
 3025 0241 43617053 		.ascii	"CapSense_1_SensorRaw\000"
 3025      656E7365 
 3025      5F315F53 
 3025      656E736F 
 3025      72526177 
 3026 0256 D8040000 		.4byte	0x4d8
 3027 025a 43617053 		.ascii	"CapSense_1_PRSResolutionTbl\000"
 3027      656E7365 
 3027      5F315F50 
 3027      52535265 
 3027      736F6C75 
 3028 0276 FA040000 		.4byte	0x4fa
 3029 027a 43617053 		.ascii	"CapSense_1_SensorEnableMask\000"
 3029      656E7365 
 3029      5F315F53 
 3029      656E736F 
 3029      72456E61 
 3030 0296 27050000 		.4byte	0x527
 3031 029a 43617053 		.ascii	"CapSense_1_pcTable\000"
 3031      656E7365 
 3031      5F315F70 
 3031      63546162 
 3031      6C6500
 3032 02ad 49050000 		.4byte	0x549
 3033 02b1 43617053 		.ascii	"CapSense_1_portTable\000"
 3033      656E7365 
 3033      5F315F70 
 3033      6F727454 
 3033      61626C65 
 3034 02c6 60050000 		.4byte	0x560
 3035 02ca 43617053 		.ascii	"CapSense_1_maskTable\000"
 3035      656E7365 
 3035      5F315F6D 
 3035      61736B54 
 3035      61626C65 
 3036 02df 77050000 		.4byte	0x577
 3037 02e3 43617053 		.ascii	"CapSense_1_pinShiftTbl\000"
 3037      656E7365 
 3037      5F315F70 
 3037      696E5368 
ARM GAS  C:\Users\maxk\AppData\Local\Temp\cc0ClDlQ.s 			page 75


 3037      69667454 
 3038 02fa 8E050000 		.4byte	0x58e
 3039 02fe 43617053 		.ascii	"CapSense_1_idac1Settings\000"
 3039      656E7365 
 3039      5F315F69 
 3039      64616331 
 3039      53657474 
 3040 0317 A5050000 		.4byte	0x5a5
 3041 031b 43617053 		.ascii	"CapSense_1_idac2Settings\000"
 3041      656E7365 
 3041      5F315F69 
 3041      64616332 
 3041      53657474 
 3042 0334 CC050000 		.4byte	0x5cc
 3043 0338 43617053 		.ascii	"CapSense_1_widgetResolution\000"
 3043      656E7365 
 3043      5F315F77 
 3043      69646765 
 3043      74526573 
 3044 0354 E3050000 		.4byte	0x5e3
 3045 0358 43617053 		.ascii	"CapSense_1_Clk1DividerVal\000"
 3045      656E7365 
 3045      5F315F43 
 3045      6C6B3144 
 3045      69766964 
 3046 0372 F5050000 		.4byte	0x5f5
 3047 0376 43617053 		.ascii	"CapSense_1_Clk2DividerVal\000"
 3047      656E7365 
 3047      5F315F43 
 3047      6C6B3244 
 3047      69766964 
 3048 0390 07060000 		.4byte	0x607
 3049 0394 43617053 		.ascii	"CapSense_1_widgetNumber\000"
 3049      656E7365 
 3049      5F315F77 
 3049      69646765 
 3049      744E756D 
 3050 03ac 2E060000 		.4byte	0x62e
 3051 03b0 43617053 		.ascii	"CapSense_1_PrtSelTbl\000"
 3051      656E7365 
 3051      5F315F50 
 3051      72745365 
 3051      6C54626C 
 3052 03c5 45060000 		.4byte	0x645
 3053 03c9 43617053 		.ascii	"CapSense_1_PrtCfgTbl\000"
 3053      656E7365 
 3053      5F315F50 
 3053      72744366 
 3053      6754626C 
 3054 03de 5C060000 		.4byte	0x65c
 3055 03e2 43617053 		.ascii	"CapSense_1_PrtDRTbl\000"
 3055      656E7365 
 3055      5F315F50 
 3055      72744452 
 3055      54626C00 
 3056 03f6 00000000 		.4byte	0x0
 3057              		.section	.debug_aranges,"",%progbits
ARM GAS  C:\Users\maxk\AppData\Local\Temp\cc0ClDlQ.s 			page 76


 3058 0000 A4000000 		.4byte	0xa4
 3059 0004 0200     		.2byte	0x2
 3060 0006 00000000 		.4byte	.Ldebug_info0
 3061 000a 04       		.byte	0x4
 3062 000b 00       		.byte	0x0
 3063 000c 0000     		.2byte	0x0
 3064 000e 0000     		.2byte	0x0
 3065 0010 00000000 		.4byte	.LFB0
 3066 0014 94000000 		.4byte	.LFE0-.LFB0
 3067 0018 00000000 		.4byte	.LFB1
 3068 001c 4C000000 		.4byte	.LFE1-.LFB1
 3069 0020 00000000 		.4byte	.LFB2
 3070 0024 34000000 		.4byte	.LFE2-.LFB2
 3071 0028 00000000 		.4byte	.LFB3
 3072 002c 1A000000 		.4byte	.LFE3-.LFB3
 3073 0030 00000000 		.4byte	.LFB4
 3074 0034 68000000 		.4byte	.LFE4-.LFB4
 3075 0038 00000000 		.4byte	.LFB5
 3076 003c 64000000 		.4byte	.LFE5-.LFB5
 3077 0040 00000000 		.4byte	.LFB6
 3078 0044 3C000000 		.4byte	.LFE6-.LFB6
 3079 0048 00000000 		.4byte	.LFB7
 3080 004c 58000000 		.4byte	.LFE7-.LFB7
 3081 0050 00000000 		.4byte	.LFB8
 3082 0054 28000000 		.4byte	.LFE8-.LFB8
 3083 0058 00000000 		.4byte	.LFB9
 3084 005c 24000000 		.4byte	.LFE9-.LFB9
 3085 0060 00000000 		.4byte	.LFB10
 3086 0064 30000000 		.4byte	.LFE10-.LFB10
 3087 0068 00000000 		.4byte	.LFB11
 3088 006c B8000000 		.4byte	.LFE11-.LFB11
 3089 0070 00000000 		.4byte	.LFB12
 3090 0074 E4000000 		.4byte	.LFE12-.LFB12
 3091 0078 00000000 		.4byte	.LFB13
 3092 007c CC000000 		.4byte	.LFE13-.LFB13
 3093 0080 00000000 		.4byte	.LFB14
 3094 0084 34000000 		.4byte	.LFE14-.LFB14
 3095 0088 00000000 		.4byte	.LFB15
 3096 008c 38000000 		.4byte	.LFE15-.LFB15
 3097 0090 00000000 		.4byte	.LFB16
 3098 0094 5C000000 		.4byte	.LFE16-.LFB16
 3099 0098 00000000 		.4byte	.LFB17
 3100 009c 90000000 		.4byte	.LFE17-.LFB17
 3101 00a0 00000000 		.4byte	0x0
 3102 00a4 00000000 		.4byte	0x0
 3103              		.section	.debug_ranges,"",%progbits
 3104              	.Ldebug_ranges0:
 3105 0000 00000000 		.4byte	.Ltext0
 3106 0004 00000000 		.4byte	.Letext0
 3107 0008 00000000 		.4byte	.LFB0
 3108 000c 94000000 		.4byte	.LFE0
 3109 0010 00000000 		.4byte	.LFB1
 3110 0014 4C000000 		.4byte	.LFE1
 3111 0018 00000000 		.4byte	.LFB2
 3112 001c 34000000 		.4byte	.LFE2
 3113 0020 00000000 		.4byte	.LFB3
 3114 0024 1A000000 		.4byte	.LFE3
ARM GAS  C:\Users\maxk\AppData\Local\Temp\cc0ClDlQ.s 			page 77


 3115 0028 00000000 		.4byte	.LFB4
 3116 002c 68000000 		.4byte	.LFE4
 3117 0030 00000000 		.4byte	.LFB5
 3118 0034 64000000 		.4byte	.LFE5
 3119 0038 00000000 		.4byte	.LFB6
 3120 003c 3C000000 		.4byte	.LFE6
 3121 0040 00000000 		.4byte	.LFB7
 3122 0044 58000000 		.4byte	.LFE7
 3123 0048 00000000 		.4byte	.LFB8
 3124 004c 28000000 		.4byte	.LFE8
 3125 0050 00000000 		.4byte	.LFB9
 3126 0054 24000000 		.4byte	.LFE9
 3127 0058 00000000 		.4byte	.LFB10
 3128 005c 30000000 		.4byte	.LFE10
 3129 0060 00000000 		.4byte	.LFB11
 3130 0064 B8000000 		.4byte	.LFE11
 3131 0068 00000000 		.4byte	.LFB12
 3132 006c E4000000 		.4byte	.LFE12
 3133 0070 00000000 		.4byte	.LFB13
 3134 0074 CC000000 		.4byte	.LFE13
 3135 0078 00000000 		.4byte	.LFB14
 3136 007c 34000000 		.4byte	.LFE14
 3137 0080 00000000 		.4byte	.LFB15
 3138 0084 38000000 		.4byte	.LFE15
 3139 0088 00000000 		.4byte	.LFB16
 3140 008c 5C000000 		.4byte	.LFE16
 3141 0090 00000000 		.4byte	.LFB17
 3142 0094 90000000 		.4byte	.LFE17
 3143 0098 00000000 		.4byte	0x0
 3144 009c 00000000 		.4byte	0x0
 3145              		.section	.debug_str,"MS",%progbits,1
 3146              	.LASF46:
 3147 0000 63757253 		.ascii	"curSensor\000"
 3147      656E736F 
 3147      7200
 3148              	.LASF10:
 3149 000a 75696E74 		.ascii	"uint16\000"
 3149      313600
 3150              	.LASF50:
 3151 0011 43617053 		.ascii	"CapSense_1_csv\000"
 3151      656E7365 
 3151      5F315F63 
 3151      737600
 3152              	.LASF58:
 3153 0020 43617053 		.ascii	"CapSense_1_pinShiftTbl\000"
 3153      656E7365 
 3153      5F315F70 
 3153      696E5368 
 3153      69667454 
 3154              	.LASF62:
 3155 0037 43617053 		.ascii	"CapSense_1_Clk1DividerVal\000"
 3155      656E7365 
 3155      5F315F43 
 3155      6C6B3144 
 3155      69766964 
 3156              	.LASF20:
 3157 0051 736E7349 		.ascii	"snsIndex\000"
ARM GAS  C:\Users\maxk\AppData\Local\Temp\cc0ClDlQ.s 			page 78


 3157      6E646578 
 3157      00
 3158              	.LASF49:
 3159 005a 43617053 		.ascii	"CapSense_1_initVar\000"
 3159      656E7365 
 3159      5F315F69 
 3159      6E697456 
 3159      617200
 3160              	.LASF45:
 3161 006d 43617053 		.ascii	"CapSense_1_Calc_PRS_Resolution\000"
 3161      656E7365 
 3161      5F315F43 
 3161      616C635F 
 3161      5052535F 
 3162              	.LASF7:
 3163 008c 6C6F6E67 		.ascii	"long long unsigned int\000"
 3163      206C6F6E 
 3163      6720756E 
 3163      7369676E 
 3163      65642069 
 3164              	.LASF68:
 3165 00a3 474E5520 		.ascii	"GNU C 4.4.1\000"
 3165      4320342E 
 3165      342E3100 
 3166              	.LASF32:
 3167 00af 70696E4D 		.ascii	"pinModeShift\000"
 3167      6F646553 
 3167      68696674 
 3167      00
 3168              	.LASF60:
 3169 00bc 43617053 		.ascii	"CapSense_1_idac2Settings\000"
 3169      656E7365 
 3169      5F315F69 
 3169      64616332 
 3169      53657474 
 3170              	.LASF6:
 3171 00d5 6C6F6E67 		.ascii	"long long int\000"
 3171      206C6F6E 
 3171      6720696E 
 3171      7400
 3172              	.LASF0:
 3173 00e3 7369676E 		.ascii	"signed char\000"
 3173      65642063 
 3173      68617200 
 3174              	.LASF54:
 3175 00ef 43617053 		.ascii	"CapSense_1_SensorEnableMask\000"
 3175      656E7365 
 3175      5F315F53 
 3175      656E736F 
 3175      72456E61 
 3176              	.LASF59:
 3177 010b 43617053 		.ascii	"CapSense_1_idac1Settings\000"
 3177      656E7365 
 3177      5F315F69 
 3177      64616331 
 3177      53657474 
 3178              	.LASF37:
ARM GAS  C:\Users\maxk\AppData\Local\Temp\cc0ClDlQ.s 			page 79


 3179 0124 696E7465 		.ascii	"interruptState\000"
 3179      72727570 
 3179      74537461 
 3179      746500
 3180              	.LASF4:
 3181 0133 6C6F6E67 		.ascii	"long int\000"
 3181      20696E74 
 3181      00
 3182              	.LASF38:
 3183 013c 43617053 		.ascii	"CapSense_1_PostScan\000"
 3183      656E7365 
 3183      5F315F50 
 3183      6F737453 
 3183      63616E00 
 3184              	.LASF9:
 3185 0150 75696E74 		.ascii	"uint8\000"
 3185      3800
 3186              	.LASF13:
 3187 0156 646F7562 		.ascii	"double\000"
 3187      6C6500
 3188              	.LASF15:
 3189 015d 43617053 		.ascii	"CapSense_1_Init\000"
 3189      656E7365 
 3189      5F315F49 
 3189      6E697400 
 3190              	.LASF11:
 3191 016d 75696E74 		.ascii	"uint32\000"
 3191      333200
 3192              	.LASF24:
 3193 0174 43617053 		.ascii	"CapSense_1_ScanSensor\000"
 3193      656E7365 
 3193      5F315F53 
 3193      63616E53 
 3193      656E736F 
 3194              	.LASF66:
 3195 018a 43617053 		.ascii	"CapSense_1_PrtCfgTbl\000"
 3195      656E7365 
 3195      5F315F50 
 3195      72744366 
 3195      6754626C 
 3196              	.LASF44:
 3197 019f 6D61736B 		.ascii	"mask\000"
 3197      00
 3198              	.LASF28:
 3199 01a4 43617053 		.ascii	"CapSense_1_ReadSensorRaw\000"
 3199      656E7365 
 3199      5F315F52 
 3199      65616453 
 3199      656E736F 
 3200              	.LASF31:
 3201 01bd 706F7274 		.ascii	"port\000"
 3201      00
 3202              	.LASF8:
 3203 01c2 756E7369 		.ascii	"unsigned int\000"
 3203      676E6564 
 3203      20696E74 
 3203      00
ARM GAS  C:\Users\maxk\AppData\Local\Temp\cc0ClDlQ.s 			page 80


 3204              	.LASF39:
 3205 01cf 43617053 		.ascii	"CapSense_1_SetShieldDelay\000"
 3205      656E7365 
 3205      5F315F53 
 3205      65745368 
 3205      69656C64 
 3206              	.LASF26:
 3207 01e9 43617053 		.ascii	"CapSense_1_ScanEnabledWidgets\000"
 3207      656E7365 
 3207      5F315F53 
 3207      63616E45 
 3207      6E61626C 
 3208              	.LASF5:
 3209 0207 6C6F6E67 		.ascii	"long unsigned int\000"
 3209      20756E73 
 3209      69676E65 
 3209      6420696E 
 3209      7400
 3210              	.LASF52:
 3211 0219 43617053 		.ascii	"CapSense_1_SensorRaw\000"
 3211      656E7365 
 3211      5F315F53 
 3211      656E736F 
 3211      72526177 
 3212              	.LASF53:
 3213 022e 43617053 		.ascii	"CapSense_1_PRSResolutionTbl\000"
 3213      656E7365 
 3213      5F315F50 
 3213      52535265 
 3213      736F6C75 
 3214              	.LASF3:
 3215 024a 73686F72 		.ascii	"short unsigned int\000"
 3215      7420756E 
 3215      7369676E 
 3215      65642069 
 3215      6E7400
 3216              	.LASF25:
 3217 025d 73656E73 		.ascii	"sensor\000"
 3217      6F7200
 3218              	.LASF21:
 3219 0264 736C6F74 		.ascii	"slot\000"
 3219      00
 3220              	.LASF42:
 3221 0269 77696467 		.ascii	"widgetResolution\000"
 3221      65745265 
 3221      736F6C75 
 3221      74696F6E 
 3221      00
 3222              	.LASF35:
 3223 027a 43617053 		.ascii	"CapSense_1_PreScan\000"
 3223      656E7365 
 3223      5F315F50 
 3223      72655363 
 3223      616E00
 3224              	.LASF47:
 3225 028d 73656E73 		.ascii	"senseClk\000"
 3225      65436C6B 
ARM GAS  C:\Users\maxk\AppData\Local\Temp\cc0ClDlQ.s 			page 81


 3225      00
 3226              	.LASF63:
 3227 0296 43617053 		.ascii	"CapSense_1_Clk2DividerVal\000"
 3227      656E7365 
 3227      5F315F43 
 3227      6C6B3244 
 3227      69766964 
 3228              	.LASF64:
 3229 02b0 43617053 		.ascii	"CapSense_1_widgetNumber\000"
 3229      656E7365 
 3229      5F315F77 
 3229      69646765 
 3229      744E756D 
 3230              	.LASF19:
 3231 02c8 656E4D61 		.ascii	"enMask\000"
 3231      736B00
 3232              	.LASF57:
 3233 02cf 43617053 		.ascii	"CapSense_1_maskTable\000"
 3233      656E7365 
 3233      5F315F6D 
 3233      61736B54 
 3233      61626C65 
 3234              	.LASF56:
 3235 02e4 43617053 		.ascii	"CapSense_1_portTable\000"
 3235      656E7365 
 3235      5F315F70 
 3235      6F727454 
 3235      61626C65 
 3236              	.LASF65:
 3237 02f9 43617053 		.ascii	"CapSense_1_PrtSelTbl\000"
 3237      656E7365 
 3237      5F315F50 
 3237      72745365 
 3237      6C54626C 
 3238              	.LASF70:
 3239 030e 433A5C55 		.ascii	"C:\\Users\\maxk\\Desktop\\PSoC 4A\\FAE Workshop\\La"
 3239      73657273 
 3239      5C6D6178 
 3239      6B5C4465 
 3239      736B746F 
 3240 033b 62205072 		.ascii	"b Projects\\Lab working directory\\Lab 3 CapSense U"
 3240      6F6A6563 
 3240      74735C4C 
 3240      61622077 
 3240      6F726B69 
 3241 036c 4152542E 		.ascii	"ART.cydsn\000"
 3241      63796473 
 3241      6E00
 3242              	.LASF55:
 3243 0376 43617053 		.ascii	"CapSense_1_pcTable\000"
 3243      656E7365 
 3243      5F315F70 
 3243      63546162 
 3243      6C6500
 3244              	.LASF12:
 3245 0389 666C6F61 		.ascii	"float\000"
 3245      7400
ARM GAS  C:\Users\maxk\AppData\Local\Temp\cc0ClDlQ.s 			page 82


 3246              	.LASF1:
 3247 038f 756E7369 		.ascii	"unsigned char\000"
 3247      676E6564 
 3247      20636861 
 3247      7200
 3248              	.LASF33:
 3249 039d 70696E48 		.ascii	"pinHSIOMShift\000"
 3249      53494F4D 
 3249      53686966 
 3249      7400
 3250              	.LASF40:
 3251 03ab 64656C61 		.ascii	"delay\000"
 3251      7900
 3252              	.LASF2:
 3253 03b1 73686F72 		.ascii	"short int\000"
 3253      7420696E 
 3253      7400
 3254              	.LASF36:
 3255 03bb 77696467 		.ascii	"widget\000"
 3255      657400
 3256              	.LASF27:
 3257 03c2 43617053 		.ascii	"CapSense_1_FindNextSensor\000"
 3257      656E7365 
 3257      5F315F46 
 3257      696E644E 
 3257      65787453 
 3258              	.LASF67:
 3259 03dc 43617053 		.ascii	"CapSense_1_PrtDRTbl\000"
 3259      656E7365 
 3259      5F315F50 
 3259      72744452 
 3259      54626C00 
 3260              	.LASF61:
 3261 03f0 43617053 		.ascii	"CapSense_1_widgetResolution\000"
 3261      656E7365 
 3261      5F315F77 
 3261      69646765 
 3261      74526573 
 3262              	.LASF14:
 3263 040c 63686172 		.ascii	"char\000"
 3263      00
 3264              	.LASF51:
 3265 0411 43617053 		.ascii	"CapSense_1_sensorIndex\000"
 3265      656E7365 
 3265      5F315F73 
 3265      656E736F 
 3265      72496E64 
 3266              	.LASF71:
 3267 0428 43617053 		.ascii	"CapSense_1_IsBusy\000"
 3267      656E7365 
 3267      5F315F49 
 3267      73427573 
 3267      7900
 3268              	.LASF41:
 3269 043a 43617053 		.ascii	"CapSense_1_GetResolutionIndex\000"
 3269      656E7365 
 3269      5F315F47 
ARM GAS  C:\Users\maxk\AppData\Local\Temp\cc0ClDlQ.s 			page 83


 3269      65745265 
 3269      736F6C75 
 3270              	.LASF30:
 3271 0458 43617053 		.ascii	"CapSense_1_EnableSensor\000"
 3271      656E7365 
 3271      5F315F45 
 3271      6E61626C 
 3271      6553656E 
 3272              	.LASF18:
 3273 0470 43617053 		.ascii	"CapSense_1_Stop\000"
 3273      656E7365 
 3273      5F315F53 
 3273      746F7000 
 3274              	.LASF48:
 3275 0480 73616D70 		.ascii	"sampleClk\000"
 3275      6C65436C 
 3275      6B00
 3276              	.LASF17:
 3277 048a 43617053 		.ascii	"CapSense_1_Start\000"
 3277      656E7365 
 3277      5F315F53 
 3277      74617274 
 3277      00
 3278              	.LASF22:
 3279 049b 6E657752 		.ascii	"newRegisterValue\000"
 3279      65676973 
 3279      74657256 
 3279      616C7565 
 3279      00
 3280              	.LASF16:
 3281 04ac 43617053 		.ascii	"CapSense_1_Enable\000"
 3281      656E7365 
 3281      5F315F45 
 3281      6E61626C 
 3281      6500
 3282              	.LASF29:
 3283 04be 43617053 		.ascii	"CapSense_1_ClearSensors\000"
 3283      656E7365 
 3283      5F315F43 
 3283      6C656172 
 3283      53656E73 
 3284              	.LASF34:
 3285 04d6 43617053 		.ascii	"CapSense_1_DisableSensor\000"
 3285      656E7365 
 3285      5F315F44 
 3285      69736162 
 3285      6C655365 
 3286              	.LASF69:
 3287 04ef 2E5C4765 		.ascii	".\\Generated_Source\\PSoC4\\CapSense_1.c\000"
 3287      6E657261 
 3287      7465645F 
 3287      536F7572 
 3287      63655C50 
 3288              	.LASF43:
 3289 0515 72657375 		.ascii	"result\000"
 3289      6C7400
 3290              	.LASF23:
ARM GAS  C:\Users\maxk\AppData\Local\Temp\cc0ClDlQ.s 			page 84


 3291 051c 43617053 		.ascii	"CapSense_1_SetScanSlotSettings\000"
 3291      656E7365 
 3291      5F315F53 
 3291      65745363 
 3291      616E536C 
 3292              		.ident	"GCC: (Sourcery G++ Lite 2010q1-188) 4.4.1"
