ARM GAS  C:\Users\maxk\AppData\Local\Temp\cc2tShFZ.s 			page 1


   1              		.cpu cortex-m0
   2              		.fpu softvfp
   3              		.eabi_attribute 20, 1
   4              		.eabi_attribute 21, 1
   5              		.eabi_attribute 23, 3
   6              		.eabi_attribute 24, 1
   7              		.eabi_attribute 25, 1
   8              		.eabi_attribute 26, 1
   9              		.eabi_attribute 30, 6
  10              		.eabi_attribute 18, 4
  11              		.code	16
  12              		.file	"CapSense_1_PM.c"
  19 0000 CE000000 		.text
  19      02007600 
  19      00000201 
  19      FB0E0D00 
  19      01010101 
  20              	.Ltext0:
  21              		.cfi_sections	.debug_frame
  22              		.global	CapSense_1_backup
  23              		.bss
  24              		.align	2
  25              		.type	CapSense_1_backup, %object
  26              		.size	CapSense_1_backup, 1
  27              	CapSense_1_backup:
  28 0000 00       		.space	1
  29 0001 000000   		.section	.text.CapSense_1_SaveConfig,"ax",%progbits
  30              		.align	2
  31              		.global	CapSense_1_SaveConfig
  32              		.code	16
  33              		.thumb_func
  34              		.type	CapSense_1_SaveConfig, %function
  35              	CapSense_1_SaveConfig:
  36              	.LFB0:
  37              		.file 1 ".\\Generated_Source\\PSoC4\\CapSense_1_PM.c"
   1:.\Generated_Source\PSoC4/CapSense_1_PM.c **** /*******************************************************************************
   2:.\Generated_Source\PSoC4/CapSense_1_PM.c **** * File Name: CapSense_1_PM.c
   3:.\Generated_Source\PSoC4/CapSense_1_PM.c **** * Version 1.0
   4:.\Generated_Source\PSoC4/CapSense_1_PM.c **** *
   5:.\Generated_Source\PSoC4/CapSense_1_PM.c **** * Description:
   6:.\Generated_Source\PSoC4/CapSense_1_PM.c **** *  This file provides Sleep APIs for CapSense CSD Component.
   7:.\Generated_Source\PSoC4/CapSense_1_PM.c **** *
   8:.\Generated_Source\PSoC4/CapSense_1_PM.c **** * Note:
   9:.\Generated_Source\PSoC4/CapSense_1_PM.c **** *
  10:.\Generated_Source\PSoC4/CapSense_1_PM.c **** ********************************************************************************
  11:.\Generated_Source\PSoC4/CapSense_1_PM.c **** * Copyright 2013, Cypress Semiconductor Corporation.  All rights reserved.
  12:.\Generated_Source\PSoC4/CapSense_1_PM.c **** * You may use this file only in accordance with the license, terms, conditions, 
  13:.\Generated_Source\PSoC4/CapSense_1_PM.c **** * disclaimers, and limitations in the end user license agreement accompanying 
  14:.\Generated_Source\PSoC4/CapSense_1_PM.c **** * the software package with which this file was provided.
  15:.\Generated_Source\PSoC4/CapSense_1_PM.c **** *******************************************************************************/
  16:.\Generated_Source\PSoC4/CapSense_1_PM.c **** 
ARM GAS  C:\Users\maxk\AppData\Local\Temp\cc2tShFZ.s 			page 2


  17:.\Generated_Source\PSoC4/CapSense_1_PM.c **** #include "CapSense_1.h"
  18:.\Generated_Source\PSoC4/CapSense_1_PM.c **** 
  19:.\Generated_Source\PSoC4/CapSense_1_PM.c **** CapSense_1_BACKUP_STRUCT CapSense_1_backup =
  20:.\Generated_Source\PSoC4/CapSense_1_PM.c **** {   
  21:.\Generated_Source\PSoC4/CapSense_1_PM.c ****     0x00u, /* enableState; */
  22:.\Generated_Source\PSoC4/CapSense_1_PM.c **** };
  23:.\Generated_Source\PSoC4/CapSense_1_PM.c **** 
  24:.\Generated_Source\PSoC4/CapSense_1_PM.c **** 
  25:.\Generated_Source\PSoC4/CapSense_1_PM.c **** /*******************************************************************************
  26:.\Generated_Source\PSoC4/CapSense_1_PM.c **** * Function Name: CapSense_1_SaveConfig
  27:.\Generated_Source\PSoC4/CapSense_1_PM.c **** ********************************************************************************
  28:.\Generated_Source\PSoC4/CapSense_1_PM.c **** *
  29:.\Generated_Source\PSoC4/CapSense_1_PM.c **** * Summary:
  30:.\Generated_Source\PSoC4/CapSense_1_PM.c **** *  Saves customer configuration of CapSense.
  31:.\Generated_Source\PSoC4/CapSense_1_PM.c **** *
  32:.\Generated_Source\PSoC4/CapSense_1_PM.c **** * Parameters:
  33:.\Generated_Source\PSoC4/CapSense_1_PM.c **** *  None
  34:.\Generated_Source\PSoC4/CapSense_1_PM.c **** *
  35:.\Generated_Source\PSoC4/CapSense_1_PM.c **** * Return:
  36:.\Generated_Source\PSoC4/CapSense_1_PM.c **** *  None
  37:.\Generated_Source\PSoC4/CapSense_1_PM.c **** *
  38:.\Generated_Source\PSoC4/CapSense_1_PM.c **** * Global Variables:
  39:.\Generated_Source\PSoC4/CapSense_1_PM.c **** *  CapSense_1_backup - used to save component state before enter sleep 
  40:.\Generated_Source\PSoC4/CapSense_1_PM.c **** *  mode and none-retention registers.
  41:.\Generated_Source\PSoC4/CapSense_1_PM.c **** *
  42:.\Generated_Source\PSoC4/CapSense_1_PM.c **** *******************************************************************************/
  43:.\Generated_Source\PSoC4/CapSense_1_PM.c **** void CapSense_1_SaveConfig(void)
  44:.\Generated_Source\PSoC4/CapSense_1_PM.c **** {
  38              		.loc 1 44 0
  39              		.cfi_startproc
  40 0000 80B5     		push	{r7, lr}
  41              	.LCFI0:
  42              		.cfi_def_cfa_offset 8
  43              		.cfi_offset 7, -8
  44              		.cfi_offset 14, -4
  45 0002 00AF     		add	r7, sp, #0
  46              	.LCFI1:
  47              		.cfi_def_cfa_register 7
  45:.\Generated_Source\PSoC4/CapSense_1_PM.c **** 	if(CapSense_1_CSD_CFG_REG & CapSense_1_CSD_CFG_ENABLE)
  48              		.loc 1 45 0
  49 0004 044B     		ldr	r3, .L4
  50 0006 1B68     		ldr	r3, [r3]
  51 0008 002B     		cmp	r3, #0
  52 000a 02DA     		bge	.L3
  46:.\Generated_Source\PSoC4/CapSense_1_PM.c **** 	{
  47:.\Generated_Source\PSoC4/CapSense_1_PM.c **** 		CapSense_1_backup.enableState = 1u;
  53              		.loc 1 47 0
  54 000c 034B     		ldr	r3, .L4+4
  55 000e 0122     		mov	r2, #1
  56 0010 1A70     		strb	r2, [r3]
  57              	.L3:
  48:.\Generated_Source\PSoC4/CapSense_1_PM.c **** 	}
  49:.\Generated_Source\PSoC4/CapSense_1_PM.c **** }
  58              		.loc 1 49 0
  59 0012 BD46     		mov	sp, r7
  60              		@ sp needed for prologue
  61 0014 80BD     		pop	{r7, pc}
ARM GAS  C:\Users\maxk\AppData\Local\Temp\cc2tShFZ.s 			page 3


  62              	.L5:
  63 0016 C046     		.align	2
  64              	.L4:
  65 0018 04000840 		.word	1074266116
  66 001c 00000000 		.word	CapSense_1_backup
  67              		.cfi_endproc
  68              	.LFE0:
  69              		.size	CapSense_1_SaveConfig, .-CapSense_1_SaveConfig
  70              		.section	.text.CapSense_1_Sleep,"ax",%progbits
  71              		.align	2
  72              		.global	CapSense_1_Sleep
  73              		.code	16
  74              		.thumb_func
  75              		.type	CapSense_1_Sleep, %function
  76              	CapSense_1_Sleep:
  77              	.LFB1:
  50:.\Generated_Source\PSoC4/CapSense_1_PM.c **** 
  51:.\Generated_Source\PSoC4/CapSense_1_PM.c **** 
  52:.\Generated_Source\PSoC4/CapSense_1_PM.c **** /*******************************************************************************
  53:.\Generated_Source\PSoC4/CapSense_1_PM.c **** * Function Name: CapSense_1_Sleep
  54:.\Generated_Source\PSoC4/CapSense_1_PM.c **** ********************************************************************************
  55:.\Generated_Source\PSoC4/CapSense_1_PM.c **** *
  56:.\Generated_Source\PSoC4/CapSense_1_PM.c **** * Summary:
  57:.\Generated_Source\PSoC4/CapSense_1_PM.c **** *  Disables Active mode power.
  58:.\Generated_Source\PSoC4/CapSense_1_PM.c **** *
  59:.\Generated_Source\PSoC4/CapSense_1_PM.c **** * Parameters:
  60:.\Generated_Source\PSoC4/CapSense_1_PM.c **** *  None
  61:.\Generated_Source\PSoC4/CapSense_1_PM.c **** *
  62:.\Generated_Source\PSoC4/CapSense_1_PM.c **** * Return:
  63:.\Generated_Source\PSoC4/CapSense_1_PM.c **** *  None
  64:.\Generated_Source\PSoC4/CapSense_1_PM.c **** *
  65:.\Generated_Source\PSoC4/CapSense_1_PM.c **** * Global Variables:
  66:.\Generated_Source\PSoC4/CapSense_1_PM.c **** *  CapSense_1_backup - used to save component state before enter sleep 
  67:.\Generated_Source\PSoC4/CapSense_1_PM.c **** *  mode.
  68:.\Generated_Source\PSoC4/CapSense_1_PM.c **** *
  69:.\Generated_Source\PSoC4/CapSense_1_PM.c **** *******************************************************************************/
  70:.\Generated_Source\PSoC4/CapSense_1_PM.c **** void CapSense_1_Sleep(void)
  71:.\Generated_Source\PSoC4/CapSense_1_PM.c **** {
  78              		.loc 1 71 0
  79              		.cfi_startproc
  80 0000 80B5     		push	{r7, lr}
  81              	.LCFI2:
  82              		.cfi_def_cfa_offset 8
  83              		.cfi_offset 7, -8
  84              		.cfi_offset 14, -4
  85 0002 00AF     		add	r7, sp, #0
  86              	.LCFI3:
  87              		.cfi_def_cfa_register 7
  72:.\Generated_Source\PSoC4/CapSense_1_PM.c **** 	CapSense_1_SaveConfig();
  88              		.loc 1 72 0
  89 0004 FFF7FEFF 		bl	CapSense_1_SaveConfig
  73:.\Generated_Source\PSoC4/CapSense_1_PM.c **** 		
  74:.\Generated_Source\PSoC4/CapSense_1_PM.c **** 	/* Disable interrupt */
  75:.\Generated_Source\PSoC4/CapSense_1_PM.c **** 	CyIntDisable(CapSense_1_ISR_NUMBER);
  90              		.loc 1 75 0
  91 0008 0F20     		mov	r0, #15
  92 000a FFF7FEFF 		bl	CyIntDisable
ARM GAS  C:\Users\maxk\AppData\Local\Temp\cc2tShFZ.s 			page 4


  76:.\Generated_Source\PSoC4/CapSense_1_PM.c **** 	
  77:.\Generated_Source\PSoC4/CapSense_1_PM.c **** 	CapSense_1_CSD_CFG_REG &= ~(CapSense_1_CSD_CFG_SENSE_EN);
  93              		.loc 1 77 0
  94 000e 0E4B     		ldr	r3, .L8
  95 0010 0D4A     		ldr	r2, .L8
  96 0012 1168     		ldr	r1, [r2]
  97 0014 0D4A     		ldr	r2, .L8+4
  98 0016 0A40     		and	r2, r2, r1
  99 0018 1A60     		str	r2, [r3]
  78:.\Generated_Source\PSoC4/CapSense_1_PM.c **** 	CyDelayUs(100u);
 100              		.loc 1 78 0
 101 001a 6420     		mov	r0, #100
 102 001c FFF7FEFF 		bl	CyDelayUs
  79:.\Generated_Source\PSoC4/CapSense_1_PM.c **** 	CapSense_1_CSD_CFG_REG &= ~(CapSense_1_CSD_CFG_SENSE_COMP_EN);
 103              		.loc 1 79 0
 104 0020 094B     		ldr	r3, .L8
 105 0022 094A     		ldr	r2, .L8
 106 0024 1168     		ldr	r1, [r2]
 107 0026 0A4A     		ldr	r2, .L8+8
 108 0028 0A40     		and	r2, r2, r1
 109 002a 1A60     		str	r2, [r3]
  80:.\Generated_Source\PSoC4/CapSense_1_PM.c **** 	
  81:.\Generated_Source\PSoC4/CapSense_1_PM.c **** 	CapSense_1_CSD_CFG_REG &= ~(CapSense_1_CSD_CFG_ENABLE);
 110              		.loc 1 81 0
 111 002c 064B     		ldr	r3, .L8
 112 002e 064A     		ldr	r2, .L8
 113 0030 1268     		ldr	r2, [r2]
 114 0032 5200     		lsl	r2, r2, #1
 115 0034 5208     		lsr	r2, r2, #1
 116 0036 1A60     		str	r2, [r3]
  82:.\Generated_Source\PSoC4/CapSense_1_PM.c **** 	
  83:.\Generated_Source\PSoC4/CapSense_1_PM.c **** 	/* Disable the Clocks */
  84:.\Generated_Source\PSoC4/CapSense_1_PM.c ****     CapSense_1_CSD_Clk1_Stop();
 117              		.loc 1 84 0
 118 0038 FFF7FEFF 		bl	CapSense_1_CSD_Clk1_Stop
  85:.\Generated_Source\PSoC4/CapSense_1_PM.c ****     CapSense_1_CSD_Clk2_Stop();
 119              		.loc 1 85 0
 120 003c FFF7FEFF 		bl	CapSense_1_CSD_Clk2_Stop
  86:.\Generated_Source\PSoC4/CapSense_1_PM.c **** 	
  87:.\Generated_Source\PSoC4/CapSense_1_PM.c **** 	/* Clear all sensors */
  88:.\Generated_Source\PSoC4/CapSense_1_PM.c ****     CapSense_1_ClearSensors();
 121              		.loc 1 88 0
 122 0040 FFF7FEFF 		bl	CapSense_1_ClearSensors
  89:.\Generated_Source\PSoC4/CapSense_1_PM.c **** }
 123              		.loc 1 89 0
 124 0044 BD46     		mov	sp, r7
 125              		@ sp needed for prologue
 126 0046 80BD     		pop	{r7, pc}
 127              	.L9:
 128              		.align	2
 129              	.L8:
 130 0048 04000840 		.word	1074266116
 131 004c FFEFFFFF 		.word	-4097
 132 0050 FFFFF7FF 		.word	-524289
 133              		.cfi_endproc
 134              	.LFE1:
 135              		.size	CapSense_1_Sleep, .-CapSense_1_Sleep
ARM GAS  C:\Users\maxk\AppData\Local\Temp\cc2tShFZ.s 			page 5


 136              		.section	.text.CapSense_1_RestoreConfig,"ax",%progbits
 137              		.align	2
 138              		.global	CapSense_1_RestoreConfig
 139              		.code	16
 140              		.thumb_func
 141              		.type	CapSense_1_RestoreConfig, %function
 142              	CapSense_1_RestoreConfig:
 143              	.LFB2:
  90:.\Generated_Source\PSoC4/CapSense_1_PM.c **** 
  91:.\Generated_Source\PSoC4/CapSense_1_PM.c **** 
  92:.\Generated_Source\PSoC4/CapSense_1_PM.c **** /*******************************************************************************
  93:.\Generated_Source\PSoC4/CapSense_1_PM.c **** * Function Name: CapSense_1_RestoreConfig
  94:.\Generated_Source\PSoC4/CapSense_1_PM.c **** ********************************************************************************
  95:.\Generated_Source\PSoC4/CapSense_1_PM.c **** *
  96:.\Generated_Source\PSoC4/CapSense_1_PM.c **** * Summary:
  97:.\Generated_Source\PSoC4/CapSense_1_PM.c **** *  Restores CapSense configuration.
  98:.\Generated_Source\PSoC4/CapSense_1_PM.c **** *
  99:.\Generated_Source\PSoC4/CapSense_1_PM.c **** * Parameters:
 100:.\Generated_Source\PSoC4/CapSense_1_PM.c **** *  None
 101:.\Generated_Source\PSoC4/CapSense_1_PM.c **** *
 102:.\Generated_Source\PSoC4/CapSense_1_PM.c **** * Return:
 103:.\Generated_Source\PSoC4/CapSense_1_PM.c **** *  None
 104:.\Generated_Source\PSoC4/CapSense_1_PM.c **** *
 105:.\Generated_Source\PSoC4/CapSense_1_PM.c **** * Side Effects:
 106:.\Generated_Source\PSoC4/CapSense_1_PM.c **** *  Must be called only after CapSense_1_SaveConfig() routine. Otherwise 
 107:.\Generated_Source\PSoC4/CapSense_1_PM.c **** *  the component configuration will be overwritten with its initial setting.  
 108:.\Generated_Source\PSoC4/CapSense_1_PM.c **** *
 109:.\Generated_Source\PSoC4/CapSense_1_PM.c **** * Global Variables:
 110:.\Generated_Source\PSoC4/CapSense_1_PM.c **** *  CapSense_1_backup - used to save component state before enter sleep 
 111:.\Generated_Source\PSoC4/CapSense_1_PM.c **** *  mode and none-retention registers.
 112:.\Generated_Source\PSoC4/CapSense_1_PM.c **** *
 113:.\Generated_Source\PSoC4/CapSense_1_PM.c **** *******************************************************************************/
 114:.\Generated_Source\PSoC4/CapSense_1_PM.c **** void CapSense_1_RestoreConfig(void)
 115:.\Generated_Source\PSoC4/CapSense_1_PM.c **** {
 144              		.loc 1 115 0
 145              		.cfi_startproc
 146 0000 80B5     		push	{r7, lr}
 147              	.LCFI4:
 148              		.cfi_def_cfa_offset 8
 149              		.cfi_offset 7, -8
 150              		.cfi_offset 14, -4
 151 0002 00AF     		add	r7, sp, #0
 152              	.LCFI5:
 153              		.cfi_def_cfa_register 7
 116:.\Generated_Source\PSoC4/CapSense_1_PM.c **** 
 117:.\Generated_Source\PSoC4/CapSense_1_PM.c **** }
 154              		.loc 1 117 0
 155 0004 BD46     		mov	sp, r7
 156              		@ sp needed for prologue
 157 0006 80BD     		pop	{r7, pc}
 158              		.cfi_endproc
 159              	.LFE2:
 160              		.size	CapSense_1_RestoreConfig, .-CapSense_1_RestoreConfig
 161              		.section	.text.CapSense_1_Wakeup,"ax",%progbits
 162              		.align	2
 163              		.global	CapSense_1_Wakeup
 164              		.code	16
ARM GAS  C:\Users\maxk\AppData\Local\Temp\cc2tShFZ.s 			page 6


 165              		.thumb_func
 166              		.type	CapSense_1_Wakeup, %function
 167              	CapSense_1_Wakeup:
 168              	.LFB3:
 118:.\Generated_Source\PSoC4/CapSense_1_PM.c ****  
 119:.\Generated_Source\PSoC4/CapSense_1_PM.c ****  
 120:.\Generated_Source\PSoC4/CapSense_1_PM.c **** /*******************************************************************************
 121:.\Generated_Source\PSoC4/CapSense_1_PM.c **** * Function Name: CapSense_1_Wakeup
 122:.\Generated_Source\PSoC4/CapSense_1_PM.c **** ********************************************************************************
 123:.\Generated_Source\PSoC4/CapSense_1_PM.c **** *
 124:.\Generated_Source\PSoC4/CapSense_1_PM.c **** * Summary:
 125:.\Generated_Source\PSoC4/CapSense_1_PM.c **** *  Restores CapSense configuration and non-retention register values. 
 126:.\Generated_Source\PSoC4/CapSense_1_PM.c **** *  Restores enabled state of component by setting Active mode power template 
 127:.\Generated_Source\PSoC4/CapSense_1_PM.c **** *  bits for number of component used within CapSense.
 128:.\Generated_Source\PSoC4/CapSense_1_PM.c **** *
 129:.\Generated_Source\PSoC4/CapSense_1_PM.c **** * Parameters:
 130:.\Generated_Source\PSoC4/CapSense_1_PM.c **** *  None
 131:.\Generated_Source\PSoC4/CapSense_1_PM.c **** *
 132:.\Generated_Source\PSoC4/CapSense_1_PM.c **** * Return:
 133:.\Generated_Source\PSoC4/CapSense_1_PM.c **** *  None
 134:.\Generated_Source\PSoC4/CapSense_1_PM.c **** *
 135:.\Generated_Source\PSoC4/CapSense_1_PM.c **** * Global Variables:
 136:.\Generated_Source\PSoC4/CapSense_1_PM.c **** *  CapSense_1_backup - used to save component state before enter sleep 
 137:.\Generated_Source\PSoC4/CapSense_1_PM.c **** *  mode and none-retention registers.
 138:.\Generated_Source\PSoC4/CapSense_1_PM.c **** *
 139:.\Generated_Source\PSoC4/CapSense_1_PM.c **** *******************************************************************************/
 140:.\Generated_Source\PSoC4/CapSense_1_PM.c **** void CapSense_1_Wakeup(void)
 141:.\Generated_Source\PSoC4/CapSense_1_PM.c **** {
 169              		.loc 1 141 0
 170              		.cfi_startproc
 171 0000 80B5     		push	{r7, lr}
 172              	.LCFI6:
 173              		.cfi_def_cfa_offset 8
 174              		.cfi_offset 7, -8
 175              		.cfi_offset 14, -4
 176 0002 00AF     		add	r7, sp, #0
 177              	.LCFI7:
 178              		.cfi_def_cfa_register 7
 142:.\Generated_Source\PSoC4/CapSense_1_PM.c **** 	/* Enable the Clocks */
 143:.\Generated_Source\PSoC4/CapSense_1_PM.c ****     CapSense_1_CSD_Clk1_Start();
 179              		.loc 1 143 0
 180 0004 FFF7FEFF 		bl	CapSense_1_CSD_Clk1_Start
 144:.\Generated_Source\PSoC4/CapSense_1_PM.c ****     CapSense_1_CSD_Clk2_Start();
 181              		.loc 1 144 0
 182 0008 FFF7FEFF 		bl	CapSense_1_CSD_Clk2_Start
 145:.\Generated_Source\PSoC4/CapSense_1_PM.c ****     
 146:.\Generated_Source\PSoC4/CapSense_1_PM.c **** 	/* Restore CapSense Enable state */
 147:.\Generated_Source\PSoC4/CapSense_1_PM.c ****     if (CapSense_1_backup.enableState != 0u)
 183              		.loc 1 147 0
 184 000c 034B     		ldr	r3, .L15
 185 000e 1B78     		ldrb	r3, [r3]
 186 0010 002B     		cmp	r3, #0
 187 0012 01D0     		beq	.L14
 148:.\Generated_Source\PSoC4/CapSense_1_PM.c ****     {
 149:.\Generated_Source\PSoC4/CapSense_1_PM.c ****         CapSense_1_Enable();
 188              		.loc 1 149 0
 189 0014 FFF7FEFF 		bl	CapSense_1_Enable
ARM GAS  C:\Users\maxk\AppData\Local\Temp\cc2tShFZ.s 			page 7


 190              	.L14:
 150:.\Generated_Source\PSoC4/CapSense_1_PM.c ****     }
 151:.\Generated_Source\PSoC4/CapSense_1_PM.c **** }
 191              		.loc 1 151 0
 192 0018 BD46     		mov	sp, r7
 193              		@ sp needed for prologue
 194 001a 80BD     		pop	{r7, pc}
 195              	.L16:
 196              		.align	2
 197              	.L15:
 198 001c 00000000 		.word	CapSense_1_backup
 199              		.cfi_endproc
 200              	.LFE3:
 201              		.size	CapSense_1_Wakeup, .-CapSense_1_Wakeup
 202              		.text
 203              	.Letext0: