ARM GAS  C:\Users\maxk\AppData\Local\Temp\cc0ClDlQ.s 			page 1


   1              		.cpu cortex-m0
   2              		.fpu softvfp
   3              		.eabi_attribute 20, 1
   4              		.eabi_attribute 21, 1
   5              		.eabi_attribute 23, 3
   6              		.eabi_attribute 24, 1
   7              		.eabi_attribute 25, 1
   8              		.eabi_attribute 26, 1
   9              		.eabi_attribute 30, 6
  10              		.eabi_attribute 18, 4
  11              		.code	16
  12              		.file	"CapSense_1.c"
  19 0000 21020000 		.text
  19      02006300 
  19      00000201 
  19      FB0E0D00 
  19      01010101 
  20              	.Ltext0:
  21              		.cfi_sections	.debug_frame
  22              		.global	CapSense_1_initVar
  23              		.bss
  24              		.type	CapSense_1_initVar, %object
  25              		.size	CapSense_1_initVar, 1
  26              	CapSense_1_initVar:
  27 0000 00       		.space	1
  28              		.global	CapSense_1_csv
  29              		.type	CapSense_1_csv, %object
  30              		.size	CapSense_1_csv, 1
  31              	CapSense_1_csv:
  32 0001 00       		.space	1
  33              		.global	CapSense_1_sensorIndex
  34              		.type	CapSense_1_sensorIndex, %object
  35              		.size	CapSense_1_sensorIndex, 1
  36              	CapSense_1_sensorIndex:
  37 0002 00       		.space	1
  38              		.global	CapSense_1_SensorRaw
  39 0003 00       		.align	2
  40              		.type	CapSense_1_SensorRaw, %object
  41              		.size	CapSense_1_SensorRaw, 10
  42              	CapSense_1_SensorRaw:
  43 0004 00000000 		.space	10
  43      00000000 
  43      0000
  44              		.global	CapSense_1_PRSResolutionTbl
  45 000e 0000     		.align	2
  46              		.type	CapSense_1_PRSResolutionTbl, %object
  47              		.size	CapSense_1_PRSResolutionTbl, 20
  48              	CapSense_1_PRSResolutionTbl:
  49 0010 00000000 		.space	20
  49      00000000 
  49      00000000 
ARM GAS  C:\Users\maxk\AppData\Local\Temp\cc0ClDlQ.s 			page 2


  49      00000000 
  49      00000000 
  50              		.global	CapSense_1_SensorEnableMask
  51              		.data
  52              		.align	2
  53              		.type	CapSense_1_SensorEnableMask, %object
  54              		.size	CapSense_1_SensorEnableMask, 1
  55              	CapSense_1_SensorEnableMask:
  56 0000 1F       		.byte	31
  57              		.global	CapSense_1_pcTable
  58 0001 000000   		.align	2
  59              		.type	CapSense_1_pcTable, %object
  60              		.size	CapSense_1_pcTable, 20
  61              	CapSense_1_pcTable:
  62 0004 08010440 		.word	1074004232
  63 0008 08010440 		.word	1074004232
  64 000c 08010440 		.word	1074004232
  65 0010 08010440 		.word	1074004232
  66 0014 08010440 		.word	1074004232
  67              		.global	CapSense_1_portTable
  68              		.section	.rodata
  69              		.align	2
  70              		.type	CapSense_1_portTable, %object
  71              		.size	CapSense_1_portTable, 5
  72              	CapSense_1_portTable:
  73 0000 01       		.byte	1
  74 0001 01       		.byte	1
  75 0002 01       		.byte	1
  76 0003 01       		.byte	1
  77 0004 01       		.byte	1
  78              		.global	CapSense_1_maskTable
  79 0005 000000   		.align	2
  80              		.type	CapSense_1_maskTable, %object
  81              		.size	CapSense_1_maskTable, 20
  82              	CapSense_1_maskTable:
  83 0008 02000000 		.word	2
  84 000c 04000000 		.word	4
  85 0010 08000000 		.word	8
  86 0014 10000000 		.word	16
  87 0018 20000000 		.word	32
  88              		.global	CapSense_1_pinShiftTbl
  89              		.align	2
  90              		.type	CapSense_1_pinShiftTbl, %object
  91              		.size	CapSense_1_pinShiftTbl, 5
  92              	CapSense_1_pinShiftTbl:
  93 001c 01       		.byte	1
  94 001d 02       		.byte	2
  95 001e 03       		.byte	3
  96 001f 04       		.byte	4
  97 0020 05       		.byte	5
  98              		.global	CapSense_1_idac1Settings
  99 0021 000000   		.align	2
 100              		.type	CapSense_1_idac1Settings, %object
 101              		.size	CapSense_1_idac1Settings, 5
 102              	CapSense_1_idac1Settings:
 103 0024 3C       		.byte	60
 104 0025 78       		.byte	120
ARM GAS  C:\Users\maxk\AppData\Local\Temp\cc0ClDlQ.s 			page 3


 105 0026 78       		.byte	120
 106 0027 78       		.byte	120
 107 0028 78       		.byte	120
 108              		.global	CapSense_1_idac2Settings
 109 0029 000000   		.align	2
 110              		.type	CapSense_1_idac2Settings, %object
 111              		.size	CapSense_1_idac2Settings, 5
 112              	CapSense_1_idac2Settings:
 113 002c 50       		.byte	80
 114 002d 50       		.byte	80
 115 002e 50       		.byte	80
 116 002f 50       		.byte	80
 117 0030 50       		.byte	80
 118              		.global	CapSense_1_widgetResolution
 119 0031 000000   		.align	2
 120              		.type	CapSense_1_widgetResolution, %object
 121              		.size	CapSense_1_widgetResolution, 4
 122              	CapSense_1_widgetResolution:
 123 0034 0000FF0F 		.word	268369920
 124              		.global	CapSense_1_Clk1DividerVal
 125              		.data
 126              		.type	CapSense_1_Clk1DividerVal, %object
 127              		.size	CapSense_1_Clk1DividerVal, 1
 128              	CapSense_1_Clk1DividerVal:
 129 0018 01       		.byte	1
 130              		.global	CapSense_1_Clk2DividerVal
 131              		.type	CapSense_1_Clk2DividerVal, %object
 132              		.size	CapSense_1_Clk2DividerVal, 1
 133              	CapSense_1_Clk2DividerVal:
 134 0019 0C       		.byte	12
 135              		.global	CapSense_1_widgetNumber
 136 001a 0000     		.section	.rodata
 137              		.align	2
 138              		.type	CapSense_1_widgetNumber, %object
 139              		.size	CapSense_1_widgetNumber, 5
 140              	CapSense_1_widgetNumber:
 141 0038 00000000 		.space	5
 141      00
 142              		.global	CapSense_1_PrtSelTbl
 143 003d 000000   		.align	2
 144              		.type	CapSense_1_PrtSelTbl, %object
 145              		.size	CapSense_1_PrtSelTbl, 16
 146              	CapSense_1_PrtSelTbl:
 147 0040 00000140 		.word	1073807360
 148 0044 04000140 		.word	1073807364
 149 0048 08000140 		.word	1073807368
 150 004c 0C000140 		.word	1073807372
 151              		.global	CapSense_1_PrtCfgTbl
 152              		.align	2
 153              		.type	CapSense_1_PrtCfgTbl, %object
 154              		.size	CapSense_1_PrtCfgTbl, 16
 155              	CapSense_1_PrtCfgTbl:
 156 0050 08000440 		.word	1074003976
 157 0054 08010440 		.word	1074004232
 158 0058 08020440 		.word	1074004488
 159 005c 08030440 		.word	1074004744
 160              		.global	CapSense_1_PrtDRTbl
ARM GAS  C:\Users\maxk\AppData\Local\Temp\cc0ClDlQ.s 			page 4


 161              		.align	2
 162              		.type	CapSense_1_PrtDRTbl, %object
 163              		.size	CapSense_1_PrtDRTbl, 16
 164              	CapSense_1_PrtDRTbl:
 165 0060 00000440 		.word	1074003968
 166 0064 00010440 		.word	1074004224
 167 0068 00020440 		.word	1074004480
 168 006c 00030440 		.word	1074004736
 169              		.section	.text.CapSense_1_Init,"ax",%progbits
 170              		.align	2
 171              		.global	CapSense_1_Init
 172              		.code	16
 173              		.thumb_func
 174              		.type	CapSense_1_Init, %function
 175              	CapSense_1_Init:
 176              	.LFB0:
 177              		.file 1 ".\\Generated_Source\\PSoC4\\CapSense_1.c"
   1:.\Generated_Source\PSoC4/CapSense_1.c **** /*******************************************************************************
   2:.\Generated_Source\PSoC4/CapSense_1.c **** * File Name: CapSense_1.c
   3:.\Generated_Source\PSoC4/CapSense_1.c **** * Version 1.0
   4:.\Generated_Source\PSoC4/CapSense_1.c **** *
   5:.\Generated_Source\PSoC4/CapSense_1.c **** * Description:
   6:.\Generated_Source\PSoC4/CapSense_1.c **** *  This file provides the source code of scanning APIs for the CapSense CSD 
   7:.\Generated_Source\PSoC4/CapSense_1.c **** *  component.
   8:.\Generated_Source\PSoC4/CapSense_1.c **** *
   9:.\Generated_Source\PSoC4/CapSense_1.c **** * Note:
  10:.\Generated_Source\PSoC4/CapSense_1.c **** *
  11:.\Generated_Source\PSoC4/CapSense_1.c **** ********************************************************************************
  12:.\Generated_Source\PSoC4/CapSense_1.c **** * Copyright 2013, Cypress Semiconductor Corporation.  All rights reserved.
  13:.\Generated_Source\PSoC4/CapSense_1.c **** * You may use this file only in accordance with the license, terms, conditions,
  14:.\Generated_Source\PSoC4/CapSense_1.c **** * disclaimers, and limitations in the end user license agreement accompanying
  15:.\Generated_Source\PSoC4/CapSense_1.c **** * the software package with which this file was provided.
  16:.\Generated_Source\PSoC4/CapSense_1.c **** *******************************************************************************/
  17:.\Generated_Source\PSoC4/CapSense_1.c **** 
  18:.\Generated_Source\PSoC4/CapSense_1.c **** #include "CapSense_1.h"
  19:.\Generated_Source\PSoC4/CapSense_1.c **** 
  20:.\Generated_Source\PSoC4/CapSense_1.c **** #if(CapSense_1_IS_SHIELD_ENABLE)
  21:.\Generated_Source\PSoC4/CapSense_1.c ****     #define CapSense_1_SHIELD_PORT_NUMBER CapSense_1_Shield__PORT
  22:.\Generated_Source\PSoC4/CapSense_1.c ****     #define CapSense_1_SHIELD_PIN_NUMBER  CapSense_1_Shield__SHIFT
  23:.\Generated_Source\PSoC4/CapSense_1.c **** #endif /* (CapSense_1_IS_SHIELD_ENABLE) */
  24:.\Generated_Source\PSoC4/CapSense_1.c **** 
  25:.\Generated_Source\PSoC4/CapSense_1.c **** #if (CapSense_1_IS_COMPLEX_SCANSLOTS)
  26:.\Generated_Source\PSoC4/CapSense_1.c ****     void CapSense_1_EnableScanSlot(uint8 slot);
  27:.\Generated_Source\PSoC4/CapSense_1.c ****     void CapSense_1_DisableScanSlot(uint8 slot);
  28:.\Generated_Source\PSoC4/CapSense_1.c **** #else
  29:.\Generated_Source\PSoC4/CapSense_1.c ****     #define CapSense_1_EnableScanSlot(slot)   CapSense_1_EnableSensor(slot)
  30:.\Generated_Source\PSoC4/CapSense_1.c ****     #define CapSense_1_DisableScanSlot(slot)  CapSense_1_DisableSensor(slot)
  31:.\Generated_Source\PSoC4/CapSense_1.c **** #endif  /* End CapSense_1_IS_COMPLEX_SCANSLOTS */
  32:.\Generated_Source\PSoC4/CapSense_1.c **** 
  33:.\Generated_Source\PSoC4/CapSense_1.c **** /* Find next sensor for One Channel design */
  34:.\Generated_Source\PSoC4/CapSense_1.c **** uint8 CapSense_1_FindNextSensor(uint8 snsIndex);
  35:.\Generated_Source\PSoC4/CapSense_1.c **** 
  36:.\Generated_Source\PSoC4/CapSense_1.c **** /* Start and Compete the scan */
  37:.\Generated_Source\PSoC4/CapSense_1.c **** void CapSense_1_PreScan(uint8 sensor);
  38:.\Generated_Source\PSoC4/CapSense_1.c **** void CapSense_1_PostScan(uint8 sensor);
  39:.\Generated_Source\PSoC4/CapSense_1.c **** 
  40:.\Generated_Source\PSoC4/CapSense_1.c **** 
ARM GAS  C:\Users\maxk\AppData\Local\Temp\cc0ClDlQ.s 			page 5


  41:.\Generated_Source\PSoC4/CapSense_1.c **** /* SmartSense functions */
  42:.\Generated_Source\PSoC4/CapSense_1.c **** #if (CapSense_1_TUNING_METHOD == CapSense_1_AUTO_TUNING)
  43:.\Generated_Source\PSoC4/CapSense_1.c ****     uint8 CapSense_1_lowLevelTuningDone = 0u;
  44:.\Generated_Source\PSoC4/CapSense_1.c ****     extern void CapSense_1_AutoTune(void);
  45:.\Generated_Source\PSoC4/CapSense_1.c **** #endif /* End (CapSense_1_TUNING_METHOD == CapSense_1_AUTO_TUNING) */
  46:.\Generated_Source\PSoC4/CapSense_1.c **** 
  47:.\Generated_Source\PSoC4/CapSense_1.c **** #if(CapSense_1_PRS_OPTIONS != CapSense_1__PRS_NONE)
  48:.\Generated_Source\PSoC4/CapSense_1.c **** 	uint8 CapSense_1_PrescalersTuningDone = 0u;
  49:.\Generated_Source\PSoC4/CapSense_1.c **** #endif /* (CapSense_1_PRS_OPTIONS == CapSense_1__PRS_NONE) */
  50:.\Generated_Source\PSoC4/CapSense_1.c **** 
  51:.\Generated_Source\PSoC4/CapSense_1.c **** uint8 CapSense_1_initVar = 0u;
  52:.\Generated_Source\PSoC4/CapSense_1.c ****             
  53:.\Generated_Source\PSoC4/CapSense_1.c **** /* Global software variables */
  54:.\Generated_Source\PSoC4/CapSense_1.c **** volatile uint8 CapSense_1_csv = 0u;            /* CapSense CSD status, control variable */
  55:.\Generated_Source\PSoC4/CapSense_1.c **** volatile uint8 CapSense_1_sensorIndex = 0u;    /* Index of scannig sensor */
  56:.\Generated_Source\PSoC4/CapSense_1.c **** 
  57:.\Generated_Source\PSoC4/CapSense_1.c **** /* Global array of Raw Counts */
  58:.\Generated_Source\PSoC4/CapSense_1.c **** uint16 CapSense_1_SensorRaw[CapSense_1_TOTAL_SENSOR_COUNT] = {0u};
  59:.\Generated_Source\PSoC4/CapSense_1.c **** 
  60:.\Generated_Source\PSoC4/CapSense_1.c **** /* Global array of PRS resolutions */
  61:.\Generated_Source\PSoC4/CapSense_1.c **** uint32 CapSense_1_PRSResolutionTbl[CapSense_1_TOTAL_SCANSLOT_COUNT] = {0u};
  62:.\Generated_Source\PSoC4/CapSense_1.c **** 
  63:.\Generated_Source\PSoC4/CapSense_1.c **** uint8 CapSense_1_SensorEnableMask[(((CapSense_1_TOTAL_SENSOR_COUNT - 1u) / 8u) + 1u)] = {
  64:.\Generated_Source\PSoC4/CapSense_1.c **** 0x1Fu, };
  65:.\Generated_Source\PSoC4/CapSense_1.c **** 
  66:.\Generated_Source\PSoC4/CapSense_1.c **** reg32 * CapSense_1_pcTable[] = {
  67:.\Generated_Source\PSoC4/CapSense_1.c ****     (reg32 *)CapSense_1_Sns__LinearSlider0_e0__LS__PC, 
  68:.\Generated_Source\PSoC4/CapSense_1.c ****     (reg32 *)CapSense_1_Sns__LinearSlider0_e1__LS__PC, 
  69:.\Generated_Source\PSoC4/CapSense_1.c ****     (reg32 *)CapSense_1_Sns__LinearSlider0_e2__LS__PC, 
  70:.\Generated_Source\PSoC4/CapSense_1.c ****     (reg32 *)CapSense_1_Sns__LinearSlider0_e3__LS__PC, 
  71:.\Generated_Source\PSoC4/CapSense_1.c ****     (reg32 *)CapSense_1_Sns__LinearSlider0_e4__LS__PC, 
  72:.\Generated_Source\PSoC4/CapSense_1.c **** };
  73:.\Generated_Source\PSoC4/CapSense_1.c **** 
  74:.\Generated_Source\PSoC4/CapSense_1.c **** const uint8 CapSense_1_portTable[] = {
  75:.\Generated_Source\PSoC4/CapSense_1.c ****     CapSense_1_Sns__LinearSlider0_e0__LS__PORT, 
  76:.\Generated_Source\PSoC4/CapSense_1.c ****     CapSense_1_Sns__LinearSlider0_e1__LS__PORT, 
  77:.\Generated_Source\PSoC4/CapSense_1.c ****     CapSense_1_Sns__LinearSlider0_e2__LS__PORT, 
  78:.\Generated_Source\PSoC4/CapSense_1.c ****     CapSense_1_Sns__LinearSlider0_e3__LS__PORT, 
  79:.\Generated_Source\PSoC4/CapSense_1.c ****     CapSense_1_Sns__LinearSlider0_e4__LS__PORT, 
  80:.\Generated_Source\PSoC4/CapSense_1.c **** };
  81:.\Generated_Source\PSoC4/CapSense_1.c **** 
  82:.\Generated_Source\PSoC4/CapSense_1.c **** const uint32 CapSense_1_maskTable[] = {
  83:.\Generated_Source\PSoC4/CapSense_1.c ****     CapSense_1_Sns__LinearSlider0_e0__LS__MASK, 
  84:.\Generated_Source\PSoC4/CapSense_1.c ****     CapSense_1_Sns__LinearSlider0_e1__LS__MASK, 
  85:.\Generated_Source\PSoC4/CapSense_1.c ****     CapSense_1_Sns__LinearSlider0_e2__LS__MASK, 
  86:.\Generated_Source\PSoC4/CapSense_1.c ****     CapSense_1_Sns__LinearSlider0_e3__LS__MASK, 
  87:.\Generated_Source\PSoC4/CapSense_1.c ****     CapSense_1_Sns__LinearSlider0_e4__LS__MASK, 
  88:.\Generated_Source\PSoC4/CapSense_1.c **** };
  89:.\Generated_Source\PSoC4/CapSense_1.c **** 
  90:.\Generated_Source\PSoC4/CapSense_1.c **** const uint8 CapSense_1_pinShiftTbl[] = {
  91:.\Generated_Source\PSoC4/CapSense_1.c ****     CapSense_1_Sns__LinearSlider0_e0__LS__SHIFT, 
  92:.\Generated_Source\PSoC4/CapSense_1.c ****     CapSense_1_Sns__LinearSlider0_e1__LS__SHIFT, 
  93:.\Generated_Source\PSoC4/CapSense_1.c ****     CapSense_1_Sns__LinearSlider0_e2__LS__SHIFT, 
  94:.\Generated_Source\PSoC4/CapSense_1.c ****     CapSense_1_Sns__LinearSlider0_e3__LS__SHIFT, 
  95:.\Generated_Source\PSoC4/CapSense_1.c ****     CapSense_1_Sns__LinearSlider0_e4__LS__SHIFT, 
  96:.\Generated_Source\PSoC4/CapSense_1.c **** };
  97:.\Generated_Source\PSoC4/CapSense_1.c **** 
ARM GAS  C:\Users\maxk\AppData\Local\Temp\cc0ClDlQ.s 			page 6


  98:.\Generated_Source\PSoC4/CapSense_1.c **** const uint8 CYCODE CapSense_1_idac1Settings[] = {
  99:.\Generated_Source\PSoC4/CapSense_1.c ****     60u,120u,120u,120u,120u,
 100:.\Generated_Source\PSoC4/CapSense_1.c **** };
 101:.\Generated_Source\PSoC4/CapSense_1.c **** 
 102:.\Generated_Source\PSoC4/CapSense_1.c **** const uint8 CYCODE CapSense_1_idac2Settings[] = {
 103:.\Generated_Source\PSoC4/CapSense_1.c ****     80u,80u,80u,80u,80u,
 104:.\Generated_Source\PSoC4/CapSense_1.c **** };
 105:.\Generated_Source\PSoC4/CapSense_1.c **** 
 106:.\Generated_Source\PSoC4/CapSense_1.c **** const uint32 CYCODE CapSense_1_widgetResolution[] = {
 107:.\Generated_Source\PSoC4/CapSense_1.c ****     CapSense_1_RESOLUTION_12_BITS,
 108:.\Generated_Source\PSoC4/CapSense_1.c **** };
 109:.\Generated_Source\PSoC4/CapSense_1.c **** 
 110:.\Generated_Source\PSoC4/CapSense_1.c **** uint8 CapSense_1_Clk1DividerVal = 1u;
 111:.\Generated_Source\PSoC4/CapSense_1.c **** uint8 CapSense_1_Clk2DividerVal = 12u;
 112:.\Generated_Source\PSoC4/CapSense_1.c **** 
 113:.\Generated_Source\PSoC4/CapSense_1.c **** const uint8 CYCODE CapSense_1_widgetNumber[] = {
 114:.\Generated_Source\PSoC4/CapSense_1.c ****     0u, 0u, 0u, 0u, 0u, /* LinearSlider0__LS */
 115:.\Generated_Source\PSoC4/CapSense_1.c ****     
 116:.\Generated_Source\PSoC4/CapSense_1.c **** };
 117:.\Generated_Source\PSoC4/CapSense_1.c **** 
 118:.\Generated_Source\PSoC4/CapSense_1.c **** 
 119:.\Generated_Source\PSoC4/CapSense_1.c **** reg32* const CYCODE CapSense_1_PrtSelTbl[] = {
 120:.\Generated_Source\PSoC4/CapSense_1.c ****     ((reg32 *) CYREG_HSIOM_PORT_SEL0),
 121:.\Generated_Source\PSoC4/CapSense_1.c ****     ((reg32 *) CYREG_HSIOM_PORT_SEL1),
 122:.\Generated_Source\PSoC4/CapSense_1.c ****     ((reg32 *) CYREG_HSIOM_PORT_SEL2),
 123:.\Generated_Source\PSoC4/CapSense_1.c ****     ((reg32 *) CYREG_HSIOM_PORT_SEL3)
 124:.\Generated_Source\PSoC4/CapSense_1.c **** };
 125:.\Generated_Source\PSoC4/CapSense_1.c **** 
 126:.\Generated_Source\PSoC4/CapSense_1.c **** reg32* const CYCODE CapSense_1_PrtCfgTbl[] = {
 127:.\Generated_Source\PSoC4/CapSense_1.c ****     ((reg32 *) CYREG_PRT0_PC),
 128:.\Generated_Source\PSoC4/CapSense_1.c ****     ((reg32 *) CYREG_PRT1_PC),
 129:.\Generated_Source\PSoC4/CapSense_1.c ****     ((reg32 *) CYREG_PRT2_PC),
 130:.\Generated_Source\PSoC4/CapSense_1.c ****     ((reg32 *) CYREG_PRT3_PC)
 131:.\Generated_Source\PSoC4/CapSense_1.c **** };
 132:.\Generated_Source\PSoC4/CapSense_1.c **** 
 133:.\Generated_Source\PSoC4/CapSense_1.c **** reg32* const CYCODE CapSense_1_PrtDRTbl[] = {
 134:.\Generated_Source\PSoC4/CapSense_1.c ****     ((reg32 *) CYREG_PRT0_DR),
 135:.\Generated_Source\PSoC4/CapSense_1.c ****     ((reg32 *) CYREG_PRT1_DR),
 136:.\Generated_Source\PSoC4/CapSense_1.c ****     ((reg32 *) CYREG_PRT2_DR),
 137:.\Generated_Source\PSoC4/CapSense_1.c ****     ((reg32 *) CYREG_PRT3_DR)
 138:.\Generated_Source\PSoC4/CapSense_1.c **** };
 139:.\Generated_Source\PSoC4/CapSense_1.c **** 
 140:.\Generated_Source\PSoC4/CapSense_1.c **** 
 141:.\Generated_Source\PSoC4/CapSense_1.c **** 
 142:.\Generated_Source\PSoC4/CapSense_1.c **** 
 143:.\Generated_Source\PSoC4/CapSense_1.c **** 
 144:.\Generated_Source\PSoC4/CapSense_1.c **** /*******************************************************************************
 145:.\Generated_Source\PSoC4/CapSense_1.c **** * Function Name: CapSense_1_Init
 146:.\Generated_Source\PSoC4/CapSense_1.c **** ********************************************************************************
 147:.\Generated_Source\PSoC4/CapSense_1.c **** *
 148:.\Generated_Source\PSoC4/CapSense_1.c **** * Summary:
 149:.\Generated_Source\PSoC4/CapSense_1.c **** *  Inits default CapSense configuration provided with customizer that defines 
 150:.\Generated_Source\PSoC4/CapSense_1.c **** *  mode of component operations and resets all sensors to an inactive state.
 151:.\Generated_Source\PSoC4/CapSense_1.c **** *
 152:.\Generated_Source\PSoC4/CapSense_1.c **** * Parameters:
 153:.\Generated_Source\PSoC4/CapSense_1.c **** *  None
 154:.\Generated_Source\PSoC4/CapSense_1.c **** *
ARM GAS  C:\Users\maxk\AppData\Local\Temp\cc0ClDlQ.s 			page 7


 155:.\Generated_Source\PSoC4/CapSense_1.c **** * Return:
 156:.\Generated_Source\PSoC4/CapSense_1.c **** *  None
 157:.\Generated_Source\PSoC4/CapSense_1.c **** *
 158:.\Generated_Source\PSoC4/CapSense_1.c **** *******************************************************************************/
 159:.\Generated_Source\PSoC4/CapSense_1.c **** void CapSense_1_Init(void)
 160:.\Generated_Source\PSoC4/CapSense_1.c **** {
 178              		.loc 1 160 0
 179              		.cfi_startproc
 180 0000 80B5     		push	{r7, lr}
 181              	.LCFI0:
 182              		.cfi_def_cfa_offset 8
 183              		.cfi_offset 7, -8
 184              		.cfi_offset 14, -4
 185 0002 00AF     		add	r7, sp, #0
 186              	.LCFI1:
 187              		.cfi_def_cfa_register 7
 161:.\Generated_Source\PSoC4/CapSense_1.c **** 
 162:.\Generated_Source\PSoC4/CapSense_1.c **** #if ( ( CapSense_1_MULTIPLE_FREQUENCY_SET ) || (CapSense_1_TUNING_METHOD == CapSense_1_AUTO_TUNING)
 163:.\Generated_Source\PSoC4/CapSense_1.c **** 
 164:.\Generated_Source\PSoC4/CapSense_1.c ****     uint8 snsNumber;
 165:.\Generated_Source\PSoC4/CapSense_1.c **** 
 166:.\Generated_Source\PSoC4/CapSense_1.c ****     for(snsNumber = 0u; snsNumber < CapSense_1_TOTAL_SENSOR_COUNT; snsNumber++)  
 167:.\Generated_Source\PSoC4/CapSense_1.c ****     {  
 168:.\Generated_Source\PSoC4/CapSense_1.c ****         CapSense_1_CSD_Clk1_SetDividerValue(CapSense_1_Clk1DividerVal[snsNumber]);
 169:.\Generated_Source\PSoC4/CapSense_1.c ****         CapSense_1_CSD_Clk2_SetDividerValue(CapSense_1_Clk2DividerVal[snsNumber]);
 170:.\Generated_Source\PSoC4/CapSense_1.c ****     }
 171:.\Generated_Source\PSoC4/CapSense_1.c **** #else
 172:.\Generated_Source\PSoC4/CapSense_1.c ****     CapSense_1_CSD_Clk1_SetDividerValue(CapSense_1_Clk1DividerVal);
 188              		.loc 1 172 0
 189 0004 1B4B     		ldr	r3, .L3
 190 0006 1B78     		ldrb	r3, [r3]
 191 0008 013B     		sub	r3, r3, #1
 192 000a 9BB2     		uxth	r3, r3
 193 000c 181C     		mov	r0, r3
 194 000e 0021     		mov	r1, #0
 195 0010 FFF7FEFF 		bl	CapSense_1_CSD_Clk1_SetFractionalDividerRegister
 173:.\Generated_Source\PSoC4/CapSense_1.c ****     CapSense_1_CSD_Clk2_SetDividerValue(CapSense_1_Clk2DividerVal);
 196              		.loc 1 173 0
 197 0014 184B     		ldr	r3, .L3+4
 198 0016 1B78     		ldrb	r3, [r3]
 199 0018 013B     		sub	r3, r3, #1
 200 001a 9BB2     		uxth	r3, r3
 201 001c 181C     		mov	r0, r3
 202 001e 0021     		mov	r1, #0
 203 0020 FFF7FEFF 		bl	CapSense_1_CSD_Clk2_SetFractionalDividerRegister
 174:.\Generated_Source\PSoC4/CapSense_1.c **** #endif /* (CapSense_1_MULTIPLE_FREQUENCY_SET) || \
 175:.\Generated_Source\PSoC4/CapSense_1.c ****       (CapSense_1_TUNING_METHOD == CapSense_1_AUTO_TUNING) */
 176:.\Generated_Source\PSoC4/CapSense_1.c ****       
 177:.\Generated_Source\PSoC4/CapSense_1.c ****     /* Clear all sensors */
 178:.\Generated_Source\PSoC4/CapSense_1.c ****     CapSense_1_ClearSensors();
 204              		.loc 1 178 0
 205 0024 FFF7FEFF 		bl	CapSense_1_ClearSensors
 179:.\Generated_Source\PSoC4/CapSense_1.c ****     
 180:.\Generated_Source\PSoC4/CapSense_1.c **** #if(CapSense_1_IS_SHIELD_ENABLE)
 181:.\Generated_Source\PSoC4/CapSense_1.c ****     *CapSense_1_PrtCfgTbl[CapSense_1_SHIELD_PORT_NUMBER] &= ~(CapSense_1_CSD_PIN_MODE_MASK << (CapS
 182:.\Generated_Source\PSoC4/CapSense_1.c ****     *CapSense_1_PrtSelTbl[CapSense_1_SHIELD_PORT_NUMBER] &= ~(CapSense_1_CSD_HSIOM_MASK << (CapSens
 183:.\Generated_Source\PSoC4/CapSense_1.c ****     *CapSense_1_PrtSelTbl[CapSense_1_SHIELD_PORT_NUMBER] |= (CapSense_1_CSD_SHIELD_PORT_MODE << (Ca
ARM GAS  C:\Users\maxk\AppData\Local\Temp\cc0ClDlQ.s 			page 8


 184:.\Generated_Source\PSoC4/CapSense_1.c **** 	
 185:.\Generated_Source\PSoC4/CapSense_1.c **** 	#if((CapSense_1_CSH_TANK_PREGARGE_OPTION == CapSense_1__CAPPRIOBUF) || (CapSense_1_CSH_TANK_ENABLE
 186:.\Generated_Source\PSoC4/CapSense_1.c **** 		CapSense_1_PORT_SEL4_REG &= ~(CapSense_1_CSD_CTANK_CONNECTION_MASK);
 187:.\Generated_Source\PSoC4/CapSense_1.c **** 		CapSense_1_PORT_SEL4_REG |= CapSense_1_CSD_CTANK_TO_AMUXBUS_B;
 188:.\Generated_Source\PSoC4/CapSense_1.c **** 	#endif /* */
 189:.\Generated_Source\PSoC4/CapSense_1.c **** 	
 190:.\Generated_Source\PSoC4/CapSense_1.c **** 	#if(CapSense_1_CSH_TANK_PREGARGE_OPTION == CapSense_1__CAPPRIOBUF)
 191:.\Generated_Source\PSoC4/CapSense_1.c **** 		CapSense_1_PORT4_PC_REG &= ~(CapSense_1_CSD_CTANK_PC_MASK);
 192:.\Generated_Source\PSoC4/CapSense_1.c **** 		CapSense_1_PORT4_PC_REG |= CapSense_1_CTANK_PC_STRONG_MODE;
 193:.\Generated_Source\PSoC4/CapSense_1.c **** 		
 194:.\Generated_Source\PSoC4/CapSense_1.c **** 		CapSense_1_PORT4_DR_REG &= ~(CapSense_1_CTANK_DR_MASK);
 195:.\Generated_Source\PSoC4/CapSense_1.c **** 		CapSense_1_PORT4_DR_REG |= CapSense_1_CTANK_DR_CONFIG;
 196:.\Generated_Source\PSoC4/CapSense_1.c **** 	#endif/* (CapSense_1_CSH_TANK_PREGARGE_OPTION == CapSense_1__CAPPRIOBUF) */
 197:.\Generated_Source\PSoC4/CapSense_1.c **** 
 198:.\Generated_Source\PSoC4/CapSense_1.c **** #endif /* (CapSense_1_IS_SHIELD_ENABLE) */
 199:.\Generated_Source\PSoC4/CapSense_1.c ****     
 200:.\Generated_Source\PSoC4/CapSense_1.c ****     CapSense_1_CSD_CFG_REG = CapSense_1_DEFAULT_CSD_CONFIG;
 206              		.loc 1 200 0
 207 0028 144B     		ldr	r3, .L3+8
 208 002a 154A     		ldr	r2, .L3+12
 209 002c 1A60     		str	r2, [r3]
 201:.\Generated_Source\PSoC4/CapSense_1.c ****     CapSense_1_CSD_IDAC_REG = CapSense_1_DEFAULT_CSD_IDAC_CONFIG;   
 210              		.loc 1 201 0
 211 002e 154A     		ldr	r2, .L3+16
 212 0030 8023     		mov	r3, #128
 213 0032 9B00     		lsl	r3, r3, #2
 214 0034 1360     		str	r3, [r2]
 202:.\Generated_Source\PSoC4/CapSense_1.c ****     CapSense_1_SetShieldDelay(CapSense_1_SHIELD_DELAY ); 
 215              		.loc 1 202 0
 216 0036 0020     		mov	r0, #0
 217 0038 FFF7FEFF 		bl	CapSense_1_SetShieldDelay
 203:.\Generated_Source\PSoC4/CapSense_1.c **** 
 204:.\Generated_Source\PSoC4/CapSense_1.c ****     CapSense_1_PORT_SEL4_REG &= ~(CapSense_1_CSD_CMOD_CONNECTION_MASK);
 218              		.loc 1 204 0
 219 003c 124B     		ldr	r3, .L3+20
 220 003e 124A     		ldr	r2, .L3+20
 221 0040 1168     		ldr	r1, [r2]
 222 0042 124A     		ldr	r2, .L3+24
 223 0044 0A40     		and	r2, r2, r1
 224 0046 1A60     		str	r2, [r3]
 205:.\Generated_Source\PSoC4/CapSense_1.c ****     CapSense_1_PORT_SEL4_REG |= CapSense_1_CSD_CMOD_TO_AMUXBUS_A;
 225              		.loc 1 205 0
 226 0048 0F4A     		ldr	r2, .L3+20
 227 004a 0F4B     		ldr	r3, .L3+20
 228 004c 1968     		ldr	r1, [r3]
 229 004e C023     		mov	r3, #192
 230 0050 DB00     		lsl	r3, r3, #3
 231 0052 0B43     		orr	r3, r3, r1
 232 0054 1360     		str	r3, [r2]
 206:.\Generated_Source\PSoC4/CapSense_1.c ****     
 207:.\Generated_Source\PSoC4/CapSense_1.c ****     /* Setup ISR */
 208:.\Generated_Source\PSoC4/CapSense_1.c ****     CyIntDisable(CapSense_1_ISR_NUMBER);
 233              		.loc 1 208 0
 234 0056 0F20     		mov	r0, #15
 235 0058 FFF7FEFF 		bl	CyIntDisable
 209:.\Generated_Source\PSoC4/CapSense_1.c ****     CyIntSetVector(CapSense_1_ISR_NUMBER, CapSense_1_ISR);
 236              		.loc 1 209 0
ARM GAS  C:\Users\maxk\AppData\Local\Temp\cc0ClDlQ.s 			page 9


 237 005c 0C4B     		ldr	r3, .L3+28
 238 005e 0F20     		mov	r0, #15
 239 0060 191C     		mov	r1, r3
 240 0062 FFF7FEFF 		bl	CyIntSetVector
 210:.\Generated_Source\PSoC4/CapSense_1.c ****     CyIntSetPriority(CapSense_1_ISR_NUMBER, CapSense_1_ISR_PRIORITY);
 241              		.loc 1 210 0
 242 0066 0F20     		mov	r0, #15
 243 0068 0321     		mov	r1, #3
 244 006a FFF7FEFF 		bl	CyIntSetPriority
 211:.\Generated_Source\PSoC4/CapSense_1.c **** }
 245              		.loc 1 211 0
 246 006e BD46     		mov	sp, r7
 247              		@ sp needed for prologue
 248 0070 80BD     		pop	{r7, pc}
 249              	.L4:
 250 0072 C046     		.align	2
 251              	.L3:
 252 0074 00000000 		.word	CapSense_1_Clk1DividerVal
 253 0078 00000000 		.word	CapSense_1_Clk2DividerVal
 254 007c 04000840 		.word	1074266116
 255 0080 0028A001 		.word	27273216
 256 0084 08000840 		.word	1074266120
 257 0088 10000140 		.word	1073807376
 258 008c FFF0FFFF 		.word	-3841
 259 0090 00000000 		.word	CapSense_1_ISR
 260              		.cfi_endproc
 261              	.LFE0:
 262              		.size	CapSense_1_Init, .-CapSense_1_Init
 263              		.section	.text.CapSense_1_Enable,"ax",%progbits
 264              		.align	2
 265              		.global	CapSense_1_Enable
 266              		.code	16
 267              		.thumb_func
 268              		.type	CapSense_1_Enable, %function
 269              	CapSense_1_Enable:
 270              	.LFB1:
 212:.\Generated_Source\PSoC4/CapSense_1.c **** 
 213:.\Generated_Source\PSoC4/CapSense_1.c **** 
 214:.\Generated_Source\PSoC4/CapSense_1.c **** /*******************************************************************************
 215:.\Generated_Source\PSoC4/CapSense_1.c **** * Function Name: CapSense_1_Enable
 216:.\Generated_Source\PSoC4/CapSense_1.c **** ********************************************************************************
 217:.\Generated_Source\PSoC4/CapSense_1.c **** *
 218:.\Generated_Source\PSoC4/CapSense_1.c **** * Summary:
 219:.\Generated_Source\PSoC4/CapSense_1.c **** *  Enables active mode power template bits for number of component used within 
 220:.\Generated_Source\PSoC4/CapSense_1.c **** *  CapSense.
 221:.\Generated_Source\PSoC4/CapSense_1.c **** *
 222:.\Generated_Source\PSoC4/CapSense_1.c **** * Parameters:
 223:.\Generated_Source\PSoC4/CapSense_1.c **** *  None
 224:.\Generated_Source\PSoC4/CapSense_1.c **** *
 225:.\Generated_Source\PSoC4/CapSense_1.c **** * Return:
 226:.\Generated_Source\PSoC4/CapSense_1.c **** *  None
 227:.\Generated_Source\PSoC4/CapSense_1.c **** *
 228:.\Generated_Source\PSoC4/CapSense_1.c **** *******************************************************************************/
 229:.\Generated_Source\PSoC4/CapSense_1.c **** void CapSense_1_Enable(void)
 230:.\Generated_Source\PSoC4/CapSense_1.c **** {
 271              		.loc 1 230 0
 272              		.cfi_startproc
ARM GAS  C:\Users\maxk\AppData\Local\Temp\cc0ClDlQ.s 			page 10


 273 0000 80B5     		push	{r7, lr}
 274              	.LCFI2:
 275              		.cfi_def_cfa_offset 8
 276              		.cfi_offset 7, -8
 277              		.cfi_offset 14, -4
 278 0002 00AF     		add	r7, sp, #0
 279              	.LCFI3:
 280              		.cfi_def_cfa_register 7
 231:.\Generated_Source\PSoC4/CapSense_1.c ****     /* Enable the Clocks */
 232:.\Generated_Source\PSoC4/CapSense_1.c ****     CapSense_1_CSD_Clk1_Start();
 281              		.loc 1 232 0
 282 0004 FFF7FEFF 		bl	CapSense_1_CSD_Clk1_Start
 233:.\Generated_Source\PSoC4/CapSense_1.c ****     CapSense_1_CSD_Clk2_Start();
 283              		.loc 1 233 0
 284 0008 FFF7FEFF 		bl	CapSense_1_CSD_Clk2_Start
 234:.\Generated_Source\PSoC4/CapSense_1.c ****     
 235:.\Generated_Source\PSoC4/CapSense_1.c **** 	CapSense_1_CSD_CFG_REG |= CapSense_1_CSD_CFG_ENABLE;
 285              		.loc 1 235 0
 286 000c 0E4A     		ldr	r2, .L7
 287 000e 0E4B     		ldr	r3, .L7
 288 0010 1968     		ldr	r1, [r3]
 289 0012 8023     		mov	r3, #128
 290 0014 1B06     		lsl	r3, r3, #24
 291 0016 0B43     		orr	r3, r3, r1
 292 0018 1360     		str	r3, [r2]
 236:.\Generated_Source\PSoC4/CapSense_1.c **** 	
 237:.\Generated_Source\PSoC4/CapSense_1.c ****     CapSense_1_CSD_CFG_REG |= CapSense_1_CSD_CFG_SENSE_COMP_EN;
 293              		.loc 1 237 0
 294 001a 0B4A     		ldr	r2, .L7
 295 001c 0A4B     		ldr	r3, .L7
 296 001e 1968     		ldr	r1, [r3]
 297 0020 8023     		mov	r3, #128
 298 0022 1B03     		lsl	r3, r3, #12
 299 0024 0B43     		orr	r3, r3, r1
 300 0026 1360     		str	r3, [r2]
 238:.\Generated_Source\PSoC4/CapSense_1.c ****     CyDelayUs(100u);
 301              		.loc 1 238 0
 302 0028 6420     		mov	r0, #100
 303 002a FFF7FEFF 		bl	CyDelayUs
 239:.\Generated_Source\PSoC4/CapSense_1.c ****     CapSense_1_CSD_CFG_REG |= CapSense_1_CSD_CFG_SENSE_EN;
 304              		.loc 1 239 0
 305 002e 064A     		ldr	r2, .L7
 306 0030 054B     		ldr	r3, .L7
 307 0032 1968     		ldr	r1, [r3]
 308 0034 8023     		mov	r3, #128
 309 0036 5B01     		lsl	r3, r3, #5
 310 0038 0B43     		orr	r3, r3, r1
 311 003a 1360     		str	r3, [r2]
 240:.\Generated_Source\PSoC4/CapSense_1.c **** 
 241:.\Generated_Source\PSoC4/CapSense_1.c ****     /* Enable interrupt */
 242:.\Generated_Source\PSoC4/CapSense_1.c ****     CyIntEnable(CapSense_1_ISR_NUMBER);
 312              		.loc 1 242 0
 313 003c 0F20     		mov	r0, #15
 314 003e FFF7FEFF 		bl	CyIntEnable
 243:.\Generated_Source\PSoC4/CapSense_1.c **** }
 315              		.loc 1 243 0
 316 0042 BD46     		mov	sp, r7
ARM GAS  C:\Users\maxk\AppData\Local\Temp\cc0ClDlQ.s 			page 11


 317              		@ sp needed for prologue
 318 0044 80BD     		pop	{r7, pc}
 319              	.L8:
 320 0046 C046     		.align	2
 321              	.L7:
 322 0048 04000840 		.word	1074266116
 323              		.cfi_endproc
 324              	.LFE1:
 325              		.size	CapSense_1_Enable, .-CapSense_1_Enable
 326              		.section	.text.CapSense_1_Start,"ax",%progbits
 327              		.align	2
 328              		.global	CapSense_1_Start
 329              		.code	16
 330              		.thumb_func
 331              		.type	CapSense_1_Start, %function
 332              	CapSense_1_Start:
 333              	.LFB2:
 244:.\Generated_Source\PSoC4/CapSense_1.c **** 
 245:.\Generated_Source\PSoC4/CapSense_1.c **** 
 246:.\Generated_Source\PSoC4/CapSense_1.c **** /*******************************************************************************
 247:.\Generated_Source\PSoC4/CapSense_1.c **** * Function Name: CapSense_1_Start
 248:.\Generated_Source\PSoC4/CapSense_1.c **** ********************************************************************************
 249:.\Generated_Source\PSoC4/CapSense_1.c **** *
 250:.\Generated_Source\PSoC4/CapSense_1.c **** * Summary:
 251:.\Generated_Source\PSoC4/CapSense_1.c **** *  Initializes registers and starts the CSD method of CapSense component. Reset 
 252:.\Generated_Source\PSoC4/CapSense_1.c **** *  all sensors to an inactive state. Enables interrupts for sensors scanning.
 253:.\Generated_Source\PSoC4/CapSense_1.c **** *  When Auto Tuning (SmartSense) mode is selected the tuning procedure is 
 254:.\Generated_Source\PSoC4/CapSense_1.c **** *  applied for all sensors.
 255:.\Generated_Source\PSoC4/CapSense_1.c **** *
 256:.\Generated_Source\PSoC4/CapSense_1.c **** * Parameters:
 257:.\Generated_Source\PSoC4/CapSense_1.c **** *  None
 258:.\Generated_Source\PSoC4/CapSense_1.c **** *
 259:.\Generated_Source\PSoC4/CapSense_1.c **** * Return:
 260:.\Generated_Source\PSoC4/CapSense_1.c **** *  None
 261:.\Generated_Source\PSoC4/CapSense_1.c **** *
 262:.\Generated_Source\PSoC4/CapSense_1.c **** * Global Variables:
 263:.\Generated_Source\PSoC4/CapSense_1.c **** *  CapSense_1_initVar - used to check initial configuration, modified on 
 264:.\Generated_Source\PSoC4/CapSense_1.c **** *  first function call.
 265:.\Generated_Source\PSoC4/CapSense_1.c **** *  CapSense_1_lowLevelTuningDone - used to notify the Tuner GUI that 
 266:.\Generated_Source\PSoC4/CapSense_1.c **** *  tuning of scanning parameters are done.
 267:.\Generated_Source\PSoC4/CapSense_1.c **** *
 268:.\Generated_Source\PSoC4/CapSense_1.c **** * Reentrant:
 269:.\Generated_Source\PSoC4/CapSense_1.c **** *  No
 270:.\Generated_Source\PSoC4/CapSense_1.c **** *
 271:.\Generated_Source\PSoC4/CapSense_1.c **** *******************************************************************************/
 272:.\Generated_Source\PSoC4/CapSense_1.c **** void CapSense_1_Start(void)
 273:.\Generated_Source\PSoC4/CapSense_1.c **** {
 334              		.loc 1 273 0
 335              		.cfi_startproc
 336 0000 80B5     		push	{r7, lr}
 337              	.LCFI4:
 338              		.cfi_def_cfa_offset 8
 339              		.cfi_offset 7, -8
 340              		.cfi_offset 14, -4
 341 0002 00AF     		add	r7, sp, #0
 342              	.LCFI5:
 343              		.cfi_def_cfa_register 7
ARM GAS  C:\Users\maxk\AppData\Local\Temp\cc0ClDlQ.s 			page 12


 274:.\Generated_Source\PSoC4/CapSense_1.c ****     if (CapSense_1_initVar == 0u)
 344              		.loc 1 274 0
 345 0004 094B     		ldr	r3, .L12
 346 0006 1B78     		ldrb	r3, [r3]
 347 0008 002B     		cmp	r3, #0
 348 000a 04D1     		bne	.L10
 275:.\Generated_Source\PSoC4/CapSense_1.c ****     {
 276:.\Generated_Source\PSoC4/CapSense_1.c ****         CapSense_1_Init();
 349              		.loc 1 276 0
 350 000c FFF7FEFF 		bl	CapSense_1_Init
 277:.\Generated_Source\PSoC4/CapSense_1.c ****         CapSense_1_initVar = 1u;
 351              		.loc 1 277 0
 352 0010 064B     		ldr	r3, .L12
 353 0012 0122     		mov	r2, #1
 354 0014 1A70     		strb	r2, [r3]
 355              	.L10:
 278:.\Generated_Source\PSoC4/CapSense_1.c ****     }
 279:.\Generated_Source\PSoC4/CapSense_1.c ****     CapSense_1_Enable();
 356              		.loc 1 279 0
 357 0016 FFF7FEFF 		bl	CapSense_1_Enable
 280:.\Generated_Source\PSoC4/CapSense_1.c ****     
 281:.\Generated_Source\PSoC4/CapSense_1.c ****     /* AutoTunning start */
 282:.\Generated_Source\PSoC4/CapSense_1.c ****     #if (CapSense_1_TUNING_METHOD == CapSense_1_AUTO_TUNING)
 283:.\Generated_Source\PSoC4/CapSense_1.c ****         /* AutoTune by sensor basis */
 284:.\Generated_Source\PSoC4/CapSense_1.c ****         CapSense_1_AutoTune();
 285:.\Generated_Source\PSoC4/CapSense_1.c ****         CapSense_1_lowLevelTuningDone = 1u;
 286:.\Generated_Source\PSoC4/CapSense_1.c **** 	#else
 287:.\Generated_Source\PSoC4/CapSense_1.c ****         #if(CapSense_1_PRS_OPTIONS == CapSense_1__PRS_AUTO)
 288:.\Generated_Source\PSoC4/CapSense_1.c ****             CapSense_1_Calc_PRS_Resolution();
 289:.\Generated_Source\PSoC4/CapSense_1.c ****         #endif /* (CapSense_1_PRS_OPTIONS == CapSense_1__PRS_AUTO) */     
 290:.\Generated_Source\PSoC4/CapSense_1.c ****     #endif /* (CapSense_1_TUNING_METHOD == CapSense_1_AUTO_TUNING) */	
 291:.\Generated_Source\PSoC4/CapSense_1.c **** 	
 292:.\Generated_Source\PSoC4/CapSense_1.c **** 	CapSense_1_CSD_CFG_REG |= CapSense_1_CSD_SENSE_AMUXA;
 358              		.loc 1 292 0
 359 001a 054A     		ldr	r2, .L12+4
 360 001c 044B     		ldr	r3, .L12+4
 361 001e 1968     		ldr	r1, [r3]
 362 0020 8023     		mov	r3, #128
 363 0022 DB03     		lsl	r3, r3, #15
 364 0024 0B43     		orr	r3, r3, r1
 365 0026 1360     		str	r3, [r2]
 293:.\Generated_Source\PSoC4/CapSense_1.c **** }
 366              		.loc 1 293 0
 367 0028 BD46     		mov	sp, r7
 368              		@ sp needed for prologue
 369 002a 80BD     		pop	{r7, pc}
 370              	.L13:
 371              		.align	2
 372              	.L12:
 373 002c 00000000 		.word	CapSense_1_initVar
 374 0030 04000840 		.word	1074266116
 375              		.cfi_endproc
 376              	.LFE2:
 377              		.size	CapSense_1_Start, .-CapSense_1_Start
 378              		.section	.text.CapSense_1_Stop,"ax",%progbits
 379              		.align	2
 380              		.global	CapSense_1_Stop
ARM GAS  C:\Users\maxk\AppData\Local\Temp\cc0ClDlQ.s 			page 13


 381              		.code	16
 382              		.thumb_func
 383              		.type	CapSense_1_Stop, %function
 384              	CapSense_1_Stop:
 385              	.LFB3:
 294:.\Generated_Source\PSoC4/CapSense_1.c **** 
 295:.\Generated_Source\PSoC4/CapSense_1.c **** 
 296:.\Generated_Source\PSoC4/CapSense_1.c **** /*******************************************************************************
 297:.\Generated_Source\PSoC4/CapSense_1.c **** * Function Name: CapSense_1_Stop
 298:.\Generated_Source\PSoC4/CapSense_1.c **** ********************************************************************************
 299:.\Generated_Source\PSoC4/CapSense_1.c **** *
 300:.\Generated_Source\PSoC4/CapSense_1.c **** * Summary:
 301:.\Generated_Source\PSoC4/CapSense_1.c **** *  Stops the sensors scanner, disables internal interrupts, and resets all 
 302:.\Generated_Source\PSoC4/CapSense_1.c **** *  sensors to an inactive state. Disables Active mode power template bits for 
 303:.\Generated_Source\PSoC4/CapSense_1.c **** *  number of component used within CapSense.
 304:.\Generated_Source\PSoC4/CapSense_1.c **** *
 305:.\Generated_Source\PSoC4/CapSense_1.c **** * Parameters:
 306:.\Generated_Source\PSoC4/CapSense_1.c **** *  None
 307:.\Generated_Source\PSoC4/CapSense_1.c **** *
 308:.\Generated_Source\PSoC4/CapSense_1.c **** * Return:
 309:.\Generated_Source\PSoC4/CapSense_1.c **** *  None
 310:.\Generated_Source\PSoC4/CapSense_1.c **** *
 311:.\Generated_Source\PSoC4/CapSense_1.c **** * Side Effects:
 312:.\Generated_Source\PSoC4/CapSense_1.c **** *  This function should be called after scans will be completed.
 313:.\Generated_Source\PSoC4/CapSense_1.c **** *
 314:.\Generated_Source\PSoC4/CapSense_1.c **** *******************************************************************************/
 315:.\Generated_Source\PSoC4/CapSense_1.c **** void CapSense_1_Stop(void)
 316:.\Generated_Source\PSoC4/CapSense_1.c **** {
 386              		.loc 1 316 0
 387              		.cfi_startproc
 388 0000 80B5     		push	{r7, lr}
 389              	.LCFI6:
 390              		.cfi_def_cfa_offset 8
 391              		.cfi_offset 7, -8
 392              		.cfi_offset 14, -4
 393 0002 00AF     		add	r7, sp, #0
 394              	.LCFI7:
 395              		.cfi_def_cfa_register 7
 317:.\Generated_Source\PSoC4/CapSense_1.c ****     /* Disable interrupt */
 318:.\Generated_Source\PSoC4/CapSense_1.c ****     CyIntDisable(CapSense_1_ISR_NUMBER);
 396              		.loc 1 318 0
 397 0004 0F20     		mov	r0, #15
 398 0006 FFF7FEFF 		bl	CyIntDisable
 319:.\Generated_Source\PSoC4/CapSense_1.c **** 
 320:.\Generated_Source\PSoC4/CapSense_1.c ****     /* Clear all sensors */
 321:.\Generated_Source\PSoC4/CapSense_1.c ****     CapSense_1_ClearSensors();
 399              		.loc 1 321 0
 400 000a FFF7FEFF 		bl	CapSense_1_ClearSensors
 322:.\Generated_Source\PSoC4/CapSense_1.c **** 
 323:.\Generated_Source\PSoC4/CapSense_1.c ****     /* Disable the Clocks */
 324:.\Generated_Source\PSoC4/CapSense_1.c ****     CapSense_1_CSD_Clk1_Stop();
 401              		.loc 1 324 0
 402 000e FFF7FEFF 		bl	CapSense_1_CSD_Clk1_Stop
 325:.\Generated_Source\PSoC4/CapSense_1.c ****     CapSense_1_CSD_Clk2_Stop();
 403              		.loc 1 325 0
 404 0012 FFF7FEFF 		bl	CapSense_1_CSD_Clk2_Stop
 326:.\Generated_Source\PSoC4/CapSense_1.c **** }
ARM GAS  C:\Users\maxk\AppData\Local\Temp\cc0ClDlQ.s 			page 14


 405              		.loc 1 326 0
 406 0016 BD46     		mov	sp, r7
 407              		@ sp needed for prologue
 408 0018 80BD     		pop	{r7, pc}
 409              		.cfi_endproc
 410              	.LFE3:
 411              		.size	CapSense_1_Stop, .-CapSense_1_Stop
 412 001a C046     		.section	.text.CapSense_1_FindNextSensor,"ax",%progbits
 413              		.align	2
 414              		.global	CapSense_1_FindNextSensor
 415              		.code	16
 416              		.thumb_func
 417              		.type	CapSense_1_FindNextSensor, %function
 418              	CapSense_1_FindNextSensor:
 419              	.LFB4:
 327:.\Generated_Source\PSoC4/CapSense_1.c **** 
 328:.\Generated_Source\PSoC4/CapSense_1.c **** 
 329:.\Generated_Source\PSoC4/CapSense_1.c **** /*******************************************************************************
 330:.\Generated_Source\PSoC4/CapSense_1.c **** * Function Name: CapSense_1_FindNextSensor
 331:.\Generated_Source\PSoC4/CapSense_1.c **** ********************************************************************************
 332:.\Generated_Source\PSoC4/CapSense_1.c **** *
 333:.\Generated_Source\PSoC4/CapSense_1.c **** * Summary:
 334:.\Generated_Source\PSoC4/CapSense_1.c **** *  Finds next sensor to scan. 
 335:.\Generated_Source\PSoC4/CapSense_1.c **** *
 336:.\Generated_Source\PSoC4/CapSense_1.c **** * Parameters:
 337:.\Generated_Source\PSoC4/CapSense_1.c **** *  snsIndex:  Current index of sensor.
 338:.\Generated_Source\PSoC4/CapSense_1.c **** *
 339:.\Generated_Source\PSoC4/CapSense_1.c **** * Return:
 340:.\Generated_Source\PSoC4/CapSense_1.c **** *  Returns the next sensor index to scan.
 341:.\Generated_Source\PSoC4/CapSense_1.c **** *
 342:.\Generated_Source\PSoC4/CapSense_1.c **** * Global Variables:
 343:.\Generated_Source\PSoC4/CapSense_1.c **** *  CapSense_1_SensorEnableMask[ ] - used to store bit masks of enabled 
 344:.\Generated_Source\PSoC4/CapSense_1.c **** *  sensors.
 345:.\Generated_Source\PSoC4/CapSense_1.c **** *  CapSense_1_SensorEnableMask[0] contains the masked bits for sensors 0
 346:.\Generated_Source\PSoC4/CapSense_1.c **** *  through 7 (sensor 0 is bit 0, sensor 1 is bit 1).
 347:.\Generated_Source\PSoC4/CapSense_1.c **** *  CapSense_1_SensorEnableMask[1] contains the masked bits for sensors 
 348:.\Generated_Source\PSoC4/CapSense_1.c **** *  8 through 15 (if needed), and so on.
 349:.\Generated_Source\PSoC4/CapSense_1.c **** *    0 - sensor doesn't scan by CapSense_1_ScanEnabledWidgets().
 350:.\Generated_Source\PSoC4/CapSense_1.c **** *    1 - sensor scans by CapSense_1_ScanEnabledWidgets().
 351:.\Generated_Source\PSoC4/CapSense_1.c **** *
 352:.\Generated_Source\PSoC4/CapSense_1.c **** * Note: 
 353:.\Generated_Source\PSoC4/CapSense_1.c **** *  This function has effect on current scanning scanning and should not
 354:.\Generated_Source\PSoC4/CapSense_1.c **** *  be used outisde of component.
 355:.\Generated_Source\PSoC4/CapSense_1.c **** *
 356:.\Generated_Source\PSoC4/CapSense_1.c **** *******************************************************************************/
 357:.\Generated_Source\PSoC4/CapSense_1.c **** uint8 CapSense_1_FindNextSensor(uint8 snsIndex)
 358:.\Generated_Source\PSoC4/CapSense_1.c **** {
 420              		.loc 1 358 0
 421              		.cfi_startproc
 422 0000 80B5     		push	{r7, lr}
 423              	.LCFI8:
 424              		.cfi_def_cfa_offset 8
 425              		.cfi_offset 7, -8
 426              		.cfi_offset 14, -4
 427 0002 84B0     		sub	sp, sp, #16
 428              	.LCFI9:
 429              		.cfi_def_cfa_offset 24
ARM GAS  C:\Users\maxk\AppData\Local\Temp\cc0ClDlQ.s 			page 15


 430 0004 00AF     		add	r7, sp, #0
 431              	.LCFI10:
 432              		.cfi_def_cfa_register 7
 433 0006 021C     		mov	r2, r0
 434 0008 FB1D     		add	r3, r7, #7
 435 000a 1A70     		strb	r2, [r3]
 436              	.L19:
 359:.\Generated_Source\PSoC4/CapSense_1.c ****     uint8 pos;
 360:.\Generated_Source\PSoC4/CapSense_1.c ****     uint8 enMask;
 361:.\Generated_Source\PSoC4/CapSense_1.c ****     
 362:.\Generated_Source\PSoC4/CapSense_1.c ****     /* Check if sensor enabled */
 363:.\Generated_Source\PSoC4/CapSense_1.c ****     do
 364:.\Generated_Source\PSoC4/CapSense_1.c ****     {
 365:.\Generated_Source\PSoC4/CapSense_1.c ****         /* Proceed with the next sensor */
 366:.\Generated_Source\PSoC4/CapSense_1.c ****         snsIndex++;
 437              		.loc 1 366 0
 438 000c FB1D     		add	r3, r7, #7
 439 000e FA1D     		add	r2, r7, #7
 440 0010 1278     		ldrb	r2, [r2]
 441 0012 0132     		add	r2, r2, #1
 442 0014 1A70     		strb	r2, [r3]
 367:.\Generated_Source\PSoC4/CapSense_1.c ****         if(snsIndex == CapSense_1_TOTAL_SENSOR_COUNT)
 443              		.loc 1 367 0
 444 0016 FB1D     		add	r3, r7, #7
 445 0018 1B78     		ldrb	r3, [r3]
 446 001a 052B     		cmp	r3, #5
 447 001c 1BD0     		beq	.L21
 448              	.L17:
 368:.\Generated_Source\PSoC4/CapSense_1.c ****         {
 369:.\Generated_Source\PSoC4/CapSense_1.c ****             break;
 370:.\Generated_Source\PSoC4/CapSense_1.c ****         }
 371:.\Generated_Source\PSoC4/CapSense_1.c ****         pos = (snsIndex >> 3u);
 449              		.loc 1 371 0
 450 001e 3B1C     		mov	r3, r7
 451 0020 0E33     		add	r3, r3, #14
 452 0022 FA1D     		add	r2, r7, #7
 453 0024 1278     		ldrb	r2, [r2]
 454 0026 D208     		lsr	r2, r2, #3
 455 0028 1A70     		strb	r2, [r3]
 372:.\Generated_Source\PSoC4/CapSense_1.c ****         enMask = 0x01u << (snsIndex & 0x07u);
 456              		.loc 1 372 0
 457 002a FB1D     		add	r3, r7, #7
 458 002c 1A78     		ldrb	r2, [r3]
 459 002e 0723     		mov	r3, #7
 460 0030 1340     		and	r3, r3, r2
 461 0032 0122     		mov	r2, #1
 462 0034 9A40     		lsl	r2, r2, r3
 463 0036 3B1C     		mov	r3, r7
 464 0038 0F33     		add	r3, r3, #15
 465 003a 1A70     		strb	r2, [r3]
 373:.\Generated_Source\PSoC4/CapSense_1.c ****     }    
 374:.\Generated_Source\PSoC4/CapSense_1.c ****     while((CapSense_1_SensorEnableMask[pos] & enMask) == 0u);
 466              		.loc 1 374 0
 467 003c 3B1C     		mov	r3, r7
 468 003e 0E33     		add	r3, r3, #14
 469 0040 1B78     		ldrb	r3, [r3]
 470 0042 084A     		ldr	r2, .L22
ARM GAS  C:\Users\maxk\AppData\Local\Temp\cc0ClDlQ.s 			page 16


 471 0044 D25C     		ldrb	r2, [r2, r3]
 472 0046 3B1C     		mov	r3, r7
 473 0048 0F33     		add	r3, r3, #15
 474 004a 1B78     		ldrb	r3, [r3]
 475 004c 1340     		and	r3, r3, r2
 476 004e DBB2     		uxtb	r3, r3
 477 0050 002B     		cmp	r3, #0
 478 0052 DBD0     		beq	.L19
 479 0054 00E0     		b	.L18
 480              	.L21:
 481              		.loc 1 369 0
 482 0056 C046     		mov	r8, r8
 483              	.L18:
 375:.\Generated_Source\PSoC4/CapSense_1.c ****     
 376:.\Generated_Source\PSoC4/CapSense_1.c ****     return snsIndex;
 484              		.loc 1 376 0
 485 0058 FB1D     		add	r3, r7, #7
 486 005a 1B78     		ldrb	r3, [r3]
 377:.\Generated_Source\PSoC4/CapSense_1.c **** }
 487              		.loc 1 377 0
 488 005c 181C     		mov	r0, r3
 489 005e BD46     		mov	sp, r7
 490 0060 04B0     		add	sp, sp, #16
 491              		@ sp needed for prologue
 492 0062 80BD     		pop	{r7, pc}
 493              	.L23:
 494              		.align	2
 495              	.L22:
 496 0064 00000000 		.word	CapSense_1_SensorEnableMask
 497              		.cfi_endproc
 498              	.LFE4:
 499              		.size	CapSense_1_FindNextSensor, .-CapSense_1_FindNextSensor
 500              		.section	.text.CapSense_1_SetScanSlotSettings,"ax",%progbits
 501              		.align	2
 502              		.global	CapSense_1_SetScanSlotSettings
 503              		.code	16
 504              		.thumb_func
 505              		.type	CapSense_1_SetScanSlotSettings, %function
 506              	CapSense_1_SetScanSlotSettings:
 507              	.LFB5:
 378:.\Generated_Source\PSoC4/CapSense_1.c **** 
 379:.\Generated_Source\PSoC4/CapSense_1.c **** 
 380:.\Generated_Source\PSoC4/CapSense_1.c **** /*******************************************************************************
 381:.\Generated_Source\PSoC4/CapSense_1.c **** * Function Name: CapSense_1_SetScanSlotSettings
 382:.\Generated_Source\PSoC4/CapSense_1.c **** ********************************************************************************
 383:.\Generated_Source\PSoC4/CapSense_1.c **** *
 384:.\Generated_Source\PSoC4/CapSense_1.c **** * Summary:
 385:.\Generated_Source\PSoC4/CapSense_1.c **** *  Sets the scan settings of the selected scan slot (sensor or pair of sensors). 
 386:.\Generated_Source\PSoC4/CapSense_1.c **** *  The scan settings incorporate IDAC value (for IDAC configurations) for every 
 387:.\Generated_Source\PSoC4/CapSense_1.c **** *  sensor and resolution. The resolution is the same for all sensors within 
 388:.\Generated_Source\PSoC4/CapSense_1.c **** *  widget.
 389:.\Generated_Source\PSoC4/CapSense_1.c **** *
 390:.\Generated_Source\PSoC4/CapSense_1.c **** * Parameters:
 391:.\Generated_Source\PSoC4/CapSense_1.c **** *  slot:  Scan slot number (sensor or pair of sensors).
 392:.\Generated_Source\PSoC4/CapSense_1.c **** *
 393:.\Generated_Source\PSoC4/CapSense_1.c **** * Return:
 394:.\Generated_Source\PSoC4/CapSense_1.c **** *  None
ARM GAS  C:\Users\maxk\AppData\Local\Temp\cc0ClDlQ.s 			page 17


 395:.\Generated_Source\PSoC4/CapSense_1.c **** *
 396:.\Generated_Source\PSoC4/CapSense_1.c **** * Global Variables:
 397:.\Generated_Source\PSoC4/CapSense_1.c **** *  CapSense_1_idacSettings[] - used to store idac value for every sensor.
 398:.\Generated_Source\PSoC4/CapSense_1.c **** *  CapSense_1_widgetResolution[] - used to store scan resolution of every 
 399:.\Generated_Source\PSoC4/CapSense_1.c **** *  widget.
 400:.\Generated_Source\PSoC4/CapSense_1.c **** *
 401:.\Generated_Source\PSoC4/CapSense_1.c **** *******************************************************************************/
 402:.\Generated_Source\PSoC4/CapSense_1.c **** void CapSense_1_SetScanSlotSettings(uint8 slot)
 403:.\Generated_Source\PSoC4/CapSense_1.c **** {
 508              		.loc 1 403 0
 509              		.cfi_startproc
 510 0000 80B5     		push	{r7, lr}
 511              	.LCFI11:
 512              		.cfi_def_cfa_offset 8
 513              		.cfi_offset 7, -8
 514              		.cfi_offset 14, -4
 515 0002 84B0     		sub	sp, sp, #16
 516              	.LCFI12:
 517              		.cfi_def_cfa_offset 24
 518 0004 00AF     		add	r7, sp, #0
 519              	.LCFI13:
 520              		.cfi_def_cfa_register 7
 521 0006 021C     		mov	r2, r0
 522 0008 FB1D     		add	r3, r7, #7
 523 000a 1A70     		strb	r2, [r3]
 404:.\Generated_Source\PSoC4/CapSense_1.c ****     uint32 newRegisterValue;
 405:.\Generated_Source\PSoC4/CapSense_1.c **** 
 406:.\Generated_Source\PSoC4/CapSense_1.c **** 	
 407:.\Generated_Source\PSoC4/CapSense_1.c **** 	/* Set Idac Value */
 408:.\Generated_Source\PSoC4/CapSense_1.c ****     newRegisterValue = CapSense_1_CSD_IDAC_REG;
 524              		.loc 1 408 0
 525 000c 114B     		ldr	r3, .L26
 526 000e 1B68     		ldr	r3, [r3]
 527 0010 FB60     		str	r3, [r7, #12]
 409:.\Generated_Source\PSoC4/CapSense_1.c ****     
 410:.\Generated_Source\PSoC4/CapSense_1.c **** 	newRegisterValue &= ~(CapSense_1_CSD_IDAC1_DATA_MASK);
 528              		.loc 1 410 0
 529 0012 FB68     		ldr	r3, [r7, #12]
 530 0014 FF22     		mov	r2, #255
 531 0016 9343     		bic	r3, r3, r2
 532 0018 FB60     		str	r3, [r7, #12]
 411:.\Generated_Source\PSoC4/CapSense_1.c ****     newRegisterValue |= CapSense_1_idac1Settings[slot];
 533              		.loc 1 411 0
 534 001a FB1D     		add	r3, r7, #7
 535 001c 1B78     		ldrb	r3, [r3]
 536 001e 0E4A     		ldr	r2, .L26+4
 537 0020 D35C     		ldrb	r3, [r2, r3]
 538 0022 FA68     		ldr	r2, [r7, #12]
 539 0024 1343     		orr	r3, r3, r2
 540 0026 FB60     		str	r3, [r7, #12]
 412:.\Generated_Source\PSoC4/CapSense_1.c ****     
 413:.\Generated_Source\PSoC4/CapSense_1.c ****     #if (CapSense_1_IDAC_CNT == 2u)
 414:.\Generated_Source\PSoC4/CapSense_1.c ****         newRegisterValue &= ~(CapSense_1_CSD_IDAC2_DATA_MASK);
 415:.\Generated_Source\PSoC4/CapSense_1.c ****         newRegisterValue |= (CapSense_1_idac2Settings[slot] 
 416:.\Generated_Source\PSoC4/CapSense_1.c ****                                            << CapSense_1_CSD_IDAC2_DATA_OFFSET);                   
 417:.\Generated_Source\PSoC4/CapSense_1.c ****     #endif /* (CapSense_1_IDAC_CNT == 2u) */
 418:.\Generated_Source\PSoC4/CapSense_1.c **** 	
ARM GAS  C:\Users\maxk\AppData\Local\Temp\cc0ClDlQ.s 			page 18


 419:.\Generated_Source\PSoC4/CapSense_1.c **** 	CapSense_1_CSD_IDAC_REG = newRegisterValue;
 541              		.loc 1 419 0
 542 0028 0A4B     		ldr	r3, .L26
 543 002a FA68     		ldr	r2, [r7, #12]
 544 002c 1A60     		str	r2, [r3]
 420:.\Generated_Source\PSoC4/CapSense_1.c **** 
 421:.\Generated_Source\PSoC4/CapSense_1.c ****     #if ( (CapSense_1_MULTIPLE_FREQUENCY_SET) || \
 422:.\Generated_Source\PSoC4/CapSense_1.c ****           (CapSense_1_TUNING_METHOD == CapSense_1_AUTO_TUNING) )
 423:.\Generated_Source\PSoC4/CapSense_1.c **** 		CapSense_1_CSD_Clk1_SetDividerValue(CapSense_1_Clk1DividerVal[slot]);
 424:.\Generated_Source\PSoC4/CapSense_1.c **** 		CapSense_1_CSD_Clk2_SetDividerValue(CapSense_1_Clk2DividerVal[slot]);
 425:.\Generated_Source\PSoC4/CapSense_1.c ****     #else
 426:.\Generated_Source\PSoC4/CapSense_1.c **** 		CapSense_1_CSD_Clk1_SetDividerValue(CapSense_1_Clk1DividerVal);
 545              		.loc 1 426 0
 546 002e 0B4B     		ldr	r3, .L26+8
 547 0030 1B78     		ldrb	r3, [r3]
 548 0032 013B     		sub	r3, r3, #1
 549 0034 9BB2     		uxth	r3, r3
 550 0036 181C     		mov	r0, r3
 551 0038 0021     		mov	r1, #0
 552 003a FFF7FEFF 		bl	CapSense_1_CSD_Clk1_SetFractionalDividerRegister
 427:.\Generated_Source\PSoC4/CapSense_1.c **** 		CapSense_1_CSD_Clk2_SetDividerValue(CapSense_1_Clk2DividerVal);
 553              		.loc 1 427 0
 554 003e 084B     		ldr	r3, .L26+12
 555 0040 1B78     		ldrb	r3, [r3]
 556 0042 013B     		sub	r3, r3, #1
 557 0044 9BB2     		uxth	r3, r3
 558 0046 181C     		mov	r0, r3
 559 0048 0021     		mov	r1, #0
 560 004a FFF7FEFF 		bl	CapSense_1_CSD_Clk2_SetFractionalDividerRegister
 428:.\Generated_Source\PSoC4/CapSense_1.c ****     #endif /* ( (CapSense_1_MULTIPLE_FREQUENCY_SET) || \
 429:.\Generated_Source\PSoC4/CapSense_1.c ****                 (CapSense_1_TUNING_METHOD == CapSense_1_AUTO_TUNING) )
 430:.\Generated_Source\PSoC4/CapSense_1.c ****            */
 431:.\Generated_Source\PSoC4/CapSense_1.c **** 		   
 432:.\Generated_Source\PSoC4/CapSense_1.c **** 	#if(CapSense_1_PRS_OPTIONS != CapSense_1__PRS_NONE)
 433:.\Generated_Source\PSoC4/CapSense_1.c **** 	
 434:.\Generated_Source\PSoC4/CapSense_1.c **** 		#if(CapSense_1_TUNING_METHOD == CapSense_1_AUTO_TUNING)
 435:.\Generated_Source\PSoC4/CapSense_1.c **** 			if(CapSense_1_PrescalersTuningDone != 0u)
 436:.\Generated_Source\PSoC4/CapSense_1.c **** 			{
 437:.\Generated_Source\PSoC4/CapSense_1.c **** 		#endif /* (CapSense_1_TUNING_METHOD == CapSense_1_AUTO_TUNING) */
 438:.\Generated_Source\PSoC4/CapSense_1.c **** 				
 439:.\Generated_Source\PSoC4/CapSense_1.c **** 				newRegisterValue = CapSense_1_CSD_CFG_REG;
 440:.\Generated_Source\PSoC4/CapSense_1.c **** 				newRegisterValue |= CapSense_1_CSD_PRS_SELECT_PRS;
 441:.\Generated_Source\PSoC4/CapSense_1.c **** 				
 442:.\Generated_Source\PSoC4/CapSense_1.c **** 				#if(CapSense_1_PRS_OPTIONS == CapSense_1__PRS_AUTO)
 443:.\Generated_Source\PSoC4/CapSense_1.c **** 
 444:.\Generated_Source\PSoC4/CapSense_1.c **** 					newRegisterValue &= ~(CapSense_1_CSD_PRS_12_BIT);
 445:.\Generated_Source\PSoC4/CapSense_1.c **** 					newRegisterValue |= CapSense_1_PRSResolutionTbl[slot];	
 446:.\Generated_Source\PSoC4/CapSense_1.c **** 				#endif /* (CapSense_1_PRS_OPTIONS == CapSense_1__PRS_AUTO) */
 447:.\Generated_Source\PSoC4/CapSense_1.c **** 				
 448:.\Generated_Source\PSoC4/CapSense_1.c **** 				CapSense_1_CSD_CFG_REG = newRegisterValue;
 449:.\Generated_Source\PSoC4/CapSense_1.c **** 				
 450:.\Generated_Source\PSoC4/CapSense_1.c **** 		#if(CapSense_1_TUNING_METHOD == CapSense_1_AUTO_TUNING)	
 451:.\Generated_Source\PSoC4/CapSense_1.c **** 			}
 452:.\Generated_Source\PSoC4/CapSense_1.c **** 		#endif /* (CapSense_1_PRS_OPTIONS != CapSense_1__PRS_NONE) */
 453:.\Generated_Source\PSoC4/CapSense_1.c **** 
 454:.\Generated_Source\PSoC4/CapSense_1.c **** 	#endif /* (CapSense_1_PRS_OPTIONS == CapSense_1__PRS_NONE) */
 455:.\Generated_Source\PSoC4/CapSense_1.c **** 	
ARM GAS  C:\Users\maxk\AppData\Local\Temp\cc0ClDlQ.s 			page 19


 456:.\Generated_Source\PSoC4/CapSense_1.c **** }
 561              		.loc 1 456 0
 562 004e BD46     		mov	sp, r7
 563 0050 04B0     		add	sp, sp, #16
 564              		@ sp needed for prologue
 565 0052 80BD     		pop	{r7, pc}
 566              	.L27:
 567              		.align	2
 568              	.L26:
 569 0054 08000840 		.word	1074266120
 570 0058 00000000 		.word	CapSense_1_idac1Settings
 571 005c 00000000 		.word	CapSense_1_Clk1DividerVal
 572 0060 00000000 		.word	CapSense_1_Clk2DividerVal
 573              		.cfi_endproc
 574              	.LFE5:
 575              		.size	CapSense_1_SetScanSlotSettings, .-CapSense_1_SetScanSlotSettings
 576              		.section	.text.CapSense_1_ScanSensor,"ax",%progbits
 577              		.align	2
 578              		.global	CapSense_1_ScanSensor
 579              		.code	16
 580              		.thumb_func
 581              		.type	CapSense_1_ScanSensor, %function
 582              	CapSense_1_ScanSensor:
 583              	.LFB6:
 457:.\Generated_Source\PSoC4/CapSense_1.c **** 
 458:.\Generated_Source\PSoC4/CapSense_1.c **** 
 459:.\Generated_Source\PSoC4/CapSense_1.c **** /*******************************************************************************
 460:.\Generated_Source\PSoC4/CapSense_1.c **** * Function Name: CapSense_1_ScanSensor
 461:.\Generated_Source\PSoC4/CapSense_1.c **** ********************************************************************************
 462:.\Generated_Source\PSoC4/CapSense_1.c **** *
 463:.\Generated_Source\PSoC4/CapSense_1.c **** * Summary:
 464:.\Generated_Source\PSoC4/CapSense_1.c **** *  Sets scan settings and starts scanning a sensor or pair of combined sensors
 465:.\Generated_Source\PSoC4/CapSense_1.c **** *  on each channel. If two channels are configured, two sensors may be scanned 
 466:.\Generated_Source\PSoC4/CapSense_1.c **** *  at the same time. After scanning is complete the isr copies the measured 
 467:.\Generated_Source\PSoC4/CapSense_1.c **** *  sensor raw data to the global array. Use of the isr ensures this function 
 468:.\Generated_Source\PSoC4/CapSense_1.c **** *  is non-blocking. Each sensor has a unique number within the sensor array. 
 469:.\Generated_Source\PSoC4/CapSense_1.c **** *  This number is assigned by the CapSense customizer in sequence.
 470:.\Generated_Source\PSoC4/CapSense_1.c **** *
 471:.\Generated_Source\PSoC4/CapSense_1.c **** * Parameters:
 472:.\Generated_Source\PSoC4/CapSense_1.c **** *  sensor:  Sensor number.
 473:.\Generated_Source\PSoC4/CapSense_1.c **** *
 474:.\Generated_Source\PSoC4/CapSense_1.c **** * Return:
 475:.\Generated_Source\PSoC4/CapSense_1.c **** *  None
 476:.\Generated_Source\PSoC4/CapSense_1.c **** *
 477:.\Generated_Source\PSoC4/CapSense_1.c **** * Global Variables:
 478:.\Generated_Source\PSoC4/CapSense_1.c **** *  CapSense_1_csv - used to provide status and mode of scanning process. 
 479:.\Generated_Source\PSoC4/CapSense_1.c **** *  Sets busy status(scan in progress) and mode of scan as single scan.
 480:.\Generated_Source\PSoC4/CapSense_1.c **** *  For two channel design the additional bits are set to define if scan a 
 481:.\Generated_Source\PSoC4/CapSense_1.c **** *  pair of sensors or single one.
 482:.\Generated_Source\PSoC4/CapSense_1.c **** *  CapSense_1_sensorIndex - used to store sensor scanning sensor number.
 483:.\Generated_Source\PSoC4/CapSense_1.c **** *  Sets to provided sensor argument.
 484:.\Generated_Source\PSoC4/CapSense_1.c **** *
 485:.\Generated_Source\PSoC4/CapSense_1.c **** * Reentrant:
 486:.\Generated_Source\PSoC4/CapSense_1.c **** *  No
 487:.\Generated_Source\PSoC4/CapSense_1.c **** *
 488:.\Generated_Source\PSoC4/CapSense_1.c **** *******************************************************************************/
 489:.\Generated_Source\PSoC4/CapSense_1.c **** void CapSense_1_ScanSensor(uint8 sensor)
ARM GAS  C:\Users\maxk\AppData\Local\Temp\cc0ClDlQ.s 			page 20


 490:.\Generated_Source\PSoC4/CapSense_1.c **** {
 584              		.loc 1 490 0
 585              		.cfi_startproc
 586 0000 80B5     		push	{r7, lr}
 587              	.LCFI14:
 588              		.cfi_def_cfa_offset 8
 589              		.cfi_offset 7, -8
 590              		.cfi_offset 14, -4
 591 0002 82B0     		sub	sp, sp, #8
 592              	.LCFI15:
 593              		.cfi_def_cfa_offset 16
 594 0004 00AF     		add	r7, sp, #0
 595              	.LCFI16:
 596              		.cfi_def_cfa_register 7
 597 0006 021C     		mov	r2, r0
 598 0008 FB1D     		add	r3, r7, #7
 599 000a 1A70     		strb	r2, [r3]
 491:.\Generated_Source\PSoC4/CapSense_1.c ****     /* Clears status/control variable and set sensorIndex */
 492:.\Generated_Source\PSoC4/CapSense_1.c ****     CapSense_1_csv = 0u;
 600              		.loc 1 492 0
 601 000c 094B     		ldr	r3, .L30
 602 000e 0022     		mov	r2, #0
 603 0010 1A70     		strb	r2, [r3]
 493:.\Generated_Source\PSoC4/CapSense_1.c ****     CapSense_1_sensorIndex = sensor;
 604              		.loc 1 493 0
 605 0012 094B     		ldr	r3, .L30+4
 606 0014 FA1D     		add	r2, r7, #7
 607 0016 1278     		ldrb	r2, [r2]
 608 0018 1A70     		strb	r2, [r3]
 494:.\Generated_Source\PSoC4/CapSense_1.c ****     
 495:.\Generated_Source\PSoC4/CapSense_1.c ****     /* Start of sensor scan */
 496:.\Generated_Source\PSoC4/CapSense_1.c ****     CapSense_1_csv = (CapSense_1_SW_STS_BUSY | CapSense_1_SW_CTRL_SINGLE_SCAN);
 609              		.loc 1 496 0
 610 001a 064A     		ldr	r2, .L30
 611 001c 7F23     		mov	r3, #127
 612 001e 5B42     		neg	r3, r3
 613 0020 1370     		strb	r3, [r2]
 497:.\Generated_Source\PSoC4/CapSense_1.c ****     CapSense_1_PreScan(sensor);
 614              		.loc 1 497 0
 615 0022 FB1D     		add	r3, r7, #7
 616 0024 1B78     		ldrb	r3, [r3]
 617 0026 181C     		mov	r0, r3
 618 0028 FFF7FEFF 		bl	CapSense_1_PreScan
 498:.\Generated_Source\PSoC4/CapSense_1.c **** }
 619              		.loc 1 498 0
 620 002c BD46     		mov	sp, r7
 621 002e 02B0     		add	sp, sp, #8
 622              		@ sp needed for prologue
 623 0030 80BD     		pop	{r7, pc}
 624              	.L31:
 625 0032 C046     		.align	2
 626              	.L30:
 627 0034 00000000 		.word	CapSense_1_csv
 628 0038 00000000 		.word	CapSense_1_sensorIndex
 629              		.cfi_endproc
 630              	.LFE6:
 631              		.size	CapSense_1_ScanSensor, .-CapSense_1_ScanSensor
ARM GAS  C:\Users\maxk\AppData\Local\Temp\cc0ClDlQ.s 			page 21


 632              		.section	.text.CapSense_1_ScanEnabledWidgets,"ax",%progbits
 633              		.align	2
 634              		.global	CapSense_1_ScanEnabledWidgets
 635              		.code	16
 636              		.thumb_func
 637              		.type	CapSense_1_ScanEnabledWidgets, %function
 638              	CapSense_1_ScanEnabledWidgets:
 639              	.LFB7:
 499:.\Generated_Source\PSoC4/CapSense_1.c **** 
 500:.\Generated_Source\PSoC4/CapSense_1.c **** 
 501:.\Generated_Source\PSoC4/CapSense_1.c **** /*******************************************************************************
 502:.\Generated_Source\PSoC4/CapSense_1.c **** * Function Name: CapSense_1_ScanEnableWidgets
 503:.\Generated_Source\PSoC4/CapSense_1.c **** ********************************************************************************
 504:.\Generated_Source\PSoC4/CapSense_1.c **** *
 505:.\Generated_Source\PSoC4/CapSense_1.c **** * Summary:
 506:.\Generated_Source\PSoC4/CapSense_1.c **** *  Scans all of the enabled widgets. Starts scanning a sensor or pair of sensors 
 507:.\Generated_Source\PSoC4/CapSense_1.c **** *  within enabled widget. The isr proceeding scanning next sensor or pair till 
 508:.\Generated_Source\PSoC4/CapSense_1.c **** *  all enabled widgets will be scanned. Use of the isr ensures this function is 
 509:.\Generated_Source\PSoC4/CapSense_1.c **** *  non-blocking. All widgets are enabled by default except proximity widgets. 
 510:.\Generated_Source\PSoC4/CapSense_1.c **** *  Proximity widgets must be manually enabled as their long scan time is 
 511:.\Generated_Source\PSoC4/CapSense_1.c **** *  incompatible with fast response desired of other widget types.
 512:.\Generated_Source\PSoC4/CapSense_1.c **** *
 513:.\Generated_Source\PSoC4/CapSense_1.c **** * Parameters:
 514:.\Generated_Source\PSoC4/CapSense_1.c **** *  None
 515:.\Generated_Source\PSoC4/CapSense_1.c **** *
 516:.\Generated_Source\PSoC4/CapSense_1.c **** * Return:
 517:.\Generated_Source\PSoC4/CapSense_1.c **** *  None
 518:.\Generated_Source\PSoC4/CapSense_1.c **** *
 519:.\Generated_Source\PSoC4/CapSense_1.c **** * Global Variables:
 520:.\Generated_Source\PSoC4/CapSense_1.c **** *  CapSense_1_csv - used to provide status and mode of scanning process. 
 521:.\Generated_Source\PSoC4/CapSense_1.c **** *  Sets busy status(scan in progress) and clears single scan mode.
 522:.\Generated_Source\PSoC4/CapSense_1.c **** *  For two channel design the additional bits are set to define if scan a 
 523:.\Generated_Source\PSoC4/CapSense_1.c **** *  pair of sensors or single one. 
 524:.\Generated_Source\PSoC4/CapSense_1.c **** *  CapSense_1_sensorIndex - used to store sensor scanning sensor number.
 525:.\Generated_Source\PSoC4/CapSense_1.c **** *  Sets to 0xFF and provided to function CapSense_1_FindNextSensor or
 526:.\Generated_Source\PSoC4/CapSense_1.c **** *  CapSense_1_FindNextPair, these functions starts with sensor index
 527:.\Generated_Source\PSoC4/CapSense_1.c **** *  increment and overflow of uint8 gives desired index 0.
 528:.\Generated_Source\PSoC4/CapSense_1.c **** *
 529:.\Generated_Source\PSoC4/CapSense_1.c **** * Reentrant:
 530:.\Generated_Source\PSoC4/CapSense_1.c **** *  No
 531:.\Generated_Source\PSoC4/CapSense_1.c **** *
 532:.\Generated_Source\PSoC4/CapSense_1.c **** *******************************************************************************/
 533:.\Generated_Source\PSoC4/CapSense_1.c **** void CapSense_1_ScanEnabledWidgets(void)
 534:.\Generated_Source\PSoC4/CapSense_1.c **** {
 640              		.loc 1 534 0
 641              		.cfi_startproc
 642 0000 80B5     		push	{r7, lr}
 643              	.LCFI17:
 644              		.cfi_def_cfa_offset 8
 645              		.cfi_offset 7, -8
 646              		.cfi_offset 14, -4
 647 0002 00AF     		add	r7, sp, #0
 648              	.LCFI18:
 649              		.cfi_def_cfa_register 7
 535:.\Generated_Source\PSoC4/CapSense_1.c ****     /* Clears status/control variable and set sensorIndex */
 536:.\Generated_Source\PSoC4/CapSense_1.c ****     CapSense_1_csv = 0u;
 650              		.loc 1 536 0
ARM GAS  C:\Users\maxk\AppData\Local\Temp\cc0ClDlQ.s 			page 22


 651 0004 124B     		ldr	r3, .L35
 652 0006 0022     		mov	r2, #0
 653 0008 1A70     		strb	r2, [r3]
 537:.\Generated_Source\PSoC4/CapSense_1.c ****     CapSense_1_sensorIndex = 0xFFu;
 654              		.loc 1 537 0
 655 000a 124A     		ldr	r2, .L35+4
 656 000c 0123     		mov	r3, #1
 657 000e 5B42     		neg	r3, r3
 658 0010 1370     		strb	r3, [r2]
 538:.\Generated_Source\PSoC4/CapSense_1.c ****     
 539:.\Generated_Source\PSoC4/CapSense_1.c ****     /* Find next sensor */
 540:.\Generated_Source\PSoC4/CapSense_1.c ****     CapSense_1_sensorIndex = CapSense_1_FindNextSensor(CapSense_1_sensorIndex);
 659              		.loc 1 540 0
 660 0012 104B     		ldr	r3, .L35+4
 661 0014 1B78     		ldrb	r3, [r3]
 662 0016 DBB2     		uxtb	r3, r3
 663 0018 181C     		mov	r0, r3
 664 001a FFF7FEFF 		bl	CapSense_1_FindNextSensor
 665 001e 031C     		mov	r3, r0
 666 0020 1A1C     		mov	r2, r3
 667 0022 0C4B     		ldr	r3, .L35+4
 668 0024 1A70     		strb	r2, [r3]
 541:.\Generated_Source\PSoC4/CapSense_1.c **** 
 542:.\Generated_Source\PSoC4/CapSense_1.c ****     /* Check end of scan condition */
 543:.\Generated_Source\PSoC4/CapSense_1.c ****     if(CapSense_1_sensorIndex < CapSense_1_TOTAL_SENSOR_COUNT)
 669              		.loc 1 543 0
 670 0026 0B4B     		ldr	r3, .L35+4
 671 0028 1B78     		ldrb	r3, [r3]
 672 002a DBB2     		uxtb	r3, r3
 673 002c 042B     		cmp	r3, #4
 674 002e 0DD8     		bhi	.L34
 544:.\Generated_Source\PSoC4/CapSense_1.c ****     {
 545:.\Generated_Source\PSoC4/CapSense_1.c ****         CapSense_1_csv |= CapSense_1_SW_STS_BUSY;
 675              		.loc 1 545 0
 676 0030 074B     		ldr	r3, .L35
 677 0032 1B78     		ldrb	r3, [r3]
 678 0034 DAB2     		uxtb	r2, r3
 679 0036 0123     		mov	r3, #1
 680 0038 1343     		orr	r3, r3, r2
 681 003a DAB2     		uxtb	r2, r3
 682 003c 044B     		ldr	r3, .L35
 683 003e 1A70     		strb	r2, [r3]
 546:.\Generated_Source\PSoC4/CapSense_1.c ****         CapSense_1_PreScan(CapSense_1_sensorIndex);
 684              		.loc 1 546 0
 685 0040 044B     		ldr	r3, .L35+4
 686 0042 1B78     		ldrb	r3, [r3]
 687 0044 DBB2     		uxtb	r3, r3
 688 0046 181C     		mov	r0, r3
 689 0048 FFF7FEFF 		bl	CapSense_1_PreScan
 690              	.L34:
 547:.\Generated_Source\PSoC4/CapSense_1.c ****     }
 548:.\Generated_Source\PSoC4/CapSense_1.c **** }
 691              		.loc 1 548 0
 692 004c BD46     		mov	sp, r7
 693              		@ sp needed for prologue
 694 004e 80BD     		pop	{r7, pc}
 695              	.L36:
ARM GAS  C:\Users\maxk\AppData\Local\Temp\cc0ClDlQ.s 			page 23


 696              		.align	2
 697              	.L35:
 698 0050 00000000 		.word	CapSense_1_csv
 699 0054 00000000 		.word	CapSense_1_sensorIndex
 700              		.cfi_endproc
 701              	.LFE7:
 702              		.size	CapSense_1_ScanEnabledWidgets, .-CapSense_1_ScanEnabledWidgets
 703              		.section	.text.CapSense_1_IsBusy,"ax",%progbits
 704              		.align	2
 705              		.global	CapSense_1_IsBusy
 706              		.code	16
 707              		.thumb_func
 708              		.type	CapSense_1_IsBusy, %function
 709              	CapSense_1_IsBusy:
 710              	.LFB8:
 549:.\Generated_Source\PSoC4/CapSense_1.c **** 
 550:.\Generated_Source\PSoC4/CapSense_1.c **** 
 551:.\Generated_Source\PSoC4/CapSense_1.c **** /*******************************************************************************
 552:.\Generated_Source\PSoC4/CapSense_1.c **** * Function Name: CapSense_1_IsBusy
 553:.\Generated_Source\PSoC4/CapSense_1.c **** ********************************************************************************
 554:.\Generated_Source\PSoC4/CapSense_1.c **** *
 555:.\Generated_Source\PSoC4/CapSense_1.c **** * Summary:
 556:.\Generated_Source\PSoC4/CapSense_1.c **** *  Returns the state of CapSense component. The 1 means that scanning in 
 557:.\Generated_Source\PSoC4/CapSense_1.c **** *  progress and 0 means that scanning is complete.
 558:.\Generated_Source\PSoC4/CapSense_1.c **** *
 559:.\Generated_Source\PSoC4/CapSense_1.c **** * Parameters:
 560:.\Generated_Source\PSoC4/CapSense_1.c **** *  None
 561:.\Generated_Source\PSoC4/CapSense_1.c **** *
 562:.\Generated_Source\PSoC4/CapSense_1.c **** * Return:
 563:.\Generated_Source\PSoC4/CapSense_1.c **** *  Returns the state of scanning. 1 - scanning in progress, 0 - scanning 
 564:.\Generated_Source\PSoC4/CapSense_1.c **** *  completed.
 565:.\Generated_Source\PSoC4/CapSense_1.c **** *
 566:.\Generated_Source\PSoC4/CapSense_1.c **** * Global Variables:
 567:.\Generated_Source\PSoC4/CapSense_1.c **** *  CapSense_1_csv - used to provide status and mode of scanning process. 
 568:.\Generated_Source\PSoC4/CapSense_1.c **** *  Checks the busy status.
 569:.\Generated_Source\PSoC4/CapSense_1.c **** *
 570:.\Generated_Source\PSoC4/CapSense_1.c **** *******************************************************************************/
 571:.\Generated_Source\PSoC4/CapSense_1.c **** uint8 CapSense_1_IsBusy(void)
 572:.\Generated_Source\PSoC4/CapSense_1.c **** {
 711              		.loc 1 572 0
 712              		.cfi_startproc
 713 0000 80B5     		push	{r7, lr}
 714              	.LCFI19:
 715              		.cfi_def_cfa_offset 8
 716              		.cfi_offset 7, -8
 717              		.cfi_offset 14, -4
 718 0002 00AF     		add	r7, sp, #0
 719              	.LCFI20:
 720              		.cfi_def_cfa_register 7
 573:.\Generated_Source\PSoC4/CapSense_1.c ****     return ((CapSense_1_csv & CapSense_1_SW_STS_BUSY) == 
 721              		.loc 1 573 0
 722 0004 074B     		ldr	r3, .L41
 723 0006 1B78     		ldrb	r3, [r3]
 724 0008 DBB2     		uxtb	r3, r3
 725 000a 1A1C     		mov	r2, r3
 726 000c 0123     		mov	r3, #1
 727 000e 1340     		and	r3, r3, r2
ARM GAS  C:\Users\maxk\AppData\Local\Temp\cc0ClDlQ.s 			page 24


 728 0010 DBB2     		uxtb	r3, r3
 729 0012 002B     		cmp	r3, #0
 730 0014 01D0     		beq	.L38
 731 0016 0123     		mov	r3, #1
 732 0018 00E0     		b	.L39
 733              	.L38:
 734 001a 0023     		mov	r3, #0
 735              	.L39:
 574:.\Generated_Source\PSoC4/CapSense_1.c ****              CapSense_1_SW_STS_BUSY) ? 1u : 0u;
 575:.\Generated_Source\PSoC4/CapSense_1.c **** }
 736              		.loc 1 575 0
 737 001c 181C     		mov	r0, r3
 738 001e BD46     		mov	sp, r7
 739              		@ sp needed for prologue
 740 0020 80BD     		pop	{r7, pc}
 741              	.L42:
 742 0022 C046     		.align	2
 743              	.L41:
 744 0024 00000000 		.word	CapSense_1_csv
 745              		.cfi_endproc
 746              	.LFE8:
 747              		.size	CapSense_1_IsBusy, .-CapSense_1_IsBusy
 748              		.section	.text.CapSense_1_ReadSensorRaw,"ax",%progbits
 749              		.align	2
 750              		.global	CapSense_1_ReadSensorRaw
 751              		.code	16
 752              		.thumb_func
 753              		.type	CapSense_1_ReadSensorRaw, %function
 754              	CapSense_1_ReadSensorRaw:
 755              	.LFB9:
 576:.\Generated_Source\PSoC4/CapSense_1.c **** 
 577:.\Generated_Source\PSoC4/CapSense_1.c **** 
 578:.\Generated_Source\PSoC4/CapSense_1.c **** /*******************************************************************************
 579:.\Generated_Source\PSoC4/CapSense_1.c **** * Function Name: CapSense_1_ReadSensorRaw
 580:.\Generated_Source\PSoC4/CapSense_1.c **** ********************************************************************************
 581:.\Generated_Source\PSoC4/CapSense_1.c **** *
 582:.\Generated_Source\PSoC4/CapSense_1.c **** * Summary:
 583:.\Generated_Source\PSoC4/CapSense_1.c **** *  Returns scan sensor raw data from the CapSense_1_SensorRaw[] array. 
 584:.\Generated_Source\PSoC4/CapSense_1.c **** *  Each scan sensor has a unique number within the sensor array. This number 
 585:.\Generated_Source\PSoC4/CapSense_1.c **** *  is assigned by the CapSense customizer in sequence.
 586:.\Generated_Source\PSoC4/CapSense_1.c **** *
 587:.\Generated_Source\PSoC4/CapSense_1.c **** * Parameters:
 588:.\Generated_Source\PSoC4/CapSense_1.c **** *  sensor:  Sensor number.
 589:.\Generated_Source\PSoC4/CapSense_1.c **** *
 590:.\Generated_Source\PSoC4/CapSense_1.c **** * Return:
 591:.\Generated_Source\PSoC4/CapSense_1.c **** *  Returns current raw data value for defined sensor number.
 592:.\Generated_Source\PSoC4/CapSense_1.c **** *
 593:.\Generated_Source\PSoC4/CapSense_1.c **** * Global Variables:
 594:.\Generated_Source\PSoC4/CapSense_1.c **** *  CapSense_1_SensorRaw[] - used to store sensors raw data.
 595:.\Generated_Source\PSoC4/CapSense_1.c **** *
 596:.\Generated_Source\PSoC4/CapSense_1.c **** *******************************************************************************/
 597:.\Generated_Source\PSoC4/CapSense_1.c **** uint16 CapSense_1_ReadSensorRaw(uint8 sensor)
 598:.\Generated_Source\PSoC4/CapSense_1.c **** {
 756              		.loc 1 598 0
 757              		.cfi_startproc
 758 0000 80B5     		push	{r7, lr}
 759              	.LCFI21:
ARM GAS  C:\Users\maxk\AppData\Local\Temp\cc0ClDlQ.s 			page 25


 760              		.cfi_def_cfa_offset 8
 761              		.cfi_offset 7, -8
 762              		.cfi_offset 14, -4
 763 0002 82B0     		sub	sp, sp, #8
 764              	.LCFI22:
 765              		.cfi_def_cfa_offset 16
 766 0004 00AF     		add	r7, sp, #0
 767              	.LCFI23:
 768              		.cfi_def_cfa_register 7
 769 0006 021C     		mov	r2, r0
 770 0008 FB1D     		add	r3, r7, #7
 771 000a 1A70     		strb	r2, [r3]
 599:.\Generated_Source\PSoC4/CapSense_1.c ****     return CapSense_1_SensorRaw[sensor];
 772              		.loc 1 599 0
 773 000c FB1D     		add	r3, r7, #7
 774 000e 1A78     		ldrb	r2, [r3]
 775 0010 034B     		ldr	r3, .L45
 776 0012 5200     		lsl	r2, r2, #1
 777 0014 D35A     		ldrh	r3, [r2, r3]
 600:.\Generated_Source\PSoC4/CapSense_1.c **** }
 778              		.loc 1 600 0
 779 0016 181C     		mov	r0, r3
 780 0018 BD46     		mov	sp, r7
 781 001a 02B0     		add	sp, sp, #8
 782              		@ sp needed for prologue
 783 001c 80BD     		pop	{r7, pc}
 784              	.L46:
 785 001e C046     		.align	2
 786              	.L45:
 787 0020 00000000 		.word	CapSense_1_SensorRaw
 788              		.cfi_endproc
 789              	.LFE9:
 790              		.size	CapSense_1_ReadSensorRaw, .-CapSense_1_ReadSensorRaw
 791              		.section	.text.CapSense_1_ClearSensors,"ax",%progbits
 792              		.align	2
 793              		.global	CapSense_1_ClearSensors
 794              		.code	16
 795              		.thumb_func
 796              		.type	CapSense_1_ClearSensors, %function
 797              	CapSense_1_ClearSensors:
 798              	.LFB10:
 601:.\Generated_Source\PSoC4/CapSense_1.c **** 
 602:.\Generated_Source\PSoC4/CapSense_1.c **** 
 603:.\Generated_Source\PSoC4/CapSense_1.c **** /*******************************************************************************
 604:.\Generated_Source\PSoC4/CapSense_1.c **** * Function Name: CapSense_1_ClearSensors
 605:.\Generated_Source\PSoC4/CapSense_1.c **** ********************************************************************************
 606:.\Generated_Source\PSoC4/CapSense_1.c **** *
 607:.\Generated_Source\PSoC4/CapSense_1.c **** * Summary:
 608:.\Generated_Source\PSoC4/CapSense_1.c **** *  Resets all sensors to the non-sampling state by sequentially disconnecting
 609:.\Generated_Source\PSoC4/CapSense_1.c **** *  all sensors from Analog MUX Bus and putting them to inactive state.
 610:.\Generated_Source\PSoC4/CapSense_1.c **** *
 611:.\Generated_Source\PSoC4/CapSense_1.c **** * Parameters:
 612:.\Generated_Source\PSoC4/CapSense_1.c **** *  None
 613:.\Generated_Source\PSoC4/CapSense_1.c **** *
 614:.\Generated_Source\PSoC4/CapSense_1.c **** * Return:
 615:.\Generated_Source\PSoC4/CapSense_1.c **** *  None
 616:.\Generated_Source\PSoC4/CapSense_1.c **** *
ARM GAS  C:\Users\maxk\AppData\Local\Temp\cc0ClDlQ.s 			page 26


 617:.\Generated_Source\PSoC4/CapSense_1.c **** *******************************************************************************/
 618:.\Generated_Source\PSoC4/CapSense_1.c **** void CapSense_1_ClearSensors(void)
 619:.\Generated_Source\PSoC4/CapSense_1.c **** {
 799              		.loc 1 619 0
 800              		.cfi_startproc
 801 0000 80B5     		push	{r7, lr}
 802              	.LCFI24:
 803              		.cfi_def_cfa_offset 8
 804              		.cfi_offset 7, -8
 805              		.cfi_offset 14, -4
 806 0002 82B0     		sub	sp, sp, #8
 807              	.LCFI25:
 808              		.cfi_def_cfa_offset 16
 809 0004 00AF     		add	r7, sp, #0
 810              	.LCFI26:
 811              		.cfi_def_cfa_register 7
 620:.\Generated_Source\PSoC4/CapSense_1.c ****     uint8 i;
 621:.\Generated_Source\PSoC4/CapSense_1.c ****    
 622:.\Generated_Source\PSoC4/CapSense_1.c ****     for (i = 0u; i < CapSense_1_TOTAL_SENSOR_COUNT; i++)
 812              		.loc 1 622 0
 813 0006 FB1D     		add	r3, r7, #7
 814 0008 0022     		mov	r2, #0
 815 000a 1A70     		strb	r2, [r3]
 816 000c 09E0     		b	.L48
 817              	.L49:
 623:.\Generated_Source\PSoC4/CapSense_1.c ****     {
 624:.\Generated_Source\PSoC4/CapSense_1.c ****         CapSense_1_DisableScanSlot(i);
 818              		.loc 1 624 0
 819 000e FB1D     		add	r3, r7, #7
 820 0010 1B78     		ldrb	r3, [r3]
 821 0012 181C     		mov	r0, r3
 822 0014 FFF7FEFF 		bl	CapSense_1_DisableSensor
 823              		.loc 1 622 0
 824 0018 FB1D     		add	r3, r7, #7
 825 001a FA1D     		add	r2, r7, #7
 826 001c 1278     		ldrb	r2, [r2]
 827 001e 0132     		add	r2, r2, #1
 828 0020 1A70     		strb	r2, [r3]
 829              	.L48:
 830 0022 FB1D     		add	r3, r7, #7
 831 0024 1B78     		ldrb	r3, [r3]
 832 0026 042B     		cmp	r3, #4
 833 0028 F1D9     		bls	.L49
 625:.\Generated_Source\PSoC4/CapSense_1.c ****     }
 626:.\Generated_Source\PSoC4/CapSense_1.c **** }
 834              		.loc 1 626 0
 835 002a BD46     		mov	sp, r7
 836 002c 02B0     		add	sp, sp, #8
 837              		@ sp needed for prologue
 838 002e 80BD     		pop	{r7, pc}
 839              		.cfi_endproc
 840              	.LFE10:
 841              		.size	CapSense_1_ClearSensors, .-CapSense_1_ClearSensors
 842              		.section	.text.CapSense_1_EnableSensor,"ax",%progbits
 843              		.align	2
 844              		.global	CapSense_1_EnableSensor
 845              		.code	16
ARM GAS  C:\Users\maxk\AppData\Local\Temp\cc0ClDlQ.s 			page 27


 846              		.thumb_func
 847              		.type	CapSense_1_EnableSensor, %function
 848              	CapSense_1_EnableSensor:
 849              	.LFB11:
 627:.\Generated_Source\PSoC4/CapSense_1.c **** 
 628:.\Generated_Source\PSoC4/CapSense_1.c **** 
 629:.\Generated_Source\PSoC4/CapSense_1.c **** #if (CapSense_1_IS_COMPLEX_SCANSLOTS)
 630:.\Generated_Source\PSoC4/CapSense_1.c ****     /*******************************************************************************
 631:.\Generated_Source\PSoC4/CapSense_1.c ****     * Function Name: CapSense_1_EnableScanSlot
 632:.\Generated_Source\PSoC4/CapSense_1.c ****     ********************************************************************************
 633:.\Generated_Source\PSoC4/CapSense_1.c ****     *
 634:.\Generated_Source\PSoC4/CapSense_1.c ****     * Summary:
 635:.\Generated_Source\PSoC4/CapSense_1.c ****     *  Configures the selected slot to measure during the next measurement 
 636:.\Generated_Source\PSoC4/CapSense_1.c ****     *  cycle. The corresponding pin/pins are set to Analog High-Z mode and 
 637:.\Generated_Source\PSoC4/CapSense_1.c ****     *  connected to the Analog Mux Bus. This also enables the comparator function.
 638:.\Generated_Source\PSoC4/CapSense_1.c ****     *
 639:.\Generated_Source\PSoC4/CapSense_1.c ****     * Parameters:
 640:.\Generated_Source\PSoC4/CapSense_1.c ****     *  slot:  Slot number.
 641:.\Generated_Source\PSoC4/CapSense_1.c ****     *
 642:.\Generated_Source\PSoC4/CapSense_1.c ****     * Return:
 643:.\Generated_Source\PSoC4/CapSense_1.c ****     *  None
 644:.\Generated_Source\PSoC4/CapSense_1.c ****     *
 645:.\Generated_Source\PSoC4/CapSense_1.c ****     * Global Constants:
 646:.\Generated_Source\PSoC4/CapSense_1.c ****     *  CapSense_1_portTable[]  - used to store the port number that pin 
 647:.\Generated_Source\PSoC4/CapSense_1.c ****     *  belongs to for every sensor.
 648:.\Generated_Source\PSoC4/CapSense_1.c ****     *  CapSense_1_maskTable[]  - used to store the pin within the port for 
 649:.\Generated_Source\PSoC4/CapSense_1.c ****     *  every sensor.
 650:.\Generated_Source\PSoC4/CapSense_1.c ****     *  CapSense_1_indexTable[] - used to store indexes of complex sensors.
 651:.\Generated_Source\PSoC4/CapSense_1.c ****     *  The offset and position in this array are stored in port and mask table for 
 652:.\Generated_Source\PSoC4/CapSense_1.c ****     *  complex sensors.
 653:.\Generated_Source\PSoC4/CapSense_1.c ****     *  The bit 7 (msb) is used to define the sensor type: single or complex.
 654:.\Generated_Source\PSoC4/CapSense_1.c ****     *
 655:.\Generated_Source\PSoC4/CapSense_1.c ****     *******************************************************************************/
 656:.\Generated_Source\PSoC4/CapSense_1.c ****     void CapSense_1_EnableScanSlot(uint8 slot)
 657:.\Generated_Source\PSoC4/CapSense_1.c ****     {
 658:.\Generated_Source\PSoC4/CapSense_1.c ****         uint8 j;
 659:.\Generated_Source\PSoC4/CapSense_1.c ****         uint8 snsNumber;
 660:.\Generated_Source\PSoC4/CapSense_1.c ****         const uint8 CYCODE *index;
 661:.\Generated_Source\PSoC4/CapSense_1.c ****         /* Read the sensor type: single or complex */
 662:.\Generated_Source\PSoC4/CapSense_1.c ****         uint8 snsType = CapSense_1_portTable[slot];
 663:.\Generated_Source\PSoC4/CapSense_1.c **** 
 664:.\Generated_Source\PSoC4/CapSense_1.c ****         /* Check if sensor is complex */
 665:.\Generated_Source\PSoC4/CapSense_1.c ****         if ((snsType & CapSense_1_COMPLEX_SS_FLAG) == 0u)
 666:.\Generated_Source\PSoC4/CapSense_1.c ****         {
 667:.\Generated_Source\PSoC4/CapSense_1.c ****             /* Enable sensor (signle) */
 668:.\Generated_Source\PSoC4/CapSense_1.c ****             CapSense_1_EnableSensor(slot);
 669:.\Generated_Source\PSoC4/CapSense_1.c ****         }
 670:.\Generated_Source\PSoC4/CapSense_1.c ****         else
 671:.\Generated_Source\PSoC4/CapSense_1.c ****         {
 672:.\Generated_Source\PSoC4/CapSense_1.c ****             /* Enable complex sensor */
 673:.\Generated_Source\PSoC4/CapSense_1.c ****             snsType &= ~CapSense_1_COMPLEX_SS_FLAG;
 674:.\Generated_Source\PSoC4/CapSense_1.c ****             index = &CapSense_1_indexTable[snsType];
 675:.\Generated_Source\PSoC4/CapSense_1.c ****             snsNumber = CapSense_1_maskTable[slot];
 676:.\Generated_Source\PSoC4/CapSense_1.c ****                         
 677:.\Generated_Source\PSoC4/CapSense_1.c ****             for (j=0; j < snsNumber; j++)
 678:.\Generated_Source\PSoC4/CapSense_1.c ****             {
 679:.\Generated_Source\PSoC4/CapSense_1.c ****                 CapSense_1_EnableSensor(index[j]);
ARM GAS  C:\Users\maxk\AppData\Local\Temp\cc0ClDlQ.s 			page 28


 680:.\Generated_Source\PSoC4/CapSense_1.c ****             }
 681:.\Generated_Source\PSoC4/CapSense_1.c ****         } 
 682:.\Generated_Source\PSoC4/CapSense_1.c ****     }
 683:.\Generated_Source\PSoC4/CapSense_1.c ****     
 684:.\Generated_Source\PSoC4/CapSense_1.c ****     
 685:.\Generated_Source\PSoC4/CapSense_1.c ****     /*******************************************************************************
 686:.\Generated_Source\PSoC4/CapSense_1.c ****     * Function Name: CapSense_1_DisableScanSlot
 687:.\Generated_Source\PSoC4/CapSense_1.c ****     ********************************************************************************
 688:.\Generated_Source\PSoC4/CapSense_1.c ****     *
 689:.\Generated_Source\PSoC4/CapSense_1.c ****     * Summary:
 690:.\Generated_Source\PSoC4/CapSense_1.c ****     *  Disables the selected slot. The corresponding pin/pis is/are disconnected 
 691:.\Generated_Source\PSoC4/CapSense_1.c ****     *  from the Analog Mux Bus and connected to GND, High_Z or Shield electrode.
 692:.\Generated_Source\PSoC4/CapSense_1.c ****     *
 693:.\Generated_Source\PSoC4/CapSense_1.c ****     * Parameters:
 694:.\Generated_Source\PSoC4/CapSense_1.c ****     *  slot:  Slot number.
 695:.\Generated_Source\PSoC4/CapSense_1.c ****     *
 696:.\Generated_Source\PSoC4/CapSense_1.c ****     * Return:
 697:.\Generated_Source\PSoC4/CapSense_1.c ****     *  None
 698:.\Generated_Source\PSoC4/CapSense_1.c ****     *
 699:.\Generated_Source\PSoC4/CapSense_1.c ****     * Global Variables:
 700:.\Generated_Source\PSoC4/CapSense_1.c ****     *  CapSense_1_portTable[]  - used to store the port number that pin 
 701:.\Generated_Source\PSoC4/CapSense_1.c ****     *  belongs to for every sensor.
 702:.\Generated_Source\PSoC4/CapSense_1.c ****     *  CapSense_1_maskTable[]  - used to store the pin within the port for 
 703:.\Generated_Source\PSoC4/CapSense_1.c ****     *  every sensor.
 704:.\Generated_Source\PSoC4/CapSense_1.c ****     *  CapSense_1_indexTable[] - used to store indexes of complex sensors.
 705:.\Generated_Source\PSoC4/CapSense_1.c ****     *  The offset and position in this array are stored in port and mask table for 
 706:.\Generated_Source\PSoC4/CapSense_1.c ****     *  complex sensors.
 707:.\Generated_Source\PSoC4/CapSense_1.c ****     *  The 7bit(msb) is used to define the sensor type: single or complex.
 708:.\Generated_Source\PSoC4/CapSense_1.c ****     *
 709:.\Generated_Source\PSoC4/CapSense_1.c ****     *******************************************************************************/
 710:.\Generated_Source\PSoC4/CapSense_1.c ****     void CapSense_1_DisableScanSlot(uint8 slot)
 711:.\Generated_Source\PSoC4/CapSense_1.c ****     {
 712:.\Generated_Source\PSoC4/CapSense_1.c ****         uint8 j;
 713:.\Generated_Source\PSoC4/CapSense_1.c ****         uint8 snsNumber;
 714:.\Generated_Source\PSoC4/CapSense_1.c ****         const uint8 CYCODE *index;
 715:.\Generated_Source\PSoC4/CapSense_1.c ****         /* Read the sensor type: single or complex */
 716:.\Generated_Source\PSoC4/CapSense_1.c ****         uint8 snsType = CapSense_1_portTable[slot];
 717:.\Generated_Source\PSoC4/CapSense_1.c ****         
 718:.\Generated_Source\PSoC4/CapSense_1.c ****         /* Check if sensor is complex */
 719:.\Generated_Source\PSoC4/CapSense_1.c ****         if ((snsType & CapSense_1_COMPLEX_SS_FLAG) == 0u)
 720:.\Generated_Source\PSoC4/CapSense_1.c ****         {
 721:.\Generated_Source\PSoC4/CapSense_1.c ****             /* Disable sensor (signle) */
 722:.\Generated_Source\PSoC4/CapSense_1.c ****             CapSense_1_DisableSensor(slot);
 723:.\Generated_Source\PSoC4/CapSense_1.c ****         }
 724:.\Generated_Source\PSoC4/CapSense_1.c ****         else
 725:.\Generated_Source\PSoC4/CapSense_1.c ****         {
 726:.\Generated_Source\PSoC4/CapSense_1.c ****             /* Disable complex sensor */
 727:.\Generated_Source\PSoC4/CapSense_1.c ****             snsType &= ~CapSense_1_COMPLEX_SS_FLAG;
 728:.\Generated_Source\PSoC4/CapSense_1.c ****             index = &CapSense_1_indexTable[snsType];
 729:.\Generated_Source\PSoC4/CapSense_1.c ****             snsNumber = CapSense_1_maskTable[slot];
 730:.\Generated_Source\PSoC4/CapSense_1.c ****                         
 731:.\Generated_Source\PSoC4/CapSense_1.c ****             for (j=0; j < snsNumber; j++)
 732:.\Generated_Source\PSoC4/CapSense_1.c ****             {
 733:.\Generated_Source\PSoC4/CapSense_1.c ****                 CapSense_1_DisableSensor(index[j]);
 734:.\Generated_Source\PSoC4/CapSense_1.c ****             }
 735:.\Generated_Source\PSoC4/CapSense_1.c ****         } 
 736:.\Generated_Source\PSoC4/CapSense_1.c ****     }
ARM GAS  C:\Users\maxk\AppData\Local\Temp\cc0ClDlQ.s 			page 29


 737:.\Generated_Source\PSoC4/CapSense_1.c **** #endif  /* CapSense_1_IS_COMPLEX_SCANSLOTS */
 738:.\Generated_Source\PSoC4/CapSense_1.c **** 
 739:.\Generated_Source\PSoC4/CapSense_1.c **** 
 740:.\Generated_Source\PSoC4/CapSense_1.c **** /*******************************************************************************
 741:.\Generated_Source\PSoC4/CapSense_1.c **** * Function Name: CapSense_1_EnableSensor
 742:.\Generated_Source\PSoC4/CapSense_1.c **** ********************************************************************************
 743:.\Generated_Source\PSoC4/CapSense_1.c **** *
 744:.\Generated_Source\PSoC4/CapSense_1.c **** * Summary:
 745:.\Generated_Source\PSoC4/CapSense_1.c **** *  Configures the selected sensor to measure during the next measurement cycle.
 746:.\Generated_Source\PSoC4/CapSense_1.c **** *  The corresponding pins are set to Analog High-Z mode and connected to the
 747:.\Generated_Source\PSoC4/CapSense_1.c **** *  Analog Mux Bus. This also enables the comparator function.
 748:.\Generated_Source\PSoC4/CapSense_1.c **** *
 749:.\Generated_Source\PSoC4/CapSense_1.c **** * Parameters:
 750:.\Generated_Source\PSoC4/CapSense_1.c **** *  sensor:  Sensor number.
 751:.\Generated_Source\PSoC4/CapSense_1.c **** *
 752:.\Generated_Source\PSoC4/CapSense_1.c **** * Return:
 753:.\Generated_Source\PSoC4/CapSense_1.c **** *  None
 754:.\Generated_Source\PSoC4/CapSense_1.c **** *
 755:.\Generated_Source\PSoC4/CapSense_1.c **** * Global Variables:
 756:.\Generated_Source\PSoC4/CapSense_1.c **** *  CapSense_1_portTable[] - used to store the port number that pin 
 757:.\Generated_Source\PSoC4/CapSense_1.c **** *  belongs to for every sensor.
 758:.\Generated_Source\PSoC4/CapSense_1.c **** *  CapSense_1_maskTable[] - used to store the pin within the port for 
 759:.\Generated_Source\PSoC4/CapSense_1.c **** *  every sensor.
 760:.\Generated_Source\PSoC4/CapSense_1.c **** *  CapSense_1_csTable[]   - used to store the pointers to CAPS_SEL 
 761:.\Generated_Source\PSoC4/CapSense_1.c **** *  registers for every port.
 762:.\Generated_Source\PSoC4/CapSense_1.c **** *  CapSense_1_pcTable[]   - used to store the pointers to PC pin 
 763:.\Generated_Source\PSoC4/CapSense_1.c **** *  register for every sensor.
 764:.\Generated_Source\PSoC4/CapSense_1.c **** *  CapSense_1_amuxIndex[] - used to store corrected AMUX index when 
 765:.\Generated_Source\PSoC4/CapSense_1.c **** *  complex sensors are defeined.
 766:.\Generated_Source\PSoC4/CapSense_1.c **** *
 767:.\Generated_Source\PSoC4/CapSense_1.c **** *******************************************************************************/
 768:.\Generated_Source\PSoC4/CapSense_1.c **** void CapSense_1_EnableSensor(uint8 sensor)
 769:.\Generated_Source\PSoC4/CapSense_1.c **** {
 850              		.loc 1 769 0
 851              		.cfi_startproc
 852 0000 90B5     		push	{r4, r7, lr}
 853              	.LCFI27:
 854              		.cfi_def_cfa_offset 12
 855              		.cfi_offset 4, -12
 856              		.cfi_offset 7, -8
 857              		.cfi_offset 14, -4
 858 0002 87B0     		sub	sp, sp, #28
 859              	.LCFI28:
 860              		.cfi_def_cfa_offset 40
 861 0004 00AF     		add	r7, sp, #0
 862              	.LCFI29:
 863              		.cfi_def_cfa_register 7
 864 0006 021C     		mov	r2, r0
 865 0008 FB1D     		add	r3, r7, #7
 866 000a 1A70     		strb	r2, [r3]
 770:.\Generated_Source\PSoC4/CapSense_1.c **** 	uint32 newRegisterValue;
 771:.\Generated_Source\PSoC4/CapSense_1.c **** 	
 772:.\Generated_Source\PSoC4/CapSense_1.c ****     uint32 port = (uint32) CapSense_1_portTable[sensor];
 867              		.loc 1 772 0
 868 000c FB1D     		add	r3, r7, #7
 869 000e 1B78     		ldrb	r3, [r3]
 870 0010 254A     		ldr	r2, .L53
ARM GAS  C:\Users\maxk\AppData\Local\Temp\cc0ClDlQ.s 			page 30


 871 0012 D35C     		ldrb	r3, [r2, r3]
 872 0014 3B61     		str	r3, [r7, #16]
 773:.\Generated_Source\PSoC4/CapSense_1.c ****     uint8  pinModeShift = CapSense_1_pinShiftTbl[sensor]  * 3u;
 873              		.loc 1 773 0
 874 0016 FB1D     		add	r3, r7, #7
 875 0018 1B78     		ldrb	r3, [r3]
 876 001a 244A     		ldr	r2, .L53+4
 877 001c D35C     		ldrb	r3, [r2, r3]
 878 001e 3A1C     		mov	r2, r7
 879 0020 1632     		add	r2, r2, #22
 880 0022 191C     		add	r1, r3, #0
 881 0024 4900     		lsl	r1, r1, #1
 882 0026 CB18     		add	r3, r1, r3
 883 0028 1370     		strb	r3, [r2]
 774:.\Generated_Source\PSoC4/CapSense_1.c ****     uint8  pinHSIOMShift = CapSense_1_pinShiftTbl[sensor] * 4u;
 884              		.loc 1 774 0
 885 002a FB1D     		add	r3, r7, #7
 886 002c 1B78     		ldrb	r3, [r3]
 887 002e 1F4A     		ldr	r2, .L53+4
 888 0030 D25C     		ldrb	r2, [r2, r3]
 889 0032 3B1C     		mov	r3, r7
 890 0034 1733     		add	r3, r3, #23
 891 0036 9200     		lsl	r2, r2, #2
 892 0038 1A70     		strb	r2, [r3]
 775:.\Generated_Source\PSoC4/CapSense_1.c **** 
 776:.\Generated_Source\PSoC4/CapSense_1.c **** 	newRegisterValue = *CapSense_1_PrtSelTbl[port];
 893              		.loc 1 776 0
 894 003a 3A69     		ldr	r2, [r7, #16]
 895 003c 1C4B     		ldr	r3, .L53+8
 896 003e 9200     		lsl	r2, r2, #2
 897 0040 D358     		ldr	r3, [r2, r3]
 898 0042 1B68     		ldr	r3, [r3]
 899 0044 FB60     		str	r3, [r7, #12]
 777:.\Generated_Source\PSoC4/CapSense_1.c **** 	newRegisterValue &= ~(CapSense_1_CSD_HSIOM_MASK << pinHSIOMShift);
 900              		.loc 1 777 0
 901 0046 3B1C     		mov	r3, r7
 902 0048 1733     		add	r3, r3, #23
 903 004a 1B78     		ldrb	r3, [r3]
 904 004c 0F22     		mov	r2, #15
 905 004e 111C     		mov	r1, r2
 906 0050 9940     		lsl	r1, r1, r3
 907 0052 0B1C     		mov	r3, r1
 908 0054 DB43     		mvn	r3, r3
 909 0056 FA68     		ldr	r2, [r7, #12]
 910 0058 1340     		and	r3, r3, r2
 911 005a FB60     		str	r3, [r7, #12]
 778:.\Generated_Source\PSoC4/CapSense_1.c **** 	newRegisterValue |= (CapSense_1_CSD_SENSE_PORT_MODE << pinHSIOMShift);
 912              		.loc 1 778 0
 913 005c 3B1C     		mov	r3, r7
 914 005e 1733     		add	r3, r3, #23
 915 0060 1B78     		ldrb	r3, [r3]
 916 0062 0422     		mov	r2, #4
 917 0064 141C     		mov	r4, r2
 918 0066 9C40     		lsl	r4, r4, r3
 919 0068 231C     		mov	r3, r4
 920 006a FA68     		ldr	r2, [r7, #12]
 921 006c 1343     		orr	r3, r3, r2
ARM GAS  C:\Users\maxk\AppData\Local\Temp\cc0ClDlQ.s 			page 31


 922 006e FB60     		str	r3, [r7, #12]
 779:.\Generated_Source\PSoC4/CapSense_1.c ****    
 780:.\Generated_Source\PSoC4/CapSense_1.c ****     *CapSense_1_PrtCfgTbl[port] &= ~(CapSense_1_CSD_PIN_MODE_MASK << pinModeShift);
 923              		.loc 1 780 0
 924 0070 3A69     		ldr	r2, [r7, #16]
 925 0072 104B     		ldr	r3, .L53+12
 926 0074 9200     		lsl	r2, r2, #2
 927 0076 D358     		ldr	r3, [r2, r3]
 928 0078 3969     		ldr	r1, [r7, #16]
 929 007a 0E4A     		ldr	r2, .L53+12
 930 007c 8900     		lsl	r1, r1, #2
 931 007e 8A58     		ldr	r2, [r1, r2]
 932 0080 1168     		ldr	r1, [r2]
 933 0082 3A1C     		mov	r2, r7
 934 0084 1632     		add	r2, r2, #22
 935 0086 1278     		ldrb	r2, [r2]
 936 0088 0720     		mov	r0, #7
 937 008a 041C     		mov	r4, r0
 938 008c 9440     		lsl	r4, r4, r2
 939 008e 221C     		mov	r2, r4
 940 0090 D243     		mvn	r2, r2
 941 0092 0A40     		and	r2, r2, r1
 942 0094 1A60     		str	r2, [r3]
 781:.\Generated_Source\PSoC4/CapSense_1.c ****     *CapSense_1_PrtSelTbl[port] = newRegisterValue;
 943              		.loc 1 781 0
 944 0096 3A69     		ldr	r2, [r7, #16]
 945 0098 054B     		ldr	r3, .L53+8
 946 009a 9200     		lsl	r2, r2, #2
 947 009c D358     		ldr	r3, [r2, r3]
 948 009e FA68     		ldr	r2, [r7, #12]
 949 00a0 1A60     		str	r2, [r3]
 782:.\Generated_Source\PSoC4/CapSense_1.c **** }
 950              		.loc 1 782 0
 951 00a2 BD46     		mov	sp, r7
 952 00a4 07B0     		add	sp, sp, #28
 953              		@ sp needed for prologue
 954 00a6 90BD     		pop	{r4, r7, pc}
 955              	.L54:
 956              		.align	2
 957              	.L53:
 958 00a8 00000000 		.word	CapSense_1_portTable
 959 00ac 00000000 		.word	CapSense_1_pinShiftTbl
 960 00b0 00000000 		.word	CapSense_1_PrtSelTbl
 961 00b4 00000000 		.word	CapSense_1_PrtCfgTbl
 962              		.cfi_endproc
 963              	.LFE11:
 964              		.size	CapSense_1_EnableSensor, .-CapSense_1_EnableSensor
 965              		.section	.text.CapSense_1_DisableSensor,"ax",%progbits
 966              		.align	2
 967              		.global	CapSense_1_DisableSensor
 968              		.code	16
 969              		.thumb_func
 970              		.type	CapSense_1_DisableSensor, %function
 971              	CapSense_1_DisableSensor:
 972              	.LFB12:
 783:.\Generated_Source\PSoC4/CapSense_1.c **** 
 784:.\Generated_Source\PSoC4/CapSense_1.c **** 
ARM GAS  C:\Users\maxk\AppData\Local\Temp\cc0ClDlQ.s 			page 32


 785:.\Generated_Source\PSoC4/CapSense_1.c **** /*******************************************************************************
 786:.\Generated_Source\PSoC4/CapSense_1.c **** * Function Name: CapSense_1_DisableSensor
 787:.\Generated_Source\PSoC4/CapSense_1.c **** ********************************************************************************
 788:.\Generated_Source\PSoC4/CapSense_1.c **** *
 789:.\Generated_Source\PSoC4/CapSense_1.c **** * Summary:
 790:.\Generated_Source\PSoC4/CapSense_1.c **** *  Disables the selected sensor. The corresponding pin is disconnected from the
 791:.\Generated_Source\PSoC4/CapSense_1.c **** *  Analog Mux Bus and connected to GND, High_Z or Shield electrode.
 792:.\Generated_Source\PSoC4/CapSense_1.c **** *
 793:.\Generated_Source\PSoC4/CapSense_1.c **** * Parameters:
 794:.\Generated_Source\PSoC4/CapSense_1.c **** *  sensor:  Sensor number
 795:.\Generated_Source\PSoC4/CapSense_1.c **** *
 796:.\Generated_Source\PSoC4/CapSense_1.c **** * Return:
 797:.\Generated_Source\PSoC4/CapSense_1.c **** *  None
 798:.\Generated_Source\PSoC4/CapSense_1.c **** *
 799:.\Generated_Source\PSoC4/CapSense_1.c **** * Global Variables:
 800:.\Generated_Source\PSoC4/CapSense_1.c **** *  CapSense_1_portTable[] - used to store the port number that pin 
 801:.\Generated_Source\PSoC4/CapSense_1.c **** *  belongs to for every sensor.
 802:.\Generated_Source\PSoC4/CapSense_1.c **** *  CapSense_1_maskTable[] - used to store the pin within the port for 
 803:.\Generated_Source\PSoC4/CapSense_1.c **** *  every sensor.
 804:.\Generated_Source\PSoC4/CapSense_1.c **** *  CapSense_1_csTable[]   - used to store the pointers to CAPS_SEL 
 805:.\Generated_Source\PSoC4/CapSense_1.c **** *  registers for every port.
 806:.\Generated_Source\PSoC4/CapSense_1.c **** *  CapSense_1_pcTable[]   - used to store the pointers to PC pin 
 807:.\Generated_Source\PSoC4/CapSense_1.c **** *  register for every sensor.
 808:.\Generated_Source\PSoC4/CapSense_1.c **** *  CapSense_1_amuxIndex[] - used to store corrected AMUX index when 
 809:.\Generated_Source\PSoC4/CapSense_1.c **** *  complex sensors are defeined.
 810:.\Generated_Source\PSoC4/CapSense_1.c **** *
 811:.\Generated_Source\PSoC4/CapSense_1.c **** *******************************************************************************/
 812:.\Generated_Source\PSoC4/CapSense_1.c **** void CapSense_1_DisableSensor(uint8 sensor)
 813:.\Generated_Source\PSoC4/CapSense_1.c **** {
 973              		.loc 1 813 0
 974              		.cfi_startproc
 975 0000 90B5     		push	{r4, r7, lr}
 976              	.LCFI30:
 977              		.cfi_def_cfa_offset 12
 978              		.cfi_offset 4, -12
 979              		.cfi_offset 7, -8
 980              		.cfi_offset 14, -4
 981 0002 87B0     		sub	sp, sp, #28
 982              	.LCFI31:
 983              		.cfi_def_cfa_offset 40
 984 0004 00AF     		add	r7, sp, #0
 985              	.LCFI32:
 986              		.cfi_def_cfa_register 7
 987 0006 021C     		mov	r2, r0
 988 0008 FB1D     		add	r3, r7, #7
 989 000a 1A70     		strb	r2, [r3]
 814:.\Generated_Source\PSoC4/CapSense_1.c ****     uint32 port = (uint32) CapSense_1_portTable[sensor];
 990              		.loc 1 814 0
 991 000c FB1D     		add	r3, r7, #7
 992 000e 1B78     		ldrb	r3, [r3]
 993 0010 2F4A     		ldr	r2, .L57
 994 0012 D35C     		ldrb	r3, [r2, r3]
 995 0014 BB60     		str	r3, [r7, #8]
 815:.\Generated_Source\PSoC4/CapSense_1.c ****     uint8  pinHSIOMShift = CapSense_1_pinShiftTbl[sensor] * 4u;
 996              		.loc 1 815 0
 997 0016 FB1D     		add	r3, r7, #7
 998 0018 1B78     		ldrb	r3, [r3]
ARM GAS  C:\Users\maxk\AppData\Local\Temp\cc0ClDlQ.s 			page 33


 999 001a 2E4A     		ldr	r2, .L57+4
 1000 001c D25C     		ldrb	r2, [r2, r3]
 1001 001e 3B1C     		mov	r3, r7
 1002 0020 0F33     		add	r3, r3, #15
 1003 0022 9200     		lsl	r2, r2, #2
 1004 0024 1A70     		strb	r2, [r3]
 816:.\Generated_Source\PSoC4/CapSense_1.c **** #if (CapSense_1_CONNECT_INACTIVE_SNS != CapSense_1__SHIELD)
 817:.\Generated_Source\PSoC4/CapSense_1.c **** 	uint32 newRegisterValue;
 818:.\Generated_Source\PSoC4/CapSense_1.c ****     uint8  pinModeShift = CapSense_1_pinShiftTbl[sensor]  * 3u;
 1005              		.loc 1 818 0
 1006 0026 FB1D     		add	r3, r7, #7
 1007 0028 1B78     		ldrb	r3, [r3]
 1008 002a 2A4A     		ldr	r2, .L57+4
 1009 002c D35C     		ldrb	r3, [r2, r3]
 1010 002e 3A1C     		mov	r2, r7
 1011 0030 1732     		add	r2, r2, #23
 1012 0032 191C     		add	r1, r3, #0
 1013 0034 4900     		lsl	r1, r1, #1
 1014 0036 CB18     		add	r3, r1, r3
 1015 0038 1370     		strb	r3, [r2]
 819:.\Generated_Source\PSoC4/CapSense_1.c **** #endif    
 820:.\Generated_Source\PSoC4/CapSense_1.c **** 
 821:.\Generated_Source\PSoC4/CapSense_1.c **** 
 822:.\Generated_Source\PSoC4/CapSense_1.c ****     *CapSense_1_PrtSelTbl[port] &= ~(CapSense_1_CSD_HSIOM_MASK << pinHSIOMShift);
 1016              		.loc 1 822 0
 1017 003a BA68     		ldr	r2, [r7, #8]
 1018 003c 264B     		ldr	r3, .L57+8
 1019 003e 9200     		lsl	r2, r2, #2
 1020 0040 D358     		ldr	r3, [r2, r3]
 1021 0042 B968     		ldr	r1, [r7, #8]
 1022 0044 244A     		ldr	r2, .L57+8
 1023 0046 8900     		lsl	r1, r1, #2
 1024 0048 8A58     		ldr	r2, [r1, r2]
 1025 004a 1168     		ldr	r1, [r2]
 1026 004c 3A1C     		mov	r2, r7
 1027 004e 0F32     		add	r2, r2, #15
 1028 0050 1278     		ldrb	r2, [r2]
 1029 0052 0F20     		mov	r0, #15
 1030 0054 041C     		mov	r4, r0
 1031 0056 9440     		lsl	r4, r4, r2
 1032 0058 221C     		mov	r2, r4
 1033 005a D243     		mvn	r2, r2
 1034 005c 0A40     		and	r2, r2, r1
 1035 005e 1A60     		str	r2, [r3]
 823:.\Generated_Source\PSoC4/CapSense_1.c ****         
 824:.\Generated_Source\PSoC4/CapSense_1.c **** #if (CapSense_1_CONNECT_INACTIVE_SNS == CapSense_1__SHIELD)
 825:.\Generated_Source\PSoC4/CapSense_1.c ****     *CapSense_1_PrtSelTbl[port] |= (CapSense_1_CSD_SHIELD_PORT_MODE << pinHSIOMShift);
 826:.\Generated_Source\PSoC4/CapSense_1.c **** #else
 827:.\Generated_Source\PSoC4/CapSense_1.c **** 
 828:.\Generated_Source\PSoC4/CapSense_1.c **** 	newRegisterValue = *CapSense_1_PrtCfgTbl[port];
 1036              		.loc 1 828 0
 1037 0060 BA68     		ldr	r2, [r7, #8]
 1038 0062 1E4B     		ldr	r3, .L57+12
 1039 0064 9200     		lsl	r2, r2, #2
 1040 0066 D358     		ldr	r3, [r2, r3]
 1041 0068 1B68     		ldr	r3, [r3]
 1042 006a 3B61     		str	r3, [r7, #16]
ARM GAS  C:\Users\maxk\AppData\Local\Temp\cc0ClDlQ.s 			page 34


 829:.\Generated_Source\PSoC4/CapSense_1.c **** 	newRegisterValue &= ~(CapSense_1_CSD_PIN_MODE_MASK << pinModeShift);
 1043              		.loc 1 829 0
 1044 006c 3B1C     		mov	r3, r7
 1045 006e 1733     		add	r3, r3, #23
 1046 0070 1B78     		ldrb	r3, [r3]
 1047 0072 0722     		mov	r2, #7
 1048 0074 111C     		mov	r1, r2
 1049 0076 9940     		lsl	r1, r1, r3
 1050 0078 0B1C     		mov	r3, r1
 1051 007a DB43     		mvn	r3, r3
 1052 007c 3A69     		ldr	r2, [r7, #16]
 1053 007e 1340     		and	r3, r3, r2
 1054 0080 3B61     		str	r3, [r7, #16]
 830:.\Generated_Source\PSoC4/CapSense_1.c **** 	newRegisterValue |=  (CapSense_1_CSD_INACTIVE_CONNECT << pinModeShift);
 1055              		.loc 1 830 0
 1056 0082 3B1C     		mov	r3, r7
 1057 0084 1733     		add	r3, r3, #23
 1058 0086 1B78     		ldrb	r3, [r3]
 1059 0088 0622     		mov	r2, #6
 1060 008a 141C     		mov	r4, r2
 1061 008c 9C40     		lsl	r4, r4, r3
 1062 008e 231C     		mov	r3, r4
 1063 0090 3A69     		ldr	r2, [r7, #16]
 1064 0092 1343     		orr	r3, r3, r2
 1065 0094 3B61     		str	r3, [r7, #16]
 831:.\Generated_Source\PSoC4/CapSense_1.c ****     *CapSense_1_PrtCfgTbl[port] =  newRegisterValue;
 1066              		.loc 1 831 0
 1067 0096 BA68     		ldr	r2, [r7, #8]
 1068 0098 104B     		ldr	r3, .L57+12
 1069 009a 9200     		lsl	r2, r2, #2
 1070 009c D358     		ldr	r3, [r2, r3]
 1071 009e 3A69     		ldr	r2, [r7, #16]
 1072 00a0 1A60     		str	r2, [r3]
 832:.\Generated_Source\PSoC4/CapSense_1.c ****     
 833:.\Generated_Source\PSoC4/CapSense_1.c **** 	*CapSense_1_PrtDRTbl[port]  &=  ~(1u << CapSense_1_pinShiftTbl[sensor]);  
 1073              		.loc 1 833 0
 1074 00a2 BA68     		ldr	r2, [r7, #8]
 1075 00a4 0E4B     		ldr	r3, .L57+16
 1076 00a6 9200     		lsl	r2, r2, #2
 1077 00a8 D358     		ldr	r3, [r2, r3]
 1078 00aa B968     		ldr	r1, [r7, #8]
 1079 00ac 0C4A     		ldr	r2, .L57+16
 1080 00ae 8900     		lsl	r1, r1, #2
 1081 00b0 8A58     		ldr	r2, [r1, r2]
 1082 00b2 1168     		ldr	r1, [r2]
 1083 00b4 FA1D     		add	r2, r7, #7
 1084 00b6 1278     		ldrb	r2, [r2]
 1085 00b8 0648     		ldr	r0, .L57+4
 1086 00ba 825C     		ldrb	r2, [r0, r2]
 1087 00bc 0120     		mov	r0, #1
 1088 00be 041C     		mov	r4, r0
 1089 00c0 9440     		lsl	r4, r4, r2
 1090 00c2 221C     		mov	r2, r4
 1091 00c4 D243     		mvn	r2, r2
 1092 00c6 0A40     		and	r2, r2, r1
 1093 00c8 1A60     		str	r2, [r3]
 834:.\Generated_Source\PSoC4/CapSense_1.c ****     
ARM GAS  C:\Users\maxk\AppData\Local\Temp\cc0ClDlQ.s 			page 35


 835:.\Generated_Source\PSoC4/CapSense_1.c **** #endif /* CapSense_1_CONNECT_INACTIVE_SNS == CapSense_1__SHIELD */
 836:.\Generated_Source\PSoC4/CapSense_1.c **** }
 1094              		.loc 1 836 0
 1095 00ca BD46     		mov	sp, r7
 1096 00cc 07B0     		add	sp, sp, #28
 1097              		@ sp needed for prologue
 1098 00ce 90BD     		pop	{r4, r7, pc}
 1099              	.L58:
 1100              		.align	2
 1101              	.L57:
 1102 00d0 00000000 		.word	CapSense_1_portTable
 1103 00d4 00000000 		.word	CapSense_1_pinShiftTbl
 1104 00d8 00000000 		.word	CapSense_1_PrtSelTbl
 1105 00dc 00000000 		.word	CapSense_1_PrtCfgTbl
 1106 00e0 00000000 		.word	CapSense_1_PrtDRTbl
 1107              		.cfi_endproc
 1108              	.LFE12:
 1109              		.size	CapSense_1_DisableSensor, .-CapSense_1_DisableSensor
 1110              		.section	.text.CapSense_1_PreScan,"ax",%progbits
 1111              		.align	2
 1112              		.global	CapSense_1_PreScan
 1113              		.code	16
 1114              		.thumb_func
 1115              		.type	CapSense_1_PreScan, %function
 1116              	CapSense_1_PreScan:
 1117              	.LFB13:
 837:.\Generated_Source\PSoC4/CapSense_1.c **** 
 838:.\Generated_Source\PSoC4/CapSense_1.c **** 
 839:.\Generated_Source\PSoC4/CapSense_1.c **** /*******************************************************************************
 840:.\Generated_Source\PSoC4/CapSense_1.c **** * Function Name: CapSense_1_PreScan
 841:.\Generated_Source\PSoC4/CapSense_1.c **** ********************************************************************************
 842:.\Generated_Source\PSoC4/CapSense_1.c **** *
 843:.\Generated_Source\PSoC4/CapSense_1.c **** * Summary:
 844:.\Generated_Source\PSoC4/CapSense_1.c **** *  Set required settings, enable sensor, remove Vref from AMUX and start the 
 845:.\Generated_Source\PSoC4/CapSense_1.c **** *  scanning process of the sensor.
 846:.\Generated_Source\PSoC4/CapSense_1.c **** *
 847:.\Generated_Source\PSoC4/CapSense_1.c **** * Parameters:
 848:.\Generated_Source\PSoC4/CapSense_1.c **** *  sensor:  Sensor number.
 849:.\Generated_Source\PSoC4/CapSense_1.c **** *
 850:.\Generated_Source\PSoC4/CapSense_1.c **** * Return:
 851:.\Generated_Source\PSoC4/CapSense_1.c **** *  None
 852:.\Generated_Source\PSoC4/CapSense_1.c **** *
 853:.\Generated_Source\PSoC4/CapSense_1.c **** * Global Variables:
 854:.\Generated_Source\PSoC4/CapSense_1.c **** *
 855:.\Generated_Source\PSoC4/CapSense_1.c **** *******************************************************************************/
 856:.\Generated_Source\PSoC4/CapSense_1.c **** void CapSense_1_PreScan(uint8 sensor)
 857:.\Generated_Source\PSoC4/CapSense_1.c **** {
 1118              		.loc 1 857 0
 1119              		.cfi_startproc
 1120 0000 80B5     		push	{r7, lr}
 1121              	.LCFI33:
 1122              		.cfi_def_cfa_offset 8
 1123              		.cfi_offset 7, -8
 1124              		.cfi_offset 14, -4
 1125 0002 84B0     		sub	sp, sp, #16
 1126              	.LCFI34:
 1127              		.cfi_def_cfa_offset 24
ARM GAS  C:\Users\maxk\AppData\Local\Temp\cc0ClDlQ.s 			page 36


 1128 0004 00AF     		add	r7, sp, #0
 1129              	.LCFI35:
 1130              		.cfi_def_cfa_register 7
 1131 0006 021C     		mov	r2, r0
 1132 0008 FB1D     		add	r3, r7, #7
 1133 000a 1A70     		strb	r2, [r3]
 858:.\Generated_Source\PSoC4/CapSense_1.c ****     uint8 widget;
 859:.\Generated_Source\PSoC4/CapSense_1.c ****     uint8 interruptState;
 860:.\Generated_Source\PSoC4/CapSense_1.c **** 	uint32 newRegisterValue;
 861:.\Generated_Source\PSoC4/CapSense_1.c ****     
 862:.\Generated_Source\PSoC4/CapSense_1.c ****     interruptState = CyEnterCriticalSection();
 1134              		.loc 1 862 0
 1135 000c FFF7FEFF 		bl	CyEnterCriticalSection
 1136 0010 031C     		mov	r3, r0
 1137 0012 1A1C     		mov	r2, r3
 1138 0014 3B1C     		mov	r3, r7
 1139 0016 0B33     		add	r3, r3, #11
 1140 0018 1A70     		strb	r2, [r3]
 863:.\Generated_Source\PSoC4/CapSense_1.c **** 
 864:.\Generated_Source\PSoC4/CapSense_1.c ****     /* Define widget sensor belongs to */
 865:.\Generated_Source\PSoC4/CapSense_1.c ****     widget = CapSense_1_widgetNumber[sensor];
 1141              		.loc 1 865 0
 1142 001a FB1D     		add	r3, r7, #7
 1143 001c 1A78     		ldrb	r2, [r3]
 1144 001e 3B1C     		mov	r3, r7
 1145 0020 0A33     		add	r3, r3, #10
 1146 0022 2449     		ldr	r1, .L61
 1147 0024 8A5C     		ldrb	r2, [r1, r2]
 1148 0026 1A70     		strb	r2, [r3]
 866:.\Generated_Source\PSoC4/CapSense_1.c **** 
 867:.\Generated_Source\PSoC4/CapSense_1.c ****     /* Set Sensor Settings */
 868:.\Generated_Source\PSoC4/CapSense_1.c ****     CapSense_1_SetScanSlotSettings(sensor);
 1149              		.loc 1 868 0
 1150 0028 FB1D     		add	r3, r7, #7
 1151 002a 1B78     		ldrb	r3, [r3]
 1152 002c 181C     		mov	r0, r3
 1153 002e FFF7FEFF 		bl	CapSense_1_SetScanSlotSettings
 869:.\Generated_Source\PSoC4/CapSense_1.c **** 
 870:.\Generated_Source\PSoC4/CapSense_1.c ****     /* Enable Sensor */
 871:.\Generated_Source\PSoC4/CapSense_1.c ****     CapSense_1_EnableScanSlot(sensor);
 1154              		.loc 1 871 0
 1155 0032 FB1D     		add	r3, r7, #7
 1156 0034 1B78     		ldrb	r3, [r3]
 1157 0036 181C     		mov	r0, r3
 1158 0038 FFF7FEFF 		bl	CapSense_1_EnableSensor
 872:.\Generated_Source\PSoC4/CapSense_1.c **** 	
 873:.\Generated_Source\PSoC4/CapSense_1.c **** #if(CapSense_1_CMOD_PREGARGE_OPTION == CapSense_1__CAPPRIOBUF)
 874:.\Generated_Source\PSoC4/CapSense_1.c **** 	CapSense_1_PORT4_PC_REG &= ~(CapSense_1_CSD_CMOD_PC_MASK);
 875:.\Generated_Source\PSoC4/CapSense_1.c **** 	CapSense_1_PORT4_PC_REG |= CapSense_1_CMOD_PC_STRONG_MODE;
 876:.\Generated_Source\PSoC4/CapSense_1.c **** 	
 877:.\Generated_Source\PSoC4/CapSense_1.c **** 	CapSense_1_PORT4_DR_REG &= ~(CapSense_1_CMOD_DR_MASK);
 878:.\Generated_Source\PSoC4/CapSense_1.c **** 	CapSense_1_PORT4_DR_REG |= CapSense_1_CMOD_DR_CONFIG;
 879:.\Generated_Source\PSoC4/CapSense_1.c **** #endif /* (CapSense_1_CMOD_PREGARGE_OPTION == CapSense_1__CAPPRIOBUF) */
 880:.\Generated_Source\PSoC4/CapSense_1.c **** 
 881:.\Generated_Source\PSoC4/CapSense_1.c **** 	newRegisterValue = CapSense_1_CSD_CFG_REG;
 1159              		.loc 1 881 0
 1160 003c 1E4B     		ldr	r3, .L61+4
ARM GAS  C:\Users\maxk\AppData\Local\Temp\cc0ClDlQ.s 			page 37


 1161 003e 1B68     		ldr	r3, [r3]
 1162 0040 FB60     		str	r3, [r7, #12]
 882:.\Generated_Source\PSoC4/CapSense_1.c **** 	newRegisterValue &= ~(CapSense_1_PRECHARGE_CONFIG_MASK);
 1163              		.loc 1 882 0
 1164 0042 FA68     		ldr	r2, [r7, #12]
 1165 0044 1D4B     		ldr	r3, .L61+8
 1166 0046 1340     		and	r3, r3, r2
 1167 0048 FB60     		str	r3, [r7, #12]
 883:.\Generated_Source\PSoC4/CapSense_1.c **** 	newRegisterValue |= CapSense_1_CMOD_PRECHARGE_CONFIG;
 1168              		.loc 1 883 0
 1169 004a FA68     		ldr	r2, [r7, #12]
 1170 004c A023     		mov	r3, #160
 1171 004e 1B02     		lsl	r3, r3, #8
 1172 0050 1343     		orr	r3, r3, r2
 1173 0052 FB60     		str	r3, [r7, #12]
 884:.\Generated_Source\PSoC4/CapSense_1.c **** 	CapSense_1_CSD_CFG_REG = newRegisterValue;
 1174              		.loc 1 884 0
 1175 0054 184B     		ldr	r3, .L61+4
 1176 0056 FA68     		ldr	r2, [r7, #12]
 1177 0058 1A60     		str	r2, [r3]
 885:.\Generated_Source\PSoC4/CapSense_1.c **** 	
 886:.\Generated_Source\PSoC4/CapSense_1.c **** 	CyDelayUs(MAX_CHARGE_TIME_US);
 1178              		.loc 1 886 0
 1179 005a 6420     		mov	r0, #100
 1180 005c FFF7FEFF 		bl	CyDelayUs
 887:.\Generated_Source\PSoC4/CapSense_1.c **** 	
 888:.\Generated_Source\PSoC4/CapSense_1.c **** #if(CapSense_1_CMOD_PREGARGE_OPTION == CapSense_1__CAPPRIOBUF)
 889:.\Generated_Source\PSoC4/CapSense_1.c **** 	CapSense_1_PORT4_PC_REG &= ~(CapSense_1_CSD_CMOD_PC_MASK);
 890:.\Generated_Source\PSoC4/CapSense_1.c **** 	CapSense_1_PORT4_PC_REG |= CapSense_1_CMOD_PC_HIGH_Z_MODE;
 891:.\Generated_Source\PSoC4/CapSense_1.c **** #endif /* (CapSense_1_CMOD_PREGARGE_OPTION == CapSense_1__CAPPRIOBUF) */
 892:.\Generated_Source\PSoC4/CapSense_1.c **** 	
 893:.\Generated_Source\PSoC4/CapSense_1.c **** 	newRegisterValue = CapSense_1_CSD_CFG_REG;
 1181              		.loc 1 893 0
 1182 0060 154B     		ldr	r3, .L61+4
 1183 0062 1B68     		ldr	r3, [r3]
 1184 0064 FB60     		str	r3, [r7, #12]
 894:.\Generated_Source\PSoC4/CapSense_1.c **** 	newRegisterValue &= ~(CapSense_1_PRECHARGE_CONFIG_MASK);
 1185              		.loc 1 894 0
 1186 0066 FA68     		ldr	r2, [r7, #12]
 1187 0068 144B     		ldr	r3, .L61+8
 1188 006a 1340     		and	r3, r3, r2
 1189 006c FB60     		str	r3, [r7, #12]
 895:.\Generated_Source\PSoC4/CapSense_1.c **** 	newRegisterValue |= CapSense_1_CTANK_PRECHARGE_CONFIG;
 1190              		.loc 1 895 0
 1191 006e FA68     		ldr	r2, [r7, #12]
 1192 0070 134B     		ldr	r3, .L61+12
 1193 0072 1343     		orr	r3, r3, r2
 1194 0074 FB60     		str	r3, [r7, #12]
 896:.\Generated_Source\PSoC4/CapSense_1.c **** 	CapSense_1_CSD_CFG_REG = newRegisterValue;
 1195              		.loc 1 896 0
 1196 0076 104B     		ldr	r3, .L61+4
 1197 0078 FA68     		ldr	r2, [r7, #12]
 1198 007a 1A60     		str	r2, [r3]
 897:.\Generated_Source\PSoC4/CapSense_1.c **** 	
 898:.\Generated_Source\PSoC4/CapSense_1.c **** #if(CapSense_1_PRS_OPTIONS  != CapSense_1__PRS_NONE)
 899:.\Generated_Source\PSoC4/CapSense_1.c **** 	CapSense_1_CSD_CFG_REG |= CapSense_1_CSD_CFG_PRS_CLEAR;
 900:.\Generated_Source\PSoC4/CapSense_1.c **** #endif /* (CapSense_1_PRS_OPTIONS  != CapSense_1__PRS_NONE) */
ARM GAS  C:\Users\maxk\AppData\Local\Temp\cc0ClDlQ.s 			page 38


 901:.\Generated_Source\PSoC4/CapSense_1.c **** 	
 902:.\Generated_Source\PSoC4/CapSense_1.c **** 	CapSense_1_CSD_Clk1_Stop();
 1199              		.loc 1 902 0
 1200 007c FFF7FEFF 		bl	CapSense_1_CSD_Clk1_Stop
 903:.\Generated_Source\PSoC4/CapSense_1.c ****     CapSense_1_CSD_Clk2_Stop();
 1201              		.loc 1 903 0
 1202 0080 FFF7FEFF 		bl	CapSense_1_CSD_Clk2_Stop
 904:.\Generated_Source\PSoC4/CapSense_1.c **** 	
 905:.\Generated_Source\PSoC4/CapSense_1.c **** 	CapSense_1_CSD_Clk1_Start();
 1203              		.loc 1 905 0
 1204 0084 FFF7FEFF 		bl	CapSense_1_CSD_Clk1_Start
 906:.\Generated_Source\PSoC4/CapSense_1.c ****     CapSense_1_CSD_Clk2_Start();
 1205              		.loc 1 906 0
 1206 0088 FFF7FEFF 		bl	CapSense_1_CSD_Clk2_Start
 907:.\Generated_Source\PSoC4/CapSense_1.c **** 	
 908:.\Generated_Source\PSoC4/CapSense_1.c **** 	CyDelayUs(10u);
 1207              		.loc 1 908 0
 1208 008c 0A20     		mov	r0, #10
 1209 008e FFF7FEFF 		bl	CyDelayUs
 909:.\Generated_Source\PSoC4/CapSense_1.c ****     
 910:.\Generated_Source\PSoC4/CapSense_1.c ****     CapSense_1_CSD_CNT_REG = CapSense_1_widgetResolution[widget];
 1210              		.loc 1 910 0
 1211 0092 0C4B     		ldr	r3, .L61+16
 1212 0094 3A1C     		mov	r2, r7
 1213 0096 0A32     		add	r2, r2, #10
 1214 0098 1178     		ldrb	r1, [r2]
 1215 009a 0B4A     		ldr	r2, .L61+20
 1216 009c 8900     		lsl	r1, r1, #2
 1217 009e 8A58     		ldr	r2, [r1, r2]
 1218 00a0 1A60     		str	r2, [r3]
 911:.\Generated_Source\PSoC4/CapSense_1.c ****     CyExitCriticalSection(interruptState);
 1219              		.loc 1 911 0
 1220 00a2 3B1C     		mov	r3, r7
 1221 00a4 0B33     		add	r3, r3, #11
 1222 00a6 1B78     		ldrb	r3, [r3]
 1223 00a8 181C     		mov	r0, r3
 1224 00aa FFF7FEFF 		bl	CyExitCriticalSection
 912:.\Generated_Source\PSoC4/CapSense_1.c **** }
 1225              		.loc 1 912 0
 1226 00ae BD46     		mov	sp, r7
 1227 00b0 04B0     		add	sp, sp, #16
 1228              		@ sp needed for prologue
 1229 00b2 80BD     		pop	{r7, pc}
 1230              	.L62:
 1231              		.align	2
 1232              	.L61:
 1233 00b4 00000000 		.word	CapSense_1_widgetNumber
 1234 00b8 04000840 		.word	1074266116
 1235 00bc FF3FDFFF 		.word	-2146305
 1236 00c0 00202000 		.word	2105344
 1237 00c4 0C000840 		.word	1074266124
 1238 00c8 00000000 		.word	CapSense_1_widgetResolution
 1239              		.cfi_endproc
 1240              	.LFE13:
 1241              		.size	CapSense_1_PreScan, .-CapSense_1_PreScan
 1242              		.section	.text.CapSense_1_PostScan,"ax",%progbits
 1243              		.align	2
ARM GAS  C:\Users\maxk\AppData\Local\Temp\cc0ClDlQ.s 			page 39


 1244              		.global	CapSense_1_PostScan
 1245              		.code	16
 1246              		.thumb_func
 1247              		.type	CapSense_1_PostScan, %function
 1248              	CapSense_1_PostScan:
 1249              	.LFB14:
 913:.\Generated_Source\PSoC4/CapSense_1.c **** 
 914:.\Generated_Source\PSoC4/CapSense_1.c **** 
 915:.\Generated_Source\PSoC4/CapSense_1.c **** /*******************************************************************************
 916:.\Generated_Source\PSoC4/CapSense_1.c **** * Function Name: CapSense_1_PostScan
 917:.\Generated_Source\PSoC4/CapSense_1.c **** ********************************************************************************
 918:.\Generated_Source\PSoC4/CapSense_1.c **** *
 919:.\Generated_Source\PSoC4/CapSense_1.c **** * Summary:
 920:.\Generated_Source\PSoC4/CapSense_1.c **** *  Store results of measurament in CapSense_1_SensorResult[] array,
 921:.\Generated_Source\PSoC4/CapSense_1.c **** *  sets scan sensor in none sampling state, turn off Idac(Current Source IDAC),
 922:.\Generated_Source\PSoC4/CapSense_1.c **** *  disconnect IDAC(Sink mode) or bleed resistor (Rb) and apply Vref on AMUX.
 923:.\Generated_Source\PSoC4/CapSense_1.c **** *  Only one channel designs.
 924:.\Generated_Source\PSoC4/CapSense_1.c **** *
 925:.\Generated_Source\PSoC4/CapSense_1.c **** * Parameters:
 926:.\Generated_Source\PSoC4/CapSense_1.c **** *  sensor:  Sensor number.
 927:.\Generated_Source\PSoC4/CapSense_1.c **** *
 928:.\Generated_Source\PSoC4/CapSense_1.c **** * Return:
 929:.\Generated_Source\PSoC4/CapSense_1.c **** *  None
 930:.\Generated_Source\PSoC4/CapSense_1.c **** *
 931:.\Generated_Source\PSoC4/CapSense_1.c **** * Global Variables:
 932:.\Generated_Source\PSoC4/CapSense_1.c **** *  CapSense_1_SensorRaw[] - used to store sensors raw data.
 933:.\Generated_Source\PSoC4/CapSense_1.c **** *
 934:.\Generated_Source\PSoC4/CapSense_1.c **** * Reentrant:
 935:.\Generated_Source\PSoC4/CapSense_1.c **** *  No
 936:.\Generated_Source\PSoC4/CapSense_1.c **** *
 937:.\Generated_Source\PSoC4/CapSense_1.c **** *******************************************************************************/
 938:.\Generated_Source\PSoC4/CapSense_1.c **** void CapSense_1_PostScan(uint8 sensor)
 939:.\Generated_Source\PSoC4/CapSense_1.c **** {
 1250              		.loc 1 939 0
 1251              		.cfi_startproc
 1252 0000 80B5     		push	{r7, lr}
 1253              	.LCFI36:
 1254              		.cfi_def_cfa_offset 8
 1255              		.cfi_offset 7, -8
 1256              		.cfi_offset 14, -4
 1257 0002 82B0     		sub	sp, sp, #8
 1258              	.LCFI37:
 1259              		.cfi_def_cfa_offset 16
 1260 0004 00AF     		add	r7, sp, #0
 1261              	.LCFI38:
 1262              		.cfi_def_cfa_register 7
 1263 0006 021C     		mov	r2, r0
 1264 0008 FB1D     		add	r3, r7, #7
 1265 000a 1A70     		strb	r2, [r3]
 940:.\Generated_Source\PSoC4/CapSense_1.c ****    
 941:.\Generated_Source\PSoC4/CapSense_1.c ****     /* Read SlotResult from Raw Counter */
 942:.\Generated_Source\PSoC4/CapSense_1.c ****     CapSense_1_SensorRaw[sensor]  = CapSense_1_CSD_CNT_REG;
 1266              		.loc 1 942 0
 1267 000c FB1D     		add	r3, r7, #7
 1268 000e 1A78     		ldrb	r2, [r3]
 1269 0010 064B     		ldr	r3, .L65
 1270 0012 1B68     		ldr	r3, [r3]
ARM GAS  C:\Users\maxk\AppData\Local\Temp\cc0ClDlQ.s 			page 40


 1271 0014 99B2     		uxth	r1, r3
 1272 0016 064B     		ldr	r3, .L65+4
 1273 0018 5200     		lsl	r2, r2, #1
 1274 001a D152     		strh	r1, [r2, r3]
 943:.\Generated_Source\PSoC4/CapSense_1.c ****     /* Disable Sensor */
 944:.\Generated_Source\PSoC4/CapSense_1.c ****     CapSense_1_DisableScanSlot(sensor);
 1275              		.loc 1 944 0
 1276 001c FB1D     		add	r3, r7, #7
 1277 001e 1B78     		ldrb	r3, [r3]
 1278 0020 181C     		mov	r0, r3
 1279 0022 FFF7FEFF 		bl	CapSense_1_DisableSensor
 945:.\Generated_Source\PSoC4/CapSense_1.c **** }
 1280              		.loc 1 945 0
 1281 0026 BD46     		mov	sp, r7
 1282 0028 02B0     		add	sp, sp, #8
 1283              		@ sp needed for prologue
 1284 002a 80BD     		pop	{r7, pc}
 1285              	.L66:
 1286              		.align	2
 1287              	.L65:
 1288 002c 0C000840 		.word	1074266124
 1289 0030 00000000 		.word	CapSense_1_SensorRaw
 1290              		.cfi_endproc
 1291              	.LFE14:
 1292              		.size	CapSense_1_PostScan, .-CapSense_1_PostScan
 1293              		.section	.text.CapSense_1_SetShieldDelay,"ax",%progbits
 1294              		.align	2
 1295              		.global	CapSense_1_SetShieldDelay
 1296              		.code	16
 1297              		.thumb_func
 1298              		.type	CapSense_1_SetShieldDelay, %function
 1299              	CapSense_1_SetShieldDelay:
 1300              	.LFB15:
 946:.\Generated_Source\PSoC4/CapSense_1.c **** 
 947:.\Generated_Source\PSoC4/CapSense_1.c **** 
 948:.\Generated_Source\PSoC4/CapSense_1.c **** 
 949:.\Generated_Source\PSoC4/CapSense_1.c **** /*******************************************************************************
 950:.\Generated_Source\PSoC4/CapSense_1.c **** * Function Name: CapSense_1_SetShieldDelay
 951:.\Generated_Source\PSoC4/CapSense_1.c **** ********************************************************************************
 952:.\Generated_Source\PSoC4/CapSense_1.c **** *
 953:.\Generated_Source\PSoC4/CapSense_1.c **** * Summary:
 954:.\Generated_Source\PSoC4/CapSense_1.c **** *  Sets plarity for IDAC2.
 955:.\Generated_Source\PSoC4/CapSense_1.c **** *
 956:.\Generated_Source\PSoC4/CapSense_1.c **** * Parameters:
 957:.\Generated_Source\PSoC4/CapSense_1.c **** *  delay:  shield delya value:
 958:.\Generated_Source\PSoC4/CapSense_1.c **** *                               0 - no delay
 959:.\Generated_Source\PSoC4/CapSense_1.c **** *                               1 - 1 tact delay
 960:.\Generated_Source\PSoC4/CapSense_1.c **** *                               2 - 2 tacts delay
 961:.\Generated_Source\PSoC4/CapSense_1.c **** *
 962:.\Generated_Source\PSoC4/CapSense_1.c **** * Return:
 963:.\Generated_Source\PSoC4/CapSense_1.c **** *  None
 964:.\Generated_Source\PSoC4/CapSense_1.c **** *
 965:.\Generated_Source\PSoC4/CapSense_1.c **** *******************************************************************************/
 966:.\Generated_Source\PSoC4/CapSense_1.c **** void CapSense_1_SetShieldDelay(uint32 delay)
 967:.\Generated_Source\PSoC4/CapSense_1.c **** {
 1301              		.loc 1 967 0
 1302              		.cfi_startproc
ARM GAS  C:\Users\maxk\AppData\Local\Temp\cc0ClDlQ.s 			page 41


 1303 0000 80B5     		push	{r7, lr}
 1304              	.LCFI39:
 1305              		.cfi_def_cfa_offset 8
 1306              		.cfi_offset 7, -8
 1307              		.cfi_offset 14, -4
 1308 0002 82B0     		sub	sp, sp, #8
 1309              	.LCFI40:
 1310              		.cfi_def_cfa_offset 16
 1311 0004 00AF     		add	r7, sp, #0
 1312              	.LCFI41:
 1313              		.cfi_def_cfa_register 7
 1314 0006 7860     		str	r0, [r7, #4]
 968:.\Generated_Source\PSoC4/CapSense_1.c ****     CapSense_1_CSD_CFG_REG &= ~CapSense_1_CSD_CFG_SHIELD_DELAY;
 1315              		.loc 1 968 0
 1316 0008 094B     		ldr	r3, .L69
 1317 000a 094A     		ldr	r2, .L69
 1318 000c 1168     		ldr	r1, [r2]
 1319 000e 094A     		ldr	r2, .L69+4
 1320 0010 0A40     		and	r2, r2, r1
 1321 0012 1A60     		str	r2, [r3]
 969:.\Generated_Source\PSoC4/CapSense_1.c ****     delay &= 0x03u;
 1322              		.loc 1 969 0
 1323 0014 7A68     		ldr	r2, [r7, #4]
 1324 0016 0323     		mov	r3, #3
 1325 0018 1340     		and	r3, r3, r2
 1326 001a 7B60     		str	r3, [r7, #4]
 970:.\Generated_Source\PSoC4/CapSense_1.c ****     CapSense_1_CSD_CFG_REG |= (delay << CapSense_1_CSD_CFG_SHIELD_DELAY__POS);
 1327              		.loc 1 970 0
 1328 001c 044B     		ldr	r3, .L69
 1329 001e 044A     		ldr	r2, .L69
 1330 0020 1168     		ldr	r1, [r2]
 1331 0022 7A68     		ldr	r2, [r7, #4]
 1332 0024 5202     		lsl	r2, r2, #9
 1333 0026 0A43     		orr	r2, r2, r1
 1334 0028 1A60     		str	r2, [r3]
 971:.\Generated_Source\PSoC4/CapSense_1.c **** }
 1335              		.loc 1 971 0
 1336 002a BD46     		mov	sp, r7
 1337 002c 02B0     		add	sp, sp, #8
 1338              		@ sp needed for prologue
 1339 002e 80BD     		pop	{r7, pc}
 1340              	.L70:
 1341              		.align	2
 1342              	.L69:
 1343 0030 04000840 		.word	1074266116
 1344 0034 FFF9FFFF 		.word	-1537
 1345              		.cfi_endproc
 1346              	.LFE15:
 1347              		.size	CapSense_1_SetShieldDelay, .-CapSense_1_SetShieldDelay
 1348              		.section	.text.CapSense_1_GetResolutionIndex,"ax",%progbits
 1349              		.align	2
 1350              		.global	CapSense_1_GetResolutionIndex
 1351              		.code	16
 1352              		.thumb_func
 1353              		.type	CapSense_1_GetResolutionIndex, %function
 1354              	CapSense_1_GetResolutionIndex:
 1355              	.LFB16:
ARM GAS  C:\Users\maxk\AppData\Local\Temp\cc0ClDlQ.s 			page 42


 972:.\Generated_Source\PSoC4/CapSense_1.c **** 
 973:.\Generated_Source\PSoC4/CapSense_1.c **** 
 974:.\Generated_Source\PSoC4/CapSense_1.c **** /*******************************************************************************
 975:.\Generated_Source\PSoC4/CapSense_1.c **** * Function Name: CapSense_1_GetResolutionIndex
 976:.\Generated_Source\PSoC4/CapSense_1.c **** ********************************************************************************
 977:.\Generated_Source\PSoC4/CapSense_1.c **** *
 978:.\Generated_Source\PSoC4/CapSense_1.c **** * Summary:
 979:.\Generated_Source\PSoC4/CapSense_1.c **** *  Recalculating the counter value tu the resolution.
 980:.\Generated_Source\PSoC4/CapSense_1.c **** *
 981:.\Generated_Source\PSoC4/CapSense_1.c **** * Parameters:
 982:.\Generated_Source\PSoC4/CapSense_1.c **** *	sensor: Sensor number.
 983:.\Generated_Source\PSoC4/CapSense_1.c **** *
 984:.\Generated_Source\PSoC4/CapSense_1.c **** * Return:
 985:.\Generated_Source\PSoC4/CapSense_1.c **** *  Returns scanning resolution for the selected sensor.
 986:.\Generated_Source\PSoC4/CapSense_1.c **** *
 987:.\Generated_Source\PSoC4/CapSense_1.c **** *******************************************************************************/
 988:.\Generated_Source\PSoC4/CapSense_1.c **** uint32 CapSense_1_GetResolutionIndex(uint32 sensor)
 989:.\Generated_Source\PSoC4/CapSense_1.c **** {
 1356              		.loc 1 989 0
 1357              		.cfi_startproc
 1358 0000 80B5     		push	{r7, lr}
 1359              	.LCFI42:
 1360              		.cfi_def_cfa_offset 8
 1361              		.cfi_offset 7, -8
 1362              		.cfi_offset 14, -4
 1363 0002 86B0     		sub	sp, sp, #24
 1364              	.LCFI43:
 1365              		.cfi_def_cfa_offset 32
 1366 0004 00AF     		add	r7, sp, #0
 1367              	.LCFI44:
 1368              		.cfi_def_cfa_register 7
 1369 0006 7860     		str	r0, [r7, #4]
 990:.\Generated_Source\PSoC4/CapSense_1.c **** 	uint32 widgetResolution;
 991:.\Generated_Source\PSoC4/CapSense_1.c **** 	uint32 result = 0u;
 1370              		.loc 1 991 0
 1371 0008 0023     		mov	r3, #0
 1372 000a FB60     		str	r3, [r7, #12]
 992:.\Generated_Source\PSoC4/CapSense_1.c **** 	uint32 mask = 1u;
 1373              		.loc 1 992 0
 1374 000c 0123     		mov	r3, #1
 1375 000e 3B61     		str	r3, [r7, #16]
 993:.\Generated_Source\PSoC4/CapSense_1.c **** 	
 994:.\Generated_Source\PSoC4/CapSense_1.c **** 	uint8 widget;
 995:.\Generated_Source\PSoC4/CapSense_1.c **** 	
 996:.\Generated_Source\PSoC4/CapSense_1.c **** 	widget = CapSense_1_widgetNumber[sensor];
 1376              		.loc 1 996 0
 1377 0010 7A68     		ldr	r2, [r7, #4]
 1378 0012 3B1C     		mov	r3, r7
 1379 0014 1733     		add	r3, r3, #23
 1380 0016 0F49     		ldr	r1, .L75
 1381 0018 8A5C     		ldrb	r2, [r1, r2]
 1382 001a 1A70     		strb	r2, [r3]
 997:.\Generated_Source\PSoC4/CapSense_1.c **** 	widgetResolution = CapSense_1_widgetResolution[widget];
 1383              		.loc 1 997 0
 1384 001c 3B1C     		mov	r3, r7
 1385 001e 1733     		add	r3, r3, #23
 1386 0020 1A78     		ldrb	r2, [r3]
ARM GAS  C:\Users\maxk\AppData\Local\Temp\cc0ClDlQ.s 			page 43


 1387 0022 0D4B     		ldr	r3, .L75+4
 1388 0024 9200     		lsl	r2, r2, #2
 1389 0026 D358     		ldr	r3, [r2, r3]
 1390 0028 BB60     		str	r3, [r7, #8]
 998:.\Generated_Source\PSoC4/CapSense_1.c **** 	
 999:.\Generated_Source\PSoC4/CapSense_1.c **** 	widgetResolution >>= 16u;
 1391              		.loc 1 999 0
 1392 002a BB68     		ldr	r3, [r7, #8]
 1393 002c 1B0C     		lsr	r3, r3, #16
 1394 002e BB60     		str	r3, [r7, #8]
1000:.\Generated_Source\PSoC4/CapSense_1.c **** 	
1001:.\Generated_Source\PSoC4/CapSense_1.c **** 	while(widgetResolution & mask)
 1395              		.loc 1 1001 0
 1396 0030 05E0     		b	.L72
 1397              	.L73:
1002:.\Generated_Source\PSoC4/CapSense_1.c **** 	{
1003:.\Generated_Source\PSoC4/CapSense_1.c **** 		result++;
 1398              		.loc 1 1003 0
 1399 0032 FB68     		ldr	r3, [r7, #12]
 1400 0034 0133     		add	r3, r3, #1
 1401 0036 FB60     		str	r3, [r7, #12]
1004:.\Generated_Source\PSoC4/CapSense_1.c **** 		mask <<= 1u;
 1402              		.loc 1 1004 0
 1403 0038 3B69     		ldr	r3, [r7, #16]
 1404 003a 5B00     		lsl	r3, r3, #1
 1405 003c 3B61     		str	r3, [r7, #16]
 1406              	.L72:
 1407              		.loc 1 1001 0
 1408 003e BA68     		ldr	r2, [r7, #8]
 1409 0040 3B69     		ldr	r3, [r7, #16]
 1410 0042 1340     		and	r3, r3, r2
 1411 0044 002B     		cmp	r3, #0
 1412 0046 F4D1     		bne	.L73
1005:.\Generated_Source\PSoC4/CapSense_1.c **** 	}
1006:.\Generated_Source\PSoC4/CapSense_1.c **** 	
1007:.\Generated_Source\PSoC4/CapSense_1.c **** 	return(result);
 1413              		.loc 1 1007 0
 1414 0048 FB68     		ldr	r3, [r7, #12]
1008:.\Generated_Source\PSoC4/CapSense_1.c **** }
 1415              		.loc 1 1008 0
 1416 004a 181C     		mov	r0, r3
 1417 004c BD46     		mov	sp, r7
 1418 004e 06B0     		add	sp, sp, #24
 1419              		@ sp needed for prologue
 1420 0050 80BD     		pop	{r7, pc}
 1421              	.L76:
 1422 0052 C046     		.align	2
 1423              	.L75:
 1424 0054 00000000 		.word	CapSense_1_widgetNumber
 1425 0058 00000000 		.word	CapSense_1_widgetResolution
 1426              		.cfi_endproc
 1427              	.LFE16:
 1428              		.size	CapSense_1_GetResolutionIndex, .-CapSense_1_GetResolutionIndex
 1429              		.section	.text.CapSense_1_Calc_PRS_Resolution,"ax",%progbits
 1430              		.align	2
 1431              		.global	CapSense_1_Calc_PRS_Resolution
 1432              		.code	16
ARM GAS  C:\Users\maxk\AppData\Local\Temp\cc0ClDlQ.s 			page 44


 1433              		.thumb_func
 1434              		.type	CapSense_1_Calc_PRS_Resolution, %function
 1435              	CapSense_1_Calc_PRS_Resolution:
 1436              	.LFB17:
1009:.\Generated_Source\PSoC4/CapSense_1.c **** 
1010:.\Generated_Source\PSoC4/CapSense_1.c **** 
1011:.\Generated_Source\PSoC4/CapSense_1.c **** /*******************************************************************************
1012:.\Generated_Source\PSoC4/CapSense_1.c **** * Function Name: CapSense_1_Calc_PRS_Resolution
1013:.\Generated_Source\PSoC4/CapSense_1.c **** ********************************************************************************
1014:.\Generated_Source\PSoC4/CapSense_1.c **** *
1015:.\Generated_Source\PSoC4/CapSense_1.c **** * Summary:
1016:.\Generated_Source\PSoC4/CapSense_1.c **** *  Calculates the PRS resolution if the PRS-Auto mode is selected.
1017:.\Generated_Source\PSoC4/CapSense_1.c **** *
1018:.\Generated_Source\PSoC4/CapSense_1.c **** * Parameters:
1019:.\Generated_Source\PSoC4/CapSense_1.c **** *  None
1020:.\Generated_Source\PSoC4/CapSense_1.c **** *
1021:.\Generated_Source\PSoC4/CapSense_1.c **** * Return:
1022:.\Generated_Source\PSoC4/CapSense_1.c **** *  None
1023:.\Generated_Source\PSoC4/CapSense_1.c **** *
1024:.\Generated_Source\PSoC4/CapSense_1.c **** *******************************************************************************/
1025:.\Generated_Source\PSoC4/CapSense_1.c **** void CapSense_1_Calc_PRS_Resolution(void)
1026:.\Generated_Source\PSoC4/CapSense_1.c **** {
 1437              		.loc 1 1026 0
 1438              		.cfi_startproc
 1439 0000 80B5     		push	{r7, lr}
 1440              	.LCFI45:
 1441              		.cfi_def_cfa_offset 8
 1442              		.cfi_offset 7, -8
 1443              		.cfi_offset 14, -4
 1444 0002 84B0     		sub	sp, sp, #16
 1445              	.LCFI46:
 1446              		.cfi_def_cfa_offset 24
 1447 0004 00AF     		add	r7, sp, #0
 1448              	.LCFI47:
 1449              		.cfi_def_cfa_register 7
1027:.\Generated_Source\PSoC4/CapSense_1.c **** 	uint32 curSensor;
1028:.\Generated_Source\PSoC4/CapSense_1.c **** 	uint32 widgetResolution;
1029:.\Generated_Source\PSoC4/CapSense_1.c ****     
1030:.\Generated_Source\PSoC4/CapSense_1.c ****     uint8 senseClk;
1031:.\Generated_Source\PSoC4/CapSense_1.c ****     uint8 sampleClk;
1032:.\Generated_Source\PSoC4/CapSense_1.c **** 	
1033:.\Generated_Source\PSoC4/CapSense_1.c ****     for(curSensor = 0u; curSensor < CapSense_1_TOTAL_SENSOR_COUNT; curSensor++)
 1450              		.loc 1 1033 0
 1451 0006 0023     		mov	r3, #0
 1452 0008 7B60     		str	r3, [r7, #4]
 1453 000a 34E0     		b	.L78
 1454              	.L82:
1034:.\Generated_Source\PSoC4/CapSense_1.c **** 	{
1035:.\Generated_Source\PSoC4/CapSense_1.c ****     
1036:.\Generated_Source\PSoC4/CapSense_1.c ****         #if ( (CapSense_1_MULTIPLE_FREQUENCY_SET) || \
1037:.\Generated_Source\PSoC4/CapSense_1.c ****               (CapSense_1_TUNING_METHOD == CapSense_1_AUTO_TUNING) )
1038:.\Generated_Source\PSoC4/CapSense_1.c ****             senseClk = CapSense_1_Clk1DividerVal[curSensor];
1039:.\Generated_Source\PSoC4/CapSense_1.c ****             sampleClk = CapSense_1_Clk2DividerVal[curSensor];
1040:.\Generated_Source\PSoC4/CapSense_1.c ****         #else
1041:.\Generated_Source\PSoC4/CapSense_1.c ****             senseClk = CapSense_1_Clk1DividerVal;
 1455              		.loc 1 1041 0
 1456 000c 3B1C     		mov	r3, r7
ARM GAS  C:\Users\maxk\AppData\Local\Temp\cc0ClDlQ.s 			page 45


 1457 000e 0E33     		add	r3, r3, #14
 1458 0010 1C4A     		ldr	r2, .L84
 1459 0012 1278     		ldrb	r2, [r2]
 1460 0014 1A70     		strb	r2, [r3]
1042:.\Generated_Source\PSoC4/CapSense_1.c ****             sampleClk = CapSense_1_Clk2DividerVal;
 1461              		.loc 1 1042 0
 1462 0016 3B1C     		mov	r3, r7
 1463 0018 0F33     		add	r3, r3, #15
 1464 001a 1B4A     		ldr	r2, .L84+4
 1465 001c 1278     		ldrb	r2, [r2]
 1466 001e 1A70     		strb	r2, [r3]
1043:.\Generated_Source\PSoC4/CapSense_1.c ****         #endif /* ( (CapSense_1_MULTIPLE_FREQUENCY_SET) || \
1044:.\Generated_Source\PSoC4/CapSense_1.c ****                     (CapSense_1_TUNING_METHOD == CapSense_1_AUTO_TUNING) ) */
1045:.\Generated_Source\PSoC4/CapSense_1.c ****         
1046:.\Generated_Source\PSoC4/CapSense_1.c **** 		if(senseClk > 1u)
 1467              		.loc 1 1046 0
 1468 0020 3B1C     		mov	r3, r7
 1469 0022 0E33     		add	r3, r3, #14
 1470 0024 1B78     		ldrb	r3, [r3]
 1471 0026 012B     		cmp	r3, #1
 1472 0028 06D9     		bls	.L79
1047:.\Generated_Source\PSoC4/CapSense_1.c **** 		{
1048:.\Generated_Source\PSoC4/CapSense_1.c **** 			senseClk >>= 1u;
 1473              		.loc 1 1048 0
 1474 002a 3B1C     		mov	r3, r7
 1475 002c 0E33     		add	r3, r3, #14
 1476 002e 3A1C     		mov	r2, r7
 1477 0030 0E32     		add	r2, r2, #14
 1478 0032 1278     		ldrb	r2, [r2]
 1479 0034 5208     		lsr	r2, r2, #1
 1480 0036 1A70     		strb	r2, [r3]
 1481              	.L79:
1049:.\Generated_Source\PSoC4/CapSense_1.c **** 		}
1050:.\Generated_Source\PSoC4/CapSense_1.c **** 		
1051:.\Generated_Source\PSoC4/CapSense_1.c **** 		widgetResolution = CapSense_1_GetResolutionIndex(curSensor);
 1482              		.loc 1 1051 0
 1483 0038 7B68     		ldr	r3, [r7, #4]
 1484 003a 181C     		mov	r0, r3
 1485 003c FFF7FEFF 		bl	CapSense_1_GetResolutionIndex
 1486 0040 031C     		mov	r3, r0
 1487 0042 BB60     		str	r3, [r7, #8]
1052:.\Generated_Source\PSoC4/CapSense_1.c **** 		
1053:.\Generated_Source\PSoC4/CapSense_1.c **** 		if((sampleClk + widgetResolution) > (12u + senseClk))
 1488              		.loc 1 1053 0
 1489 0044 3B1C     		mov	r3, r7
 1490 0046 0F33     		add	r3, r3, #15
 1491 0048 1A78     		ldrb	r2, [r3]
 1492 004a BB68     		ldr	r3, [r7, #8]
 1493 004c D218     		add	r2, r2, r3
 1494 004e 3B1C     		mov	r3, r7
 1495 0050 0E33     		add	r3, r3, #14
 1496 0052 1B78     		ldrb	r3, [r3]
 1497 0054 0C33     		add	r3, r3, #12
 1498 0056 9A42     		cmp	r2, r3
 1499 0058 05D9     		bls	.L80
1054:.\Generated_Source\PSoC4/CapSense_1.c **** 		{
1055:.\Generated_Source\PSoC4/CapSense_1.c **** 			CapSense_1_PRSResolutionTbl[curSensor] = CapSense_1_CSD_PRS_12_BIT;
ARM GAS  C:\Users\maxk\AppData\Local\Temp\cc0ClDlQ.s 			page 46


 1500              		.loc 1 1055 0
 1501 005a 7A68     		ldr	r2, [r7, #4]
 1502 005c 0B4B     		ldr	r3, .L84+8
 1503 005e 9200     		lsl	r2, r2, #2
 1504 0060 8021     		mov	r1, #128
 1505 0062 D150     		str	r1, [r2, r3]
 1506 0064 04E0     		b	.L81
 1507              	.L80:
1056:.\Generated_Source\PSoC4/CapSense_1.c **** 		}
1057:.\Generated_Source\PSoC4/CapSense_1.c **** 		else
1058:.\Generated_Source\PSoC4/CapSense_1.c **** 		{
1059:.\Generated_Source\PSoC4/CapSense_1.c **** 			CapSense_1_PRSResolutionTbl[curSensor] = CapSense_1_CSD_PRS_8_BIT;
 1508              		.loc 1 1059 0
 1509 0066 7A68     		ldr	r2, [r7, #4]
 1510 0068 084B     		ldr	r3, .L84+8
 1511 006a 9200     		lsl	r2, r2, #2
 1512 006c 0021     		mov	r1, #0
 1513 006e D150     		str	r1, [r2, r3]
 1514              	.L81:
 1515              		.loc 1 1033 0
 1516 0070 7B68     		ldr	r3, [r7, #4]
 1517 0072 0133     		add	r3, r3, #1
 1518 0074 7B60     		str	r3, [r7, #4]
 1519              	.L78:
 1520 0076 7B68     		ldr	r3, [r7, #4]
 1521 0078 042B     		cmp	r3, #4
 1522 007a C7D9     		bls	.L82
1060:.\Generated_Source\PSoC4/CapSense_1.c **** 		}
1061:.\Generated_Source\PSoC4/CapSense_1.c **** 	}
1062:.\Generated_Source\PSoC4/CapSense_1.c **** }
 1523              		.loc 1 1062 0
 1524 007c BD46     		mov	sp, r7
 1525 007e 04B0     		add	sp, sp, #16
 1526              		@ sp needed for prologue
 1527 0080 80BD     		pop	{r7, pc}
 1528              	.L85:
 1529 0082 C046     		.align	2
 1530              	.L84:
 1531 0084 00000000 		.word	CapSense_1_Clk1DividerVal
 1532 0088 00000000 		.word	CapSense_1_Clk2DividerVal
 1533 008c 00000000 		.word	CapSense_1_PRSResolutionTbl
 1534              		.cfi_endproc
 1535              	.LFE17:
 1536              		.size	CapSense_1_Calc_PRS_Resolution, .-CapSense_1_Calc_PRS_Resolution
 1537              		.text
 1538              	.Letext0: