ARM GAS  C:\Users\maxk\AppData\Local\Temp\ccY1GWIe.s 			page 1


   1              		.cpu cortex-m0
   2              		.fpu softvfp
   3              		.eabi_attribute 20, 1
   4              		.eabi_attribute 21, 1
   5              		.eabi_attribute 23, 3
   6              		.eabi_attribute 24, 1
   7              		.eabi_attribute 25, 1
   8              		.eabi_attribute 26, 1
   9              		.eabi_attribute 30, 6
  10              		.eabi_attribute 18, 4
  11              		.code	16
  12              		.file	"CapSense_1_INT.c"
  19 0000 88000000 		.text
  19      02006700 
  19      00000201 
  19      FB0E0D00 
  19      01010101 
  20              	.Ltext0:
  21              		.cfi_sections	.debug_frame
  22              		.section	.text.CapSense_1_ISR,"ax",%progbits
  23              		.align	2
  24              		.global	CapSense_1_ISR
  25              		.code	16
  26              		.thumb_func
  27              		.type	CapSense_1_ISR, %function
  28              	CapSense_1_ISR:
  29              	.LFB0:
  30              		.file 1 ".\\Generated_Source\\PSoC4\\CapSense_1_INT.c"
   1:.\Generated_Source\PSoC4/CapSense_1_INT.c **** /*******************************************************************************
   2:.\Generated_Source\PSoC4/CapSense_1_INT.c **** * File Name: CapSense_1_INT.c
   3:.\Generated_Source\PSoC4/CapSense_1_INT.c **** * Version 1.0
   4:.\Generated_Source\PSoC4/CapSense_1_INT.c **** *
   5:.\Generated_Source\PSoC4/CapSense_1_INT.c **** * Description:
   6:.\Generated_Source\PSoC4/CapSense_1_INT.c **** *  This file provides the source code of Interrupt Service Routine (ISR)
   7:.\Generated_Source\PSoC4/CapSense_1_INT.c **** *  for CapSense CSD component.
   8:.\Generated_Source\PSoC4/CapSense_1_INT.c **** *
   9:.\Generated_Source\PSoC4/CapSense_1_INT.c **** * Note:
  10:.\Generated_Source\PSoC4/CapSense_1_INT.c **** *
  11:.\Generated_Source\PSoC4/CapSense_1_INT.c **** ********************************************************************************
  12:.\Generated_Source\PSoC4/CapSense_1_INT.c **** * Copyright 2013, Cypress Semiconductor Corporation.  All rights reserved.
  13:.\Generated_Source\PSoC4/CapSense_1_INT.c **** * You may use this file only in accordance with the license, terms, conditions,
  14:.\Generated_Source\PSoC4/CapSense_1_INT.c **** * disclaimers, and limitations in the end user license agreement accompanying
  15:.\Generated_Source\PSoC4/CapSense_1_INT.c **** * the software package with which this file was provided.
  16:.\Generated_Source\PSoC4/CapSense_1_INT.c **** *******************************************************************************/
  17:.\Generated_Source\PSoC4/CapSense_1_INT.c **** 
  18:.\Generated_Source\PSoC4/CapSense_1_INT.c **** #include "CapSense_1.h"
  19:.\Generated_Source\PSoC4/CapSense_1_INT.c **** 
  20:.\Generated_Source\PSoC4/CapSense_1_INT.c **** /*******************************************************************************
  21:.\Generated_Source\PSoC4/CapSense_1_INT.c **** *  Place your includes, defines and code here 
  22:.\Generated_Source\PSoC4/CapSense_1_INT.c **** ********************************************************************************/
  23:.\Generated_Source\PSoC4/CapSense_1_INT.c **** /* `#START CapSense_1_IsrCH_ISR_intc` */
ARM GAS  C:\Users\maxk\AppData\Local\Temp\ccY1GWIe.s 			page 2


  24:.\Generated_Source\PSoC4/CapSense_1_INT.c **** 
  25:.\Generated_Source\PSoC4/CapSense_1_INT.c **** /* `#END` */
  26:.\Generated_Source\PSoC4/CapSense_1_INT.c **** 
  27:.\Generated_Source\PSoC4/CapSense_1_INT.c **** /* Extern functions declarations, Start and Compete the scan */
  28:.\Generated_Source\PSoC4/CapSense_1_INT.c **** extern void CapSense_1_PreScan(uint8 sensor);
  29:.\Generated_Source\PSoC4/CapSense_1_INT.c **** extern void CapSense_1_PostScan(uint8 sensor);
  30:.\Generated_Source\PSoC4/CapSense_1_INT.c **** 
  31:.\Generated_Source\PSoC4/CapSense_1_INT.c **** extern uint8 CapSense_1_FindNextSensor(uint8 snsIndex);
  32:.\Generated_Source\PSoC4/CapSense_1_INT.c ****  
  33:.\Generated_Source\PSoC4/CapSense_1_INT.c **** /* Global variables and arrays */
  34:.\Generated_Source\PSoC4/CapSense_1_INT.c **** extern volatile uint8 CapSense_1_csv;
  35:.\Generated_Source\PSoC4/CapSense_1_INT.c **** extern volatile uint8 CapSense_1_sensorIndex;
  36:.\Generated_Source\PSoC4/CapSense_1_INT.c **** 
  37:.\Generated_Source\PSoC4/CapSense_1_INT.c **** 
  38:.\Generated_Source\PSoC4/CapSense_1_INT.c **** /*******************************************************************************
  39:.\Generated_Source\PSoC4/CapSense_1_INT.c **** * Function Name: CapSense_1_ISR
  40:.\Generated_Source\PSoC4/CapSense_1_INT.c **** ********************************************************************************
  41:.\Generated_Source\PSoC4/CapSense_1_INT.c **** *
  42:.\Generated_Source\PSoC4/CapSense_1_INT.c **** * Summary:
  43:.\Generated_Source\PSoC4/CapSense_1_INT.c **** *  This ISR is executed when measure window is closed. The measure window 
  44:.\Generated_Source\PSoC4/CapSense_1_INT.c **** *  depends on scan resolution parameter of sensor. 
  45:.\Generated_Source\PSoC4/CapSense_1_INT.c **** *  The ISR has two modes: 
  46:.\Generated_Source\PSoC4/CapSense_1_INT.c **** *   1. Scans single sensor and stores measure result.
  47:.\Generated_Source\PSoC4/CapSense_1_INT.c **** *   2. Stores result of current measure and starts next scan till all 
  48:.\Generated_Source\PSoC4/CapSense_1_INT.c **** *      enabled sensors will be scanned.
  49:.\Generated_Source\PSoC4/CapSense_1_INT.c **** *  This interrupt handler only used in one channel designs.
  50:.\Generated_Source\PSoC4/CapSense_1_INT.c **** *
  51:.\Generated_Source\PSoC4/CapSense_1_INT.c **** * Parameters:
  52:.\Generated_Source\PSoC4/CapSense_1_INT.c **** *  None
  53:.\Generated_Source\PSoC4/CapSense_1_INT.c **** *
  54:.\Generated_Source\PSoC4/CapSense_1_INT.c **** * Return:
  55:.\Generated_Source\PSoC4/CapSense_1_INT.c **** *  None
  56:.\Generated_Source\PSoC4/CapSense_1_INT.c **** *
  57:.\Generated_Source\PSoC4/CapSense_1_INT.c **** * Global Variables:
  58:.\Generated_Source\PSoC4/CapSense_1_INT.c **** *  CapSense_1_csv - used to provide status and mode of scanning process.
  59:.\Generated_Source\PSoC4/CapSense_1_INT.c **** *   Mode - single scan or scan of all enabled sensors.
  60:.\Generated_Source\PSoC4/CapSense_1_INT.c **** *   Status - scan in progress or ready for new scan.
  61:.\Generated_Source\PSoC4/CapSense_1_INT.c **** *  CapSense_1_sensorIndex - used to store sensor scanning sensor number.
  62:.\Generated_Source\PSoC4/CapSense_1_INT.c **** *
  63:.\Generated_Source\PSoC4/CapSense_1_INT.c **** * Reentrant:
  64:.\Generated_Source\PSoC4/CapSense_1_INT.c **** *  No
  65:.\Generated_Source\PSoC4/CapSense_1_INT.c **** *
  66:.\Generated_Source\PSoC4/CapSense_1_INT.c **** *******************************************************************************/
  67:.\Generated_Source\PSoC4/CapSense_1_INT.c **** CY_ISR(CapSense_1_ISR)
  68:.\Generated_Source\PSoC4/CapSense_1_INT.c **** {
  31              		.loc 1 68 0
  32              		.cfi_startproc
  33 0000 80B5     		push	{r7, lr}
  34              	.LCFI0:
  35              		.cfi_def_cfa_offset 8
  36              		.cfi_offset 7, -8
  37              		.cfi_offset 14, -4
  38 0002 82B0     		sub	sp, sp, #8
  39              	.LCFI1:
  40              		.cfi_def_cfa_offset 16
  41 0004 00AF     		add	r7, sp, #0
  42              	.LCFI2:
ARM GAS  C:\Users\maxk\AppData\Local\Temp\ccY1GWIe.s 			page 3


  43              		.cfi_def_cfa_register 7
  69:.\Generated_Source\PSoC4/CapSense_1_INT.c ****     uint8 interruptState;
  70:.\Generated_Source\PSoC4/CapSense_1_INT.c ****     
  71:.\Generated_Source\PSoC4/CapSense_1_INT.c ****     interruptState = CyEnterCriticalSection();
  44              		.loc 1 71 0
  45 0006 FFF7FEFF 		bl	CyEnterCriticalSection
  46 000a 031C     		mov	r3, r0
  47 000c 1A1C     		mov	r2, r3
  48 000e FB1D     		add	r3, r7, #7
  49 0010 1A70     		strb	r2, [r3]
  72:.\Generated_Source\PSoC4/CapSense_1_INT.c ****     
  73:.\Generated_Source\PSoC4/CapSense_1_INT.c ****     CapSense_1_CSD_INTR_REG = 1u;
  50              		.loc 1 73 0
  51 0012 1E4B     		ldr	r3, .L6
  52 0014 0122     		mov	r2, #1
  53 0016 1A60     		str	r2, [r3]
  74:.\Generated_Source\PSoC4/CapSense_1_INT.c ****     /*  Place your Interrupt code here. */
  75:.\Generated_Source\PSoC4/CapSense_1_INT.c ****     /* `#START CapSense_1_ONE_CHANNEL_IsrCH0_ISR` */
  76:.\Generated_Source\PSoC4/CapSense_1_INT.c **** 
  77:.\Generated_Source\PSoC4/CapSense_1_INT.c ****     /* `#END` */
  78:.\Generated_Source\PSoC4/CapSense_1_INT.c **** 
  79:.\Generated_Source\PSoC4/CapSense_1_INT.c ****     /* Save results and disable sensor */
  80:.\Generated_Source\PSoC4/CapSense_1_INT.c ****     CapSense_1_PostScan(CapSense_1_sensorIndex);
  54              		.loc 1 80 0
  55 0018 1D4B     		ldr	r3, .L6+4
  56 001a 1B78     		ldrb	r3, [r3]
  57 001c DBB2     		uxtb	r3, r3
  58 001e 181C     		mov	r0, r3
  59 0020 FFF7FEFF 		bl	CapSense_1_PostScan
  81:.\Generated_Source\PSoC4/CapSense_1_INT.c ****             
  82:.\Generated_Source\PSoC4/CapSense_1_INT.c ****     if ((CapSense_1_csv & CapSense_1_SW_CTRL_SINGLE_SCAN) != 0u)
  60              		.loc 1 82 0
  61 0024 1B4B     		ldr	r3, .L6+8
  62 0026 1B78     		ldrb	r3, [r3]
  63 0028 DBB2     		uxtb	r3, r3
  64 002a 5BB2     		sxtb	r3, r3
  65 002c 002B     		cmp	r3, #0
  66 002e 07DA     		bge	.L2
  83:.\Generated_Source\PSoC4/CapSense_1_INT.c ****     {
  84:.\Generated_Source\PSoC4/CapSense_1_INT.c ****         CapSense_1_csv &= ~CapSense_1_SW_STS_BUSY;
  67              		.loc 1 84 0
  68 0030 184B     		ldr	r3, .L6+8
  69 0032 1B78     		ldrb	r3, [r3]
  70 0034 DBB2     		uxtb	r3, r3
  71 0036 FE22     		mov	r2, #254
  72 0038 1340     		and	r3, r3, r2
  73 003a 164A     		ldr	r2, .L6+8
  74 003c 1370     		strb	r3, [r2]
  75 003e 1CE0     		b	.L3
  76              	.L2:
  85:.\Generated_Source\PSoC4/CapSense_1_INT.c ****     }
  86:.\Generated_Source\PSoC4/CapSense_1_INT.c ****     else
  87:.\Generated_Source\PSoC4/CapSense_1_INT.c ****     {
  88:.\Generated_Source\PSoC4/CapSense_1_INT.c ****         /* Proceed the scanning */
  89:.\Generated_Source\PSoC4/CapSense_1_INT.c ****         CapSense_1_sensorIndex = CapSense_1_FindNextSensor(CapSense_1_sensorIndex);
  77              		.loc 1 89 0
  78 0040 134B     		ldr	r3, .L6+4
ARM GAS  C:\Users\maxk\AppData\Local\Temp\ccY1GWIe.s 			page 4


  79 0042 1B78     		ldrb	r3, [r3]
  80 0044 DBB2     		uxtb	r3, r3
  81 0046 181C     		mov	r0, r3
  82 0048 FFF7FEFF 		bl	CapSense_1_FindNextSensor
  83 004c 031C     		mov	r3, r0
  84 004e 1A1C     		mov	r2, r3
  85 0050 0F4B     		ldr	r3, .L6+4
  86 0052 1A70     		strb	r2, [r3]
  90:.\Generated_Source\PSoC4/CapSense_1_INT.c ****         
  91:.\Generated_Source\PSoC4/CapSense_1_INT.c ****         /* Check end of scan */
  92:.\Generated_Source\PSoC4/CapSense_1_INT.c ****         if(CapSense_1_sensorIndex < CapSense_1_TOTAL_SENSOR_COUNT)
  87              		.loc 1 92 0
  88 0054 0E4B     		ldr	r3, .L6+4
  89 0056 1B78     		ldrb	r3, [r3]
  90 0058 DBB2     		uxtb	r3, r3
  91 005a 042B     		cmp	r3, #4
  92 005c 06D8     		bhi	.L4
  93:.\Generated_Source\PSoC4/CapSense_1_INT.c ****         {
  94:.\Generated_Source\PSoC4/CapSense_1_INT.c ****             CapSense_1_PreScan(CapSense_1_sensorIndex);
  93              		.loc 1 94 0
  94 005e 0C4B     		ldr	r3, .L6+4
  95 0060 1B78     		ldrb	r3, [r3]
  96 0062 DBB2     		uxtb	r3, r3
  97 0064 181C     		mov	r0, r3
  98 0066 FFF7FEFF 		bl	CapSense_1_PreScan
  99 006a 06E0     		b	.L3
 100              	.L4:
  95:.\Generated_Source\PSoC4/CapSense_1_INT.c ****         }
  96:.\Generated_Source\PSoC4/CapSense_1_INT.c ****         else
  97:.\Generated_Source\PSoC4/CapSense_1_INT.c ****         {
  98:.\Generated_Source\PSoC4/CapSense_1_INT.c ****             CapSense_1_csv &= ~CapSense_1_SW_STS_BUSY;
 101              		.loc 1 98 0
 102 006c 094B     		ldr	r3, .L6+8
 103 006e 1B78     		ldrb	r3, [r3]
 104 0070 DBB2     		uxtb	r3, r3
 105 0072 FE22     		mov	r2, #254
 106 0074 1340     		and	r3, r3, r2
 107 0076 074A     		ldr	r2, .L6+8
 108 0078 1370     		strb	r3, [r2]
 109              	.L3:
  99:.\Generated_Source\PSoC4/CapSense_1_INT.c ****         } 
 100:.\Generated_Source\PSoC4/CapSense_1_INT.c ****     }
 101:.\Generated_Source\PSoC4/CapSense_1_INT.c ****     CyExitCriticalSection(interruptState);
 110              		.loc 1 101 0
 111 007a FB1D     		add	r3, r7, #7
 112 007c 1B78     		ldrb	r3, [r3]
 113 007e 181C     		mov	r0, r3
 114 0080 FFF7FEFF 		bl	CyExitCriticalSection
 102:.\Generated_Source\PSoC4/CapSense_1_INT.c **** }
 115              		.loc 1 102 0
 116 0084 BD46     		mov	sp, r7
 117 0086 02B0     		add	sp, sp, #8
 118              		@ sp needed for prologue
 119 0088 80BD     		pop	{r7, pc}
 120              	.L7:
 121 008a C046     		.align	2
 122              	.L6:
ARM GAS  C:\Users\maxk\AppData\Local\Temp\ccY1GWIe.s 			page 5


 123 008c 14000840 		.word	1074266132
 124 0090 00000000 		.word	CapSense_1_sensorIndex
 125 0094 00000000 		.word	CapSense_1_csv
 126              		.cfi_endproc
 127              	.LFE0:
 128              		.size	CapSense_1_ISR, .-CapSense_1_ISR
 129              		.text
 130              	.Letext0: