ARM GAS  C:\Users\maxk\AppData\Local\Temp\cccgew2j.s 			page 1


   1              		.cpu cortex-m0
   2              		.fpu softvfp
   3              		.eabi_attribute 20, 1
   4              		.eabi_attribute 21, 1
   5              		.eabi_attribute 23, 3
   6              		.eabi_attribute 24, 1
   7              		.eabi_attribute 25, 1
   8              		.eabi_attribute 26, 1
   9              		.eabi_attribute 30, 6
  10              		.eabi_attribute 18, 4
  11              		.code	16
  12              		.file	"main.c"
  19 0000 65000000 		.text
  19      02004500 
  19      00000201 
  19      FB0E0D00 
  19      01010101 
  20              	.Ltext0:
  21              		.cfi_sections	.debug_frame
  22              		.section	.text.main,"ax",%progbits
  23              		.align	2
  24              		.global	main
  25              		.code	16
  26              		.thumb_func
  27              		.type	main, %function
  28              	main:
  29              	.LFB20:
  30              		.file 1 ".\\main.c"
   1:.\main.c      **** #include <device.h>
   2:.\main.c      **** #include <LED_RGB.h>
   3:.\main.c      **** 
   4:.\main.c      **** void main()
   5:.\main.c      **** {
  31              		.loc 1 5 0
  32              		.cfi_startproc
  33 0000 80B5     		push	{r7, lr}
  34              	.LCFI0:
  35              		.cfi_def_cfa_offset 8
  36              		.cfi_offset 7, -8
  37              		.cfi_offset 14, -4
  38 0002 82B0     		sub	sp, sp, #8
  39              	.LCFI1:
  40              		.cfi_def_cfa_offset 16
  41 0004 00AF     		add	r7, sp, #0
  42              	.LCFI2:
  43              		.cfi_def_cfa_register 7
   6:.\main.c      ****     /* Place your initialization/startup code here (e.g. MyInst_Start()) */
   7:.\main.c      ****     uint16 CapSensePosition;
   8:.\main.c      ****     LED_RGB_Start();
  44              		.loc 1 8 0
  45 0006 FFF7FEFF 		bl	LED_RGB_Start
ARM GAS  C:\Users\maxk\AppData\Local\Temp\cccgew2j.s 			page 2


   9:.\main.c      ****     CyGlobalIntEnable;
  46              		.loc 1 9 0
  47              	@ 9 ".\main.c" 1
  48 000a 62B6     		CPSIE   i
  49              	@ 0 "" 2
  10:.\main.c      ****     CapSense_1_Start();
  50              		.loc 1 10 0
  51              		.code	16
  52 000c FFF7FEFF 		bl	CapSense_1_Start
  11:.\main.c      ****     CapSense_1_InitializeAllBaselines();
  53              		.loc 1 11 0
  54 0010 FFF7FEFF 		bl	CapSense_1_InitializeAllBaselines
  12:.\main.c      ****     UART_1_Start();
  55              		.loc 1 12 0
  56 0014 FFF7FEFF 		bl	UART_1_Start
  57              	.L3:
  13:.\main.c      ****      
  14:.\main.c      ****     /* CyGlobalIntEnable; */ /* Uncomment this line to enable global interrupts. */
  15:.\main.c      ****     for(;;)
  16:.\main.c      ****     {
  17:.\main.c      ****         /* Place your application code here. */
  18:.\main.c      ****         CapSense_1_UpdateEnabledBaselines();
  58              		.loc 1 18 0
  59 0018 FFF7FEFF 		bl	CapSense_1_UpdateEnabledBaselines
  19:.\main.c      ****         CapSense_1_ScanEnabledWidgets();
  60              		.loc 1 19 0
  61 001c FFF7FEFF 		bl	CapSense_1_ScanEnabledWidgets
  62              	.L2:
  20:.\main.c      ****         while(CapSense_1_IsBusy() != 0);
  63              		.loc 1 20 0
  64 0020 FFF7FEFF 		bl	CapSense_1_IsBusy
  65 0024 031C     		mov	r3, r0
  66 0026 002B     		cmp	r3, #0
  67 0028 FAD1     		bne	.L2
  21:.\main.c      ****         CapSensePosition = CapSense_1_GetCentroidPos(CapSense_1_LINEARSLIDER0__LS);
  68              		.loc 1 21 0
  69 002a 0020     		mov	r0, #0
  70 002c FFF7FEFF 		bl	CapSense_1_GetCentroidPos
  71 0030 031C     		mov	r3, r0
  72 0032 1A1C     		mov	r2, r3
  73 0034 BB1D     		add	r3, r7, #6
  74 0036 1A80     		strh	r2, [r3]
  22:.\main.c      ****         LED_RGB_SetColorCircle(255 * CapSensePosition);
  75              		.loc 1 22 0
  76 0038 BB1D     		add	r3, r7, #6
  77 003a 1B88     		ldrh	r3, [r3]
  78 003c 1A1C     		add	r2, r3, #0
  79 003e 1202     		lsl	r2, r2, #8
  80 0040 D31A     		sub	r3, r2, r3
  81 0042 9BB2     		uxth	r3, r3
  82 0044 181C     		mov	r0, r3
  83 0046 FFF7FEFF 		bl	LED_RGB_SetColorCircle
  23:.\main.c      ****         UART_1_UartPutChar(CapSensePosition);
  84              		.loc 1 23 0
  85 004a BB1D     		add	r3, r7, #6
  86 004c 1B88     		ldrh	r3, [r3]
  87 004e 181C     		mov	r0, r3
ARM GAS  C:\Users\maxk\AppData\Local\Temp\cccgew2j.s 			page 3


  88 0050 FFF7FEFF 		bl	UART_1_SpiUartWriteTxData
  24:.\main.c      ****         CyDelay(10);
  89              		.loc 1 24 0
  90 0054 0A20     		mov	r0, #10
  91 0056 FFF7FEFF 		bl	CyDelay
  25:.\main.c      ****     }
  92              		.loc 1 25 0
  93 005a DDE7     		b	.L3
  94              		.cfi_endproc
  95              	.LFE20:
  96              		.size	main, .-main
  97              		.text
  98              	.Letext0: