ARM GAS  C:\Users\maxk\AppData\Local\Temp\ccRHRhWN.s 			page 1


   1              		.cpu cortex-m0
   2              		.fpu softvfp
   3              		.eabi_attribute 20, 1
   4              		.eabi_attribute 21, 1
   5              		.eabi_attribute 23, 3
   6              		.eabi_attribute 24, 1
   7              		.eabi_attribute 25, 1
   8              		.eabi_attribute 26, 1
   9              		.eabi_attribute 30, 6
  10              		.eabi_attribute 18, 4
  11              		.code	16
  12              		.file	"UART_1_PM.c"
  19 0000 A0000000 		.text
  19      02006E00 
  19      00000201 
  19      FB0E0D00 
  19      01010101 
  20              	.Ltext0:
  21              		.cfi_sections	.debug_frame
  22              		.global	UART_1_backup
  23              		.bss
  24              		.align	2
  25              		.type	UART_1_backup, %object
  26              		.size	UART_1_backup, 1
  27              	UART_1_backup:
  28 0000 00       		.space	1
  29 0001 000000   		.section	.text.UART_1_Sleep,"ax",%progbits
  30              		.align	2
  31              		.global	UART_1_Sleep
  32              		.code	16
  33              		.thumb_func
  34              		.type	UART_1_Sleep, %function
  35              	UART_1_Sleep:
  36              	.LFB0:
  37              		.file 1 ".\\Generated_Source\\PSoC4\\UART_1_PM.c"
   1:.\Generated_Source\PSoC4/UART_1_PM.c **** /*******************************************************************************
   2:.\Generated_Source\PSoC4/UART_1_PM.c **** * File Name: UART_1_PM.c
   3:.\Generated_Source\PSoC4/UART_1_PM.c **** * Version 1.0
   4:.\Generated_Source\PSoC4/UART_1_PM.c **** *
   5:.\Generated_Source\PSoC4/UART_1_PM.c **** * Description:
   6:.\Generated_Source\PSoC4/UART_1_PM.c **** *  This file provides the source code to the Power Management support for
   7:.\Generated_Source\PSoC4/UART_1_PM.c **** *  the SCB Component.
   8:.\Generated_Source\PSoC4/UART_1_PM.c **** *
   9:.\Generated_Source\PSoC4/UART_1_PM.c **** * Note:
  10:.\Generated_Source\PSoC4/UART_1_PM.c **** *
  11:.\Generated_Source\PSoC4/UART_1_PM.c **** ********************************************************************************
  12:.\Generated_Source\PSoC4/UART_1_PM.c **** * Copyright 2013, Cypress Semiconductor Corporation.  All rights reserved.
  13:.\Generated_Source\PSoC4/UART_1_PM.c **** * You may use this file only in accordance with the license, terms, conditions,
  14:.\Generated_Source\PSoC4/UART_1_PM.c **** * disclaimers, and limitations in the end user license agreement accompanying
  15:.\Generated_Source\PSoC4/UART_1_PM.c **** * the software package with which this file was provided.
  16:.\Generated_Source\PSoC4/UART_1_PM.c **** *******************************************************************************/
ARM GAS  C:\Users\maxk\AppData\Local\Temp\ccRHRhWN.s 			page 2


  17:.\Generated_Source\PSoC4/UART_1_PM.c **** 
  18:.\Generated_Source\PSoC4/UART_1_PM.c **** #include "UART_1.h"
  19:.\Generated_Source\PSoC4/UART_1_PM.c **** 
  20:.\Generated_Source\PSoC4/UART_1_PM.c **** #if(UART_1_SCB_MODE_I2C_INC)
  21:.\Generated_Source\PSoC4/UART_1_PM.c ****     #include "UART_1_I2C_PVT.h"
  22:.\Generated_Source\PSoC4/UART_1_PM.c **** #endif /* (UART_1_SCB_MODE_I2C_INC) */
  23:.\Generated_Source\PSoC4/UART_1_PM.c **** 
  24:.\Generated_Source\PSoC4/UART_1_PM.c **** #if(UART_1_SCB_MODE_SPI_INC || UART_1_SCB_MODE_UART_INC)
  25:.\Generated_Source\PSoC4/UART_1_PM.c ****     #include "UART_1_SPI_UART_PVT.h"
  26:.\Generated_Source\PSoC4/UART_1_PM.c **** #endif /* (UART_1_SCB_MODE_SPI_INC || UART_1_SCB_MODE_UART_INC) */
  27:.\Generated_Source\PSoC4/UART_1_PM.c **** 
  28:.\Generated_Source\PSoC4/UART_1_PM.c **** 
  29:.\Generated_Source\PSoC4/UART_1_PM.c **** /***************************************
  30:.\Generated_Source\PSoC4/UART_1_PM.c **** *   Backup Structure declaration
  31:.\Generated_Source\PSoC4/UART_1_PM.c **** ***************************************/
  32:.\Generated_Source\PSoC4/UART_1_PM.c **** 
  33:.\Generated_Source\PSoC4/UART_1_PM.c **** UART_1_BACKUP_STRUCT UART_1_backup =
  34:.\Generated_Source\PSoC4/UART_1_PM.c **** {
  35:.\Generated_Source\PSoC4/UART_1_PM.c ****     0u, /* enableState */
  36:.\Generated_Source\PSoC4/UART_1_PM.c **** };
  37:.\Generated_Source\PSoC4/UART_1_PM.c **** 
  38:.\Generated_Source\PSoC4/UART_1_PM.c **** 
  39:.\Generated_Source\PSoC4/UART_1_PM.c **** /*******************************************************************************
  40:.\Generated_Source\PSoC4/UART_1_PM.c **** * Function Name: UART_1_Sleep
  41:.\Generated_Source\PSoC4/UART_1_PM.c **** ********************************************************************************
  42:.\Generated_Source\PSoC4/UART_1_PM.c **** *
  43:.\Generated_Source\PSoC4/UART_1_PM.c **** * Summary:
  44:.\Generated_Source\PSoC4/UART_1_PM.c **** *  Calls SaveConfig function fucntion for selected mode.
  45:.\Generated_Source\PSoC4/UART_1_PM.c **** *
  46:.\Generated_Source\PSoC4/UART_1_PM.c **** * Parameters:
  47:.\Generated_Source\PSoC4/UART_1_PM.c **** *  None
  48:.\Generated_Source\PSoC4/UART_1_PM.c **** *
  49:.\Generated_Source\PSoC4/UART_1_PM.c **** * Return:
  50:.\Generated_Source\PSoC4/UART_1_PM.c **** *  None
  51:.\Generated_Source\PSoC4/UART_1_PM.c **** *
  52:.\Generated_Source\PSoC4/UART_1_PM.c **** *******************************************************************************/
  53:.\Generated_Source\PSoC4/UART_1_PM.c **** void UART_1_Sleep(void)
  54:.\Generated_Source\PSoC4/UART_1_PM.c **** {
  38              		.loc 1 54 0
  39              		.cfi_startproc
  40 0000 80B5     		push	{r7, lr}
  41              	.LCFI0:
  42              		.cfi_def_cfa_offset 8
  43              		.cfi_offset 7, -8
  44              		.cfi_offset 14, -4
  45 0002 00AF     		add	r7, sp, #0
  46              	.LCFI1:
  47              		.cfi_def_cfa_register 7
  55:.\Generated_Source\PSoC4/UART_1_PM.c ****     UART_1_backup.enableState = (uint8) UART_1_GET_CTRL_ENABLED;
  48              		.loc 1 55 0
  49 0004 074B     		ldr	r3, .L4
  50 0006 1B68     		ldr	r3, [r3]
  51 0008 DA0F     		lsr	r2, r3, #31
  52 000a 074B     		ldr	r3, .L4+4
  53 000c 1A70     		strb	r2, [r3]
  56:.\Generated_Source\PSoC4/UART_1_PM.c **** 
  57:.\Generated_Source\PSoC4/UART_1_PM.c ****     #if(UART_1_SCB_MODE_UNCONFIG_CONST_CFG)
ARM GAS  C:\Users\maxk\AppData\Local\Temp\ccRHRhWN.s 			page 3


  58:.\Generated_Source\PSoC4/UART_1_PM.c **** 
  59:.\Generated_Source\PSoC4/UART_1_PM.c ****         if(UART_1_SCB_MODE_I2C_RUNTM_CFG)
  60:.\Generated_Source\PSoC4/UART_1_PM.c ****         {
  61:.\Generated_Source\PSoC4/UART_1_PM.c ****             UART_1_I2CSaveConfig();
  62:.\Generated_Source\PSoC4/UART_1_PM.c ****         }
  63:.\Generated_Source\PSoC4/UART_1_PM.c ****         else if(UART_1_SCB_MODE_SPI_RUNTM_CFG)
  64:.\Generated_Source\PSoC4/UART_1_PM.c ****         {
  65:.\Generated_Source\PSoC4/UART_1_PM.c ****             UART_1_SpiSaveConfig();
  66:.\Generated_Source\PSoC4/UART_1_PM.c ****         }
  67:.\Generated_Source\PSoC4/UART_1_PM.c ****         else if(UART_1_SCB_MODE_UART_RUNTM_CFG)
  68:.\Generated_Source\PSoC4/UART_1_PM.c ****         {
  69:.\Generated_Source\PSoC4/UART_1_PM.c ****             UART_1_UartSaveConfig();
  70:.\Generated_Source\PSoC4/UART_1_PM.c ****         }
  71:.\Generated_Source\PSoC4/UART_1_PM.c ****         else
  72:.\Generated_Source\PSoC4/UART_1_PM.c ****         {
  73:.\Generated_Source\PSoC4/UART_1_PM.c ****             /* Unknown mode: do nothing */
  74:.\Generated_Source\PSoC4/UART_1_PM.c ****         }
  75:.\Generated_Source\PSoC4/UART_1_PM.c **** 
  76:.\Generated_Source\PSoC4/UART_1_PM.c ****     #elif(UART_1_SCB_MODE_I2C_CONST_CFG)
  77:.\Generated_Source\PSoC4/UART_1_PM.c ****         UART_1_I2CSaveConfig();
  78:.\Generated_Source\PSoC4/UART_1_PM.c **** 
  79:.\Generated_Source\PSoC4/UART_1_PM.c ****     #elif(UART_1_SCB_MODE_SPI_CONST_CFG)
  80:.\Generated_Source\PSoC4/UART_1_PM.c ****         UART_1_SpiSaveConfig();
  81:.\Generated_Source\PSoC4/UART_1_PM.c **** 
  82:.\Generated_Source\PSoC4/UART_1_PM.c ****     #elif(UART_1_SCB_MODE_UART_CONST_CFG)
  83:.\Generated_Source\PSoC4/UART_1_PM.c ****         UART_1_UartSaveConfig();
  54              		.loc 1 83 0
  55 000e FFF7FEFF 		bl	UART_1_UartSaveConfig
  84:.\Generated_Source\PSoC4/UART_1_PM.c **** 
  85:.\Generated_Source\PSoC4/UART_1_PM.c ****     #else
  86:.\Generated_Source\PSoC4/UART_1_PM.c ****         /* Do nothing */
  87:.\Generated_Source\PSoC4/UART_1_PM.c **** 
  88:.\Generated_Source\PSoC4/UART_1_PM.c ****     #endif /* (UART_1_SCB_MODE_UNCONFIG_CONST_CFG) */
  89:.\Generated_Source\PSoC4/UART_1_PM.c **** 
  90:.\Generated_Source\PSoC4/UART_1_PM.c ****     if(0u != UART_1_backup.enableState)
  56              		.loc 1 90 0
  57 0012 054B     		ldr	r3, .L4+4
  58 0014 1B78     		ldrb	r3, [r3]
  59 0016 002B     		cmp	r3, #0
  60 0018 01D0     		beq	.L3
  91:.\Generated_Source\PSoC4/UART_1_PM.c ****     {
  92:.\Generated_Source\PSoC4/UART_1_PM.c ****         UART_1_Stop();
  61              		.loc 1 92 0
  62 001a FFF7FEFF 		bl	UART_1_Stop
  63              	.L3:
  93:.\Generated_Source\PSoC4/UART_1_PM.c ****     }
  94:.\Generated_Source\PSoC4/UART_1_PM.c **** }
  64              		.loc 1 94 0
  65 001e BD46     		mov	sp, r7
  66              		@ sp needed for prologue
  67 0020 80BD     		pop	{r7, pc}
  68              	.L5:
  69 0022 C046     		.align	2
  70              	.L4:
  71 0024 00000640 		.word	1074135040
  72 0028 00000000 		.word	UART_1_backup
  73              		.cfi_endproc
ARM GAS  C:\Users\maxk\AppData\Local\Temp\ccRHRhWN.s 			page 4


  74              	.LFE0:
  75              		.size	UART_1_Sleep, .-UART_1_Sleep
  76              		.section	.text.UART_1_Wakeup,"ax",%progbits
  77              		.align	2
  78              		.global	UART_1_Wakeup
  79              		.code	16
  80              		.thumb_func
  81              		.type	UART_1_Wakeup, %function
  82              	UART_1_Wakeup:
  83              	.LFB1:
  95:.\Generated_Source\PSoC4/UART_1_PM.c **** 
  96:.\Generated_Source\PSoC4/UART_1_PM.c **** 
  97:.\Generated_Source\PSoC4/UART_1_PM.c **** /*******************************************************************************
  98:.\Generated_Source\PSoC4/UART_1_PM.c **** * Function Name: UART_1_Wakeup
  99:.\Generated_Source\PSoC4/UART_1_PM.c **** ********************************************************************************
 100:.\Generated_Source\PSoC4/UART_1_PM.c **** *
 101:.\Generated_Source\PSoC4/UART_1_PM.c **** * Summary:
 102:.\Generated_Source\PSoC4/UART_1_PM.c **** *  Calls RestoreConfig function fucntion for selected mode.
 103:.\Generated_Source\PSoC4/UART_1_PM.c **** *
 104:.\Generated_Source\PSoC4/UART_1_PM.c **** * Parameters:
 105:.\Generated_Source\PSoC4/UART_1_PM.c **** *  None
 106:.\Generated_Source\PSoC4/UART_1_PM.c **** *
 107:.\Generated_Source\PSoC4/UART_1_PM.c **** * Return:
 108:.\Generated_Source\PSoC4/UART_1_PM.c **** *  None
 109:.\Generated_Source\PSoC4/UART_1_PM.c **** *
 110:.\Generated_Source\PSoC4/UART_1_PM.c **** *******************************************************************************/
 111:.\Generated_Source\PSoC4/UART_1_PM.c **** void UART_1_Wakeup(void)
 112:.\Generated_Source\PSoC4/UART_1_PM.c **** {
  84              		.loc 1 112 0
  85              		.cfi_startproc
  86 0000 80B5     		push	{r7, lr}
  87              	.LCFI2:
  88              		.cfi_def_cfa_offset 8
  89              		.cfi_offset 7, -8
  90              		.cfi_offset 14, -4
  91 0002 00AF     		add	r7, sp, #0
  92              	.LCFI3:
  93              		.cfi_def_cfa_register 7
 113:.\Generated_Source\PSoC4/UART_1_PM.c ****     #if(UART_1_SCB_MODE_UNCONFIG_CONST_CFG)
 114:.\Generated_Source\PSoC4/UART_1_PM.c **** 
 115:.\Generated_Source\PSoC4/UART_1_PM.c ****         if(UART_1_SCB_MODE_I2C_RUNTM_CFG)
 116:.\Generated_Source\PSoC4/UART_1_PM.c ****         {
 117:.\Generated_Source\PSoC4/UART_1_PM.c ****             UART_1_I2CRestoreConfig();
 118:.\Generated_Source\PSoC4/UART_1_PM.c ****         }
 119:.\Generated_Source\PSoC4/UART_1_PM.c ****         else if(UART_1_SCB_MODE_SPI_RUNTM_CFG)
 120:.\Generated_Source\PSoC4/UART_1_PM.c ****         {
 121:.\Generated_Source\PSoC4/UART_1_PM.c ****             UART_1_SpiRestoreConfig();
 122:.\Generated_Source\PSoC4/UART_1_PM.c ****         }
 123:.\Generated_Source\PSoC4/UART_1_PM.c ****         else if(UART_1_SCB_MODE_UART_RUNTM_CFG)
 124:.\Generated_Source\PSoC4/UART_1_PM.c ****         {
 125:.\Generated_Source\PSoC4/UART_1_PM.c ****             UART_1_UartRestoreConfig();
 126:.\Generated_Source\PSoC4/UART_1_PM.c ****         }
 127:.\Generated_Source\PSoC4/UART_1_PM.c ****         else
 128:.\Generated_Source\PSoC4/UART_1_PM.c ****         {
 129:.\Generated_Source\PSoC4/UART_1_PM.c ****             /* Unknown mode: do nothing */
 130:.\Generated_Source\PSoC4/UART_1_PM.c ****         }
 131:.\Generated_Source\PSoC4/UART_1_PM.c **** 
ARM GAS  C:\Users\maxk\AppData\Local\Temp\ccRHRhWN.s 			page 5


 132:.\Generated_Source\PSoC4/UART_1_PM.c ****     #elif(UART_1_SCB_MODE_I2C_CONST_CFG)
 133:.\Generated_Source\PSoC4/UART_1_PM.c ****         UART_1_I2CRestoreConfig();
 134:.\Generated_Source\PSoC4/UART_1_PM.c **** 
 135:.\Generated_Source\PSoC4/UART_1_PM.c ****     #elif(UART_1_SCB_MODE_SPI_CONST_CFG)
 136:.\Generated_Source\PSoC4/UART_1_PM.c ****         UART_1_SpiRestoreConfig();
 137:.\Generated_Source\PSoC4/UART_1_PM.c **** 
 138:.\Generated_Source\PSoC4/UART_1_PM.c ****     #elif(UART_1_SCB_MODE_UART_CONST_CFG)
 139:.\Generated_Source\PSoC4/UART_1_PM.c ****         UART_1_UartRestoreConfig();
  94              		.loc 1 139 0
  95 0004 FFF7FEFF 		bl	UART_1_UartRestoreConfig
 140:.\Generated_Source\PSoC4/UART_1_PM.c **** 
 141:.\Generated_Source\PSoC4/UART_1_PM.c ****     #else
 142:.\Generated_Source\PSoC4/UART_1_PM.c ****         /* Do nothing */
 143:.\Generated_Source\PSoC4/UART_1_PM.c **** 
 144:.\Generated_Source\PSoC4/UART_1_PM.c ****     #endif /* (UART_1_SCB_MODE_UNCONFIG_CONST_CFG) */
 145:.\Generated_Source\PSoC4/UART_1_PM.c **** 
 146:.\Generated_Source\PSoC4/UART_1_PM.c ****     if(0u != UART_1_backup.enableState)
  96              		.loc 1 146 0
  97 0008 034B     		ldr	r3, .L9
  98 000a 1B78     		ldrb	r3, [r3]
  99 000c 002B     		cmp	r3, #0
 100 000e 01D0     		beq	.L8
 147:.\Generated_Source\PSoC4/UART_1_PM.c ****     {
 148:.\Generated_Source\PSoC4/UART_1_PM.c ****         UART_1_Enable();
 101              		.loc 1 148 0
 102 0010 FFF7FEFF 		bl	UART_1_Enable
 103              	.L8:
 149:.\Generated_Source\PSoC4/UART_1_PM.c ****     }
 150:.\Generated_Source\PSoC4/UART_1_PM.c **** }
 104              		.loc 1 150 0
 105 0014 BD46     		mov	sp, r7
 106              		@ sp needed for prologue
 107 0016 80BD     		pop	{r7, pc}
 108              	.L10:
 109              		.align	2
 110              	.L9:
 111 0018 00000000 		.word	UART_1_backup
 112              		.cfi_endproc
 113              	.LFE1:
 114              		.size	UART_1_Wakeup, .-UART_1_Wakeup
 115              		.text
 116              	.Letext0: