ARM GAS  C:\Users\maxk\AppData\Local\Temp\ccnCL18t.s 			page 1


   1              		.cpu cortex-m0
   2              		.fpu softvfp
   3              		.eabi_attribute 20, 1
   4              		.eabi_attribute 21, 1
   5              		.eabi_attribute 23, 3
   6              		.eabi_attribute 24, 1
   7              		.eabi_attribute 25, 1
   8              		.eabi_attribute 26, 1
   9              		.eabi_attribute 30, 6
  10              		.eabi_attribute 18, 4
  11              		.code	16
  12              		.file	"UART_1.c"
  19 0000 D8000000 		.text
  19      02005F00 
  19      00000201 
  19      FB0E0D00 
  19      01010101 
  20              	.Ltext0:
  21              		.cfi_sections	.debug_frame
  22              		.global	UART_1_initVar
  23              		.bss
  24              		.type	UART_1_initVar, %object
  25              		.size	UART_1_initVar, 1
  26              	UART_1_initVar:
  27 0000 00       		.space	1
  28              		.global	UART_1_customIntrHandler
  29 0001 000000   		.align	2
  30              		.type	UART_1_customIntrHandler, %object
  31              		.size	UART_1_customIntrHandler, 4
  32              	UART_1_customIntrHandler:
  33 0004 00000000 		.space	4
  34              		.section	.text.UART_1_Init,"ax",%progbits
  35              		.align	2
  36              		.global	UART_1_Init
  37              		.code	16
  38              		.thumb_func
  39              		.type	UART_1_Init, %function
  40              	UART_1_Init:
  41              	.LFB0:
  42              		.file 1 ".\\Generated_Source\\PSoC4\\UART_1.c"
   1:.\Generated_Source\PSoC4/UART_1.c **** /*******************************************************************************
   2:.\Generated_Source\PSoC4/UART_1.c **** * File Name: UART_1.c
   3:.\Generated_Source\PSoC4/UART_1.c **** * Version 1.0
   4:.\Generated_Source\PSoC4/UART_1.c **** *
   5:.\Generated_Source\PSoC4/UART_1.c **** * Description:
   6:.\Generated_Source\PSoC4/UART_1.c **** *  This file provides the source code to the API for the SCB Component.
   7:.\Generated_Source\PSoC4/UART_1.c **** *
   8:.\Generated_Source\PSoC4/UART_1.c **** * Note:
   9:.\Generated_Source\PSoC4/UART_1.c **** *
  10:.\Generated_Source\PSoC4/UART_1.c **** *******************************************************************************
  11:.\Generated_Source\PSoC4/UART_1.c **** * Copyright 2013, Cypress Semiconductor Corporation.  All rights reserved.
ARM GAS  C:\Users\maxk\AppData\Local\Temp\ccnCL18t.s 			page 2


  12:.\Generated_Source\PSoC4/UART_1.c **** * You may use this file only in accordance with the license, terms, conditions,
  13:.\Generated_Source\PSoC4/UART_1.c **** * disclaimers, and limitations in the end user license agreement accompanying
  14:.\Generated_Source\PSoC4/UART_1.c **** * the software package with which this file was provided.
  15:.\Generated_Source\PSoC4/UART_1.c **** *******************************************************************************/
  16:.\Generated_Source\PSoC4/UART_1.c **** 
  17:.\Generated_Source\PSoC4/UART_1.c **** #include "UART_1_PVT.h"
  18:.\Generated_Source\PSoC4/UART_1.c **** 
  19:.\Generated_Source\PSoC4/UART_1.c **** #if(UART_1_SCB_MODE_I2C_INC)
  20:.\Generated_Source\PSoC4/UART_1.c ****     #include "UART_1_I2C_PVT.h"
  21:.\Generated_Source\PSoC4/UART_1.c **** #endif /* (UART_1_SCB_MODE_I2C_INC) */
  22:.\Generated_Source\PSoC4/UART_1.c **** 
  23:.\Generated_Source\PSoC4/UART_1.c **** #if(UART_1_SCB_MODE_SPI_INC || UART_1_SCB_MODE_UART_INC)
  24:.\Generated_Source\PSoC4/UART_1.c ****     #include "UART_1_SPI_UART_PVT.h"
  25:.\Generated_Source\PSoC4/UART_1.c **** #endif /* (UART_1_SCB_MODE_SPI_INC || UART_1_SCB_MODE_UART_INC) */
  26:.\Generated_Source\PSoC4/UART_1.c **** 
  27:.\Generated_Source\PSoC4/UART_1.c **** 
  28:.\Generated_Source\PSoC4/UART_1.c **** /**********************************
  29:.\Generated_Source\PSoC4/UART_1.c **** *    Run Time Configuration Vars
  30:.\Generated_Source\PSoC4/UART_1.c **** **********************************/
  31:.\Generated_Source\PSoC4/UART_1.c **** 
  32:.\Generated_Source\PSoC4/UART_1.c **** /* Stores internal component configuration for unconfigured mode */
  33:.\Generated_Source\PSoC4/UART_1.c **** #if(UART_1_SCB_MODE_UNCONFIG_CONST_CFG)
  34:.\Generated_Source\PSoC4/UART_1.c ****     /* Common config vars */
  35:.\Generated_Source\PSoC4/UART_1.c ****     volatile uint8 UART_1_scbMode = UART_1_SCB_MODE_UNCONFIG;
  36:.\Generated_Source\PSoC4/UART_1.c ****     volatile uint8 UART_1_scbEnableWake;
  37:.\Generated_Source\PSoC4/UART_1.c **** 
  38:.\Generated_Source\PSoC4/UART_1.c ****     /* I2C config vars */
  39:.\Generated_Source\PSoC4/UART_1.c ****     volatile uint8 UART_1_mode;
  40:.\Generated_Source\PSoC4/UART_1.c ****     volatile uint8 UART_1_acceptAddr;
  41:.\Generated_Source\PSoC4/UART_1.c **** 
  42:.\Generated_Source\PSoC4/UART_1.c ****     /* SPI/UART config vars */
  43:.\Generated_Source\PSoC4/UART_1.c ****     volatile uint8 * UART_1_rxBuffer;
  44:.\Generated_Source\PSoC4/UART_1.c ****     volatile uint8   UART_1_rxDataBits;
  45:.\Generated_Source\PSoC4/UART_1.c ****     volatile uint32  UART_1_rxBufferSize;
  46:.\Generated_Source\PSoC4/UART_1.c **** 
  47:.\Generated_Source\PSoC4/UART_1.c ****     volatile uint8 * UART_1_txBuffer;
  48:.\Generated_Source\PSoC4/UART_1.c ****     volatile uint8   UART_1_txDataBits;
  49:.\Generated_Source\PSoC4/UART_1.c ****     volatile uint32  UART_1_txBufferSize;
  50:.\Generated_Source\PSoC4/UART_1.c **** 
  51:.\Generated_Source\PSoC4/UART_1.c **** #endif /* (UART_1_SCB_MODE_UNCONFIG_CONST_CFG) */
  52:.\Generated_Source\PSoC4/UART_1.c **** 
  53:.\Generated_Source\PSoC4/UART_1.c **** 
  54:.\Generated_Source\PSoC4/UART_1.c **** /**********************************
  55:.\Generated_Source\PSoC4/UART_1.c **** *     Common SCB Vars
  56:.\Generated_Source\PSoC4/UART_1.c **** **********************************/
  57:.\Generated_Source\PSoC4/UART_1.c **** 
  58:.\Generated_Source\PSoC4/UART_1.c **** uint8 UART_1_initVar = 0u;
  59:.\Generated_Source\PSoC4/UART_1.c **** cyisraddress UART_1_customIntrHandler = NULL;
  60:.\Generated_Source\PSoC4/UART_1.c **** 
  61:.\Generated_Source\PSoC4/UART_1.c **** 
  62:.\Generated_Source\PSoC4/UART_1.c **** /***************************************
  63:.\Generated_Source\PSoC4/UART_1.c **** *    Private Function Prototypes
  64:.\Generated_Source\PSoC4/UART_1.c **** ***************************************/
  65:.\Generated_Source\PSoC4/UART_1.c **** 
  66:.\Generated_Source\PSoC4/UART_1.c **** static void UART_1_ScbModeStop(void);
  67:.\Generated_Source\PSoC4/UART_1.c **** 
  68:.\Generated_Source\PSoC4/UART_1.c **** 
ARM GAS  C:\Users\maxk\AppData\Local\Temp\ccnCL18t.s 			page 3


  69:.\Generated_Source\PSoC4/UART_1.c **** /*******************************************************************************
  70:.\Generated_Source\PSoC4/UART_1.c **** * Function Name: UART_1_Init
  71:.\Generated_Source\PSoC4/UART_1.c **** ********************************************************************************
  72:.\Generated_Source\PSoC4/UART_1.c **** *
  73:.\Generated_Source\PSoC4/UART_1.c **** * Summary:
  74:.\Generated_Source\PSoC4/UART_1.c **** *  Initializes SCB component to operate in one of selected configurations:
  75:.\Generated_Source\PSoC4/UART_1.c **** *  I2C, SPI, UART, EZI2C or EZSPI.
  76:.\Generated_Source\PSoC4/UART_1.c **** *  This function does not do any initialization when configuration is set to
  77:.\Generated_Source\PSoC4/UART_1.c **** *  Unconfigured SCB.
  78:.\Generated_Source\PSoC4/UART_1.c **** *
  79:.\Generated_Source\PSoC4/UART_1.c **** * Parameters:
  80:.\Generated_Source\PSoC4/UART_1.c **** *  None
  81:.\Generated_Source\PSoC4/UART_1.c **** *
  82:.\Generated_Source\PSoC4/UART_1.c **** * Return:
  83:.\Generated_Source\PSoC4/UART_1.c **** *  None
  84:.\Generated_Source\PSoC4/UART_1.c **** *
  85:.\Generated_Source\PSoC4/UART_1.c **** *******************************************************************************/
  86:.\Generated_Source\PSoC4/UART_1.c **** void UART_1_Init(void)
  87:.\Generated_Source\PSoC4/UART_1.c **** {
  43              		.loc 1 87 0
  44              		.cfi_startproc
  45 0000 80B5     		push	{r7, lr}
  46              	.LCFI0:
  47              		.cfi_def_cfa_offset 8
  48              		.cfi_offset 7, -8
  49              		.cfi_offset 14, -4
  50 0002 00AF     		add	r7, sp, #0
  51              	.LCFI1:
  52              		.cfi_def_cfa_register 7
  88:.\Generated_Source\PSoC4/UART_1.c ****     #if(UART_1_SCB_MODE_UNCONFIG_CONST_CFG)
  89:.\Generated_Source\PSoC4/UART_1.c ****         if(UART_1_SCB_MODE_UNCONFIG_RUNTM_CFG)
  90:.\Generated_Source\PSoC4/UART_1.c ****         {
  91:.\Generated_Source\PSoC4/UART_1.c ****             UART_1_initVar = 0u; /* Clear init var */
  92:.\Generated_Source\PSoC4/UART_1.c ****         }
  93:.\Generated_Source\PSoC4/UART_1.c ****         else
  94:.\Generated_Source\PSoC4/UART_1.c ****         {
  95:.\Generated_Source\PSoC4/UART_1.c ****             /* Initialization was done before call */
  96:.\Generated_Source\PSoC4/UART_1.c ****         }
  97:.\Generated_Source\PSoC4/UART_1.c **** 
  98:.\Generated_Source\PSoC4/UART_1.c ****     #elif(UART_1_SCB_MODE_I2C_CONST_CFG)
  99:.\Generated_Source\PSoC4/UART_1.c ****         UART_1_I2CInit();
 100:.\Generated_Source\PSoC4/UART_1.c **** 
 101:.\Generated_Source\PSoC4/UART_1.c ****     #elif(UART_1_SCB_MODE_SPI_CONST_CFG)
 102:.\Generated_Source\PSoC4/UART_1.c ****         UART_1_SpiInit();
 103:.\Generated_Source\PSoC4/UART_1.c **** 
 104:.\Generated_Source\PSoC4/UART_1.c ****     #elif(UART_1_SCB_MODE_UART_CONST_CFG)
 105:.\Generated_Source\PSoC4/UART_1.c ****         UART_1_UartInit();
  53              		.loc 1 105 0
  54 0004 FFF7FEFF 		bl	UART_1_UartInit
 106:.\Generated_Source\PSoC4/UART_1.c **** 
 107:.\Generated_Source\PSoC4/UART_1.c ****     #else
 108:.\Generated_Source\PSoC4/UART_1.c **** 
 109:.\Generated_Source\PSoC4/UART_1.c ****     #endif /* (UART_1_SCB_MODE_UNCONFIG_CONST_CFG) */
 110:.\Generated_Source\PSoC4/UART_1.c **** }
  55              		.loc 1 110 0
  56 0008 BD46     		mov	sp, r7
  57              		@ sp needed for prologue
ARM GAS  C:\Users\maxk\AppData\Local\Temp\ccnCL18t.s 			page 4


  58 000a 80BD     		pop	{r7, pc}
  59              		.cfi_endproc
  60              	.LFE0:
  61              		.size	UART_1_Init, .-UART_1_Init
  62              		.section	.text.UART_1_Enable,"ax",%progbits
  63              		.align	2
  64              		.global	UART_1_Enable
  65              		.code	16
  66              		.thumb_func
  67              		.type	UART_1_Enable, %function
  68              	UART_1_Enable:
  69              	.LFB1:
 111:.\Generated_Source\PSoC4/UART_1.c **** 
 112:.\Generated_Source\PSoC4/UART_1.c **** 
 113:.\Generated_Source\PSoC4/UART_1.c **** /*******************************************************************************
 114:.\Generated_Source\PSoC4/UART_1.c **** * Function Name: UART_1_Enable
 115:.\Generated_Source\PSoC4/UART_1.c **** ********************************************************************************
 116:.\Generated_Source\PSoC4/UART_1.c **** *
 117:.\Generated_Source\PSoC4/UART_1.c **** * Summary:
 118:.\Generated_Source\PSoC4/UART_1.c **** *  Enables SCB component operation.
 119:.\Generated_Source\PSoC4/UART_1.c **** *  The SCB configuration should be not changed when the component is enabled.
 120:.\Generated_Source\PSoC4/UART_1.c **** *  Any configuration changes should be made after disabling the component.
 121:.\Generated_Source\PSoC4/UART_1.c **** *
 122:.\Generated_Source\PSoC4/UART_1.c **** * Parameters:
 123:.\Generated_Source\PSoC4/UART_1.c **** *  None
 124:.\Generated_Source\PSoC4/UART_1.c **** *
 125:.\Generated_Source\PSoC4/UART_1.c **** * Return:
 126:.\Generated_Source\PSoC4/UART_1.c **** *  None
 127:.\Generated_Source\PSoC4/UART_1.c **** *
 128:.\Generated_Source\PSoC4/UART_1.c **** *******************************************************************************/
 129:.\Generated_Source\PSoC4/UART_1.c **** void UART_1_Enable(void)
 130:.\Generated_Source\PSoC4/UART_1.c **** {
  70              		.loc 1 130 0
  71              		.cfi_startproc
  72 0000 80B5     		push	{r7, lr}
  73              	.LCFI2:
  74              		.cfi_def_cfa_offset 8
  75              		.cfi_offset 7, -8
  76              		.cfi_offset 14, -4
  77 0002 00AF     		add	r7, sp, #0
  78              	.LCFI3:
  79              		.cfi_def_cfa_register 7
 131:.\Generated_Source\PSoC4/UART_1.c ****     #if(UART_1_SCB_MODE_UNCONFIG_CONST_CFG)
 132:.\Generated_Source\PSoC4/UART_1.c ****         if(!UART_1_SCB_MODE_UNCONFIG_RUNTM_CFG)
 133:.\Generated_Source\PSoC4/UART_1.c ****         {
 134:.\Generated_Source\PSoC4/UART_1.c ****             /* Enable SCB block, only if already configured */
 135:.\Generated_Source\PSoC4/UART_1.c ****             UART_1_CTRL_REG |= UART_1_CTRL_ENABLED;
 136:.\Generated_Source\PSoC4/UART_1.c ****         }
 137:.\Generated_Source\PSoC4/UART_1.c ****     #else
 138:.\Generated_Source\PSoC4/UART_1.c ****         UART_1_CTRL_REG |= UART_1_CTRL_ENABLED; /* Enable SCB block */
  80              		.loc 1 138 0
  81 0004 044A     		ldr	r2, .L5
  82 0006 044B     		ldr	r3, .L5
  83 0008 1968     		ldr	r1, [r3]
  84 000a 8023     		mov	r3, #128
  85 000c 1B06     		lsl	r3, r3, #24
  86 000e 0B43     		orr	r3, r3, r1
ARM GAS  C:\Users\maxk\AppData\Local\Temp\ccnCL18t.s 			page 5


  87 0010 1360     		str	r3, [r2]
 139:.\Generated_Source\PSoC4/UART_1.c ****     #endif /* (UART_1_SCB_MODE_UNCONFIG_CONST_CFG) */
 140:.\Generated_Source\PSoC4/UART_1.c **** }
  88              		.loc 1 140 0
  89 0012 BD46     		mov	sp, r7
  90              		@ sp needed for prologue
  91 0014 80BD     		pop	{r7, pc}
  92              	.L6:
  93 0016 C046     		.align	2
  94              	.L5:
  95 0018 00000640 		.word	1074135040
  96              		.cfi_endproc
  97              	.LFE1:
  98              		.size	UART_1_Enable, .-UART_1_Enable
  99              		.section	.text.UART_1_Start,"ax",%progbits
 100              		.align	2
 101              		.global	UART_1_Start
 102              		.code	16
 103              		.thumb_func
 104              		.type	UART_1_Start, %function
 105              	UART_1_Start:
 106              	.LFB2:
 141:.\Generated_Source\PSoC4/UART_1.c **** 
 142:.\Generated_Source\PSoC4/UART_1.c **** 
 143:.\Generated_Source\PSoC4/UART_1.c **** /*******************************************************************************
 144:.\Generated_Source\PSoC4/UART_1.c **** * Function Name: UART_1_Start
 145:.\Generated_Source\PSoC4/UART_1.c **** ********************************************************************************
 146:.\Generated_Source\PSoC4/UART_1.c **** *
 147:.\Generated_Source\PSoC4/UART_1.c **** * Summary:
 148:.\Generated_Source\PSoC4/UART_1.c **** *  Invokes SCB_Init() and SCB_Enable().
 149:.\Generated_Source\PSoC4/UART_1.c **** *  After this function call the component is enabled and ready for operation.
 150:.\Generated_Source\PSoC4/UART_1.c **** *
 151:.\Generated_Source\PSoC4/UART_1.c **** * Parameters:
 152:.\Generated_Source\PSoC4/UART_1.c **** *  None
 153:.\Generated_Source\PSoC4/UART_1.c **** *
 154:.\Generated_Source\PSoC4/UART_1.c **** * Return:
 155:.\Generated_Source\PSoC4/UART_1.c **** *  None
 156:.\Generated_Source\PSoC4/UART_1.c **** *
 157:.\Generated_Source\PSoC4/UART_1.c **** * Global variables:
 158:.\Generated_Source\PSoC4/UART_1.c **** *  UART_1_initVar - used to check initial configuration, modified
 159:.\Generated_Source\PSoC4/UART_1.c **** *  on first function call.
 160:.\Generated_Source\PSoC4/UART_1.c **** *
 161:.\Generated_Source\PSoC4/UART_1.c **** *******************************************************************************/
 162:.\Generated_Source\PSoC4/UART_1.c **** void UART_1_Start(void)
 163:.\Generated_Source\PSoC4/UART_1.c **** {
 107              		.loc 1 163 0
 108              		.cfi_startproc
 109 0000 80B5     		push	{r7, lr}
 110              	.LCFI4:
 111              		.cfi_def_cfa_offset 8
 112              		.cfi_offset 7, -8
 113              		.cfi_offset 14, -4
 114 0002 00AF     		add	r7, sp, #0
 115              	.LCFI5:
 116              		.cfi_def_cfa_register 7
 164:.\Generated_Source\PSoC4/UART_1.c ****     if(0u == UART_1_initVar)
 117              		.loc 1 164 0
ARM GAS  C:\Users\maxk\AppData\Local\Temp\ccnCL18t.s 			page 6


 118 0004 064B     		ldr	r3, .L10
 119 0006 1B78     		ldrb	r3, [r3]
 120 0008 002B     		cmp	r3, #0
 121 000a 04D1     		bne	.L8
 165:.\Generated_Source\PSoC4/UART_1.c ****     {
 166:.\Generated_Source\PSoC4/UART_1.c ****         UART_1_initVar = 1u; /* Component was initialized */
 122              		.loc 1 166 0
 123 000c 044B     		ldr	r3, .L10
 124 000e 0122     		mov	r2, #1
 125 0010 1A70     		strb	r2, [r3]
 167:.\Generated_Source\PSoC4/UART_1.c ****         UART_1_Init();       /* Initialize component      */
 126              		.loc 1 167 0
 127 0012 FFF7FEFF 		bl	UART_1_Init
 128              	.L8:
 168:.\Generated_Source\PSoC4/UART_1.c ****     }
 169:.\Generated_Source\PSoC4/UART_1.c **** 
 170:.\Generated_Source\PSoC4/UART_1.c ****     UART_1_Enable();
 129              		.loc 1 170 0
 130 0016 FFF7FEFF 		bl	UART_1_Enable
 171:.\Generated_Source\PSoC4/UART_1.c **** }
 131              		.loc 1 171 0
 132 001a BD46     		mov	sp, r7
 133              		@ sp needed for prologue
 134 001c 80BD     		pop	{r7, pc}
 135              	.L11:
 136 001e C046     		.align	2
 137              	.L10:
 138 0020 00000000 		.word	UART_1_initVar
 139              		.cfi_endproc
 140              	.LFE2:
 141              		.size	UART_1_Start, .-UART_1_Start
 142              		.section	.text.UART_1_Stop,"ax",%progbits
 143              		.align	2
 144              		.global	UART_1_Stop
 145              		.code	16
 146              		.thumb_func
 147              		.type	UART_1_Stop, %function
 148              	UART_1_Stop:
 149              	.LFB3:
 172:.\Generated_Source\PSoC4/UART_1.c **** 
 173:.\Generated_Source\PSoC4/UART_1.c **** 
 174:.\Generated_Source\PSoC4/UART_1.c **** /*******************************************************************************
 175:.\Generated_Source\PSoC4/UART_1.c **** * Function Name: UART_1_Stop
 176:.\Generated_Source\PSoC4/UART_1.c **** ********************************************************************************
 177:.\Generated_Source\PSoC4/UART_1.c **** *
 178:.\Generated_Source\PSoC4/UART_1.c **** * Summary:
 179:.\Generated_Source\PSoC4/UART_1.c **** *  Disables the SCB component.
 180:.\Generated_Source\PSoC4/UART_1.c **** *
 181:.\Generated_Source\PSoC4/UART_1.c **** * Parameters:
 182:.\Generated_Source\PSoC4/UART_1.c **** *  None
 183:.\Generated_Source\PSoC4/UART_1.c **** *
 184:.\Generated_Source\PSoC4/UART_1.c **** * Return:
 185:.\Generated_Source\PSoC4/UART_1.c **** *  None
 186:.\Generated_Source\PSoC4/UART_1.c **** *
 187:.\Generated_Source\PSoC4/UART_1.c **** *******************************************************************************/
 188:.\Generated_Source\PSoC4/UART_1.c **** void UART_1_Stop(void)
 189:.\Generated_Source\PSoC4/UART_1.c **** {
ARM GAS  C:\Users\maxk\AppData\Local\Temp\ccnCL18t.s 			page 7


 150              		.loc 1 189 0
 151              		.cfi_startproc
 152 0000 80B5     		push	{r7, lr}
 153              	.LCFI6:
 154              		.cfi_def_cfa_offset 8
 155              		.cfi_offset 7, -8
 156              		.cfi_offset 14, -4
 157 0002 00AF     		add	r7, sp, #0
 158              	.LCFI7:
 159              		.cfi_def_cfa_register 7
 190:.\Generated_Source\PSoC4/UART_1.c ****     UART_1_CTRL_REG &= (uint32) ~UART_1_CTRL_ENABLED;  /* Disable SCB block */
 160              		.loc 1 190 0
 161 0004 044B     		ldr	r3, .L14
 162 0006 044A     		ldr	r2, .L14
 163 0008 1268     		ldr	r2, [r2]
 164 000a 5200     		lsl	r2, r2, #1
 165 000c 5208     		lsr	r2, r2, #1
 166 000e 1A60     		str	r2, [r3]
 191:.\Generated_Source\PSoC4/UART_1.c **** 
 192:.\Generated_Source\PSoC4/UART_1.c ****     #if(UART_1_SCB_IRQ_INTERNAL)
 193:.\Generated_Source\PSoC4/UART_1.c ****         UART_1_SCB_IRQ_ClearPending(); /* Clear pending interrupt */
 194:.\Generated_Source\PSoC4/UART_1.c ****     #endif /* (UART_1_SCB_IRQ_INTERNAL) */
 195:.\Generated_Source\PSoC4/UART_1.c **** 
 196:.\Generated_Source\PSoC4/UART_1.c ****     UART_1_ScbModeStop(); /* Calls scbMode specific Stop function */
 167              		.loc 1 196 0
 168 0010 FFF7FEFF 		bl	UART_1_ScbModeStop
 197:.\Generated_Source\PSoC4/UART_1.c **** }
 169              		.loc 1 197 0
 170 0014 BD46     		mov	sp, r7
 171              		@ sp needed for prologue
 172 0016 80BD     		pop	{r7, pc}
 173              	.L15:
 174              		.align	2
 175              	.L14:
 176 0018 00000640 		.word	1074135040
 177              		.cfi_endproc
 178              	.LFE3:
 179              		.size	UART_1_Stop, .-UART_1_Stop
 180              		.section	.text.UART_1_SetCustomInterruptHandler,"ax",%progbits
 181              		.align	2
 182              		.global	UART_1_SetCustomInterruptHandler
 183              		.code	16
 184              		.thumb_func
 185              		.type	UART_1_SetCustomInterruptHandler, %function
 186              	UART_1_SetCustomInterruptHandler:
 187              	.LFB4:
 198:.\Generated_Source\PSoC4/UART_1.c **** 
 199:.\Generated_Source\PSoC4/UART_1.c **** 
 200:.\Generated_Source\PSoC4/UART_1.c **** /*******************************************************************************
 201:.\Generated_Source\PSoC4/UART_1.c **** * Function Name: UART_1_SetCustomInterruptHandler
 202:.\Generated_Source\PSoC4/UART_1.c **** ********************************************************************************
 203:.\Generated_Source\PSoC4/UART_1.c **** *
 204:.\Generated_Source\PSoC4/UART_1.c **** * Summary:
 205:.\Generated_Source\PSoC4/UART_1.c **** *  Registers a function to be called by the internal interrupt handler.
 206:.\Generated_Source\PSoC4/UART_1.c **** *  First the function that is registered is called, then the internal interrupt
 207:.\Generated_Source\PSoC4/UART_1.c **** *  handler performs any operations such as software buffer management functions
 208:.\Generated_Source\PSoC4/UART_1.c **** *  before the interrupt returns.  It is user's responsibility to not break the
ARM GAS  C:\Users\maxk\AppData\Local\Temp\ccnCL18t.s 			page 8


 209:.\Generated_Source\PSoC4/UART_1.c **** *  software buffer operations. Only one custom handler is supported, which is
 210:.\Generated_Source\PSoC4/UART_1.c **** *  the function provided by the most recent call.
 211:.\Generated_Source\PSoC4/UART_1.c **** *  At initialization time no custom handler is registered.
 212:.\Generated_Source\PSoC4/UART_1.c **** *
 213:.\Generated_Source\PSoC4/UART_1.c **** * Parameters:
 214:.\Generated_Source\PSoC4/UART_1.c **** *  func: Pointer to the function to register.
 215:.\Generated_Source\PSoC4/UART_1.c **** *        The value NULL indicates to remove the current custom interrupt
 216:.\Generated_Source\PSoC4/UART_1.c **** *        handler.
 217:.\Generated_Source\PSoC4/UART_1.c **** *
 218:.\Generated_Source\PSoC4/UART_1.c **** * Return:
 219:.\Generated_Source\PSoC4/UART_1.c **** *  None
 220:.\Generated_Source\PSoC4/UART_1.c **** *
 221:.\Generated_Source\PSoC4/UART_1.c **** *******************************************************************************/
 222:.\Generated_Source\PSoC4/UART_1.c **** void UART_1_SetCustomInterruptHandler(cyisraddress func)
 223:.\Generated_Source\PSoC4/UART_1.c **** {
 188              		.loc 1 223 0
 189              		.cfi_startproc
 190 0000 80B5     		push	{r7, lr}
 191              	.LCFI8:
 192              		.cfi_def_cfa_offset 8
 193              		.cfi_offset 7, -8
 194              		.cfi_offset 14, -4
 195 0002 82B0     		sub	sp, sp, #8
 196              	.LCFI9:
 197              		.cfi_def_cfa_offset 16
 198 0004 00AF     		add	r7, sp, #0
 199              	.LCFI10:
 200              		.cfi_def_cfa_register 7
 201 0006 7860     		str	r0, [r7, #4]
 224:.\Generated_Source\PSoC4/UART_1.c ****     UART_1_customIntrHandler = func; /* Register interrupt handler */
 202              		.loc 1 224 0
 203 0008 024B     		ldr	r3, .L18
 204 000a 7A68     		ldr	r2, [r7, #4]
 205 000c 1A60     		str	r2, [r3]
 225:.\Generated_Source\PSoC4/UART_1.c **** }
 206              		.loc 1 225 0
 207 000e BD46     		mov	sp, r7
 208 0010 02B0     		add	sp, sp, #8
 209              		@ sp needed for prologue
 210 0012 80BD     		pop	{r7, pc}
 211              	.L19:
 212              		.align	2
 213              	.L18:
 214 0014 00000000 		.word	UART_1_customIntrHandler
 215              		.cfi_endproc
 216              	.LFE4:
 217              		.size	UART_1_SetCustomInterruptHandler, .-UART_1_SetCustomInterruptHandler
 218              		.section	.text.UART_1_ScbModeStop,"ax",%progbits
 219              		.align	2
 220              		.code	16
 221              		.thumb_func
 222              		.type	UART_1_ScbModeStop, %function
 223              	UART_1_ScbModeStop:
 224              	.LFB5:
 226:.\Generated_Source\PSoC4/UART_1.c **** 
 227:.\Generated_Source\PSoC4/UART_1.c **** 
 228:.\Generated_Source\PSoC4/UART_1.c **** /*******************************************************************************
ARM GAS  C:\Users\maxk\AppData\Local\Temp\ccnCL18t.s 			page 9


 229:.\Generated_Source\PSoC4/UART_1.c **** * Function Name: UART_1_ScbModeStop
 230:.\Generated_Source\PSoC4/UART_1.c **** ********************************************************************************
 231:.\Generated_Source\PSoC4/UART_1.c **** *
 232:.\Generated_Source\PSoC4/UART_1.c **** * Summary:
 233:.\Generated_Source\PSoC4/UART_1.c **** *  Calls Stop function for specific operation mode.
 234:.\Generated_Source\PSoC4/UART_1.c **** *
 235:.\Generated_Source\PSoC4/UART_1.c **** * Parameters:
 236:.\Generated_Source\PSoC4/UART_1.c **** *  None
 237:.\Generated_Source\PSoC4/UART_1.c **** *
 238:.\Generated_Source\PSoC4/UART_1.c **** * Return:
 239:.\Generated_Source\PSoC4/UART_1.c **** *  None
 240:.\Generated_Source\PSoC4/UART_1.c **** *
 241:.\Generated_Source\PSoC4/UART_1.c **** *******************************************************************************/
 242:.\Generated_Source\PSoC4/UART_1.c **** static void UART_1_ScbModeStop(void)
 243:.\Generated_Source\PSoC4/UART_1.c **** {
 225              		.loc 1 243 0
 226              		.cfi_startproc
 227 0000 80B5     		push	{r7, lr}
 228              	.LCFI11:
 229              		.cfi_def_cfa_offset 8
 230              		.cfi_offset 7, -8
 231              		.cfi_offset 14, -4
 232 0002 00AF     		add	r7, sp, #0
 233              	.LCFI12:
 234              		.cfi_def_cfa_register 7
 244:.\Generated_Source\PSoC4/UART_1.c ****     #if(UART_1_SCB_MODE_UNCONFIG_CONST_CFG)
 245:.\Generated_Source\PSoC4/UART_1.c ****         if(UART_1_SCB_MODE_I2C_RUNTM_CFG)
 246:.\Generated_Source\PSoC4/UART_1.c ****         {
 247:.\Generated_Source\PSoC4/UART_1.c ****             UART_1_I2CStop();
 248:.\Generated_Source\PSoC4/UART_1.c ****         }
 249:.\Generated_Source\PSoC4/UART_1.c ****     #elif(UART_1_SCB_MODE_I2C_CONST_CFG)
 250:.\Generated_Source\PSoC4/UART_1.c ****         UART_1_I2CStop();
 251:.\Generated_Source\PSoC4/UART_1.c ****     #else
 252:.\Generated_Source\PSoC4/UART_1.c **** 
 253:.\Generated_Source\PSoC4/UART_1.c ****     #endif /* (UART_1_SCB_MODE_UNCONFIG_CONST_CFG) */
 254:.\Generated_Source\PSoC4/UART_1.c **** }
 235              		.loc 1 254 0
 236 0004 BD46     		mov	sp, r7
 237              		@ sp needed for prologue
 238 0006 80BD     		pop	{r7, pc}
 239              		.cfi_endproc
 240              	.LFE5:
 241              		.size	UART_1_ScbModeStop, .-UART_1_ScbModeStop
 242              		.text
 243              	.Letext0: