ARM GAS  C:\Users\maxk\AppData\Local\Temp\ccnYhE5Q.s 			page 1


   1              		.cpu cortex-m0
   2              		.fpu softvfp
   3              		.eabi_attribute 20, 1
   4              		.eabi_attribute 21, 1
   5              		.eabi_attribute 23, 3
   6              		.eabi_attribute 24, 1
   7              		.eabi_attribute 25, 1
   8              		.eabi_attribute 26, 1
   9              		.eabi_attribute 30, 6
  10              		.eabi_attribute 18, 4
  11              		.code	16
  12              		.file	"UART_1_UART.c"
  19 0000 06010000 		.text
  19      02006400 
  19      00000201 
  19      FB0E0D00 
  19      01010101 
  20              	.Ltext0:
  21              		.cfi_sections	.debug_frame
  22              		.section	.text.UART_1_UartInit,"ax",%progbits
  23              		.align	2
  24              		.global	UART_1_UartInit
  25              		.code	16
  26              		.thumb_func
  27              		.type	UART_1_UartInit, %function
  28              	UART_1_UartInit:
  29              	.LFB0:
  30              		.file 1 ".\\Generated_Source\\PSoC4\\UART_1_UART.c"
   1:.\Generated_Source\PSoC4/UART_1_UART.c **** /*******************************************************************************
   2:.\Generated_Source\PSoC4/UART_1_UART.c **** * File Name: UART_1_UART.c
   3:.\Generated_Source\PSoC4/UART_1_UART.c **** * Version 1.0
   4:.\Generated_Source\PSoC4/UART_1_UART.c **** *
   5:.\Generated_Source\PSoC4/UART_1_UART.c **** * Description:
   6:.\Generated_Source\PSoC4/UART_1_UART.c **** *  This file provides the source code to the API for the SCB Component in
   7:.\Generated_Source\PSoC4/UART_1_UART.c **** *  UART mode.
   8:.\Generated_Source\PSoC4/UART_1_UART.c **** *
   9:.\Generated_Source\PSoC4/UART_1_UART.c **** * Note:
  10:.\Generated_Source\PSoC4/UART_1_UART.c **** *
  11:.\Generated_Source\PSoC4/UART_1_UART.c **** *******************************************************************************
  12:.\Generated_Source\PSoC4/UART_1_UART.c **** * Copyright 2013, Cypress Semiconductor Corporation.  All rights reserved.
  13:.\Generated_Source\PSoC4/UART_1_UART.c **** * You may use this file only in accordance with the license, terms, conditions,
  14:.\Generated_Source\PSoC4/UART_1_UART.c **** * disclaimers, and limitations in the end user license agreement accompanying
  15:.\Generated_Source\PSoC4/UART_1_UART.c **** * the software package with which this file was provided.
  16:.\Generated_Source\PSoC4/UART_1_UART.c **** *******************************************************************************/
  17:.\Generated_Source\PSoC4/UART_1_UART.c **** 
  18:.\Generated_Source\PSoC4/UART_1_UART.c **** #include "UART_1_PVT.h"
  19:.\Generated_Source\PSoC4/UART_1_UART.c **** #include "UART_1_SPI_UART_PVT.h"
  20:.\Generated_Source\PSoC4/UART_1_UART.c **** 
  21:.\Generated_Source\PSoC4/UART_1_UART.c **** 
  22:.\Generated_Source\PSoC4/UART_1_UART.c **** #if(UART_1_SCB_MODE_UNCONFIG_CONST_CFG)
  23:.\Generated_Source\PSoC4/UART_1_UART.c **** 
ARM GAS  C:\Users\maxk\AppData\Local\Temp\ccnYhE5Q.s 			page 2


  24:.\Generated_Source\PSoC4/UART_1_UART.c ****     /***************************************
  25:.\Generated_Source\PSoC4/UART_1_UART.c ****     *  Config Structure Initialization
  26:.\Generated_Source\PSoC4/UART_1_UART.c ****     ***************************************/
  27:.\Generated_Source\PSoC4/UART_1_UART.c **** 
  28:.\Generated_Source\PSoC4/UART_1_UART.c ****     const UART_1_UART_INIT_STRUCT UART_1_configUart =
  29:.\Generated_Source\PSoC4/UART_1_UART.c ****     {
  30:.\Generated_Source\PSoC4/UART_1_UART.c ****         UART_1_UART_SUB_MODE,
  31:.\Generated_Source\PSoC4/UART_1_UART.c ****         UART_1_UART_DIRECTION,
  32:.\Generated_Source\PSoC4/UART_1_UART.c ****         UART_1_UART_DATA_BITS_NUM,
  33:.\Generated_Source\PSoC4/UART_1_UART.c ****         UART_1_UART_PARITY_TYPE,
  34:.\Generated_Source\PSoC4/UART_1_UART.c ****         UART_1_UART_STOP_BITS_NUM,
  35:.\Generated_Source\PSoC4/UART_1_UART.c ****         UART_1_UART_OVS_FACTOR,
  36:.\Generated_Source\PSoC4/UART_1_UART.c ****         UART_1_UART_IRDA_LOW_POWER,
  37:.\Generated_Source\PSoC4/UART_1_UART.c ****         UART_1_UART_MEDIAN_FILTER_ENABLE,
  38:.\Generated_Source\PSoC4/UART_1_UART.c ****         UART_1_UART_RETRY_ON_NACK,
  39:.\Generated_Source\PSoC4/UART_1_UART.c ****         UART_1_UART_IRDA_POLARITY,
  40:.\Generated_Source\PSoC4/UART_1_UART.c ****         UART_1_UART_DROP_ON_PARITY_ERR,
  41:.\Generated_Source\PSoC4/UART_1_UART.c ****         UART_1_UART_DROP_ON_FRAME_ERR,
  42:.\Generated_Source\PSoC4/UART_1_UART.c ****         UART_1_UART_WAKE_ENABLE,
  43:.\Generated_Source\PSoC4/UART_1_UART.c ****         0u,
  44:.\Generated_Source\PSoC4/UART_1_UART.c ****         NULL,
  45:.\Generated_Source\PSoC4/UART_1_UART.c ****         0u,
  46:.\Generated_Source\PSoC4/UART_1_UART.c ****         NULL,
  47:.\Generated_Source\PSoC4/UART_1_UART.c ****         UART_1_UART_MP_MODE_ENABLE,
  48:.\Generated_Source\PSoC4/UART_1_UART.c ****         UART_1_UART_MP_ACCEPT_ADDRESS,
  49:.\Generated_Source\PSoC4/UART_1_UART.c ****         UART_1_UART_MP_RX_ADDRESS,
  50:.\Generated_Source\PSoC4/UART_1_UART.c ****         UART_1_UART_MP_RX_ADDRESS_MASK,
  51:.\Generated_Source\PSoC4/UART_1_UART.c ****         UART_1_UART_INTERRUPT_ENABLE,
  52:.\Generated_Source\PSoC4/UART_1_UART.c ****         UART_1_UART_INTR_RX_MASK,
  53:.\Generated_Source\PSoC4/UART_1_UART.c ****         UART_1_UART_RX_TRIGGER_LEVEL,
  54:.\Generated_Source\PSoC4/UART_1_UART.c ****         UART_1_UART_INTR_TX_MASK,
  55:.\Generated_Source\PSoC4/UART_1_UART.c ****         UART_1_UART_TX_TRIGGER_LEVEL
  56:.\Generated_Source\PSoC4/UART_1_UART.c ****     };
  57:.\Generated_Source\PSoC4/UART_1_UART.c **** 
  58:.\Generated_Source\PSoC4/UART_1_UART.c **** 
  59:.\Generated_Source\PSoC4/UART_1_UART.c ****     /*******************************************************************************
  60:.\Generated_Source\PSoC4/UART_1_UART.c ****     * Function Name: UART_1_UartInit
  61:.\Generated_Source\PSoC4/UART_1_UART.c ****     ********************************************************************************
  62:.\Generated_Source\PSoC4/UART_1_UART.c ****     *
  63:.\Generated_Source\PSoC4/UART_1_UART.c ****     * Summary:
  64:.\Generated_Source\PSoC4/UART_1_UART.c ****     *  Configures the SCB for SPI operation.
  65:.\Generated_Source\PSoC4/UART_1_UART.c ****     *
  66:.\Generated_Source\PSoC4/UART_1_UART.c ****     * Parameters:
  67:.\Generated_Source\PSoC4/UART_1_UART.c ****     *  config:  Pointer to a structure that contains the following ordered list of
  68:.\Generated_Source\PSoC4/UART_1_UART.c ****     *           fields. These fields match the selections available in the
  69:.\Generated_Source\PSoC4/UART_1_UART.c ****     *           customizer.
  70:.\Generated_Source\PSoC4/UART_1_UART.c ****     *
  71:.\Generated_Source\PSoC4/UART_1_UART.c ****     * Return:
  72:.\Generated_Source\PSoC4/UART_1_UART.c ****     *  None
  73:.\Generated_Source\PSoC4/UART_1_UART.c ****     *
  74:.\Generated_Source\PSoC4/UART_1_UART.c ****     *******************************************************************************/
  75:.\Generated_Source\PSoC4/UART_1_UART.c ****     void UART_1_UartInit(const UART_1_UART_INIT_STRUCT *config)
  76:.\Generated_Source\PSoC4/UART_1_UART.c ****     {
  77:.\Generated_Source\PSoC4/UART_1_UART.c ****         if(NULL == config)
  78:.\Generated_Source\PSoC4/UART_1_UART.c ****         {
  79:.\Generated_Source\PSoC4/UART_1_UART.c ****             CYASSERT(0u != 0u); /* Halt execution due bad fucntion parameter */
  80:.\Generated_Source\PSoC4/UART_1_UART.c ****         }
ARM GAS  C:\Users\maxk\AppData\Local\Temp\ccnYhE5Q.s 			page 3


  81:.\Generated_Source\PSoC4/UART_1_UART.c ****         else
  82:.\Generated_Source\PSoC4/UART_1_UART.c ****         {
  83:.\Generated_Source\PSoC4/UART_1_UART.c ****             /* Configure pins */
  84:.\Generated_Source\PSoC4/UART_1_UART.c ****             UART_1_SetPins(UART_1_SCB_MODE_UART, config->mode, config->direction);
  85:.\Generated_Source\PSoC4/UART_1_UART.c **** 
  86:.\Generated_Source\PSoC4/UART_1_UART.c ****             /* Store internal configuration */
  87:.\Generated_Source\PSoC4/UART_1_UART.c ****             UART_1_scbMode       = (uint8) UART_1_SCB_MODE_UART;
  88:.\Generated_Source\PSoC4/UART_1_UART.c ****             UART_1_scbEnableWake = (uint8) config->enableWake;
  89:.\Generated_Source\PSoC4/UART_1_UART.c **** 
  90:.\Generated_Source\PSoC4/UART_1_UART.c ****             /* Set RX direction internal variables */
  91:.\Generated_Source\PSoC4/UART_1_UART.c ****             UART_1_rxBuffer      =         config->rxBuffer;
  92:.\Generated_Source\PSoC4/UART_1_UART.c ****             UART_1_rxDataBits    = (uint8) config->dataBits;
  93:.\Generated_Source\PSoC4/UART_1_UART.c ****             UART_1_rxBufferSize  = (uint8) config->rxBufferSize;
  94:.\Generated_Source\PSoC4/UART_1_UART.c **** 
  95:.\Generated_Source\PSoC4/UART_1_UART.c ****             /* Set TX direction internal variables */
  96:.\Generated_Source\PSoC4/UART_1_UART.c ****             UART_1_txBuffer      =         config->txBuffer;
  97:.\Generated_Source\PSoC4/UART_1_UART.c ****             UART_1_txDataBits    = (uint8) config->dataBits;
  98:.\Generated_Source\PSoC4/UART_1_UART.c ****             UART_1_txBufferSize  = (uint8) config->txBufferSize;
  99:.\Generated_Source\PSoC4/UART_1_UART.c **** 
 100:.\Generated_Source\PSoC4/UART_1_UART.c **** 
 101:.\Generated_Source\PSoC4/UART_1_UART.c ****             /* Configure UART interface */
 102:.\Generated_Source\PSoC4/UART_1_UART.c ****             if(UART_1_UART_MODE_IRDA == config->mode)
 103:.\Generated_Source\PSoC4/UART_1_UART.c ****             {
 104:.\Generated_Source\PSoC4/UART_1_UART.c ****                 /* OVS settigns: IrDA */
 105:.\Generated_Source\PSoC4/UART_1_UART.c ****                 UART_1_CTRL_REG  = ((0u != config->enableIrdaLowPower) ?
 106:.\Generated_Source\PSoC4/UART_1_UART.c ****                                                 (UART_1_UART_GET_CTRL_OVS_IRDA_LP(config->oversampl
 107:.\Generated_Source\PSoC4/UART_1_UART.c ****                                                 (UART_1_CTRL_OVS_IRDA_OVS16));
 108:.\Generated_Source\PSoC4/UART_1_UART.c ****             }
 109:.\Generated_Source\PSoC4/UART_1_UART.c ****             else
 110:.\Generated_Source\PSoC4/UART_1_UART.c ****             {
 111:.\Generated_Source\PSoC4/UART_1_UART.c ****                 /* OVS settigns: UART and SmartCard */
 112:.\Generated_Source\PSoC4/UART_1_UART.c ****                 UART_1_CTRL_REG  = UART_1_GET_CTRL_OVS(config->oversample);
 113:.\Generated_Source\PSoC4/UART_1_UART.c ****             }
 114:.\Generated_Source\PSoC4/UART_1_UART.c **** 
 115:.\Generated_Source\PSoC4/UART_1_UART.c ****             UART_1_CTRL_REG     |= UART_1_GET_CTRL_ADDR_ACCEPT(config->multiprocAcceptAddr) |
 116:.\Generated_Source\PSoC4/UART_1_UART.c ****                                              UART_1_CTRL_UART;
 117:.\Generated_Source\PSoC4/UART_1_UART.c **** 
 118:.\Generated_Source\PSoC4/UART_1_UART.c ****             /* Confiuure submode: UART, SmartCard or IrDA */
 119:.\Generated_Source\PSoC4/UART_1_UART.c ****             UART_1_UART_CTRL_REG = UART_1_GET_UART_CTRL_MODE(config->mode);
 120:.\Generated_Source\PSoC4/UART_1_UART.c **** 
 121:.\Generated_Source\PSoC4/UART_1_UART.c ****             /* Configure RX direction */
 122:.\Generated_Source\PSoC4/UART_1_UART.c ****             UART_1_UART_RX_CTRL_REG = UART_1_GET_UART_RX_CTRL_MODE(config->stopBits)              |
 123:.\Generated_Source\PSoC4/UART_1_UART.c ****                                         UART_1_GET_UART_RX_CTRL_POLARITY(config->enableInvertedRx) 
 124:.\Generated_Source\PSoC4/UART_1_UART.c ****                                         UART_1_GET_UART_RX_CTRL_MP_MODE(config->enableMultiproc)   
 125:.\Generated_Source\PSoC4/UART_1_UART.c ****                                         UART_1_GET_UART_RX_CTRL_DROP_ON_PARITY_ERR(config->dropOnPa
 126:.\Generated_Source\PSoC4/UART_1_UART.c ****                                         UART_1_GET_UART_RX_CTRL_DROP_ON_FRAME_ERR(config->dropOnFra
 127:.\Generated_Source\PSoC4/UART_1_UART.c **** 
 128:.\Generated_Source\PSoC4/UART_1_UART.c ****             if(UART_1_UART_PARITY_NONE != config->parity)
 129:.\Generated_Source\PSoC4/UART_1_UART.c ****             {
 130:.\Generated_Source\PSoC4/UART_1_UART.c ****                UART_1_UART_RX_CTRL_REG |= UART_1_GET_UART_RX_CTRL_PARITY(config->parity) |
 131:.\Generated_Source\PSoC4/UART_1_UART.c ****                                                     UART_1_UART_RX_CTRL_PARITY_ENABLED;
 132:.\Generated_Source\PSoC4/UART_1_UART.c ****             }
 133:.\Generated_Source\PSoC4/UART_1_UART.c **** 
 134:.\Generated_Source\PSoC4/UART_1_UART.c ****             UART_1_RX_CTRL_REG      = UART_1_GET_RX_CTRL_DATA_WIDTH(config->dataBits)       |
 135:.\Generated_Source\PSoC4/UART_1_UART.c ****                                                 UART_1_GET_RX_CTRL_MEDIAN(config->enableMedianFilte
 136:.\Generated_Source\PSoC4/UART_1_UART.c ****                                                 UART_1_GET_UART_RX_CTRL_ENABLED(config->direction);
 137:.\Generated_Source\PSoC4/UART_1_UART.c **** 
ARM GAS  C:\Users\maxk\AppData\Local\Temp\ccnYhE5Q.s 			page 4


 138:.\Generated_Source\PSoC4/UART_1_UART.c ****             UART_1_RX_FIFO_CTRL_REG = UART_1_GET_RX_FIFO_CTRL_TRIGGER_LEVEL(config->rxTriggerLevel)
 139:.\Generated_Source\PSoC4/UART_1_UART.c **** 
 140:.\Generated_Source\PSoC4/UART_1_UART.c ****             /* Configure MP address */
 141:.\Generated_Source\PSoC4/UART_1_UART.c ****             UART_1_RX_MATCH_REG     = UART_1_GET_RX_MATCH_ADDR(config->multiprocAddr) |
 142:.\Generated_Source\PSoC4/UART_1_UART.c ****                                                 UART_1_GET_RX_MATCH_MASK(config->multiprocAddrMask)
 143:.\Generated_Source\PSoC4/UART_1_UART.c **** 
 144:.\Generated_Source\PSoC4/UART_1_UART.c ****             /* Configure RX direction */
 145:.\Generated_Source\PSoC4/UART_1_UART.c ****             UART_1_UART_TX_CTRL_REG = UART_1_GET_UART_TX_CTRL_MODE(config->stopBits) |
 146:.\Generated_Source\PSoC4/UART_1_UART.c ****                                                 UART_1_GET_UART_TX_CTRL_RETRY_NACK(config->enableRe
 147:.\Generated_Source\PSoC4/UART_1_UART.c **** 
 148:.\Generated_Source\PSoC4/UART_1_UART.c ****             if(UART_1_UART_PARITY_NONE != config->parity)
 149:.\Generated_Source\PSoC4/UART_1_UART.c ****             {
 150:.\Generated_Source\PSoC4/UART_1_UART.c ****                UART_1_UART_TX_CTRL_REG |= UART_1_GET_UART_TX_CTRL_PARITY(config->parity) |
 151:.\Generated_Source\PSoC4/UART_1_UART.c ****                                                     UART_1_UART_TX_CTRL_PARITY_ENABLED;
 152:.\Generated_Source\PSoC4/UART_1_UART.c ****             }
 153:.\Generated_Source\PSoC4/UART_1_UART.c **** 
 154:.\Generated_Source\PSoC4/UART_1_UART.c ****             UART_1_TX_CTRL_REG      = UART_1_GET_TX_CTRL_DATA_WIDTH(config->dataBits)    |
 155:.\Generated_Source\PSoC4/UART_1_UART.c ****                                                 UART_1_GET_UART_TX_CTRL_ENABLED(config->direction);
 156:.\Generated_Source\PSoC4/UART_1_UART.c **** 
 157:.\Generated_Source\PSoC4/UART_1_UART.c ****             UART_1_TX_FIFO_CTRL_REG = UART_1_GET_TX_FIFO_CTRL_TRIGGER_LEVEL(config->txTriggerLevel)
 158:.\Generated_Source\PSoC4/UART_1_UART.c **** 
 159:.\Generated_Source\PSoC4/UART_1_UART.c **** 
 160:.\Generated_Source\PSoC4/UART_1_UART.c ****             /* Configure interrupt sources */
 161:.\Generated_Source\PSoC4/UART_1_UART.c ****             UART_1_INTR_I2C_EC_MASK_REG = UART_1_NO_INTR_SOURCES;
 162:.\Generated_Source\PSoC4/UART_1_UART.c ****             UART_1_INTR_SPI_EC_MASK_REG = UART_1_NO_INTR_SOURCES;
 163:.\Generated_Source\PSoC4/UART_1_UART.c ****             UART_1_INTR_SLAVE_MASK_REG  = UART_1_NO_INTR_SOURCES;
 164:.\Generated_Source\PSoC4/UART_1_UART.c ****             UART_1_INTR_MASTER_MASK_REG = UART_1_NO_INTR_SOURCES;
 165:.\Generated_Source\PSoC4/UART_1_UART.c ****             UART_1_INTR_RX_MASK_REG     = config->rxInterruptMask;
 166:.\Generated_Source\PSoC4/UART_1_UART.c ****             UART_1_INTR_TX_MASK_REG     = config->txInterruptMask;
 167:.\Generated_Source\PSoC4/UART_1_UART.c **** 
 168:.\Generated_Source\PSoC4/UART_1_UART.c ****             /* Configure WAKE interrupt */
 169:.\Generated_Source\PSoC4/UART_1_UART.c ****             #if(UART_1_UART_RX_WAKEUP_IRQ)
 170:.\Generated_Source\PSoC4/UART_1_UART.c ****                 UART_1_RX_WAKEUP_IRQ_StartEx(&UART_1_UART_WAKEUP_ISR);
 171:.\Generated_Source\PSoC4/UART_1_UART.c ****                 UART_1_RX_WAKEUP_IRQ_Disable();
 172:.\Generated_Source\PSoC4/UART_1_UART.c ****             #endif /* (UART_1_UART_RX_WAKEUP_IRQ) */
 173:.\Generated_Source\PSoC4/UART_1_UART.c **** 
 174:.\Generated_Source\PSoC4/UART_1_UART.c ****             /* Configure interrupt source */
 175:.\Generated_Source\PSoC4/UART_1_UART.c ****             UART_1_SCB_IRQ_StartEx(&UART_1_SPI_UART_ISR);
 176:.\Generated_Source\PSoC4/UART_1_UART.c ****             if(0u == config->enableInterrupt)
 177:.\Generated_Source\PSoC4/UART_1_UART.c ****             {
 178:.\Generated_Source\PSoC4/UART_1_UART.c ****                 UART_1_SCB_IRQ_Disable();
 179:.\Generated_Source\PSoC4/UART_1_UART.c ****             }
 180:.\Generated_Source\PSoC4/UART_1_UART.c **** 
 181:.\Generated_Source\PSoC4/UART_1_UART.c ****             /* Clear RX buffer indexes */
 182:.\Generated_Source\PSoC4/UART_1_UART.c ****             UART_1_rxBufferHead     = 0u;
 183:.\Generated_Source\PSoC4/UART_1_UART.c ****             UART_1_rxBufferTail     = 0u;
 184:.\Generated_Source\PSoC4/UART_1_UART.c ****             UART_1_rxBufferOverflow = 0u;
 185:.\Generated_Source\PSoC4/UART_1_UART.c **** 
 186:.\Generated_Source\PSoC4/UART_1_UART.c ****             /* Clrea TX buffer indexes */
 187:.\Generated_Source\PSoC4/UART_1_UART.c ****             UART_1_txBufferHead = 0u;
 188:.\Generated_Source\PSoC4/UART_1_UART.c ****             UART_1_txBufferTail = 0u;
 189:.\Generated_Source\PSoC4/UART_1_UART.c ****         }
 190:.\Generated_Source\PSoC4/UART_1_UART.c ****     }
 191:.\Generated_Source\PSoC4/UART_1_UART.c **** 
 192:.\Generated_Source\PSoC4/UART_1_UART.c **** #else
 193:.\Generated_Source\PSoC4/UART_1_UART.c **** 
 194:.\Generated_Source\PSoC4/UART_1_UART.c ****     /*******************************************************************************
ARM GAS  C:\Users\maxk\AppData\Local\Temp\ccnYhE5Q.s 			page 5


 195:.\Generated_Source\PSoC4/UART_1_UART.c ****     * Function Name: UART_1_UartInit
 196:.\Generated_Source\PSoC4/UART_1_UART.c ****     ********************************************************************************
 197:.\Generated_Source\PSoC4/UART_1_UART.c ****     *
 198:.\Generated_Source\PSoC4/UART_1_UART.c ****     * Summary:
 199:.\Generated_Source\PSoC4/UART_1_UART.c ****     *  Configures the SCB for SPI operation.
 200:.\Generated_Source\PSoC4/UART_1_UART.c ****     *
 201:.\Generated_Source\PSoC4/UART_1_UART.c ****     * Parameters:
 202:.\Generated_Source\PSoC4/UART_1_UART.c ****     *  None
 203:.\Generated_Source\PSoC4/UART_1_UART.c ****     *
 204:.\Generated_Source\PSoC4/UART_1_UART.c ****     * Return:
 205:.\Generated_Source\PSoC4/UART_1_UART.c ****     *  None
 206:.\Generated_Source\PSoC4/UART_1_UART.c ****     *
 207:.\Generated_Source\PSoC4/UART_1_UART.c ****     *******************************************************************************/
 208:.\Generated_Source\PSoC4/UART_1_UART.c ****     void UART_1_UartInit(void)
 209:.\Generated_Source\PSoC4/UART_1_UART.c ****     {
  31              		.loc 1 209 0
  32              		.cfi_startproc
  33 0000 80B5     		push	{r7, lr}
  34              	.LCFI0:
  35              		.cfi_def_cfa_offset 8
  36              		.cfi_offset 7, -8
  37              		.cfi_offset 14, -4
  38 0002 00AF     		add	r7, sp, #0
  39              	.LCFI1:
  40              		.cfi_def_cfa_register 7
 210:.\Generated_Source\PSoC4/UART_1_UART.c ****         /* Configure UART interface */
 211:.\Generated_Source\PSoC4/UART_1_UART.c ****         UART_1_CTRL_REG = UART_1_UART_DEFAULT_CTRL;
  41              		.loc 1 211 0
  42 0004 174B     		ldr	r3, .L3
  43 0006 184A     		ldr	r2, .L3+4
  44 0008 1A60     		str	r2, [r3]
 212:.\Generated_Source\PSoC4/UART_1_UART.c **** 
 213:.\Generated_Source\PSoC4/UART_1_UART.c ****         /* Confiuure submode: UART, SmartCard or IrDA */
 214:.\Generated_Source\PSoC4/UART_1_UART.c ****         UART_1_UART_CTRL_REG = UART_1_UART_DEFAULT_UART_CTRL;
  45              		.loc 1 214 0
  46 000a 184B     		ldr	r3, .L3+8
  47 000c 0022     		mov	r2, #0
  48 000e 1A60     		str	r2, [r3]
 215:.\Generated_Source\PSoC4/UART_1_UART.c **** 
 216:.\Generated_Source\PSoC4/UART_1_UART.c ****         /* Configure RX direction */
 217:.\Generated_Source\PSoC4/UART_1_UART.c ****         UART_1_UART_RX_CTRL_REG = UART_1_UART_DEFAULT_UART_RX_CTRL;
  49              		.loc 1 217 0
  50 0010 174B     		ldr	r3, .L3+12
  51 0012 0122     		mov	r2, #1
  52 0014 1A60     		str	r2, [r3]
 218:.\Generated_Source\PSoC4/UART_1_UART.c ****         UART_1_RX_CTRL_REG      = UART_1_UART_DEFAULT_RX_CTRL;
  53              		.loc 1 218 0
  54 0016 174B     		ldr	r3, .L3+16
  55 0018 0722     		mov	r2, #7
  56 001a 1A60     		str	r2, [r3]
 219:.\Generated_Source\PSoC4/UART_1_UART.c ****         UART_1_RX_FIFO_CTRL_REG = UART_1_UART_DEFAULT_RX_FIFO_CTRL;
  57              		.loc 1 219 0
  58 001c 164B     		ldr	r3, .L3+20
  59 001e 0722     		mov	r2, #7
  60 0020 1A60     		str	r2, [r3]
 220:.\Generated_Source\PSoC4/UART_1_UART.c ****         UART_1_RX_MATCH_REG     = UART_1_UART_DEFAULT_RX_MATCH_REG;
  61              		.loc 1 220 0
ARM GAS  C:\Users\maxk\AppData\Local\Temp\ccnYhE5Q.s 			page 6


  62 0022 164B     		ldr	r3, .L3+24
  63 0024 0022     		mov	r2, #0
  64 0026 1A60     		str	r2, [r3]
 221:.\Generated_Source\PSoC4/UART_1_UART.c **** 
 222:.\Generated_Source\PSoC4/UART_1_UART.c ****         /* Configure TX direction */
 223:.\Generated_Source\PSoC4/UART_1_UART.c ****         UART_1_UART_TX_CTRL_REG = UART_1_UART_DEFAULT_UART_TX_CTRL;
  65              		.loc 1 223 0
  66 0028 154B     		ldr	r3, .L3+28
  67 002a 0122     		mov	r2, #1
  68 002c 1A60     		str	r2, [r3]
 224:.\Generated_Source\PSoC4/UART_1_UART.c ****         UART_1_TX_CTRL_REG      = UART_1_UART_DEFAULT_TX_CTRL;
  69              		.loc 1 224 0
  70 002e 154B     		ldr	r3, .L3+32
  71 0030 154A     		ldr	r2, .L3+36
  72 0032 1A60     		str	r2, [r3]
 225:.\Generated_Source\PSoC4/UART_1_UART.c ****         UART_1_TX_FIFO_CTRL_REG = UART_1_UART_DEFAULT_TX_FIFO_CTRL;
  73              		.loc 1 225 0
  74 0034 154B     		ldr	r3, .L3+40
  75 0036 0022     		mov	r2, #0
  76 0038 1A60     		str	r2, [r3]
 226:.\Generated_Source\PSoC4/UART_1_UART.c **** 
 227:.\Generated_Source\PSoC4/UART_1_UART.c ****         /* Configure interrupt sources */
 228:.\Generated_Source\PSoC4/UART_1_UART.c ****         UART_1_INTR_I2C_EC_MASK_REG = UART_1_UART_DEFAULT_INTR_I2C_EC_MASK;
  77              		.loc 1 228 0
  78 003a 154B     		ldr	r3, .L3+44
  79 003c 0022     		mov	r2, #0
  80 003e 1A60     		str	r2, [r3]
 229:.\Generated_Source\PSoC4/UART_1_UART.c ****         UART_1_INTR_SPI_EC_MASK_REG = UART_1_UART_DEFAULT_INTR_SPI_EC_MASK;
  81              		.loc 1 229 0
  82 0040 144B     		ldr	r3, .L3+48
  83 0042 0022     		mov	r2, #0
  84 0044 1A60     		str	r2, [r3]
 230:.\Generated_Source\PSoC4/UART_1_UART.c ****         UART_1_INTR_SLAVE_MASK_REG  = UART_1_UART_DEFAULT_INTR_SLAVE_MASK;
  85              		.loc 1 230 0
  86 0046 144B     		ldr	r3, .L3+52
  87 0048 0022     		mov	r2, #0
  88 004a 1A60     		str	r2, [r3]
 231:.\Generated_Source\PSoC4/UART_1_UART.c ****         UART_1_INTR_MASTER_MASK_REG = UART_1_UART_DEFAULT_INTR_MASTER_MASK;
  89              		.loc 1 231 0
  90 004c 134B     		ldr	r3, .L3+56
  91 004e 0022     		mov	r2, #0
  92 0050 1A60     		str	r2, [r3]
 232:.\Generated_Source\PSoC4/UART_1_UART.c ****         UART_1_INTR_RX_MASK_REG     = UART_1_UART_DEFAULT_INTR_RX_MASK;
  93              		.loc 1 232 0
  94 0052 134B     		ldr	r3, .L3+60
  95 0054 0022     		mov	r2, #0
  96 0056 1A60     		str	r2, [r3]
 233:.\Generated_Source\PSoC4/UART_1_UART.c ****         UART_1_INTR_TX_MASK_REG     = UART_1_UART_DEFAULT_INTR_TX_MASK;
  97              		.loc 1 233 0
  98 0058 124B     		ldr	r3, .L3+64
  99 005a 0022     		mov	r2, #0
 100 005c 1A60     		str	r2, [r3]
 234:.\Generated_Source\PSoC4/UART_1_UART.c **** 
 235:.\Generated_Source\PSoC4/UART_1_UART.c ****         #if(UART_1_SCB_IRQ_INTERNAL)
 236:.\Generated_Source\PSoC4/UART_1_UART.c ****             UART_1_SCB_IRQ_StartEx(&UART_1_SPI_UART_ISR);
 237:.\Generated_Source\PSoC4/UART_1_UART.c **** 
 238:.\Generated_Source\PSoC4/UART_1_UART.c ****             #if(UART_1_UART_INTERRUPT_DISABLE)
ARM GAS  C:\Users\maxk\AppData\Local\Temp\ccnYhE5Q.s 			page 7


 239:.\Generated_Source\PSoC4/UART_1_UART.c ****                 UART_1_SCB_IRQ_Disable();
 240:.\Generated_Source\PSoC4/UART_1_UART.c ****             #endif /* (UART_1_UART_INTERRUPT_DISABLE) */
 241:.\Generated_Source\PSoC4/UART_1_UART.c ****         #endif /* (UART_1_SCB_IRQ_INTERNAL) */
 242:.\Generated_Source\PSoC4/UART_1_UART.c **** 
 243:.\Generated_Source\PSoC4/UART_1_UART.c ****         /* Configure WAKE interrupt */
 244:.\Generated_Source\PSoC4/UART_1_UART.c ****         #if(UART_1_UART_RX_WAKEUP_IRQ)
 245:.\Generated_Source\PSoC4/UART_1_UART.c ****             UART_1_RX_WAKEUP_IRQ_StartEx(&UART_1_UART_WAKEUP_ISR);
 246:.\Generated_Source\PSoC4/UART_1_UART.c ****             UART_1_RX_WAKEUP_IRQ_Disable();
 247:.\Generated_Source\PSoC4/UART_1_UART.c ****         #endif /* (UART_1_UART_RX_WAKEUP_IRQ) */
 248:.\Generated_Source\PSoC4/UART_1_UART.c **** 
 249:.\Generated_Source\PSoC4/UART_1_UART.c ****         #if(UART_1_INTERNAL_RX_SW_BUFFER_CONST)
 250:.\Generated_Source\PSoC4/UART_1_UART.c ****             UART_1_rxBufferHead     = 0u;
 251:.\Generated_Source\PSoC4/UART_1_UART.c ****             UART_1_rxBufferTail     = 0u;
 252:.\Generated_Source\PSoC4/UART_1_UART.c ****             UART_1_rxBufferOverflow = 0u;
 253:.\Generated_Source\PSoC4/UART_1_UART.c ****         #endif /* (UART_1_INTERNAL_RX_SW_BUFFER_CONST) */
 254:.\Generated_Source\PSoC4/UART_1_UART.c **** 
 255:.\Generated_Source\PSoC4/UART_1_UART.c ****         #if(UART_1_INTERNAL_TX_SW_BUFFER_CONST)
 256:.\Generated_Source\PSoC4/UART_1_UART.c ****             UART_1_txBufferHead = 0u;
 257:.\Generated_Source\PSoC4/UART_1_UART.c ****             UART_1_txBufferTail = 0u;
 258:.\Generated_Source\PSoC4/UART_1_UART.c ****         #endif /* (UART_1_INTERNAL_TX_SW_BUFFER_CONST) */
 259:.\Generated_Source\PSoC4/UART_1_UART.c ****     }
 101              		.loc 1 259 0
 102 005e BD46     		mov	sp, r7
 103              		@ sp needed for prologue
 104 0060 80BD     		pop	{r7, pc}
 105              	.L4:
 106 0062 C046     		.align	2
 107              	.L3:
 108 0064 00000640 		.word	1074135040
 109 0068 0B000002 		.word	33554443
 110 006c 40000640 		.word	1074135104
 111 0070 48000640 		.word	1074135112
 112 0074 00030640 		.word	1074135808
 113 0078 04030640 		.word	1074135812
 114 007c 10030640 		.word	1074135824
 115 0080 44000640 		.word	1074135108
 116 0084 00020640 		.word	1074135552
 117 0088 07000080 		.word	-2147483641
 118 008c 04020640 		.word	1074135556
 119 0090 880E0640 		.word	1074138760
 120 0094 C80E0640 		.word	1074138824
 121 0098 480F0640 		.word	1074138952
 122 009c 080F0640 		.word	1074138888
 123 00a0 C80F0640 		.word	1074139080
 124 00a4 880F0640 		.word	1074139016
 125              		.cfi_endproc
 126              	.LFE0:
 127              		.size	UART_1_UartInit, .-UART_1_UartInit
 128              		.section	.text.UART_1_UartSetRxAddress,"ax",%progbits
 129              		.align	2
 130              		.global	UART_1_UartSetRxAddress
 131              		.code	16
 132              		.thumb_func
 133              		.type	UART_1_UartSetRxAddress, %function
 134              	UART_1_UartSetRxAddress:
 135              	.LFB1:
 260:.\Generated_Source\PSoC4/UART_1_UART.c **** 
ARM GAS  C:\Users\maxk\AppData\Local\Temp\ccnYhE5Q.s 			page 8


 261:.\Generated_Source\PSoC4/UART_1_UART.c **** #endif /* (UART_1_SCB_MODE_UNCONFIG_CONST_CFG) */
 262:.\Generated_Source\PSoC4/UART_1_UART.c **** 
 263:.\Generated_Source\PSoC4/UART_1_UART.c **** 
 264:.\Generated_Source\PSoC4/UART_1_UART.c **** /*******************************************************************************
 265:.\Generated_Source\PSoC4/UART_1_UART.c **** * Function Name: UART_1_UartSetRxAddress
 266:.\Generated_Source\PSoC4/UART_1_UART.c **** ********************************************************************************
 267:.\Generated_Source\PSoC4/UART_1_UART.c **** *
 268:.\Generated_Source\PSoC4/UART_1_UART.c **** * Summary:
 269:.\Generated_Source\PSoC4/UART_1_UART.c **** *  Sets the hardware detectable receiver address for the UART in Multiprocessor
 270:.\Generated_Source\PSoC4/UART_1_UART.c **** *  mode.
 271:.\Generated_Source\PSoC4/UART_1_UART.c **** *
 272:.\Generated_Source\PSoC4/UART_1_UART.c **** * Parameters:
 273:.\Generated_Source\PSoC4/UART_1_UART.c **** *  address: Address for hardware address detection.
 274:.\Generated_Source\PSoC4/UART_1_UART.c **** *
 275:.\Generated_Source\PSoC4/UART_1_UART.c **** * Return:
 276:.\Generated_Source\PSoC4/UART_1_UART.c **** *  None
 277:.\Generated_Source\PSoC4/UART_1_UART.c **** *
 278:.\Generated_Source\PSoC4/UART_1_UART.c **** *******************************************************************************/
 279:.\Generated_Source\PSoC4/UART_1_UART.c **** void UART_1_UartSetRxAddress(uint32 address)
 280:.\Generated_Source\PSoC4/UART_1_UART.c **** {
 136              		.loc 1 280 0
 137              		.cfi_startproc
 138 0000 80B5     		push	{r7, lr}
 139              	.LCFI2:
 140              		.cfi_def_cfa_offset 8
 141              		.cfi_offset 7, -8
 142              		.cfi_offset 14, -4
 143 0002 84B0     		sub	sp, sp, #16
 144              	.LCFI3:
 145              		.cfi_def_cfa_offset 24
 146 0004 00AF     		add	r7, sp, #0
 147              	.LCFI4:
 148              		.cfi_def_cfa_register 7
 149 0006 7860     		str	r0, [r7, #4]
 281:.\Generated_Source\PSoC4/UART_1_UART.c ****      uint32 matchReg;
 282:.\Generated_Source\PSoC4/UART_1_UART.c ****     
 283:.\Generated_Source\PSoC4/UART_1_UART.c ****     matchReg = UART_1_RX_MATCH_REG;
 150              		.loc 1 283 0
 151 0008 094B     		ldr	r3, .L7
 152 000a 1B68     		ldr	r3, [r3]
 153 000c FB60     		str	r3, [r7, #12]
 284:.\Generated_Source\PSoC4/UART_1_UART.c ****     
 285:.\Generated_Source\PSoC4/UART_1_UART.c ****     matchReg &= ((uint32) ~UART_1_RX_MATCH_ADDR_MASK); /* Clear address bits */
 154              		.loc 1 285 0
 155 000e FB68     		ldr	r3, [r7, #12]
 156 0010 FF22     		mov	r2, #255
 157 0012 9343     		bic	r3, r3, r2
 158 0014 FB60     		str	r3, [r7, #12]
 286:.\Generated_Source\PSoC4/UART_1_UART.c ****     matchReg |= ((uint32)  (address & UART_1_RX_MATCH_ADDR_MASK)); /* Set address  */
 159              		.loc 1 286 0
 160 0016 7A68     		ldr	r2, [r7, #4]
 161 0018 FF23     		mov	r3, #255
 162 001a 1340     		and	r3, r3, r2
 163 001c FA68     		ldr	r2, [r7, #12]
 164 001e 1343     		orr	r3, r3, r2
 165 0020 FB60     		str	r3, [r7, #12]
 287:.\Generated_Source\PSoC4/UART_1_UART.c ****     
ARM GAS  C:\Users\maxk\AppData\Local\Temp\ccnYhE5Q.s 			page 9


 288:.\Generated_Source\PSoC4/UART_1_UART.c ****     UART_1_RX_MATCH_REG = matchReg;
 166              		.loc 1 288 0
 167 0022 034B     		ldr	r3, .L7
 168 0024 FA68     		ldr	r2, [r7, #12]
 169 0026 1A60     		str	r2, [r3]
 289:.\Generated_Source\PSoC4/UART_1_UART.c **** }
 170              		.loc 1 289 0
 171 0028 BD46     		mov	sp, r7
 172 002a 04B0     		add	sp, sp, #16
 173              		@ sp needed for prologue
 174 002c 80BD     		pop	{r7, pc}
 175              	.L8:
 176 002e C046     		.align	2
 177              	.L7:
 178 0030 10030640 		.word	1074135824
 179              		.cfi_endproc
 180              	.LFE1:
 181              		.size	UART_1_UartSetRxAddress, .-UART_1_UartSetRxAddress
 182              		.section	.text.UART_1_UartSetRxAddressMask,"ax",%progbits
 183              		.align	2
 184              		.global	UART_1_UartSetRxAddressMask
 185              		.code	16
 186              		.thumb_func
 187              		.type	UART_1_UartSetRxAddressMask, %function
 188              	UART_1_UartSetRxAddressMask:
 189              	.LFB2:
 290:.\Generated_Source\PSoC4/UART_1_UART.c **** 
 291:.\Generated_Source\PSoC4/UART_1_UART.c **** 
 292:.\Generated_Source\PSoC4/UART_1_UART.c **** /*******************************************************************************
 293:.\Generated_Source\PSoC4/UART_1_UART.c **** * Function Name: UART_1_UartSetRxAddressMask
 294:.\Generated_Source\PSoC4/UART_1_UART.c **** ********************************************************************************
 295:.\Generated_Source\PSoC4/UART_1_UART.c **** *
 296:.\Generated_Source\PSoC4/UART_1_UART.c **** * Summary:
 297:.\Generated_Source\PSoC4/UART_1_UART.c **** *  Sets the hardware address mask for the UART in Multiprocessor mode.
 298:.\Generated_Source\PSoC4/UART_1_UART.c **** *
 299:.\Generated_Source\PSoC4/UART_1_UART.c **** * Parameters:
 300:.\Generated_Source\PSoC4/UART_1_UART.c **** *  addressMask: Address mask.
 301:.\Generated_Source\PSoC4/UART_1_UART.c **** *   0 - address bit does not care while comparison.
 302:.\Generated_Source\PSoC4/UART_1_UART.c **** *   1 - address bit is significant while comparison.
 303:.\Generated_Source\PSoC4/UART_1_UART.c **** *
 304:.\Generated_Source\PSoC4/UART_1_UART.c **** * Return:
 305:.\Generated_Source\PSoC4/UART_1_UART.c **** *  None
 306:.\Generated_Source\PSoC4/UART_1_UART.c **** *
 307:.\Generated_Source\PSoC4/UART_1_UART.c **** *******************************************************************************/
 308:.\Generated_Source\PSoC4/UART_1_UART.c **** void UART_1_UartSetRxAddressMask(uint32 addressMask)
 309:.\Generated_Source\PSoC4/UART_1_UART.c **** {
 190              		.loc 1 309 0
 191              		.cfi_startproc
 192 0000 80B5     		push	{r7, lr}
 193              	.LCFI5:
 194              		.cfi_def_cfa_offset 8
 195              		.cfi_offset 7, -8
 196              		.cfi_offset 14, -4
 197 0002 84B0     		sub	sp, sp, #16
 198              	.LCFI6:
 199              		.cfi_def_cfa_offset 24
 200 0004 00AF     		add	r7, sp, #0
ARM GAS  C:\Users\maxk\AppData\Local\Temp\ccnYhE5Q.s 			page 10


 201              	.LCFI7:
 202              		.cfi_def_cfa_register 7
 203 0006 7860     		str	r0, [r7, #4]
 310:.\Generated_Source\PSoC4/UART_1_UART.c ****     uint32 matchReg;
 311:.\Generated_Source\PSoC4/UART_1_UART.c ****     
 312:.\Generated_Source\PSoC4/UART_1_UART.c ****     matchReg = UART_1_RX_MATCH_REG;
 204              		.loc 1 312 0
 205 0008 084B     		ldr	r3, .L11
 206 000a 1B68     		ldr	r3, [r3]
 207 000c FB60     		str	r3, [r7, #12]
 313:.\Generated_Source\PSoC4/UART_1_UART.c ****     
 314:.\Generated_Source\PSoC4/UART_1_UART.c ****     matchReg &= ((uint32) ~UART_1_RX_MATCH_MASK_MASK); /* Clear address mask bits */
 208              		.loc 1 314 0
 209 000e FA68     		ldr	r2, [r7, #12]
 210 0010 074B     		ldr	r3, .L11+4
 211 0012 1340     		and	r3, r3, r2
 212 0014 FB60     		str	r3, [r7, #12]
 315:.\Generated_Source\PSoC4/UART_1_UART.c ****     matchReg |= ((uint32) (addressMask << UART_1_RX_MATCH_MASK_POS));
 213              		.loc 1 315 0
 214 0016 7B68     		ldr	r3, [r7, #4]
 215 0018 1B04     		lsl	r3, r3, #16
 216 001a FA68     		ldr	r2, [r7, #12]
 217 001c 1343     		orr	r3, r3, r2
 218 001e FB60     		str	r3, [r7, #12]
 316:.\Generated_Source\PSoC4/UART_1_UART.c ****     
 317:.\Generated_Source\PSoC4/UART_1_UART.c ****     UART_1_RX_MATCH_REG = matchReg;
 219              		.loc 1 317 0
 220 0020 024B     		ldr	r3, .L11
 221 0022 FA68     		ldr	r2, [r7, #12]
 222 0024 1A60     		str	r2, [r3]
 318:.\Generated_Source\PSoC4/UART_1_UART.c **** }
 223              		.loc 1 318 0
 224 0026 BD46     		mov	sp, r7
 225 0028 04B0     		add	sp, sp, #16
 226              		@ sp needed for prologue
 227 002a 80BD     		pop	{r7, pc}
 228              	.L12:
 229              		.align	2
 230              	.L11:
 231 002c 10030640 		.word	1074135824
 232 0030 FFFF00FF 		.word	-16711681
 233              		.cfi_endproc
 234              	.LFE2:
 235              		.size	UART_1_UartSetRxAddressMask, .-UART_1_UartSetRxAddressMask
 236              		.section	.text.UART_1_UartPutString,"ax",%progbits
 237              		.align	2
 238              		.global	UART_1_UartPutString
 239              		.code	16
 240              		.thumb_func
 241              		.type	UART_1_UartPutString, %function
 242              	UART_1_UartPutString:
 243              	.LFB3:
 319:.\Generated_Source\PSoC4/UART_1_UART.c **** 
 320:.\Generated_Source\PSoC4/UART_1_UART.c **** 
 321:.\Generated_Source\PSoC4/UART_1_UART.c **** #if(UART_1_UART_RX_DIRECTION)
 322:.\Generated_Source\PSoC4/UART_1_UART.c ****     /*******************************************************************************
 323:.\Generated_Source\PSoC4/UART_1_UART.c ****     * Function Name: UART_1_UartGetChar
ARM GAS  C:\Users\maxk\AppData\Local\Temp\ccnYhE5Q.s 			page 11


 324:.\Generated_Source\PSoC4/UART_1_UART.c ****     ********************************************************************************
 325:.\Generated_Source\PSoC4/UART_1_UART.c ****     *
 326:.\Generated_Source\PSoC4/UART_1_UART.c ****     * Summary:
 327:.\Generated_Source\PSoC4/UART_1_UART.c ****     *  Retrieves next data element from receive buffer.
 328:.\Generated_Source\PSoC4/UART_1_UART.c ****     *  This function is designed for ASCII characters and returns a char
 329:.\Generated_Source\PSoC4/UART_1_UART.c ****     *  where 1 to 255 is valid characters and 0 indicates an error occurred or
 330:.\Generated_Source\PSoC4/UART_1_UART.c ****     *  no data is present.
 331:.\Generated_Source\PSoC4/UART_1_UART.c ****     *  RX software buffer disabled: returns data element retrieved from RX FIFO.
 332:.\Generated_Source\PSoC4/UART_1_UART.c ****     *  Undefined data will be returned if the RX FIFO is empty.
 333:.\Generated_Source\PSoC4/UART_1_UART.c ****     *  RX software buffer enabled: Returns data element from the software receive
 334:.\Generated_Source\PSoC4/UART_1_UART.c ****     *  buffer.
 335:.\Generated_Source\PSoC4/UART_1_UART.c ****     *
 336:.\Generated_Source\PSoC4/UART_1_UART.c ****     * Parameters:
 337:.\Generated_Source\PSoC4/UART_1_UART.c ****     *  None
 338:.\Generated_Source\PSoC4/UART_1_UART.c ****     *
 339:.\Generated_Source\PSoC4/UART_1_UART.c ****     * Return:
 340:.\Generated_Source\PSoC4/UART_1_UART.c ****     *  Next data element from the receive buffer.
 341:.\Generated_Source\PSoC4/UART_1_UART.c ****     *  ASCII character values from 1 to 255 are valid.
 342:.\Generated_Source\PSoC4/UART_1_UART.c ****     *  A returned zero signifies an error condition or no data available.
 343:.\Generated_Source\PSoC4/UART_1_UART.c ****     *
 344:.\Generated_Source\PSoC4/UART_1_UART.c ****     *******************************************************************************/
 345:.\Generated_Source\PSoC4/UART_1_UART.c ****     uint32 UART_1_UartGetChar(void)
 346:.\Generated_Source\PSoC4/UART_1_UART.c ****     {
 347:.\Generated_Source\PSoC4/UART_1_UART.c ****         uint32 rxData = 0u;
 348:.\Generated_Source\PSoC4/UART_1_UART.c **** 
 349:.\Generated_Source\PSoC4/UART_1_UART.c ****         /* Read data only if there is data to read */
 350:.\Generated_Source\PSoC4/UART_1_UART.c ****         if(0u != UART_1_SpiUartGetRxBufferSize())
 351:.\Generated_Source\PSoC4/UART_1_UART.c ****         {
 352:.\Generated_Source\PSoC4/UART_1_UART.c ****             rxData = UART_1_SpiUartReadRxData();
 353:.\Generated_Source\PSoC4/UART_1_UART.c ****         }
 354:.\Generated_Source\PSoC4/UART_1_UART.c **** 
 355:.\Generated_Source\PSoC4/UART_1_UART.c ****         if(UART_1_CHECK_INTR_RX(UART_1_INTR_RX_ERR))
 356:.\Generated_Source\PSoC4/UART_1_UART.c ****         {
 357:.\Generated_Source\PSoC4/UART_1_UART.c ****             rxData = 0u; /* Error occured: return zero */
 358:.\Generated_Source\PSoC4/UART_1_UART.c ****             UART_1_ClearRxInterruptSource(UART_1_INTR_RX_ERR);
 359:.\Generated_Source\PSoC4/UART_1_UART.c ****         }
 360:.\Generated_Source\PSoC4/UART_1_UART.c **** 
 361:.\Generated_Source\PSoC4/UART_1_UART.c ****         return(rxData);
 362:.\Generated_Source\PSoC4/UART_1_UART.c ****     }
 363:.\Generated_Source\PSoC4/UART_1_UART.c **** 
 364:.\Generated_Source\PSoC4/UART_1_UART.c **** 
 365:.\Generated_Source\PSoC4/UART_1_UART.c ****     /*******************************************************************************
 366:.\Generated_Source\PSoC4/UART_1_UART.c ****     * Function Name: UART_1_UartGetByte
 367:.\Generated_Source\PSoC4/UART_1_UART.c ****     ********************************************************************************
 368:.\Generated_Source\PSoC4/UART_1_UART.c ****     *
 369:.\Generated_Source\PSoC4/UART_1_UART.c ****     * Summary:
 370:.\Generated_Source\PSoC4/UART_1_UART.c ****     *  Retrieves next data element from the receive buffer, returns received byte
 371:.\Generated_Source\PSoC4/UART_1_UART.c ****     *  and error condition.
 372:.\Generated_Source\PSoC4/UART_1_UART.c ****     *  RX software buffer disabled: Returns data element retrieved from RX FIFO.
 373:.\Generated_Source\PSoC4/UART_1_UART.c ****     *  Undefined data will be returned if the RX FIFO is empty.
 374:.\Generated_Source\PSoC4/UART_1_UART.c ****     *  RX software buffer enabled: Returns data element from the software receive
 375:.\Generated_Source\PSoC4/UART_1_UART.c ****     *  buffer.
 376:.\Generated_Source\PSoC4/UART_1_UART.c ****     *
 377:.\Generated_Source\PSoC4/UART_1_UART.c ****     * Parameters:
 378:.\Generated_Source\PSoC4/UART_1_UART.c ****     *  None
 379:.\Generated_Source\PSoC4/UART_1_UART.c ****     *
 380:.\Generated_Source\PSoC4/UART_1_UART.c ****     * Return:
ARM GAS  C:\Users\maxk\AppData\Local\Temp\ccnYhE5Q.s 			page 12


 381:.\Generated_Source\PSoC4/UART_1_UART.c ****     *  Bits 15-8 contains status and bits 7-0 contains the next data element from
 382:.\Generated_Source\PSoC4/UART_1_UART.c ****     *  receive buffer. If the bits 15-8 are nonzero, an error has occurred.
 383:.\Generated_Source\PSoC4/UART_1_UART.c ****     *
 384:.\Generated_Source\PSoC4/UART_1_UART.c ****     *******************************************************************************/
 385:.\Generated_Source\PSoC4/UART_1_UART.c ****     uint32 UART_1_UartGetByte(void)
 386:.\Generated_Source\PSoC4/UART_1_UART.c ****     {
 387:.\Generated_Source\PSoC4/UART_1_UART.c ****         uint32 rxData;
 388:.\Generated_Source\PSoC4/UART_1_UART.c ****         uint32 tmpStatus;
 389:.\Generated_Source\PSoC4/UART_1_UART.c ****         uint32 intSourceMask;
 390:.\Generated_Source\PSoC4/UART_1_UART.c **** 
 391:.\Generated_Source\PSoC4/UART_1_UART.c ****         intSourceMask = UART_1_SpiUartDisableIntRx();
 392:.\Generated_Source\PSoC4/UART_1_UART.c **** 
 393:.\Generated_Source\PSoC4/UART_1_UART.c ****         if(0u != UART_1_SpiUartGetRxBufferSize())
 394:.\Generated_Source\PSoC4/UART_1_UART.c ****         {
 395:.\Generated_Source\PSoC4/UART_1_UART.c ****              /* 
 396:.\Generated_Source\PSoC4/UART_1_UART.c ****              * Enable interrupt to receive more bytes: at least one byte is in 
 397:.\Generated_Source\PSoC4/UART_1_UART.c ****              * buffer.
 398:.\Generated_Source\PSoC4/UART_1_UART.c ****              */
 399:.\Generated_Source\PSoC4/UART_1_UART.c ****             UART_1_SpiUartEnableIntRx(intSourceMask);
 400:.\Generated_Source\PSoC4/UART_1_UART.c ****             
 401:.\Generated_Source\PSoC4/UART_1_UART.c ****             /* Get received byte */
 402:.\Generated_Source\PSoC4/UART_1_UART.c ****             rxData = UART_1_SpiUartReadRxData();
 403:.\Generated_Source\PSoC4/UART_1_UART.c ****         }
 404:.\Generated_Source\PSoC4/UART_1_UART.c ****         else
 405:.\Generated_Source\PSoC4/UART_1_UART.c ****         {
 406:.\Generated_Source\PSoC4/UART_1_UART.c ****             /* 
 407:.\Generated_Source\PSoC4/UART_1_UART.c ****             * Read byte directly from RX FIFO: the underflow is raised in case 
 408:.\Generated_Source\PSoC4/UART_1_UART.c ****             * of empty. In other case the first received byte will be read.
 409:.\Generated_Source\PSoC4/UART_1_UART.c ****             */
 410:.\Generated_Source\PSoC4/UART_1_UART.c ****             rxData = UART_1_RX_FIFO_RD_REG;
 411:.\Generated_Source\PSoC4/UART_1_UART.c ****             
 412:.\Generated_Source\PSoC4/UART_1_UART.c ****             /* 
 413:.\Generated_Source\PSoC4/UART_1_UART.c ****             * Enable interrupt to receive more bytes. 
 414:.\Generated_Source\PSoC4/UART_1_UART.c ****             * The RX_NOT_EMPTY interrupt is cleared by interrupt routine in case 
 415:.\Generated_Source\PSoC4/UART_1_UART.c ****             * byte was received and read above.
 416:.\Generated_Source\PSoC4/UART_1_UART.c ****             */
 417:.\Generated_Source\PSoC4/UART_1_UART.c ****             UART_1_SpiUartEnableIntRx(intSourceMask);
 418:.\Generated_Source\PSoC4/UART_1_UART.c ****         }
 419:.\Generated_Source\PSoC4/UART_1_UART.c **** 
 420:.\Generated_Source\PSoC4/UART_1_UART.c ****         /* Get and clear RX error mask */
 421:.\Generated_Source\PSoC4/UART_1_UART.c ****         tmpStatus = (UART_1_GetRxInterruptSource() & UART_1_INTR_RX_ERR);
 422:.\Generated_Source\PSoC4/UART_1_UART.c ****         UART_1_ClearRxInterruptSource(UART_1_INTR_RX_ERR);
 423:.\Generated_Source\PSoC4/UART_1_UART.c **** 
 424:.\Generated_Source\PSoC4/UART_1_UART.c ****         /* 
 425:.\Generated_Source\PSoC4/UART_1_UART.c ****         * Put together data and error status: 
 426:.\Generated_Source\PSoC4/UART_1_UART.c ****         * MP mode and accept address: the 9th bit is set to notify mark. 
 427:.\Generated_Source\PSoC4/UART_1_UART.c ****         */
 428:.\Generated_Source\PSoC4/UART_1_UART.c ****         rxData |= ((uint32) (tmpStatus << 8u));
 429:.\Generated_Source\PSoC4/UART_1_UART.c **** 
 430:.\Generated_Source\PSoC4/UART_1_UART.c ****         return(rxData);
 431:.\Generated_Source\PSoC4/UART_1_UART.c ****     }
 432:.\Generated_Source\PSoC4/UART_1_UART.c **** 
 433:.\Generated_Source\PSoC4/UART_1_UART.c **** #endif /* (UART_1_UART_RX_DIRECTION) */
 434:.\Generated_Source\PSoC4/UART_1_UART.c **** 
 435:.\Generated_Source\PSoC4/UART_1_UART.c **** 
 436:.\Generated_Source\PSoC4/UART_1_UART.c **** #if(UART_1_UART_TX_DIRECTION)
 437:.\Generated_Source\PSoC4/UART_1_UART.c ****     /*******************************************************************************
ARM GAS  C:\Users\maxk\AppData\Local\Temp\ccnYhE5Q.s 			page 13


 438:.\Generated_Source\PSoC4/UART_1_UART.c ****     * Function Name: UART_1_UartPutString
 439:.\Generated_Source\PSoC4/UART_1_UART.c ****     ********************************************************************************
 440:.\Generated_Source\PSoC4/UART_1_UART.c ****     *
 441:.\Generated_Source\PSoC4/UART_1_UART.c ****     * Summary:
 442:.\Generated_Source\PSoC4/UART_1_UART.c ****     *  Places a NULL terminated string in the transmit buffer to be sent at the
 443:.\Generated_Source\PSoC4/UART_1_UART.c ****     *  next available bus time.
 444:.\Generated_Source\PSoC4/UART_1_UART.c ****     *  This function is blocking and waits until there is a space available to put
 445:.\Generated_Source\PSoC4/UART_1_UART.c ****     *  all requested data in transmit buffer.
 446:.\Generated_Source\PSoC4/UART_1_UART.c ****     *
 447:.\Generated_Source\PSoC4/UART_1_UART.c ****     * Parameters:
 448:.\Generated_Source\PSoC4/UART_1_UART.c ****     *  string: pointer to the null terminated string array to be placed in the
 449:.\Generated_Source\PSoC4/UART_1_UART.c ****     *          transmit buffer.
 450:.\Generated_Source\PSoC4/UART_1_UART.c ****     *
 451:.\Generated_Source\PSoC4/UART_1_UART.c ****     * Return:
 452:.\Generated_Source\PSoC4/UART_1_UART.c ****     *  None
 453:.\Generated_Source\PSoC4/UART_1_UART.c ****     *
 454:.\Generated_Source\PSoC4/UART_1_UART.c ****     *******************************************************************************/
 455:.\Generated_Source\PSoC4/UART_1_UART.c ****     void UART_1_UartPutString(const char8 string[])
 456:.\Generated_Source\PSoC4/UART_1_UART.c ****     {
 244              		.loc 1 456 0
 245              		.cfi_startproc
 246 0000 80B5     		push	{r7, lr}
 247              	.LCFI8:
 248              		.cfi_def_cfa_offset 8
 249              		.cfi_offset 7, -8
 250              		.cfi_offset 14, -4
 251 0002 84B0     		sub	sp, sp, #16
 252              	.LCFI9:
 253              		.cfi_def_cfa_offset 24
 254 0004 00AF     		add	r7, sp, #0
 255              	.LCFI10:
 256              		.cfi_def_cfa_register 7
 257 0006 7860     		str	r0, [r7, #4]
 457:.\Generated_Source\PSoC4/UART_1_UART.c ****         uint32 bufIndex;
 458:.\Generated_Source\PSoC4/UART_1_UART.c **** 
 459:.\Generated_Source\PSoC4/UART_1_UART.c ****         bufIndex = 0u;
 258              		.loc 1 459 0
 259 0008 0023     		mov	r3, #0
 260 000a FB60     		str	r3, [r7, #12]
 460:.\Generated_Source\PSoC4/UART_1_UART.c **** 
 461:.\Generated_Source\PSoC4/UART_1_UART.c ****         /* Blocks the control flow until all data will be sent */
 462:.\Generated_Source\PSoC4/UART_1_UART.c ****         while(string[bufIndex] != ((char8) 0))
 261              		.loc 1 462 0
 262 000c 09E0     		b	.L14
 263              	.L15:
 463:.\Generated_Source\PSoC4/UART_1_UART.c ****         {
 464:.\Generated_Source\PSoC4/UART_1_UART.c ****             UART_1_UartPutChar((uint32) string[bufIndex]);
 264              		.loc 1 464 0
 265 000e 7A68     		ldr	r2, [r7, #4]
 266 0010 FB68     		ldr	r3, [r7, #12]
 267 0012 D318     		add	r3, r2, r3
 268 0014 1B78     		ldrb	r3, [r3]
 269 0016 181C     		mov	r0, r3
 270 0018 FFF7FEFF 		bl	UART_1_SpiUartWriteTxData
 465:.\Generated_Source\PSoC4/UART_1_UART.c ****             bufIndex++;
 271              		.loc 1 465 0
 272 001c FB68     		ldr	r3, [r7, #12]
ARM GAS  C:\Users\maxk\AppData\Local\Temp\ccnYhE5Q.s 			page 14


 273 001e 0133     		add	r3, r3, #1
 274 0020 FB60     		str	r3, [r7, #12]
 275              	.L14:
 276              		.loc 1 462 0
 277 0022 7A68     		ldr	r2, [r7, #4]
 278 0024 FB68     		ldr	r3, [r7, #12]
 279 0026 D318     		add	r3, r2, r3
 280 0028 1B78     		ldrb	r3, [r3]
 281 002a 002B     		cmp	r3, #0
 282 002c EFD1     		bne	.L15
 466:.\Generated_Source\PSoC4/UART_1_UART.c ****         }
 467:.\Generated_Source\PSoC4/UART_1_UART.c ****     }
 283              		.loc 1 467 0
 284 002e BD46     		mov	sp, r7
 285 0030 04B0     		add	sp, sp, #16
 286              		@ sp needed for prologue
 287 0032 80BD     		pop	{r7, pc}
 288              		.cfi_endproc
 289              	.LFE3:
 290              		.size	UART_1_UartPutString, .-UART_1_UartPutString
 291              		.section	.text.UART_1_UartPutCRLF,"ax",%progbits
 292              		.align	2
 293              		.global	UART_1_UartPutCRLF
 294              		.code	16
 295              		.thumb_func
 296              		.type	UART_1_UartPutCRLF, %function
 297              	UART_1_UartPutCRLF:
 298              	.LFB4:
 468:.\Generated_Source\PSoC4/UART_1_UART.c **** 
 469:.\Generated_Source\PSoC4/UART_1_UART.c **** 
 470:.\Generated_Source\PSoC4/UART_1_UART.c ****     /*******************************************************************************
 471:.\Generated_Source\PSoC4/UART_1_UART.c ****     * Function Name: UART_1_UartPutCRLF
 472:.\Generated_Source\PSoC4/UART_1_UART.c ****     ********************************************************************************
 473:.\Generated_Source\PSoC4/UART_1_UART.c ****     *
 474:.\Generated_Source\PSoC4/UART_1_UART.c ****     * Summary:
 475:.\Generated_Source\PSoC4/UART_1_UART.c ****     *  Places byte of data followed by a carriage return (0x0D) and line feed (0x0A)
 476:.\Generated_Source\PSoC4/UART_1_UART.c ****     *  to the transmit buffer.
 477:.\Generated_Source\PSoC4/UART_1_UART.c ****     *  This function is blocking and waits until there is a space available to put
 478:.\Generated_Source\PSoC4/UART_1_UART.c ****     *  all requested data in transmit buffer.
 479:.\Generated_Source\PSoC4/UART_1_UART.c ****     *
 480:.\Generated_Source\PSoC4/UART_1_UART.c ****     * Parameters:
 481:.\Generated_Source\PSoC4/UART_1_UART.c ****     *  txDataByte : the data to be transmitted.
 482:.\Generated_Source\PSoC4/UART_1_UART.c ****     *
 483:.\Generated_Source\PSoC4/UART_1_UART.c ****     * Return:
 484:.\Generated_Source\PSoC4/UART_1_UART.c ****     *  None
 485:.\Generated_Source\PSoC4/UART_1_UART.c ****     *
 486:.\Generated_Source\PSoC4/UART_1_UART.c ****     *******************************************************************************/
 487:.\Generated_Source\PSoC4/UART_1_UART.c ****     void UART_1_UartPutCRLF(uint32 txDataByte)
 488:.\Generated_Source\PSoC4/UART_1_UART.c ****     {
 299              		.loc 1 488 0
 300              		.cfi_startproc
 301 0000 80B5     		push	{r7, lr}
 302              	.LCFI11:
 303              		.cfi_def_cfa_offset 8
 304              		.cfi_offset 7, -8
 305              		.cfi_offset 14, -4
 306 0002 82B0     		sub	sp, sp, #8
ARM GAS  C:\Users\maxk\AppData\Local\Temp\ccnYhE5Q.s 			page 15


 307              	.LCFI12:
 308              		.cfi_def_cfa_offset 16
 309 0004 00AF     		add	r7, sp, #0
 310              	.LCFI13:
 311              		.cfi_def_cfa_register 7
 312 0006 7860     		str	r0, [r7, #4]
 489:.\Generated_Source\PSoC4/UART_1_UART.c ****         UART_1_UartPutChar(txDataByte);  /* Blocks the control flow until all data will be sent */
 313              		.loc 1 489 0
 314 0008 7B68     		ldr	r3, [r7, #4]
 315 000a 181C     		mov	r0, r3
 316 000c FFF7FEFF 		bl	UART_1_SpiUartWriteTxData
 490:.\Generated_Source\PSoC4/UART_1_UART.c ****         UART_1_UartPutChar(0x0Du);       /* Blocks the control flow until all data will be sent */
 317              		.loc 1 490 0
 318 0010 0D20     		mov	r0, #13
 319 0012 FFF7FEFF 		bl	UART_1_SpiUartWriteTxData
 491:.\Generated_Source\PSoC4/UART_1_UART.c ****         UART_1_UartPutChar(0x0Au);       /* Blocks the control flow until all data will be sent */
 320              		.loc 1 491 0
 321 0016 0A20     		mov	r0, #10
 322 0018 FFF7FEFF 		bl	UART_1_SpiUartWriteTxData
 492:.\Generated_Source\PSoC4/UART_1_UART.c ****     }
 323              		.loc 1 492 0
 324 001c BD46     		mov	sp, r7
 325 001e 02B0     		add	sp, sp, #8
 326              		@ sp needed for prologue
 327 0020 80BD     		pop	{r7, pc}
 328              		.cfi_endproc
 329              	.LFE4:
 330              		.size	UART_1_UartPutCRLF, .-UART_1_UartPutCRLF
 331 0022 C046     		.section	.text.UART_1_UartSaveConfig,"ax",%progbits
 332              		.align	2
 333              		.global	UART_1_UartSaveConfig
 334              		.code	16
 335              		.thumb_func
 336              		.type	UART_1_UartSaveConfig, %function
 337              	UART_1_UartSaveConfig:
 338              	.LFB5:
 493:.\Generated_Source\PSoC4/UART_1_UART.c **** #endif /* (UART_1_UART_TX_DIRECTION) */
 494:.\Generated_Source\PSoC4/UART_1_UART.c **** 
 495:.\Generated_Source\PSoC4/UART_1_UART.c **** 
 496:.\Generated_Source\PSoC4/UART_1_UART.c **** /*******************************************************************************
 497:.\Generated_Source\PSoC4/UART_1_UART.c **** * Function Name: UART_1_UartSaveConfig
 498:.\Generated_Source\PSoC4/UART_1_UART.c **** ********************************************************************************
 499:.\Generated_Source\PSoC4/UART_1_UART.c **** *
 500:.\Generated_Source\PSoC4/UART_1_UART.c **** * Summary:
 501:.\Generated_Source\PSoC4/UART_1_UART.c **** *  Wakeup disabled: does nothing.
 502:.\Generated_Source\PSoC4/UART_1_UART.c **** *  Wakeup enabled: clears SCB_backup.enableStateto keep component enabled while
 503:.\Generated_Source\PSoC4/UART_1_UART.c **** *  DeepSleep. Clears and enables interrupt on falling edge of rx input. The GPIO
 504:.\Generated_Source\PSoC4/UART_1_UART.c **** *  event wakes up the device and SKIP_START feature allows UART continue
 505:.\Generated_Source\PSoC4/UART_1_UART.c **** *  receiving data bytes properly. The GPIO interrupt does not track in active mode
 506:.\Generated_Source\PSoC4/UART_1_UART.c **** *  therefore requires to be cleared by this API. It makes uart wakeup single
 507:.\Generated_Source\PSoC4/UART_1_UART.c **** *  triggered event.
 508:.\Generated_Source\PSoC4/UART_1_UART.c **** *
 509:.\Generated_Source\PSoC4/UART_1_UART.c **** * Parameters:
 510:.\Generated_Source\PSoC4/UART_1_UART.c **** *  None
 511:.\Generated_Source\PSoC4/UART_1_UART.c **** *
 512:.\Generated_Source\PSoC4/UART_1_UART.c **** * Return:
 513:.\Generated_Source\PSoC4/UART_1_UART.c **** *  None
ARM GAS  C:\Users\maxk\AppData\Local\Temp\ccnYhE5Q.s 			page 16


 514:.\Generated_Source\PSoC4/UART_1_UART.c **** *
 515:.\Generated_Source\PSoC4/UART_1_UART.c **** *******************************************************************************/
 516:.\Generated_Source\PSoC4/UART_1_UART.c **** void UART_1_UartSaveConfig(void)
 517:.\Generated_Source\PSoC4/UART_1_UART.c **** {
 339              		.loc 1 517 0
 340              		.cfi_startproc
 341 0000 80B5     		push	{r7, lr}
 342              	.LCFI14:
 343              		.cfi_def_cfa_offset 8
 344              		.cfi_offset 7, -8
 345              		.cfi_offset 14, -4
 346 0002 00AF     		add	r7, sp, #0
 347              	.LCFI15:
 348              		.cfi_def_cfa_register 7
 518:.\Generated_Source\PSoC4/UART_1_UART.c ****     #if(UART_1_CHECK_UART_WAKE_ENABLE)
 519:.\Generated_Source\PSoC4/UART_1_UART.c ****     {
 520:.\Generated_Source\PSoC4/UART_1_UART.c ****         UART_1_backup.enableState = 0u; /* Keep SCB enabled */
 521:.\Generated_Source\PSoC4/UART_1_UART.c **** 
 522:.\Generated_Source\PSoC4/UART_1_UART.c ****         /*
 523:.\Generated_Source\PSoC4/UART_1_UART.c ****         * Clear interrupt activy:
 524:.\Generated_Source\PSoC4/UART_1_UART.c ****         *  - set skip start and disable RX. On GPIO wakeup the RX will be enabled.
 525:.\Generated_Source\PSoC4/UART_1_UART.c ****         *  - clear rx_wake interrupt source as it triggers while normal operations.
 526:.\Generated_Source\PSoC4/UART_1_UART.c ****         *  - clear wake interrupt pending state as it becomes pending in active mode.
 527:.\Generated_Source\PSoC4/UART_1_UART.c ****         */
 528:.\Generated_Source\PSoC4/UART_1_UART.c **** 
 529:.\Generated_Source\PSoC4/UART_1_UART.c ****         UART_1_UART_RX_CTRL_REG |= UART_1_UART_RX_CTRL_SKIP_START;
 530:.\Generated_Source\PSoC4/UART_1_UART.c **** 
 531:.\Generated_Source\PSoC4/UART_1_UART.c ****         #if(UART_1_SCB_MODE_UNCONFIG_CONST_CFG)
 532:.\Generated_Source\PSoC4/UART_1_UART.c ****             #if(UART_1_MOSI_SCL_RX_WAKE_PIN)
 533:.\Generated_Source\PSoC4/UART_1_UART.c ****                 (void) UART_1_spi_mosi_i2c_scl_uart_rx_wake_ClearInterrupt();
 534:.\Generated_Source\PSoC4/UART_1_UART.c ****             #endif /* (UART_1_MOSI_SCL_RX_WAKE_PIN) */
 535:.\Generated_Source\PSoC4/UART_1_UART.c ****         #else
 536:.\Generated_Source\PSoC4/UART_1_UART.c ****             #if(UART_1_UART_RX_WAKE_PIN)
 537:.\Generated_Source\PSoC4/UART_1_UART.c ****                 (void) UART_1_rx_wake_ClearInterrupt();
 538:.\Generated_Source\PSoC4/UART_1_UART.c ****             #endif /* (UART_1_UART_RX_WAKE_PIN) */
 539:.\Generated_Source\PSoC4/UART_1_UART.c ****         #endif /* (UART_1_SCB_MODE_UNCONFIG_CONST_CFG) */
 540:.\Generated_Source\PSoC4/UART_1_UART.c **** 
 541:.\Generated_Source\PSoC4/UART_1_UART.c ****         #if(UART_1_UART_RX_WAKEUP_IRQ)
 542:.\Generated_Source\PSoC4/UART_1_UART.c ****             UART_1_RX_WAKEUP_IRQ_ClearPending();
 543:.\Generated_Source\PSoC4/UART_1_UART.c ****             UART_1_RX_WAKEUP_IRQ_Enable();
 544:.\Generated_Source\PSoC4/UART_1_UART.c ****         #endif /* (UART_1_UART_RX_WAKEUP_IRQ) */
 545:.\Generated_Source\PSoC4/UART_1_UART.c ****     }
 546:.\Generated_Source\PSoC4/UART_1_UART.c ****     #endif
 547:.\Generated_Source\PSoC4/UART_1_UART.c **** }
 349              		.loc 1 547 0
 350 0004 BD46     		mov	sp, r7
 351              		@ sp needed for prologue
 352 0006 80BD     		pop	{r7, pc}
 353              		.cfi_endproc
 354              	.LFE5:
 355              		.size	UART_1_UartSaveConfig, .-UART_1_UartSaveConfig
 356              		.section	.text.UART_1_UartRestoreConfig,"ax",%progbits
 357              		.align	2
 358              		.global	UART_1_UartRestoreConfig
 359              		.code	16
 360              		.thumb_func
 361              		.type	UART_1_UartRestoreConfig, %function
ARM GAS  C:\Users\maxk\AppData\Local\Temp\ccnYhE5Q.s 			page 17


 362              	UART_1_UartRestoreConfig:
 363              	.LFB6:
 548:.\Generated_Source\PSoC4/UART_1_UART.c **** 
 549:.\Generated_Source\PSoC4/UART_1_UART.c **** 
 550:.\Generated_Source\PSoC4/UART_1_UART.c **** /*******************************************************************************
 551:.\Generated_Source\PSoC4/UART_1_UART.c **** * Function Name: UART_1_UartRestoreConfig
 552:.\Generated_Source\PSoC4/UART_1_UART.c **** ********************************************************************************
 553:.\Generated_Source\PSoC4/UART_1_UART.c **** *
 554:.\Generated_Source\PSoC4/UART_1_UART.c **** * Summary:
 555:.\Generated_Source\PSoC4/UART_1_UART.c **** *  Does nothing.
 556:.\Generated_Source\PSoC4/UART_1_UART.c **** *
 557:.\Generated_Source\PSoC4/UART_1_UART.c **** * Parameters:
 558:.\Generated_Source\PSoC4/UART_1_UART.c **** *  None
 559:.\Generated_Source\PSoC4/UART_1_UART.c **** *
 560:.\Generated_Source\PSoC4/UART_1_UART.c **** * Return:
 561:.\Generated_Source\PSoC4/UART_1_UART.c **** *  None
 562:.\Generated_Source\PSoC4/UART_1_UART.c **** *
 563:.\Generated_Source\PSoC4/UART_1_UART.c **** *******************************************************************************/
 564:.\Generated_Source\PSoC4/UART_1_UART.c **** void UART_1_UartRestoreConfig(void)
 565:.\Generated_Source\PSoC4/UART_1_UART.c **** {
 364              		.loc 1 565 0
 365              		.cfi_startproc
 366 0000 80B5     		push	{r7, lr}
 367              	.LCFI16:
 368              		.cfi_def_cfa_offset 8
 369              		.cfi_offset 7, -8
 370              		.cfi_offset 14, -4
 371 0002 00AF     		add	r7, sp, #0
 372              	.LCFI17:
 373              		.cfi_def_cfa_register 7
 566:.\Generated_Source\PSoC4/UART_1_UART.c ****     #if(UART_1_CHECK_UART_WAKE_ENABLE)
 567:.\Generated_Source\PSoC4/UART_1_UART.c ****     {
 568:.\Generated_Source\PSoC4/UART_1_UART.c ****         /* Does nothing: after exit DeepSleep next Start bit handling becomes normal */
 569:.\Generated_Source\PSoC4/UART_1_UART.c ****         
 570:.\Generated_Source\PSoC4/UART_1_UART.c ****         /* Disable RX GPIO interrupt: no more triggers in active mode */
 571:.\Generated_Source\PSoC4/UART_1_UART.c ****         #if(UART_1_UART_RX_WAKEUP_IRQ)
 572:.\Generated_Source\PSoC4/UART_1_UART.c ****             UART_1_RX_WAKEUP_IRQ_Disable();
 573:.\Generated_Source\PSoC4/UART_1_UART.c ****         #endif /* (UART_1_UART_RX_WAKEUP_IRQ) */
 574:.\Generated_Source\PSoC4/UART_1_UART.c ****     }
 575:.\Generated_Source\PSoC4/UART_1_UART.c ****     #endif
 576:.\Generated_Source\PSoC4/UART_1_UART.c **** }
 374              		.loc 1 576 0
 375 0004 BD46     		mov	sp, r7
 376              		@ sp needed for prologue
 377 0006 80BD     		pop	{r7, pc}
 378              		.cfi_endproc
 379              	.LFE6:
 380              		.size	UART_1_UartRestoreConfig, .-UART_1_UartRestoreConfig
 381              		.text
 382              	.Letext0: