ARM GAS  C:\Users\maxk\AppData\Local\Temp\ccBxsthB.s 			page 1


   1              		.cpu cortex-m0
   2              		.fpu softvfp
   3              		.eabi_attribute 20, 1
   4              		.eabi_attribute 21, 1
   5              		.eabi_attribute 23, 3
   6              		.eabi_attribute 24, 1
   7              		.eabi_attribute 25, 1
   8              		.eabi_attribute 26, 1
   9              		.eabi_attribute 30, 6
  10              		.eabi_attribute 18, 4
  11              		.code	16
  12              		.file	"UART_1_SPI_UART.c"
  19 0000 E8000000 		.text
  19      02006800 
  19      00000201 
  19      FB0E0D00 
  19      01010101 
  20              	.Ltext0:
  21              		.cfi_sections	.debug_frame
  22              		.section	.text.UART_1_SpiUartWriteTxData,"ax",%progbits
  23              		.align	2
  24              		.global	UART_1_SpiUartWriteTxData
  25              		.code	16
  26              		.thumb_func
  27              		.type	UART_1_SpiUartWriteTxData, %function
  28              	UART_1_SpiUartWriteTxData:
  29              	.LFB0:
  30              		.file 1 ".\\Generated_Source\\PSoC4\\UART_1_SPI_UART.c"
   1:.\Generated_Source\PSoC4/UART_1_SPI_UART.c **** /*******************************************************************************
   2:.\Generated_Source\PSoC4/UART_1_SPI_UART.c **** * File Name: UART_1_SPI_UART.c
   3:.\Generated_Source\PSoC4/UART_1_SPI_UART.c **** * Version 1.0
   4:.\Generated_Source\PSoC4/UART_1_SPI_UART.c **** *
   5:.\Generated_Source\PSoC4/UART_1_SPI_UART.c **** * Description:
   6:.\Generated_Source\PSoC4/UART_1_SPI_UART.c **** *  This file provides the source code to the API for the SCB Component in
   7:.\Generated_Source\PSoC4/UART_1_SPI_UART.c **** *  SPI and UART modes.
   8:.\Generated_Source\PSoC4/UART_1_SPI_UART.c **** *
   9:.\Generated_Source\PSoC4/UART_1_SPI_UART.c **** * Note:
  10:.\Generated_Source\PSoC4/UART_1_SPI_UART.c **** *
  11:.\Generated_Source\PSoC4/UART_1_SPI_UART.c **** *******************************************************************************
  12:.\Generated_Source\PSoC4/UART_1_SPI_UART.c **** * Copyright 2013, Cypress Semiconductor Corporation.  All rights reserved.
  13:.\Generated_Source\PSoC4/UART_1_SPI_UART.c **** * You may use this file only in accordance with the license, terms, conditions,
  14:.\Generated_Source\PSoC4/UART_1_SPI_UART.c **** * disclaimers, and limitations in the end user license agreement accompanying
  15:.\Generated_Source\PSoC4/UART_1_SPI_UART.c **** * the software package with which this file was provided.
  16:.\Generated_Source\PSoC4/UART_1_SPI_UART.c **** *******************************************************************************/
  17:.\Generated_Source\PSoC4/UART_1_SPI_UART.c **** 
  18:.\Generated_Source\PSoC4/UART_1_SPI_UART.c **** #include "UART_1_SPI_UART_PVT.h"
  19:.\Generated_Source\PSoC4/UART_1_SPI_UART.c **** 
  20:.\Generated_Source\PSoC4/UART_1_SPI_UART.c **** 
  21:.\Generated_Source\PSoC4/UART_1_SPI_UART.c **** /***************************************
  22:.\Generated_Source\PSoC4/UART_1_SPI_UART.c **** *        SPI/UART Private Vars
  23:.\Generated_Source\PSoC4/UART_1_SPI_UART.c **** ***************************************/
ARM GAS  C:\Users\maxk\AppData\Local\Temp\ccBxsthB.s 			page 2


  24:.\Generated_Source\PSoC4/UART_1_SPI_UART.c **** 
  25:.\Generated_Source\PSoC4/UART_1_SPI_UART.c **** #if(UART_1_INTERNAL_RX_SW_BUFFER_CONST)
  26:.\Generated_Source\PSoC4/UART_1_SPI_UART.c ****     volatile uint32 UART_1_rxBufferHead;
  27:.\Generated_Source\PSoC4/UART_1_SPI_UART.c ****     volatile uint32 UART_1_rxBufferTail;
  28:.\Generated_Source\PSoC4/UART_1_SPI_UART.c ****     volatile uint8  UART_1_rxBufferOverflow;
  29:.\Generated_Source\PSoC4/UART_1_SPI_UART.c **** #endif /* (UART_1_INTERNAL_RX_SW_BUFFER_CONST) */
  30:.\Generated_Source\PSoC4/UART_1_SPI_UART.c **** 
  31:.\Generated_Source\PSoC4/UART_1_SPI_UART.c **** #if(UART_1_INTERNAL_TX_SW_BUFFER_CONST)
  32:.\Generated_Source\PSoC4/UART_1_SPI_UART.c ****     volatile uint32 UART_1_txBufferHead;
  33:.\Generated_Source\PSoC4/UART_1_SPI_UART.c ****     volatile uint32 UART_1_txBufferTail;
  34:.\Generated_Source\PSoC4/UART_1_SPI_UART.c **** #endif /* (UART_1_INTERNAL_TX_SW_BUFFER_CONST) */
  35:.\Generated_Source\PSoC4/UART_1_SPI_UART.c **** 
  36:.\Generated_Source\PSoC4/UART_1_SPI_UART.c **** #if(UART_1_INTERNAL_RX_SW_BUFFER)
  37:.\Generated_Source\PSoC4/UART_1_SPI_UART.c ****     /* Add one element to the buffer to receive full packet. One byte in receive buffer is always e
  38:.\Generated_Source\PSoC4/UART_1_SPI_UART.c ****     volatile uint8 UART_1_rxBufferInternal[UART_1_RX_BUFFER_SIZE];
  39:.\Generated_Source\PSoC4/UART_1_SPI_UART.c **** #endif /* (UART_1_INTERNAL_RX_SW_BUFFER) */
  40:.\Generated_Source\PSoC4/UART_1_SPI_UART.c **** 
  41:.\Generated_Source\PSoC4/UART_1_SPI_UART.c **** #if(UART_1_INTERNAL_TX_SW_BUFFER)
  42:.\Generated_Source\PSoC4/UART_1_SPI_UART.c ****     volatile uint8 UART_1_txBufferInternal[UART_1_TX_BUFFER_SIZE];
  43:.\Generated_Source\PSoC4/UART_1_SPI_UART.c **** #endif /* (UART_1_INTERNAL_TX_SW_BUFFER) */
  44:.\Generated_Source\PSoC4/UART_1_SPI_UART.c **** 
  45:.\Generated_Source\PSoC4/UART_1_SPI_UART.c **** 
  46:.\Generated_Source\PSoC4/UART_1_SPI_UART.c **** #if(UART_1_RX_DIRECTION)
  47:.\Generated_Source\PSoC4/UART_1_SPI_UART.c **** 
  48:.\Generated_Source\PSoC4/UART_1_SPI_UART.c ****     /*******************************************************************************
  49:.\Generated_Source\PSoC4/UART_1_SPI_UART.c ****     * Function Name: UART_1_SpiUartReadRxData
  50:.\Generated_Source\PSoC4/UART_1_SPI_UART.c ****     ********************************************************************************
  51:.\Generated_Source\PSoC4/UART_1_SPI_UART.c ****     *
  52:.\Generated_Source\PSoC4/UART_1_SPI_UART.c ****     * Summary:
  53:.\Generated_Source\PSoC4/UART_1_SPI_UART.c ****     *  Retrieves the next data element from the receive buffer. Undefined data will
  54:.\Generated_Source\PSoC4/UART_1_SPI_UART.c ****     *  be returned if the RX buffer is empty.
  55:.\Generated_Source\PSoC4/UART_1_SPI_UART.c ****     *  Call UART_1_SpiUartGetRxBufferSize() to return buffer size.
  56:.\Generated_Source\PSoC4/UART_1_SPI_UART.c ****     *   - RX software buffer disabled: Returns data element retrieved from RX FIFO.
  57:.\Generated_Source\PSoC4/UART_1_SPI_UART.c ****     *   - RX software buffer enabled: Returns data element from the software
  58:.\Generated_Source\PSoC4/UART_1_SPI_UART.c ****     *     receive buffer.
  59:.\Generated_Source\PSoC4/UART_1_SPI_UART.c ****     *
  60:.\Generated_Source\PSoC4/UART_1_SPI_UART.c ****     * Parameters:
  61:.\Generated_Source\PSoC4/UART_1_SPI_UART.c ****     *  None
  62:.\Generated_Source\PSoC4/UART_1_SPI_UART.c ****     *
  63:.\Generated_Source\PSoC4/UART_1_SPI_UART.c ****     * Return:
  64:.\Generated_Source\PSoC4/UART_1_SPI_UART.c ****     *  Next data element from the receive buffer.
  65:.\Generated_Source\PSoC4/UART_1_SPI_UART.c ****     *
  66:.\Generated_Source\PSoC4/UART_1_SPI_UART.c ****     * Global Variables:
  67:.\Generated_Source\PSoC4/UART_1_SPI_UART.c ****     *  Look into UART_1_SpiInit for description.
  68:.\Generated_Source\PSoC4/UART_1_SPI_UART.c ****     *
  69:.\Generated_Source\PSoC4/UART_1_SPI_UART.c ****     *******************************************************************************/
  70:.\Generated_Source\PSoC4/UART_1_SPI_UART.c ****     uint32 UART_1_SpiUartReadRxData(void)
  71:.\Generated_Source\PSoC4/UART_1_SPI_UART.c ****     {
  72:.\Generated_Source\PSoC4/UART_1_SPI_UART.c ****         uint32 rxData = 0u;
  73:.\Generated_Source\PSoC4/UART_1_SPI_UART.c ****         
  74:.\Generated_Source\PSoC4/UART_1_SPI_UART.c ****         #if(UART_1_INTERNAL_RX_SW_BUFFER_CONST)
  75:.\Generated_Source\PSoC4/UART_1_SPI_UART.c ****             uint32 locTail;
  76:.\Generated_Source\PSoC4/UART_1_SPI_UART.c ****         #endif /* (UART_1_INTERNAL_RX_SW_BUFFER_CONST) */
  77:.\Generated_Source\PSoC4/UART_1_SPI_UART.c **** 
  78:.\Generated_Source\PSoC4/UART_1_SPI_UART.c ****         #if(UART_1_CHECK_RX_SW_BUFFER)
  79:.\Generated_Source\PSoC4/UART_1_SPI_UART.c ****         {
  80:.\Generated_Source\PSoC4/UART_1_SPI_UART.c ****             if(UART_1_rxBufferHead != UART_1_rxBufferTail)
ARM GAS  C:\Users\maxk\AppData\Local\Temp\ccBxsthB.s 			page 3


  81:.\Generated_Source\PSoC4/UART_1_SPI_UART.c ****             {
  82:.\Generated_Source\PSoC4/UART_1_SPI_UART.c ****                 /* There is data in RX software buffer */
  83:.\Generated_Source\PSoC4/UART_1_SPI_UART.c **** 
  84:.\Generated_Source\PSoC4/UART_1_SPI_UART.c ****                 /* Calculate index to read from */
  85:.\Generated_Source\PSoC4/UART_1_SPI_UART.c ****                 locTail = (UART_1_rxBufferTail + 1u);
  86:.\Generated_Source\PSoC4/UART_1_SPI_UART.c **** 
  87:.\Generated_Source\PSoC4/UART_1_SPI_UART.c ****                 if(UART_1_RX_BUFFER_SIZE == locTail)
  88:.\Generated_Source\PSoC4/UART_1_SPI_UART.c ****                 {
  89:.\Generated_Source\PSoC4/UART_1_SPI_UART.c ****                     locTail = 0u;
  90:.\Generated_Source\PSoC4/UART_1_SPI_UART.c ****                 }
  91:.\Generated_Source\PSoC4/UART_1_SPI_UART.c **** 
  92:.\Generated_Source\PSoC4/UART_1_SPI_UART.c ****                 /* Get data fron RX software buffer */
  93:.\Generated_Source\PSoC4/UART_1_SPI_UART.c ****                 rxData = UART_1_GetWordFromRxBuffer(locTail);
  94:.\Generated_Source\PSoC4/UART_1_SPI_UART.c **** 
  95:.\Generated_Source\PSoC4/UART_1_SPI_UART.c ****                 /* Change index in the buffer */
  96:.\Generated_Source\PSoC4/UART_1_SPI_UART.c ****                 UART_1_rxBufferTail = locTail;
  97:.\Generated_Source\PSoC4/UART_1_SPI_UART.c ****             }
  98:.\Generated_Source\PSoC4/UART_1_SPI_UART.c ****         }
  99:.\Generated_Source\PSoC4/UART_1_SPI_UART.c ****         #else
 100:.\Generated_Source\PSoC4/UART_1_SPI_UART.c ****         {
 101:.\Generated_Source\PSoC4/UART_1_SPI_UART.c ****             rxData = UART_1_RX_FIFO_RD_REG; /* Read data from RX FIFO */
 102:.\Generated_Source\PSoC4/UART_1_SPI_UART.c ****         }
 103:.\Generated_Source\PSoC4/UART_1_SPI_UART.c ****         #endif
 104:.\Generated_Source\PSoC4/UART_1_SPI_UART.c **** 
 105:.\Generated_Source\PSoC4/UART_1_SPI_UART.c ****         return(rxData);
 106:.\Generated_Source\PSoC4/UART_1_SPI_UART.c ****     }
 107:.\Generated_Source\PSoC4/UART_1_SPI_UART.c **** 
 108:.\Generated_Source\PSoC4/UART_1_SPI_UART.c **** 
 109:.\Generated_Source\PSoC4/UART_1_SPI_UART.c ****     /*******************************************************************************
 110:.\Generated_Source\PSoC4/UART_1_SPI_UART.c ****     * Function Name: UART_1_SpiUartGetRxBufferSize
 111:.\Generated_Source\PSoC4/UART_1_SPI_UART.c ****     ********************************************************************************
 112:.\Generated_Source\PSoC4/UART_1_SPI_UART.c ****     *
 113:.\Generated_Source\PSoC4/UART_1_SPI_UART.c ****     * Summary:
 114:.\Generated_Source\PSoC4/UART_1_SPI_UART.c ****     *  Returns the number of received data elements in the receive buffer.
 115:.\Generated_Source\PSoC4/UART_1_SPI_UART.c ****     *   - RX software buffer disabled: returns the number of used entries in
 116:.\Generated_Source\PSoC4/UART_1_SPI_UART.c ****     *     RX FIFO.
 117:.\Generated_Source\PSoC4/UART_1_SPI_UART.c ****     *   - RX software buffer enabled: returns the number of elements which were
 118:.\Generated_Source\PSoC4/UART_1_SPI_UART.c ****     *     placed in receive buffer.
 119:.\Generated_Source\PSoC4/UART_1_SPI_UART.c ****     *
 120:.\Generated_Source\PSoC4/UART_1_SPI_UART.c ****     * Parameters:
 121:.\Generated_Source\PSoC4/UART_1_SPI_UART.c ****     *  None
 122:.\Generated_Source\PSoC4/UART_1_SPI_UART.c ****     *
 123:.\Generated_Source\PSoC4/UART_1_SPI_UART.c ****     * Return:
 124:.\Generated_Source\PSoC4/UART_1_SPI_UART.c ****     *  Number of received data elements
 125:.\Generated_Source\PSoC4/UART_1_SPI_UART.c ****     *
 126:.\Generated_Source\PSoC4/UART_1_SPI_UART.c ****     *******************************************************************************/
 127:.\Generated_Source\PSoC4/UART_1_SPI_UART.c ****     uint32 UART_1_SpiUartGetRxBufferSize(void)
 128:.\Generated_Source\PSoC4/UART_1_SPI_UART.c ****     {
 129:.\Generated_Source\PSoC4/UART_1_SPI_UART.c ****         uint32 size;
 130:.\Generated_Source\PSoC4/UART_1_SPI_UART.c ****         #if(UART_1_INTERNAL_RX_SW_BUFFER_CONST)
 131:.\Generated_Source\PSoC4/UART_1_SPI_UART.c ****             uint32 locHead;
 132:.\Generated_Source\PSoC4/UART_1_SPI_UART.c ****         #endif /* (UART_1_INTERNAL_RX_SW_BUFFER_CONST) */
 133:.\Generated_Source\PSoC4/UART_1_SPI_UART.c **** 
 134:.\Generated_Source\PSoC4/UART_1_SPI_UART.c ****         #if(UART_1_CHECK_RX_SW_BUFFER)
 135:.\Generated_Source\PSoC4/UART_1_SPI_UART.c ****         {
 136:.\Generated_Source\PSoC4/UART_1_SPI_UART.c ****             locHead = UART_1_rxBufferHead;
 137:.\Generated_Source\PSoC4/UART_1_SPI_UART.c **** 
ARM GAS  C:\Users\maxk\AppData\Local\Temp\ccBxsthB.s 			page 4


 138:.\Generated_Source\PSoC4/UART_1_SPI_UART.c ****             if(locHead >= UART_1_rxBufferTail)
 139:.\Generated_Source\PSoC4/UART_1_SPI_UART.c ****             {
 140:.\Generated_Source\PSoC4/UART_1_SPI_UART.c ****                 size = (locHead - UART_1_rxBufferTail);
 141:.\Generated_Source\PSoC4/UART_1_SPI_UART.c ****             }
 142:.\Generated_Source\PSoC4/UART_1_SPI_UART.c ****             else
 143:.\Generated_Source\PSoC4/UART_1_SPI_UART.c ****             {
 144:.\Generated_Source\PSoC4/UART_1_SPI_UART.c ****                 size = (locHead + (UART_1_RX_BUFFER_SIZE - UART_1_rxBufferTail));
 145:.\Generated_Source\PSoC4/UART_1_SPI_UART.c ****             }
 146:.\Generated_Source\PSoC4/UART_1_SPI_UART.c ****         }
 147:.\Generated_Source\PSoC4/UART_1_SPI_UART.c ****         #else
 148:.\Generated_Source\PSoC4/UART_1_SPI_UART.c ****         {
 149:.\Generated_Source\PSoC4/UART_1_SPI_UART.c ****             size = UART_1_GET_RX_FIFO_ENTRIES;
 150:.\Generated_Source\PSoC4/UART_1_SPI_UART.c ****         }
 151:.\Generated_Source\PSoC4/UART_1_SPI_UART.c ****         #endif
 152:.\Generated_Source\PSoC4/UART_1_SPI_UART.c **** 
 153:.\Generated_Source\PSoC4/UART_1_SPI_UART.c ****         return(size);
 154:.\Generated_Source\PSoC4/UART_1_SPI_UART.c ****     }
 155:.\Generated_Source\PSoC4/UART_1_SPI_UART.c **** 
 156:.\Generated_Source\PSoC4/UART_1_SPI_UART.c **** 
 157:.\Generated_Source\PSoC4/UART_1_SPI_UART.c ****     /*******************************************************************************
 158:.\Generated_Source\PSoC4/UART_1_SPI_UART.c ****     * Function Name: UART_1_SpiUartClearRxBuffer
 159:.\Generated_Source\PSoC4/UART_1_SPI_UART.c ****     ********************************************************************************
 160:.\Generated_Source\PSoC4/UART_1_SPI_UART.c ****     *
 161:.\Generated_Source\PSoC4/UART_1_SPI_UART.c ****     * Summary:
 162:.\Generated_Source\PSoC4/UART_1_SPI_UART.c ****     *  Clear the receive buffer and RX FIFO.
 163:.\Generated_Source\PSoC4/UART_1_SPI_UART.c ****     *
 164:.\Generated_Source\PSoC4/UART_1_SPI_UART.c ****     * Parameters:
 165:.\Generated_Source\PSoC4/UART_1_SPI_UART.c ****     *  None
 166:.\Generated_Source\PSoC4/UART_1_SPI_UART.c ****     *
 167:.\Generated_Source\PSoC4/UART_1_SPI_UART.c ****     * Return:
 168:.\Generated_Source\PSoC4/UART_1_SPI_UART.c ****     *  None
 169:.\Generated_Source\PSoC4/UART_1_SPI_UART.c ****     *
 170:.\Generated_Source\PSoC4/UART_1_SPI_UART.c ****     *******************************************************************************/
 171:.\Generated_Source\PSoC4/UART_1_SPI_UART.c ****     void UART_1_SpiUartClearRxBuffer(void)
 172:.\Generated_Source\PSoC4/UART_1_SPI_UART.c ****     {
 173:.\Generated_Source\PSoC4/UART_1_SPI_UART.c ****         #if(UART_1_INTERNAL_RX_SW_BUFFER_CONST)
 174:.\Generated_Source\PSoC4/UART_1_SPI_UART.c ****             uint32 intSourceMask;
 175:.\Generated_Source\PSoC4/UART_1_SPI_UART.c ****         #endif /* (UART_1_INTERNAL_RX_SW_BUFFER_CONST) */
 176:.\Generated_Source\PSoC4/UART_1_SPI_UART.c **** 
 177:.\Generated_Source\PSoC4/UART_1_SPI_UART.c ****         #if(UART_1_CHECK_RX_SW_BUFFER)
 178:.\Generated_Source\PSoC4/UART_1_SPI_UART.c ****         {
 179:.\Generated_Source\PSoC4/UART_1_SPI_UART.c ****             intSourceMask = UART_1_SpiUartDisableIntRx();
 180:.\Generated_Source\PSoC4/UART_1_SPI_UART.c **** 
 181:.\Generated_Source\PSoC4/UART_1_SPI_UART.c ****             UART_1_CLEAR_RX_FIFO;
 182:.\Generated_Source\PSoC4/UART_1_SPI_UART.c **** 
 183:.\Generated_Source\PSoC4/UART_1_SPI_UART.c ****             /* Flush RX software buffer */
 184:.\Generated_Source\PSoC4/UART_1_SPI_UART.c ****             UART_1_rxBufferHead     = UART_1_rxBufferTail;
 185:.\Generated_Source\PSoC4/UART_1_SPI_UART.c ****             UART_1_rxBufferOverflow = 0u;
 186:.\Generated_Source\PSoC4/UART_1_SPI_UART.c **** 
 187:.\Generated_Source\PSoC4/UART_1_SPI_UART.c ****             /* End RX transfer */
 188:.\Generated_Source\PSoC4/UART_1_SPI_UART.c ****             UART_1_ClearRxInterruptSource(UART_1_INTR_RX_ALL);
 189:.\Generated_Source\PSoC4/UART_1_SPI_UART.c **** 
 190:.\Generated_Source\PSoC4/UART_1_SPI_UART.c ****             UART_1_SpiUartEnableIntRx(intSourceMask);
 191:.\Generated_Source\PSoC4/UART_1_SPI_UART.c ****         }
 192:.\Generated_Source\PSoC4/UART_1_SPI_UART.c ****         #else
 193:.\Generated_Source\PSoC4/UART_1_SPI_UART.c ****         {
 194:.\Generated_Source\PSoC4/UART_1_SPI_UART.c ****             UART_1_CLEAR_RX_FIFO;
ARM GAS  C:\Users\maxk\AppData\Local\Temp\ccBxsthB.s 			page 5


 195:.\Generated_Source\PSoC4/UART_1_SPI_UART.c ****         }
 196:.\Generated_Source\PSoC4/UART_1_SPI_UART.c ****         #endif
 197:.\Generated_Source\PSoC4/UART_1_SPI_UART.c ****     }
 198:.\Generated_Source\PSoC4/UART_1_SPI_UART.c **** 
 199:.\Generated_Source\PSoC4/UART_1_SPI_UART.c **** #endif /* (UART_1_RX_DIRECTION) */
 200:.\Generated_Source\PSoC4/UART_1_SPI_UART.c **** 
 201:.\Generated_Source\PSoC4/UART_1_SPI_UART.c **** 
 202:.\Generated_Source\PSoC4/UART_1_SPI_UART.c **** #if(UART_1_TX_DIRECTION)
 203:.\Generated_Source\PSoC4/UART_1_SPI_UART.c **** 
 204:.\Generated_Source\PSoC4/UART_1_SPI_UART.c ****     /*******************************************************************************
 205:.\Generated_Source\PSoC4/UART_1_SPI_UART.c ****     * Function Name: UART_1_SpiUartWriteTxData
 206:.\Generated_Source\PSoC4/UART_1_SPI_UART.c ****     ********************************************************************************
 207:.\Generated_Source\PSoC4/UART_1_SPI_UART.c ****     *
 208:.\Generated_Source\PSoC4/UART_1_SPI_UART.c ****     * Summary:
 209:.\Generated_Source\PSoC4/UART_1_SPI_UART.c ****     *  Places a data entry into the transmit buffer to be sent at the next available
 210:.\Generated_Source\PSoC4/UART_1_SPI_UART.c ****     *  bus time.
 211:.\Generated_Source\PSoC4/UART_1_SPI_UART.c ****     *  This function is blocking and waits until there is space available to put the
 212:.\Generated_Source\PSoC4/UART_1_SPI_UART.c ****     *  requested data in the transmit buffer.
 213:.\Generated_Source\PSoC4/UART_1_SPI_UART.c ****     *
 214:.\Generated_Source\PSoC4/UART_1_SPI_UART.c ****     * Parameters:
 215:.\Generated_Source\PSoC4/UART_1_SPI_UART.c ****     *  txDataByte: the data to be transmitted.
 216:.\Generated_Source\PSoC4/UART_1_SPI_UART.c ****     *
 217:.\Generated_Source\PSoC4/UART_1_SPI_UART.c ****     * Return:
 218:.\Generated_Source\PSoC4/UART_1_SPI_UART.c ****     *  None
 219:.\Generated_Source\PSoC4/UART_1_SPI_UART.c ****     *
 220:.\Generated_Source\PSoC4/UART_1_SPI_UART.c ****     *******************************************************************************/
 221:.\Generated_Source\PSoC4/UART_1_SPI_UART.c ****     void UART_1_SpiUartWriteTxData(uint32 txDataByte)
 222:.\Generated_Source\PSoC4/UART_1_SPI_UART.c ****     {
  31              		.loc 1 222 0
  32              		.cfi_startproc
  33 0000 80B5     		push	{r7, lr}
  34              	.LCFI0:
  35              		.cfi_def_cfa_offset 8
  36              		.cfi_offset 7, -8
  37              		.cfi_offset 14, -4
  38 0002 82B0     		sub	sp, sp, #8
  39              	.LCFI1:
  40              		.cfi_def_cfa_offset 16
  41 0004 00AF     		add	r7, sp, #0
  42              	.LCFI2:
  43              		.cfi_def_cfa_register 7
  44 0006 7860     		str	r0, [r7, #4]
  45              	.L2:
 223:.\Generated_Source\PSoC4/UART_1_SPI_UART.c ****         #if(UART_1_INTERNAL_TX_SW_BUFFER_CONST)
 224:.\Generated_Source\PSoC4/UART_1_SPI_UART.c ****             uint32 locHead;
 225:.\Generated_Source\PSoC4/UART_1_SPI_UART.c ****             uint32 intSourceMask;
 226:.\Generated_Source\PSoC4/UART_1_SPI_UART.c ****         #endif /* (UART_1_INTERNAL_TX_SW_BUFFER_CONST) */
 227:.\Generated_Source\PSoC4/UART_1_SPI_UART.c **** 
 228:.\Generated_Source\PSoC4/UART_1_SPI_UART.c ****         #if(UART_1_CHECK_TX_SW_BUFFER)
 229:.\Generated_Source\PSoC4/UART_1_SPI_UART.c ****         {
 230:.\Generated_Source\PSoC4/UART_1_SPI_UART.c ****             /* Head index to put data */
 231:.\Generated_Source\PSoC4/UART_1_SPI_UART.c ****             locHead = (UART_1_txBufferHead + 1u);
 232:.\Generated_Source\PSoC4/UART_1_SPI_UART.c **** 
 233:.\Generated_Source\PSoC4/UART_1_SPI_UART.c ****             /* Adjust TX software buffer index */
 234:.\Generated_Source\PSoC4/UART_1_SPI_UART.c ****             if(UART_1_TX_BUFFER_SIZE == locHead)
 235:.\Generated_Source\PSoC4/UART_1_SPI_UART.c ****             {
 236:.\Generated_Source\PSoC4/UART_1_SPI_UART.c ****                 locHead = 0u;
ARM GAS  C:\Users\maxk\AppData\Local\Temp\ccBxsthB.s 			page 6


 237:.\Generated_Source\PSoC4/UART_1_SPI_UART.c ****             }
 238:.\Generated_Source\PSoC4/UART_1_SPI_UART.c **** 
 239:.\Generated_Source\PSoC4/UART_1_SPI_UART.c ****             while(locHead == UART_1_txBufferTail)
 240:.\Generated_Source\PSoC4/UART_1_SPI_UART.c ****             {
 241:.\Generated_Source\PSoC4/UART_1_SPI_UART.c ****                 /* Wait for space in the TX software buffer */
 242:.\Generated_Source\PSoC4/UART_1_SPI_UART.c ****             }
 243:.\Generated_Source\PSoC4/UART_1_SPI_UART.c **** 
 244:.\Generated_Source\PSoC4/UART_1_SPI_UART.c ****             /* The TX software buffer has at least one room */
 245:.\Generated_Source\PSoC4/UART_1_SPI_UART.c **** 
 246:.\Generated_Source\PSoC4/UART_1_SPI_UART.c ****             if((UART_1_txBufferHead == UART_1_txBufferTail) &&
 247:.\Generated_Source\PSoC4/UART_1_SPI_UART.c ****                (UART_1_FIFO_SIZE != UART_1_GET_TX_FIFO_ENTRIES))
 248:.\Generated_Source\PSoC4/UART_1_SPI_UART.c ****             {
 249:.\Generated_Source\PSoC4/UART_1_SPI_UART.c ****                 /* TX software buffer is empty: put data directly in TX FIFO */
 250:.\Generated_Source\PSoC4/UART_1_SPI_UART.c ****                 UART_1_TX_FIFO_WR_REG = txDataByte;
 251:.\Generated_Source\PSoC4/UART_1_SPI_UART.c ****             }
 252:.\Generated_Source\PSoC4/UART_1_SPI_UART.c ****             /* Put data in the TX software buffer */
 253:.\Generated_Source\PSoC4/UART_1_SPI_UART.c ****             else
 254:.\Generated_Source\PSoC4/UART_1_SPI_UART.c ****             {
 255:.\Generated_Source\PSoC4/UART_1_SPI_UART.c ****                 /* Clear old status of INTR_TX_EMPTY. It sets at the end of transfer: TX FIFO empty
 256:.\Generated_Source\PSoC4/UART_1_SPI_UART.c ****                 UART_1_ClearTxInterruptSource(UART_1_INTR_TX_EMPTY);
 257:.\Generated_Source\PSoC4/UART_1_SPI_UART.c **** 
 258:.\Generated_Source\PSoC4/UART_1_SPI_UART.c ****                 UART_1_PutWordInTxBuffer(locHead, txDataByte);
 259:.\Generated_Source\PSoC4/UART_1_SPI_UART.c **** 
 260:.\Generated_Source\PSoC4/UART_1_SPI_UART.c ****                 UART_1_txBufferHead = locHead;
 261:.\Generated_Source\PSoC4/UART_1_SPI_UART.c **** 
 262:.\Generated_Source\PSoC4/UART_1_SPI_UART.c ****                 /* Enable interrupt to transmit */
 263:.\Generated_Source\PSoC4/UART_1_SPI_UART.c ****                 intSourceMask  = UART_1_INTR_TX_EMPTY;
 264:.\Generated_Source\PSoC4/UART_1_SPI_UART.c ****                 intSourceMask |= UART_1_GetTxInterruptMode();
 265:.\Generated_Source\PSoC4/UART_1_SPI_UART.c ****                 UART_1_SpiUartEnableIntTx(intSourceMask);
 266:.\Generated_Source\PSoC4/UART_1_SPI_UART.c ****             }
 267:.\Generated_Source\PSoC4/UART_1_SPI_UART.c ****         }
 268:.\Generated_Source\PSoC4/UART_1_SPI_UART.c ****         #else
 269:.\Generated_Source\PSoC4/UART_1_SPI_UART.c ****         {
 270:.\Generated_Source\PSoC4/UART_1_SPI_UART.c ****             while(UART_1_FIFO_SIZE == UART_1_GET_TX_FIFO_ENTRIES)
  46              		.loc 1 270 0
  47 0008 054B     		ldr	r3, .L4
  48 000a 1A68     		ldr	r2, [r3]
  49 000c 0F23     		mov	r3, #15
  50 000e 1340     		and	r3, r3, r2
  51 0010 082B     		cmp	r3, #8
  52 0012 F9D0     		beq	.L2
 271:.\Generated_Source\PSoC4/UART_1_SPI_UART.c ****             {
 272:.\Generated_Source\PSoC4/UART_1_SPI_UART.c ****                 /* Block while TX FIFO is FULL */
 273:.\Generated_Source\PSoC4/UART_1_SPI_UART.c ****             }
 274:.\Generated_Source\PSoC4/UART_1_SPI_UART.c **** 
 275:.\Generated_Source\PSoC4/UART_1_SPI_UART.c ****             UART_1_TX_FIFO_WR_REG = txDataByte;
  53              		.loc 1 275 0
  54 0014 034B     		ldr	r3, .L4+4
  55 0016 7A68     		ldr	r2, [r7, #4]
  56 0018 1A60     		str	r2, [r3]
 276:.\Generated_Source\PSoC4/UART_1_SPI_UART.c ****         }
 277:.\Generated_Source\PSoC4/UART_1_SPI_UART.c ****         #endif
 278:.\Generated_Source\PSoC4/UART_1_SPI_UART.c ****     }
  57              		.loc 1 278 0
  58 001a BD46     		mov	sp, r7
  59 001c 02B0     		add	sp, sp, #8
  60              		@ sp needed for prologue
ARM GAS  C:\Users\maxk\AppData\Local\Temp\ccBxsthB.s 			page 7


  61 001e 80BD     		pop	{r7, pc}
  62              	.L5:
  63              		.align	2
  64              	.L4:
  65 0020 08020640 		.word	1074135560
  66 0024 40020640 		.word	1074135616
  67              		.cfi_endproc
  68              	.LFE0:
  69              		.size	UART_1_SpiUartWriteTxData, .-UART_1_SpiUartWriteTxData
  70              		.section	.text.UART_1_SpiUartPutArray,"ax",%progbits
  71              		.align	2
  72              		.global	UART_1_SpiUartPutArray
  73              		.code	16
  74              		.thumb_func
  75              		.type	UART_1_SpiUartPutArray, %function
  76              	UART_1_SpiUartPutArray:
  77              	.LFB1:
 279:.\Generated_Source\PSoC4/UART_1_SPI_UART.c **** 
 280:.\Generated_Source\PSoC4/UART_1_SPI_UART.c **** 
 281:.\Generated_Source\PSoC4/UART_1_SPI_UART.c ****     /*******************************************************************************
 282:.\Generated_Source\PSoC4/UART_1_SPI_UART.c ****     * Function Name: UART_1_SpiUartPutArray
 283:.\Generated_Source\PSoC4/UART_1_SPI_UART.c ****     ********************************************************************************
 284:.\Generated_Source\PSoC4/UART_1_SPI_UART.c ****     *
 285:.\Generated_Source\PSoC4/UART_1_SPI_UART.c ****     * Summary:
 286:.\Generated_Source\PSoC4/UART_1_SPI_UART.c ****     *  Places an array of data into the transmit buffer to be sent.
 287:.\Generated_Source\PSoC4/UART_1_SPI_UART.c ****     *  This function is blocking and waits until there is a space available to put
 288:.\Generated_Source\PSoC4/UART_1_SPI_UART.c ****     *  all the requested data in the transmit buffer. The array size can be greater
 289:.\Generated_Source\PSoC4/UART_1_SPI_UART.c ****     *  than transmit buffer size.
 290:.\Generated_Source\PSoC4/UART_1_SPI_UART.c ****     *
 291:.\Generated_Source\PSoC4/UART_1_SPI_UART.c ****     * Parameters:
 292:.\Generated_Source\PSoC4/UART_1_SPI_UART.c ****     *  wrBuf:  pointer to an array with data to be placed in transmit buffer.
 293:.\Generated_Source\PSoC4/UART_1_SPI_UART.c ****     *  count:  number of data elements to be placed in the transmit buffer.
 294:.\Generated_Source\PSoC4/UART_1_SPI_UART.c ****     *
 295:.\Generated_Source\PSoC4/UART_1_SPI_UART.c ****     * Return:
 296:.\Generated_Source\PSoC4/UART_1_SPI_UART.c ****     *  None
 297:.\Generated_Source\PSoC4/UART_1_SPI_UART.c ****     *
 298:.\Generated_Source\PSoC4/UART_1_SPI_UART.c ****     *******************************************************************************/
 299:.\Generated_Source\PSoC4/UART_1_SPI_UART.c ****     void UART_1_SpiUartPutArray(const uint8 wrBuf[], uint32 count)
 300:.\Generated_Source\PSoC4/UART_1_SPI_UART.c ****     {
  78              		.loc 1 300 0
  79              		.cfi_startproc
  80 0000 80B5     		push	{r7, lr}
  81              	.LCFI3:
  82              		.cfi_def_cfa_offset 8
  83              		.cfi_offset 7, -8
  84              		.cfi_offset 14, -4
  85 0002 84B0     		sub	sp, sp, #16
  86              	.LCFI4:
  87              		.cfi_def_cfa_offset 24
  88 0004 00AF     		add	r7, sp, #0
  89              	.LCFI5:
  90              		.cfi_def_cfa_register 7
  91 0006 7860     		str	r0, [r7, #4]
  92 0008 3960     		str	r1, [r7]
 301:.\Generated_Source\PSoC4/UART_1_SPI_UART.c ****         uint32 i;
 302:.\Generated_Source\PSoC4/UART_1_SPI_UART.c **** 
 303:.\Generated_Source\PSoC4/UART_1_SPI_UART.c ****         for(i=0u; i < count; i++)
ARM GAS  C:\Users\maxk\AppData\Local\Temp\ccBxsthB.s 			page 8


  93              		.loc 1 303 0
  94 000a 0023     		mov	r3, #0
  95 000c FB60     		str	r3, [r7, #12]
  96 000e 09E0     		b	.L7
  97              	.L8:
 304:.\Generated_Source\PSoC4/UART_1_SPI_UART.c ****         {
 305:.\Generated_Source\PSoC4/UART_1_SPI_UART.c ****             UART_1_SpiUartWriteTxData((uint32) wrBuf[i]);
  98              		.loc 1 305 0
  99 0010 7A68     		ldr	r2, [r7, #4]
 100 0012 FB68     		ldr	r3, [r7, #12]
 101 0014 D318     		add	r3, r2, r3
 102 0016 1B78     		ldrb	r3, [r3]
 103 0018 181C     		mov	r0, r3
 104 001a FFF7FEFF 		bl	UART_1_SpiUartWriteTxData
 105              		.loc 1 303 0
 106 001e FB68     		ldr	r3, [r7, #12]
 107 0020 0133     		add	r3, r3, #1
 108 0022 FB60     		str	r3, [r7, #12]
 109              	.L7:
 110 0024 FA68     		ldr	r2, [r7, #12]
 111 0026 3B68     		ldr	r3, [r7]
 112 0028 9A42     		cmp	r2, r3
 113 002a F1D3     		bcc	.L8
 306:.\Generated_Source\PSoC4/UART_1_SPI_UART.c ****         }
 307:.\Generated_Source\PSoC4/UART_1_SPI_UART.c ****     }
 114              		.loc 1 307 0
 115 002c BD46     		mov	sp, r7
 116 002e 04B0     		add	sp, sp, #16
 117              		@ sp needed for prologue
 118 0030 80BD     		pop	{r7, pc}
 119              		.cfi_endproc
 120              	.LFE1:
 121              		.size	UART_1_SpiUartPutArray, .-UART_1_SpiUartPutArray
 122              		.section	.text.UART_1_SpiUartGetTxBufferSize,"ax",%progbits
 123              		.align	2
 124              		.global	UART_1_SpiUartGetTxBufferSize
 125              		.code	16
 126              		.thumb_func
 127              		.type	UART_1_SpiUartGetTxBufferSize, %function
 128              	UART_1_SpiUartGetTxBufferSize:
 129              	.LFB2:
 308:.\Generated_Source\PSoC4/UART_1_SPI_UART.c **** 
 309:.\Generated_Source\PSoC4/UART_1_SPI_UART.c **** 
 310:.\Generated_Source\PSoC4/UART_1_SPI_UART.c ****     /*******************************************************************************
 311:.\Generated_Source\PSoC4/UART_1_SPI_UART.c ****     * Function Name: UART_1_SpiUartGetTxBufferSize
 312:.\Generated_Source\PSoC4/UART_1_SPI_UART.c ****     ********************************************************************************
 313:.\Generated_Source\PSoC4/UART_1_SPI_UART.c ****     *
 314:.\Generated_Source\PSoC4/UART_1_SPI_UART.c ****     * Summary:
 315:.\Generated_Source\PSoC4/UART_1_SPI_UART.c ****     *  Returns the number of elements currently in the transmit buffer.
 316:.\Generated_Source\PSoC4/UART_1_SPI_UART.c ****     *  TX software buffer disabled: returns the number of used entries in TX FIFO.
 317:.\Generated_Source\PSoC4/UART_1_SPI_UART.c ****     *  TX software buffer enabled: returns the number of elements currently used
 318:.\Generated_Source\PSoC4/UART_1_SPI_UART.c ****     *  in the transmit buffer. This number does not include used entries in the
 319:.\Generated_Source\PSoC4/UART_1_SPI_UART.c ****     *  TX FIFO. The transmit buffer size is zero until the TX FIFO is full.
 320:.\Generated_Source\PSoC4/UART_1_SPI_UART.c ****     *
 321:.\Generated_Source\PSoC4/UART_1_SPI_UART.c ****     * Parameters:
 322:.\Generated_Source\PSoC4/UART_1_SPI_UART.c ****     *  None
 323:.\Generated_Source\PSoC4/UART_1_SPI_UART.c ****     *
ARM GAS  C:\Users\maxk\AppData\Local\Temp\ccBxsthB.s 			page 9


 324:.\Generated_Source\PSoC4/UART_1_SPI_UART.c ****     * Return:
 325:.\Generated_Source\PSoC4/UART_1_SPI_UART.c ****     *  Number of data elements ready to transmit.
 326:.\Generated_Source\PSoC4/UART_1_SPI_UART.c ****     *
 327:.\Generated_Source\PSoC4/UART_1_SPI_UART.c ****     *******************************************************************************/
 328:.\Generated_Source\PSoC4/UART_1_SPI_UART.c ****     uint32 UART_1_SpiUartGetTxBufferSize(void)
 329:.\Generated_Source\PSoC4/UART_1_SPI_UART.c ****     {
 130              		.loc 1 329 0
 131              		.cfi_startproc
 132 0000 80B5     		push	{r7, lr}
 133              	.LCFI6:
 134              		.cfi_def_cfa_offset 8
 135              		.cfi_offset 7, -8
 136              		.cfi_offset 14, -4
 137 0002 82B0     		sub	sp, sp, #8
 138              	.LCFI7:
 139              		.cfi_def_cfa_offset 16
 140 0004 00AF     		add	r7, sp, #0
 141              	.LCFI8:
 142              		.cfi_def_cfa_register 7
 330:.\Generated_Source\PSoC4/UART_1_SPI_UART.c ****         uint32 size;
 331:.\Generated_Source\PSoC4/UART_1_SPI_UART.c ****         #if(UART_1_INTERNAL_TX_SW_BUFFER_CONST)
 332:.\Generated_Source\PSoC4/UART_1_SPI_UART.c ****             uint32 locTail;
 333:.\Generated_Source\PSoC4/UART_1_SPI_UART.c ****         #endif /* (UART_1_INTERNAL_TX_SW_BUFFER_CONST) */
 334:.\Generated_Source\PSoC4/UART_1_SPI_UART.c **** 
 335:.\Generated_Source\PSoC4/UART_1_SPI_UART.c ****         #if(UART_1_CHECK_TX_SW_BUFFER)
 336:.\Generated_Source\PSoC4/UART_1_SPI_UART.c ****         {
 337:.\Generated_Source\PSoC4/UART_1_SPI_UART.c ****             /* Get current Tail index */
 338:.\Generated_Source\PSoC4/UART_1_SPI_UART.c ****             locTail = UART_1_txBufferTail;
 339:.\Generated_Source\PSoC4/UART_1_SPI_UART.c **** 
 340:.\Generated_Source\PSoC4/UART_1_SPI_UART.c ****             if(UART_1_txBufferHead >= locTail)
 341:.\Generated_Source\PSoC4/UART_1_SPI_UART.c ****             {
 342:.\Generated_Source\PSoC4/UART_1_SPI_UART.c ****                 size = (UART_1_txBufferHead - locTail);
 343:.\Generated_Source\PSoC4/UART_1_SPI_UART.c ****             }
 344:.\Generated_Source\PSoC4/UART_1_SPI_UART.c ****             else
 345:.\Generated_Source\PSoC4/UART_1_SPI_UART.c ****             {
 346:.\Generated_Source\PSoC4/UART_1_SPI_UART.c ****                 size = (UART_1_txBufferHead + (UART_1_TX_BUFFER_SIZE - locTail));
 347:.\Generated_Source\PSoC4/UART_1_SPI_UART.c ****             }
 348:.\Generated_Source\PSoC4/UART_1_SPI_UART.c ****         }
 349:.\Generated_Source\PSoC4/UART_1_SPI_UART.c ****         #else
 350:.\Generated_Source\PSoC4/UART_1_SPI_UART.c ****         {
 351:.\Generated_Source\PSoC4/UART_1_SPI_UART.c ****             size = UART_1_GET_TX_FIFO_ENTRIES;
 143              		.loc 1 351 0
 144 0006 054B     		ldr	r3, .L12
 145 0008 1A68     		ldr	r2, [r3]
 146 000a 0F23     		mov	r3, #15
 147 000c 1340     		and	r3, r3, r2
 148 000e 7B60     		str	r3, [r7, #4]
 352:.\Generated_Source\PSoC4/UART_1_SPI_UART.c ****         }
 353:.\Generated_Source\PSoC4/UART_1_SPI_UART.c ****         #endif
 354:.\Generated_Source\PSoC4/UART_1_SPI_UART.c **** 
 355:.\Generated_Source\PSoC4/UART_1_SPI_UART.c ****         return(size);
 149              		.loc 1 355 0
 150 0010 7B68     		ldr	r3, [r7, #4]
 356:.\Generated_Source\PSoC4/UART_1_SPI_UART.c ****     }
 151              		.loc 1 356 0
 152 0012 181C     		mov	r0, r3
 153 0014 BD46     		mov	sp, r7
ARM GAS  C:\Users\maxk\AppData\Local\Temp\ccBxsthB.s 			page 10


 154 0016 02B0     		add	sp, sp, #8
 155              		@ sp needed for prologue
 156 0018 80BD     		pop	{r7, pc}
 157              	.L13:
 158 001a C046     		.align	2
 159              	.L12:
 160 001c 08020640 		.word	1074135560
 161              		.cfi_endproc
 162              	.LFE2:
 163              		.size	UART_1_SpiUartGetTxBufferSize, .-UART_1_SpiUartGetTxBufferSize
 164              		.section	.text.UART_1_SpiUartClearTxBuffer,"ax",%progbits
 165              		.align	2
 166              		.global	UART_1_SpiUartClearTxBuffer
 167              		.code	16
 168              		.thumb_func
 169              		.type	UART_1_SpiUartClearTxBuffer, %function
 170              	UART_1_SpiUartClearTxBuffer:
 171              	.LFB3:
 357:.\Generated_Source\PSoC4/UART_1_SPI_UART.c **** 
 358:.\Generated_Source\PSoC4/UART_1_SPI_UART.c **** 
 359:.\Generated_Source\PSoC4/UART_1_SPI_UART.c ****     /*******************************************************************************
 360:.\Generated_Source\PSoC4/UART_1_SPI_UART.c ****     * Function Name: UART_1_SpiUartClearTxBuffer
 361:.\Generated_Source\PSoC4/UART_1_SPI_UART.c ****     ********************************************************************************
 362:.\Generated_Source\PSoC4/UART_1_SPI_UART.c ****     *
 363:.\Generated_Source\PSoC4/UART_1_SPI_UART.c ****     * Summary:
 364:.\Generated_Source\PSoC4/UART_1_SPI_UART.c ****     *  Clears the transmit buffer and TX FIFO.
 365:.\Generated_Source\PSoC4/UART_1_SPI_UART.c ****     *
 366:.\Generated_Source\PSoC4/UART_1_SPI_UART.c ****     * Parameters:
 367:.\Generated_Source\PSoC4/UART_1_SPI_UART.c ****     *  None
 368:.\Generated_Source\PSoC4/UART_1_SPI_UART.c ****     *
 369:.\Generated_Source\PSoC4/UART_1_SPI_UART.c ****     * Return:
 370:.\Generated_Source\PSoC4/UART_1_SPI_UART.c ****     *  None
 371:.\Generated_Source\PSoC4/UART_1_SPI_UART.c ****     *
 372:.\Generated_Source\PSoC4/UART_1_SPI_UART.c ****     *******************************************************************************/
 373:.\Generated_Source\PSoC4/UART_1_SPI_UART.c ****     void UART_1_SpiUartClearTxBuffer(void)
 374:.\Generated_Source\PSoC4/UART_1_SPI_UART.c ****     {
 172              		.loc 1 374 0
 173              		.cfi_startproc
 174 0000 80B5     		push	{r7, lr}
 175              	.LCFI9:
 176              		.cfi_def_cfa_offset 8
 177              		.cfi_offset 7, -8
 178              		.cfi_offset 14, -4
 179 0002 00AF     		add	r7, sp, #0
 180              	.LCFI10:
 181              		.cfi_def_cfa_register 7
 375:.\Generated_Source\PSoC4/UART_1_SPI_UART.c ****         #if(UART_1_INTERNAL_TX_SW_BUFFER_CONST)
 376:.\Generated_Source\PSoC4/UART_1_SPI_UART.c ****             uint32 intSourceMask;
 377:.\Generated_Source\PSoC4/UART_1_SPI_UART.c ****         #endif /* (UART_1_INTERNAL_TX_SW_BUFFER_CONST) */
 378:.\Generated_Source\PSoC4/UART_1_SPI_UART.c **** 
 379:.\Generated_Source\PSoC4/UART_1_SPI_UART.c ****         #if(UART_1_CHECK_TX_SW_BUFFER)
 380:.\Generated_Source\PSoC4/UART_1_SPI_UART.c ****         {
 381:.\Generated_Source\PSoC4/UART_1_SPI_UART.c ****             intSourceMask = UART_1_SpiUartDisableIntTx();
 382:.\Generated_Source\PSoC4/UART_1_SPI_UART.c **** 
 383:.\Generated_Source\PSoC4/UART_1_SPI_UART.c ****             UART_1_CLEAR_TX_FIFO;
 384:.\Generated_Source\PSoC4/UART_1_SPI_UART.c **** 
 385:.\Generated_Source\PSoC4/UART_1_SPI_UART.c ****             /* Flush TX software buffer */
ARM GAS  C:\Users\maxk\AppData\Local\Temp\ccBxsthB.s 			page 11


 386:.\Generated_Source\PSoC4/UART_1_SPI_UART.c ****             UART_1_txBufferHead = UART_1_txBufferTail;
 387:.\Generated_Source\PSoC4/UART_1_SPI_UART.c **** 
 388:.\Generated_Source\PSoC4/UART_1_SPI_UART.c ****             /* End TX transfer if it is in progress */
 389:.\Generated_Source\PSoC4/UART_1_SPI_UART.c ****             intSourceMask &= (uint32) ~UART_1_INTR_TX_EMPTY;
 390:.\Generated_Source\PSoC4/UART_1_SPI_UART.c **** 
 391:.\Generated_Source\PSoC4/UART_1_SPI_UART.c ****             UART_1_SpiUartEnableIntTx(intSourceMask);
 392:.\Generated_Source\PSoC4/UART_1_SPI_UART.c ****         }
 393:.\Generated_Source\PSoC4/UART_1_SPI_UART.c ****         #else
 394:.\Generated_Source\PSoC4/UART_1_SPI_UART.c ****         {
 395:.\Generated_Source\PSoC4/UART_1_SPI_UART.c ****             UART_1_CLEAR_TX_FIFO;
 182              		.loc 1 395 0
 183 0004 074A     		ldr	r2, .L16
 184 0006 074B     		ldr	r3, .L16
 185 0008 1968     		ldr	r1, [r3]
 186 000a 8023     		mov	r3, #128
 187 000c 5B02     		lsl	r3, r3, #9
 188 000e 0B43     		orr	r3, r3, r1
 189 0010 1360     		str	r3, [r2]
 190 0012 044B     		ldr	r3, .L16
 191 0014 034A     		ldr	r2, .L16
 192 0016 1168     		ldr	r1, [r2]
 193 0018 034A     		ldr	r2, .L16+4
 194 001a 0A40     		and	r2, r2, r1
 195 001c 1A60     		str	r2, [r3]
 396:.\Generated_Source\PSoC4/UART_1_SPI_UART.c ****         }
 397:.\Generated_Source\PSoC4/UART_1_SPI_UART.c ****         #endif
 398:.\Generated_Source\PSoC4/UART_1_SPI_UART.c ****     }
 196              		.loc 1 398 0
 197 001e BD46     		mov	sp, r7
 198              		@ sp needed for prologue
 199 0020 80BD     		pop	{r7, pc}
 200              	.L17:
 201 0022 C046     		.align	2
 202              	.L16:
 203 0024 04020640 		.word	1074135556
 204 0028 FFFFFEFF 		.word	-65537
 205              		.cfi_endproc
 206              	.LFE3:
 207              		.size	UART_1_SpiUartClearTxBuffer, .-UART_1_SpiUartClearTxBuffer
 208              		.section	.text.UART_1_SpiUartDisableIntRx,"ax",%progbits
 209              		.align	2
 210              		.global	UART_1_SpiUartDisableIntRx
 211              		.code	16
 212              		.thumb_func
 213              		.type	UART_1_SpiUartDisableIntRx, %function
 214              	UART_1_SpiUartDisableIntRx:
 215              	.LFB4:
 399:.\Generated_Source\PSoC4/UART_1_SPI_UART.c **** 
 400:.\Generated_Source\PSoC4/UART_1_SPI_UART.c **** #endif /* (UART_1_TX_DIRECTION) */
 401:.\Generated_Source\PSoC4/UART_1_SPI_UART.c **** 
 402:.\Generated_Source\PSoC4/UART_1_SPI_UART.c **** 
 403:.\Generated_Source\PSoC4/UART_1_SPI_UART.c **** /*******************************************************************************
 404:.\Generated_Source\PSoC4/UART_1_SPI_UART.c **** * Function Name: UART_1_SpiUartDisableIntRx
 405:.\Generated_Source\PSoC4/UART_1_SPI_UART.c **** ********************************************************************************
 406:.\Generated_Source\PSoC4/UART_1_SPI_UART.c **** *
 407:.\Generated_Source\PSoC4/UART_1_SPI_UART.c **** * Summary:
 408:.\Generated_Source\PSoC4/UART_1_SPI_UART.c **** *  Disables RX interrupt sources.
ARM GAS  C:\Users\maxk\AppData\Local\Temp\ccBxsthB.s 			page 12


 409:.\Generated_Source\PSoC4/UART_1_SPI_UART.c **** *
 410:.\Generated_Source\PSoC4/UART_1_SPI_UART.c **** * Parameters:
 411:.\Generated_Source\PSoC4/UART_1_SPI_UART.c **** *  None
 412:.\Generated_Source\PSoC4/UART_1_SPI_UART.c **** *
 413:.\Generated_Source\PSoC4/UART_1_SPI_UART.c **** * Return:
 414:.\Generated_Source\PSoC4/UART_1_SPI_UART.c **** *  Returns RX interrupt soureces enabled before function call.
 415:.\Generated_Source\PSoC4/UART_1_SPI_UART.c **** *
 416:.\Generated_Source\PSoC4/UART_1_SPI_UART.c **** *******************************************************************************/
 417:.\Generated_Source\PSoC4/UART_1_SPI_UART.c **** uint32 UART_1_SpiUartDisableIntRx(void)
 418:.\Generated_Source\PSoC4/UART_1_SPI_UART.c **** {
 216              		.loc 1 418 0
 217              		.cfi_startproc
 218 0000 80B5     		push	{r7, lr}
 219              	.LCFI11:
 220              		.cfi_def_cfa_offset 8
 221              		.cfi_offset 7, -8
 222              		.cfi_offset 14, -4
 223 0002 82B0     		sub	sp, sp, #8
 224              	.LCFI12:
 225              		.cfi_def_cfa_offset 16
 226 0004 00AF     		add	r7, sp, #0
 227              	.LCFI13:
 228              		.cfi_def_cfa_register 7
 419:.\Generated_Source\PSoC4/UART_1_SPI_UART.c ****     uint32 intSource;
 420:.\Generated_Source\PSoC4/UART_1_SPI_UART.c **** 
 421:.\Generated_Source\PSoC4/UART_1_SPI_UART.c ****     intSource = UART_1_GetRxInterruptMode();
 229              		.loc 1 421 0
 230 0006 054B     		ldr	r3, .L20
 231 0008 1B68     		ldr	r3, [r3]
 232 000a 7B60     		str	r3, [r7, #4]
 422:.\Generated_Source\PSoC4/UART_1_SPI_UART.c **** 
 423:.\Generated_Source\PSoC4/UART_1_SPI_UART.c ****     UART_1_SetRxInterruptMode(UART_1_NO_INTR_SOURCES);
 233              		.loc 1 423 0
 234 000c 034B     		ldr	r3, .L20
 235 000e 0022     		mov	r2, #0
 236 0010 1A60     		str	r2, [r3]
 424:.\Generated_Source\PSoC4/UART_1_SPI_UART.c **** 
 425:.\Generated_Source\PSoC4/UART_1_SPI_UART.c ****     return(intSource);
 237              		.loc 1 425 0
 238 0012 7B68     		ldr	r3, [r7, #4]
 426:.\Generated_Source\PSoC4/UART_1_SPI_UART.c **** }
 239              		.loc 1 426 0
 240 0014 181C     		mov	r0, r3
 241 0016 BD46     		mov	sp, r7
 242 0018 02B0     		add	sp, sp, #8
 243              		@ sp needed for prologue
 244 001a 80BD     		pop	{r7, pc}
 245              	.L21:
 246              		.align	2
 247              	.L20:
 248 001c C80F0640 		.word	1074139080
 249              		.cfi_endproc
 250              	.LFE4:
 251              		.size	UART_1_SpiUartDisableIntRx, .-UART_1_SpiUartDisableIntRx
 252              		.section	.text.UART_1_SpiUartDisableIntTx,"ax",%progbits
 253              		.align	2
 254              		.global	UART_1_SpiUartDisableIntTx
ARM GAS  C:\Users\maxk\AppData\Local\Temp\ccBxsthB.s 			page 13


 255              		.code	16
 256              		.thumb_func
 257              		.type	UART_1_SpiUartDisableIntTx, %function
 258              	UART_1_SpiUartDisableIntTx:
 259              	.LFB5:
 427:.\Generated_Source\PSoC4/UART_1_SPI_UART.c **** 
 428:.\Generated_Source\PSoC4/UART_1_SPI_UART.c **** 
 429:.\Generated_Source\PSoC4/UART_1_SPI_UART.c **** /*******************************************************************************
 430:.\Generated_Source\PSoC4/UART_1_SPI_UART.c **** * Function Name: UART_1_SpiUartDisableIntTx
 431:.\Generated_Source\PSoC4/UART_1_SPI_UART.c **** ********************************************************************************
 432:.\Generated_Source\PSoC4/UART_1_SPI_UART.c **** *
 433:.\Generated_Source\PSoC4/UART_1_SPI_UART.c **** * Summary:
 434:.\Generated_Source\PSoC4/UART_1_SPI_UART.c **** *  Disables TX interrupt sources.
 435:.\Generated_Source\PSoC4/UART_1_SPI_UART.c **** *
 436:.\Generated_Source\PSoC4/UART_1_SPI_UART.c **** * Parameters:
 437:.\Generated_Source\PSoC4/UART_1_SPI_UART.c **** *  None
 438:.\Generated_Source\PSoC4/UART_1_SPI_UART.c **** *
 439:.\Generated_Source\PSoC4/UART_1_SPI_UART.c **** * Return:
 440:.\Generated_Source\PSoC4/UART_1_SPI_UART.c **** *  Returns TX interrupt soureces enabled before function call.
 441:.\Generated_Source\PSoC4/UART_1_SPI_UART.c **** *
 442:.\Generated_Source\PSoC4/UART_1_SPI_UART.c **** *******************************************************************************/
 443:.\Generated_Source\PSoC4/UART_1_SPI_UART.c **** uint32 UART_1_SpiUartDisableIntTx(void)
 444:.\Generated_Source\PSoC4/UART_1_SPI_UART.c **** {
 260              		.loc 1 444 0
 261              		.cfi_startproc
 262 0000 80B5     		push	{r7, lr}
 263              	.LCFI14:
 264              		.cfi_def_cfa_offset 8
 265              		.cfi_offset 7, -8
 266              		.cfi_offset 14, -4
 267 0002 82B0     		sub	sp, sp, #8
 268              	.LCFI15:
 269              		.cfi_def_cfa_offset 16
 270 0004 00AF     		add	r7, sp, #0
 271              	.LCFI16:
 272              		.cfi_def_cfa_register 7
 445:.\Generated_Source\PSoC4/UART_1_SPI_UART.c ****     uint32 intSourceMask;
 446:.\Generated_Source\PSoC4/UART_1_SPI_UART.c **** 
 447:.\Generated_Source\PSoC4/UART_1_SPI_UART.c ****     intSourceMask = UART_1_GetTxInterruptMode();
 273              		.loc 1 447 0
 274 0006 054B     		ldr	r3, .L24
 275 0008 1B68     		ldr	r3, [r3]
 276 000a 7B60     		str	r3, [r7, #4]
 448:.\Generated_Source\PSoC4/UART_1_SPI_UART.c **** 
 449:.\Generated_Source\PSoC4/UART_1_SPI_UART.c ****     UART_1_SetTxInterruptMode(UART_1_NO_INTR_SOURCES);
 277              		.loc 1 449 0
 278 000c 034B     		ldr	r3, .L24
 279 000e 0022     		mov	r2, #0
 280 0010 1A60     		str	r2, [r3]
 450:.\Generated_Source\PSoC4/UART_1_SPI_UART.c **** 
 451:.\Generated_Source\PSoC4/UART_1_SPI_UART.c ****     return(intSourceMask);
 281              		.loc 1 451 0
 282 0012 7B68     		ldr	r3, [r7, #4]
 452:.\Generated_Source\PSoC4/UART_1_SPI_UART.c **** }
 283              		.loc 1 452 0
 284 0014 181C     		mov	r0, r3
 285 0016 BD46     		mov	sp, r7
ARM GAS  C:\Users\maxk\AppData\Local\Temp\ccBxsthB.s 			page 14


 286 0018 02B0     		add	sp, sp, #8
 287              		@ sp needed for prologue
 288 001a 80BD     		pop	{r7, pc}
 289              	.L25:
 290              		.align	2
 291              	.L24:
 292 001c 880F0640 		.word	1074139016
 293              		.cfi_endproc
 294              	.LFE5:
 295              		.size	UART_1_SpiUartDisableIntTx, .-UART_1_SpiUartDisableIntTx
 296              		.text
 297              	.Letext0: