ARM GAS  C:\Users\mitchell\AppData\Local\Temp\ccLMBziH.s 			page 1


   1              		.syntax unified
   2              		.cpu cortex-m3
   3              		.fpu softvfp
   4              		.eabi_attribute 20, 1
   5              		.eabi_attribute 21, 1
   6              		.eabi_attribute 23, 3
   7              		.eabi_attribute 24, 1
   8              		.eabi_attribute 25, 1
   9              		.eabi_attribute 26, 1
  10              		.eabi_attribute 30, 1
  11              		.eabi_attribute 34, 1
  12              		.eabi_attribute 18, 4
  13              		.thumb
  14              		.file	"BRAKE_ADC_INT.c"
  15              		.text
  16              	.Ltext0:
  17              		.cfi_sections	.debug_frame
  18              		.section	.text.BRAKE_ADC_ISR1,"ax",%progbits
  19              		.align	2
  20              		.global	BRAKE_ADC_ISR1
  21              		.thumb
  22              		.thumb_func
  23              		.type	BRAKE_ADC_ISR1, %function
  24              	BRAKE_ADC_ISR1:
  25              	.LFB0:
  26              		.file 1 ".\\Generated_Source\\PSoC5\\BRAKE_ADC_INT.c"
   1:.\Generated_Source\PSoC5/BRAKE_ADC_INT.c **** /*******************************************************************************
   2:.\Generated_Source\PSoC5/BRAKE_ADC_INT.c **** * File Name: BRAKE_ADC_INT.c
   3:.\Generated_Source\PSoC5/BRAKE_ADC_INT.c **** * Version 3.20
   4:.\Generated_Source\PSoC5/BRAKE_ADC_INT.c **** *
   5:.\Generated_Source\PSoC5/BRAKE_ADC_INT.c **** * Description:
   6:.\Generated_Source\PSoC5/BRAKE_ADC_INT.c **** *  This file contains the code that operates during the ADC_DelSig interrupt
   7:.\Generated_Source\PSoC5/BRAKE_ADC_INT.c **** *  service routine.
   8:.\Generated_Source\PSoC5/BRAKE_ADC_INT.c **** *
   9:.\Generated_Source\PSoC5/BRAKE_ADC_INT.c **** * Note:
  10:.\Generated_Source\PSoC5/BRAKE_ADC_INT.c **** *
  11:.\Generated_Source\PSoC5/BRAKE_ADC_INT.c **** ********************************************************************************
  12:.\Generated_Source\PSoC5/BRAKE_ADC_INT.c **** * Copyright 2008-2015, Cypress Semiconductor Corporation.  All rights reserved.
  13:.\Generated_Source\PSoC5/BRAKE_ADC_INT.c **** * You may use this file only in accordance with the license, terms, conditions,
  14:.\Generated_Source\PSoC5/BRAKE_ADC_INT.c **** * disclaimers, and limitations in the end user license agreement accompanying
  15:.\Generated_Source\PSoC5/BRAKE_ADC_INT.c **** * the software package with which this file was provided.
  16:.\Generated_Source\PSoC5/BRAKE_ADC_INT.c **** *******************************************************************************/
  17:.\Generated_Source\PSoC5/BRAKE_ADC_INT.c **** 
  18:.\Generated_Source\PSoC5/BRAKE_ADC_INT.c **** #include "BRAKE_ADC.h"
  19:.\Generated_Source\PSoC5/BRAKE_ADC_INT.c **** 
  20:.\Generated_Source\PSoC5/BRAKE_ADC_INT.c **** 
  21:.\Generated_Source\PSoC5/BRAKE_ADC_INT.c **** /*******************************************************************************
  22:.\Generated_Source\PSoC5/BRAKE_ADC_INT.c **** * Custom Declarations and Variables
  23:.\Generated_Source\PSoC5/BRAKE_ADC_INT.c **** * - add user include files, prototypes and variables between the following
  24:.\Generated_Source\PSoC5/BRAKE_ADC_INT.c **** *   #START and #END tags
  25:.\Generated_Source\PSoC5/BRAKE_ADC_INT.c **** *******************************************************************************/
  26:.\Generated_Source\PSoC5/BRAKE_ADC_INT.c **** /* `#START ADC_SYS_VAR`  */
  27:.\Generated_Source\PSoC5/BRAKE_ADC_INT.c **** 
  28:.\Generated_Source\PSoC5/BRAKE_ADC_INT.c **** /* `#END`  */
  29:.\Generated_Source\PSoC5/BRAKE_ADC_INT.c **** 
  30:.\Generated_Source\PSoC5/BRAKE_ADC_INT.c **** 
  31:.\Generated_Source\PSoC5/BRAKE_ADC_INT.c **** #if(BRAKE_ADC_IRQ_REMOVE == 0u)
ARM GAS  C:\Users\mitchell\AppData\Local\Temp\ccLMBziH.s 			page 2


  32:.\Generated_Source\PSoC5/BRAKE_ADC_INT.c **** 
  33:.\Generated_Source\PSoC5/BRAKE_ADC_INT.c **** 
  34:.\Generated_Source\PSoC5/BRAKE_ADC_INT.c ****     /*****************************************************************************
  35:.\Generated_Source\PSoC5/BRAKE_ADC_INT.c ****     * Function Name: BRAKE_ADC_ISR1
  36:.\Generated_Source\PSoC5/BRAKE_ADC_INT.c ****     ******************************************************************************
  37:.\Generated_Source\PSoC5/BRAKE_ADC_INT.c ****     *
  38:.\Generated_Source\PSoC5/BRAKE_ADC_INT.c ****     * Summary:
  39:.\Generated_Source\PSoC5/BRAKE_ADC_INT.c ****     *  Handle Interrupt Service Routine.
  40:.\Generated_Source\PSoC5/BRAKE_ADC_INT.c ****     *
  41:.\Generated_Source\PSoC5/BRAKE_ADC_INT.c ****     * Parameters:
  42:.\Generated_Source\PSoC5/BRAKE_ADC_INT.c ****     *  None
  43:.\Generated_Source\PSoC5/BRAKE_ADC_INT.c ****     *
  44:.\Generated_Source\PSoC5/BRAKE_ADC_INT.c ****     * Return:
  45:.\Generated_Source\PSoC5/BRAKE_ADC_INT.c ****     *  None
  46:.\Generated_Source\PSoC5/BRAKE_ADC_INT.c ****     *
  47:.\Generated_Source\PSoC5/BRAKE_ADC_INT.c ****     * Reentrant:
  48:.\Generated_Source\PSoC5/BRAKE_ADC_INT.c ****     *  No
  49:.\Generated_Source\PSoC5/BRAKE_ADC_INT.c ****     *
  50:.\Generated_Source\PSoC5/BRAKE_ADC_INT.c ****     *****************************************************************************/
  51:.\Generated_Source\PSoC5/BRAKE_ADC_INT.c ****     CY_ISR( BRAKE_ADC_ISR1)
  52:.\Generated_Source\PSoC5/BRAKE_ADC_INT.c ****     {
  27              		.loc 1 52 0
  28              		.cfi_startproc
  29              		@ args = 0, pretend = 0, frame = 0
  30              		@ frame_needed = 0, uses_anonymous_args = 0
  31              		@ link register save eliminated.
  32 0000 7047     		bx	lr
  33              		.cfi_endproc
  34              	.LFE0:
  35              		.size	BRAKE_ADC_ISR1, .-BRAKE_ADC_ISR1
  36 0002 00BF     		.section	.text.BRAKE_ADC_ISR2,"ax",%progbits
  37              		.align	2
  38              		.global	BRAKE_ADC_ISR2
  39              		.thumb
  40              		.thumb_func
  41              		.type	BRAKE_ADC_ISR2, %function
  42              	BRAKE_ADC_ISR2:
  43              	.LFB1:
  53:.\Generated_Source\PSoC5/BRAKE_ADC_INT.c ****         /**************************************************************************
  54:.\Generated_Source\PSoC5/BRAKE_ADC_INT.c ****         *  Custom Code
  55:.\Generated_Source\PSoC5/BRAKE_ADC_INT.c ****         *  - add user ISR code between the following #START and #END tags
  56:.\Generated_Source\PSoC5/BRAKE_ADC_INT.c ****         **************************************************************************/
  57:.\Generated_Source\PSoC5/BRAKE_ADC_INT.c ****         /* `#START MAIN_ADC_ISR1`  */
  58:.\Generated_Source\PSoC5/BRAKE_ADC_INT.c **** 
  59:.\Generated_Source\PSoC5/BRAKE_ADC_INT.c ****         /* `#END`  */
  60:.\Generated_Source\PSoC5/BRAKE_ADC_INT.c **** 
  61:.\Generated_Source\PSoC5/BRAKE_ADC_INT.c ****         /* Stop the conversion if conversion mode is single sample and resolution
  62:.\Generated_Source\PSoC5/BRAKE_ADC_INT.c ****         *  is above 16 bits.
  63:.\Generated_Source\PSoC5/BRAKE_ADC_INT.c ****         */
  64:.\Generated_Source\PSoC5/BRAKE_ADC_INT.c ****         #if(BRAKE_ADC_CFG1_RESOLUTION > 16 && \
  65:.\Generated_Source\PSoC5/BRAKE_ADC_INT.c ****             BRAKE_ADC_CFG1_CONV_MODE == BRAKE_ADC_MODE_SINGLE_SAMPLE)
  66:.\Generated_Source\PSoC5/BRAKE_ADC_INT.c ****             BRAKE_ADC_StopConvert();
  67:.\Generated_Source\PSoC5/BRAKE_ADC_INT.c ****             /* Software flag for checking conversion complete or not. Will be used when
  68:.\Generated_Source\PSoC5/BRAKE_ADC_INT.c ****             *  resolution is above 16 bits and conversion mode is single sample 
  69:.\Generated_Source\PSoC5/BRAKE_ADC_INT.c **** 			*/
  70:.\Generated_Source\PSoC5/BRAKE_ADC_INT.c ****             BRAKE_ADC_convDone = BRAKE_ADC_DEC_CONV_DONE;
  71:.\Generated_Source\PSoC5/BRAKE_ADC_INT.c ****         #endif /* Single sample conversion mode with resolution above 16 bits */
ARM GAS  C:\Users\mitchell\AppData\Local\Temp\ccLMBziH.s 			page 3


  72:.\Generated_Source\PSoC5/BRAKE_ADC_INT.c **** 
  73:.\Generated_Source\PSoC5/BRAKE_ADC_INT.c ****     }
  74:.\Generated_Source\PSoC5/BRAKE_ADC_INT.c **** 
  75:.\Generated_Source\PSoC5/BRAKE_ADC_INT.c **** 
  76:.\Generated_Source\PSoC5/BRAKE_ADC_INT.c ****     /*****************************************************************************
  77:.\Generated_Source\PSoC5/BRAKE_ADC_INT.c ****     * Function Name: BRAKE_ADC_ISR2
  78:.\Generated_Source\PSoC5/BRAKE_ADC_INT.c ****     ******************************************************************************
  79:.\Generated_Source\PSoC5/BRAKE_ADC_INT.c ****     *
  80:.\Generated_Source\PSoC5/BRAKE_ADC_INT.c ****     * Summary:
  81:.\Generated_Source\PSoC5/BRAKE_ADC_INT.c ****     *  Handle Interrupt Service Routine.
  82:.\Generated_Source\PSoC5/BRAKE_ADC_INT.c ****     *
  83:.\Generated_Source\PSoC5/BRAKE_ADC_INT.c ****     * Parameters:
  84:.\Generated_Source\PSoC5/BRAKE_ADC_INT.c ****     *  None
  85:.\Generated_Source\PSoC5/BRAKE_ADC_INT.c ****     *
  86:.\Generated_Source\PSoC5/BRAKE_ADC_INT.c ****     * Return:
  87:.\Generated_Source\PSoC5/BRAKE_ADC_INT.c ****     *  None
  88:.\Generated_Source\PSoC5/BRAKE_ADC_INT.c ****     *
  89:.\Generated_Source\PSoC5/BRAKE_ADC_INT.c ****     * Reentrant:
  90:.\Generated_Source\PSoC5/BRAKE_ADC_INT.c ****     *  No
  91:.\Generated_Source\PSoC5/BRAKE_ADC_INT.c ****     *
  92:.\Generated_Source\PSoC5/BRAKE_ADC_INT.c ****     *****************************************************************************/
  93:.\Generated_Source\PSoC5/BRAKE_ADC_INT.c ****     CY_ISR( BRAKE_ADC_ISR2)
  94:.\Generated_Source\PSoC5/BRAKE_ADC_INT.c ****     {
  44              		.loc 1 94 0
  45              		.cfi_startproc
  46              		@ args = 0, pretend = 0, frame = 0
  47              		@ frame_needed = 0, uses_anonymous_args = 0
  48              		@ link register save eliminated.
  49 0000 7047     		bx	lr
  50              		.cfi_endproc
  51              	.LFE1:
  52              		.size	BRAKE_ADC_ISR2, .-BRAKE_ADC_ISR2
  53 0002 00BF     		.section	.text.BRAKE_ADC_ISR3,"ax",%progbits
  54              		.align	2
  55              		.global	BRAKE_ADC_ISR3
  56              		.thumb
  57              		.thumb_func
  58              		.type	BRAKE_ADC_ISR3, %function
  59              	BRAKE_ADC_ISR3:
  60              	.LFB2:
  95:.\Generated_Source\PSoC5/BRAKE_ADC_INT.c ****         /***************************************************************************
  96:.\Generated_Source\PSoC5/BRAKE_ADC_INT.c ****         *  Custom Code
  97:.\Generated_Source\PSoC5/BRAKE_ADC_INT.c ****         *  - add user ISR code between the following #START and #END tags
  98:.\Generated_Source\PSoC5/BRAKE_ADC_INT.c ****         **************************************************************************/
  99:.\Generated_Source\PSoC5/BRAKE_ADC_INT.c ****         /* `#START MAIN_ADC_ISR2`  */
 100:.\Generated_Source\PSoC5/BRAKE_ADC_INT.c **** 
 101:.\Generated_Source\PSoC5/BRAKE_ADC_INT.c ****         /* `#END`  */
 102:.\Generated_Source\PSoC5/BRAKE_ADC_INT.c **** 
 103:.\Generated_Source\PSoC5/BRAKE_ADC_INT.c ****         /* Stop the conversion conversion mode is single sample and resolution
 104:.\Generated_Source\PSoC5/BRAKE_ADC_INT.c ****         *  is above 16 bits.
 105:.\Generated_Source\PSoC5/BRAKE_ADC_INT.c ****         */
 106:.\Generated_Source\PSoC5/BRAKE_ADC_INT.c ****         #if(BRAKE_ADC_CFG2_RESOLUTION > 16 && \
 107:.\Generated_Source\PSoC5/BRAKE_ADC_INT.c ****             BRAKE_ADC_CFG2_CONVMODE == BRAKE_ADC_MODE_SINGLE_SAMPLE)
 108:.\Generated_Source\PSoC5/BRAKE_ADC_INT.c ****             BRAKE_ADC_StopConvert();
 109:.\Generated_Source\PSoC5/BRAKE_ADC_INT.c ****             /* Software flag for checking conversion complete or not. Will be used when
 110:.\Generated_Source\PSoC5/BRAKE_ADC_INT.c ****             *   resolution is above 16 bits and conversion mode is single sample 
 111:.\Generated_Source\PSoC5/BRAKE_ADC_INT.c **** 			*/
ARM GAS  C:\Users\mitchell\AppData\Local\Temp\ccLMBziH.s 			page 4


 112:.\Generated_Source\PSoC5/BRAKE_ADC_INT.c ****             BRAKE_ADC_convDone = BRAKE_ADC_DEC_CONV_DONE;
 113:.\Generated_Source\PSoC5/BRAKE_ADC_INT.c ****         #endif /* Single sample conversion mode with resolution above 16 bits */
 114:.\Generated_Source\PSoC5/BRAKE_ADC_INT.c **** 
 115:.\Generated_Source\PSoC5/BRAKE_ADC_INT.c ****     }
 116:.\Generated_Source\PSoC5/BRAKE_ADC_INT.c **** 
 117:.\Generated_Source\PSoC5/BRAKE_ADC_INT.c **** 
 118:.\Generated_Source\PSoC5/BRAKE_ADC_INT.c ****     /*****************************************************************************
 119:.\Generated_Source\PSoC5/BRAKE_ADC_INT.c ****     * Function Name: BRAKE_ADC_ISR3
 120:.\Generated_Source\PSoC5/BRAKE_ADC_INT.c ****     ******************************************************************************
 121:.\Generated_Source\PSoC5/BRAKE_ADC_INT.c ****     *
 122:.\Generated_Source\PSoC5/BRAKE_ADC_INT.c ****     * Summary:
 123:.\Generated_Source\PSoC5/BRAKE_ADC_INT.c ****     *  Handle Interrupt Service Routine.
 124:.\Generated_Source\PSoC5/BRAKE_ADC_INT.c ****     *
 125:.\Generated_Source\PSoC5/BRAKE_ADC_INT.c ****     * Parameters:
 126:.\Generated_Source\PSoC5/BRAKE_ADC_INT.c ****     *  None
 127:.\Generated_Source\PSoC5/BRAKE_ADC_INT.c ****     *
 128:.\Generated_Source\PSoC5/BRAKE_ADC_INT.c ****     * Return:
 129:.\Generated_Source\PSoC5/BRAKE_ADC_INT.c ****     *  None
 130:.\Generated_Source\PSoC5/BRAKE_ADC_INT.c ****     *
 131:.\Generated_Source\PSoC5/BRAKE_ADC_INT.c ****     * Reentrant:
 132:.\Generated_Source\PSoC5/BRAKE_ADC_INT.c ****     *  No
 133:.\Generated_Source\PSoC5/BRAKE_ADC_INT.c ****     *
 134:.\Generated_Source\PSoC5/BRAKE_ADC_INT.c ****     *****************************************************************************/
 135:.\Generated_Source\PSoC5/BRAKE_ADC_INT.c ****     CY_ISR( BRAKE_ADC_ISR3)
 136:.\Generated_Source\PSoC5/BRAKE_ADC_INT.c ****     {
  61              		.loc 1 136 0
  62              		.cfi_startproc
  63              		@ args = 0, pretend = 0, frame = 0
  64              		@ frame_needed = 0, uses_anonymous_args = 0
  65              		@ link register save eliminated.
  66 0000 7047     		bx	lr
  67              		.cfi_endproc
  68              	.LFE2:
  69              		.size	BRAKE_ADC_ISR3, .-BRAKE_ADC_ISR3
  70 0002 00BF     		.section	.text.BRAKE_ADC_ISR4,"ax",%progbits
  71              		.align	2
  72              		.global	BRAKE_ADC_ISR4
  73              		.thumb
  74              		.thumb_func
  75              		.type	BRAKE_ADC_ISR4, %function
  76              	BRAKE_ADC_ISR4:
  77              	.LFB3:
 137:.\Generated_Source\PSoC5/BRAKE_ADC_INT.c ****         /***************************************************************************
 138:.\Generated_Source\PSoC5/BRAKE_ADC_INT.c ****         *  Custom Code
 139:.\Generated_Source\PSoC5/BRAKE_ADC_INT.c ****         *  - add user ISR code between the following #START and #END tags
 140:.\Generated_Source\PSoC5/BRAKE_ADC_INT.c ****         **************************************************************************/
 141:.\Generated_Source\PSoC5/BRAKE_ADC_INT.c ****         /* `#START MAIN_ADC_ISR3`  */
 142:.\Generated_Source\PSoC5/BRAKE_ADC_INT.c **** 
 143:.\Generated_Source\PSoC5/BRAKE_ADC_INT.c ****         /* `#END`  */
 144:.\Generated_Source\PSoC5/BRAKE_ADC_INT.c **** 
 145:.\Generated_Source\PSoC5/BRAKE_ADC_INT.c ****         /* Stop the conversion if conversion mode is set to single sample and
 146:.\Generated_Source\PSoC5/BRAKE_ADC_INT.c ****         *  resolution is above 16 bits.
 147:.\Generated_Source\PSoC5/BRAKE_ADC_INT.c ****         */
 148:.\Generated_Source\PSoC5/BRAKE_ADC_INT.c ****         #if(BRAKE_ADC_CFG3_RESOLUTION > 16 && \
 149:.\Generated_Source\PSoC5/BRAKE_ADC_INT.c ****             BRAKE_ADC_CFG3_CONVMODE == BRAKE_ADC_MODE_SINGLE_SAMPLE)
 150:.\Generated_Source\PSoC5/BRAKE_ADC_INT.c ****             BRAKE_ADC_StopConvert();
 151:.\Generated_Source\PSoC5/BRAKE_ADC_INT.c ****             /* Software flag for checking conversion complete or not. Will be used when
ARM GAS  C:\Users\mitchell\AppData\Local\Temp\ccLMBziH.s 			page 5


 152:.\Generated_Source\PSoC5/BRAKE_ADC_INT.c ****             *  resolution is above 16 bits and conversion mode is single sample 
 153:.\Generated_Source\PSoC5/BRAKE_ADC_INT.c **** 			*/
 154:.\Generated_Source\PSoC5/BRAKE_ADC_INT.c ****             BRAKE_ADC_convDone = BRAKE_ADC_DEC_CONV_DONE;
 155:.\Generated_Source\PSoC5/BRAKE_ADC_INT.c ****         #endif /* Single sample conversion mode with resolution above 16 bits */
 156:.\Generated_Source\PSoC5/BRAKE_ADC_INT.c ****     }
 157:.\Generated_Source\PSoC5/BRAKE_ADC_INT.c **** 
 158:.\Generated_Source\PSoC5/BRAKE_ADC_INT.c **** 
 159:.\Generated_Source\PSoC5/BRAKE_ADC_INT.c ****     /*****************************************************************************
 160:.\Generated_Source\PSoC5/BRAKE_ADC_INT.c ****     * Function Name: BRAKE_ADC_ISR4
 161:.\Generated_Source\PSoC5/BRAKE_ADC_INT.c ****     ******************************************************************************
 162:.\Generated_Source\PSoC5/BRAKE_ADC_INT.c ****     *
 163:.\Generated_Source\PSoC5/BRAKE_ADC_INT.c ****     * Summary:
 164:.\Generated_Source\PSoC5/BRAKE_ADC_INT.c ****     *  Handle Interrupt Service Routine.
 165:.\Generated_Source\PSoC5/BRAKE_ADC_INT.c ****     *
 166:.\Generated_Source\PSoC5/BRAKE_ADC_INT.c ****     * Parameters:
 167:.\Generated_Source\PSoC5/BRAKE_ADC_INT.c ****     *  None
 168:.\Generated_Source\PSoC5/BRAKE_ADC_INT.c ****     *
 169:.\Generated_Source\PSoC5/BRAKE_ADC_INT.c ****     * Return:
 170:.\Generated_Source\PSoC5/BRAKE_ADC_INT.c ****     *  None
 171:.\Generated_Source\PSoC5/BRAKE_ADC_INT.c ****     *
 172:.\Generated_Source\PSoC5/BRAKE_ADC_INT.c ****     * Reentrant:
 173:.\Generated_Source\PSoC5/BRAKE_ADC_INT.c ****     *  No
 174:.\Generated_Source\PSoC5/BRAKE_ADC_INT.c ****     *
 175:.\Generated_Source\PSoC5/BRAKE_ADC_INT.c ****     *****************************************************************************/
 176:.\Generated_Source\PSoC5/BRAKE_ADC_INT.c ****     CY_ISR( BRAKE_ADC_ISR4)
 177:.\Generated_Source\PSoC5/BRAKE_ADC_INT.c ****     {
  78              		.loc 1 177 0
  79              		.cfi_startproc
  80              		@ args = 0, pretend = 0, frame = 0
  81              		@ frame_needed = 0, uses_anonymous_args = 0
  82              		@ link register save eliminated.
  83 0000 7047     		bx	lr
  84              		.cfi_endproc
  85              	.LFE3:
  86              		.size	BRAKE_ADC_ISR4, .-BRAKE_ADC_ISR4
  87 0002 00BF     		.text
  88              	.Letext0: