ARM GAS  C:\Users\mitchell\AppData\Local\Temp\ccIjMaGi.s 			page 1


   1              		.syntax unified
   2              		.cpu cortex-m3
   3              		.fpu softvfp
   4              		.eabi_attribute 20, 1
   5              		.eabi_attribute 21, 1
   6              		.eabi_attribute 23, 3
   7              		.eabi_attribute 24, 1
   8              		.eabi_attribute 25, 1
   9              		.eabi_attribute 26, 1
  10              		.eabi_attribute 30, 1
  11              		.eabi_attribute 34, 1
  12              		.eabi_attribute 18, 4
  13              		.thumb
  14              		.file	"CyLib.c"
  15              		.text
  16              	.Ltext0:
  17              		.cfi_sections	.debug_frame
  18              		.section	.text.CyUSB_PowerOnCheck,"ax",%progbits
  19              		.align	2
  20              		.thumb
  21              		.thumb_func
  22              		.type	CyUSB_PowerOnCheck, %function
  23              	CyUSB_PowerOnCheck:
  24              	.LFB6:
  25              		.file 1 ".\\Generated_Source\\PSoC5\\CyLib.c"
   1:.\Generated_Source\PSoC5/CyLib.c **** /*******************************************************************************
   2:.\Generated_Source\PSoC5/CyLib.c **** * File Name: CyLib.c
   3:.\Generated_Source\PSoC5/CyLib.c **** * Version 5.10
   4:.\Generated_Source\PSoC5/CyLib.c **** *
   5:.\Generated_Source\PSoC5/CyLib.c **** *  Description:
   6:.\Generated_Source\PSoC5/CyLib.c **** *   Provides a system API for the clocking, interrupts and watchdog timer.
   7:.\Generated_Source\PSoC5/CyLib.c **** *
   8:.\Generated_Source\PSoC5/CyLib.c **** *  Note:
   9:.\Generated_Source\PSoC5/CyLib.c **** *   Documentation of the API's in this file is located in the
  10:.\Generated_Source\PSoC5/CyLib.c **** *   System Reference Guide provided with PSoC Creator.
  11:.\Generated_Source\PSoC5/CyLib.c **** *
  12:.\Generated_Source\PSoC5/CyLib.c **** ********************************************************************************
  13:.\Generated_Source\PSoC5/CyLib.c **** * Copyright 2008-2015, Cypress Semiconductor Corporation.  All rights reserved.
  14:.\Generated_Source\PSoC5/CyLib.c **** * You may use this file only in accordance with the license, terms, conditions,
  15:.\Generated_Source\PSoC5/CyLib.c **** * disclaimers, and limitations in the end user license agreement accompanying
  16:.\Generated_Source\PSoC5/CyLib.c **** * the software package with which this file was provided.
  17:.\Generated_Source\PSoC5/CyLib.c **** *******************************************************************************/
  18:.\Generated_Source\PSoC5/CyLib.c **** 
  19:.\Generated_Source\PSoC5/CyLib.c **** #include "CyLib.h"
  20:.\Generated_Source\PSoC5/CyLib.c **** 
  21:.\Generated_Source\PSoC5/CyLib.c **** 
  22:.\Generated_Source\PSoC5/CyLib.c **** /*******************************************************************************
  23:.\Generated_Source\PSoC5/CyLib.c **** * The CyResetStatus variable is used to obtain value of RESET_SR0 register after
  24:.\Generated_Source\PSoC5/CyLib.c **** * a device reset. It is set from initialize_psoc() at the early initialization
  25:.\Generated_Source\PSoC5/CyLib.c **** * stage. In case of IAR EW IDE, initialize_psoc() is executed before the data
  26:.\Generated_Source\PSoC5/CyLib.c **** * sections are initialized. To avoid zeroing, CyResetStatus should be placed
  27:.\Generated_Source\PSoC5/CyLib.c **** * to the .noinit section.
  28:.\Generated_Source\PSoC5/CyLib.c **** *******************************************************************************/
  29:.\Generated_Source\PSoC5/CyLib.c **** CY_NOINIT uint8 CYXDATA CyResetStatus;
  30:.\Generated_Source\PSoC5/CyLib.c **** 
  31:.\Generated_Source\PSoC5/CyLib.c **** 
  32:.\Generated_Source\PSoC5/CyLib.c **** /* Variable Vdda */
ARM GAS  C:\Users\mitchell\AppData\Local\Temp\ccIjMaGi.s 			page 2


  33:.\Generated_Source\PSoC5/CyLib.c **** #if(CYDEV_VARIABLE_VDDA == 1)
  34:.\Generated_Source\PSoC5/CyLib.c **** 
  35:.\Generated_Source\PSoC5/CyLib.c ****     uint8 CyScPumpEnabled = (uint8)(CYDEV_VDDA_MV < 2700);
  36:.\Generated_Source\PSoC5/CyLib.c **** 
  37:.\Generated_Source\PSoC5/CyLib.c **** #endif  /* (CYDEV_VARIABLE_VDDA == 1) */
  38:.\Generated_Source\PSoC5/CyLib.c **** 
  39:.\Generated_Source\PSoC5/CyLib.c **** 
  40:.\Generated_Source\PSoC5/CyLib.c **** /* Do not use these definitions directly in your application */
  41:.\Generated_Source\PSoC5/CyLib.c **** uint32 cydelay_freq_hz  = BCLK__BUS_CLK__HZ;
  42:.\Generated_Source\PSoC5/CyLib.c **** uint32 cydelay_freq_khz = (BCLK__BUS_CLK__HZ + 999u) / 1000u;
  43:.\Generated_Source\PSoC5/CyLib.c **** uint8  cydelay_freq_mhz = (uint8)((BCLK__BUS_CLK__HZ + 999999u) / 1000000u);
  44:.\Generated_Source\PSoC5/CyLib.c **** uint32 cydelay_32k_ms   = 32768u * ((BCLK__BUS_CLK__HZ + 999u) / 1000u);
  45:.\Generated_Source\PSoC5/CyLib.c **** 
  46:.\Generated_Source\PSoC5/CyLib.c **** 
  47:.\Generated_Source\PSoC5/CyLib.c **** /* Function Prototypes */
  48:.\Generated_Source\PSoC5/CyLib.c **** static uint8 CyUSB_PowerOnCheck(void)  ;
  49:.\Generated_Source\PSoC5/CyLib.c **** static void CyIMO_SetTrimValue(uint8 freq) ;
  50:.\Generated_Source\PSoC5/CyLib.c **** static void CyBusClk_Internal_SetDivider(uint16 divider);
  51:.\Generated_Source\PSoC5/CyLib.c **** 
  52:.\Generated_Source\PSoC5/CyLib.c **** #if(CY_PSOC5)
  53:.\Generated_Source\PSoC5/CyLib.c ****     static cySysTickCallback CySysTickCallbacks[CY_SYS_SYST_NUM_OF_CALLBACKS];
  54:.\Generated_Source\PSoC5/CyLib.c ****     static void CySysTickServiceCallbacks(void);
  55:.\Generated_Source\PSoC5/CyLib.c ****     uint32 CySysTickInitVar = 0u;
  56:.\Generated_Source\PSoC5/CyLib.c **** #endif  /* (CY_PSOC5) */
  57:.\Generated_Source\PSoC5/CyLib.c **** 
  58:.\Generated_Source\PSoC5/CyLib.c **** 
  59:.\Generated_Source\PSoC5/CyLib.c **** /*******************************************************************************
  60:.\Generated_Source\PSoC5/CyLib.c **** * Function Name: CyPLL_OUT_Start
  61:.\Generated_Source\PSoC5/CyLib.c **** ********************************************************************************
  62:.\Generated_Source\PSoC5/CyLib.c **** *
  63:.\Generated_Source\PSoC5/CyLib.c **** * Summary:
  64:.\Generated_Source\PSoC5/CyLib.c **** *   Enables the PLL.  Optionally waits for it to become stable.
  65:.\Generated_Source\PSoC5/CyLib.c **** *   Waits at least 250 us or until it is detected that the PLL is stable.
  66:.\Generated_Source\PSoC5/CyLib.c **** *
  67:.\Generated_Source\PSoC5/CyLib.c **** * Parameters:
  68:.\Generated_Source\PSoC5/CyLib.c **** *   wait:
  69:.\Generated_Source\PSoC5/CyLib.c **** *    0: Return immediately after configuration
  70:.\Generated_Source\PSoC5/CyLib.c **** *    1: Wait for PLL lock or timeout.
  71:.\Generated_Source\PSoC5/CyLib.c **** *
  72:.\Generated_Source\PSoC5/CyLib.c **** * Return:
  73:.\Generated_Source\PSoC5/CyLib.c **** *   Status
  74:.\Generated_Source\PSoC5/CyLib.c **** *    CYRET_SUCCESS - Completed successfully
  75:.\Generated_Source\PSoC5/CyLib.c **** *    CYRET_TIMEOUT - Timeout occurred without detecting a stable clock.
  76:.\Generated_Source\PSoC5/CyLib.c **** *     If the input source of the clock is jittery, then the lock indication
  77:.\Generated_Source\PSoC5/CyLib.c **** *     may not occur.  However, after the timeout has expired the generated PLL
  78:.\Generated_Source\PSoC5/CyLib.c **** *     clock can still be used.
  79:.\Generated_Source\PSoC5/CyLib.c **** *
  80:.\Generated_Source\PSoC5/CyLib.c **** * Side Effects:
  81:.\Generated_Source\PSoC5/CyLib.c **** *  If wait is enabled: This function uses the Fast Time Wheel to time the wait.
  82:.\Generated_Source\PSoC5/CyLib.c **** *  Any other use of the Fast Time Wheel will be stopped during the period of
  83:.\Generated_Source\PSoC5/CyLib.c **** *  this function and then restored. This function also uses the 100 KHz ILO.
  84:.\Generated_Source\PSoC5/CyLib.c **** *  If not enabled, this function will enable the 100 KHz ILO for the period of
  85:.\Generated_Source\PSoC5/CyLib.c **** *  this function.
  86:.\Generated_Source\PSoC5/CyLib.c **** *
  87:.\Generated_Source\PSoC5/CyLib.c **** *  No changes to the setup of the ILO, Fast Time Wheel, Central Time Wheel or
  88:.\Generated_Source\PSoC5/CyLib.c **** *  Once Per Second interrupt may be made by interrupt routines during the period
  89:.\Generated_Source\PSoC5/CyLib.c **** *  of this function execution. The current operation of the ILO, Central Time
ARM GAS  C:\Users\mitchell\AppData\Local\Temp\ccIjMaGi.s 			page 3


  90:.\Generated_Source\PSoC5/CyLib.c **** *  Wheel and Once Per Second interrupt are maintained during the operation of
  91:.\Generated_Source\PSoC5/CyLib.c **** *  this function provided the reading of the Power Manager Interrupt Status
  92:.\Generated_Source\PSoC5/CyLib.c **** *  Register is only done using the CyPmReadStatus() function.
  93:.\Generated_Source\PSoC5/CyLib.c **** *
  94:.\Generated_Source\PSoC5/CyLib.c **** *******************************************************************************/
  95:.\Generated_Source\PSoC5/CyLib.c **** cystatus CyPLL_OUT_Start(uint8 wait) 
  96:.\Generated_Source\PSoC5/CyLib.c **** {
  97:.\Generated_Source\PSoC5/CyLib.c ****     cystatus status = CYRET_SUCCESS;
  98:.\Generated_Source\PSoC5/CyLib.c **** 
  99:.\Generated_Source\PSoC5/CyLib.c ****     uint8 iloEnableState;
 100:.\Generated_Source\PSoC5/CyLib.c ****     uint8 pmTwCfg0State;
 101:.\Generated_Source\PSoC5/CyLib.c ****     uint8 pmTwCfg2State;
 102:.\Generated_Source\PSoC5/CyLib.c **** 
 103:.\Generated_Source\PSoC5/CyLib.c **** 
 104:.\Generated_Source\PSoC5/CyLib.c ****     /* Enables PLL circuit  */
 105:.\Generated_Source\PSoC5/CyLib.c ****     CY_CLK_PLL_CFG0_REG |= CY_CLK_PLL_ENABLE;
 106:.\Generated_Source\PSoC5/CyLib.c **** 
 107:.\Generated_Source\PSoC5/CyLib.c ****     if(wait != 0u)
 108:.\Generated_Source\PSoC5/CyLib.c ****     {
 109:.\Generated_Source\PSoC5/CyLib.c ****         /* Save 100 KHz ILO, FTW interval, enable and interrupt enable */
 110:.\Generated_Source\PSoC5/CyLib.c ****         iloEnableState = CY_LIB_SLOWCLK_ILO_CR0_REG & CY_LIB_SLOWCLK_ILO_CR0_EN_100KHZ;
 111:.\Generated_Source\PSoC5/CyLib.c ****         pmTwCfg0State = CY_LIB_PM_TW_CFG0_REG;
 112:.\Generated_Source\PSoC5/CyLib.c ****         pmTwCfg2State = CY_LIB_PM_TW_CFG2_REG;
 113:.\Generated_Source\PSoC5/CyLib.c **** 
 114:.\Generated_Source\PSoC5/CyLib.c ****         CyPmFtwSetInterval(CY_CLK_PLL_FTW_INTERVAL);
 115:.\Generated_Source\PSoC5/CyLib.c **** 
 116:.\Generated_Source\PSoC5/CyLib.c ****         status = CYRET_TIMEOUT;
 117:.\Generated_Source\PSoC5/CyLib.c **** 
 118:.\Generated_Source\PSoC5/CyLib.c ****         while(0u == (CY_PM_FTW_INT & CyPmReadStatus(CY_PM_FTW_INT)))
 119:.\Generated_Source\PSoC5/CyLib.c ****         {
 120:.\Generated_Source\PSoC5/CyLib.c ****             /* Wait for interrupt status */
 121:.\Generated_Source\PSoC5/CyLib.c ****             if(0u != (CY_CLK_PLL_SR_REG & CY_CLK_PLL_LOCK_STATUS))
 122:.\Generated_Source\PSoC5/CyLib.c ****             {
 123:.\Generated_Source\PSoC5/CyLib.c ****                 if(0u != (CY_CLK_PLL_SR_REG & CY_CLK_PLL_LOCK_STATUS))
 124:.\Generated_Source\PSoC5/CyLib.c ****                 {
 125:.\Generated_Source\PSoC5/CyLib.c ****                     status = CYRET_SUCCESS;
 126:.\Generated_Source\PSoC5/CyLib.c ****                     break;
 127:.\Generated_Source\PSoC5/CyLib.c ****                 }
 128:.\Generated_Source\PSoC5/CyLib.c ****             }
 129:.\Generated_Source\PSoC5/CyLib.c ****         }
 130:.\Generated_Source\PSoC5/CyLib.c **** 
 131:.\Generated_Source\PSoC5/CyLib.c ****         /* Restore 100 KHz ILO, FTW interval, enable and interrupt enable */
 132:.\Generated_Source\PSoC5/CyLib.c ****         if(0u == iloEnableState)
 133:.\Generated_Source\PSoC5/CyLib.c ****         {
 134:.\Generated_Source\PSoC5/CyLib.c ****             CyILO_Stop100K();
 135:.\Generated_Source\PSoC5/CyLib.c ****         }
 136:.\Generated_Source\PSoC5/CyLib.c **** 
 137:.\Generated_Source\PSoC5/CyLib.c ****         CY_LIB_PM_TW_CFG0_REG = pmTwCfg0State;
 138:.\Generated_Source\PSoC5/CyLib.c ****         CY_LIB_PM_TW_CFG2_REG = pmTwCfg2State;
 139:.\Generated_Source\PSoC5/CyLib.c ****     }
 140:.\Generated_Source\PSoC5/CyLib.c **** 
 141:.\Generated_Source\PSoC5/CyLib.c ****     return(status);
 142:.\Generated_Source\PSoC5/CyLib.c **** }
 143:.\Generated_Source\PSoC5/CyLib.c **** 
 144:.\Generated_Source\PSoC5/CyLib.c **** 
 145:.\Generated_Source\PSoC5/CyLib.c **** /*******************************************************************************
 146:.\Generated_Source\PSoC5/CyLib.c **** * Function Name: CyPLL_OUT_Stop
ARM GAS  C:\Users\mitchell\AppData\Local\Temp\ccIjMaGi.s 			page 4


 147:.\Generated_Source\PSoC5/CyLib.c **** ********************************************************************************
 148:.\Generated_Source\PSoC5/CyLib.c **** *
 149:.\Generated_Source\PSoC5/CyLib.c **** * Summary:
 150:.\Generated_Source\PSoC5/CyLib.c **** *  Disables the PLL.
 151:.\Generated_Source\PSoC5/CyLib.c **** *
 152:.\Generated_Source\PSoC5/CyLib.c **** * Parameters:
 153:.\Generated_Source\PSoC5/CyLib.c **** *  None
 154:.\Generated_Source\PSoC5/CyLib.c **** *
 155:.\Generated_Source\PSoC5/CyLib.c **** * Return:
 156:.\Generated_Source\PSoC5/CyLib.c **** *  None
 157:.\Generated_Source\PSoC5/CyLib.c **** *
 158:.\Generated_Source\PSoC5/CyLib.c **** *******************************************************************************/
 159:.\Generated_Source\PSoC5/CyLib.c **** void CyPLL_OUT_Stop(void) 
 160:.\Generated_Source\PSoC5/CyLib.c **** {
 161:.\Generated_Source\PSoC5/CyLib.c ****     CY_CLK_PLL_CFG0_REG &= ((uint8)(~CY_CLK_PLL_ENABLE));
 162:.\Generated_Source\PSoC5/CyLib.c **** }
 163:.\Generated_Source\PSoC5/CyLib.c **** 
 164:.\Generated_Source\PSoC5/CyLib.c **** 
 165:.\Generated_Source\PSoC5/CyLib.c **** /*******************************************************************************
 166:.\Generated_Source\PSoC5/CyLib.c **** * Function Name: CyPLL_OUT_SetPQ
 167:.\Generated_Source\PSoC5/CyLib.c **** ********************************************************************************
 168:.\Generated_Source\PSoC5/CyLib.c **** *
 169:.\Generated_Source\PSoC5/CyLib.c **** * Summary:
 170:.\Generated_Source\PSoC5/CyLib.c **** *  Sets the P and Q dividers and the charge pump current.
 171:.\Generated_Source\PSoC5/CyLib.c **** *  The Frequency Out will be P/Q * Frequency In.
 172:.\Generated_Source\PSoC5/CyLib.c **** *  The PLL must be disabled before calling this function.
 173:.\Generated_Source\PSoC5/CyLib.c **** *
 174:.\Generated_Source\PSoC5/CyLib.c **** * Parameters:
 175:.\Generated_Source\PSoC5/CyLib.c **** *  uint8 pDiv:
 176:.\Generated_Source\PSoC5/CyLib.c **** *   Valid range [8 - 255].
 177:.\Generated_Source\PSoC5/CyLib.c **** *
 178:.\Generated_Source\PSoC5/CyLib.c **** *  uint8 qDiv:
 179:.\Generated_Source\PSoC5/CyLib.c **** *   Valid range [1 - 16]. Input Frequency / Q must be in range of 1 to 3 MHz.
 180:.\Generated_Source\PSoC5/CyLib.c **** 
 181:.\Generated_Source\PSoC5/CyLib.c **** *  uint8 current:
 182:.\Generated_Source\PSoC5/CyLib.c **** *   Valid range [1 - 7]. Charge pump current in uA. Refer to the device TRM and
 183:.\Generated_Source\PSoC5/CyLib.c **** *   datasheet for more information.
 184:.\Generated_Source\PSoC5/CyLib.c **** *
 185:.\Generated_Source\PSoC5/CyLib.c **** * Return:
 186:.\Generated_Source\PSoC5/CyLib.c **** *  None
 187:.\Generated_Source\PSoC5/CyLib.c **** *
 188:.\Generated_Source\PSoC5/CyLib.c **** * Side Effects:
 189:.\Generated_Source\PSoC5/CyLib.c **** *  If this function execution results in the CPU clock frequency increasing,
 190:.\Generated_Source\PSoC5/CyLib.c **** *  then the number of clock cycles the cache will wait before it samples data
 191:.\Generated_Source\PSoC5/CyLib.c **** *  coming back from the Flash must be adjusted by calling
 192:.\Generated_Source\PSoC5/CyLib.c **** *  CyFlash_SetWaitCycles() with an appropriate parameter. It can be optionally
 193:.\Generated_Source\PSoC5/CyLib.c **** *  called if the CPU clock frequency is lowered in order to improve the CPU
 194:.\Generated_Source\PSoC5/CyLib.c **** *  performance. See CyFlash_SetWaitCycles() description for more information.
 195:.\Generated_Source\PSoC5/CyLib.c **** *
 196:.\Generated_Source\PSoC5/CyLib.c **** *******************************************************************************/
 197:.\Generated_Source\PSoC5/CyLib.c **** void CyPLL_OUT_SetPQ(uint8 pDiv, uint8 qDiv, uint8 current) 
 198:.\Generated_Source\PSoC5/CyLib.c **** {
 199:.\Generated_Source\PSoC5/CyLib.c ****     /* Halt CPU in debug mode if PLL is enabled */
 200:.\Generated_Source\PSoC5/CyLib.c ****     CYASSERT(0u == (CY_CLK_PLL_CFG0_REG & CY_CLK_PLL_ENABLE));
 201:.\Generated_Source\PSoC5/CyLib.c **** 
 202:.\Generated_Source\PSoC5/CyLib.c ****     if((pDiv    >= CY_CLK_PLL_MIN_P_VALUE  ) &&
 203:.\Generated_Source\PSoC5/CyLib.c ****        (qDiv    <= CY_CLK_PLL_MAX_Q_VALUE  ) && (qDiv    >= CY_CLK_PLL_MIN_Q_VALUE  ) &&
ARM GAS  C:\Users\mitchell\AppData\Local\Temp\ccIjMaGi.s 			page 5


 204:.\Generated_Source\PSoC5/CyLib.c ****        (current >= CY_CLK_PLL_MIN_CUR_VALUE) && (current <= CY_CLK_PLL_MAX_CUR_VALUE))
 205:.\Generated_Source\PSoC5/CyLib.c ****     {
 206:.\Generated_Source\PSoC5/CyLib.c ****         /* Set new values */
 207:.\Generated_Source\PSoC5/CyLib.c ****         CY_CLK_PLL_P_REG = pDiv;
 208:.\Generated_Source\PSoC5/CyLib.c ****         CY_CLK_PLL_Q_REG = ((uint8)(qDiv - 1u));
 209:.\Generated_Source\PSoC5/CyLib.c ****         CY_CLK_PLL_CFG1_REG = (CY_CLK_PLL_CFG1_REG & CY_CLK_PLL_CURRENT_MASK) |
 210:.\Generated_Source\PSoC5/CyLib.c ****                                 ((uint8)(((uint8)(current - 1u)) << CY_CLK_PLL_CURRENT_POSITION));
 211:.\Generated_Source\PSoC5/CyLib.c ****     }
 212:.\Generated_Source\PSoC5/CyLib.c ****     else
 213:.\Generated_Source\PSoC5/CyLib.c ****     {
 214:.\Generated_Source\PSoC5/CyLib.c ****         /***********************************************************************
 215:.\Generated_Source\PSoC5/CyLib.c ****         * Halt CPU in debug mode if:
 216:.\Generated_Source\PSoC5/CyLib.c ****         * - P divider is less than required
 217:.\Generated_Source\PSoC5/CyLib.c ****         * - Q divider is out of range
 218:.\Generated_Source\PSoC5/CyLib.c ****         * - pump current is out of range
 219:.\Generated_Source\PSoC5/CyLib.c ****         ***********************************************************************/
 220:.\Generated_Source\PSoC5/CyLib.c ****         CYASSERT(0u != 0u);
 221:.\Generated_Source\PSoC5/CyLib.c ****     }
 222:.\Generated_Source\PSoC5/CyLib.c **** 
 223:.\Generated_Source\PSoC5/CyLib.c **** }
 224:.\Generated_Source\PSoC5/CyLib.c **** 
 225:.\Generated_Source\PSoC5/CyLib.c **** 
 226:.\Generated_Source\PSoC5/CyLib.c **** /*******************************************************************************
 227:.\Generated_Source\PSoC5/CyLib.c **** * Function Name: CyPLL_OUT_SetSource
 228:.\Generated_Source\PSoC5/CyLib.c **** ********************************************************************************
 229:.\Generated_Source\PSoC5/CyLib.c **** *
 230:.\Generated_Source\PSoC5/CyLib.c **** * Summary:
 231:.\Generated_Source\PSoC5/CyLib.c **** *  Sets the input clock source to the PLL. The PLL must be disabled before
 232:.\Generated_Source\PSoC5/CyLib.c **** *  calling this function.
 233:.\Generated_Source\PSoC5/CyLib.c **** *
 234:.\Generated_Source\PSoC5/CyLib.c **** * Parameters:
 235:.\Generated_Source\PSoC5/CyLib.c **** *   source: One of the three available PLL clock sources
 236:.\Generated_Source\PSoC5/CyLib.c **** *    CY_PLL_SOURCE_IMO  :   IMO
 237:.\Generated_Source\PSoC5/CyLib.c **** *    CY_PLL_SOURCE_XTAL :   MHz Crystal
 238:.\Generated_Source\PSoC5/CyLib.c **** *    CY_PLL_SOURCE_DSI  :   DSI
 239:.\Generated_Source\PSoC5/CyLib.c **** *
 240:.\Generated_Source\PSoC5/CyLib.c **** * Return:
 241:.\Generated_Source\PSoC5/CyLib.c **** *  None
 242:.\Generated_Source\PSoC5/CyLib.c **** *
 243:.\Generated_Source\PSoC5/CyLib.c **** * Side Effects:
 244:.\Generated_Source\PSoC5/CyLib.c **** *  If this function execution results in the CPU clock frequency increasing,
 245:.\Generated_Source\PSoC5/CyLib.c **** *  then the number of clock cycles the cache will wait before it samples data
 246:.\Generated_Source\PSoC5/CyLib.c **** *  coming back from the3 Flash must be adjusted by calling
 247:.\Generated_Source\PSoC5/CyLib.c **** *  CyFlash_SetWaitCycles() with an appropriate parameter. It can be optionally
 248:.\Generated_Source\PSoC5/CyLib.c **** *  called if the CPU clock frequency is lowered in order to improve the CPU
 249:.\Generated_Source\PSoC5/CyLib.c **** *  performance. See CyFlash_SetWaitCycles() description for more information.
 250:.\Generated_Source\PSoC5/CyLib.c **** *
 251:.\Generated_Source\PSoC5/CyLib.c **** *******************************************************************************/
 252:.\Generated_Source\PSoC5/CyLib.c **** void CyPLL_OUT_SetSource(uint8 source) 
 253:.\Generated_Source\PSoC5/CyLib.c **** {
 254:.\Generated_Source\PSoC5/CyLib.c ****     /* Halt CPU in debug mode if PLL is enabled */
 255:.\Generated_Source\PSoC5/CyLib.c ****     CYASSERT(0u == (CY_CLK_PLL_CFG0_REG & CY_CLK_PLL_ENABLE));
 256:.\Generated_Source\PSoC5/CyLib.c **** 
 257:.\Generated_Source\PSoC5/CyLib.c ****     switch(source)
 258:.\Generated_Source\PSoC5/CyLib.c ****     {
 259:.\Generated_Source\PSoC5/CyLib.c ****         case CY_PLL_SOURCE_IMO:
 260:.\Generated_Source\PSoC5/CyLib.c ****         case CY_PLL_SOURCE_XTAL:
ARM GAS  C:\Users\mitchell\AppData\Local\Temp\ccIjMaGi.s 			page 6


 261:.\Generated_Source\PSoC5/CyLib.c ****         case CY_PLL_SOURCE_DSI:
 262:.\Generated_Source\PSoC5/CyLib.c ****             CY_LIB_CLKDIST_CR_REG = ((CY_LIB_CLKDIST_CR_REG & CY_LIB_CLKDIST_CR_PLL_SCR_MASK) | sou
 263:.\Generated_Source\PSoC5/CyLib.c ****         break;
 264:.\Generated_Source\PSoC5/CyLib.c **** 
 265:.\Generated_Source\PSoC5/CyLib.c ****         default:
 266:.\Generated_Source\PSoC5/CyLib.c ****             CYASSERT(0u != 0u);
 267:.\Generated_Source\PSoC5/CyLib.c ****         break;
 268:.\Generated_Source\PSoC5/CyLib.c ****     }
 269:.\Generated_Source\PSoC5/CyLib.c **** }
 270:.\Generated_Source\PSoC5/CyLib.c **** 
 271:.\Generated_Source\PSoC5/CyLib.c **** 
 272:.\Generated_Source\PSoC5/CyLib.c **** /*******************************************************************************
 273:.\Generated_Source\PSoC5/CyLib.c **** * Function Name: CyIMO_Start
 274:.\Generated_Source\PSoC5/CyLib.c **** ********************************************************************************
 275:.\Generated_Source\PSoC5/CyLib.c **** *
 276:.\Generated_Source\PSoC5/CyLib.c **** * Summary:
 277:.\Generated_Source\PSoC5/CyLib.c **** *  Enables the IMO. Optionally waits at least 6 us for it to settle.
 278:.\Generated_Source\PSoC5/CyLib.c **** *
 279:.\Generated_Source\PSoC5/CyLib.c **** * Parameters:
 280:.\Generated_Source\PSoC5/CyLib.c **** *  uint8 wait:
 281:.\Generated_Source\PSoC5/CyLib.c **** *   0: Return immediately after configuration
 282:.\Generated_Source\PSoC5/CyLib.c **** *   1: Wait for at least 6 us for the IMO to settle.
 283:.\Generated_Source\PSoC5/CyLib.c **** *
 284:.\Generated_Source\PSoC5/CyLib.c **** * Return:
 285:.\Generated_Source\PSoC5/CyLib.c **** *  None
 286:.\Generated_Source\PSoC5/CyLib.c **** *
 287:.\Generated_Source\PSoC5/CyLib.c **** * Side Effects:
 288:.\Generated_Source\PSoC5/CyLib.c **** *  If wait is enabled: This function uses the Fast Time Wheel to time the wait.
 289:.\Generated_Source\PSoC5/CyLib.c **** *  Any other use of the Fast Time Wheel will be stopped during the period of
 290:.\Generated_Source\PSoC5/CyLib.c **** *  this function and then restored. This function also uses the 100 KHz ILO.
 291:.\Generated_Source\PSoC5/CyLib.c **** *  If not enabled, this function will enable the 100 KHz ILO for the period of
 292:.\Generated_Source\PSoC5/CyLib.c **** *  this function.
 293:.\Generated_Source\PSoC5/CyLib.c **** *
 294:.\Generated_Source\PSoC5/CyLib.c **** *  No changes to the setup of the ILO, Fast Time Wheel, Central Time Wheel or
 295:.\Generated_Source\PSoC5/CyLib.c **** *  Once Per Second interrupt may be made by interrupt routines during the period
 296:.\Generated_Source\PSoC5/CyLib.c **** *  of this function execution. The current operation of the ILO, Central Time
 297:.\Generated_Source\PSoC5/CyLib.c **** *  Wheel and Once Per Second interrupt are maintained during the operation of
 298:.\Generated_Source\PSoC5/CyLib.c **** *  this function provided the reading of the Power Manager Interrupt Status
 299:.\Generated_Source\PSoC5/CyLib.c **** *  Register is only done using the CyPmReadStatus() function.
 300:.\Generated_Source\PSoC5/CyLib.c **** *
 301:.\Generated_Source\PSoC5/CyLib.c **** *******************************************************************************/
 302:.\Generated_Source\PSoC5/CyLib.c **** void CyIMO_Start(uint8 wait) 
 303:.\Generated_Source\PSoC5/CyLib.c **** {
 304:.\Generated_Source\PSoC5/CyLib.c ****     uint8 pmFtwCfg2Reg;
 305:.\Generated_Source\PSoC5/CyLib.c ****     uint8 pmFtwCfg0Reg;
 306:.\Generated_Source\PSoC5/CyLib.c ****     uint8 ilo100KhzEnable;
 307:.\Generated_Source\PSoC5/CyLib.c **** 
 308:.\Generated_Source\PSoC5/CyLib.c **** 
 309:.\Generated_Source\PSoC5/CyLib.c ****     CY_LIB_PM_ACT_CFG0_REG  |= CY_LIB_PM_ACT_CFG0_IMO_EN;
 310:.\Generated_Source\PSoC5/CyLib.c ****     CY_LIB_PM_STBY_CFG0_REG |= CY_LIB_PM_STBY_CFG0_IMO_EN;
 311:.\Generated_Source\PSoC5/CyLib.c **** 
 312:.\Generated_Source\PSoC5/CyLib.c ****     if(0u != wait)
 313:.\Generated_Source\PSoC5/CyLib.c ****     {
 314:.\Generated_Source\PSoC5/CyLib.c ****         /* Need to turn on 100KHz ILO if it happens to not already be running.*/
 315:.\Generated_Source\PSoC5/CyLib.c ****         ilo100KhzEnable = CY_LIB_SLOWCLK_ILO_CR0_REG & CY_LIB_SLOWCLK_ILO_CR0_EN_100KHZ;
 316:.\Generated_Source\PSoC5/CyLib.c ****         pmFtwCfg0Reg = CY_LIB_PM_TW_CFG0_REG;
 317:.\Generated_Source\PSoC5/CyLib.c ****         pmFtwCfg2Reg = CY_LIB_PM_TW_CFG2_REG;
ARM GAS  C:\Users\mitchell\AppData\Local\Temp\ccIjMaGi.s 			page 7


 318:.\Generated_Source\PSoC5/CyLib.c **** 
 319:.\Generated_Source\PSoC5/CyLib.c ****         CyPmFtwSetInterval(CY_LIB_CLK_IMO_FTW_TIMEOUT);
 320:.\Generated_Source\PSoC5/CyLib.c **** 
 321:.\Generated_Source\PSoC5/CyLib.c ****         while (0u == (CY_PM_FTW_INT & CyPmReadStatus(CY_PM_FTW_INT)))
 322:.\Generated_Source\PSoC5/CyLib.c ****         {
 323:.\Generated_Source\PSoC5/CyLib.c ****             /* Wait for interrupt status */
 324:.\Generated_Source\PSoC5/CyLib.c ****         }
 325:.\Generated_Source\PSoC5/CyLib.c **** 
 326:.\Generated_Source\PSoC5/CyLib.c ****         if(0u == ilo100KhzEnable)
 327:.\Generated_Source\PSoC5/CyLib.c ****         {
 328:.\Generated_Source\PSoC5/CyLib.c ****             CyILO_Stop100K();
 329:.\Generated_Source\PSoC5/CyLib.c ****         }
 330:.\Generated_Source\PSoC5/CyLib.c **** 
 331:.\Generated_Source\PSoC5/CyLib.c ****         CY_LIB_PM_TW_CFG0_REG = pmFtwCfg0Reg;
 332:.\Generated_Source\PSoC5/CyLib.c ****         CY_LIB_PM_TW_CFG2_REG = pmFtwCfg2Reg;
 333:.\Generated_Source\PSoC5/CyLib.c ****     }
 334:.\Generated_Source\PSoC5/CyLib.c **** }
 335:.\Generated_Source\PSoC5/CyLib.c **** 
 336:.\Generated_Source\PSoC5/CyLib.c **** 
 337:.\Generated_Source\PSoC5/CyLib.c **** /*******************************************************************************
 338:.\Generated_Source\PSoC5/CyLib.c **** * Function Name: CyIMO_Stop
 339:.\Generated_Source\PSoC5/CyLib.c **** ********************************************************************************
 340:.\Generated_Source\PSoC5/CyLib.c **** *
 341:.\Generated_Source\PSoC5/CyLib.c **** * Summary:
 342:.\Generated_Source\PSoC5/CyLib.c **** *   Disables the IMO.
 343:.\Generated_Source\PSoC5/CyLib.c **** *
 344:.\Generated_Source\PSoC5/CyLib.c **** * Parameters:
 345:.\Generated_Source\PSoC5/CyLib.c **** *  None
 346:.\Generated_Source\PSoC5/CyLib.c **** *
 347:.\Generated_Source\PSoC5/CyLib.c **** * Return:
 348:.\Generated_Source\PSoC5/CyLib.c **** *  None
 349:.\Generated_Source\PSoC5/CyLib.c **** *
 350:.\Generated_Source\PSoC5/CyLib.c **** *******************************************************************************/
 351:.\Generated_Source\PSoC5/CyLib.c **** void CyIMO_Stop(void) 
 352:.\Generated_Source\PSoC5/CyLib.c **** {
 353:.\Generated_Source\PSoC5/CyLib.c ****     CY_LIB_PM_ACT_CFG0_REG  &= ((uint8) (~CY_LIB_PM_ACT_CFG0_IMO_EN));
 354:.\Generated_Source\PSoC5/CyLib.c ****     CY_LIB_PM_STBY_CFG0_REG &= ((uint8) (~CY_LIB_PM_STBY_CFG0_IMO_EN));
 355:.\Generated_Source\PSoC5/CyLib.c **** }
 356:.\Generated_Source\PSoC5/CyLib.c **** 
 357:.\Generated_Source\PSoC5/CyLib.c **** 
 358:.\Generated_Source\PSoC5/CyLib.c **** /*******************************************************************************
 359:.\Generated_Source\PSoC5/CyLib.c **** * Function Name: CyUSB_PowerOnCheck
 360:.\Generated_Source\PSoC5/CyLib.c **** ********************************************************************************
 361:.\Generated_Source\PSoC5/CyLib.c **** *
 362:.\Generated_Source\PSoC5/CyLib.c **** * Summary:
 363:.\Generated_Source\PSoC5/CyLib.c **** *  Returns the USB power status value. A private function to cy_boot.
 364:.\Generated_Source\PSoC5/CyLib.c **** *
 365:.\Generated_Source\PSoC5/CyLib.c **** * Parameters:
 366:.\Generated_Source\PSoC5/CyLib.c **** *   None
 367:.\Generated_Source\PSoC5/CyLib.c **** *
 368:.\Generated_Source\PSoC5/CyLib.c **** * Return:
 369:.\Generated_Source\PSoC5/CyLib.c **** *   uint8: one if the USB is enabled, 0 if not enabled.
 370:.\Generated_Source\PSoC5/CyLib.c **** *
 371:.\Generated_Source\PSoC5/CyLib.c **** *******************************************************************************/
 372:.\Generated_Source\PSoC5/CyLib.c **** static uint8 CyUSB_PowerOnCheck(void)  
 373:.\Generated_Source\PSoC5/CyLib.c **** {
  26              		.loc 1 373 0
ARM GAS  C:\Users\mitchell\AppData\Local\Temp\ccIjMaGi.s 			page 8


  27              		.cfi_startproc
  28              		@ args = 0, pretend = 0, frame = 0
  29              		@ frame_needed = 0, uses_anonymous_args = 0
  30              		@ link register save eliminated.
  31              	.LVL0:
 374:.\Generated_Source\PSoC5/CyLib.c ****     uint8 poweredOn = 0u;
 375:.\Generated_Source\PSoC5/CyLib.c **** 
 376:.\Generated_Source\PSoC5/CyLib.c ****     /* Check whether device is in Active or AltActive and if USB is powered on */
 377:.\Generated_Source\PSoC5/CyLib.c ****     if((((CY_PM_MODE_CSR_REG & CY_PM_MODE_CSR_MASK) == CY_PM_MODE_CSR_ACTIVE ) &&
  32              		.loc 1 377 0
  33 0000 0E4B     		ldr	r3, .L7
  34 0002 1B78     		ldrb	r3, [r3]	@ zero_extendqisi2
  35 0004 13F0070F 		tst	r3, #7
  36 0008 04D1     		bne	.L2
 378:.\Generated_Source\PSoC5/CyLib.c ****        (0u != (CY_LIB_PM_ACT_CFG5_REG & CY_ACT_USB_ENABLED     )))  ||
  37              		.loc 1 378 0 discriminator 1
  38 000a 0D4B     		ldr	r3, .L7+4
  39 000c 1B78     		ldrb	r3, [r3]	@ zero_extendqisi2
 377:.\Generated_Source\PSoC5/CyLib.c ****     if((((CY_PM_MODE_CSR_REG & CY_PM_MODE_CSR_MASK) == CY_PM_MODE_CSR_ACTIVE ) &&
  40              		.loc 1 377 0 discriminator 1
  41 000e 13F0010F 		tst	r3, #1
  42 0012 0CD1     		bne	.L4
  43              	.L2:
 379:.\Generated_Source\PSoC5/CyLib.c ****        (((CY_PM_MODE_CSR_REG & CY_PM_MODE_CSR_MASK) == CY_PM_MODE_CSR_ALT_ACT) &&
  44              		.loc 1 379 0
  45 0014 094B     		ldr	r3, .L7
  46 0016 1B78     		ldrb	r3, [r3]	@ zero_extendqisi2
  47 0018 03F00703 		and	r3, r3, #7
 378:.\Generated_Source\PSoC5/CyLib.c ****        (0u != (CY_LIB_PM_ACT_CFG5_REG & CY_ACT_USB_ENABLED     )))  ||
  48              		.loc 1 378 0
  49 001c 012B     		cmp	r3, #1
  50 001e 08D1     		bne	.L5
 380:.\Generated_Source\PSoC5/CyLib.c ****        (0u != (CY_LIB_PM_STBY_CFG5_REG & CY_ALT_ACT_USB_ENABLED))))
  51              		.loc 1 380 0
  52 0020 084B     		ldr	r3, .L7+8
  53 0022 1B78     		ldrb	r3, [r3]	@ zero_extendqisi2
 379:.\Generated_Source\PSoC5/CyLib.c ****        (((CY_PM_MODE_CSR_REG & CY_PM_MODE_CSR_MASK) == CY_PM_MODE_CSR_ALT_ACT) &&
  54              		.loc 1 379 0
  55 0024 13F0010F 		tst	r3, #1
  56 0028 05D1     		bne	.L6
 374:.\Generated_Source\PSoC5/CyLib.c ****     uint8 poweredOn = 0u;
  57              		.loc 1 374 0
  58 002a 0020     		movs	r0, #0
  59 002c 7047     		bx	lr
  60              	.L4:
 381:.\Generated_Source\PSoC5/CyLib.c ****     {
 382:.\Generated_Source\PSoC5/CyLib.c ****         poweredOn = 1u;
  61              		.loc 1 382 0
  62 002e 0120     		movs	r0, #1
  63 0030 7047     		bx	lr
  64              	.L5:
 374:.\Generated_Source\PSoC5/CyLib.c ****     uint8 poweredOn = 0u;
  65              		.loc 1 374 0
  66 0032 0020     		movs	r0, #0
  67 0034 7047     		bx	lr
  68              	.L6:
  69              		.loc 1 382 0
ARM GAS  C:\Users\mitchell\AppData\Local\Temp\ccIjMaGi.s 			page 9


  70 0036 0120     		movs	r0, #1
  71              	.LVL1:
 383:.\Generated_Source\PSoC5/CyLib.c ****     }
 384:.\Generated_Source\PSoC5/CyLib.c **** 
 385:.\Generated_Source\PSoC5/CyLib.c ****     return (poweredOn);
 386:.\Generated_Source\PSoC5/CyLib.c **** }
  72              		.loc 1 386 0
  73 0038 7047     		bx	lr
  74              	.L8:
  75 003a 00BF     		.align	2
  76              	.L7:
  77 003c 93430040 		.word	1073759123
  78 0040 A5430040 		.word	1073759141
  79 0044 B5430040 		.word	1073759157
  80              		.cfi_endproc
  81              	.LFE6:
  82              		.size	CyUSB_PowerOnCheck, .-CyUSB_PowerOnCheck
  83              		.section	.text.CyBusClk_Internal_SetDivider,"ax",%progbits
  84              		.align	2
  85              		.thumb
  86              		.thumb_func
  87              		.type	CyBusClk_Internal_SetDivider, %function
  88              	CyBusClk_Internal_SetDivider:
  89              	.LFB14:
 387:.\Generated_Source\PSoC5/CyLib.c **** 
 388:.\Generated_Source\PSoC5/CyLib.c **** 
 389:.\Generated_Source\PSoC5/CyLib.c **** /*******************************************************************************
 390:.\Generated_Source\PSoC5/CyLib.c **** * Function Name: CyIMO_SetTrimValue
 391:.\Generated_Source\PSoC5/CyLib.c **** ********************************************************************************
 392:.\Generated_Source\PSoC5/CyLib.c **** *
 393:.\Generated_Source\PSoC5/CyLib.c **** * Summary:
 394:.\Generated_Source\PSoC5/CyLib.c **** *  Sets the IMO factory trim values.
 395:.\Generated_Source\PSoC5/CyLib.c **** *
 396:.\Generated_Source\PSoC5/CyLib.c **** * Parameters:
 397:.\Generated_Source\PSoC5/CyLib.c **** *  uint8 freq - frequency for which trims must be set
 398:.\Generated_Source\PSoC5/CyLib.c **** *
 399:.\Generated_Source\PSoC5/CyLib.c **** * Return:
 400:.\Generated_Source\PSoC5/CyLib.c **** *  None
 401:.\Generated_Source\PSoC5/CyLib.c **** *
 402:.\Generated_Source\PSoC5/CyLib.c **** *******************************************************************************/
 403:.\Generated_Source\PSoC5/CyLib.c **** static void CyIMO_SetTrimValue(uint8 freq) 
 404:.\Generated_Source\PSoC5/CyLib.c **** {
 405:.\Generated_Source\PSoC5/CyLib.c ****     uint8 usbPowerOn = CyUSB_PowerOnCheck();
 406:.\Generated_Source\PSoC5/CyLib.c **** 
 407:.\Generated_Source\PSoC5/CyLib.c ****     /* If USB is powered */
 408:.\Generated_Source\PSoC5/CyLib.c ****     if(usbPowerOn == 1u)
 409:.\Generated_Source\PSoC5/CyLib.c ****     {
 410:.\Generated_Source\PSoC5/CyLib.c ****         /* Unlock USB write */
 411:.\Generated_Source\PSoC5/CyLib.c ****         CY_LIB_USB_CR1_REG &= ((uint8)(~CY_LIB_USB_CLK_EN));
 412:.\Generated_Source\PSoC5/CyLib.c ****     }
 413:.\Generated_Source\PSoC5/CyLib.c ****     switch(freq)
 414:.\Generated_Source\PSoC5/CyLib.c ****     {
 415:.\Generated_Source\PSoC5/CyLib.c ****     case CY_IMO_FREQ_3MHZ:
 416:.\Generated_Source\PSoC5/CyLib.c ****         CY_LIB_IMO_TR1_REG = CY_GET_XTND_REG8(CY_LIB_TRIM_IMO_3MHZ_PTR);
 417:.\Generated_Source\PSoC5/CyLib.c ****         break;
 418:.\Generated_Source\PSoC5/CyLib.c **** 
 419:.\Generated_Source\PSoC5/CyLib.c ****     case CY_IMO_FREQ_6MHZ:
ARM GAS  C:\Users\mitchell\AppData\Local\Temp\ccIjMaGi.s 			page 10


 420:.\Generated_Source\PSoC5/CyLib.c ****         CY_LIB_IMO_TR1_REG = CY_GET_XTND_REG8(CY_LIB_TRIM_IMO_6MHZ_PTR);
 421:.\Generated_Source\PSoC5/CyLib.c ****         break;
 422:.\Generated_Source\PSoC5/CyLib.c **** 
 423:.\Generated_Source\PSoC5/CyLib.c ****     case CY_IMO_FREQ_12MHZ:
 424:.\Generated_Source\PSoC5/CyLib.c ****         CY_LIB_IMO_TR1_REG = CY_GET_XTND_REG8(CY_LIB_TRIM_IMO_12MHZ_PTR);
 425:.\Generated_Source\PSoC5/CyLib.c ****         break;
 426:.\Generated_Source\PSoC5/CyLib.c **** 
 427:.\Generated_Source\PSoC5/CyLib.c ****     case CY_IMO_FREQ_24MHZ:
 428:.\Generated_Source\PSoC5/CyLib.c ****         CY_LIB_IMO_TR1_REG = CY_GET_XTND_REG8(CY_LIB_TRIM_IMO_24MHZ_PTR);
 429:.\Generated_Source\PSoC5/CyLib.c ****         break;
 430:.\Generated_Source\PSoC5/CyLib.c **** 
 431:.\Generated_Source\PSoC5/CyLib.c ****     case CY_IMO_FREQ_48MHZ:
 432:.\Generated_Source\PSoC5/CyLib.c ****         CY_LIB_IMO_TR1_REG = CY_GET_XTND_REG8(CY_LIB_TRIM_IMO_TR1_PTR);
 433:.\Generated_Source\PSoC5/CyLib.c ****         break;
 434:.\Generated_Source\PSoC5/CyLib.c **** 
 435:.\Generated_Source\PSoC5/CyLib.c ****     case CY_IMO_FREQ_62MHZ:
 436:.\Generated_Source\PSoC5/CyLib.c ****         CY_LIB_IMO_TR1_REG = CY_GET_XTND_REG8(CY_LIB_TRIM_IMO_67MHZ_PTR);
 437:.\Generated_Source\PSoC5/CyLib.c ****         break;
 438:.\Generated_Source\PSoC5/CyLib.c **** 
 439:.\Generated_Source\PSoC5/CyLib.c **** #if(CY_PSOC5)
 440:.\Generated_Source\PSoC5/CyLib.c ****     case CY_IMO_FREQ_74MHZ:
 441:.\Generated_Source\PSoC5/CyLib.c ****         CY_LIB_IMO_TR1_REG = CY_GET_XTND_REG8(CY_LIB_TRIM_IMO_80MHZ_PTR);
 442:.\Generated_Source\PSoC5/CyLib.c ****         break;
 443:.\Generated_Source\PSoC5/CyLib.c **** #endif  /* (CY_PSOC5) */
 444:.\Generated_Source\PSoC5/CyLib.c **** 
 445:.\Generated_Source\PSoC5/CyLib.c ****     case CY_IMO_FREQ_USB:
 446:.\Generated_Source\PSoC5/CyLib.c ****         CY_LIB_IMO_TR1_REG = CY_GET_XTND_REG8(CY_LIB_TRIM_IMO_USB_PTR);
 447:.\Generated_Source\PSoC5/CyLib.c **** 
 448:.\Generated_Source\PSoC5/CyLib.c ****         /* If USB is powered */
 449:.\Generated_Source\PSoC5/CyLib.c ****         if(usbPowerOn == 1u)
 450:.\Generated_Source\PSoC5/CyLib.c ****         {
 451:.\Generated_Source\PSoC5/CyLib.c ****             /* Lock USB Oscillator */
 452:.\Generated_Source\PSoC5/CyLib.c ****             CY_LIB_USB_CR1_REG |= CY_LIB_USB_CLK_EN;
 453:.\Generated_Source\PSoC5/CyLib.c ****         }
 454:.\Generated_Source\PSoC5/CyLib.c ****         break;
 455:.\Generated_Source\PSoC5/CyLib.c **** 
 456:.\Generated_Source\PSoC5/CyLib.c ****     default:
 457:.\Generated_Source\PSoC5/CyLib.c ****             CYASSERT(0u != 0u);
 458:.\Generated_Source\PSoC5/CyLib.c ****         break;
 459:.\Generated_Source\PSoC5/CyLib.c ****     }
 460:.\Generated_Source\PSoC5/CyLib.c **** 
 461:.\Generated_Source\PSoC5/CyLib.c **** }
 462:.\Generated_Source\PSoC5/CyLib.c **** 
 463:.\Generated_Source\PSoC5/CyLib.c **** 
 464:.\Generated_Source\PSoC5/CyLib.c **** /*******************************************************************************
 465:.\Generated_Source\PSoC5/CyLib.c **** * Function Name: CyIMO_SetFreq
 466:.\Generated_Source\PSoC5/CyLib.c **** ********************************************************************************
 467:.\Generated_Source\PSoC5/CyLib.c **** *
 468:.\Generated_Source\PSoC5/CyLib.c **** * Summary:
 469:.\Generated_Source\PSoC5/CyLib.c **** *  Sets the frequency of the IMO. Changes may be made while the IMO is running.
 470:.\Generated_Source\PSoC5/CyLib.c **** *
 471:.\Generated_Source\PSoC5/CyLib.c **** * Parameters:
 472:.\Generated_Source\PSoC5/CyLib.c **** *  freq: Frequency of IMO operation
 473:.\Generated_Source\PSoC5/CyLib.c **** *       CY_IMO_FREQ_3MHZ  to set  3   MHz
 474:.\Generated_Source\PSoC5/CyLib.c **** *       CY_IMO_FREQ_6MHZ  to set  6   MHz
 475:.\Generated_Source\PSoC5/CyLib.c **** *       CY_IMO_FREQ_12MHZ to set 12   MHz
 476:.\Generated_Source\PSoC5/CyLib.c **** *       CY_IMO_FREQ_24MHZ to set 24   MHz
ARM GAS  C:\Users\mitchell\AppData\Local\Temp\ccIjMaGi.s 			page 11


 477:.\Generated_Source\PSoC5/CyLib.c **** *       CY_IMO_FREQ_48MHZ to set 48   MHz
 478:.\Generated_Source\PSoC5/CyLib.c **** *       CY_IMO_FREQ_62MHZ to set 62.6 MHz
 479:.\Generated_Source\PSoC5/CyLib.c **** *       CY_IMO_FREQ_74MHZ to set 74.7 MHz (not applicable for PSoC 3)
 480:.\Generated_Source\PSoC5/CyLib.c **** *       CY_IMO_FREQ_USB   to set 24   MHz (Trimmed for USB operation)
 481:.\Generated_Source\PSoC5/CyLib.c **** *
 482:.\Generated_Source\PSoC5/CyLib.c **** * Return:
 483:.\Generated_Source\PSoC5/CyLib.c **** *  None
 484:.\Generated_Source\PSoC5/CyLib.c **** *
 485:.\Generated_Source\PSoC5/CyLib.c **** * Side Effects:
 486:.\Generated_Source\PSoC5/CyLib.c **** *  If this function execution results in the CPU clock frequency increasing,
 487:.\Generated_Source\PSoC5/CyLib.c **** *  then the number of clock cycles the cache will wait before it samples data
 488:.\Generated_Source\PSoC5/CyLib.c **** *  coming back from the Flash must be adjusted by calling
 489:.\Generated_Source\PSoC5/CyLib.c **** *  CyFlash_SetWaitCycles() with an appropriate parameter. It can be optionally
 490:.\Generated_Source\PSoC5/CyLib.c **** *  called if the CPU clock frequency is lowered in order to improve the CPU
 491:.\Generated_Source\PSoC5/CyLib.c **** *  performance. See CyFlash_SetWaitCycles() description for more information.
 492:.\Generated_Source\PSoC5/CyLib.c **** *
 493:.\Generated_Source\PSoC5/CyLib.c **** *  When the USB setting is chosen, the USB clock locking circuit is enabled.
 494:.\Generated_Source\PSoC5/CyLib.c **** *  Otherwise this circuit is disabled. The USB block must be powered before
 495:.\Generated_Source\PSoC5/CyLib.c **** *  selecting the USB setting.
 496:.\Generated_Source\PSoC5/CyLib.c **** *
 497:.\Generated_Source\PSoC5/CyLib.c **** *******************************************************************************/
 498:.\Generated_Source\PSoC5/CyLib.c **** void CyIMO_SetFreq(uint8 freq) 
 499:.\Generated_Source\PSoC5/CyLib.c **** {
 500:.\Generated_Source\PSoC5/CyLib.c ****     uint8 currentFreq;
 501:.\Generated_Source\PSoC5/CyLib.c ****     uint8 nextFreq;
 502:.\Generated_Source\PSoC5/CyLib.c **** 
 503:.\Generated_Source\PSoC5/CyLib.c ****     /***************************************************************************
 504:.\Generated_Source\PSoC5/CyLib.c ****     * If the IMO frequency is changed,the Trim values must also be set
 505:.\Generated_Source\PSoC5/CyLib.c ****     * accordingly.This requires reading the current frequency. If the new
 506:.\Generated_Source\PSoC5/CyLib.c ****     * frequency is faster, then set a new trim and then change the frequency,
 507:.\Generated_Source\PSoC5/CyLib.c ****     * otherwise change the frequency and then set new trim values.
 508:.\Generated_Source\PSoC5/CyLib.c ****     ***************************************************************************/
 509:.\Generated_Source\PSoC5/CyLib.c **** 
 510:.\Generated_Source\PSoC5/CyLib.c ****     currentFreq = CY_LIB_FASTCLK_IMO_CR_REG & ((uint8)(~CY_LIB_FASTCLK_IMO_CR_RANGE_MASK));
 511:.\Generated_Source\PSoC5/CyLib.c **** 
 512:.\Generated_Source\PSoC5/CyLib.c ****     /* Check if requested frequency is USB. */
 513:.\Generated_Source\PSoC5/CyLib.c ****     nextFreq = (freq == CY_IMO_FREQ_USB) ? CY_IMO_FREQ_24MHZ : freq;
 514:.\Generated_Source\PSoC5/CyLib.c **** 
 515:.\Generated_Source\PSoC5/CyLib.c ****     switch (currentFreq)
 516:.\Generated_Source\PSoC5/CyLib.c ****     {
 517:.\Generated_Source\PSoC5/CyLib.c ****     case 0u:
 518:.\Generated_Source\PSoC5/CyLib.c ****         currentFreq = CY_IMO_FREQ_12MHZ;
 519:.\Generated_Source\PSoC5/CyLib.c ****         break;
 520:.\Generated_Source\PSoC5/CyLib.c **** 
 521:.\Generated_Source\PSoC5/CyLib.c ****     case 1u:
 522:.\Generated_Source\PSoC5/CyLib.c ****         currentFreq = CY_IMO_FREQ_6MHZ;
 523:.\Generated_Source\PSoC5/CyLib.c ****         break;
 524:.\Generated_Source\PSoC5/CyLib.c **** 
 525:.\Generated_Source\PSoC5/CyLib.c ****     case 2u:
 526:.\Generated_Source\PSoC5/CyLib.c ****         currentFreq = CY_IMO_FREQ_24MHZ;
 527:.\Generated_Source\PSoC5/CyLib.c ****         break;
 528:.\Generated_Source\PSoC5/CyLib.c **** 
 529:.\Generated_Source\PSoC5/CyLib.c ****     case 3u:
 530:.\Generated_Source\PSoC5/CyLib.c ****         currentFreq = CY_IMO_FREQ_3MHZ;
 531:.\Generated_Source\PSoC5/CyLib.c ****         break;
 532:.\Generated_Source\PSoC5/CyLib.c **** 
 533:.\Generated_Source\PSoC5/CyLib.c ****     case 4u:
ARM GAS  C:\Users\mitchell\AppData\Local\Temp\ccIjMaGi.s 			page 12


 534:.\Generated_Source\PSoC5/CyLib.c ****         currentFreq = CY_IMO_FREQ_48MHZ;
 535:.\Generated_Source\PSoC5/CyLib.c ****         break;
 536:.\Generated_Source\PSoC5/CyLib.c **** 
 537:.\Generated_Source\PSoC5/CyLib.c ****     case 5u:
 538:.\Generated_Source\PSoC5/CyLib.c ****         currentFreq = CY_IMO_FREQ_62MHZ;
 539:.\Generated_Source\PSoC5/CyLib.c ****         break;
 540:.\Generated_Source\PSoC5/CyLib.c **** 
 541:.\Generated_Source\PSoC5/CyLib.c **** #if(CY_PSOC5)
 542:.\Generated_Source\PSoC5/CyLib.c ****     case 6u:
 543:.\Generated_Source\PSoC5/CyLib.c ****         currentFreq = CY_IMO_FREQ_74MHZ;
 544:.\Generated_Source\PSoC5/CyLib.c ****         break;
 545:.\Generated_Source\PSoC5/CyLib.c **** #endif  /* (CY_PSOC5) */
 546:.\Generated_Source\PSoC5/CyLib.c **** 
 547:.\Generated_Source\PSoC5/CyLib.c ****     default:
 548:.\Generated_Source\PSoC5/CyLib.c ****         CYASSERT(0u != 0u);
 549:.\Generated_Source\PSoC5/CyLib.c ****         break;
 550:.\Generated_Source\PSoC5/CyLib.c ****     }
 551:.\Generated_Source\PSoC5/CyLib.c **** 
 552:.\Generated_Source\PSoC5/CyLib.c ****     if (nextFreq >= currentFreq)
 553:.\Generated_Source\PSoC5/CyLib.c ****     {
 554:.\Generated_Source\PSoC5/CyLib.c ****         /* Set new trim first */
 555:.\Generated_Source\PSoC5/CyLib.c ****         CyIMO_SetTrimValue(freq);
 556:.\Generated_Source\PSoC5/CyLib.c ****     }
 557:.\Generated_Source\PSoC5/CyLib.c **** 
 558:.\Generated_Source\PSoC5/CyLib.c ****     /* Set usbclk_on bit when using CY_IMO_FREQ_USB, if not clear it */
 559:.\Generated_Source\PSoC5/CyLib.c ****     switch(freq)
 560:.\Generated_Source\PSoC5/CyLib.c ****     {
 561:.\Generated_Source\PSoC5/CyLib.c ****     case CY_IMO_FREQ_3MHZ:
 562:.\Generated_Source\PSoC5/CyLib.c ****         CY_LIB_FASTCLK_IMO_CR_REG = ((CY_LIB_FASTCLK_IMO_CR_REG & CY_LIB_FASTCLK_IMO_CR_RANGE_MASK)
 563:.\Generated_Source\PSoC5/CyLib.c ****             CY_LIB_IMO_3MHZ_VALUE) & ((uint8)(~CY_LIB_IMO_USBCLK_ON_SET));
 564:.\Generated_Source\PSoC5/CyLib.c ****         break;
 565:.\Generated_Source\PSoC5/CyLib.c **** 
 566:.\Generated_Source\PSoC5/CyLib.c ****     case CY_IMO_FREQ_6MHZ:
 567:.\Generated_Source\PSoC5/CyLib.c ****         CY_LIB_FASTCLK_IMO_CR_REG = ((CY_LIB_FASTCLK_IMO_CR_REG & CY_LIB_FASTCLK_IMO_CR_RANGE_MASK)
 568:.\Generated_Source\PSoC5/CyLib.c ****             CY_LIB_IMO_6MHZ_VALUE) & ((uint8)(~CY_LIB_IMO_USBCLK_ON_SET));
 569:.\Generated_Source\PSoC5/CyLib.c ****         break;
 570:.\Generated_Source\PSoC5/CyLib.c **** 
 571:.\Generated_Source\PSoC5/CyLib.c ****     case CY_IMO_FREQ_12MHZ:
 572:.\Generated_Source\PSoC5/CyLib.c ****         CY_LIB_FASTCLK_IMO_CR_REG = ((CY_LIB_FASTCLK_IMO_CR_REG & CY_LIB_FASTCLK_IMO_CR_RANGE_MASK)
 573:.\Generated_Source\PSoC5/CyLib.c ****             CY_LIB_IMO_12MHZ_VALUE) & ((uint8)(~CY_LIB_IMO_USBCLK_ON_SET));
 574:.\Generated_Source\PSoC5/CyLib.c ****         break;
 575:.\Generated_Source\PSoC5/CyLib.c **** 
 576:.\Generated_Source\PSoC5/CyLib.c ****     case CY_IMO_FREQ_24MHZ:
 577:.\Generated_Source\PSoC5/CyLib.c ****         CY_LIB_FASTCLK_IMO_CR_REG = ((CY_LIB_FASTCLK_IMO_CR_REG & CY_LIB_FASTCLK_IMO_CR_RANGE_MASK)
 578:.\Generated_Source\PSoC5/CyLib.c ****             CY_LIB_IMO_24MHZ_VALUE) & ((uint8)(~CY_LIB_IMO_USBCLK_ON_SET));
 579:.\Generated_Source\PSoC5/CyLib.c ****         break;
 580:.\Generated_Source\PSoC5/CyLib.c **** 
 581:.\Generated_Source\PSoC5/CyLib.c ****     case CY_IMO_FREQ_48MHZ:
 582:.\Generated_Source\PSoC5/CyLib.c ****         CY_LIB_FASTCLK_IMO_CR_REG = ((CY_LIB_FASTCLK_IMO_CR_REG & CY_LIB_FASTCLK_IMO_CR_RANGE_MASK)
 583:.\Generated_Source\PSoC5/CyLib.c ****             CY_LIB_IMO_48MHZ_VALUE) & ((uint8)(~CY_LIB_IMO_USBCLK_ON_SET));
 584:.\Generated_Source\PSoC5/CyLib.c ****         break;
 585:.\Generated_Source\PSoC5/CyLib.c **** 
 586:.\Generated_Source\PSoC5/CyLib.c ****     case CY_IMO_FREQ_62MHZ:
 587:.\Generated_Source\PSoC5/CyLib.c ****         CY_LIB_FASTCLK_IMO_CR_REG = ((CY_LIB_FASTCLK_IMO_CR_REG & CY_LIB_FASTCLK_IMO_CR_RANGE_MASK)
 588:.\Generated_Source\PSoC5/CyLib.c ****             CY_LIB_IMO_62MHZ_VALUE) & ((uint8)(~CY_LIB_IMO_USBCLK_ON_SET));
 589:.\Generated_Source\PSoC5/CyLib.c ****         break;
 590:.\Generated_Source\PSoC5/CyLib.c **** 
ARM GAS  C:\Users\mitchell\AppData\Local\Temp\ccIjMaGi.s 			page 13


 591:.\Generated_Source\PSoC5/CyLib.c **** #if(CY_PSOC5)
 592:.\Generated_Source\PSoC5/CyLib.c ****     case CY_IMO_FREQ_74MHZ:
 593:.\Generated_Source\PSoC5/CyLib.c ****         CY_LIB_FASTCLK_IMO_CR_REG = ((CY_LIB_FASTCLK_IMO_CR_REG & CY_LIB_FASTCLK_IMO_CR_RANGE_MASK)
 594:.\Generated_Source\PSoC5/CyLib.c ****             CY_LIB_IMO_74MHZ_VALUE) & ((uint8)(~CY_LIB_IMO_USBCLK_ON_SET));
 595:.\Generated_Source\PSoC5/CyLib.c ****         break;
 596:.\Generated_Source\PSoC5/CyLib.c **** #endif  /* (CY_PSOC5) */
 597:.\Generated_Source\PSoC5/CyLib.c **** 
 598:.\Generated_Source\PSoC5/CyLib.c ****     case CY_IMO_FREQ_USB:
 599:.\Generated_Source\PSoC5/CyLib.c ****         CY_LIB_FASTCLK_IMO_CR_REG = ((CY_LIB_FASTCLK_IMO_CR_REG & CY_LIB_FASTCLK_IMO_CR_RANGE_MASK)
 600:.\Generated_Source\PSoC5/CyLib.c ****             CY_LIB_IMO_24MHZ_VALUE) | CY_LIB_IMO_USBCLK_ON_SET;
 601:.\Generated_Source\PSoC5/CyLib.c ****         break;
 602:.\Generated_Source\PSoC5/CyLib.c **** 
 603:.\Generated_Source\PSoC5/CyLib.c ****     default:
 604:.\Generated_Source\PSoC5/CyLib.c ****         CYASSERT(0u != 0u);
 605:.\Generated_Source\PSoC5/CyLib.c ****         break;
 606:.\Generated_Source\PSoC5/CyLib.c ****     }
 607:.\Generated_Source\PSoC5/CyLib.c **** 
 608:.\Generated_Source\PSoC5/CyLib.c ****     /* Tu rn onIMO Doubler, if switching to CY_IMO_FREQ_USB */
 609:.\Generated_Source\PSoC5/CyLib.c ****     if (freq == CY_IMO_FREQ_USB)
 610:.\Generated_Source\PSoC5/CyLib.c ****     {
 611:.\Generated_Source\PSoC5/CyLib.c ****         CyIMO_EnableDoubler();
 612:.\Generated_Source\PSoC5/CyLib.c ****     }
 613:.\Generated_Source\PSoC5/CyLib.c ****     else
 614:.\Generated_Source\PSoC5/CyLib.c ****     {
 615:.\Generated_Source\PSoC5/CyLib.c ****         CyIMO_DisableDoubler();
 616:.\Generated_Source\PSoC5/CyLib.c ****     }
 617:.\Generated_Source\PSoC5/CyLib.c **** 
 618:.\Generated_Source\PSoC5/CyLib.c ****     if (nextFreq < currentFreq)
 619:.\Generated_Source\PSoC5/CyLib.c ****     {
 620:.\Generated_Source\PSoC5/CyLib.c ****         /* Set the trim after setting frequency */
 621:.\Generated_Source\PSoC5/CyLib.c ****         CyIMO_SetTrimValue(freq);
 622:.\Generated_Source\PSoC5/CyLib.c ****     }
 623:.\Generated_Source\PSoC5/CyLib.c **** }
 624:.\Generated_Source\PSoC5/CyLib.c **** 
 625:.\Generated_Source\PSoC5/CyLib.c **** 
 626:.\Generated_Source\PSoC5/CyLib.c **** /*******************************************************************************
 627:.\Generated_Source\PSoC5/CyLib.c **** * Function Name: CyIMO_SetSource
 628:.\Generated_Source\PSoC5/CyLib.c **** ********************************************************************************
 629:.\Generated_Source\PSoC5/CyLib.c **** *
 630:.\Generated_Source\PSoC5/CyLib.c **** * Summary:
 631:.\Generated_Source\PSoC5/CyLib.c **** *  Sets the source of the clock output from the IMO block.
 632:.\Generated_Source\PSoC5/CyLib.c **** *
 633:.\Generated_Source\PSoC5/CyLib.c **** *  The output from the IMO is by default the IMO itself. Optionally the MHz
 634:.\Generated_Source\PSoC5/CyLib.c **** *  Crystal or DSI input can be the source of the IMO output instead.
 635:.\Generated_Source\PSoC5/CyLib.c **** *
 636:.\Generated_Source\PSoC5/CyLib.c **** * Parameters:
 637:.\Generated_Source\PSoC5/CyLib.c **** *   source: CY_IMO_SOURCE_DSI to set the DSI as source.
 638:.\Generated_Source\PSoC5/CyLib.c **** *           CY_IMO_SOURCE_XTAL to set the MHz as source.
 639:.\Generated_Source\PSoC5/CyLib.c **** *           CY_IMO_SOURCE_IMO to set the IMO itself.
 640:.\Generated_Source\PSoC5/CyLib.c **** *
 641:.\Generated_Source\PSoC5/CyLib.c **** * Return:
 642:.\Generated_Source\PSoC5/CyLib.c **** *  None
 643:.\Generated_Source\PSoC5/CyLib.c **** *
 644:.\Generated_Source\PSoC5/CyLib.c **** * Side Effects:
 645:.\Generated_Source\PSoC5/CyLib.c **** *  If this function execution resulted in the CPU clock frequency increasing,
 646:.\Generated_Source\PSoC5/CyLib.c **** *  then the number of clock cycles the cache will wait before it samples data
 647:.\Generated_Source\PSoC5/CyLib.c **** *  coming back from the Flash must be adjusted by calling
ARM GAS  C:\Users\mitchell\AppData\Local\Temp\ccIjMaGi.s 			page 14


 648:.\Generated_Source\PSoC5/CyLib.c **** *  CyFlash_SetWaitCycles() with an appropriate parameter. It can be optionally
 649:.\Generated_Source\PSoC5/CyLib.c **** *  called if the CPU clock frequency is lowered in order to improve the CPU
 650:.\Generated_Source\PSoC5/CyLib.c **** *  performance. See CyFlash_SetWaitCycles() description for more information.
 651:.\Generated_Source\PSoC5/CyLib.c **** *
 652:.\Generated_Source\PSoC5/CyLib.c **** *******************************************************************************/
 653:.\Generated_Source\PSoC5/CyLib.c **** void CyIMO_SetSource(uint8 source) 
 654:.\Generated_Source\PSoC5/CyLib.c **** {
 655:.\Generated_Source\PSoC5/CyLib.c ****     switch(source)
 656:.\Generated_Source\PSoC5/CyLib.c ****     {
 657:.\Generated_Source\PSoC5/CyLib.c ****     case CY_IMO_SOURCE_DSI:
 658:.\Generated_Source\PSoC5/CyLib.c ****         CY_LIB_CLKDIST_CR_REG     &= ((uint8)(~CY_LIB_CLKDIST_CR_IMO2X));
 659:.\Generated_Source\PSoC5/CyLib.c ****         CY_LIB_FASTCLK_IMO_CR_REG |= CY_LIB_FASTCLK_IMO_IMO;
 660:.\Generated_Source\PSoC5/CyLib.c ****         break;
 661:.\Generated_Source\PSoC5/CyLib.c **** 
 662:.\Generated_Source\PSoC5/CyLib.c ****     case CY_IMO_SOURCE_XTAL:
 663:.\Generated_Source\PSoC5/CyLib.c ****         CY_LIB_CLKDIST_CR_REG     |= CY_LIB_CLKDIST_CR_IMO2X;
 664:.\Generated_Source\PSoC5/CyLib.c ****         CY_LIB_FASTCLK_IMO_CR_REG |= CY_LIB_FASTCLK_IMO_IMO;
 665:.\Generated_Source\PSoC5/CyLib.c ****         break;
 666:.\Generated_Source\PSoC5/CyLib.c **** 
 667:.\Generated_Source\PSoC5/CyLib.c ****     case CY_IMO_SOURCE_IMO:
 668:.\Generated_Source\PSoC5/CyLib.c ****         CY_LIB_FASTCLK_IMO_CR_REG &= ((uint8)(~CY_LIB_FASTCLK_IMO_IMO));
 669:.\Generated_Source\PSoC5/CyLib.c ****         break;
 670:.\Generated_Source\PSoC5/CyLib.c **** 
 671:.\Generated_Source\PSoC5/CyLib.c ****     default:
 672:.\Generated_Source\PSoC5/CyLib.c ****         /* Incorrect source value */
 673:.\Generated_Source\PSoC5/CyLib.c ****         CYASSERT(0u != 0u);
 674:.\Generated_Source\PSoC5/CyLib.c ****         break;
 675:.\Generated_Source\PSoC5/CyLib.c ****     }
 676:.\Generated_Source\PSoC5/CyLib.c **** }
 677:.\Generated_Source\PSoC5/CyLib.c **** 
 678:.\Generated_Source\PSoC5/CyLib.c **** 
 679:.\Generated_Source\PSoC5/CyLib.c **** /*******************************************************************************
 680:.\Generated_Source\PSoC5/CyLib.c **** * Function Name: CyIMO_EnableDoubler
 681:.\Generated_Source\PSoC5/CyLib.c **** ********************************************************************************
 682:.\Generated_Source\PSoC5/CyLib.c **** *
 683:.\Generated_Source\PSoC5/CyLib.c **** * Summary:
 684:.\Generated_Source\PSoC5/CyLib.c **** *  Enables the IMO doubler.  The 2x frequency clock is used to convert a 24 MHz
 685:.\Generated_Source\PSoC5/CyLib.c **** *  input to a 48 MHz output for use by the USB block.
 686:.\Generated_Source\PSoC5/CyLib.c **** *
 687:.\Generated_Source\PSoC5/CyLib.c **** * Parameters:
 688:.\Generated_Source\PSoC5/CyLib.c **** *  None
 689:.\Generated_Source\PSoC5/CyLib.c **** *
 690:.\Generated_Source\PSoC5/CyLib.c **** * Return:
 691:.\Generated_Source\PSoC5/CyLib.c **** *  None
 692:.\Generated_Source\PSoC5/CyLib.c **** *
 693:.\Generated_Source\PSoC5/CyLib.c **** *******************************************************************************/
 694:.\Generated_Source\PSoC5/CyLib.c **** void CyIMO_EnableDoubler(void) 
 695:.\Generated_Source\PSoC5/CyLib.c **** {
 696:.\Generated_Source\PSoC5/CyLib.c ****     /* Set FASTCLK_IMO_CR_PTR regigster's 4th bit */
 697:.\Generated_Source\PSoC5/CyLib.c ****     CY_LIB_FASTCLK_IMO_CR_REG |= CY_LIB_FASTCLK_IMO_DOUBLER;
 698:.\Generated_Source\PSoC5/CyLib.c **** }
 699:.\Generated_Source\PSoC5/CyLib.c **** 
 700:.\Generated_Source\PSoC5/CyLib.c **** 
 701:.\Generated_Source\PSoC5/CyLib.c **** /*******************************************************************************
 702:.\Generated_Source\PSoC5/CyLib.c **** * Function Name: CyIMO_DisableDoubler
 703:.\Generated_Source\PSoC5/CyLib.c **** ********************************************************************************
 704:.\Generated_Source\PSoC5/CyLib.c **** *
ARM GAS  C:\Users\mitchell\AppData\Local\Temp\ccIjMaGi.s 			page 15


 705:.\Generated_Source\PSoC5/CyLib.c **** * Summary:
 706:.\Generated_Source\PSoC5/CyLib.c **** *   Disables the IMO doubler.
 707:.\Generated_Source\PSoC5/CyLib.c **** *
 708:.\Generated_Source\PSoC5/CyLib.c **** * Parameters:
 709:.\Generated_Source\PSoC5/CyLib.c **** *  None
 710:.\Generated_Source\PSoC5/CyLib.c **** *
 711:.\Generated_Source\PSoC5/CyLib.c **** * Return:
 712:.\Generated_Source\PSoC5/CyLib.c **** *  None
 713:.\Generated_Source\PSoC5/CyLib.c **** *
 714:.\Generated_Source\PSoC5/CyLib.c **** *******************************************************************************/
 715:.\Generated_Source\PSoC5/CyLib.c **** void CyIMO_DisableDoubler(void) 
 716:.\Generated_Source\PSoC5/CyLib.c **** {
 717:.\Generated_Source\PSoC5/CyLib.c ****     CY_LIB_FASTCLK_IMO_CR_REG &= ((uint8)(~CY_LIB_FASTCLK_IMO_DOUBLER));
 718:.\Generated_Source\PSoC5/CyLib.c **** }
 719:.\Generated_Source\PSoC5/CyLib.c **** 
 720:.\Generated_Source\PSoC5/CyLib.c **** 
 721:.\Generated_Source\PSoC5/CyLib.c **** /*******************************************************************************
 722:.\Generated_Source\PSoC5/CyLib.c **** * Function Name: CyMasterClk_SetSource
 723:.\Generated_Source\PSoC5/CyLib.c **** ********************************************************************************
 724:.\Generated_Source\PSoC5/CyLib.c **** *
 725:.\Generated_Source\PSoC5/CyLib.c **** * Summary:
 726:.\Generated_Source\PSoC5/CyLib.c **** *  Sets the source of the master clock.
 727:.\Generated_Source\PSoC5/CyLib.c **** *
 728:.\Generated_Source\PSoC5/CyLib.c **** * Parameters:
 729:.\Generated_Source\PSoC5/CyLib.c **** *   source: One of the four available Master clock sources.
 730:.\Generated_Source\PSoC5/CyLib.c **** *     CY_MASTER_SOURCE_IMO
 731:.\Generated_Source\PSoC5/CyLib.c **** *     CY_MASTER_SOURCE_PLL
 732:.\Generated_Source\PSoC5/CyLib.c **** *     CY_MASTER_SOURCE_XTAL
 733:.\Generated_Source\PSoC5/CyLib.c **** *     CY_MASTER_SOURCE_DSI
 734:.\Generated_Source\PSoC5/CyLib.c **** *
 735:.\Generated_Source\PSoC5/CyLib.c **** * Return:
 736:.\Generated_Source\PSoC5/CyLib.c **** *  None
 737:.\Generated_Source\PSoC5/CyLib.c **** *
 738:.\Generated_Source\PSoC5/CyLib.c **** * Side Effects:
 739:.\Generated_Source\PSoC5/CyLib.c **** *  The current source and the new source must both be running and stable before
 740:.\Generated_Source\PSoC5/CyLib.c **** *  calling this function.
 741:.\Generated_Source\PSoC5/CyLib.c **** *
 742:.\Generated_Source\PSoC5/CyLib.c **** *  If this function execution resulted in the CPU clock frequency increasing,
 743:.\Generated_Source\PSoC5/CyLib.c **** *  then the number of clock cycles the cache will wait before it samples data
 744:.\Generated_Source\PSoC5/CyLib.c **** *  coming back from the Flash must be adjusted by calling
 745:.\Generated_Source\PSoC5/CyLib.c **** *  CyFlash_SetWaitCycles() with an appropriate parameter. It can be optionally
 746:.\Generated_Source\PSoC5/CyLib.c **** *  called if the CPU clock frequency is lowered in order to improve the CPU
 747:.\Generated_Source\PSoC5/CyLib.c **** *  performance. See CyFlash_SetWaitCycles() description for more information.
 748:.\Generated_Source\PSoC5/CyLib.c **** *
 749:.\Generated_Source\PSoC5/CyLib.c **** *******************************************************************************/
 750:.\Generated_Source\PSoC5/CyLib.c **** void CyMasterClk_SetSource(uint8 source) 
 751:.\Generated_Source\PSoC5/CyLib.c **** {
 752:.\Generated_Source\PSoC5/CyLib.c ****     CY_LIB_CLKDIST_MSTR1_REG = (CY_LIB_CLKDIST_MSTR1_REG & MASTER_CLK_SRC_CLEAR) |
 753:.\Generated_Source\PSoC5/CyLib.c ****                                 (source & ((uint8)(~MASTER_CLK_SRC_CLEAR)));
 754:.\Generated_Source\PSoC5/CyLib.c **** }
 755:.\Generated_Source\PSoC5/CyLib.c **** 
 756:.\Generated_Source\PSoC5/CyLib.c **** 
 757:.\Generated_Source\PSoC5/CyLib.c **** /*******************************************************************************
 758:.\Generated_Source\PSoC5/CyLib.c **** * Function Name: CyMasterClk_SetDivider
 759:.\Generated_Source\PSoC5/CyLib.c **** ********************************************************************************
 760:.\Generated_Source\PSoC5/CyLib.c **** *
 761:.\Generated_Source\PSoC5/CyLib.c **** * Summary:
ARM GAS  C:\Users\mitchell\AppData\Local\Temp\ccIjMaGi.s 			page 16


 762:.\Generated_Source\PSoC5/CyLib.c **** *  Sets the divider value used to generate Master Clock.
 763:.\Generated_Source\PSoC5/CyLib.c **** *
 764:.\Generated_Source\PSoC5/CyLib.c **** * Parameters:
 765:.\Generated_Source\PSoC5/CyLib.c **** *  uint8 divider:
 766:.\Generated_Source\PSoC5/CyLib.c **** *   The valid range is [0-255]. The clock will be divided by this value + 1.
 767:.\Generated_Source\PSoC5/CyLib.c **** *   For example to divide this parameter by two should be set to 1.
 768:.\Generated_Source\PSoC5/CyLib.c **** *
 769:.\Generated_Source\PSoC5/CyLib.c **** * Return:
 770:.\Generated_Source\PSoC5/CyLib.c **** *  None
 771:.\Generated_Source\PSoC5/CyLib.c **** *
 772:.\Generated_Source\PSoC5/CyLib.c **** * Side Effects:
 773:.\Generated_Source\PSoC5/CyLib.c **** *  If this function execution resulted in the CPU clock frequency increasing,
 774:.\Generated_Source\PSoC5/CyLib.c **** *  then the number of clock cycles the cache will wait before it samples data
 775:.\Generated_Source\PSoC5/CyLib.c **** *  coming back from the Flash must be adjusted by calling
 776:.\Generated_Source\PSoC5/CyLib.c **** *  CyFlash_SetWaitCycles() with an appropriate parameter. It can be optionally
 777:.\Generated_Source\PSoC5/CyLib.c **** *  called if the CPU clock frequency is lowered in order to improve the CPU
 778:.\Generated_Source\PSoC5/CyLib.c **** *  performance. See CyFlash_SetWaitCycles() description for more information.
 779:.\Generated_Source\PSoC5/CyLib.c **** *
 780:.\Generated_Source\PSoC5/CyLib.c **** *  When changing the Master or Bus clock divider value from div-by-n to div-by-1
 781:.\Generated_Source\PSoC5/CyLib.c **** *  the first clock cycle output after the div-by-1 can be up to 4 ns shorter
 782:.\Generated_Source\PSoC5/CyLib.c **** *  than the final/expected div-by-1 period.
 783:.\Generated_Source\PSoC5/CyLib.c **** *
 784:.\Generated_Source\PSoC5/CyLib.c **** *******************************************************************************/
 785:.\Generated_Source\PSoC5/CyLib.c **** void CyMasterClk_SetDivider(uint8 divider) 
 786:.\Generated_Source\PSoC5/CyLib.c **** {
 787:.\Generated_Source\PSoC5/CyLib.c ****     CY_LIB_CLKDIST_MSTR0_REG = divider;
 788:.\Generated_Source\PSoC5/CyLib.c **** }
 789:.\Generated_Source\PSoC5/CyLib.c **** 
 790:.\Generated_Source\PSoC5/CyLib.c **** 
 791:.\Generated_Source\PSoC5/CyLib.c **** /*******************************************************************************
 792:.\Generated_Source\PSoC5/CyLib.c **** * Function Name: CyBusClk_Internal_SetDivider
 793:.\Generated_Source\PSoC5/CyLib.c **** ********************************************************************************
 794:.\Generated_Source\PSoC5/CyLib.c **** *
 795:.\Generated_Source\PSoC5/CyLib.c **** * Summary:
 796:.\Generated_Source\PSoC5/CyLib.c **** *  The function used by CyBusClk_SetDivider(). For internal use only.
 797:.\Generated_Source\PSoC5/CyLib.c **** *
 798:.\Generated_Source\PSoC5/CyLib.c **** * Parameters:
 799:.\Generated_Source\PSoC5/CyLib.c **** *   divider: Valid range [0-65535].
 800:.\Generated_Source\PSoC5/CyLib.c **** *   The clock will be divided by this value + 1.
 801:.\Generated_Source\PSoC5/CyLib.c **** *   For example, to divide this parameter by two should be set to 1.
 802:.\Generated_Source\PSoC5/CyLib.c **** *
 803:.\Generated_Source\PSoC5/CyLib.c **** * Return:
 804:.\Generated_Source\PSoC5/CyLib.c **** *  None
 805:.\Generated_Source\PSoC5/CyLib.c **** *
 806:.\Generated_Source\PSoC5/CyLib.c **** *******************************************************************************/
 807:.\Generated_Source\PSoC5/CyLib.c **** static void CyBusClk_Internal_SetDivider(uint16 divider)
 808:.\Generated_Source\PSoC5/CyLib.c **** {
  90              		.loc 1 808 0
  91              		.cfi_startproc
  92              		@ args = 0, pretend = 0, frame = 0
  93              		@ frame_needed = 0, uses_anonymous_args = 0
  94              		@ link register save eliminated.
  95              	.LVL2:
 809:.\Generated_Source\PSoC5/CyLib.c ****     /* Mask bits to enable shadow loads  */
 810:.\Generated_Source\PSoC5/CyLib.c ****     CY_LIB_CLKDIST_AMASK_REG &= CY_LIB_CLKDIST_AMASK_MASK;
  96              		.loc 1 810 0
  97 0000 0C4B     		ldr	r3, .L10
ARM GAS  C:\Users\mitchell\AppData\Local\Temp\ccIjMaGi.s 			page 17


  98 0002 1A78     		ldrb	r2, [r3]	@ zero_extendqisi2
  99 0004 02F0F002 		and	r2, r2, #240
 100 0008 1A70     		strb	r2, [r3]
 811:.\Generated_Source\PSoC5/CyLib.c ****     CY_LIB_CLKDIST_DMASK_REG  = CY_LIB_CLKDIST_DMASK_MASK;
 101              		.loc 1 811 0
 102 000a 0022     		movs	r2, #0
 103 000c 043B     		subs	r3, r3, #4
 104 000e 1A70     		strb	r2, [r3]
 812:.\Generated_Source\PSoC5/CyLib.c **** 
 813:.\Generated_Source\PSoC5/CyLib.c ****     /* Enable mask bits to enable shadow loads */
 814:.\Generated_Source\PSoC5/CyLib.c ****     CY_LIB_CLKDIST_BCFG2_REG |= CY_LIB_CLKDIST_BCFG2_MASK;
 105              		.loc 1 814 0
 106 0010 083B     		subs	r3, r3, #8
 107 0012 1A78     		ldrb	r2, [r3]	@ zero_extendqisi2
 108 0014 42F08002 		orr	r2, r2, #128
 109 0018 1A70     		strb	r2, [r3]
 815:.\Generated_Source\PSoC5/CyLib.c **** 
 816:.\Generated_Source\PSoC5/CyLib.c ****     /* Update Shadow Divider Value Register with new divider */
 817:.\Generated_Source\PSoC5/CyLib.c ****     CY_LIB_CLKDIST_WRK_LSB_REG = LO8(divider);
 110              		.loc 1 817 0
 111 001a C2B2     		uxtb	r2, r0
 112 001c 063B     		subs	r3, r3, #6
 113 001e 1A70     		strb	r2, [r3]
 818:.\Generated_Source\PSoC5/CyLib.c ****     CY_LIB_CLKDIST_WRK_MSB_REG = HI8(divider);
 114              		.loc 1 818 0
 115 0020 000A     		lsrs	r0, r0, #8
 116              	.LVL3:
 117 0022 0133     		adds	r3, r3, #1
 118 0024 1870     		strb	r0, [r3]
 819:.\Generated_Source\PSoC5/CyLib.c **** 
 820:.\Generated_Source\PSoC5/CyLib.c **** 
 821:.\Generated_Source\PSoC5/CyLib.c ****     /***************************************************************************
 822:.\Generated_Source\PSoC5/CyLib.c ****     * Copy shadow value defined in Shadow Divider Value Register
 823:.\Generated_Source\PSoC5/CyLib.c ****     * (CY_LIB_CLKDIST_WRK_LSB_REG and CY_LIB_CLKDIST_WRK_MSB_REG) to all
 824:.\Generated_Source\PSoC5/CyLib.c ****     * dividers selected in Analog and Digital Clock Mask Registers
 825:.\Generated_Source\PSoC5/CyLib.c ****     * (CY_LIB_CLKDIST_AMASK_REG and CY_LIB_CLKDIST_DMASK_REG).
 826:.\Generated_Source\PSoC5/CyLib.c ****     ***************************************************************************/
 827:.\Generated_Source\PSoC5/CyLib.c ****     CY_LIB_CLKDIST_LD_REG |= CY_LIB_CLKDIST_LD_LOAD;
 119              		.loc 1 827 0
 120 0026 023B     		subs	r3, r3, #2
 121 0028 1A78     		ldrb	r2, [r3]	@ zero_extendqisi2
 122 002a 42F00102 		orr	r2, r2, #1
 123 002e 1A70     		strb	r2, [r3]
 124 0030 7047     		bx	lr
 125              	.L11:
 126 0032 00BF     		.align	2
 127              	.L10:
 128 0034 14400040 		.word	1073758228
 129              		.cfi_endproc
 130              	.LFE14:
 131              		.size	CyBusClk_Internal_SetDivider, .-CyBusClk_Internal_SetDivider
 132              		.section	.text.CyPLL_OUT_Stop,"ax",%progbits
 133              		.align	2
 134              		.global	CyPLL_OUT_Stop
 135              		.thumb
 136              		.thumb_func
 137              		.type	CyPLL_OUT_Stop, %function
ARM GAS  C:\Users\mitchell\AppData\Local\Temp\ccIjMaGi.s 			page 18


 138              	CyPLL_OUT_Stop:
 139              	.LFB1:
 160:.\Generated_Source\PSoC5/CyLib.c **** {
 140              		.loc 1 160 0
 141              		.cfi_startproc
 142              		@ args = 0, pretend = 0, frame = 0
 143              		@ frame_needed = 0, uses_anonymous_args = 0
 144              		@ link register save eliminated.
 161:.\Generated_Source\PSoC5/CyLib.c ****     CY_CLK_PLL_CFG0_REG &= ((uint8)(~CY_CLK_PLL_ENABLE));
 145              		.loc 1 161 0
 146 0000 024B     		ldr	r3, .L13
 147 0002 1A78     		ldrb	r2, [r3]	@ zero_extendqisi2
 148 0004 02F0FE02 		and	r2, r2, #254
 149 0008 1A70     		strb	r2, [r3]
 150 000a 7047     		bx	lr
 151              	.L14:
 152              		.align	2
 153              	.L13:
 154 000c 20420040 		.word	1073758752
 155              		.cfi_endproc
 156              	.LFE1:
 157              		.size	CyPLL_OUT_Stop, .-CyPLL_OUT_Stop
 158              		.section	.text.CyIMO_Stop,"ax",%progbits
 159              		.align	2
 160              		.global	CyIMO_Stop
 161              		.thumb
 162              		.thumb_func
 163              		.type	CyIMO_Stop, %function
 164              	CyIMO_Stop:
 165              	.LFB5:
 352:.\Generated_Source\PSoC5/CyLib.c **** {
 166              		.loc 1 352 0
 167              		.cfi_startproc
 168              		@ args = 0, pretend = 0, frame = 0
 169              		@ frame_needed = 0, uses_anonymous_args = 0
 170              		@ link register save eliminated.
 353:.\Generated_Source\PSoC5/CyLib.c ****     CY_LIB_PM_ACT_CFG0_REG  &= ((uint8) (~CY_LIB_PM_ACT_CFG0_IMO_EN));
 171              		.loc 1 353 0
 172 0000 054B     		ldr	r3, .L16
 173 0002 1A78     		ldrb	r2, [r3]	@ zero_extendqisi2
 174 0004 02F0EF02 		and	r2, r2, #239
 175 0008 1A70     		strb	r2, [r3]
 354:.\Generated_Source\PSoC5/CyLib.c ****     CY_LIB_PM_STBY_CFG0_REG &= ((uint8) (~CY_LIB_PM_STBY_CFG0_IMO_EN));
 176              		.loc 1 354 0
 177 000a 1033     		adds	r3, r3, #16
 178 000c 1A78     		ldrb	r2, [r3]	@ zero_extendqisi2
 179 000e 02F0EF02 		and	r2, r2, #239
 180 0012 1A70     		strb	r2, [r3]
 181 0014 7047     		bx	lr
 182              	.L17:
 183 0016 00BF     		.align	2
 184              	.L16:
 185 0018 A0430040 		.word	1073759136
 186              		.cfi_endproc
 187              	.LFE5:
 188              		.size	CyIMO_Stop, .-CyIMO_Stop
 189              		.section	.text.CyIMO_EnableDoubler,"ax",%progbits
ARM GAS  C:\Users\mitchell\AppData\Local\Temp\ccIjMaGi.s 			page 19


 190              		.align	2
 191              		.global	CyIMO_EnableDoubler
 192              		.thumb
 193              		.thumb_func
 194              		.type	CyIMO_EnableDoubler, %function
 195              	CyIMO_EnableDoubler:
 196              	.LFB10:
 695:.\Generated_Source\PSoC5/CyLib.c **** {
 197              		.loc 1 695 0
 198              		.cfi_startproc
 199              		@ args = 0, pretend = 0, frame = 0
 200              		@ frame_needed = 0, uses_anonymous_args = 0
 201              		@ link register save eliminated.
 697:.\Generated_Source\PSoC5/CyLib.c ****     CY_LIB_FASTCLK_IMO_CR_REG |= CY_LIB_FASTCLK_IMO_DOUBLER;
 202              		.loc 1 697 0
 203 0000 024B     		ldr	r3, .L19
 204 0002 1A78     		ldrb	r2, [r3]	@ zero_extendqisi2
 205 0004 42F01002 		orr	r2, r2, #16
 206 0008 1A70     		strb	r2, [r3]
 207 000a 7047     		bx	lr
 208              	.L20:
 209              		.align	2
 210              	.L19:
 211 000c 00420040 		.word	1073758720
 212              		.cfi_endproc
 213              	.LFE10:
 214              		.size	CyIMO_EnableDoubler, .-CyIMO_EnableDoubler
 215              		.section	.text.CyIMO_DisableDoubler,"ax",%progbits
 216              		.align	2
 217              		.global	CyIMO_DisableDoubler
 218              		.thumb
 219              		.thumb_func
 220              		.type	CyIMO_DisableDoubler, %function
 221              	CyIMO_DisableDoubler:
 222              	.LFB11:
 716:.\Generated_Source\PSoC5/CyLib.c **** {
 223              		.loc 1 716 0
 224              		.cfi_startproc
 225              		@ args = 0, pretend = 0, frame = 0
 226              		@ frame_needed = 0, uses_anonymous_args = 0
 227              		@ link register save eliminated.
 717:.\Generated_Source\PSoC5/CyLib.c ****     CY_LIB_FASTCLK_IMO_CR_REG &= ((uint8)(~CY_LIB_FASTCLK_IMO_DOUBLER));
 228              		.loc 1 717 0
 229 0000 024B     		ldr	r3, .L22
 230 0002 1A78     		ldrb	r2, [r3]	@ zero_extendqisi2
 231 0004 02F0EF02 		and	r2, r2, #239
 232 0008 1A70     		strb	r2, [r3]
 233 000a 7047     		bx	lr
 234              	.L23:
 235              		.align	2
 236              	.L22:
 237 000c 00420040 		.word	1073758720
 238              		.cfi_endproc
 239              	.LFE11:
 240              		.size	CyIMO_DisableDoubler, .-CyIMO_DisableDoubler
 241              		.section	.text.CyMasterClk_SetSource,"ax",%progbits
 242              		.align	2
ARM GAS  C:\Users\mitchell\AppData\Local\Temp\ccIjMaGi.s 			page 20


 243              		.global	CyMasterClk_SetSource
 244              		.thumb
 245              		.thumb_func
 246              		.type	CyMasterClk_SetSource, %function
 247              	CyMasterClk_SetSource:
 248              	.LFB12:
 751:.\Generated_Source\PSoC5/CyLib.c **** {
 249              		.loc 1 751 0
 250              		.cfi_startproc
 251              		@ args = 0, pretend = 0, frame = 0
 252              		@ frame_needed = 0, uses_anonymous_args = 0
 253              		@ link register save eliminated.
 254              	.LVL4:
 752:.\Generated_Source\PSoC5/CyLib.c ****     CY_LIB_CLKDIST_MSTR1_REG = (CY_LIB_CLKDIST_MSTR1_REG & MASTER_CLK_SRC_CLEAR) |
 255              		.loc 1 752 0
 256 0000 044B     		ldr	r3, .L25
 257 0002 1A78     		ldrb	r2, [r3]	@ zero_extendqisi2
 258 0004 02F0FC02 		and	r2, r2, #252
 259 0008 00F00300 		and	r0, r0, #3
 260              	.LVL5:
 261 000c 0243     		orrs	r2, r2, r0
 262 000e 1A70     		strb	r2, [r3]
 263 0010 7047     		bx	lr
 264              	.L26:
 265 0012 00BF     		.align	2
 266              	.L25:
 267 0014 05400040 		.word	1073758213
 268              		.cfi_endproc
 269              	.LFE12:
 270              		.size	CyMasterClk_SetSource, .-CyMasterClk_SetSource
 271              		.section	.text.CyMasterClk_SetDivider,"ax",%progbits
 272              		.align	2
 273              		.global	CyMasterClk_SetDivider
 274              		.thumb
 275              		.thumb_func
 276              		.type	CyMasterClk_SetDivider, %function
 277              	CyMasterClk_SetDivider:
 278              	.LFB13:
 786:.\Generated_Source\PSoC5/CyLib.c **** {
 279              		.loc 1 786 0
 280              		.cfi_startproc
 281              		@ args = 0, pretend = 0, frame = 0
 282              		@ frame_needed = 0, uses_anonymous_args = 0
 283              		@ link register save eliminated.
 284              	.LVL6:
 787:.\Generated_Source\PSoC5/CyLib.c ****     CY_LIB_CLKDIST_MSTR0_REG = divider;
 285              		.loc 1 787 0
 286 0000 014B     		ldr	r3, .L28
 287 0002 1870     		strb	r0, [r3]
 288 0004 7047     		bx	lr
 289              	.L29:
 290 0006 00BF     		.align	2
 291              	.L28:
 292 0008 04400040 		.word	1073758212
 293              		.cfi_endproc
 294              	.LFE13:
 295              		.size	CyMasterClk_SetDivider, .-CyMasterClk_SetDivider
ARM GAS  C:\Users\mitchell\AppData\Local\Temp\ccIjMaGi.s 			page 21


 296              		.section	.text.CyBusClk_SetDivider,"ax",%progbits
 297              		.align	2
 298              		.global	CyBusClk_SetDivider
 299              		.thumb
 300              		.thumb_func
 301              		.type	CyBusClk_SetDivider, %function
 302              	CyBusClk_SetDivider:
 303              	.LFB15:
 828:.\Generated_Source\PSoC5/CyLib.c **** }
 829:.\Generated_Source\PSoC5/CyLib.c **** 
 830:.\Generated_Source\PSoC5/CyLib.c **** 
 831:.\Generated_Source\PSoC5/CyLib.c **** /*******************************************************************************
 832:.\Generated_Source\PSoC5/CyLib.c **** * Function Name: CyBusClk_SetDivider
 833:.\Generated_Source\PSoC5/CyLib.c **** ********************************************************************************
 834:.\Generated_Source\PSoC5/CyLib.c **** *
 835:.\Generated_Source\PSoC5/CyLib.c **** * Summary:
 836:.\Generated_Source\PSoC5/CyLib.c **** *  Sets the divider value used to generate the Bus Clock.
 837:.\Generated_Source\PSoC5/CyLib.c **** *
 838:.\Generated_Source\PSoC5/CyLib.c **** * Parameters:
 839:.\Generated_Source\PSoC5/CyLib.c **** *  divider: Valid range [0-65535]. The clock will be divided by this value + 1.
 840:.\Generated_Source\PSoC5/CyLib.c **** *  For example, to divide this parameter by two should be set to 1.
 841:.\Generated_Source\PSoC5/CyLib.c **** *
 842:.\Generated_Source\PSoC5/CyLib.c **** * Return:
 843:.\Generated_Source\PSoC5/CyLib.c **** *  None
 844:.\Generated_Source\PSoC5/CyLib.c **** *
 845:.\Generated_Source\PSoC5/CyLib.c **** * Side Effects:
 846:.\Generated_Source\PSoC5/CyLib.c **** *  If this function execution resulted in the CPU clock frequency increasing,
 847:.\Generated_Source\PSoC5/CyLib.c **** *  then the number of clock cycles the cache will wait before it samples data
 848:.\Generated_Source\PSoC5/CyLib.c **** *  coming back from the Flash must be adjusted by calling
 849:.\Generated_Source\PSoC5/CyLib.c **** *  CyFlash_SetWaitCycles() with an appropriate parameter. It can be optionally
 850:.\Generated_Source\PSoC5/CyLib.c **** *  called if the CPU clock frequency is lowered in order to improve the CPU
 851:.\Generated_Source\PSoC5/CyLib.c **** *  performance. See CyFlash_SetWaitCycles() description for more information.
 852:.\Generated_Source\PSoC5/CyLib.c **** *
 853:.\Generated_Source\PSoC5/CyLib.c **** *******************************************************************************/
 854:.\Generated_Source\PSoC5/CyLib.c **** void CyBusClk_SetDivider(uint16 divider) 
 855:.\Generated_Source\PSoC5/CyLib.c **** {
 304              		.loc 1 855 0
 305              		.cfi_startproc
 306              		@ args = 0, pretend = 0, frame = 0
 307              		@ frame_needed = 0, uses_anonymous_args = 0
 308              	.LVL7:
 309 0000 70B5     		push	{r4, r5, r6, lr}
 310              		.cfi_def_cfa_offset 16
 311              		.cfi_offset 4, -16
 312              		.cfi_offset 5, -12
 313              		.cfi_offset 6, -8
 314              		.cfi_offset 14, -4
 315 0002 0446     		mov	r4, r0
 856:.\Generated_Source\PSoC5/CyLib.c ****     uint8  masterClkDiv;
 857:.\Generated_Source\PSoC5/CyLib.c ****     uint16 busClkDiv;
 858:.\Generated_Source\PSoC5/CyLib.c ****     uint8 interruptState;
 859:.\Generated_Source\PSoC5/CyLib.c **** 
 860:.\Generated_Source\PSoC5/CyLib.c ****     interruptState = CyEnterCriticalSection();
 316              		.loc 1 860 0
 317 0004 FFF7FEFF 		bl	CyEnterCriticalSection
 318              	.LVL8:
 319 0008 0646     		mov	r6, r0
ARM GAS  C:\Users\mitchell\AppData\Local\Temp\ccIjMaGi.s 			page 22


 320              	.LVL9:
 861:.\Generated_Source\PSoC5/CyLib.c **** 
 862:.\Generated_Source\PSoC5/CyLib.c ****     /* Work around to set bus clock divider value */
 863:.\Generated_Source\PSoC5/CyLib.c ****     busClkDiv = (uint16)((uint16)CY_LIB_CLKDIST_BCFG_MSB_REG << 8u);
 321              		.loc 1 863 0
 322 000a 164B     		ldr	r3, .L37
 323 000c 1A78     		ldrb	r2, [r3]	@ zero_extendqisi2
 324              	.LVL10:
 864:.\Generated_Source\PSoC5/CyLib.c ****     busClkDiv |= CY_LIB_CLKDIST_BCFG_LSB_REG;
 325              		.loc 1 864 0
 326 000e 013B     		subs	r3, r3, #1
 327 0010 1B78     		ldrb	r3, [r3]	@ zero_extendqisi2
 328 0012 43EA0223 		orr	r3, r3, r2, lsl #8
 329              	.LVL11:
 865:.\Generated_Source\PSoC5/CyLib.c **** 
 866:.\Generated_Source\PSoC5/CyLib.c ****     if ((divider == 0u) || (busClkDiv == 0u))
 330              		.loc 1 866 0
 331 0016 04B1     		cbz	r4, .L31
 332              		.loc 1 866 0 is_stmt 0 discriminator 1
 333 0018 EBB9     		cbnz	r3, .L32
 334              	.L31:
 867:.\Generated_Source\PSoC5/CyLib.c ****     {
 868:.\Generated_Source\PSoC5/CyLib.c ****         /* Save away master clock divider value */
 869:.\Generated_Source\PSoC5/CyLib.c ****         masterClkDiv = CY_LIB_CLKDIST_MSTR0_REG;
 335              		.loc 1 869 0 is_stmt 1
 336 001a 134B     		ldr	r3, .L37+4
 337              	.LVL12:
 338 001c 1D78     		ldrb	r5, [r3]	@ zero_extendqisi2
 339 001e EDB2     		uxtb	r5, r5
 340              	.LVL13:
 870:.\Generated_Source\PSoC5/CyLib.c **** 
 871:.\Generated_Source\PSoC5/CyLib.c ****         if (masterClkDiv < CY_LIB_CLKDIST_MASTERCLK_DIV)
 341              		.loc 1 871 0
 342 0020 062D     		cmp	r5, #6
 343 0022 02D8     		bhi	.L33
 872:.\Generated_Source\PSoC5/CyLib.c ****         {
 873:.\Generated_Source\PSoC5/CyLib.c ****             /* Set master clock divider to 7 */
 874:.\Generated_Source\PSoC5/CyLib.c ****             CyMasterClk_SetDivider(CY_LIB_CLKDIST_MASTERCLK_DIV);
 344              		.loc 1 874 0
 345 0024 0720     		movs	r0, #7
 346              	.LVL14:
 347 0026 FFF7FEFF 		bl	CyMasterClk_SetDivider
 348              	.LVL15:
 349              	.L33:
 875:.\Generated_Source\PSoC5/CyLib.c ****         }
 876:.\Generated_Source\PSoC5/CyLib.c **** 
 877:.\Generated_Source\PSoC5/CyLib.c ****         if (divider == 0u)
 350              		.loc 1 877 0
 351 002a 44B9     		cbnz	r4, .L34
 878:.\Generated_Source\PSoC5/CyLib.c ****         {
 879:.\Generated_Source\PSoC5/CyLib.c ****             /* Set SSS bit and divider register desired value */
 880:.\Generated_Source\PSoC5/CyLib.c ****             CY_LIB_CLKDIST_BCFG2_REG |= CY_LIB_CLKDIST_BCFG2_SSS;
 352              		.loc 1 880 0
 353 002c 0F4B     		ldr	r3, .L37+8
 354 002e 1A78     		ldrb	r2, [r3]	@ zero_extendqisi2
 355 0030 42F04002 		orr	r2, r2, #64
 356 0034 1A70     		strb	r2, [r3]
ARM GAS  C:\Users\mitchell\AppData\Local\Temp\ccIjMaGi.s 			page 23


 881:.\Generated_Source\PSoC5/CyLib.c ****             CyBusClk_Internal_SetDivider(divider);
 357              		.loc 1 881 0
 358 0036 2046     		mov	r0, r4
 359 0038 FFF7FEFF 		bl	CyBusClk_Internal_SetDivider
 360              	.LVL16:
 361 003c 07E0     		b	.L35
 362              	.L34:
 882:.\Generated_Source\PSoC5/CyLib.c ****         }
 883:.\Generated_Source\PSoC5/CyLib.c ****         else
 884:.\Generated_Source\PSoC5/CyLib.c ****         {
 885:.\Generated_Source\PSoC5/CyLib.c ****             CyBusClk_Internal_SetDivider(divider);
 363              		.loc 1 885 0
 364 003e 2046     		mov	r0, r4
 365 0040 FFF7FEFF 		bl	CyBusClk_Internal_SetDivider
 366              	.LVL17:
 886:.\Generated_Source\PSoC5/CyLib.c ****             CY_LIB_CLKDIST_BCFG2_REG &= ((uint8)(~CY_LIB_CLKDIST_BCFG2_SSS));
 367              		.loc 1 886 0
 368 0044 094B     		ldr	r3, .L37+8
 369 0046 1A78     		ldrb	r2, [r3]	@ zero_extendqisi2
 370 0048 02F0BF02 		and	r2, r2, #191
 371 004c 1A70     		strb	r2, [r3]
 372              	.L35:
 887:.\Generated_Source\PSoC5/CyLib.c ****         }
 888:.\Generated_Source\PSoC5/CyLib.c **** 
 889:.\Generated_Source\PSoC5/CyLib.c ****         /* Restore master clock */
 890:.\Generated_Source\PSoC5/CyLib.c ****         CyMasterClk_SetDivider(masterClkDiv);
 373              		.loc 1 890 0
 374 004e 2846     		mov	r0, r5
 375 0050 FFF7FEFF 		bl	CyMasterClk_SetDivider
 376              	.LVL18:
 377 0054 02E0     		b	.L36
 378              	.LVL19:
 379              	.L32:
 891:.\Generated_Source\PSoC5/CyLib.c ****     }
 892:.\Generated_Source\PSoC5/CyLib.c ****     else
 893:.\Generated_Source\PSoC5/CyLib.c ****     {
 894:.\Generated_Source\PSoC5/CyLib.c ****         CyBusClk_Internal_SetDivider(divider);
 380              		.loc 1 894 0
 381 0056 2046     		mov	r0, r4
 382              	.LVL20:
 383 0058 FFF7FEFF 		bl	CyBusClk_Internal_SetDivider
 384              	.LVL21:
 385              	.L36:
 895:.\Generated_Source\PSoC5/CyLib.c ****     }
 896:.\Generated_Source\PSoC5/CyLib.c **** 
 897:.\Generated_Source\PSoC5/CyLib.c ****     CyExitCriticalSection(interruptState);
 386              		.loc 1 897 0
 387 005c 3046     		mov	r0, r6
 388 005e FFF7FEFF 		bl	CyExitCriticalSection
 389              	.LVL22:
 390 0062 70BD     		pop	{r4, r5, r6, pc}
 391              	.LVL23:
 392              	.L38:
 393              		.align	2
 394              	.L37:
 395 0064 07400040 		.word	1073758215
 396 0068 04400040 		.word	1073758212
ARM GAS  C:\Users\mitchell\AppData\Local\Temp\ccIjMaGi.s 			page 24


 397 006c 08400040 		.word	1073758216
 398              		.cfi_endproc
 399              	.LFE15:
 400              		.size	CyBusClk_SetDivider, .-CyBusClk_SetDivider
 401              		.section	.text.CyUsbClk_SetSource,"ax",%progbits
 402              		.align	2
 403              		.global	CyUsbClk_SetSource
 404              		.thumb
 405              		.thumb_func
 406              		.type	CyUsbClk_SetSource, %function
 407              	CyUsbClk_SetSource:
 408              	.LFB16:
 898:.\Generated_Source\PSoC5/CyLib.c **** }
 899:.\Generated_Source\PSoC5/CyLib.c **** 
 900:.\Generated_Source\PSoC5/CyLib.c **** 
 901:.\Generated_Source\PSoC5/CyLib.c **** #if(CY_PSOC3)
 902:.\Generated_Source\PSoC5/CyLib.c **** 
 903:.\Generated_Source\PSoC5/CyLib.c ****     /*******************************************************************************
 904:.\Generated_Source\PSoC5/CyLib.c ****     * Function Name: CyCpuClk_SetDivider
 905:.\Generated_Source\PSoC5/CyLib.c ****     ********************************************************************************
 906:.\Generated_Source\PSoC5/CyLib.c ****     *
 907:.\Generated_Source\PSoC5/CyLib.c ****     * Summary:
 908:.\Generated_Source\PSoC5/CyLib.c ****     *  Sets the divider value used to generate the CPU Clock. Only applicable for
 909:.\Generated_Source\PSoC5/CyLib.c ****     *  PSoC 3 parts.
 910:.\Generated_Source\PSoC5/CyLib.c ****     *
 911:.\Generated_Source\PSoC5/CyLib.c ****     * Parameters:
 912:.\Generated_Source\PSoC5/CyLib.c ****     *  divider: Valid range [0-15]. The clock will be divided by this value + 1.
 913:.\Generated_Source\PSoC5/CyLib.c ****     *  For example, to divide this parameter by two should be set to 1.
 914:.\Generated_Source\PSoC5/CyLib.c ****     *
 915:.\Generated_Source\PSoC5/CyLib.c ****     * Return:
 916:.\Generated_Source\PSoC5/CyLib.c ****     *  None
 917:.\Generated_Source\PSoC5/CyLib.c ****     *
 918:.\Generated_Source\PSoC5/CyLib.c ****     * Side Effects:
 919:.\Generated_Source\PSoC5/CyLib.c ****     *  If this function execution resulted in the CPU clock frequency increasing,
 920:.\Generated_Source\PSoC5/CyLib.c ****     *  then the number of clock cycles the cache will wait before it samples data
 921:.\Generated_Source\PSoC5/CyLib.c ****     *  coming back from the Flash must be adjusted by calling
 922:.\Generated_Source\PSoC5/CyLib.c ****     *  CyFlash_SetWaitCycles() with an appropriate parameter. It can be optionally
 923:.\Generated_Source\PSoC5/CyLib.c ****     *  called if the CPU clock frequency is lowered in order to improve the CPU
 924:.\Generated_Source\PSoC5/CyLib.c ****     *  performance. See CyFlash_SetWaitCycles() description for more information.
 925:.\Generated_Source\PSoC5/CyLib.c ****     *
 926:.\Generated_Source\PSoC5/CyLib.c ****     *******************************************************************************/
 927:.\Generated_Source\PSoC5/CyLib.c ****     void CyCpuClk_SetDivider(uint8 divider) 
 928:.\Generated_Source\PSoC5/CyLib.c ****     {
 929:.\Generated_Source\PSoC5/CyLib.c ****             CY_LIB_CLKDIST_MSTR1_REG = (CY_LIB_CLKDIST_MSTR1_REG & CY_LIB_CLKDIST_MSTR1_DIV_MASK) |
 930:.\Generated_Source\PSoC5/CyLib.c ****                                 ((uint8)(divider << CY_LIB_CLKDIST_DIV_POSITION));
 931:.\Generated_Source\PSoC5/CyLib.c ****     }
 932:.\Generated_Source\PSoC5/CyLib.c **** 
 933:.\Generated_Source\PSoC5/CyLib.c **** #endif /* (CY_PSOC3) */
 934:.\Generated_Source\PSoC5/CyLib.c **** 
 935:.\Generated_Source\PSoC5/CyLib.c **** 
 936:.\Generated_Source\PSoC5/CyLib.c **** /*******************************************************************************
 937:.\Generated_Source\PSoC5/CyLib.c **** * Function Name: CyUsbClk_SetSource
 938:.\Generated_Source\PSoC5/CyLib.c **** ********************************************************************************
 939:.\Generated_Source\PSoC5/CyLib.c **** *
 940:.\Generated_Source\PSoC5/CyLib.c **** * Summary:
 941:.\Generated_Source\PSoC5/CyLib.c **** *  Sets the source of the USB clock.
 942:.\Generated_Source\PSoC5/CyLib.c **** *
ARM GAS  C:\Users\mitchell\AppData\Local\Temp\ccIjMaGi.s 			page 25


 943:.\Generated_Source\PSoC5/CyLib.c **** * Parameters:
 944:.\Generated_Source\PSoC5/CyLib.c **** *  source: One of the four available USB clock sources
 945:.\Generated_Source\PSoC5/CyLib.c **** *    CY_LIB_USB_CLK_IMO2X     - IMO 2x
 946:.\Generated_Source\PSoC5/CyLib.c **** *    CY_LIB_USB_CLK_IMO       - IMO
 947:.\Generated_Source\PSoC5/CyLib.c **** *    CY_LIB_USB_CLK_PLL       - PLL
 948:.\Generated_Source\PSoC5/CyLib.c **** *    CY_LIB_USB_CLK_DSI       - DSI
 949:.\Generated_Source\PSoC5/CyLib.c **** *
 950:.\Generated_Source\PSoC5/CyLib.c **** * Return:
 951:.\Generated_Source\PSoC5/CyLib.c **** *  None
 952:.\Generated_Source\PSoC5/CyLib.c **** *
 953:.\Generated_Source\PSoC5/CyLib.c **** *******************************************************************************/
 954:.\Generated_Source\PSoC5/CyLib.c **** void CyUsbClk_SetSource(uint8 source) 
 955:.\Generated_Source\PSoC5/CyLib.c **** {
 409              		.loc 1 955 0
 410              		.cfi_startproc
 411              		@ args = 0, pretend = 0, frame = 0
 412              		@ frame_needed = 0, uses_anonymous_args = 0
 413              		@ link register save eliminated.
 414              	.LVL24:
 956:.\Generated_Source\PSoC5/CyLib.c ****     CY_LIB_CLKDIST_UCFG_REG = (CY_LIB_CLKDIST_UCFG_REG & ((uint8)(~CY_LIB_CLKDIST_UCFG_SRC_SEL_MASK
 415              		.loc 1 956 0
 416 0000 044B     		ldr	r3, .L40
 417 0002 1A78     		ldrb	r2, [r3]	@ zero_extendqisi2
 418 0004 02F0FC02 		and	r2, r2, #252
 419 0008 00F00300 		and	r0, r0, #3
 420              	.LVL25:
 421 000c 0243     		orrs	r2, r2, r0
 422 000e 1A70     		strb	r2, [r3]
 423 0010 7047     		bx	lr
 424              	.L41:
 425 0012 00BF     		.align	2
 426              	.L40:
 427 0014 09400040 		.word	1073758217
 428              		.cfi_endproc
 429              	.LFE16:
 430              		.size	CyUsbClk_SetSource, .-CyUsbClk_SetSource
 431              		.section	.text.CyILO_Start1K,"ax",%progbits
 432              		.align	2
 433              		.global	CyILO_Start1K
 434              		.thumb
 435              		.thumb_func
 436              		.type	CyILO_Start1K, %function
 437              	CyILO_Start1K:
 438              	.LFB17:
 957:.\Generated_Source\PSoC5/CyLib.c ****                         (CY_LIB_CLKDIST_UCFG_SRC_SEL_MASK & source);
 958:.\Generated_Source\PSoC5/CyLib.c **** }
 959:.\Generated_Source\PSoC5/CyLib.c **** 
 960:.\Generated_Source\PSoC5/CyLib.c **** 
 961:.\Generated_Source\PSoC5/CyLib.c **** /*******************************************************************************
 962:.\Generated_Source\PSoC5/CyLib.c **** * Function Name: CyILO_Start1K
 963:.\Generated_Source\PSoC5/CyLib.c **** ********************************************************************************
 964:.\Generated_Source\PSoC5/CyLib.c **** *
 965:.\Generated_Source\PSoC5/CyLib.c **** * Summary:
 966:.\Generated_Source\PSoC5/CyLib.c **** *  Enables the ILO 1 KHz oscillator.
 967:.\Generated_Source\PSoC5/CyLib.c **** *
 968:.\Generated_Source\PSoC5/CyLib.c **** *  Note The ILO 1 KHz oscillator is always enabled by default, regardless of the
 969:.\Generated_Source\PSoC5/CyLib.c **** *  selection in the Clock Editor. Therefore, this API is only needed if the
ARM GAS  C:\Users\mitchell\AppData\Local\Temp\ccIjMaGi.s 			page 26


 970:.\Generated_Source\PSoC5/CyLib.c **** *  oscillator was turned off manually.
 971:.\Generated_Source\PSoC5/CyLib.c **** *
 972:.\Generated_Source\PSoC5/CyLib.c **** * Parameters:
 973:.\Generated_Source\PSoC5/CyLib.c **** *  None
 974:.\Generated_Source\PSoC5/CyLib.c **** *
 975:.\Generated_Source\PSoC5/CyLib.c **** * Return:
 976:.\Generated_Source\PSoC5/CyLib.c **** *  None
 977:.\Generated_Source\PSoC5/CyLib.c **** *
 978:.\Generated_Source\PSoC5/CyLib.c **** *******************************************************************************/
 979:.\Generated_Source\PSoC5/CyLib.c **** void CyILO_Start1K(void) 
 980:.\Generated_Source\PSoC5/CyLib.c **** {
 439              		.loc 1 980 0
 440              		.cfi_startproc
 441              		@ args = 0, pretend = 0, frame = 0
 442              		@ frame_needed = 0, uses_anonymous_args = 0
 443              		@ link register save eliminated.
 981:.\Generated_Source\PSoC5/CyLib.c ****     /* Set bit 1 of ILO RS */
 982:.\Generated_Source\PSoC5/CyLib.c ****     CY_LIB_SLOWCLK_ILO_CR0_REG |= CY_LIB_SLOWCLK_ILO_CR0_EN_1KHZ;
 444              		.loc 1 982 0
 445 0000 024B     		ldr	r3, .L43
 446 0002 1A78     		ldrb	r2, [r3]	@ zero_extendqisi2
 447 0004 42F00202 		orr	r2, r2, #2
 448 0008 1A70     		strb	r2, [r3]
 449 000a 7047     		bx	lr
 450              	.L44:
 451              		.align	2
 452              	.L43:
 453 000c 00430040 		.word	1073758976
 454              		.cfi_endproc
 455              	.LFE17:
 456              		.size	CyILO_Start1K, .-CyILO_Start1K
 457              		.section	.text.CyILO_Stop1K,"ax",%progbits
 458              		.align	2
 459              		.global	CyILO_Stop1K
 460              		.thumb
 461              		.thumb_func
 462              		.type	CyILO_Stop1K, %function
 463              	CyILO_Stop1K:
 464              	.LFB18:
 983:.\Generated_Source\PSoC5/CyLib.c **** }
 984:.\Generated_Source\PSoC5/CyLib.c **** 
 985:.\Generated_Source\PSoC5/CyLib.c **** 
 986:.\Generated_Source\PSoC5/CyLib.c **** /*******************************************************************************
 987:.\Generated_Source\PSoC5/CyLib.c **** * Function Name: CyILO_Stop1K
 988:.\Generated_Source\PSoC5/CyLib.c **** ********************************************************************************
 989:.\Generated_Source\PSoC5/CyLib.c **** *
 990:.\Generated_Source\PSoC5/CyLib.c **** * Summary:
 991:.\Generated_Source\PSoC5/CyLib.c **** *  Disables the ILO 1 KHz oscillator.
 992:.\Generated_Source\PSoC5/CyLib.c **** *
 993:.\Generated_Source\PSoC5/CyLib.c **** *  Note The ILO 1 KHz oscillator must be enabled if the Sleep or Hibernate low
 994:.\Generated_Source\PSoC5/CyLib.c **** *  power mode APIs are expected to be used. For more information, refer to the
 995:.\Generated_Source\PSoC5/CyLib.c **** *  Power Management section of this document.
 996:.\Generated_Source\PSoC5/CyLib.c **** *
 997:.\Generated_Source\PSoC5/CyLib.c **** * Parameters:
 998:.\Generated_Source\PSoC5/CyLib.c **** *  None
 999:.\Generated_Source\PSoC5/CyLib.c **** *
1000:.\Generated_Source\PSoC5/CyLib.c **** * Return:
ARM GAS  C:\Users\mitchell\AppData\Local\Temp\ccIjMaGi.s 			page 27


1001:.\Generated_Source\PSoC5/CyLib.c **** *  None
1002:.\Generated_Source\PSoC5/CyLib.c **** *
1003:.\Generated_Source\PSoC5/CyLib.c **** * Side Effects:
1004:.\Generated_Source\PSoC5/CyLib.c **** *  PSoC5: Stopping the ILO 1 kHz could break the active WDT functionality.
1005:.\Generated_Source\PSoC5/CyLib.c **** *
1006:.\Generated_Source\PSoC5/CyLib.c **** *******************************************************************************/
1007:.\Generated_Source\PSoC5/CyLib.c **** void CyILO_Stop1K(void) 
1008:.\Generated_Source\PSoC5/CyLib.c **** {
 465              		.loc 1 1008 0
 466              		.cfi_startproc
 467              		@ args = 0, pretend = 0, frame = 0
 468              		@ frame_needed = 0, uses_anonymous_args = 0
 469              		@ link register save eliminated.
1009:.\Generated_Source\PSoC5/CyLib.c ****     /* Clear bit 1 of ILO RS */
1010:.\Generated_Source\PSoC5/CyLib.c ****     CY_LIB_SLOWCLK_ILO_CR0_REG &= ((uint8)(~CY_LIB_SLOWCLK_ILO_CR0_EN_1KHZ));
 470              		.loc 1 1010 0
 471 0000 024B     		ldr	r3, .L46
 472 0002 1A78     		ldrb	r2, [r3]	@ zero_extendqisi2
 473 0004 02F0FD02 		and	r2, r2, #253
 474 0008 1A70     		strb	r2, [r3]
 475 000a 7047     		bx	lr
 476              	.L47:
 477              		.align	2
 478              	.L46:
 479 000c 00430040 		.word	1073758976
 480              		.cfi_endproc
 481              	.LFE18:
 482              		.size	CyILO_Stop1K, .-CyILO_Stop1K
 483              		.section	.text.CyILO_Start100K,"ax",%progbits
 484              		.align	2
 485              		.global	CyILO_Start100K
 486              		.thumb
 487              		.thumb_func
 488              		.type	CyILO_Start100K, %function
 489              	CyILO_Start100K:
 490              	.LFB19:
1011:.\Generated_Source\PSoC5/CyLib.c **** }
1012:.\Generated_Source\PSoC5/CyLib.c **** 
1013:.\Generated_Source\PSoC5/CyLib.c **** 
1014:.\Generated_Source\PSoC5/CyLib.c **** /*******************************************************************************
1015:.\Generated_Source\PSoC5/CyLib.c **** * Function Name: CyILO_Start100K
1016:.\Generated_Source\PSoC5/CyLib.c **** ********************************************************************************
1017:.\Generated_Source\PSoC5/CyLib.c **** *
1018:.\Generated_Source\PSoC5/CyLib.c **** * Summary:
1019:.\Generated_Source\PSoC5/CyLib.c **** *  Enables the ILO 100 KHz oscillator.
1020:.\Generated_Source\PSoC5/CyLib.c **** *
1021:.\Generated_Source\PSoC5/CyLib.c **** * Parameters:
1022:.\Generated_Source\PSoC5/CyLib.c **** *  None
1023:.\Generated_Source\PSoC5/CyLib.c **** *
1024:.\Generated_Source\PSoC5/CyLib.c **** * Return:
1025:.\Generated_Source\PSoC5/CyLib.c **** *  None
1026:.\Generated_Source\PSoC5/CyLib.c **** *
1027:.\Generated_Source\PSoC5/CyLib.c **** *******************************************************************************/
1028:.\Generated_Source\PSoC5/CyLib.c **** void CyILO_Start100K(void) 
1029:.\Generated_Source\PSoC5/CyLib.c **** {
 491              		.loc 1 1029 0
 492              		.cfi_startproc
ARM GAS  C:\Users\mitchell\AppData\Local\Temp\ccIjMaGi.s 			page 28


 493              		@ args = 0, pretend = 0, frame = 0
 494              		@ frame_needed = 0, uses_anonymous_args = 0
 495              		@ link register save eliminated.
1030:.\Generated_Source\PSoC5/CyLib.c ****     CY_LIB_SLOWCLK_ILO_CR0_REG |= CY_LIB_SLOWCLK_ILO_CR0_EN_100KHZ;
 496              		.loc 1 1030 0
 497 0000 024B     		ldr	r3, .L49
 498 0002 1A78     		ldrb	r2, [r3]	@ zero_extendqisi2
 499 0004 42F00402 		orr	r2, r2, #4
 500 0008 1A70     		strb	r2, [r3]
 501 000a 7047     		bx	lr
 502              	.L50:
 503              		.align	2
 504              	.L49:
 505 000c 00430040 		.word	1073758976
 506              		.cfi_endproc
 507              	.LFE19:
 508              		.size	CyILO_Start100K, .-CyILO_Start100K
 509              		.section	.text.CyILO_Stop100K,"ax",%progbits
 510              		.align	2
 511              		.global	CyILO_Stop100K
 512              		.thumb
 513              		.thumb_func
 514              		.type	CyILO_Stop100K, %function
 515              	CyILO_Stop100K:
 516              	.LFB20:
1031:.\Generated_Source\PSoC5/CyLib.c **** }
1032:.\Generated_Source\PSoC5/CyLib.c **** 
1033:.\Generated_Source\PSoC5/CyLib.c **** 
1034:.\Generated_Source\PSoC5/CyLib.c **** /*******************************************************************************
1035:.\Generated_Source\PSoC5/CyLib.c **** * Function Name: CyILO_Stop100K
1036:.\Generated_Source\PSoC5/CyLib.c **** ********************************************************************************
1037:.\Generated_Source\PSoC5/CyLib.c **** *
1038:.\Generated_Source\PSoC5/CyLib.c **** * Summary:
1039:.\Generated_Source\PSoC5/CyLib.c **** *  Disables the ILO 100 KHz oscillator.
1040:.\Generated_Source\PSoC5/CyLib.c **** *
1041:.\Generated_Source\PSoC5/CyLib.c **** * Parameters:
1042:.\Generated_Source\PSoC5/CyLib.c **** *  None
1043:.\Generated_Source\PSoC5/CyLib.c **** *
1044:.\Generated_Source\PSoC5/CyLib.c **** * Return:
1045:.\Generated_Source\PSoC5/CyLib.c **** *  None
1046:.\Generated_Source\PSoC5/CyLib.c **** *
1047:.\Generated_Source\PSoC5/CyLib.c **** *******************************************************************************/
1048:.\Generated_Source\PSoC5/CyLib.c **** void CyILO_Stop100K(void) 
1049:.\Generated_Source\PSoC5/CyLib.c **** {
 517              		.loc 1 1049 0
 518              		.cfi_startproc
 519              		@ args = 0, pretend = 0, frame = 0
 520              		@ frame_needed = 0, uses_anonymous_args = 0
 521              		@ link register save eliminated.
1050:.\Generated_Source\PSoC5/CyLib.c ****     CY_LIB_SLOWCLK_ILO_CR0_REG &= ((uint8)(~CY_LIB_SLOWCLK_ILO_CR0_EN_100KHZ));
 522              		.loc 1 1050 0
 523 0000 024B     		ldr	r3, .L52
 524 0002 1A78     		ldrb	r2, [r3]	@ zero_extendqisi2
 525 0004 02F0FB02 		and	r2, r2, #251
 526 0008 1A70     		strb	r2, [r3]
 527 000a 7047     		bx	lr
 528              	.L53:
ARM GAS  C:\Users\mitchell\AppData\Local\Temp\ccIjMaGi.s 			page 29


 529              		.align	2
 530              	.L52:
 531 000c 00430040 		.word	1073758976
 532              		.cfi_endproc
 533              	.LFE20:
 534              		.size	CyILO_Stop100K, .-CyILO_Stop100K
 535              		.section	.text.CyPLL_OUT_Start,"ax",%progbits
 536              		.align	2
 537              		.global	CyPLL_OUT_Start
 538              		.thumb
 539              		.thumb_func
 540              		.type	CyPLL_OUT_Start, %function
 541              	CyPLL_OUT_Start:
 542              	.LFB0:
  96:.\Generated_Source\PSoC5/CyLib.c **** {
 543              		.loc 1 96 0
 544              		.cfi_startproc
 545              		@ args = 0, pretend = 0, frame = 0
 546              		@ frame_needed = 0, uses_anonymous_args = 0
 547              	.LVL26:
 548 0000 2DE9F041 		push	{r4, r5, r6, r7, r8, lr}
 549              		.cfi_def_cfa_offset 24
 550              		.cfi_offset 4, -24
 551              		.cfi_offset 5, -20
 552              		.cfi_offset 6, -16
 553              		.cfi_offset 7, -12
 554              		.cfi_offset 8, -8
 555              		.cfi_offset 14, -4
 556              	.LVL27:
 105:.\Generated_Source\PSoC5/CyLib.c ****     CY_CLK_PLL_CFG0_REG |= CY_CLK_PLL_ENABLE;
 557              		.loc 1 105 0
 558 0004 1B4B     		ldr	r3, .L63
 559 0006 1A78     		ldrb	r2, [r3]	@ zero_extendqisi2
 560 0008 42F00102 		orr	r2, r2, #1
 561 000c 1A70     		strb	r2, [r3]
 107:.\Generated_Source\PSoC5/CyLib.c ****     if(wait != 0u)
 562              		.loc 1 107 0
 563 000e 68B3     		cbz	r0, .L60
 110:.\Generated_Source\PSoC5/CyLib.c ****         iloEnableState = CY_LIB_SLOWCLK_ILO_CR0_REG & CY_LIB_SLOWCLK_ILO_CR0_EN_100KHZ;
 564              		.loc 1 110 0
 565 0010 E033     		adds	r3, r3, #224
 566 0012 93F80080 		ldrb	r8, [r3]	@ zero_extendqisi2
 567 0016 08F00408 		and	r8, r8, #4
 568 001a 5FFA88F8 		uxtb	r8, r8
 569              	.LVL28:
 111:.\Generated_Source\PSoC5/CyLib.c ****         pmTwCfg0State = CY_LIB_PM_TW_CFG0_REG;
 570              		.loc 1 111 0
 571 001e 8033     		adds	r3, r3, #128
 572 0020 1F78     		ldrb	r7, [r3]	@ zero_extendqisi2
 573 0022 FFB2     		uxtb	r7, r7
 574              	.LVL29:
 112:.\Generated_Source\PSoC5/CyLib.c ****         pmTwCfg2State = CY_LIB_PM_TW_CFG2_REG;
 575              		.loc 1 112 0
 576 0024 0233     		adds	r3, r3, #2
 577 0026 1E78     		ldrb	r6, [r3]	@ zero_extendqisi2
 578 0028 F6B2     		uxtb	r6, r6
 579              	.LVL30:
ARM GAS  C:\Users\mitchell\AppData\Local\Temp\ccIjMaGi.s 			page 30


 114:.\Generated_Source\PSoC5/CyLib.c ****         CyPmFtwSetInterval(CY_CLK_PLL_FTW_INTERVAL);
 580              		.loc 1 114 0
 581 002a 1820     		movs	r0, #24
 582              	.LVL31:
 583 002c FFF7FEFF 		bl	CyPmFtwSetInterval
 584              	.LVL32:
 118:.\Generated_Source\PSoC5/CyLib.c ****         while(0u == (CY_PM_FTW_INT & CyPmReadStatus(CY_PM_FTW_INT)))
 585              		.loc 1 118 0
 586 0030 0125     		movs	r5, #1
 121:.\Generated_Source\PSoC5/CyLib.c ****             if(0u != (CY_CLK_PLL_SR_REG & CY_CLK_PLL_LOCK_STATUS))
 587              		.loc 1 121 0
 588 0032 114C     		ldr	r4, .L63+4
 118:.\Generated_Source\PSoC5/CyLib.c ****         while(0u == (CY_PM_FTW_INT & CyPmReadStatus(CY_PM_FTW_INT)))
 589              		.loc 1 118 0
 590 0034 07E0     		b	.L62
 591              	.L58:
 121:.\Generated_Source\PSoC5/CyLib.c ****             if(0u != (CY_CLK_PLL_SR_REG & CY_CLK_PLL_LOCK_STATUS))
 592              		.loc 1 121 0
 593 0036 2378     		ldrb	r3, [r4]	@ zero_extendqisi2
 594 0038 13F0010F 		tst	r3, #1
 595 003c 03D0     		beq	.L62
 123:.\Generated_Source\PSoC5/CyLib.c ****                 if(0u != (CY_CLK_PLL_SR_REG & CY_CLK_PLL_LOCK_STATUS))
 596              		.loc 1 123 0
 597 003e 2378     		ldrb	r3, [r4]	@ zero_extendqisi2
 598 0040 13F0010F 		tst	r3, #1
 599 0044 07D1     		bne	.L61
 600              	.L62:
 118:.\Generated_Source\PSoC5/CyLib.c ****         while(0u == (CY_PM_FTW_INT & CyPmReadStatus(CY_PM_FTW_INT)))
 601              		.loc 1 118 0 discriminator 1
 602 0046 2846     		mov	r0, r5
 603 0048 FFF7FEFF 		bl	CyPmReadStatus
 604              	.LVL33:
 605 004c 10F0010F 		tst	r0, #1
 606 0050 F1D0     		beq	.L58
 116:.\Generated_Source\PSoC5/CyLib.c ****         status = CYRET_TIMEOUT;
 607              		.loc 1 116 0
 608 0052 1024     		movs	r4, #16
 609 0054 00E0     		b	.L57
 610              	.L61:
 125:.\Generated_Source\PSoC5/CyLib.c ****                     status = CYRET_SUCCESS;
 611              		.loc 1 125 0
 612 0056 0024     		movs	r4, #0
 613              	.L57:
 614              	.LVL34:
 132:.\Generated_Source\PSoC5/CyLib.c ****         if(0u == iloEnableState)
 615              		.loc 1 132 0
 616 0058 B8F1000F 		cmp	r8, #0
 617 005c 01D1     		bne	.L59
 134:.\Generated_Source\PSoC5/CyLib.c ****             CyILO_Stop100K();
 618              		.loc 1 134 0
 619 005e FFF7FEFF 		bl	CyILO_Stop100K
 620              	.LVL35:
 621              	.L59:
 137:.\Generated_Source\PSoC5/CyLib.c ****         CY_LIB_PM_TW_CFG0_REG = pmTwCfg0State;
 622              		.loc 1 137 0
 623 0062 064B     		ldr	r3, .L63+8
 624 0064 1F70     		strb	r7, [r3]
ARM GAS  C:\Users\mitchell\AppData\Local\Temp\ccIjMaGi.s 			page 31


 138:.\Generated_Source\PSoC5/CyLib.c ****         CY_LIB_PM_TW_CFG2_REG = pmTwCfg2State;
 625              		.loc 1 138 0
 626 0066 0233     		adds	r3, r3, #2
 627 0068 1E70     		strb	r6, [r3]
 628 006a 00E0     		b	.L55
 629              	.LVL36:
 630              	.L60:
  97:.\Generated_Source\PSoC5/CyLib.c ****     cystatus status = CYRET_SUCCESS;
 631              		.loc 1 97 0
 632 006c 0024     		movs	r4, #0
 633              	.LVL37:
 634              	.L55:
 142:.\Generated_Source\PSoC5/CyLib.c **** }
 635              		.loc 1 142 0
 636 006e 2046     		mov	r0, r4
 637 0070 BDE8F081 		pop	{r4, r5, r6, r7, r8, pc}
 638              	.LVL38:
 639              	.L64:
 640              		.align	2
 641              	.L63:
 642 0074 20420040 		.word	1073758752
 643 0078 25420040 		.word	1073758757
 644 007c 80430040 		.word	1073759104
 645              		.cfi_endproc
 646              	.LFE0:
 647              		.size	CyPLL_OUT_Start, .-CyPLL_OUT_Start
 648              		.section	.text.CyIMO_Start,"ax",%progbits
 649              		.align	2
 650              		.global	CyIMO_Start
 651              		.thumb
 652              		.thumb_func
 653              		.type	CyIMO_Start, %function
 654              	CyIMO_Start:
 655              	.LFB4:
 303:.\Generated_Source\PSoC5/CyLib.c **** {
 656              		.loc 1 303 0
 657              		.cfi_startproc
 658              		@ args = 0, pretend = 0, frame = 0
 659              		@ frame_needed = 0, uses_anonymous_args = 0
 660              	.LVL39:
 661 0000 F8B5     		push	{r3, r4, r5, r6, r7, lr}
 662              		.cfi_def_cfa_offset 24
 663              		.cfi_offset 3, -24
 664              		.cfi_offset 4, -20
 665              		.cfi_offset 5, -16
 666              		.cfi_offset 6, -12
 667              		.cfi_offset 7, -8
 668              		.cfi_offset 14, -4
 309:.\Generated_Source\PSoC5/CyLib.c ****     CY_LIB_PM_ACT_CFG0_REG  |= CY_LIB_PM_ACT_CFG0_IMO_EN;
 669              		.loc 1 309 0
 670 0002 144B     		ldr	r3, .L70
 671 0004 1A78     		ldrb	r2, [r3]	@ zero_extendqisi2
 672 0006 42F01002 		orr	r2, r2, #16
 673 000a 1A70     		strb	r2, [r3]
 310:.\Generated_Source\PSoC5/CyLib.c ****     CY_LIB_PM_STBY_CFG0_REG |= CY_LIB_PM_STBY_CFG0_IMO_EN;
 674              		.loc 1 310 0
 675 000c 1033     		adds	r3, r3, #16
ARM GAS  C:\Users\mitchell\AppData\Local\Temp\ccIjMaGi.s 			page 32


 676 000e 1A78     		ldrb	r2, [r3]	@ zero_extendqisi2
 677 0010 42F01002 		orr	r2, r2, #16
 678 0014 1A70     		strb	r2, [r3]
 312:.\Generated_Source\PSoC5/CyLib.c ****     if(0u != wait)
 679              		.loc 1 312 0
 680 0016 D8B1     		cbz	r0, .L65
 315:.\Generated_Source\PSoC5/CyLib.c ****         ilo100KhzEnable = CY_LIB_SLOWCLK_ILO_CR0_REG & CY_LIB_SLOWCLK_ILO_CR0_EN_100KHZ;
 681              		.loc 1 315 0
 682 0018 B03B     		subs	r3, r3, #176
 683 001a 1F78     		ldrb	r7, [r3]	@ zero_extendqisi2
 684 001c 07F00407 		and	r7, r7, #4
 685 0020 FFB2     		uxtb	r7, r7
 686              	.LVL40:
 316:.\Generated_Source\PSoC5/CyLib.c ****         pmFtwCfg0Reg = CY_LIB_PM_TW_CFG0_REG;
 687              		.loc 1 316 0
 688 0022 8033     		adds	r3, r3, #128
 689 0024 1E78     		ldrb	r6, [r3]	@ zero_extendqisi2
 690 0026 F6B2     		uxtb	r6, r6
 691              	.LVL41:
 317:.\Generated_Source\PSoC5/CyLib.c ****         pmFtwCfg2Reg = CY_LIB_PM_TW_CFG2_REG;
 692              		.loc 1 317 0
 693 0028 0233     		adds	r3, r3, #2
 694 002a 1D78     		ldrb	r5, [r3]	@ zero_extendqisi2
 695 002c EDB2     		uxtb	r5, r5
 696              	.LVL42:
 319:.\Generated_Source\PSoC5/CyLib.c ****         CyPmFtwSetInterval(CY_LIB_CLK_IMO_FTW_TIMEOUT);
 697              		.loc 1 319 0
 698 002e 0020     		movs	r0, #0
 699              	.LVL43:
 700 0030 FFF7FEFF 		bl	CyPmFtwSetInterval
 701              	.LVL44:
 321:.\Generated_Source\PSoC5/CyLib.c ****         while (0u == (CY_PM_FTW_INT & CyPmReadStatus(CY_PM_FTW_INT)))
 702              		.loc 1 321 0
 703 0034 0124     		movs	r4, #1
 704              	.L67:
 321:.\Generated_Source\PSoC5/CyLib.c ****         while (0u == (CY_PM_FTW_INT & CyPmReadStatus(CY_PM_FTW_INT)))
 705              		.loc 1 321 0 is_stmt 0 discriminator 1
 706 0036 2046     		mov	r0, r4
 707 0038 FFF7FEFF 		bl	CyPmReadStatus
 708              	.LVL45:
 709 003c 10F0010F 		tst	r0, #1
 710 0040 F9D0     		beq	.L67
 326:.\Generated_Source\PSoC5/CyLib.c ****         if(0u == ilo100KhzEnable)
 711              		.loc 1 326 0 is_stmt 1
 712 0042 0FB9     		cbnz	r7, .L68
 328:.\Generated_Source\PSoC5/CyLib.c ****             CyILO_Stop100K();
 713              		.loc 1 328 0
 714 0044 FFF7FEFF 		bl	CyILO_Stop100K
 715              	.LVL46:
 716              	.L68:
 331:.\Generated_Source\PSoC5/CyLib.c ****         CY_LIB_PM_TW_CFG0_REG = pmFtwCfg0Reg;
 717              		.loc 1 331 0
 718 0048 034B     		ldr	r3, .L70+4
 719 004a 1E70     		strb	r6, [r3]
 332:.\Generated_Source\PSoC5/CyLib.c ****         CY_LIB_PM_TW_CFG2_REG = pmFtwCfg2Reg;
 720              		.loc 1 332 0
 721 004c 0233     		adds	r3, r3, #2
ARM GAS  C:\Users\mitchell\AppData\Local\Temp\ccIjMaGi.s 			page 33


 722 004e 1D70     		strb	r5, [r3]
 723              	.LVL47:
 724              	.L65:
 725 0050 F8BD     		pop	{r3, r4, r5, r6, r7, pc}
 726              	.L71:
 727 0052 00BF     		.align	2
 728              	.L70:
 729 0054 A0430040 		.word	1073759136
 730 0058 80430040 		.word	1073759104
 731              		.cfi_endproc
 732              	.LFE4:
 733              		.size	CyIMO_Start, .-CyIMO_Start
 734              		.section	.text.CyILO_Enable33K,"ax",%progbits
 735              		.align	2
 736              		.global	CyILO_Enable33K
 737              		.thumb
 738              		.thumb_func
 739              		.type	CyILO_Enable33K, %function
 740              	CyILO_Enable33K:
 741              	.LFB21:
1051:.\Generated_Source\PSoC5/CyLib.c **** }
1052:.\Generated_Source\PSoC5/CyLib.c **** 
1053:.\Generated_Source\PSoC5/CyLib.c **** 
1054:.\Generated_Source\PSoC5/CyLib.c **** /*******************************************************************************
1055:.\Generated_Source\PSoC5/CyLib.c **** * Function Name: CyILO_Enable33K
1056:.\Generated_Source\PSoC5/CyLib.c **** ********************************************************************************
1057:.\Generated_Source\PSoC5/CyLib.c **** *
1058:.\Generated_Source\PSoC5/CyLib.c **** * Summary:
1059:.\Generated_Source\PSoC5/CyLib.c **** *  Enables the ILO 33 KHz divider.
1060:.\Generated_Source\PSoC5/CyLib.c **** *
1061:.\Generated_Source\PSoC5/CyLib.c **** *  Note that the 33 KHz clock is generated from the 100 KHz oscillator,
1062:.\Generated_Source\PSoC5/CyLib.c **** *  so it must also be running in order to generate the 33 KHz output.
1063:.\Generated_Source\PSoC5/CyLib.c **** *
1064:.\Generated_Source\PSoC5/CyLib.c **** * Parameters:
1065:.\Generated_Source\PSoC5/CyLib.c **** *  None
1066:.\Generated_Source\PSoC5/CyLib.c **** *
1067:.\Generated_Source\PSoC5/CyLib.c **** * Return:
1068:.\Generated_Source\PSoC5/CyLib.c **** *  None
1069:.\Generated_Source\PSoC5/CyLib.c **** *
1070:.\Generated_Source\PSoC5/CyLib.c **** *******************************************************************************/
1071:.\Generated_Source\PSoC5/CyLib.c **** void CyILO_Enable33K(void) 
1072:.\Generated_Source\PSoC5/CyLib.c **** {
 742              		.loc 1 1072 0
 743              		.cfi_startproc
 744              		@ args = 0, pretend = 0, frame = 0
 745              		@ frame_needed = 0, uses_anonymous_args = 0
 746              		@ link register save eliminated.
1073:.\Generated_Source\PSoC5/CyLib.c ****     /* Set bit 5 of ILO RS */
1074:.\Generated_Source\PSoC5/CyLib.c ****     CY_LIB_SLOWCLK_ILO_CR0_REG |= CY_LIB_SLOWCLK_ILO_CR0_EN_33KHZ;
 747              		.loc 1 1074 0
 748 0000 024B     		ldr	r3, .L73
 749 0002 1A78     		ldrb	r2, [r3]	@ zero_extendqisi2
 750 0004 42F02002 		orr	r2, r2, #32
 751 0008 1A70     		strb	r2, [r3]
 752 000a 7047     		bx	lr
 753              	.L74:
 754              		.align	2
ARM GAS  C:\Users\mitchell\AppData\Local\Temp\ccIjMaGi.s 			page 34


 755              	.L73:
 756 000c 00430040 		.word	1073758976
 757              		.cfi_endproc
 758              	.LFE21:
 759              		.size	CyILO_Enable33K, .-CyILO_Enable33K
 760              		.section	.text.CyILO_Disable33K,"ax",%progbits
 761              		.align	2
 762              		.global	CyILO_Disable33K
 763              		.thumb
 764              		.thumb_func
 765              		.type	CyILO_Disable33K, %function
 766              	CyILO_Disable33K:
 767              	.LFB22:
1075:.\Generated_Source\PSoC5/CyLib.c **** }
1076:.\Generated_Source\PSoC5/CyLib.c **** 
1077:.\Generated_Source\PSoC5/CyLib.c **** 
1078:.\Generated_Source\PSoC5/CyLib.c **** /*******************************************************************************
1079:.\Generated_Source\PSoC5/CyLib.c **** * Function Name: CyILO_Disable33K
1080:.\Generated_Source\PSoC5/CyLib.c **** ********************************************************************************
1081:.\Generated_Source\PSoC5/CyLib.c **** *
1082:.\Generated_Source\PSoC5/CyLib.c **** * Summary:
1083:.\Generated_Source\PSoC5/CyLib.c **** *  Disables the ILO 33 KHz divider.
1084:.\Generated_Source\PSoC5/CyLib.c **** *
1085:.\Generated_Source\PSoC5/CyLib.c **** *  Note that the 33 KHz clock is generated from the 100 KHz oscillator, but this
1086:.\Generated_Source\PSoC5/CyLib.c **** *  API does not disable the 100 KHz clock.
1087:.\Generated_Source\PSoC5/CyLib.c **** *
1088:.\Generated_Source\PSoC5/CyLib.c **** * Parameters:
1089:.\Generated_Source\PSoC5/CyLib.c **** *  None
1090:.\Generated_Source\PSoC5/CyLib.c **** *
1091:.\Generated_Source\PSoC5/CyLib.c **** * Return:
1092:.\Generated_Source\PSoC5/CyLib.c **** *  None
1093:.\Generated_Source\PSoC5/CyLib.c **** *
1094:.\Generated_Source\PSoC5/CyLib.c **** *******************************************************************************/
1095:.\Generated_Source\PSoC5/CyLib.c **** void CyILO_Disable33K(void) 
1096:.\Generated_Source\PSoC5/CyLib.c **** {
 768              		.loc 1 1096 0
 769              		.cfi_startproc
 770              		@ args = 0, pretend = 0, frame = 0
 771              		@ frame_needed = 0, uses_anonymous_args = 0
 772              		@ link register save eliminated.
1097:.\Generated_Source\PSoC5/CyLib.c ****     CY_LIB_SLOWCLK_ILO_CR0_REG &= ((uint8)(~CY_LIB_SLOWCLK_ILO_CR0_EN_33KHZ));
 773              		.loc 1 1097 0
 774 0000 024B     		ldr	r3, .L76
 775 0002 1A78     		ldrb	r2, [r3]	@ zero_extendqisi2
 776 0004 02F0DF02 		and	r2, r2, #223
 777 0008 1A70     		strb	r2, [r3]
 778 000a 7047     		bx	lr
 779              	.L77:
 780              		.align	2
 781              	.L76:
 782 000c 00430040 		.word	1073758976
 783              		.cfi_endproc
 784              	.LFE22:
 785              		.size	CyILO_Disable33K, .-CyILO_Disable33K
 786              		.section	.text.CyILO_SetSource,"ax",%progbits
 787              		.align	2
 788              		.global	CyILO_SetSource
ARM GAS  C:\Users\mitchell\AppData\Local\Temp\ccIjMaGi.s 			page 35


 789              		.thumb
 790              		.thumb_func
 791              		.type	CyILO_SetSource, %function
 792              	CyILO_SetSource:
 793              	.LFB23:
1098:.\Generated_Source\PSoC5/CyLib.c **** }
1099:.\Generated_Source\PSoC5/CyLib.c **** 
1100:.\Generated_Source\PSoC5/CyLib.c **** 
1101:.\Generated_Source\PSoC5/CyLib.c **** /*******************************************************************************
1102:.\Generated_Source\PSoC5/CyLib.c **** * Function Name: CyILO_SetSource
1103:.\Generated_Source\PSoC5/CyLib.c **** ********************************************************************************
1104:.\Generated_Source\PSoC5/CyLib.c **** *
1105:.\Generated_Source\PSoC5/CyLib.c **** * Summary:
1106:.\Generated_Source\PSoC5/CyLib.c **** *  Sets the source of the clock output from the ILO block.
1107:.\Generated_Source\PSoC5/CyLib.c **** *
1108:.\Generated_Source\PSoC5/CyLib.c **** * Parameters:
1109:.\Generated_Source\PSoC5/CyLib.c **** *  source: One of the three available ILO output sources
1110:.\Generated_Source\PSoC5/CyLib.c **** *       Value        Define                Source
1111:.\Generated_Source\PSoC5/CyLib.c **** *       0            CY_ILO_SOURCE_100K    ILO 100 KHz
1112:.\Generated_Source\PSoC5/CyLib.c **** *       1            CY_ILO_SOURCE_33K     ILO 33 KHz
1113:.\Generated_Source\PSoC5/CyLib.c **** *       2            CY_ILO_SOURCE_1K      ILO 1 KHz
1114:.\Generated_Source\PSoC5/CyLib.c **** *
1115:.\Generated_Source\PSoC5/CyLib.c **** * Return:
1116:.\Generated_Source\PSoC5/CyLib.c **** *  None
1117:.\Generated_Source\PSoC5/CyLib.c **** *
1118:.\Generated_Source\PSoC5/CyLib.c **** *******************************************************************************/
1119:.\Generated_Source\PSoC5/CyLib.c **** void CyILO_SetSource(uint8 source) 
1120:.\Generated_Source\PSoC5/CyLib.c **** {
 794              		.loc 1 1120 0
 795              		.cfi_startproc
 796              		@ args = 0, pretend = 0, frame = 0
 797              		@ frame_needed = 0, uses_anonymous_args = 0
 798              		@ link register save eliminated.
 799              	.LVL48:
1121:.\Generated_Source\PSoC5/CyLib.c ****     CY_LIB_CLKDIST_CR_REG = (CY_LIB_CLKDIST_CR_REG & CY_ILO_SOURCE_BITS_CLEAR) |
 800              		.loc 1 1121 0
 801 0000 4FF04023 		mov	r3, #1073758208
 802 0004 1A78     		ldrb	r2, [r3]	@ zero_extendqisi2
1122:.\Generated_Source\PSoC5/CyLib.c ****                     (((uint8) (source << 2u)) & ((uint8)(~CY_ILO_SOURCE_BITS_CLEAR)));
 803              		.loc 1 1122 0
 804 0006 8000     		lsls	r0, r0, #2
 805              	.LVL49:
1121:.\Generated_Source\PSoC5/CyLib.c ****     CY_LIB_CLKDIST_CR_REG = (CY_LIB_CLKDIST_CR_REG & CY_ILO_SOURCE_BITS_CLEAR) |
 806              		.loc 1 1121 0
 807 0008 02F0F302 		and	r2, r2, #243
 808 000c 00F00C00 		and	r0, r0, #12
 809 0010 0243     		orrs	r2, r2, r0
 810 0012 1A70     		strb	r2, [r3]
 811 0014 7047     		bx	lr
 812              		.cfi_endproc
 813              	.LFE23:
 814              		.size	CyILO_SetSource, .-CyILO_SetSource
 815 0016 00BF     		.section	.text.CyILO_SetPowerMode,"ax",%progbits
 816              		.align	2
 817              		.global	CyILO_SetPowerMode
 818              		.thumb
 819              		.thumb_func
ARM GAS  C:\Users\mitchell\AppData\Local\Temp\ccIjMaGi.s 			page 36


 820              		.type	CyILO_SetPowerMode, %function
 821              	CyILO_SetPowerMode:
 822              	.LFB24:
1123:.\Generated_Source\PSoC5/CyLib.c **** }
1124:.\Generated_Source\PSoC5/CyLib.c **** 
1125:.\Generated_Source\PSoC5/CyLib.c **** 
1126:.\Generated_Source\PSoC5/CyLib.c **** /*******************************************************************************
1127:.\Generated_Source\PSoC5/CyLib.c **** * Function Name: CyILO_SetPowerMode
1128:.\Generated_Source\PSoC5/CyLib.c **** ********************************************************************************
1129:.\Generated_Source\PSoC5/CyLib.c **** *
1130:.\Generated_Source\PSoC5/CyLib.c **** * Summary:
1131:.\Generated_Source\PSoC5/CyLib.c **** *  Sets the power mode used by the ILO during power down. Allows for lower power
1132:.\Generated_Source\PSoC5/CyLib.c **** *  down power usage resulting in a slower startup time.
1133:.\Generated_Source\PSoC5/CyLib.c **** *
1134:.\Generated_Source\PSoC5/CyLib.c **** * Parameters:
1135:.\Generated_Source\PSoC5/CyLib.c **** *  uint8 mode
1136:.\Generated_Source\PSoC5/CyLib.c **** *   CY_ILO_FAST_START - Faster start-up, internal bias left on when powered down
1137:.\Generated_Source\PSoC5/CyLib.c **** *   CY_ILO_SLOW_START - Slower start-up, internal bias off when powered down
1138:.\Generated_Source\PSoC5/CyLib.c **** *
1139:.\Generated_Source\PSoC5/CyLib.c **** * Return:
1140:.\Generated_Source\PSoC5/CyLib.c **** *   Prevous power mode state.
1141:.\Generated_Source\PSoC5/CyLib.c **** *
1142:.\Generated_Source\PSoC5/CyLib.c **** *******************************************************************************/
1143:.\Generated_Source\PSoC5/CyLib.c **** uint8 CyILO_SetPowerMode(uint8 mode) 
1144:.\Generated_Source\PSoC5/CyLib.c **** {
 823              		.loc 1 1144 0
 824              		.cfi_startproc
 825              		@ args = 0, pretend = 0, frame = 0
 826              		@ frame_needed = 0, uses_anonymous_args = 0
 827              		@ link register save eliminated.
 828              	.LVL50:
1145:.\Generated_Source\PSoC5/CyLib.c ****     uint8 state;
1146:.\Generated_Source\PSoC5/CyLib.c **** 
1147:.\Generated_Source\PSoC5/CyLib.c ****     /* Get current state. */
1148:.\Generated_Source\PSoC5/CyLib.c ****     state = CY_LIB_SLOWCLK_ILO_CR0_REG;
 829              		.loc 1 1148 0
 830 0000 074B     		ldr	r3, .L82
 831 0002 1B78     		ldrb	r3, [r3]	@ zero_extendqisi2
 832 0004 DBB2     		uxtb	r3, r3
 833              	.LVL51:
1149:.\Generated_Source\PSoC5/CyLib.c **** 
1150:.\Generated_Source\PSoC5/CyLib.c ****     /* Set the oscillator power mode. */
1151:.\Generated_Source\PSoC5/CyLib.c ****     if(mode != CY_ILO_FAST_START)
 834              		.loc 1 1151 0
 835 0006 20B1     		cbz	r0, .L80
1152:.\Generated_Source\PSoC5/CyLib.c ****     {
1153:.\Generated_Source\PSoC5/CyLib.c ****         CY_LIB_SLOWCLK_ILO_CR0_REG = (state | CY_ILO_CONTROL_PD_MODE);
 836              		.loc 1 1153 0
 837 0008 43F01001 		orr	r1, r3, #16
 838 000c 044A     		ldr	r2, .L82
 839 000e 1170     		strb	r1, [r2]
 840 0010 03E0     		b	.L81
 841              	.L80:
1154:.\Generated_Source\PSoC5/CyLib.c ****     }
1155:.\Generated_Source\PSoC5/CyLib.c ****     else
1156:.\Generated_Source\PSoC5/CyLib.c ****     {
1157:.\Generated_Source\PSoC5/CyLib.c ****         CY_LIB_SLOWCLK_ILO_CR0_REG = (state & ((uint8)(~CY_ILO_CONTROL_PD_MODE)));
ARM GAS  C:\Users\mitchell\AppData\Local\Temp\ccIjMaGi.s 			page 37


 842              		.loc 1 1157 0
 843 0012 03F0EF01 		and	r1, r3, #239
 844 0016 024A     		ldr	r2, .L82
 845 0018 1170     		strb	r1, [r2]
 846              	.L81:
1158:.\Generated_Source\PSoC5/CyLib.c ****     }
1159:.\Generated_Source\PSoC5/CyLib.c **** 
1160:.\Generated_Source\PSoC5/CyLib.c ****     /* Return old mode. */
1161:.\Generated_Source\PSoC5/CyLib.c ****     return ((state & CY_ILO_CONTROL_PD_MODE) >> CY_ILO_CONTROL_PD_POSITION);
1162:.\Generated_Source\PSoC5/CyLib.c **** }
 847              		.loc 1 1162 0
 848 001a C3F30010 		ubfx	r0, r3, #4, #1
 849              	.LVL52:
 850 001e 7047     		bx	lr
 851              	.L83:
 852              		.align	2
 853              	.L82:
 854 0020 00430040 		.word	1073758976
 855              		.cfi_endproc
 856              	.LFE24:
 857              		.size	CyILO_SetPowerMode, .-CyILO_SetPowerMode
 858              		.section	.text.CyXTAL_32KHZ_Stop,"ax",%progbits
 859              		.align	2
 860              		.global	CyXTAL_32KHZ_Stop
 861              		.thumb
 862              		.thumb_func
 863              		.type	CyXTAL_32KHZ_Stop, %function
 864              	CyXTAL_32KHZ_Stop:
 865              	.LFB26:
1163:.\Generated_Source\PSoC5/CyLib.c **** 
1164:.\Generated_Source\PSoC5/CyLib.c **** 
1165:.\Generated_Source\PSoC5/CyLib.c **** /*******************************************************************************
1166:.\Generated_Source\PSoC5/CyLib.c **** * Function Name: CyXTAL_32KHZ_Start
1167:.\Generated_Source\PSoC5/CyLib.c **** ********************************************************************************
1168:.\Generated_Source\PSoC5/CyLib.c **** *
1169:.\Generated_Source\PSoC5/CyLib.c **** * Summary:
1170:.\Generated_Source\PSoC5/CyLib.c **** *  Enables the 32 KHz Crystal Oscillator.
1171:.\Generated_Source\PSoC5/CyLib.c **** *
1172:.\Generated_Source\PSoC5/CyLib.c **** * Parameters:
1173:.\Generated_Source\PSoC5/CyLib.c **** *  None
1174:.\Generated_Source\PSoC5/CyLib.c **** *
1175:.\Generated_Source\PSoC5/CyLib.c **** * Return:
1176:.\Generated_Source\PSoC5/CyLib.c **** *  None
1177:.\Generated_Source\PSoC5/CyLib.c **** *
1178:.\Generated_Source\PSoC5/CyLib.c **** *******************************************************************************/
1179:.\Generated_Source\PSoC5/CyLib.c **** void CyXTAL_32KHZ_Start(void) 
1180:.\Generated_Source\PSoC5/CyLib.c **** {
1181:.\Generated_Source\PSoC5/CyLib.c ****     volatile uint16 i;
1182:.\Generated_Source\PSoC5/CyLib.c **** 
1183:.\Generated_Source\PSoC5/CyLib.c ****     CY_CLK_XTAL32_TST_REG = CY_CLK_XTAL32_TST_DEFAULT;
1184:.\Generated_Source\PSoC5/CyLib.c ****     CY_CLK_XTAL32_TR_REG  = CY_CLK_XTAL32_TR_STARTUP;
1185:.\Generated_Source\PSoC5/CyLib.c ****     CY_CLK_XTAL32_CFG_REG = (CY_CLK_XTAL32_CFG_REG & ((uint8)(~CY_CLK_XTAL32_CFG_LP_MASK))) |
1186:.\Generated_Source\PSoC5/CyLib.c ****                                 CY_CLK_XTAL32_CFG_LP_DEFAULT;
1187:.\Generated_Source\PSoC5/CyLib.c **** 
1188:.\Generated_Source\PSoC5/CyLib.c ****     #if(CY_PSOC3)
1189:.\Generated_Source\PSoC5/CyLib.c ****         CY_CLK_XTAL32_CR_REG |= CY_CLK_XTAL32_CR_PDBEN;
1190:.\Generated_Source\PSoC5/CyLib.c ****     #endif  /* (CY_PSOC3) */
ARM GAS  C:\Users\mitchell\AppData\Local\Temp\ccIjMaGi.s 			page 38


1191:.\Generated_Source\PSoC5/CyLib.c **** 
1192:.\Generated_Source\PSoC5/CyLib.c ****     /* Enable operation of 32K Crystal Oscillator */
1193:.\Generated_Source\PSoC5/CyLib.c ****     CY_CLK_XTAL32_CR_REG |= CY_CLK_XTAL32_CR_EN;
1194:.\Generated_Source\PSoC5/CyLib.c **** 
1195:.\Generated_Source\PSoC5/CyLib.c ****     for (i = 1000u; i > 0u; i--)
1196:.\Generated_Source\PSoC5/CyLib.c ****     {
1197:.\Generated_Source\PSoC5/CyLib.c ****         if(0u != (CyXTAL_32KHZ_ReadStatus() & CY_XTAL32K_ANA_STAT))
1198:.\Generated_Source\PSoC5/CyLib.c ****         {
1199:.\Generated_Source\PSoC5/CyLib.c ****             /* Ready - switch to high power mode */
1200:.\Generated_Source\PSoC5/CyLib.c ****             (void) CyXTAL_32KHZ_SetPowerMode(0u);
1201:.\Generated_Source\PSoC5/CyLib.c **** 
1202:.\Generated_Source\PSoC5/CyLib.c ****             break;
1203:.\Generated_Source\PSoC5/CyLib.c ****         }
1204:.\Generated_Source\PSoC5/CyLib.c ****         CyDelayUs(1u);
1205:.\Generated_Source\PSoC5/CyLib.c ****     }
1206:.\Generated_Source\PSoC5/CyLib.c **** }
1207:.\Generated_Source\PSoC5/CyLib.c **** 
1208:.\Generated_Source\PSoC5/CyLib.c **** 
1209:.\Generated_Source\PSoC5/CyLib.c **** /*******************************************************************************
1210:.\Generated_Source\PSoC5/CyLib.c **** * Function Name: CyXTAL_32KHZ_Stop
1211:.\Generated_Source\PSoC5/CyLib.c **** ********************************************************************************
1212:.\Generated_Source\PSoC5/CyLib.c **** *
1213:.\Generated_Source\PSoC5/CyLib.c **** * Summary:
1214:.\Generated_Source\PSoC5/CyLib.c **** *  Disables the 32KHz Crystal Oscillator.
1215:.\Generated_Source\PSoC5/CyLib.c **** *
1216:.\Generated_Source\PSoC5/CyLib.c **** * Parameters:
1217:.\Generated_Source\PSoC5/CyLib.c **** *  None
1218:.\Generated_Source\PSoC5/CyLib.c **** *
1219:.\Generated_Source\PSoC5/CyLib.c **** * Return:
1220:.\Generated_Source\PSoC5/CyLib.c **** *  None
1221:.\Generated_Source\PSoC5/CyLib.c **** *
1222:.\Generated_Source\PSoC5/CyLib.c **** *******************************************************************************/
1223:.\Generated_Source\PSoC5/CyLib.c **** void CyXTAL_32KHZ_Stop(void) 
1224:.\Generated_Source\PSoC5/CyLib.c **** {
 866              		.loc 1 1224 0
 867              		.cfi_startproc
 868              		@ args = 0, pretend = 0, frame = 0
 869              		@ frame_needed = 0, uses_anonymous_args = 0
 870              		@ link register save eliminated.
1225:.\Generated_Source\PSoC5/CyLib.c ****     CY_CLK_XTAL32_TST_REG  = CY_CLK_XTAL32_TST_DEFAULT;
 871              		.loc 1 1225 0
 872 0000 F322     		movs	r2, #243
 873 0002 0A4B     		ldr	r3, .L85
 874 0004 1A70     		strb	r2, [r3]
1226:.\Generated_Source\PSoC5/CyLib.c ****     CY_CLK_XTAL32_TR_REG   = CY_CLK_XTAL32_TR_POWERDOWN;
 875              		.loc 1 1226 0
 876 0006 0022     		movs	r2, #0
 877 0008 03F28E33 		addw	r3, r3, #910
 878 000c 1A70     		strb	r2, [r3]
1227:.\Generated_Source\PSoC5/CyLib.c ****     CY_CLK_XTAL32_CFG_REG = (CY_CLK_XTAL32_CFG_REG & ((uint8)(~CY_CLK_XTAL32_CFG_LP_MASK))) |
 879              		.loc 1 1227 0
 880 000e A3F28F33 		subw	r3, r3, #911
 881 0012 1A78     		ldrb	r2, [r3]	@ zero_extendqisi2
 882 0014 02F0F302 		and	r2, r2, #243
 883 0018 42F00402 		orr	r2, r2, #4
 884 001c 1A70     		strb	r2, [r3]
1228:.\Generated_Source\PSoC5/CyLib.c ****                              CY_CLK_XTAL32_CFG_LP_DEFAULT;
ARM GAS  C:\Users\mitchell\AppData\Local\Temp\ccIjMaGi.s 			page 39


1229:.\Generated_Source\PSoC5/CyLib.c ****     CY_CLK_XTAL32_CR_REG &= ((uint8)(~(CY_CLK_XTAL32_CR_EN | CY_CLK_XTAL32_CR_LPM)));
 885              		.loc 1 1229 0
 886 001e 013B     		subs	r3, r3, #1
 887 0020 1A78     		ldrb	r2, [r3]	@ zero_extendqisi2
 888 0022 02F0FC02 		and	r2, r2, #252
 889 0026 1A70     		strb	r2, [r3]
 890 0028 7047     		bx	lr
 891              	.L86:
 892 002a 00BF     		.align	2
 893              	.L85:
 894 002c 0A430040 		.word	1073758986
 895              		.cfi_endproc
 896              	.LFE26:
 897              		.size	CyXTAL_32KHZ_Stop, .-CyXTAL_32KHZ_Stop
 898              		.section	.text.CyXTAL_32KHZ_ReadStatus,"ax",%progbits
 899              		.align	2
 900              		.global	CyXTAL_32KHZ_ReadStatus
 901              		.thumb
 902              		.thumb_func
 903              		.type	CyXTAL_32KHZ_ReadStatus, %function
 904              	CyXTAL_32KHZ_ReadStatus:
 905              	.LFB27:
1230:.\Generated_Source\PSoC5/CyLib.c **** 
1231:.\Generated_Source\PSoC5/CyLib.c ****     #if(CY_PSOC3)
1232:.\Generated_Source\PSoC5/CyLib.c ****         CY_CLK_XTAL32_CR_REG &= ((uint8)(~CY_CLK_XTAL32_CR_PDBEN));
1233:.\Generated_Source\PSoC5/CyLib.c ****     #endif  /* (CY_PSOC3) */
1234:.\Generated_Source\PSoC5/CyLib.c **** }
1235:.\Generated_Source\PSoC5/CyLib.c **** 
1236:.\Generated_Source\PSoC5/CyLib.c **** 
1237:.\Generated_Source\PSoC5/CyLib.c **** /*******************************************************************************
1238:.\Generated_Source\PSoC5/CyLib.c **** * Function Name: CyXTAL_32KHZ_ReadStatus
1239:.\Generated_Source\PSoC5/CyLib.c **** ********************************************************************************
1240:.\Generated_Source\PSoC5/CyLib.c **** *
1241:.\Generated_Source\PSoC5/CyLib.c **** * Summary:
1242:.\Generated_Source\PSoC5/CyLib.c **** *  Returns status of the 32 KHz oscillator.
1243:.\Generated_Source\PSoC5/CyLib.c **** *
1244:.\Generated_Source\PSoC5/CyLib.c **** * Parameters:
1245:.\Generated_Source\PSoC5/CyLib.c **** *  None
1246:.\Generated_Source\PSoC5/CyLib.c **** *
1247:.\Generated_Source\PSoC5/CyLib.c **** * Return:
1248:.\Generated_Source\PSoC5/CyLib.c **** *  Value     Define                    Source
1249:.\Generated_Source\PSoC5/CyLib.c **** *  20        CY_XTAL32K_ANA_STAT       Analog measurement
1250:.\Generated_Source\PSoC5/CyLib.c **** *                                       1: Stable
1251:.\Generated_Source\PSoC5/CyLib.c **** *                                       0: Not stable
1252:.\Generated_Source\PSoC5/CyLib.c **** *
1253:.\Generated_Source\PSoC5/CyLib.c **** *******************************************************************************/
1254:.\Generated_Source\PSoC5/CyLib.c **** uint8 CyXTAL_32KHZ_ReadStatus(void) 
1255:.\Generated_Source\PSoC5/CyLib.c **** {
 906              		.loc 1 1255 0
 907              		.cfi_startproc
 908              		@ args = 0, pretend = 0, frame = 0
 909              		@ frame_needed = 0, uses_anonymous_args = 0
 910              		@ link register save eliminated.
1256:.\Generated_Source\PSoC5/CyLib.c ****     return(CY_CLK_XTAL32_CR_REG & CY_XTAL32K_ANA_STAT);
 911              		.loc 1 1256 0
 912 0000 024B     		ldr	r3, .L88
 913 0002 1878     		ldrb	r0, [r3]	@ zero_extendqisi2
ARM GAS  C:\Users\mitchell\AppData\Local\Temp\ccIjMaGi.s 			page 40


1257:.\Generated_Source\PSoC5/CyLib.c **** }
 914              		.loc 1 1257 0
 915 0004 00F02000 		and	r0, r0, #32
 916 0008 7047     		bx	lr
 917              	.L89:
 918 000a 00BF     		.align	2
 919              	.L88:
 920 000c 08430040 		.word	1073758984
 921              		.cfi_endproc
 922              	.LFE27:
 923              		.size	CyXTAL_32KHZ_ReadStatus, .-CyXTAL_32KHZ_ReadStatus
 924              		.section	.text.CyXTAL_Start,"ax",%progbits
 925              		.align	2
 926              		.global	CyXTAL_Start
 927              		.thumb
 928              		.thumb_func
 929              		.type	CyXTAL_Start, %function
 930              	CyXTAL_Start:
 931              	.LFB29:
1258:.\Generated_Source\PSoC5/CyLib.c **** 
1259:.\Generated_Source\PSoC5/CyLib.c **** 
1260:.\Generated_Source\PSoC5/CyLib.c **** /*******************************************************************************
1261:.\Generated_Source\PSoC5/CyLib.c **** * Function Name: CyXTAL_32KHZ_SetPowerMode
1262:.\Generated_Source\PSoC5/CyLib.c **** ********************************************************************************
1263:.\Generated_Source\PSoC5/CyLib.c **** *
1264:.\Generated_Source\PSoC5/CyLib.c **** * Summary:
1265:.\Generated_Source\PSoC5/CyLib.c **** *  Sets the power mode for the 32 KHz oscillator used during the sleep mode.
1266:.\Generated_Source\PSoC5/CyLib.c **** *  Allows for lower power during sleep when there are fewer sources of noise.
1267:.\Generated_Source\PSoC5/CyLib.c **** *  During the active mode the oscillator is always run in the high power mode.
1268:.\Generated_Source\PSoC5/CyLib.c **** *
1269:.\Generated_Source\PSoC5/CyLib.c **** * Parameters:
1270:.\Generated_Source\PSoC5/CyLib.c **** *  uint8 mode
1271:.\Generated_Source\PSoC5/CyLib.c **** *       0: High power mode
1272:.\Generated_Source\PSoC5/CyLib.c **** *       1: Low power mode during sleep
1273:.\Generated_Source\PSoC5/CyLib.c **** *
1274:.\Generated_Source\PSoC5/CyLib.c **** * Return:
1275:.\Generated_Source\PSoC5/CyLib.c **** *  Previous power mode.
1276:.\Generated_Source\PSoC5/CyLib.c **** *
1277:.\Generated_Source\PSoC5/CyLib.c **** *******************************************************************************/
1278:.\Generated_Source\PSoC5/CyLib.c **** uint8 CyXTAL_32KHZ_SetPowerMode(uint8 mode) 
1279:.\Generated_Source\PSoC5/CyLib.c **** {
1280:.\Generated_Source\PSoC5/CyLib.c ****     uint8 state = (0u != (CY_CLK_XTAL32_CR_REG & CY_CLK_XTAL32_CR_LPM)) ? 1u : 0u;
1281:.\Generated_Source\PSoC5/CyLib.c **** 
1282:.\Generated_Source\PSoC5/CyLib.c ****     CY_CLK_XTAL32_TST_REG = CY_CLK_XTAL32_TST_DEFAULT;
1283:.\Generated_Source\PSoC5/CyLib.c **** 
1284:.\Generated_Source\PSoC5/CyLib.c ****     if(1u == mode)
1285:.\Generated_Source\PSoC5/CyLib.c ****     {
1286:.\Generated_Source\PSoC5/CyLib.c ****         /* Low power mode during Sleep */
1287:.\Generated_Source\PSoC5/CyLib.c ****         CY_CLK_XTAL32_TR_REG  = CY_CLK_XTAL32_TR_LOW_POWER;
1288:.\Generated_Source\PSoC5/CyLib.c ****         CyDelayUs(10u);
1289:.\Generated_Source\PSoC5/CyLib.c ****         CY_CLK_XTAL32_CFG_REG = (CY_CLK_XTAL32_CFG_REG & ((uint8)(~CY_CLK_XTAL32_CFG_LP_MASK))) |
1290:.\Generated_Source\PSoC5/CyLib.c ****                                 CY_CLK_XTAL32_CFG_LP_LOWPOWER;
1291:.\Generated_Source\PSoC5/CyLib.c ****         CyDelayUs(20u);
1292:.\Generated_Source\PSoC5/CyLib.c ****         CY_CLK_XTAL32_CR_REG |= CY_CLK_XTAL32_CR_LPM;
1293:.\Generated_Source\PSoC5/CyLib.c ****     }
1294:.\Generated_Source\PSoC5/CyLib.c ****     else
1295:.\Generated_Source\PSoC5/CyLib.c ****     {
ARM GAS  C:\Users\mitchell\AppData\Local\Temp\ccIjMaGi.s 			page 41


1296:.\Generated_Source\PSoC5/CyLib.c ****         /* High power mode */
1297:.\Generated_Source\PSoC5/CyLib.c ****         CY_CLK_XTAL32_TR_REG  = CY_CLK_XTAL32_TR_HIGH_POWER;
1298:.\Generated_Source\PSoC5/CyLib.c ****         CyDelayUs(10u);
1299:.\Generated_Source\PSoC5/CyLib.c ****         CY_CLK_XTAL32_CFG_REG = (CY_CLK_XTAL32_CFG_REG & ((uint8)(~CY_CLK_XTAL32_CFG_LP_MASK))) |
1300:.\Generated_Source\PSoC5/CyLib.c ****                                 CY_CLK_XTAL32_CFG_LP_DEFAULT;
1301:.\Generated_Source\PSoC5/CyLib.c ****         CY_CLK_XTAL32_CR_REG &= ((uint8)(~CY_CLK_XTAL32_CR_LPM));
1302:.\Generated_Source\PSoC5/CyLib.c ****     }
1303:.\Generated_Source\PSoC5/CyLib.c **** 
1304:.\Generated_Source\PSoC5/CyLib.c ****     return(state);
1305:.\Generated_Source\PSoC5/CyLib.c **** }
1306:.\Generated_Source\PSoC5/CyLib.c **** 
1307:.\Generated_Source\PSoC5/CyLib.c **** 
1308:.\Generated_Source\PSoC5/CyLib.c **** /*******************************************************************************
1309:.\Generated_Source\PSoC5/CyLib.c **** * Function Name: CyXTAL_Start
1310:.\Generated_Source\PSoC5/CyLib.c **** ********************************************************************************
1311:.\Generated_Source\PSoC5/CyLib.c **** *
1312:.\Generated_Source\PSoC5/CyLib.c **** * Summary:
1313:.\Generated_Source\PSoC5/CyLib.c **** *  Enables the megahertz crystal.
1314:.\Generated_Source\PSoC5/CyLib.c **** *
1315:.\Generated_Source\PSoC5/CyLib.c **** *  PSoC 3:
1316:.\Generated_Source\PSoC5/CyLib.c **** *  Waits until the XERR bit is low (no error) for a millisecond or until the
1317:.\Generated_Source\PSoC5/CyLib.c **** *  number of milliseconds specified by the wait parameter has expired.
1318:.\Generated_Source\PSoC5/CyLib.c **** *
1319:.\Generated_Source\PSoC5/CyLib.c **** * Parameters:
1320:.\Generated_Source\PSoC5/CyLib.c **** *   wait: Valid range [0-255].
1321:.\Generated_Source\PSoC5/CyLib.c **** *   This is the timeout value in milliseconds.
1322:.\Generated_Source\PSoC5/CyLib.c **** *   The appropriate value is crystal specific.
1323:.\Generated_Source\PSoC5/CyLib.c **** *
1324:.\Generated_Source\PSoC5/CyLib.c **** * Return:
1325:.\Generated_Source\PSoC5/CyLib.c **** *   CYRET_SUCCESS - Completed successfully
1326:.\Generated_Source\PSoC5/CyLib.c **** *   CYRET_TIMEOUT - Timeout occurred without detecting a low value on XERR.
1327:.\Generated_Source\PSoC5/CyLib.c **** *
1328:.\Generated_Source\PSoC5/CyLib.c **** * Side Effects and Restrictions:
1329:.\Generated_Source\PSoC5/CyLib.c **** *  If wait is enabled (non-zero wait). Uses the Fast Timewheel to time the wait.
1330:.\Generated_Source\PSoC5/CyLib.c **** *  Any other use of the Fast Timewheel (FTW) will be stopped during the period
1331:.\Generated_Source\PSoC5/CyLib.c **** *  of this function and then restored.
1332:.\Generated_Source\PSoC5/CyLib.c **** *
1333:.\Generated_Source\PSoC5/CyLib.c **** *  Uses the 100KHz ILO.  If not enabled, this function will enable the 100KHz
1334:.\Generated_Source\PSoC5/CyLib.c **** *  ILO for the period of this function. No changes to the setup of the ILO,
1335:.\Generated_Source\PSoC5/CyLib.c **** *  Fast Timewheel, Central Timewheel or Once Per Second interrupt may be made
1336:.\Generated_Source\PSoC5/CyLib.c **** *  by interrupt routines during the period of this function.
1337:.\Generated_Source\PSoC5/CyLib.c **** *
1338:.\Generated_Source\PSoC5/CyLib.c **** *  The current operation of the ILO, Central Timewheel and Once Per Second
1339:.\Generated_Source\PSoC5/CyLib.c **** *  interrupt are maintained during the operation of this function provided the
1340:.\Generated_Source\PSoC5/CyLib.c **** *  reading of the Power Manager Interrupt Status Register is only done using the
1341:.\Generated_Source\PSoC5/CyLib.c **** *  CyPmReadStatus() function.
1342:.\Generated_Source\PSoC5/CyLib.c **** *
1343:.\Generated_Source\PSoC5/CyLib.c **** *******************************************************************************/
1344:.\Generated_Source\PSoC5/CyLib.c **** cystatus CyXTAL_Start(uint8 wait) 
1345:.\Generated_Source\PSoC5/CyLib.c **** {
 932              		.loc 1 1345 0
 933              		.cfi_startproc
 934              		@ args = 0, pretend = 0, frame = 8
 935              		@ frame_needed = 0, uses_anonymous_args = 0
 936              	.LVL53:
 937 0000 2DE9F041 		push	{r4, r5, r6, r7, r8, lr}
 938              		.cfi_def_cfa_offset 24
ARM GAS  C:\Users\mitchell\AppData\Local\Temp\ccIjMaGi.s 			page 42


 939              		.cfi_offset 4, -24
 940              		.cfi_offset 5, -20
 941              		.cfi_offset 6, -16
 942              		.cfi_offset 7, -12
 943              		.cfi_offset 8, -8
 944              		.cfi_offset 14, -4
 945 0004 82B0     		sub	sp, sp, #8
 946              		.cfi_def_cfa_offset 32
 947              	.LVL54:
1346:.\Generated_Source\PSoC5/CyLib.c ****     cystatus status = CYRET_SUCCESS;
1347:.\Generated_Source\PSoC5/CyLib.c ****     volatile uint8  timeout = wait;
 948              		.loc 1 1347 0
 949 0006 8DF80700 		strb	r0, [sp, #7]
1348:.\Generated_Source\PSoC5/CyLib.c ****     volatile uint8 count;
1349:.\Generated_Source\PSoC5/CyLib.c ****     uint8 iloEnableState;
1350:.\Generated_Source\PSoC5/CyLib.c ****     uint8 pmTwCfg0Tmp;
1351:.\Generated_Source\PSoC5/CyLib.c ****     uint8 pmTwCfg2Tmp;
1352:.\Generated_Source\PSoC5/CyLib.c **** 
1353:.\Generated_Source\PSoC5/CyLib.c **** 
1354:.\Generated_Source\PSoC5/CyLib.c ****     /* Enables MHz crystal oscillator circuit  */
1355:.\Generated_Source\PSoC5/CyLib.c ****     CY_CLK_XMHZ_CSR_REG |= CY_CLK_XMHZ_CSR_ENABLE;
 950              		.loc 1 1355 0
 951 000a 274B     		ldr	r3, .L102
 952 000c 1A78     		ldrb	r2, [r3]	@ zero_extendqisi2
 953 000e 42F00102 		orr	r2, r2, #1
 954 0012 1A70     		strb	r2, [r3]
1356:.\Generated_Source\PSoC5/CyLib.c **** 
1357:.\Generated_Source\PSoC5/CyLib.c **** 
1358:.\Generated_Source\PSoC5/CyLib.c ****     if(wait > 0u)
 955              		.loc 1 1358 0
 956 0014 0028     		cmp	r0, #0
 957 0016 42D0     		beq	.L98
1359:.\Generated_Source\PSoC5/CyLib.c ****     {
1360:.\Generated_Source\PSoC5/CyLib.c ****         /* Save 100 KHz ILO, FTW interval, enable and interrupt enable */
1361:.\Generated_Source\PSoC5/CyLib.c ****         iloEnableState = CY_LIB_SLOWCLK_ILO_CR0_REG;
 958              		.loc 1 1361 0
 959 0018 F033     		adds	r3, r3, #240
 960 001a 93F80080 		ldrb	r8, [r3]	@ zero_extendqisi2
 961 001e 5FFA88F8 		uxtb	r8, r8
 962              	.LVL55:
1362:.\Generated_Source\PSoC5/CyLib.c ****         pmTwCfg0Tmp = CY_LIB_PM_TW_CFG0_REG;
 963              		.loc 1 1362 0
 964 0022 8033     		adds	r3, r3, #128
 965 0024 1F78     		ldrb	r7, [r3]	@ zero_extendqisi2
 966 0026 FFB2     		uxtb	r7, r7
 967              	.LVL56:
1363:.\Generated_Source\PSoC5/CyLib.c ****         pmTwCfg2Tmp = CY_LIB_PM_TW_CFG2_REG;
 968              		.loc 1 1363 0
 969 0028 0233     		adds	r3, r3, #2
 970 002a 1E78     		ldrb	r6, [r3]	@ zero_extendqisi2
 971 002c F6B2     		uxtb	r6, r6
 972              	.LVL57:
1364:.\Generated_Source\PSoC5/CyLib.c **** 
1365:.\Generated_Source\PSoC5/CyLib.c ****         /* Set 250 us interval */
1366:.\Generated_Source\PSoC5/CyLib.c ****         CyPmFtwSetInterval(CY_CLK_XMHZ_FTW_INTERVAL);
 973              		.loc 1 1366 0
 974 002e 1820     		movs	r0, #24
ARM GAS  C:\Users\mitchell\AppData\Local\Temp\ccIjMaGi.s 			page 43


 975              	.LVL58:
 976 0030 FFF7FEFF 		bl	CyPmFtwSetInterval
 977              	.LVL59:
1367:.\Generated_Source\PSoC5/CyLib.c ****         status = CYRET_TIMEOUT;
1368:.\Generated_Source\PSoC5/CyLib.c **** 
1369:.\Generated_Source\PSoC5/CyLib.c **** 
1370:.\Generated_Source\PSoC5/CyLib.c ****         for( ; timeout > 0u; timeout--)
1371:.\Generated_Source\PSoC5/CyLib.c ****         {
1372:.\Generated_Source\PSoC5/CyLib.c ****             /* Read XERR bit to clear it */
1373:.\Generated_Source\PSoC5/CyLib.c ****             (void) CY_CLK_XMHZ_CSR_REG;
 978              		.loc 1 1373 0
 979 0034 1C4D     		ldr	r5, .L102
1374:.\Generated_Source\PSoC5/CyLib.c **** 
1375:.\Generated_Source\PSoC5/CyLib.c ****             /* Wait for 1 millisecond - 4 x 250 us */
1376:.\Generated_Source\PSoC5/CyLib.c ****             for(count = 4u; count > 0u; count--)
1377:.\Generated_Source\PSoC5/CyLib.c ****             {
1378:.\Generated_Source\PSoC5/CyLib.c ****                 while(0u == (CY_PM_FTW_INT & CyPmReadStatus(CY_PM_FTW_INT)))
 980              		.loc 1 1378 0
 981 0036 0124     		movs	r4, #1
1370:.\Generated_Source\PSoC5/CyLib.c ****         for( ; timeout > 0u; timeout--)
 982              		.loc 1 1370 0
 983 0038 1FE0     		b	.L92
 984              	.L96:
1373:.\Generated_Source\PSoC5/CyLib.c ****             (void) CY_CLK_XMHZ_CSR_REG;
 985              		.loc 1 1373 0
 986 003a 2B78     		ldrb	r3, [r5]	@ zero_extendqisi2
1376:.\Generated_Source\PSoC5/CyLib.c ****             for(count = 4u; count > 0u; count--)
 987              		.loc 1 1376 0
 988 003c 0423     		movs	r3, #4
 989 003e 8DF80630 		strb	r3, [sp, #6]
 990 0042 0BE0     		b	.L93
 991              	.L100:
 992              		.loc 1 1378 0 discriminator 1
 993 0044 2046     		mov	r0, r4
 994 0046 FFF7FEFF 		bl	CyPmReadStatus
 995              	.LVL60:
 996 004a 10F0010F 		tst	r0, #1
 997 004e F9D0     		beq	.L100
1376:.\Generated_Source\PSoC5/CyLib.c ****             for(count = 4u; count > 0u; count--)
 998              		.loc 1 1376 0
 999 0050 9DF80630 		ldrb	r3, [sp, #6]	@ zero_extendqisi2
 1000 0054 013B     		subs	r3, r3, #1
 1001 0056 DBB2     		uxtb	r3, r3
 1002 0058 8DF80630 		strb	r3, [sp, #6]
 1003              	.L93:
1376:.\Generated_Source\PSoC5/CyLib.c ****             for(count = 4u; count > 0u; count--)
 1004              		.loc 1 1376 0 is_stmt 0 discriminator 1
 1005 005c 9DF80630 		ldrb	r3, [sp, #6]	@ zero_extendqisi2
 1006 0060 13F0FF0F 		tst	r3, #255
 1007 0064 EED1     		bne	.L100
1379:.\Generated_Source\PSoC5/CyLib.c ****                 {
1380:.\Generated_Source\PSoC5/CyLib.c ****                     /* Wait for FTW interrupt event */
1381:.\Generated_Source\PSoC5/CyLib.c ****                 }
1382:.\Generated_Source\PSoC5/CyLib.c ****             }
1383:.\Generated_Source\PSoC5/CyLib.c **** 
1384:.\Generated_Source\PSoC5/CyLib.c **** 
1385:.\Generated_Source\PSoC5/CyLib.c ****             /*******************************************************************
ARM GAS  C:\Users\mitchell\AppData\Local\Temp\ccIjMaGi.s 			page 44


1386:.\Generated_Source\PSoC5/CyLib.c ****             * High output indicates an oscillator failure.
1387:.\Generated_Source\PSoC5/CyLib.c ****             * Only can be used after a start-up interval (1 ms) is completed.
1388:.\Generated_Source\PSoC5/CyLib.c ****             *******************************************************************/
1389:.\Generated_Source\PSoC5/CyLib.c ****             if(0u == (CY_CLK_XMHZ_CSR_REG & CY_CLK_XMHZ_CSR_XERR))
 1008              		.loc 1 1389 0 is_stmt 1
 1009 0066 2B78     		ldrb	r3, [r5]	@ zero_extendqisi2
 1010 0068 13F0800F 		tst	r3, #128
 1011 006c 0CD0     		beq	.L99
1370:.\Generated_Source\PSoC5/CyLib.c ****         for( ; timeout > 0u; timeout--)
 1012              		.loc 1 1370 0
 1013 006e 9DF80730 		ldrb	r3, [sp, #7]	@ zero_extendqisi2
 1014 0072 013B     		subs	r3, r3, #1
 1015 0074 DBB2     		uxtb	r3, r3
 1016 0076 8DF80730 		strb	r3, [sp, #7]
 1017              	.L92:
1370:.\Generated_Source\PSoC5/CyLib.c ****         for( ; timeout > 0u; timeout--)
 1018              		.loc 1 1370 0 is_stmt 0 discriminator 1
 1019 007a 9DF80730 		ldrb	r3, [sp, #7]	@ zero_extendqisi2
 1020 007e 13F0FF0F 		tst	r3, #255
 1021 0082 DAD1     		bne	.L96
1367:.\Generated_Source\PSoC5/CyLib.c ****         status = CYRET_TIMEOUT;
 1022              		.loc 1 1367 0 is_stmt 1
 1023 0084 1024     		movs	r4, #16
 1024 0086 00E0     		b	.L95
 1025              	.L99:
1390:.\Generated_Source\PSoC5/CyLib.c ****             {
1391:.\Generated_Source\PSoC5/CyLib.c ****                 status = CYRET_SUCCESS;
 1026              		.loc 1 1391 0
 1027 0088 0024     		movs	r4, #0
 1028              	.L95:
 1029              	.LVL61:
1392:.\Generated_Source\PSoC5/CyLib.c ****                 break;
1393:.\Generated_Source\PSoC5/CyLib.c ****             }
1394:.\Generated_Source\PSoC5/CyLib.c ****         }
1395:.\Generated_Source\PSoC5/CyLib.c **** 
1396:.\Generated_Source\PSoC5/CyLib.c **** 
1397:.\Generated_Source\PSoC5/CyLib.c ****         /* Restore 100 KHz ILO, FTW interval, enable and interrupt enable */
1398:.\Generated_Source\PSoC5/CyLib.c ****         if(0u == (iloEnableState & CY_LIB_SLOWCLK_ILO_CR0_EN_100KHZ))
 1030              		.loc 1 1398 0
 1031 008a 18F0040F 		tst	r8, #4
 1032 008e 01D1     		bne	.L97
1399:.\Generated_Source\PSoC5/CyLib.c ****         {
1400:.\Generated_Source\PSoC5/CyLib.c ****             CyILO_Stop100K();
 1033              		.loc 1 1400 0
 1034 0090 FFF7FEFF 		bl	CyILO_Stop100K
 1035              	.LVL62:
 1036              	.L97:
1401:.\Generated_Source\PSoC5/CyLib.c ****         }
1402:.\Generated_Source\PSoC5/CyLib.c ****         CY_LIB_PM_TW_CFG0_REG = pmTwCfg0Tmp;
 1037              		.loc 1 1402 0
 1038 0094 054B     		ldr	r3, .L102+4
 1039 0096 1F70     		strb	r7, [r3]
1403:.\Generated_Source\PSoC5/CyLib.c ****         CY_LIB_PM_TW_CFG2_REG = pmTwCfg2Tmp;
 1040              		.loc 1 1403 0
 1041 0098 0233     		adds	r3, r3, #2
 1042 009a 1E70     		strb	r6, [r3]
 1043 009c 00E0     		b	.L91
ARM GAS  C:\Users\mitchell\AppData\Local\Temp\ccIjMaGi.s 			page 45


 1044              	.LVL63:
 1045              	.L98:
1346:.\Generated_Source\PSoC5/CyLib.c ****     cystatus status = CYRET_SUCCESS;
 1046              		.loc 1 1346 0
 1047 009e 0024     		movs	r4, #0
 1048              	.LVL64:
 1049              	.L91:
1404:.\Generated_Source\PSoC5/CyLib.c ****     }
1405:.\Generated_Source\PSoC5/CyLib.c **** 
1406:.\Generated_Source\PSoC5/CyLib.c ****     return(status);
1407:.\Generated_Source\PSoC5/CyLib.c **** }
 1050              		.loc 1 1407 0
 1051 00a0 2046     		mov	r0, r4
 1052 00a2 02B0     		add	sp, sp, #8
 1053              		@ sp needed
 1054 00a4 BDE8F081 		pop	{r4, r5, r6, r7, r8, pc}
 1055              	.LVL65:
 1056              	.L103:
 1057              		.align	2
 1058              	.L102:
 1059 00a8 10420040 		.word	1073758736
 1060 00ac 80430040 		.word	1073759104
 1061              		.cfi_endproc
 1062              	.LFE29:
 1063              		.size	CyXTAL_Start, .-CyXTAL_Start
 1064              		.section	.text.CyXTAL_Stop,"ax",%progbits
 1065              		.align	2
 1066              		.global	CyXTAL_Stop
 1067              		.thumb
 1068              		.thumb_func
 1069              		.type	CyXTAL_Stop, %function
 1070              	CyXTAL_Stop:
 1071              	.LFB30:
1408:.\Generated_Source\PSoC5/CyLib.c **** 
1409:.\Generated_Source\PSoC5/CyLib.c **** 
1410:.\Generated_Source\PSoC5/CyLib.c **** /*******************************************************************************
1411:.\Generated_Source\PSoC5/CyLib.c **** * Function Name: CyXTAL_Stop
1412:.\Generated_Source\PSoC5/CyLib.c **** ********************************************************************************
1413:.\Generated_Source\PSoC5/CyLib.c **** *
1414:.\Generated_Source\PSoC5/CyLib.c **** * Summary:
1415:.\Generated_Source\PSoC5/CyLib.c **** *  Disables the megahertz crystal oscillator.
1416:.\Generated_Source\PSoC5/CyLib.c **** *
1417:.\Generated_Source\PSoC5/CyLib.c **** * Parameters:
1418:.\Generated_Source\PSoC5/CyLib.c **** *  None
1419:.\Generated_Source\PSoC5/CyLib.c **** *
1420:.\Generated_Source\PSoC5/CyLib.c **** * Return:
1421:.\Generated_Source\PSoC5/CyLib.c **** *  None
1422:.\Generated_Source\PSoC5/CyLib.c **** *
1423:.\Generated_Source\PSoC5/CyLib.c **** *******************************************************************************/
1424:.\Generated_Source\PSoC5/CyLib.c **** void CyXTAL_Stop(void) 
1425:.\Generated_Source\PSoC5/CyLib.c **** {
 1072              		.loc 1 1425 0
 1073              		.cfi_startproc
 1074              		@ args = 0, pretend = 0, frame = 0
 1075              		@ frame_needed = 0, uses_anonymous_args = 0
 1076              		@ link register save eliminated.
1426:.\Generated_Source\PSoC5/CyLib.c ****     /* Disable oscillator. */
ARM GAS  C:\Users\mitchell\AppData\Local\Temp\ccIjMaGi.s 			page 46


1427:.\Generated_Source\PSoC5/CyLib.c ****     FASTCLK_XMHZ_CSR &= ((uint8)(~XMHZ_CONTROL_ENABLE));
 1077              		.loc 1 1427 0
 1078 0000 024B     		ldr	r3, .L105
 1079 0002 1A78     		ldrb	r2, [r3]	@ zero_extendqisi2
 1080 0004 02F0FE02 		and	r2, r2, #254
 1081 0008 1A70     		strb	r2, [r3]
 1082 000a 7047     		bx	lr
 1083              	.L106:
 1084              		.align	2
 1085              	.L105:
 1086 000c 10420040 		.word	1073758736
 1087              		.cfi_endproc
 1088              	.LFE30:
 1089              		.size	CyXTAL_Stop, .-CyXTAL_Stop
 1090              		.section	.text.CyXTAL_EnableErrStatus,"ax",%progbits
 1091              		.align	2
 1092              		.global	CyXTAL_EnableErrStatus
 1093              		.thumb
 1094              		.thumb_func
 1095              		.type	CyXTAL_EnableErrStatus, %function
 1096              	CyXTAL_EnableErrStatus:
 1097              	.LFB31:
1428:.\Generated_Source\PSoC5/CyLib.c **** }
1429:.\Generated_Source\PSoC5/CyLib.c **** 
1430:.\Generated_Source\PSoC5/CyLib.c **** 
1431:.\Generated_Source\PSoC5/CyLib.c **** /*******************************************************************************
1432:.\Generated_Source\PSoC5/CyLib.c **** * Function Name: CyXTAL_EnableErrStatus
1433:.\Generated_Source\PSoC5/CyLib.c **** ********************************************************************************
1434:.\Generated_Source\PSoC5/CyLib.c **** *
1435:.\Generated_Source\PSoC5/CyLib.c **** * Summary:
1436:.\Generated_Source\PSoC5/CyLib.c **** *  Enables the generation of the XERR status bit for the megahertz crystal.
1437:.\Generated_Source\PSoC5/CyLib.c **** *  This function is not available for PSoC5.
1438:.\Generated_Source\PSoC5/CyLib.c **** *
1439:.\Generated_Source\PSoC5/CyLib.c **** * Parameters:
1440:.\Generated_Source\PSoC5/CyLib.c **** *  None
1441:.\Generated_Source\PSoC5/CyLib.c **** *
1442:.\Generated_Source\PSoC5/CyLib.c **** * Return:
1443:.\Generated_Source\PSoC5/CyLib.c **** *  None
1444:.\Generated_Source\PSoC5/CyLib.c **** *
1445:.\Generated_Source\PSoC5/CyLib.c **** *******************************************************************************/
1446:.\Generated_Source\PSoC5/CyLib.c **** void CyXTAL_EnableErrStatus(void) 
1447:.\Generated_Source\PSoC5/CyLib.c **** {
 1098              		.loc 1 1447 0
 1099              		.cfi_startproc
 1100              		@ args = 0, pretend = 0, frame = 0
 1101              		@ frame_needed = 0, uses_anonymous_args = 0
 1102              		@ link register save eliminated.
1448:.\Generated_Source\PSoC5/CyLib.c ****     /* If oscillator has insufficient amplitude, XERR bit will be high. */
1449:.\Generated_Source\PSoC5/CyLib.c ****     CY_CLK_XMHZ_CSR_REG &= ((uint8)(~CY_CLK_XMHZ_CSR_XFB));
 1103              		.loc 1 1449 0
 1104 0000 024B     		ldr	r3, .L108
 1105 0002 1A78     		ldrb	r2, [r3]	@ zero_extendqisi2
 1106 0004 02F0FB02 		and	r2, r2, #251
 1107 0008 1A70     		strb	r2, [r3]
 1108 000a 7047     		bx	lr
 1109              	.L109:
 1110              		.align	2
ARM GAS  C:\Users\mitchell\AppData\Local\Temp\ccIjMaGi.s 			page 47


 1111              	.L108:
 1112 000c 10420040 		.word	1073758736
 1113              		.cfi_endproc
 1114              	.LFE31:
 1115              		.size	CyXTAL_EnableErrStatus, .-CyXTAL_EnableErrStatus
 1116              		.section	.text.CyXTAL_DisableErrStatus,"ax",%progbits
 1117              		.align	2
 1118              		.global	CyXTAL_DisableErrStatus
 1119              		.thumb
 1120              		.thumb_func
 1121              		.type	CyXTAL_DisableErrStatus, %function
 1122              	CyXTAL_DisableErrStatus:
 1123              	.LFB32:
1450:.\Generated_Source\PSoC5/CyLib.c **** }
1451:.\Generated_Source\PSoC5/CyLib.c **** 
1452:.\Generated_Source\PSoC5/CyLib.c **** 
1453:.\Generated_Source\PSoC5/CyLib.c **** /*******************************************************************************
1454:.\Generated_Source\PSoC5/CyLib.c **** * Function Name: CyXTAL_DisableErrStatus
1455:.\Generated_Source\PSoC5/CyLib.c **** ********************************************************************************
1456:.\Generated_Source\PSoC5/CyLib.c **** *
1457:.\Generated_Source\PSoC5/CyLib.c **** * Summary:
1458:.\Generated_Source\PSoC5/CyLib.c **** *  Disables the generation of the XERR status bit for the megahertz crystal.
1459:.\Generated_Source\PSoC5/CyLib.c **** *  This function is not available for PSoC5.
1460:.\Generated_Source\PSoC5/CyLib.c **** *
1461:.\Generated_Source\PSoC5/CyLib.c **** * Parameters:
1462:.\Generated_Source\PSoC5/CyLib.c **** *  None
1463:.\Generated_Source\PSoC5/CyLib.c **** *
1464:.\Generated_Source\PSoC5/CyLib.c **** * Return:
1465:.\Generated_Source\PSoC5/CyLib.c **** *  None
1466:.\Generated_Source\PSoC5/CyLib.c **** *
1467:.\Generated_Source\PSoC5/CyLib.c **** *******************************************************************************/
1468:.\Generated_Source\PSoC5/CyLib.c **** void CyXTAL_DisableErrStatus(void) 
1469:.\Generated_Source\PSoC5/CyLib.c **** {
 1124              		.loc 1 1469 0
 1125              		.cfi_startproc
 1126              		@ args = 0, pretend = 0, frame = 0
 1127              		@ frame_needed = 0, uses_anonymous_args = 0
 1128              		@ link register save eliminated.
1470:.\Generated_Source\PSoC5/CyLib.c ****     /* If oscillator has insufficient amplitude, XERR bit will be high. */
1471:.\Generated_Source\PSoC5/CyLib.c ****     CY_CLK_XMHZ_CSR_REG |= CY_CLK_XMHZ_CSR_XFB;
 1129              		.loc 1 1471 0
 1130 0000 024B     		ldr	r3, .L111
 1131 0002 1A78     		ldrb	r2, [r3]	@ zero_extendqisi2
 1132 0004 42F00402 		orr	r2, r2, #4
 1133 0008 1A70     		strb	r2, [r3]
 1134 000a 7047     		bx	lr
 1135              	.L112:
 1136              		.align	2
 1137              	.L111:
 1138 000c 10420040 		.word	1073758736
 1139              		.cfi_endproc
 1140              	.LFE32:
 1141              		.size	CyXTAL_DisableErrStatus, .-CyXTAL_DisableErrStatus
 1142              		.section	.text.CyXTAL_ReadStatus,"ax",%progbits
 1143              		.align	2
 1144              		.global	CyXTAL_ReadStatus
 1145              		.thumb
ARM GAS  C:\Users\mitchell\AppData\Local\Temp\ccIjMaGi.s 			page 48


 1146              		.thumb_func
 1147              		.type	CyXTAL_ReadStatus, %function
 1148              	CyXTAL_ReadStatus:
 1149              	.LFB33:
1472:.\Generated_Source\PSoC5/CyLib.c **** }
1473:.\Generated_Source\PSoC5/CyLib.c **** 
1474:.\Generated_Source\PSoC5/CyLib.c **** 
1475:.\Generated_Source\PSoC5/CyLib.c **** /*******************************************************************************
1476:.\Generated_Source\PSoC5/CyLib.c **** * Function Name: CyXTAL_ReadStatus
1477:.\Generated_Source\PSoC5/CyLib.c **** ********************************************************************************
1478:.\Generated_Source\PSoC5/CyLib.c **** *
1479:.\Generated_Source\PSoC5/CyLib.c **** * Summary:
1480:.\Generated_Source\PSoC5/CyLib.c **** *  Reads the XERR status bit for the megahertz crystal. This status bit is a
1481:.\Generated_Source\PSoC5/CyLib.c **** *  sticky, clear on read. This function is not available for PSoC5.
1482:.\Generated_Source\PSoC5/CyLib.c **** *
1483:.\Generated_Source\PSoC5/CyLib.c **** * Parameters:
1484:.\Generated_Source\PSoC5/CyLib.c **** *  None
1485:.\Generated_Source\PSoC5/CyLib.c **** *
1486:.\Generated_Source\PSoC5/CyLib.c **** * Return:
1487:.\Generated_Source\PSoC5/CyLib.c **** *   Status
1488:.\Generated_Source\PSoC5/CyLib.c **** *    0: No error
1489:.\Generated_Source\PSoC5/CyLib.c **** *    1: Error
1490:.\Generated_Source\PSoC5/CyLib.c **** *
1491:.\Generated_Source\PSoC5/CyLib.c **** *******************************************************************************/
1492:.\Generated_Source\PSoC5/CyLib.c **** uint8 CyXTAL_ReadStatus(void) 
1493:.\Generated_Source\PSoC5/CyLib.c **** {
 1150              		.loc 1 1493 0
 1151              		.cfi_startproc
 1152              		@ args = 0, pretend = 0, frame = 0
 1153              		@ frame_needed = 0, uses_anonymous_args = 0
 1154              		@ link register save eliminated.
1494:.\Generated_Source\PSoC5/CyLib.c ****     /***************************************************************************
1495:.\Generated_Source\PSoC5/CyLib.c ****     * High output indicates an oscillator failure. Only use this after a start-up
1496:.\Generated_Source\PSoC5/CyLib.c ****     * interval is completed. This can be used for the status and failure recovery.
1497:.\Generated_Source\PSoC5/CyLib.c ****     ***************************************************************************/
1498:.\Generated_Source\PSoC5/CyLib.c ****     return((0u != (CY_CLK_XMHZ_CSR_REG & CY_CLK_XMHZ_CSR_XERR)) ? 1u : 0u);
 1155              		.loc 1 1498 0
 1156 0000 044B     		ldr	r3, .L116
 1157 0002 1B78     		ldrb	r3, [r3]	@ zero_extendqisi2
 1158 0004 13F0800F 		tst	r3, #128
 1159 0008 01D0     		beq	.L115
 1160 000a 0120     		movs	r0, #1
 1161 000c 7047     		bx	lr
 1162              	.L115:
 1163 000e 0020     		movs	r0, #0
1499:.\Generated_Source\PSoC5/CyLib.c **** }
 1164              		.loc 1 1499 0
 1165 0010 7047     		bx	lr
 1166              	.L117:
 1167 0012 00BF     		.align	2
 1168              	.L116:
 1169 0014 10420040 		.word	1073758736
 1170              		.cfi_endproc
 1171              	.LFE33:
 1172              		.size	CyXTAL_ReadStatus, .-CyXTAL_ReadStatus
 1173              		.section	.text.CyXTAL_EnableFaultRecovery,"ax",%progbits
 1174              		.align	2
ARM GAS  C:\Users\mitchell\AppData\Local\Temp\ccIjMaGi.s 			page 49


 1175              		.global	CyXTAL_EnableFaultRecovery
 1176              		.thumb
 1177              		.thumb_func
 1178              		.type	CyXTAL_EnableFaultRecovery, %function
 1179              	CyXTAL_EnableFaultRecovery:
 1180              	.LFB34:
1500:.\Generated_Source\PSoC5/CyLib.c **** 
1501:.\Generated_Source\PSoC5/CyLib.c **** 
1502:.\Generated_Source\PSoC5/CyLib.c **** /*******************************************************************************
1503:.\Generated_Source\PSoC5/CyLib.c **** * Function Name: CyXTAL_EnableFaultRecovery
1504:.\Generated_Source\PSoC5/CyLib.c **** ********************************************************************************
1505:.\Generated_Source\PSoC5/CyLib.c **** *
1506:.\Generated_Source\PSoC5/CyLib.c **** * Summary:
1507:.\Generated_Source\PSoC5/CyLib.c **** *  Enables the fault recovery circuit which will switch to the IMO in the case
1508:.\Generated_Source\PSoC5/CyLib.c **** *  of a fault in the megahertz crystal circuit. The crystal must be up and
1509:.\Generated_Source\PSoC5/CyLib.c **** *  running with the XERR bit at 0, before calling this function to prevent
1510:.\Generated_Source\PSoC5/CyLib.c **** *  an immediate fault switchover. This function is not available for PSoC5.
1511:.\Generated_Source\PSoC5/CyLib.c **** *
1512:.\Generated_Source\PSoC5/CyLib.c **** * Parameters:
1513:.\Generated_Source\PSoC5/CyLib.c **** *  None
1514:.\Generated_Source\PSoC5/CyLib.c **** *
1515:.\Generated_Source\PSoC5/CyLib.c **** * Return:
1516:.\Generated_Source\PSoC5/CyLib.c **** *  None
1517:.\Generated_Source\PSoC5/CyLib.c **** *
1518:.\Generated_Source\PSoC5/CyLib.c **** *******************************************************************************/
1519:.\Generated_Source\PSoC5/CyLib.c **** void CyXTAL_EnableFaultRecovery(void) 
1520:.\Generated_Source\PSoC5/CyLib.c **** {
 1181              		.loc 1 1520 0
 1182              		.cfi_startproc
 1183              		@ args = 0, pretend = 0, frame = 0
 1184              		@ frame_needed = 0, uses_anonymous_args = 0
 1185              		@ link register save eliminated.
1521:.\Generated_Source\PSoC5/CyLib.c ****     CY_CLK_XMHZ_CSR_REG |= CY_CLK_XMHZ_CSR_XPROT;
 1186              		.loc 1 1521 0
 1187 0000 024B     		ldr	r3, .L119
 1188 0002 1A78     		ldrb	r2, [r3]	@ zero_extendqisi2
 1189 0004 42F04002 		orr	r2, r2, #64
 1190 0008 1A70     		strb	r2, [r3]
 1191 000a 7047     		bx	lr
 1192              	.L120:
 1193              		.align	2
 1194              	.L119:
 1195 000c 10420040 		.word	1073758736
 1196              		.cfi_endproc
 1197              	.LFE34:
 1198              		.size	CyXTAL_EnableFaultRecovery, .-CyXTAL_EnableFaultRecovery
 1199              		.section	.text.CyXTAL_DisableFaultRecovery,"ax",%progbits
 1200              		.align	2
 1201              		.global	CyXTAL_DisableFaultRecovery
 1202              		.thumb
 1203              		.thumb_func
 1204              		.type	CyXTAL_DisableFaultRecovery, %function
 1205              	CyXTAL_DisableFaultRecovery:
 1206              	.LFB35:
1522:.\Generated_Source\PSoC5/CyLib.c **** }
1523:.\Generated_Source\PSoC5/CyLib.c **** 
1524:.\Generated_Source\PSoC5/CyLib.c **** 
ARM GAS  C:\Users\mitchell\AppData\Local\Temp\ccIjMaGi.s 			page 50


1525:.\Generated_Source\PSoC5/CyLib.c **** /*******************************************************************************
1526:.\Generated_Source\PSoC5/CyLib.c **** * Function Name: CyXTAL_DisableFaultRecovery
1527:.\Generated_Source\PSoC5/CyLib.c **** ********************************************************************************
1528:.\Generated_Source\PSoC5/CyLib.c **** *
1529:.\Generated_Source\PSoC5/CyLib.c **** * Summary:
1530:.\Generated_Source\PSoC5/CyLib.c **** *  Disables the fault recovery circuit which will switch to the IMO in the case
1531:.\Generated_Source\PSoC5/CyLib.c **** *  of a fault in the megahertz crystal circuit. This function is not available
1532:.\Generated_Source\PSoC5/CyLib.c **** *  for PSoC5.
1533:.\Generated_Source\PSoC5/CyLib.c **** *
1534:.\Generated_Source\PSoC5/CyLib.c **** * Parameters:
1535:.\Generated_Source\PSoC5/CyLib.c **** *  None
1536:.\Generated_Source\PSoC5/CyLib.c **** *
1537:.\Generated_Source\PSoC5/CyLib.c **** * Return:
1538:.\Generated_Source\PSoC5/CyLib.c **** *  None
1539:.\Generated_Source\PSoC5/CyLib.c **** *
1540:.\Generated_Source\PSoC5/CyLib.c **** *******************************************************************************/
1541:.\Generated_Source\PSoC5/CyLib.c **** void CyXTAL_DisableFaultRecovery(void) 
1542:.\Generated_Source\PSoC5/CyLib.c **** {
 1207              		.loc 1 1542 0
 1208              		.cfi_startproc
 1209              		@ args = 0, pretend = 0, frame = 0
 1210              		@ frame_needed = 0, uses_anonymous_args = 0
 1211              		@ link register save eliminated.
1543:.\Generated_Source\PSoC5/CyLib.c ****     CY_CLK_XMHZ_CSR_REG &= ((uint8)(~CY_CLK_XMHZ_CSR_XPROT));
 1212              		.loc 1 1543 0
 1213 0000 024B     		ldr	r3, .L122
 1214 0002 1A78     		ldrb	r2, [r3]	@ zero_extendqisi2
 1215 0004 02F0BF02 		and	r2, r2, #191
 1216 0008 1A70     		strb	r2, [r3]
 1217 000a 7047     		bx	lr
 1218              	.L123:
 1219              		.align	2
 1220              	.L122:
 1221 000c 10420040 		.word	1073758736
 1222              		.cfi_endproc
 1223              	.LFE35:
 1224              		.size	CyXTAL_DisableFaultRecovery, .-CyXTAL_DisableFaultRecovery
 1225              		.section	.text.CyXTAL_SetStartup,"ax",%progbits
 1226              		.align	2
 1227              		.global	CyXTAL_SetStartup
 1228              		.thumb
 1229              		.thumb_func
 1230              		.type	CyXTAL_SetStartup, %function
 1231              	CyXTAL_SetStartup:
 1232              	.LFB36:
1544:.\Generated_Source\PSoC5/CyLib.c **** }
1545:.\Generated_Source\PSoC5/CyLib.c **** 
1546:.\Generated_Source\PSoC5/CyLib.c **** 
1547:.\Generated_Source\PSoC5/CyLib.c **** /*******************************************************************************
1548:.\Generated_Source\PSoC5/CyLib.c **** * Function Name: CyXTAL_SetStartup
1549:.\Generated_Source\PSoC5/CyLib.c **** ********************************************************************************
1550:.\Generated_Source\PSoC5/CyLib.c **** *
1551:.\Generated_Source\PSoC5/CyLib.c **** * Summary:
1552:.\Generated_Source\PSoC5/CyLib.c **** *  Sets the startup settings for the crystal. The logic model outputs a
1553:.\Generated_Source\PSoC5/CyLib.c **** *  frequency (setting + 4) MHz when enabled.
1554:.\Generated_Source\PSoC5/CyLib.c **** *
1555:.\Generated_Source\PSoC5/CyLib.c **** *  This is artificial as the actual frequency is determined by an attached
ARM GAS  C:\Users\mitchell\AppData\Local\Temp\ccIjMaGi.s 			page 51


1556:.\Generated_Source\PSoC5/CyLib.c **** *  external crystal.
1557:.\Generated_Source\PSoC5/CyLib.c **** *
1558:.\Generated_Source\PSoC5/CyLib.c **** * Parameters:
1559:.\Generated_Source\PSoC5/CyLib.c **** *  setting: Valid range [0-31].
1560:.\Generated_Source\PSoC5/CyLib.c **** *   The value is dependent on the frequency and quality of the crystal being
1561:.\Generated_Source\PSoC5/CyLib.c **** *   used. Refer to the device TRM and datasheet for more information.
1562:.\Generated_Source\PSoC5/CyLib.c **** *
1563:.\Generated_Source\PSoC5/CyLib.c **** * Return:
1564:.\Generated_Source\PSoC5/CyLib.c **** *  None
1565:.\Generated_Source\PSoC5/CyLib.c **** *
1566:.\Generated_Source\PSoC5/CyLib.c **** *******************************************************************************/
1567:.\Generated_Source\PSoC5/CyLib.c **** void CyXTAL_SetStartup(uint8 setting) 
1568:.\Generated_Source\PSoC5/CyLib.c **** {
 1233              		.loc 1 1568 0
 1234              		.cfi_startproc
 1235              		@ args = 0, pretend = 0, frame = 0
 1236              		@ frame_needed = 0, uses_anonymous_args = 0
 1237              		@ link register save eliminated.
 1238              	.LVL66:
1569:.\Generated_Source\PSoC5/CyLib.c ****     CY_CLK_XMHZ_CFG0_REG = (CY_CLK_XMHZ_CFG0_REG & ((uint8)(~CY_CLK_XMHZ_CFG0_XCFG_MASK))) |
 1239              		.loc 1 1569 0
 1240 0000 044B     		ldr	r3, .L125
 1241 0002 1A78     		ldrb	r2, [r3]	@ zero_extendqisi2
 1242 0004 02F0E002 		and	r2, r2, #224
 1243 0008 00F01F00 		and	r0, r0, #31
 1244              	.LVL67:
 1245 000c 0243     		orrs	r2, r2, r0
 1246 000e 1A70     		strb	r2, [r3]
 1247 0010 7047     		bx	lr
 1248              	.L126:
 1249 0012 00BF     		.align	2
 1250              	.L125:
 1251 0014 12420040 		.word	1073758738
 1252              		.cfi_endproc
 1253              	.LFE36:
 1254              		.size	CyXTAL_SetStartup, .-CyXTAL_SetStartup
 1255              		.section	.text.CyXTAL_SetFbVoltage,"ax",%progbits
 1256              		.align	2
 1257              		.global	CyXTAL_SetFbVoltage
 1258              		.thumb
 1259              		.thumb_func
 1260              		.type	CyXTAL_SetFbVoltage, %function
 1261              	CyXTAL_SetFbVoltage:
 1262              	.LFB37:
1570:.\Generated_Source\PSoC5/CyLib.c ****                            (setting & CY_CLK_XMHZ_CFG0_XCFG_MASK);
1571:.\Generated_Source\PSoC5/CyLib.c **** }
1572:.\Generated_Source\PSoC5/CyLib.c **** 
1573:.\Generated_Source\PSoC5/CyLib.c **** 
1574:.\Generated_Source\PSoC5/CyLib.c **** 
1575:.\Generated_Source\PSoC5/CyLib.c **** /*******************************************************************************
1576:.\Generated_Source\PSoC5/CyLib.c **** * Function Name: CyXTAL_SetFbVoltage
1577:.\Generated_Source\PSoC5/CyLib.c **** ********************************************************************************
1578:.\Generated_Source\PSoC5/CyLib.c **** *
1579:.\Generated_Source\PSoC5/CyLib.c **** * Summary:
1580:.\Generated_Source\PSoC5/CyLib.c **** *  Sets the feedback reference voltage to use for the crystal circuit.
1581:.\Generated_Source\PSoC5/CyLib.c **** *  This function is only available for PSoC3 and PSoC 5LP.
1582:.\Generated_Source\PSoC5/CyLib.c **** *
ARM GAS  C:\Users\mitchell\AppData\Local\Temp\ccIjMaGi.s 			page 52


1583:.\Generated_Source\PSoC5/CyLib.c **** * Parameters:
1584:.\Generated_Source\PSoC5/CyLib.c **** *  setting: Valid range [0-15].
1585:.\Generated_Source\PSoC5/CyLib.c **** *  Refer to the device TRM and datasheet for more information.
1586:.\Generated_Source\PSoC5/CyLib.c **** *
1587:.\Generated_Source\PSoC5/CyLib.c **** * Return:
1588:.\Generated_Source\PSoC5/CyLib.c **** *  None
1589:.\Generated_Source\PSoC5/CyLib.c **** *
1590:.\Generated_Source\PSoC5/CyLib.c **** *******************************************************************************/
1591:.\Generated_Source\PSoC5/CyLib.c **** void CyXTAL_SetFbVoltage(uint8 setting) 
1592:.\Generated_Source\PSoC5/CyLib.c **** {
 1263              		.loc 1 1592 0
 1264              		.cfi_startproc
 1265              		@ args = 0, pretend = 0, frame = 0
 1266              		@ frame_needed = 0, uses_anonymous_args = 0
 1267              		@ link register save eliminated.
 1268              	.LVL68:
1593:.\Generated_Source\PSoC5/CyLib.c ****     CY_CLK_XMHZ_CFG1_REG = ((CY_CLK_XMHZ_CFG1_REG & ((uint8)(~CY_CLK_XMHZ_CFG1_VREF_FB_MASK))) |
 1269              		.loc 1 1593 0
 1270 0000 044B     		ldr	r3, .L128
 1271 0002 1A78     		ldrb	r2, [r3]	@ zero_extendqisi2
 1272 0004 02F0F002 		and	r2, r2, #240
 1273 0008 00F00F00 		and	r0, r0, #15
 1274              	.LVL69:
 1275 000c 0243     		orrs	r2, r2, r0
 1276 000e 1A70     		strb	r2, [r3]
 1277 0010 7047     		bx	lr
 1278              	.L129:
 1279 0012 00BF     		.align	2
 1280              	.L128:
 1281 0014 13420040 		.word	1073758739
 1282              		.cfi_endproc
 1283              	.LFE37:
 1284              		.size	CyXTAL_SetFbVoltage, .-CyXTAL_SetFbVoltage
 1285              		.section	.text.CyXTAL_SetWdVoltage,"ax",%progbits
 1286              		.align	2
 1287              		.global	CyXTAL_SetWdVoltage
 1288              		.thumb
 1289              		.thumb_func
 1290              		.type	CyXTAL_SetWdVoltage, %function
 1291              	CyXTAL_SetWdVoltage:
 1292              	.LFB38:
1594:.\Generated_Source\PSoC5/CyLib.c ****                             (setting & CY_CLK_XMHZ_CFG1_VREF_FB_MASK));
1595:.\Generated_Source\PSoC5/CyLib.c **** }
1596:.\Generated_Source\PSoC5/CyLib.c **** 
1597:.\Generated_Source\PSoC5/CyLib.c **** 
1598:.\Generated_Source\PSoC5/CyLib.c **** /*******************************************************************************
1599:.\Generated_Source\PSoC5/CyLib.c **** * Function Name: CyXTAL_SetWdVoltage
1600:.\Generated_Source\PSoC5/CyLib.c **** ********************************************************************************
1601:.\Generated_Source\PSoC5/CyLib.c **** *
1602:.\Generated_Source\PSoC5/CyLib.c **** * Summary:
1603:.\Generated_Source\PSoC5/CyLib.c **** *  Sets the reference voltage used by the watchdog to detect a failure in the
1604:.\Generated_Source\PSoC5/CyLib.c **** *  crystal circuit. This function is only available for PSoC3 and PSoC 5LP.
1605:.\Generated_Source\PSoC5/CyLib.c **** *
1606:.\Generated_Source\PSoC5/CyLib.c **** * Parameters:
1607:.\Generated_Source\PSoC5/CyLib.c **** *  setting: Valid range [0-7].
1608:.\Generated_Source\PSoC5/CyLib.c **** *  Refer to the device TRM and datasheet for more information.
1609:.\Generated_Source\PSoC5/CyLib.c **** *
ARM GAS  C:\Users\mitchell\AppData\Local\Temp\ccIjMaGi.s 			page 53


1610:.\Generated_Source\PSoC5/CyLib.c **** * Return:
1611:.\Generated_Source\PSoC5/CyLib.c **** *  None
1612:.\Generated_Source\PSoC5/CyLib.c **** *
1613:.\Generated_Source\PSoC5/CyLib.c **** *******************************************************************************/
1614:.\Generated_Source\PSoC5/CyLib.c **** void CyXTAL_SetWdVoltage(uint8 setting) 
1615:.\Generated_Source\PSoC5/CyLib.c **** {
 1293              		.loc 1 1615 0
 1294              		.cfi_startproc
 1295              		@ args = 0, pretend = 0, frame = 0
 1296              		@ frame_needed = 0, uses_anonymous_args = 0
 1297              		@ link register save eliminated.
 1298              	.LVL70:
1616:.\Generated_Source\PSoC5/CyLib.c ****     CY_CLK_XMHZ_CFG1_REG = ((CY_CLK_XMHZ_CFG1_REG & ((uint8)(~CY_CLK_XMHZ_CFG1_VREF_WD_MASK))) |
 1299              		.loc 1 1616 0
 1300 0000 044B     		ldr	r3, .L131
 1301 0002 1A78     		ldrb	r2, [r3]	@ zero_extendqisi2
1617:.\Generated_Source\PSoC5/CyLib.c ****                             (((uint8)(setting << 4u)) & CY_CLK_XMHZ_CFG1_VREF_WD_MASK));
 1302              		.loc 1 1617 0
 1303 0004 0001     		lsls	r0, r0, #4
 1304              	.LVL71:
1616:.\Generated_Source\PSoC5/CyLib.c ****     CY_CLK_XMHZ_CFG1_REG = ((CY_CLK_XMHZ_CFG1_REG & ((uint8)(~CY_CLK_XMHZ_CFG1_VREF_WD_MASK))) |
 1305              		.loc 1 1616 0
 1306 0006 02F08F02 		and	r2, r2, #143
 1307 000a 00F07000 		and	r0, r0, #112
 1308 000e 0243     		orrs	r2, r2, r0
 1309 0010 1A70     		strb	r2, [r3]
 1310 0012 7047     		bx	lr
 1311              	.L132:
 1312              		.align	2
 1313              	.L131:
 1314 0014 13420040 		.word	1073758739
 1315              		.cfi_endproc
 1316              	.LFE38:
 1317              		.size	CyXTAL_SetWdVoltage, .-CyXTAL_SetWdVoltage
 1318              		.section	.text.CyHalt,"ax",%progbits
 1319              		.align	2
 1320              		.global	CyHalt
 1321              		.thumb
 1322              		.thumb_func
 1323              		.type	CyHalt, %function
 1324              	CyHalt:
 1325              	.LFB39:
1618:.\Generated_Source\PSoC5/CyLib.c **** }
1619:.\Generated_Source\PSoC5/CyLib.c **** 
1620:.\Generated_Source\PSoC5/CyLib.c **** 
1621:.\Generated_Source\PSoC5/CyLib.c **** /*******************************************************************************
1622:.\Generated_Source\PSoC5/CyLib.c **** * Function Name: CyHalt
1623:.\Generated_Source\PSoC5/CyLib.c **** ********************************************************************************
1624:.\Generated_Source\PSoC5/CyLib.c **** *
1625:.\Generated_Source\PSoC5/CyLib.c **** * Summary:
1626:.\Generated_Source\PSoC5/CyLib.c **** *  Halts the CPU.
1627:.\Generated_Source\PSoC5/CyLib.c **** *
1628:.\Generated_Source\PSoC5/CyLib.c **** * Parameters:
1629:.\Generated_Source\PSoC5/CyLib.c **** *  uint8 reason: Value to be used during debugging.
1630:.\Generated_Source\PSoC5/CyLib.c **** *
1631:.\Generated_Source\PSoC5/CyLib.c **** * Return:
1632:.\Generated_Source\PSoC5/CyLib.c **** *  None
ARM GAS  C:\Users\mitchell\AppData\Local\Temp\ccIjMaGi.s 			page 54


1633:.\Generated_Source\PSoC5/CyLib.c **** *
1634:.\Generated_Source\PSoC5/CyLib.c **** *******************************************************************************/
1635:.\Generated_Source\PSoC5/CyLib.c **** void CyHalt(uint8 reason) CYREENTRANT
1636:.\Generated_Source\PSoC5/CyLib.c **** {
 1326              		.loc 1 1636 0
 1327              		.cfi_startproc
 1328              		@ args = 0, pretend = 0, frame = 0
 1329              		@ frame_needed = 0, uses_anonymous_args = 0
 1330              		@ link register save eliminated.
 1331              	.LVL72:
1637:.\Generated_Source\PSoC5/CyLib.c ****     if(0u != reason)
1638:.\Generated_Source\PSoC5/CyLib.c ****     {
1639:.\Generated_Source\PSoC5/CyLib.c ****         /* To remove unreferenced local variable warning */
1640:.\Generated_Source\PSoC5/CyLib.c ****     }
1641:.\Generated_Source\PSoC5/CyLib.c **** 
1642:.\Generated_Source\PSoC5/CyLib.c ****     #if defined (__ARMCC_VERSION)
1643:.\Generated_Source\PSoC5/CyLib.c ****         __breakpoint(0x0);
1644:.\Generated_Source\PSoC5/CyLib.c ****     #elif defined(__GNUC__) || defined (__ICCARM__)
1645:.\Generated_Source\PSoC5/CyLib.c ****         __asm("    bkpt    1");
 1332              		.loc 1 1645 0
 1333              	@ 1645 ".\Generated_Source\PSoC5\CyLib.c" 1
 1334 0000 01BE     		    bkpt    1
 1335              	@ 0 "" 2
 1336              		.thumb
 1337 0002 7047     		bx	lr
 1338              		.cfi_endproc
 1339              	.LFE39:
 1340              		.size	CyHalt, .-CyHalt
 1341              		.section	.text.CyPLL_OUT_SetPQ,"ax",%progbits
 1342              		.align	2
 1343              		.global	CyPLL_OUT_SetPQ
 1344              		.thumb
 1345              		.thumb_func
 1346              		.type	CyPLL_OUT_SetPQ, %function
 1347              	CyPLL_OUT_SetPQ:
 1348              	.LFB2:
 198:.\Generated_Source\PSoC5/CyLib.c **** {
 1349              		.loc 1 198 0
 1350              		.cfi_startproc
 1351              		@ args = 0, pretend = 0, frame = 0
 1352              		@ frame_needed = 0, uses_anonymous_args = 0
 1353              	.LVL73:
 1354 0000 70B5     		push	{r4, r5, r6, lr}
 1355              		.cfi_def_cfa_offset 16
 1356              		.cfi_offset 4, -16
 1357              		.cfi_offset 5, -12
 1358              		.cfi_offset 6, -8
 1359              		.cfi_offset 14, -4
 1360 0002 0546     		mov	r5, r0
 1361 0004 0C46     		mov	r4, r1
 1362 0006 1646     		mov	r6, r2
 200:.\Generated_Source\PSoC5/CyLib.c ****     CYASSERT(0u == (CY_CLK_PLL_CFG0_REG & CY_CLK_PLL_ENABLE));
 1363              		.loc 1 200 0
 1364 0008 124B     		ldr	r3, .L138
 1365 000a 1B78     		ldrb	r3, [r3]	@ zero_extendqisi2
 1366 000c 13F0010F 		tst	r3, #1
 1367 0010 02D0     		beq	.L135
ARM GAS  C:\Users\mitchell\AppData\Local\Temp\ccIjMaGi.s 			page 55


 200:.\Generated_Source\PSoC5/CyLib.c ****     CYASSERT(0u == (CY_CLK_PLL_CFG0_REG & CY_CLK_PLL_ENABLE));
 1368              		.loc 1 200 0 is_stmt 0 discriminator 1
 1369 0012 0020     		movs	r0, #0
 1370              	.LVL74:
 1371 0014 FFF7FEFF 		bl	CyHalt
 1372              	.LVL75:
 1373              	.L135:
 202:.\Generated_Source\PSoC5/CyLib.c ****     if((pDiv    >= CY_CLK_PLL_MIN_P_VALUE  ) &&
 1374              		.loc 1 202 0 is_stmt 1
 1375 0018 072D     		cmp	r5, #7
 1376 001a 16D9     		bls	.L136
 202:.\Generated_Source\PSoC5/CyLib.c ****     if((pDiv    >= CY_CLK_PLL_MIN_P_VALUE  ) &&
 1377              		.loc 1 202 0 is_stmt 0 discriminator 1
 1378 001c 102C     		cmp	r4, #16
 1379 001e 14D8     		bhi	.L136
 203:.\Generated_Source\PSoC5/CyLib.c ****        (qDiv    <= CY_CLK_PLL_MAX_Q_VALUE  ) && (qDiv    >= CY_CLK_PLL_MIN_Q_VALUE  ) &&
 1380              		.loc 1 203 0 is_stmt 1
 1381 0020 9CB1     		cbz	r4, .L136
 203:.\Generated_Source\PSoC5/CyLib.c ****        (qDiv    <= CY_CLK_PLL_MAX_Q_VALUE  ) && (qDiv    >= CY_CLK_PLL_MIN_Q_VALUE  ) &&
 1382              		.loc 1 203 0 is_stmt 0 discriminator 1
 1383 0022 96B1     		cbz	r6, .L136
 204:.\Generated_Source\PSoC5/CyLib.c ****        (current >= CY_CLK_PLL_MIN_CUR_VALUE) && (current <= CY_CLK_PLL_MAX_CUR_VALUE))
 1384              		.loc 1 204 0 is_stmt 1
 1385 0024 072E     		cmp	r6, #7
 1386 0026 10D8     		bhi	.L136
 207:.\Generated_Source\PSoC5/CyLib.c ****         CY_CLK_PLL_P_REG = pDiv;
 1387              		.loc 1 207 0
 1388 0028 0B4B     		ldr	r3, .L138+4
 1389 002a 1D70     		strb	r5, [r3]
 208:.\Generated_Source\PSoC5/CyLib.c ****         CY_CLK_PLL_Q_REG = ((uint8)(qDiv - 1u));
 1390              		.loc 1 208 0
 1391 002c 013C     		subs	r4, r4, #1
 1392 002e E4B2     		uxtb	r4, r4
 1393 0030 0133     		adds	r3, r3, #1
 1394 0032 1C70     		strb	r4, [r3]
 209:.\Generated_Source\PSoC5/CyLib.c ****         CY_CLK_PLL_CFG1_REG = (CY_CLK_PLL_CFG1_REG & CY_CLK_PLL_CURRENT_MASK) |
 1395              		.loc 1 209 0
 1396 0034 023B     		subs	r3, r3, #2
 1397 0036 1A78     		ldrb	r2, [r3]	@ zero_extendqisi2
 210:.\Generated_Source\PSoC5/CyLib.c ****                                 ((uint8)(((uint8)(current - 1u)) << CY_CLK_PLL_CURRENT_POSITION));
 1398              		.loc 1 210 0
 1399 0038 711E     		subs	r1, r6, #1
 1400 003a 0901     		lsls	r1, r1, #4
 1401 003c 01F0F001 		and	r1, r1, #240
 209:.\Generated_Source\PSoC5/CyLib.c ****         CY_CLK_PLL_CFG1_REG = (CY_CLK_PLL_CFG1_REG & CY_CLK_PLL_CURRENT_MASK) |
 1402              		.loc 1 209 0
 1403 0040 02F08F02 		and	r2, r2, #143
 1404 0044 0A43     		orrs	r2, r2, r1
 1405 0046 1A70     		strb	r2, [r3]
 1406 0048 70BD     		pop	{r4, r5, r6, pc}
 1407              	.L136:
 220:.\Generated_Source\PSoC5/CyLib.c ****         CYASSERT(0u != 0u);
 1408              		.loc 1 220 0 discriminator 1
 1409 004a 0020     		movs	r0, #0
 1410 004c FFF7FEFF 		bl	CyHalt
 1411              	.LVL76:
 1412 0050 70BD     		pop	{r4, r5, r6, pc}
ARM GAS  C:\Users\mitchell\AppData\Local\Temp\ccIjMaGi.s 			page 56


 1413              	.L139:
 1414 0052 00BF     		.align	2
 1415              	.L138:
 1416 0054 20420040 		.word	1073758752
 1417 0058 22420040 		.word	1073758754
 1418              		.cfi_endproc
 1419              	.LFE2:
 1420              		.size	CyPLL_OUT_SetPQ, .-CyPLL_OUT_SetPQ
 1421              		.section	.text.CyPLL_OUT_SetSource,"ax",%progbits
 1422              		.align	2
 1423              		.global	CyPLL_OUT_SetSource
 1424              		.thumb
 1425              		.thumb_func
 1426              		.type	CyPLL_OUT_SetSource, %function
 1427              	CyPLL_OUT_SetSource:
 1428              	.LFB3:
 253:.\Generated_Source\PSoC5/CyLib.c **** {
 1429              		.loc 1 253 0
 1430              		.cfi_startproc
 1431              		@ args = 0, pretend = 0, frame = 0
 1432              		@ frame_needed = 0, uses_anonymous_args = 0
 1433              	.LVL77:
 1434 0000 10B5     		push	{r4, lr}
 1435              		.cfi_def_cfa_offset 8
 1436              		.cfi_offset 4, -8
 1437              		.cfi_offset 14, -4
 1438 0002 0446     		mov	r4, r0
 255:.\Generated_Source\PSoC5/CyLib.c ****     CYASSERT(0u == (CY_CLK_PLL_CFG0_REG & CY_CLK_PLL_ENABLE));
 1439              		.loc 1 255 0
 1440 0004 0A4B     		ldr	r3, .L145
 1441 0006 1B78     		ldrb	r3, [r3]	@ zero_extendqisi2
 1442 0008 13F0010F 		tst	r3, #1
 1443 000c 02D0     		beq	.L141
 255:.\Generated_Source\PSoC5/CyLib.c ****     CYASSERT(0u == (CY_CLK_PLL_CFG0_REG & CY_CLK_PLL_ENABLE));
 1444              		.loc 1 255 0 is_stmt 0 discriminator 1
 1445 000e 0020     		movs	r0, #0
 1446              	.LVL78:
 1447 0010 FFF7FEFF 		bl	CyHalt
 1448              	.LVL79:
 1449              	.L141:
 257:.\Generated_Source\PSoC5/CyLib.c ****     switch(source)
 1450              		.loc 1 257 0 is_stmt 1
 1451 0014 022C     		cmp	r4, #2
 1452 0016 07D8     		bhi	.L142
 262:.\Generated_Source\PSoC5/CyLib.c ****             CY_LIB_CLKDIST_CR_REG = ((CY_LIB_CLKDIST_CR_REG & CY_LIB_CLKDIST_CR_PLL_SCR_MASK) | sou
 1453              		.loc 1 262 0
 1454 0018 4FF04023 		mov	r3, #1073758208
 1455 001c 1A78     		ldrb	r2, [r3]	@ zero_extendqisi2
 1456 001e 02F0FC02 		and	r2, r2, #252
 1457 0022 1443     		orrs	r4, r4, r2
 1458 0024 1C70     		strb	r4, [r3]
 263:.\Generated_Source\PSoC5/CyLib.c ****         break;
 1459              		.loc 1 263 0
 1460 0026 10BD     		pop	{r4, pc}
 1461              	.L142:
 266:.\Generated_Source\PSoC5/CyLib.c ****             CYASSERT(0u != 0u);
 1462              		.loc 1 266 0 discriminator 1
ARM GAS  C:\Users\mitchell\AppData\Local\Temp\ccIjMaGi.s 			page 57


 1463 0028 0020     		movs	r0, #0
 1464 002a FFF7FEFF 		bl	CyHalt
 1465              	.LVL80:
 1466 002e 10BD     		pop	{r4, pc}
 1467              	.L146:
 1468              		.align	2
 1469              	.L145:
 1470 0030 20420040 		.word	1073758752
 1471              		.cfi_endproc
 1472              	.LFE3:
 1473              		.size	CyPLL_OUT_SetSource, .-CyPLL_OUT_SetSource
 1474              		.section	.text.CyIMO_SetTrimValue,"ax",%progbits
 1475              		.align	2
 1476              		.thumb
 1477              		.thumb_func
 1478              		.type	CyIMO_SetTrimValue, %function
 1479              	CyIMO_SetTrimValue:
 1480              	.LFB7:
 404:.\Generated_Source\PSoC5/CyLib.c **** {
 1481              		.loc 1 404 0
 1482              		.cfi_startproc
 1483              		@ args = 0, pretend = 0, frame = 0
 1484              		@ frame_needed = 0, uses_anonymous_args = 0
 1485              	.LVL81:
 1486 0000 10B5     		push	{r4, lr}
 1487              		.cfi_def_cfa_offset 8
 1488              		.cfi_offset 4, -8
 1489              		.cfi_offset 14, -4
 1490 0002 0446     		mov	r4, r0
 405:.\Generated_Source\PSoC5/CyLib.c ****     uint8 usbPowerOn = CyUSB_PowerOnCheck();
 1491              		.loc 1 405 0
 1492 0004 FFF7FEFF 		bl	CyUSB_PowerOnCheck
 1493              	.LVL82:
 408:.\Generated_Source\PSoC5/CyLib.c ****     if(usbPowerOn == 1u)
 1494              		.loc 1 408 0
 1495 0008 0128     		cmp	r0, #1
 1496 000a 04D1     		bne	.L148
 411:.\Generated_Source\PSoC5/CyLib.c ****         CY_LIB_USB_CR1_REG &= ((uint8)(~CY_LIB_USB_CLK_EN));
 1497              		.loc 1 411 0
 1498 000c 254B     		ldr	r3, .L160
 1499 000e 1A78     		ldrb	r2, [r3]	@ zero_extendqisi2
 1500 0010 02F0FD02 		and	r2, r2, #253
 1501 0014 1A70     		strb	r2, [r3]
 1502              	.L148:
 413:.\Generated_Source\PSoC5/CyLib.c ****     switch(freq)
 1503              		.loc 1 413 0
 1504 0016 082C     		cmp	r4, #8
 1505 0018 3FD8     		bhi	.L149
 1506 001a DFE804F0 		tbb	[pc, r4]
 1507              	.L151:
 1508 001e 05       		.byte	(.L150-.L151)/2
 1509 001f 0B       		.byte	(.L152-.L151)/2
 1510 0020 11       		.byte	(.L153-.L151)/2
 1511 0021 17       		.byte	(.L154-.L151)/2
 1512 0022 1D       		.byte	(.L155-.L151)/2
 1513 0023 23       		.byte	(.L156-.L151)/2
 1514 0024 29       		.byte	(.L157-.L151)/2
ARM GAS  C:\Users\mitchell\AppData\Local\Temp\ccIjMaGi.s 			page 58


 1515 0025 3E       		.byte	(.L149-.L151)/2
 1516 0026 2F       		.byte	(.L158-.L151)/2
 1517 0027 00       		.p2align 1
 1518              	.L150:
 416:.\Generated_Source\PSoC5/CyLib.c ****         CY_LIB_IMO_TR1_REG = CY_GET_XTND_REG8(CY_LIB_TRIM_IMO_3MHZ_PTR);
 1519              		.loc 1 416 0
 1520 0028 1F4B     		ldr	r3, .L160+4
 1521 002a 1A78     		ldrb	r2, [r3]	@ zero_extendqisi2
 1522 002c D2B2     		uxtb	r2, r2
 1523 002e 1F4B     		ldr	r3, .L160+8
 1524 0030 1A70     		strb	r2, [r3]
 417:.\Generated_Source\PSoC5/CyLib.c ****         break;
 1525              		.loc 1 417 0
 1526 0032 10BD     		pop	{r4, pc}
 1527              	.L152:
 420:.\Generated_Source\PSoC5/CyLib.c ****         CY_LIB_IMO_TR1_REG = CY_GET_XTND_REG8(CY_LIB_TRIM_IMO_6MHZ_PTR);
 1528              		.loc 1 420 0
 1529 0034 1E4B     		ldr	r3, .L160+12
 1530 0036 1A78     		ldrb	r2, [r3]	@ zero_extendqisi2
 1531 0038 D2B2     		uxtb	r2, r2
 1532 003a 1C4B     		ldr	r3, .L160+8
 1533 003c 1A70     		strb	r2, [r3]
 421:.\Generated_Source\PSoC5/CyLib.c ****         break;
 1534              		.loc 1 421 0
 1535 003e 10BD     		pop	{r4, pc}
 1536              	.L153:
 424:.\Generated_Source\PSoC5/CyLib.c ****         CY_LIB_IMO_TR1_REG = CY_GET_XTND_REG8(CY_LIB_TRIM_IMO_12MHZ_PTR);
 1537              		.loc 1 424 0
 1538 0040 1C4B     		ldr	r3, .L160+16
 1539 0042 1A78     		ldrb	r2, [r3]	@ zero_extendqisi2
 1540 0044 D2B2     		uxtb	r2, r2
 1541 0046 194B     		ldr	r3, .L160+8
 1542 0048 1A70     		strb	r2, [r3]
 425:.\Generated_Source\PSoC5/CyLib.c ****         break;
 1543              		.loc 1 425 0
 1544 004a 10BD     		pop	{r4, pc}
 1545              	.L154:
 428:.\Generated_Source\PSoC5/CyLib.c ****         CY_LIB_IMO_TR1_REG = CY_GET_XTND_REG8(CY_LIB_TRIM_IMO_24MHZ_PTR);
 1546              		.loc 1 428 0
 1547 004c 1A4B     		ldr	r3, .L160+20
 1548 004e 1A78     		ldrb	r2, [r3]	@ zero_extendqisi2
 1549 0050 D2B2     		uxtb	r2, r2
 1550 0052 164B     		ldr	r3, .L160+8
 1551 0054 1A70     		strb	r2, [r3]
 429:.\Generated_Source\PSoC5/CyLib.c ****         break;
 1552              		.loc 1 429 0
 1553 0056 10BD     		pop	{r4, pc}
 1554              	.L155:
 432:.\Generated_Source\PSoC5/CyLib.c ****         CY_LIB_IMO_TR1_REG = CY_GET_XTND_REG8(CY_LIB_TRIM_IMO_TR1_PTR);
 1555              		.loc 1 432 0
 1556 0058 184B     		ldr	r3, .L160+24
 1557 005a 1A78     		ldrb	r2, [r3]	@ zero_extendqisi2
 1558 005c D2B2     		uxtb	r2, r2
 1559 005e 134B     		ldr	r3, .L160+8
 1560 0060 1A70     		strb	r2, [r3]
 433:.\Generated_Source\PSoC5/CyLib.c ****         break;
 1561              		.loc 1 433 0
ARM GAS  C:\Users\mitchell\AppData\Local\Temp\ccIjMaGi.s 			page 59


 1562 0062 10BD     		pop	{r4, pc}
 1563              	.L156:
 436:.\Generated_Source\PSoC5/CyLib.c ****         CY_LIB_IMO_TR1_REG = CY_GET_XTND_REG8(CY_LIB_TRIM_IMO_67MHZ_PTR);
 1564              		.loc 1 436 0
 1565 0064 164B     		ldr	r3, .L160+28
 1566 0066 1A78     		ldrb	r2, [r3]	@ zero_extendqisi2
 1567 0068 D2B2     		uxtb	r2, r2
 1568 006a 104B     		ldr	r3, .L160+8
 1569 006c 1A70     		strb	r2, [r3]
 437:.\Generated_Source\PSoC5/CyLib.c ****         break;
 1570              		.loc 1 437 0
 1571 006e 10BD     		pop	{r4, pc}
 1572              	.L157:
 441:.\Generated_Source\PSoC5/CyLib.c ****         CY_LIB_IMO_TR1_REG = CY_GET_XTND_REG8(CY_LIB_TRIM_IMO_80MHZ_PTR);
 1573              		.loc 1 441 0
 1574 0070 144B     		ldr	r3, .L160+32
 1575 0072 1A78     		ldrb	r2, [r3]	@ zero_extendqisi2
 1576 0074 D2B2     		uxtb	r2, r2
 1577 0076 0D4B     		ldr	r3, .L160+8
 1578 0078 1A70     		strb	r2, [r3]
 442:.\Generated_Source\PSoC5/CyLib.c ****         break;
 1579              		.loc 1 442 0
 1580 007a 10BD     		pop	{r4, pc}
 1581              	.L158:
 446:.\Generated_Source\PSoC5/CyLib.c ****         CY_LIB_IMO_TR1_REG = CY_GET_XTND_REG8(CY_LIB_TRIM_IMO_USB_PTR);
 1582              		.loc 1 446 0
 1583 007c 124B     		ldr	r3, .L160+36
 1584 007e 1A78     		ldrb	r2, [r3]	@ zero_extendqisi2
 1585 0080 D2B2     		uxtb	r2, r2
 1586 0082 0A4B     		ldr	r3, .L160+8
 1587 0084 1A70     		strb	r2, [r3]
 449:.\Generated_Source\PSoC5/CyLib.c ****         if(usbPowerOn == 1u)
 1588              		.loc 1 449 0
 1589 0086 0128     		cmp	r0, #1
 1590 0088 0AD1     		bne	.L147
 452:.\Generated_Source\PSoC5/CyLib.c ****             CY_LIB_USB_CR1_REG |= CY_LIB_USB_CLK_EN;
 1591              		.loc 1 452 0
 1592 008a 03F5CB53 		add	r3, r3, #6496
 1593 008e 0833     		adds	r3, r3, #8
 1594 0090 1A78     		ldrb	r2, [r3]	@ zero_extendqisi2
 1595 0092 42F00202 		orr	r2, r2, #2
 1596 0096 1A70     		strb	r2, [r3]
 1597 0098 10BD     		pop	{r4, pc}
 1598              	.L149:
 457:.\Generated_Source\PSoC5/CyLib.c ****             CYASSERT(0u != 0u);
 1599              		.loc 1 457 0 discriminator 1
 1600 009a 0020     		movs	r0, #0
 1601              	.LVL83:
 1602 009c FFF7FEFF 		bl	CyHalt
 1603              	.LVL84:
 1604              	.L147:
 1605 00a0 10BD     		pop	{r4, pc}
 1606              	.L161:
 1607 00a2 00BF     		.align	2
 1608              	.L160:
 1609 00a4 09600040 		.word	1073766409
 1610 00a8 08010049 		.word	1224737032
ARM GAS  C:\Users\mitchell\AppData\Local\Temp\ccIjMaGi.s 			page 60


 1611 00ac A1460040 		.word	1073759905
 1612 00b0 09010049 		.word	1224737033
 1613 00b4 0A010049 		.word	1224737034
 1614 00b8 0B010049 		.word	1224737035
 1615 00bc 89010049 		.word	1224737161
 1616 00c0 0C010049 		.word	1224737036
 1617 00c4 0D010049 		.word	1224737037
 1618 00c8 0F010049 		.word	1224737039
 1619              		.cfi_endproc
 1620              	.LFE7:
 1621              		.size	CyIMO_SetTrimValue, .-CyIMO_SetTrimValue
 1622              		.section	.text.CyIMO_SetFreq,"ax",%progbits
 1623              		.align	2
 1624              		.global	CyIMO_SetFreq
 1625              		.thumb
 1626              		.thumb_func
 1627              		.type	CyIMO_SetFreq, %function
 1628              	CyIMO_SetFreq:
 1629              	.LFB8:
 499:.\Generated_Source\PSoC5/CyLib.c **** {
 1630              		.loc 1 499 0
 1631              		.cfi_startproc
 1632              		@ args = 0, pretend = 0, frame = 0
 1633              		@ frame_needed = 0, uses_anonymous_args = 0
 1634              	.LVL85:
 1635 0000 70B5     		push	{r4, r5, r6, lr}
 1636              		.cfi_def_cfa_offset 16
 1637              		.cfi_offset 4, -16
 1638              		.cfi_offset 5, -12
 1639              		.cfi_offset 6, -8
 1640              		.cfi_offset 14, -4
 1641 0002 0446     		mov	r4, r0
 510:.\Generated_Source\PSoC5/CyLib.c ****     currentFreq = CY_LIB_FASTCLK_IMO_CR_REG & ((uint8)(~CY_LIB_FASTCLK_IMO_CR_RANGE_MASK));
 1642              		.loc 1 510 0
 1643 0004 3A4B     		ldr	r3, .L186
 1644 0006 1D78     		ldrb	r5, [r3]	@ zero_extendqisi2
 1645 0008 05F00705 		and	r5, r5, #7
 1646              	.LVL86:
 513:.\Generated_Source\PSoC5/CyLib.c ****     nextFreq = (freq == CY_IMO_FREQ_USB) ? CY_IMO_FREQ_24MHZ : freq;
 1647              		.loc 1 513 0
 1648 000c 0828     		cmp	r0, #8
 1649 000e 01D1     		bne	.L185
 1650 0010 0326     		movs	r6, #3
 1651 0012 00E0     		b	.L163
 1652              	.L185:
 1653 0014 0646     		mov	r6, r0
 1654              	.L163:
 1655              	.LVL87:
 515:.\Generated_Source\PSoC5/CyLib.c ****     switch (currentFreq)
 1656              		.loc 1 515 0 discriminator 3
 1657 0016 062D     		cmp	r5, #6
 1658 0018 0BD8     		bhi	.L164
 1659 001a DFE805F0 		tbb	[pc, r5]
 1660              	.L166:
 1661 001e 04       		.byte	(.L165-.L166)/2
 1662 001f 0D       		.byte	(.L167-.L166)/2
 1663 0020 06       		.byte	(.L168-.L166)/2
ARM GAS  C:\Users\mitchell\AppData\Local\Temp\ccIjMaGi.s 			page 61


 1664 0021 08       		.byte	(.L169-.L166)/2
 1665 0022 0D       		.byte	(.L167-.L166)/2
 1666 0023 0D       		.byte	(.L167-.L166)/2
 1667 0024 0D       		.byte	(.L167-.L166)/2
 1668 0025 00       		.p2align 1
 1669              	.L165:
 518:.\Generated_Source\PSoC5/CyLib.c ****         currentFreq = CY_IMO_FREQ_12MHZ;
 1670              		.loc 1 518 0
 1671 0026 0225     		movs	r5, #2
 1672              	.LVL88:
 1673 0028 06E0     		b	.L167
 1674              	.LVL89:
 1675              	.L168:
 526:.\Generated_Source\PSoC5/CyLib.c ****         currentFreq = CY_IMO_FREQ_24MHZ;
 1676              		.loc 1 526 0
 1677 002a 0325     		movs	r5, #3
 527:.\Generated_Source\PSoC5/CyLib.c ****         break;
 1678              		.loc 1 527 0
 1679 002c 04E0     		b	.L167
 1680              	.LVL90:
 1681              	.L169:
 530:.\Generated_Source\PSoC5/CyLib.c ****         currentFreq = CY_IMO_FREQ_3MHZ;
 1682              		.loc 1 530 0
 1683 002e 0025     		movs	r5, #0
 531:.\Generated_Source\PSoC5/CyLib.c ****         break;
 1684              		.loc 1 531 0
 1685 0030 02E0     		b	.L167
 1686              	.LVL91:
 1687              	.L164:
 548:.\Generated_Source\PSoC5/CyLib.c ****         CYASSERT(0u != 0u);
 1688              		.loc 1 548 0 discriminator 1
 1689 0032 0020     		movs	r0, #0
 1690              	.LVL92:
 1691 0034 FFF7FEFF 		bl	CyHalt
 1692              	.LVL93:
 1693              	.L167:
 552:.\Generated_Source\PSoC5/CyLib.c ****     if (nextFreq >= currentFreq)
 1694              		.loc 1 552 0
 1695 0038 B542     		cmp	r5, r6
 1696 003a 02D8     		bhi	.L170
 555:.\Generated_Source\PSoC5/CyLib.c ****         CyIMO_SetTrimValue(freq);
 1697              		.loc 1 555 0
 1698 003c 2046     		mov	r0, r4
 1699 003e FFF7FEFF 		bl	CyIMO_SetTrimValue
 1700              	.LVL94:
 1701              	.L170:
 559:.\Generated_Source\PSoC5/CyLib.c ****     switch(freq)
 1702              		.loc 1 559 0
 1703 0042 082C     		cmp	r4, #8
 1704 0044 44D8     		bhi	.L171
 1705 0046 DFE804F0 		tbb	[pc, r4]
 1706              	.L173:
 1707 004a 05       		.byte	(.L172-.L173)/2
 1708 004b 0D       		.byte	(.L174-.L173)/2
 1709 004c 15       		.byte	(.L175-.L173)/2
 1710 004d 1B       		.byte	(.L176-.L173)/2
 1711 004e 23       		.byte	(.L177-.L173)/2
ARM GAS  C:\Users\mitchell\AppData\Local\Temp\ccIjMaGi.s 			page 62


 1712 004f 2B       		.byte	(.L178-.L173)/2
 1713 0050 33       		.byte	(.L179-.L173)/2
 1714 0051 43       		.byte	(.L171-.L173)/2
 1715 0052 3B       		.byte	(.L180-.L173)/2
 1716 0053 00       		.p2align 1
 1717              	.L172:
 562:.\Generated_Source\PSoC5/CyLib.c ****         CY_LIB_FASTCLK_IMO_CR_REG = ((CY_LIB_FASTCLK_IMO_CR_REG & CY_LIB_FASTCLK_IMO_CR_RANGE_MASK)
 1718              		.loc 1 562 0
 1719 0054 264B     		ldr	r3, .L186
 1720 0056 1A78     		ldrb	r2, [r3]	@ zero_extendqisi2
 1721 0058 02F0B802 		and	r2, r2, #184
 1722 005c 42F00302 		orr	r2, r2, #3
 1723 0060 1A70     		strb	r2, [r3]
 564:.\Generated_Source\PSoC5/CyLib.c ****         break;
 1724              		.loc 1 564 0
 1725 0062 38E0     		b	.L181
 1726              	.L174:
 567:.\Generated_Source\PSoC5/CyLib.c ****         CY_LIB_FASTCLK_IMO_CR_REG = ((CY_LIB_FASTCLK_IMO_CR_REG & CY_LIB_FASTCLK_IMO_CR_RANGE_MASK)
 1727              		.loc 1 567 0
 1728 0064 224B     		ldr	r3, .L186
 1729 0066 1A78     		ldrb	r2, [r3]	@ zero_extendqisi2
 1730 0068 02F0B802 		and	r2, r2, #184
 1731 006c 42F00102 		orr	r2, r2, #1
 1732 0070 1A70     		strb	r2, [r3]
 569:.\Generated_Source\PSoC5/CyLib.c ****         break;
 1733              		.loc 1 569 0
 1734 0072 30E0     		b	.L181
 1735              	.L175:
 572:.\Generated_Source\PSoC5/CyLib.c ****         CY_LIB_FASTCLK_IMO_CR_REG = ((CY_LIB_FASTCLK_IMO_CR_REG & CY_LIB_FASTCLK_IMO_CR_RANGE_MASK)
 1736              		.loc 1 572 0
 1737 0074 1E4B     		ldr	r3, .L186
 1738 0076 1A78     		ldrb	r2, [r3]	@ zero_extendqisi2
 1739 0078 02F0B802 		and	r2, r2, #184
 1740 007c 1A70     		strb	r2, [r3]
 574:.\Generated_Source\PSoC5/CyLib.c ****         break;
 1741              		.loc 1 574 0
 1742 007e 2AE0     		b	.L181
 1743              	.L176:
 577:.\Generated_Source\PSoC5/CyLib.c ****         CY_LIB_FASTCLK_IMO_CR_REG = ((CY_LIB_FASTCLK_IMO_CR_REG & CY_LIB_FASTCLK_IMO_CR_RANGE_MASK)
 1744              		.loc 1 577 0
 1745 0080 1B4B     		ldr	r3, .L186
 1746 0082 1A78     		ldrb	r2, [r3]	@ zero_extendqisi2
 1747 0084 02F0B802 		and	r2, r2, #184
 1748 0088 42F00202 		orr	r2, r2, #2
 1749 008c 1A70     		strb	r2, [r3]
 579:.\Generated_Source\PSoC5/CyLib.c ****         break;
 1750              		.loc 1 579 0
 1751 008e 22E0     		b	.L181
 1752              	.L177:
 582:.\Generated_Source\PSoC5/CyLib.c ****         CY_LIB_FASTCLK_IMO_CR_REG = ((CY_LIB_FASTCLK_IMO_CR_REG & CY_LIB_FASTCLK_IMO_CR_RANGE_MASK)
 1753              		.loc 1 582 0
 1754 0090 174B     		ldr	r3, .L186
 1755 0092 1A78     		ldrb	r2, [r3]	@ zero_extendqisi2
 1756 0094 02F0B802 		and	r2, r2, #184
 1757 0098 42F00402 		orr	r2, r2, #4
 1758 009c 1A70     		strb	r2, [r3]
 584:.\Generated_Source\PSoC5/CyLib.c ****         break;
ARM GAS  C:\Users\mitchell\AppData\Local\Temp\ccIjMaGi.s 			page 63


 1759              		.loc 1 584 0
 1760 009e 1AE0     		b	.L181
 1761              	.L178:
 587:.\Generated_Source\PSoC5/CyLib.c ****         CY_LIB_FASTCLK_IMO_CR_REG = ((CY_LIB_FASTCLK_IMO_CR_REG & CY_LIB_FASTCLK_IMO_CR_RANGE_MASK)
 1762              		.loc 1 587 0
 1763 00a0 134B     		ldr	r3, .L186
 1764 00a2 1A78     		ldrb	r2, [r3]	@ zero_extendqisi2
 1765 00a4 02F0B802 		and	r2, r2, #184
 1766 00a8 42F00502 		orr	r2, r2, #5
 1767 00ac 1A70     		strb	r2, [r3]
 589:.\Generated_Source\PSoC5/CyLib.c ****         break;
 1768              		.loc 1 589 0
 1769 00ae 12E0     		b	.L181
 1770              	.L179:
 593:.\Generated_Source\PSoC5/CyLib.c ****         CY_LIB_FASTCLK_IMO_CR_REG = ((CY_LIB_FASTCLK_IMO_CR_REG & CY_LIB_FASTCLK_IMO_CR_RANGE_MASK)
 1771              		.loc 1 593 0
 1772 00b0 0F4B     		ldr	r3, .L186
 1773 00b2 1A78     		ldrb	r2, [r3]	@ zero_extendqisi2
 1774 00b4 02F0B802 		and	r2, r2, #184
 1775 00b8 42F00602 		orr	r2, r2, #6
 1776 00bc 1A70     		strb	r2, [r3]
 595:.\Generated_Source\PSoC5/CyLib.c ****         break;
 1777              		.loc 1 595 0
 1778 00be 0AE0     		b	.L181
 1779              	.L180:
 599:.\Generated_Source\PSoC5/CyLib.c ****         CY_LIB_FASTCLK_IMO_CR_REG = ((CY_LIB_FASTCLK_IMO_CR_REG & CY_LIB_FASTCLK_IMO_CR_RANGE_MASK)
 1780              		.loc 1 599 0
 1781 00c0 0B4B     		ldr	r3, .L186
 1782 00c2 1A78     		ldrb	r2, [r3]	@ zero_extendqisi2
 1783 00c4 02F0B802 		and	r2, r2, #184
 1784 00c8 42F04202 		orr	r2, r2, #66
 1785 00cc 1A70     		strb	r2, [r3]
 601:.\Generated_Source\PSoC5/CyLib.c ****         break;
 1786              		.loc 1 601 0
 1787 00ce 02E0     		b	.L181
 1788              	.L171:
 604:.\Generated_Source\PSoC5/CyLib.c ****         CYASSERT(0u != 0u);
 1789              		.loc 1 604 0 discriminator 1
 1790 00d0 0020     		movs	r0, #0
 1791 00d2 FFF7FEFF 		bl	CyHalt
 1792              	.LVL95:
 1793              	.L181:
 609:.\Generated_Source\PSoC5/CyLib.c ****     if (freq == CY_IMO_FREQ_USB)
 1794              		.loc 1 609 0
 1795 00d6 082C     		cmp	r4, #8
 1796 00d8 02D1     		bne	.L182
 611:.\Generated_Source\PSoC5/CyLib.c ****         CyIMO_EnableDoubler();
 1797              		.loc 1 611 0
 1798 00da FFF7FEFF 		bl	CyIMO_EnableDoubler
 1799              	.LVL96:
 1800 00de 01E0     		b	.L183
 1801              	.L182:
 615:.\Generated_Source\PSoC5/CyLib.c ****         CyIMO_DisableDoubler();
 1802              		.loc 1 615 0
 1803 00e0 FFF7FEFF 		bl	CyIMO_DisableDoubler
 1804              	.LVL97:
 1805              	.L183:
ARM GAS  C:\Users\mitchell\AppData\Local\Temp\ccIjMaGi.s 			page 64


 618:.\Generated_Source\PSoC5/CyLib.c ****     if (nextFreq < currentFreq)
 1806              		.loc 1 618 0
 1807 00e4 B542     		cmp	r5, r6
 1808 00e6 02D9     		bls	.L162
 621:.\Generated_Source\PSoC5/CyLib.c ****         CyIMO_SetTrimValue(freq);
 1809              		.loc 1 621 0
 1810 00e8 2046     		mov	r0, r4
 1811 00ea FFF7FEFF 		bl	CyIMO_SetTrimValue
 1812              	.LVL98:
 1813              	.L162:
 1814 00ee 70BD     		pop	{r4, r5, r6, pc}
 1815              	.LVL99:
 1816              	.L187:
 1817              		.align	2
 1818              	.L186:
 1819 00f0 00420040 		.word	1073758720
 1820              		.cfi_endproc
 1821              	.LFE8:
 1822              		.size	CyIMO_SetFreq, .-CyIMO_SetFreq
 1823              		.section	.text.CyIMO_SetSource,"ax",%progbits
 1824              		.align	2
 1825              		.global	CyIMO_SetSource
 1826              		.thumb
 1827              		.thumb_func
 1828              		.type	CyIMO_SetSource, %function
 1829              	CyIMO_SetSource:
 1830              	.LFB9:
 654:.\Generated_Source\PSoC5/CyLib.c **** {
 1831              		.loc 1 654 0
 1832              		.cfi_startproc
 1833              		@ args = 0, pretend = 0, frame = 0
 1834              		@ frame_needed = 0, uses_anonymous_args = 0
 1835              	.LVL100:
 1836 0000 08B5     		push	{r3, lr}
 1837              		.cfi_def_cfa_offset 8
 1838              		.cfi_offset 3, -8
 1839              		.cfi_offset 14, -4
 655:.\Generated_Source\PSoC5/CyLib.c ****     switch(source)
 1840              		.loc 1 655 0
 1841 0002 0128     		cmp	r0, #1
 1842 0004 0FD0     		beq	.L190
 1843 0006 D8B1     		cbz	r0, .L191
 1844 0008 0228     		cmp	r0, #2
 1845 000a 1FD1     		bne	.L194
 658:.\Generated_Source\PSoC5/CyLib.c ****         CY_LIB_CLKDIST_CR_REG     &= ((uint8)(~CY_LIB_CLKDIST_CR_IMO2X));
 1846              		.loc 1 658 0
 1847 000c 4FF04023 		mov	r3, #1073758208
 1848 0010 1A78     		ldrb	r2, [r3]	@ zero_extendqisi2
 1849 0012 02F0BF02 		and	r2, r2, #191
 1850 0016 1A70     		strb	r2, [r3]
 659:.\Generated_Source\PSoC5/CyLib.c ****         CY_LIB_FASTCLK_IMO_CR_REG |= CY_LIB_FASTCLK_IMO_IMO;
 1851              		.loc 1 659 0
 1852 0018 03F50073 		add	r3, r3, #512
 1853 001c 1A78     		ldrb	r2, [r3]	@ zero_extendqisi2
 1854 001e 42F02002 		orr	r2, r2, #32
 1855 0022 1A70     		strb	r2, [r3]
 660:.\Generated_Source\PSoC5/CyLib.c ****         break;
ARM GAS  C:\Users\mitchell\AppData\Local\Temp\ccIjMaGi.s 			page 65


 1856              		.loc 1 660 0
 1857 0024 08BD     		pop	{r3, pc}
 1858              	.L190:
 663:.\Generated_Source\PSoC5/CyLib.c ****         CY_LIB_CLKDIST_CR_REG     |= CY_LIB_CLKDIST_CR_IMO2X;
 1859              		.loc 1 663 0
 1860 0026 4FF04023 		mov	r3, #1073758208
 1861 002a 1A78     		ldrb	r2, [r3]	@ zero_extendqisi2
 1862 002c 42F04002 		orr	r2, r2, #64
 1863 0030 1A70     		strb	r2, [r3]
 664:.\Generated_Source\PSoC5/CyLib.c ****         CY_LIB_FASTCLK_IMO_CR_REG |= CY_LIB_FASTCLK_IMO_IMO;
 1864              		.loc 1 664 0
 1865 0032 03F50073 		add	r3, r3, #512
 1866 0036 1A78     		ldrb	r2, [r3]	@ zero_extendqisi2
 1867 0038 42F02002 		orr	r2, r2, #32
 1868 003c 1A70     		strb	r2, [r3]
 665:.\Generated_Source\PSoC5/CyLib.c ****         break;
 1869              		.loc 1 665 0
 1870 003e 08BD     		pop	{r3, pc}
 1871              	.L191:
 668:.\Generated_Source\PSoC5/CyLib.c ****         CY_LIB_FASTCLK_IMO_CR_REG &= ((uint8)(~CY_LIB_FASTCLK_IMO_IMO));
 1872              		.loc 1 668 0
 1873 0040 044B     		ldr	r3, .L195
 1874 0042 1A78     		ldrb	r2, [r3]	@ zero_extendqisi2
 1875 0044 02F0DF02 		and	r2, r2, #223
 1876 0048 1A70     		strb	r2, [r3]
 669:.\Generated_Source\PSoC5/CyLib.c ****         break;
 1877              		.loc 1 669 0
 1878 004a 08BD     		pop	{r3, pc}
 1879              	.L194:
 673:.\Generated_Source\PSoC5/CyLib.c ****         CYASSERT(0u != 0u);
 1880              		.loc 1 673 0 discriminator 1
 1881 004c 0020     		movs	r0, #0
 1882              	.LVL101:
 1883 004e FFF7FEFF 		bl	CyHalt
 1884              	.LVL102:
 1885 0052 08BD     		pop	{r3, pc}
 1886              	.L196:
 1887              		.align	2
 1888              	.L195:
 1889 0054 00420040 		.word	1073758720
 1890              		.cfi_endproc
 1891              	.LFE9:
 1892              		.size	CyIMO_SetSource, .-CyIMO_SetSource
 1893              		.section	.text.CySoftwareReset,"ax",%progbits
 1894              		.align	2
 1895              		.global	CySoftwareReset
 1896              		.thumb
 1897              		.thumb_func
 1898              		.type	CySoftwareReset, %function
 1899              	CySoftwareReset:
 1900              	.LFB40:
1646:.\Generated_Source\PSoC5/CyLib.c ****     #elif defined(__C51__)
1647:.\Generated_Source\PSoC5/CyLib.c ****         CYDEV_HALT_CPU;
1648:.\Generated_Source\PSoC5/CyLib.c ****     #endif  /* (__ARMCC_VERSION) */
1649:.\Generated_Source\PSoC5/CyLib.c **** }
1650:.\Generated_Source\PSoC5/CyLib.c **** 
1651:.\Generated_Source\PSoC5/CyLib.c **** 
ARM GAS  C:\Users\mitchell\AppData\Local\Temp\ccIjMaGi.s 			page 66


1652:.\Generated_Source\PSoC5/CyLib.c **** /*******************************************************************************
1653:.\Generated_Source\PSoC5/CyLib.c **** * Function Name: CySoftwareReset
1654:.\Generated_Source\PSoC5/CyLib.c **** ********************************************************************************
1655:.\Generated_Source\PSoC5/CyLib.c **** *
1656:.\Generated_Source\PSoC5/CyLib.c **** * Summary:
1657:.\Generated_Source\PSoC5/CyLib.c **** *  Forces a device software reset.
1658:.\Generated_Source\PSoC5/CyLib.c **** *
1659:.\Generated_Source\PSoC5/CyLib.c **** * Parameters:
1660:.\Generated_Source\PSoC5/CyLib.c **** *  None
1661:.\Generated_Source\PSoC5/CyLib.c **** *
1662:.\Generated_Source\PSoC5/CyLib.c **** * Return:
1663:.\Generated_Source\PSoC5/CyLib.c **** *  None
1664:.\Generated_Source\PSoC5/CyLib.c **** *
1665:.\Generated_Source\PSoC5/CyLib.c **** *******************************************************************************/
1666:.\Generated_Source\PSoC5/CyLib.c **** void CySoftwareReset(void) 
1667:.\Generated_Source\PSoC5/CyLib.c **** {
 1901              		.loc 1 1667 0
 1902              		.cfi_startproc
 1903              		@ args = 0, pretend = 0, frame = 0
 1904              		@ frame_needed = 0, uses_anonymous_args = 0
 1905              		@ link register save eliminated.
1668:.\Generated_Source\PSoC5/CyLib.c ****     CY_LIB_RESET_CR2_REG |= CY_LIB_RESET_CR2_RESET;
 1906              		.loc 1 1668 0
 1907 0000 024B     		ldr	r3, .L198
 1908 0002 1A78     		ldrb	r2, [r3]	@ zero_extendqisi2
 1909 0004 42F00102 		orr	r2, r2, #1
 1910 0008 1A70     		strb	r2, [r3]
 1911 000a 7047     		bx	lr
 1912              	.L199:
 1913              		.align	2
 1914              	.L198:
 1915 000c F6460040 		.word	1073759990
 1916              		.cfi_endproc
 1917              	.LFE40:
 1918              		.size	CySoftwareReset, .-CySoftwareReset
 1919              		.section	.text.CyDelay,"ax",%progbits
 1920              		.align	2
 1921              		.global	CyDelay
 1922              		.thumb
 1923              		.thumb_func
 1924              		.type	CyDelay, %function
 1925              	CyDelay:
 1926              	.LFB41:
1669:.\Generated_Source\PSoC5/CyLib.c **** }
1670:.\Generated_Source\PSoC5/CyLib.c **** 
1671:.\Generated_Source\PSoC5/CyLib.c **** 
1672:.\Generated_Source\PSoC5/CyLib.c **** /*******************************************************************************
1673:.\Generated_Source\PSoC5/CyLib.c **** * Function Name: CyDelay
1674:.\Generated_Source\PSoC5/CyLib.c **** ********************************************************************************
1675:.\Generated_Source\PSoC5/CyLib.c **** *
1676:.\Generated_Source\PSoC5/CyLib.c **** * Summary:
1677:.\Generated_Source\PSoC5/CyLib.c **** *  Blocks for milliseconds.
1678:.\Generated_Source\PSoC5/CyLib.c **** *
1679:.\Generated_Source\PSoC5/CyLib.c **** *  Note:
1680:.\Generated_Source\PSoC5/CyLib.c **** *  CyDelay has been implemented with the instruction cache assumed enabled. When
1681:.\Generated_Source\PSoC5/CyLib.c **** *  the instruction cache is disabled on PSoC5, CyDelay will be two times larger.
1682:.\Generated_Source\PSoC5/CyLib.c **** *  For example, with instruction cache disabled CyDelay(100) would result in
ARM GAS  C:\Users\mitchell\AppData\Local\Temp\ccIjMaGi.s 			page 67


1683:.\Generated_Source\PSoC5/CyLib.c **** *  about 200 ms delay instead of 100 ms.
1684:.\Generated_Source\PSoC5/CyLib.c **** *
1685:.\Generated_Source\PSoC5/CyLib.c **** * Parameters:
1686:.\Generated_Source\PSoC5/CyLib.c **** *  milliseconds: number of milliseconds to delay.
1687:.\Generated_Source\PSoC5/CyLib.c **** *
1688:.\Generated_Source\PSoC5/CyLib.c **** * Return:
1689:.\Generated_Source\PSoC5/CyLib.c **** *   None
1690:.\Generated_Source\PSoC5/CyLib.c **** *
1691:.\Generated_Source\PSoC5/CyLib.c **** *******************************************************************************/
1692:.\Generated_Source\PSoC5/CyLib.c **** void CyDelay(uint32 milliseconds) CYREENTRANT
1693:.\Generated_Source\PSoC5/CyLib.c **** {
 1927              		.loc 1 1693 0
 1928              		.cfi_startproc
 1929              		@ args = 0, pretend = 0, frame = 0
 1930              		@ frame_needed = 0, uses_anonymous_args = 0
 1931              	.LVL103:
 1932 0000 38B5     		push	{r3, r4, r5, lr}
 1933              		.cfi_def_cfa_offset 16
 1934              		.cfi_offset 3, -16
 1935              		.cfi_offset 4, -12
 1936              		.cfi_offset 5, -8
 1937              		.cfi_offset 14, -4
 1938 0002 0446     		mov	r4, r0
1694:.\Generated_Source\PSoC5/CyLib.c ****     while (milliseconds > 32768u)
1695:.\Generated_Source\PSoC5/CyLib.c ****     {
1696:.\Generated_Source\PSoC5/CyLib.c ****         /***********************************************************************
1697:.\Generated_Source\PSoC5/CyLib.c ****         * This loop prevents overflow.At 100MHz, milliseconds * delay_freq_khz
1698:.\Generated_Source\PSoC5/CyLib.c ****         * overflows at about 42 seconds.
1699:.\Generated_Source\PSoC5/CyLib.c ****         ***********************************************************************/
1700:.\Generated_Source\PSoC5/CyLib.c ****         CyDelayCycles(cydelay_32k_ms);
 1939              		.loc 1 1700 0
 1940 0004 084D     		ldr	r5, .L203
1694:.\Generated_Source\PSoC5/CyLib.c ****     while (milliseconds > 32768u)
 1941              		.loc 1 1694 0
 1942 0006 04E0     		b	.L201
 1943              	.LVL104:
 1944              	.L202:
 1945              		.loc 1 1700 0
 1946 0008 2868     		ldr	r0, [r5]
 1947 000a FFF7FEFF 		bl	CyDelayCycles
 1948              	.LVL105:
1701:.\Generated_Source\PSoC5/CyLib.c ****         milliseconds = ((uint32)(milliseconds - 32768u));
 1949              		.loc 1 1701 0
 1950 000e A4F50044 		sub	r4, r4, #32768
 1951              	.LVL106:
 1952              	.L201:
1694:.\Generated_Source\PSoC5/CyLib.c ****     while (milliseconds > 32768u)
 1953              		.loc 1 1694 0 discriminator 1
 1954 0012 B4F5004F 		cmp	r4, #32768
 1955 0016 F7D8     		bhi	.L202
1702:.\Generated_Source\PSoC5/CyLib.c ****     }
1703:.\Generated_Source\PSoC5/CyLib.c **** 
1704:.\Generated_Source\PSoC5/CyLib.c ****     CyDelayCycles(milliseconds * cydelay_freq_khz);
 1956              		.loc 1 1704 0
 1957 0018 034B     		ldr	r3, .L203
 1958 001a 5868     		ldr	r0, [r3, #4]
 1959 001c 00FB04F0 		mul	r0, r0, r4
ARM GAS  C:\Users\mitchell\AppData\Local\Temp\ccIjMaGi.s 			page 68


 1960 0020 FFF7FEFF 		bl	CyDelayCycles
 1961              	.LVL107:
 1962 0024 38BD     		pop	{r3, r4, r5, pc}
 1963              	.LVL108:
 1964              	.L204:
 1965 0026 00BF     		.align	2
 1966              	.L203:
 1967 0028 00000000 		.word	.LANCHOR0
 1968              		.cfi_endproc
 1969              	.LFE41:
 1970              		.size	CyDelay, .-CyDelay
 1971              		.section	.text.CyDelayUs,"ax",%progbits
 1972              		.align	2
 1973              		.global	CyDelayUs
 1974              		.thumb
 1975              		.thumb_func
 1976              		.type	CyDelayUs, %function
 1977              	CyDelayUs:
 1978              	.LFB42:
1705:.\Generated_Source\PSoC5/CyLib.c **** }
1706:.\Generated_Source\PSoC5/CyLib.c **** 
1707:.\Generated_Source\PSoC5/CyLib.c **** 
1708:.\Generated_Source\PSoC5/CyLib.c **** #if(!CY_PSOC3)
1709:.\Generated_Source\PSoC5/CyLib.c **** 
1710:.\Generated_Source\PSoC5/CyLib.c ****     /* For PSoC3 devices function is defined in CyBootAsmKeil.a51 file */
1711:.\Generated_Source\PSoC5/CyLib.c **** 
1712:.\Generated_Source\PSoC5/CyLib.c ****     /*******************************************************************************
1713:.\Generated_Source\PSoC5/CyLib.c ****     * Function Name: CyDelayUs
1714:.\Generated_Source\PSoC5/CyLib.c ****     ********************************************************************************
1715:.\Generated_Source\PSoC5/CyLib.c ****     *
1716:.\Generated_Source\PSoC5/CyLib.c ****     * Summary:
1717:.\Generated_Source\PSoC5/CyLib.c ****     *  Blocks for microseconds.
1718:.\Generated_Source\PSoC5/CyLib.c ****     *
1719:.\Generated_Source\PSoC5/CyLib.c ****     *  Note:
1720:.\Generated_Source\PSoC5/CyLib.c ****     *   CyDelay has been implemented with the instruction cache assumed enabled.
1721:.\Generated_Source\PSoC5/CyLib.c ****     *   When instruction cache is disabled on PSoC5, CyDelayUs will be two times
1722:.\Generated_Source\PSoC5/CyLib.c ****     *   larger. Ex: With instruction cache disabled CyDelayUs(100) would result
1723:.\Generated_Source\PSoC5/CyLib.c ****     *   in about 200us delay instead of 100us.
1724:.\Generated_Source\PSoC5/CyLib.c ****     *
1725:.\Generated_Source\PSoC5/CyLib.c ****     * Parameters:
1726:.\Generated_Source\PSoC5/CyLib.c ****     *  uint16 microseconds: number of microseconds to delay.
1727:.\Generated_Source\PSoC5/CyLib.c ****     *
1728:.\Generated_Source\PSoC5/CyLib.c ****     * Return:
1729:.\Generated_Source\PSoC5/CyLib.c ****     *  None
1730:.\Generated_Source\PSoC5/CyLib.c ****     *
1731:.\Generated_Source\PSoC5/CyLib.c ****     * Side Effects:
1732:.\Generated_Source\PSoC5/CyLib.c ****     *  CyDelayUS has been implemented with the instruction cache assumed enabled.
1733:.\Generated_Source\PSoC5/CyLib.c ****     *  When the instruction cache is disabled on PSoC 5, CyDelayUs will be two times
1734:.\Generated_Source\PSoC5/CyLib.c ****     *  larger. For example, with the instruction cache disabled CyDelayUs(100) would
1735:.\Generated_Source\PSoC5/CyLib.c ****     *  result in about 200 us delay instead of 100 us.
1736:.\Generated_Source\PSoC5/CyLib.c ****     *
1737:.\Generated_Source\PSoC5/CyLib.c ****     *  If the bus clock frequency is a small non-integer number, the actual delay
1738:.\Generated_Source\PSoC5/CyLib.c ****     *  can be up to twice as long as the nominal value. The actual delay cannot be
1739:.\Generated_Source\PSoC5/CyLib.c ****     *  shorter than the nominal one.
1740:.\Generated_Source\PSoC5/CyLib.c ****     *******************************************************************************/
1741:.\Generated_Source\PSoC5/CyLib.c ****     void CyDelayUs(uint16 microseconds) CYREENTRANT
1742:.\Generated_Source\PSoC5/CyLib.c ****     {
ARM GAS  C:\Users\mitchell\AppData\Local\Temp\ccIjMaGi.s 			page 69


 1979              		.loc 1 1742 0
 1980              		.cfi_startproc
 1981              		@ args = 0, pretend = 0, frame = 0
 1982              		@ frame_needed = 0, uses_anonymous_args = 0
 1983              	.LVL109:
 1984 0000 08B5     		push	{r3, lr}
 1985              		.cfi_def_cfa_offset 8
 1986              		.cfi_offset 3, -8
 1987              		.cfi_offset 14, -4
1743:.\Generated_Source\PSoC5/CyLib.c ****         CyDelayCycles((uint32)microseconds * cydelay_freq_mhz);
 1988              		.loc 1 1743 0
 1989 0002 034B     		ldr	r3, .L206
 1990 0004 1B7A     		ldrb	r3, [r3, #8]	@ zero_extendqisi2
 1991 0006 03FB00F0 		mul	r0, r3, r0
 1992              	.LVL110:
 1993 000a FFF7FEFF 		bl	CyDelayCycles
 1994              	.LVL111:
 1995 000e 08BD     		pop	{r3, pc}
 1996              	.L207:
 1997              		.align	2
 1998              	.L206:
 1999 0010 00000000 		.word	.LANCHOR0
 2000              		.cfi_endproc
 2001              	.LFE42:
 2002              		.size	CyDelayUs, .-CyDelayUs
 2003              		.section	.text.CyXTAL_32KHZ_SetPowerMode,"ax",%progbits
 2004              		.align	2
 2005              		.global	CyXTAL_32KHZ_SetPowerMode
 2006              		.thumb
 2007              		.thumb_func
 2008              		.type	CyXTAL_32KHZ_SetPowerMode, %function
 2009              	CyXTAL_32KHZ_SetPowerMode:
 2010              	.LFB28:
1279:.\Generated_Source\PSoC5/CyLib.c **** {
 2011              		.loc 1 1279 0
 2012              		.cfi_startproc
 2013              		@ args = 0, pretend = 0, frame = 0
 2014              		@ frame_needed = 0, uses_anonymous_args = 0
 2015              	.LVL112:
 2016 0000 10B5     		push	{r4, lr}
 2017              		.cfi_def_cfa_offset 8
 2018              		.cfi_offset 4, -8
 2019              		.cfi_offset 14, -4
1280:.\Generated_Source\PSoC5/CyLib.c ****     uint8 state = (0u != (CY_CLK_XTAL32_CR_REG & CY_CLK_XTAL32_CR_LPM)) ? 1u : 0u;
 2020              		.loc 1 1280 0
 2021 0002 1C4B     		ldr	r3, .L213
 2022 0004 1B78     		ldrb	r3, [r3]	@ zero_extendqisi2
 2023 0006 13F0020F 		tst	r3, #2
 2024 000a 01D0     		beq	.L212
 2025 000c 0124     		movs	r4, #1
 2026 000e 00E0     		b	.L209
 2027              	.L212:
 2028 0010 0024     		movs	r4, #0
 2029              	.L209:
 2030              	.LVL113:
1282:.\Generated_Source\PSoC5/CyLib.c ****     CY_CLK_XTAL32_TST_REG = CY_CLK_XTAL32_TST_DEFAULT;
 2031              		.loc 1 1282 0 discriminator 3
ARM GAS  C:\Users\mitchell\AppData\Local\Temp\ccIjMaGi.s 			page 70


 2032 0012 F322     		movs	r2, #243
 2033 0014 184B     		ldr	r3, .L213+4
 2034 0016 1A70     		strb	r2, [r3]
1284:.\Generated_Source\PSoC5/CyLib.c ****     if(1u == mode)
 2035              		.loc 1 1284 0 discriminator 3
 2036 0018 0128     		cmp	r0, #1
 2037 001a 16D1     		bne	.L210
1287:.\Generated_Source\PSoC5/CyLib.c ****         CY_CLK_XTAL32_TR_REG  = CY_CLK_XTAL32_TR_LOW_POWER;
 2038              		.loc 1 1287 0
 2039 001c 0122     		movs	r2, #1
 2040 001e 03F28E33 		addw	r3, r3, #910
 2041 0022 1A70     		strb	r2, [r3]
1288:.\Generated_Source\PSoC5/CyLib.c ****         CyDelayUs(10u);
 2042              		.loc 1 1288 0
 2043 0024 0A20     		movs	r0, #10
 2044              	.LVL114:
 2045 0026 FFF7FEFF 		bl	CyDelayUs
 2046              	.LVL115:
1289:.\Generated_Source\PSoC5/CyLib.c ****         CY_CLK_XTAL32_CFG_REG = (CY_CLK_XTAL32_CFG_REG & ((uint8)(~CY_CLK_XTAL32_CFG_LP_MASK))) |
 2047              		.loc 1 1289 0
 2048 002a 144B     		ldr	r3, .L213+8
 2049 002c 1A78     		ldrb	r2, [r3]	@ zero_extendqisi2
 2050 002e 02F0F302 		and	r2, r2, #243
 2051 0032 42F00802 		orr	r2, r2, #8
 2052 0036 1A70     		strb	r2, [r3]
1291:.\Generated_Source\PSoC5/CyLib.c ****         CyDelayUs(20u);
 2053              		.loc 1 1291 0
 2054 0038 1420     		movs	r0, #20
 2055 003a FFF7FEFF 		bl	CyDelayUs
 2056              	.LVL116:
1292:.\Generated_Source\PSoC5/CyLib.c ****         CY_CLK_XTAL32_CR_REG |= CY_CLK_XTAL32_CR_LPM;
 2057              		.loc 1 1292 0
 2058 003e 0D4B     		ldr	r3, .L213
 2059 0040 1A78     		ldrb	r2, [r3]	@ zero_extendqisi2
 2060 0042 42F00202 		orr	r2, r2, #2
 2061 0046 1A70     		strb	r2, [r3]
 2062 0048 11E0     		b	.L211
 2063              	.LVL117:
 2064              	.L210:
1297:.\Generated_Source\PSoC5/CyLib.c ****         CY_CLK_XTAL32_TR_REG  = CY_CLK_XTAL32_TR_HIGH_POWER;
 2065              		.loc 1 1297 0
 2066 004a 0622     		movs	r2, #6
 2067 004c 0C4B     		ldr	r3, .L213+12
 2068 004e 1A70     		strb	r2, [r3]
1298:.\Generated_Source\PSoC5/CyLib.c ****         CyDelayUs(10u);
 2069              		.loc 1 1298 0
 2070 0050 0A20     		movs	r0, #10
 2071              	.LVL118:
 2072 0052 FFF7FEFF 		bl	CyDelayUs
 2073              	.LVL119:
1299:.\Generated_Source\PSoC5/CyLib.c ****         CY_CLK_XTAL32_CFG_REG = (CY_CLK_XTAL32_CFG_REG & ((uint8)(~CY_CLK_XTAL32_CFG_LP_MASK))) |
 2074              		.loc 1 1299 0
 2075 0056 094B     		ldr	r3, .L213+8
 2076 0058 1A78     		ldrb	r2, [r3]	@ zero_extendqisi2
 2077 005a 02F0F302 		and	r2, r2, #243
 2078 005e 42F00402 		orr	r2, r2, #4
 2079 0062 1A70     		strb	r2, [r3]
ARM GAS  C:\Users\mitchell\AppData\Local\Temp\ccIjMaGi.s 			page 71


1301:.\Generated_Source\PSoC5/CyLib.c ****         CY_CLK_XTAL32_CR_REG &= ((uint8)(~CY_CLK_XTAL32_CR_LPM));
 2080              		.loc 1 1301 0
 2081 0064 013B     		subs	r3, r3, #1
 2082 0066 1A78     		ldrb	r2, [r3]	@ zero_extendqisi2
 2083 0068 02F0FD02 		and	r2, r2, #253
 2084 006c 1A70     		strb	r2, [r3]
 2085              	.L211:
1305:.\Generated_Source\PSoC5/CyLib.c **** }
 2086              		.loc 1 1305 0
 2087 006e 2046     		mov	r0, r4
 2088 0070 10BD     		pop	{r4, pc}
 2089              	.LVL120:
 2090              	.L214:
 2091 0072 00BF     		.align	2
 2092              	.L213:
 2093 0074 08430040 		.word	1073758984
 2094 0078 0A430040 		.word	1073758986
 2095 007c 09430040 		.word	1073758985
 2096 0080 98460040 		.word	1073759896
 2097              		.cfi_endproc
 2098              	.LFE28:
 2099              		.size	CyXTAL_32KHZ_SetPowerMode, .-CyXTAL_32KHZ_SetPowerMode
 2100              		.section	.text.CyXTAL_32KHZ_Start,"ax",%progbits
 2101              		.align	2
 2102              		.global	CyXTAL_32KHZ_Start
 2103              		.thumb
 2104              		.thumb_func
 2105              		.type	CyXTAL_32KHZ_Start, %function
 2106              	CyXTAL_32KHZ_Start:
 2107              	.LFB25:
1180:.\Generated_Source\PSoC5/CyLib.c **** {
 2108              		.loc 1 1180 0
 2109              		.cfi_startproc
 2110              		@ args = 0, pretend = 0, frame = 8
 2111              		@ frame_needed = 0, uses_anonymous_args = 0
 2112 0000 10B5     		push	{r4, lr}
 2113              		.cfi_def_cfa_offset 8
 2114              		.cfi_offset 4, -8
 2115              		.cfi_offset 14, -4
 2116 0002 82B0     		sub	sp, sp, #8
 2117              		.cfi_def_cfa_offset 16
1183:.\Generated_Source\PSoC5/CyLib.c ****     CY_CLK_XTAL32_TST_REG = CY_CLK_XTAL32_TST_DEFAULT;
 2118              		.loc 1 1183 0
 2119 0004 F322     		movs	r2, #243
 2120 0006 194B     		ldr	r3, .L220
 2121 0008 1A70     		strb	r2, [r3]
1184:.\Generated_Source\PSoC5/CyLib.c ****     CY_CLK_XTAL32_TR_REG  = CY_CLK_XTAL32_TR_STARTUP;
 2122              		.loc 1 1184 0
 2123 000a 0322     		movs	r2, #3
 2124 000c 03F28E33 		addw	r3, r3, #910
 2125 0010 1A70     		strb	r2, [r3]
1185:.\Generated_Source\PSoC5/CyLib.c ****     CY_CLK_XTAL32_CFG_REG = (CY_CLK_XTAL32_CFG_REG & ((uint8)(~CY_CLK_XTAL32_CFG_LP_MASK))) |
 2126              		.loc 1 1185 0
 2127 0012 A3F28F33 		subw	r3, r3, #911
 2128 0016 1A78     		ldrb	r2, [r3]	@ zero_extendqisi2
 2129 0018 02F0F302 		and	r2, r2, #243
 2130 001c 42F00402 		orr	r2, r2, #4
ARM GAS  C:\Users\mitchell\AppData\Local\Temp\ccIjMaGi.s 			page 72


 2131 0020 1A70     		strb	r2, [r3]
1193:.\Generated_Source\PSoC5/CyLib.c ****     CY_CLK_XTAL32_CR_REG |= CY_CLK_XTAL32_CR_EN;
 2132              		.loc 1 1193 0
 2133 0022 013B     		subs	r3, r3, #1
 2134 0024 1A78     		ldrb	r2, [r3]	@ zero_extendqisi2
 2135 0026 42F00102 		orr	r2, r2, #1
 2136 002a 1A70     		strb	r2, [r3]
1195:.\Generated_Source\PSoC5/CyLib.c ****     for (i = 1000u; i > 0u; i--)
 2137              		.loc 1 1195 0
 2138 002c 4FF47A73 		mov	r3, #1000
 2139 0030 ADF80630 		strh	r3, [sp, #6]	@ movhi
1204:.\Generated_Source\PSoC5/CyLib.c ****         CyDelayUs(1u);
 2140              		.loc 1 1204 0
 2141 0034 0124     		movs	r4, #1
1195:.\Generated_Source\PSoC5/CyLib.c ****     for (i = 1000u; i > 0u; i--)
 2142              		.loc 1 1195 0
 2143 0036 11E0     		b	.L216
 2144              	.L219:
1197:.\Generated_Source\PSoC5/CyLib.c ****         if(0u != (CyXTAL_32KHZ_ReadStatus() & CY_XTAL32K_ANA_STAT))
 2145              		.loc 1 1197 0
 2146 0038 FFF7FEFF 		bl	CyXTAL_32KHZ_ReadStatus
 2147              	.LVL121:
 2148 003c 10F0200F 		tst	r0, #32
 2149 0040 03D0     		beq	.L217
1200:.\Generated_Source\PSoC5/CyLib.c ****             (void) CyXTAL_32KHZ_SetPowerMode(0u);
 2150              		.loc 1 1200 0
 2151 0042 0020     		movs	r0, #0
 2152 0044 FFF7FEFF 		bl	CyXTAL_32KHZ_SetPowerMode
 2153              	.LVL122:
1202:.\Generated_Source\PSoC5/CyLib.c ****             break;
 2154              		.loc 1 1202 0
 2155 0048 0DE0     		b	.L215
 2156              	.L217:
1204:.\Generated_Source\PSoC5/CyLib.c ****         CyDelayUs(1u);
 2157              		.loc 1 1204 0
 2158 004a 2046     		mov	r0, r4
 2159 004c FFF7FEFF 		bl	CyDelayUs
 2160              	.LVL123:
1195:.\Generated_Source\PSoC5/CyLib.c ****     for (i = 1000u; i > 0u; i--)
 2161              		.loc 1 1195 0
 2162 0050 BDF80630 		ldrh	r3, [sp, #6]
 2163 0054 013B     		subs	r3, r3, #1
 2164 0056 9BB2     		uxth	r3, r3
 2165 0058 ADF80630 		strh	r3, [sp, #6]	@ movhi
 2166              	.L216:
1195:.\Generated_Source\PSoC5/CyLib.c ****     for (i = 1000u; i > 0u; i--)
 2167              		.loc 1 1195 0 is_stmt 0 discriminator 1
 2168 005c BDF80630 		ldrh	r3, [sp, #6]
 2169 0060 9BB2     		uxth	r3, r3
 2170 0062 002B     		cmp	r3, #0
 2171 0064 E8D1     		bne	.L219
 2172              	.L215:
1206:.\Generated_Source\PSoC5/CyLib.c **** }
 2173              		.loc 1 1206 0 is_stmt 1
 2174 0066 02B0     		add	sp, sp, #8
 2175              		@ sp needed
 2176 0068 10BD     		pop	{r4, pc}
ARM GAS  C:\Users\mitchell\AppData\Local\Temp\ccIjMaGi.s 			page 73


 2177              	.L221:
 2178 006a 00BF     		.align	2
 2179              	.L220:
 2180 006c 0A430040 		.word	1073758986
 2181              		.cfi_endproc
 2182              	.LFE25:
 2183              		.size	CyXTAL_32KHZ_Start, .-CyXTAL_32KHZ_Start
 2184              		.section	.text.CyDelayFreq,"ax",%progbits
 2185              		.align	2
 2186              		.global	CyDelayFreq
 2187              		.thumb
 2188              		.thumb_func
 2189              		.type	CyDelayFreq, %function
 2190              	CyDelayFreq:
 2191              	.LFB43:
1744:.\Generated_Source\PSoC5/CyLib.c ****     }
1745:.\Generated_Source\PSoC5/CyLib.c **** 
1746:.\Generated_Source\PSoC5/CyLib.c **** #endif  /* (!CY_PSOC3) */
1747:.\Generated_Source\PSoC5/CyLib.c **** 
1748:.\Generated_Source\PSoC5/CyLib.c **** 
1749:.\Generated_Source\PSoC5/CyLib.c **** /*******************************************************************************
1750:.\Generated_Source\PSoC5/CyLib.c **** * Function Name: CyDelayFreq
1751:.\Generated_Source\PSoC5/CyLib.c **** ********************************************************************************
1752:.\Generated_Source\PSoC5/CyLib.c **** *
1753:.\Generated_Source\PSoC5/CyLib.c **** * Summary:
1754:.\Generated_Source\PSoC5/CyLib.c **** *  Sets the clock frequency for CyDelay.
1755:.\Generated_Source\PSoC5/CyLib.c **** *
1756:.\Generated_Source\PSoC5/CyLib.c **** * Parameters:
1757:.\Generated_Source\PSoC5/CyLib.c **** *  freq: The frequency of the bus clock in Hertz.
1758:.\Generated_Source\PSoC5/CyLib.c **** *
1759:.\Generated_Source\PSoC5/CyLib.c **** * Return:
1760:.\Generated_Source\PSoC5/CyLib.c **** *  None
1761:.\Generated_Source\PSoC5/CyLib.c **** *
1762:.\Generated_Source\PSoC5/CyLib.c **** *******************************************************************************/
1763:.\Generated_Source\PSoC5/CyLib.c **** void CyDelayFreq(uint32 freq) CYREENTRANT
1764:.\Generated_Source\PSoC5/CyLib.c **** {
 2192              		.loc 1 1764 0
 2193              		.cfi_startproc
 2194              		@ args = 0, pretend = 0, frame = 0
 2195              		@ frame_needed = 0, uses_anonymous_args = 0
 2196              		@ link register save eliminated.
 2197              	.LVL124:
 2198 0000 10B4     		push	{r4}
 2199              		.cfi_def_cfa_offset 4
 2200              		.cfi_offset 4, -4
1765:.\Generated_Source\PSoC5/CyLib.c ****     if (freq != 0u)
 2201              		.loc 1 1765 0
 2202 0002 10B1     		cbz	r0, .L223
1766:.\Generated_Source\PSoC5/CyLib.c ****     {
1767:.\Generated_Source\PSoC5/CyLib.c ****         cydelay_freq_hz = freq;
 2203              		.loc 1 1767 0
 2204 0004 0E4A     		ldr	r2, .L225
 2205 0006 D060     		str	r0, [r2, #12]
 2206 0008 02E0     		b	.L224
 2207              	.L223:
1768:.\Generated_Source\PSoC5/CyLib.c ****     }
1769:.\Generated_Source\PSoC5/CyLib.c ****     else
ARM GAS  C:\Users\mitchell\AppData\Local\Temp\ccIjMaGi.s 			page 74


1770:.\Generated_Source\PSoC5/CyLib.c ****     {
1771:.\Generated_Source\PSoC5/CyLib.c ****         cydelay_freq_hz = BCLK__BUS_CLK__HZ;
 2208              		.loc 1 1771 0
 2209 000a 0E4A     		ldr	r2, .L225+4
 2210 000c 0C4B     		ldr	r3, .L225
 2211 000e DA60     		str	r2, [r3, #12]
 2212              	.L224:
1772:.\Generated_Source\PSoC5/CyLib.c ****     }
1773:.\Generated_Source\PSoC5/CyLib.c **** 
1774:.\Generated_Source\PSoC5/CyLib.c ****     cydelay_freq_mhz = (uint8)((cydelay_freq_hz + 999999u) / 1000000u);
 2213              		.loc 1 1774 0
 2214 0010 0B4B     		ldr	r3, .L225
 2215 0012 D968     		ldr	r1, [r3, #12]
 2216 0014 01F57422 		add	r2, r1, #999424
 2217 0018 02F23F22 		addw	r2, r2, #575
 2218 001c 0A48     		ldr	r0, .L225+8
 2219              	.LVL125:
 2220 001e A0FB0242 		umull	r4, r2, r0, r2
 2221 0022 C2F38742 		ubfx	r2, r2, #18, #8
 2222 0026 1A72     		strb	r2, [r3, #8]
1775:.\Generated_Source\PSoC5/CyLib.c ****     cydelay_freq_khz = (cydelay_freq_hz + 999u) / 1000u;
 2223              		.loc 1 1775 0
 2224 0028 01F2E732 		addw	r2, r1, #999
 2225 002c 0748     		ldr	r0, .L225+12
 2226 002e A0FB0212 		umull	r1, r2, r0, r2
 2227 0032 9209     		lsrs	r2, r2, #6
 2228 0034 5A60     		str	r2, [r3, #4]
1776:.\Generated_Source\PSoC5/CyLib.c ****     cydelay_32k_ms   = 32768u * cydelay_freq_khz;
 2229              		.loc 1 1776 0
 2230 0036 D203     		lsls	r2, r2, #15
 2231 0038 1A60     		str	r2, [r3]
1777:.\Generated_Source\PSoC5/CyLib.c **** }
 2232              		.loc 1 1777 0
 2233 003a 5DF8044B 		ldr	r4, [sp], #4
 2234 003e 7047     		bx	lr
 2235              	.L226:
 2236              		.align	2
 2237              	.L225:
 2238 0040 00000000 		.word	.LANCHOR0
 2239 0044 00366E01 		.word	24000000
 2240 0048 83DE1B43 		.word	1125899907
 2241 004c D34D6210 		.word	274877907
 2242              		.cfi_endproc
 2243              	.LFE43:
 2244              		.size	CyDelayFreq, .-CyDelayFreq
 2245              		.section	.text.CyWdtStart,"ax",%progbits
 2246              		.align	2
 2247              		.global	CyWdtStart
 2248              		.thumb
 2249              		.thumb_func
 2250              		.type	CyWdtStart, %function
 2251              	CyWdtStart:
 2252              	.LFB44:
1778:.\Generated_Source\PSoC5/CyLib.c **** 
1779:.\Generated_Source\PSoC5/CyLib.c **** 
1780:.\Generated_Source\PSoC5/CyLib.c **** /*******************************************************************************
1781:.\Generated_Source\PSoC5/CyLib.c **** * Function Name: CyWdtStart
ARM GAS  C:\Users\mitchell\AppData\Local\Temp\ccIjMaGi.s 			page 75


1782:.\Generated_Source\PSoC5/CyLib.c **** ********************************************************************************
1783:.\Generated_Source\PSoC5/CyLib.c **** *
1784:.\Generated_Source\PSoC5/CyLib.c **** * Summary:
1785:.\Generated_Source\PSoC5/CyLib.c **** *  Enables the watchdog timer.
1786:.\Generated_Source\PSoC5/CyLib.c **** *
1787:.\Generated_Source\PSoC5/CyLib.c **** *  The timer is configured for the specified count interval, the central
1788:.\Generated_Source\PSoC5/CyLib.c **** *  timewheel is cleared, the setting for the low power mode is configured and
1789:.\Generated_Source\PSoC5/CyLib.c **** *  the watchdog timer is enabled.
1790:.\Generated_Source\PSoC5/CyLib.c **** *
1791:.\Generated_Source\PSoC5/CyLib.c **** *  Once enabled the watchdog cannot be disabled. The watchdog counts each time
1792:.\Generated_Source\PSoC5/CyLib.c **** *  the Central Time Wheel (CTW) reaches the period specified. The watchdog must
1793:.\Generated_Source\PSoC5/CyLib.c **** *  be cleared using the CyWdtClear() function before three ticks of the watchdog
1794:.\Generated_Source\PSoC5/CyLib.c **** *  timer occur. The CTW is free running, so this will occur after between 2 and
1795:.\Generated_Source\PSoC5/CyLib.c **** *  3 timer periods elapse.
1796:.\Generated_Source\PSoC5/CyLib.c **** *
1797:.\Generated_Source\PSoC5/CyLib.c **** *  PSoC5: The watchdog timer should not be used during sleep modes. Since the
1798:.\Generated_Source\PSoC5/CyLib.c **** *  WDT cannot be disabled after it is enabled, the WDT timeout period can be
1799:.\Generated_Source\PSoC5/CyLib.c **** *  set to be greater than the sleep wakeup period, then feed the dog on each
1800:.\Generated_Source\PSoC5/CyLib.c **** *  wakeup from Sleep.
1801:.\Generated_Source\PSoC5/CyLib.c **** *
1802:.\Generated_Source\PSoC5/CyLib.c **** * Parameters:
1803:.\Generated_Source\PSoC5/CyLib.c **** *  ticks: One of the four available timer periods. Once WDT enabled, the
1804:.\Generated_Source\PSoC5/CyLib.c ****    interval cannot be changed.
1805:.\Generated_Source\PSoC5/CyLib.c **** *         CYWDT_2_TICKS     -     4 - 6     ms
1806:.\Generated_Source\PSoC5/CyLib.c **** *         CYWDT_16_TICKS    -    32 - 48    ms
1807:.\Generated_Source\PSoC5/CyLib.c **** *         CYWDT_128_TICKS   -   256 - 384   ms
1808:.\Generated_Source\PSoC5/CyLib.c **** *         CYWDT_1024_TICKS  - 2.048 - 3.072 s
1809:.\Generated_Source\PSoC5/CyLib.c **** *
1810:.\Generated_Source\PSoC5/CyLib.c **** *  lpMode: Low power mode configuration. This parameter is ignored for PSoC 5.
1811:.\Generated_Source\PSoC5/CyLib.c **** *          The WDT always acts as if CYWDT_LPMODE_NOCHANGE is passed.
1812:.\Generated_Source\PSoC5/CyLib.c **** *
1813:.\Generated_Source\PSoC5/CyLib.c **** *          CYWDT_LPMODE_NOCHANGE - No Change
1814:.\Generated_Source\PSoC5/CyLib.c **** *          CYWDT_LPMODE_MAXINTER - Switch to longest timer mode during low power
1815:.\Generated_Source\PSoC5/CyLib.c **** *                                 mode
1816:.\Generated_Source\PSoC5/CyLib.c **** *          CYWDT_LPMODE_DISABLED - Disable WDT during low power mode
1817:.\Generated_Source\PSoC5/CyLib.c **** *
1818:.\Generated_Source\PSoC5/CyLib.c **** * Return:
1819:.\Generated_Source\PSoC5/CyLib.c **** *  None
1820:.\Generated_Source\PSoC5/CyLib.c **** *
1821:.\Generated_Source\PSoC5/CyLib.c **** * Side Effects:
1822:.\Generated_Source\PSoC5/CyLib.c **** *  PSoC5: The ILO 1 KHz must be enabled for proper WDT operation. Stopping the
1823:.\Generated_Source\PSoC5/CyLib.c **** *  ILO 1 kHz could break the active WDT functionality.
1824:.\Generated_Source\PSoC5/CyLib.c **** *
1825:.\Generated_Source\PSoC5/CyLib.c **** *******************************************************************************/
1826:.\Generated_Source\PSoC5/CyLib.c **** void CyWdtStart(uint8 ticks, uint8 lpMode) 
1827:.\Generated_Source\PSoC5/CyLib.c **** {
 2253              		.loc 1 1827 0
 2254              		.cfi_startproc
 2255              		@ args = 0, pretend = 0, frame = 0
 2256              		@ frame_needed = 0, uses_anonymous_args = 0
 2257              		@ link register save eliminated.
 2258              	.LVL126:
1828:.\Generated_Source\PSoC5/CyLib.c ****     /* Set WDT interval */
1829:.\Generated_Source\PSoC5/CyLib.c ****     CY_WDT_CFG_REG = (CY_WDT_CFG_REG & ((uint8)(~CY_WDT_CFG_INTERVAL_MASK))) | (ticks & CY_WDT_CFG_
 2259              		.loc 1 1829 0
 2260 0000 0E4B     		ldr	r3, .L228
 2261 0002 1A78     		ldrb	r2, [r3]	@ zero_extendqisi2
ARM GAS  C:\Users\mitchell\AppData\Local\Temp\ccIjMaGi.s 			page 76


 2262 0004 02F0FC02 		and	r2, r2, #252
 2263 0008 00F00300 		and	r0, r0, #3
 2264              	.LVL127:
 2265 000c 0243     		orrs	r2, r2, r0
 2266 000e 1A70     		strb	r2, [r3]
1830:.\Generated_Source\PSoC5/CyLib.c **** 
1831:.\Generated_Source\PSoC5/CyLib.c ****     /* Reset CTW to ensure that first watchdog period is full */
1832:.\Generated_Source\PSoC5/CyLib.c ****     CY_WDT_CFG_REG |= CY_WDT_CFG_CTW_RESET;
 2267              		.loc 1 1832 0
 2268 0010 1A78     		ldrb	r2, [r3]	@ zero_extendqisi2
 2269 0012 42F08002 		orr	r2, r2, #128
 2270 0016 1A70     		strb	r2, [r3]
1833:.\Generated_Source\PSoC5/CyLib.c ****     CY_WDT_CFG_REG &= ((uint8)(~CY_WDT_CFG_CTW_RESET));
 2271              		.loc 1 1833 0
 2272 0018 1A78     		ldrb	r2, [r3]	@ zero_extendqisi2
 2273 001a 02F07F02 		and	r2, r2, #127
 2274 001e 1A70     		strb	r2, [r3]
1834:.\Generated_Source\PSoC5/CyLib.c **** 
1835:.\Generated_Source\PSoC5/CyLib.c ****     /* Setting low power mode */
1836:.\Generated_Source\PSoC5/CyLib.c ****     CY_WDT_CFG_REG = (((uint8)(lpMode << CY_WDT_CFG_LPMODE_SHIFT)) & CY_WDT_CFG_LPMODE_MASK) |
 2275              		.loc 1 1836 0
 2276 0020 4901     		lsls	r1, r1, #5
 2277              	.LVL128:
1837:.\Generated_Source\PSoC5/CyLib.c ****                        (CY_WDT_CFG_REG & ((uint8)(~CY_WDT_CFG_LPMODE_MASK)));
 2278              		.loc 1 1837 0
 2279 0022 1878     		ldrb	r0, [r3]	@ zero_extendqisi2
1836:.\Generated_Source\PSoC5/CyLib.c ****     CY_WDT_CFG_REG = (((uint8)(lpMode << CY_WDT_CFG_LPMODE_SHIFT)) & CY_WDT_CFG_LPMODE_MASK) |
 2280              		.loc 1 1836 0
 2281 0024 01F06002 		and	r2, r1, #96
 2282 0028 00F09F00 		and	r0, r0, #159
 2283 002c 0243     		orrs	r2, r2, r0
 2284 002e 1A70     		strb	r2, [r3]
1838:.\Generated_Source\PSoC5/CyLib.c **** 
1839:.\Generated_Source\PSoC5/CyLib.c ****     /* Enables watchdog reset */
1840:.\Generated_Source\PSoC5/CyLib.c ****     CY_WDT_CFG_REG |= CY_WDT_CFG_WDR_EN;
 2285              		.loc 1 1840 0
 2286 0030 1A78     		ldrb	r2, [r3]	@ zero_extendqisi2
 2287 0032 42F01002 		orr	r2, r2, #16
 2288 0036 1A70     		strb	r2, [r3]
 2289 0038 7047     		bx	lr
 2290              	.L229:
 2291 003a 00BF     		.align	2
 2292              	.L228:
 2293 003c 83430040 		.word	1073759107
 2294              		.cfi_endproc
 2295              	.LFE44:
 2296              		.size	CyWdtStart, .-CyWdtStart
 2297              		.section	.text.CyWdtClear,"ax",%progbits
 2298              		.align	2
 2299              		.global	CyWdtClear
 2300              		.thumb
 2301              		.thumb_func
 2302              		.type	CyWdtClear, %function
 2303              	CyWdtClear:
 2304              	.LFB45:
1841:.\Generated_Source\PSoC5/CyLib.c **** }
1842:.\Generated_Source\PSoC5/CyLib.c **** 
ARM GAS  C:\Users\mitchell\AppData\Local\Temp\ccIjMaGi.s 			page 77


1843:.\Generated_Source\PSoC5/CyLib.c **** 
1844:.\Generated_Source\PSoC5/CyLib.c **** /*******************************************************************************
1845:.\Generated_Source\PSoC5/CyLib.c **** * Function Name: CyWdtClear
1846:.\Generated_Source\PSoC5/CyLib.c **** ********************************************************************************
1847:.\Generated_Source\PSoC5/CyLib.c **** *
1848:.\Generated_Source\PSoC5/CyLib.c **** * Summary:
1849:.\Generated_Source\PSoC5/CyLib.c **** *  Clears (feeds) the watchdog timer.
1850:.\Generated_Source\PSoC5/CyLib.c **** *
1851:.\Generated_Source\PSoC5/CyLib.c **** * Parameters:
1852:.\Generated_Source\PSoC5/CyLib.c **** *  None
1853:.\Generated_Source\PSoC5/CyLib.c **** *
1854:.\Generated_Source\PSoC5/CyLib.c **** * Return:
1855:.\Generated_Source\PSoC5/CyLib.c **** *  None
1856:.\Generated_Source\PSoC5/CyLib.c **** *
1857:.\Generated_Source\PSoC5/CyLib.c **** *******************************************************************************/
1858:.\Generated_Source\PSoC5/CyLib.c **** void CyWdtClear(void) 
1859:.\Generated_Source\PSoC5/CyLib.c **** {
 2305              		.loc 1 1859 0
 2306              		.cfi_startproc
 2307              		@ args = 0, pretend = 0, frame = 0
 2308              		@ frame_needed = 0, uses_anonymous_args = 0
 2309              		@ link register save eliminated.
1860:.\Generated_Source\PSoC5/CyLib.c ****     CY_WDT_CR_REG = CY_WDT_CR_FEED;
 2310              		.loc 1 1860 0
 2311 0000 0122     		movs	r2, #1
 2312 0002 014B     		ldr	r3, .L231
 2313 0004 1A70     		strb	r2, [r3]
 2314 0006 7047     		bx	lr
 2315              	.L232:
 2316              		.align	2
 2317              	.L231:
 2318 0008 84430040 		.word	1073759108
 2319              		.cfi_endproc
 2320              	.LFE45:
 2321              		.size	CyWdtClear, .-CyWdtClear
 2322              		.section	.text.CyVdStickyStatus,"ax",%progbits
 2323              		.align	2
 2324              		.global	CyVdStickyStatus
 2325              		.thumb
 2326              		.thumb_func
 2327              		.type	CyVdStickyStatus, %function
 2328              	CyVdStickyStatus:
 2329              	.LFB52:
1861:.\Generated_Source\PSoC5/CyLib.c **** }
1862:.\Generated_Source\PSoC5/CyLib.c **** 
