ARM GAS  C:\Users\mitchell\AppData\Local\Temp\cc0RngRd.s 			page 1


   1              		.syntax unified
   2              		.cpu cortex-m3
   3              		.fpu softvfp
   4              		.eabi_attribute 20, 1
   5              		.eabi_attribute 21, 1
   6              		.eabi_attribute 23, 3
   7              		.eabi_attribute 24, 1
   8              		.eabi_attribute 25, 1
   9              		.eabi_attribute 26, 1
  10              		.eabi_attribute 30, 1
  11              		.eabi_attribute 34, 1
  12              		.eabi_attribute 18, 4
  13              		.thumb
  14              		.file	"main.c"
  15              		.text
  16              	.Ltext0:
  17              		.cfi_sections	.debug_frame
  18              		.global	__aeabi_fcmpeq
  19              		.global	__aeabi_f2iz
  20              		.global	__aeabi_i2d
  21              		.global	__aeabi_dcmpeq
  22              		.section	.text.main,"ax",%progbits
  23              		.align	2
  24              		.global	main
  25              		.thumb
  26              		.thumb_func
  27              		.type	main, %function
  28              	main:
  29              	.LFB63:
  30              		.file 1 ".\\main.c"
   1:.\main.c      **** /* ========================================
   2:.\main.c      ****     The main thread to run the E-Throttle code.
   3:.\main.c      **** 
   4:.\main.c      ****     Author: Mitchell Mellone (mellom3@rpi.edu)
   5:.\main.c      ****     Date Created: 12/30/15
   6:.\main.c      ****     Most Recent Modification: 12/30/15
   7:.\main.c      **** 
   8:.\main.c      ****     Copyright (c) 2015 Rensselaer Motorsport
   9:.\main.c      ****     Distributed under the MIT License.
  10:.\main.c      ****     See "LICENSE" for more information.
  11:.\main.c      ****  * ========================================
  12:.\main.c      **** */
  13:.\main.c      **** 
  14:.\main.c      **** #include <project.h>
  15:.\main.c      **** #include "signal_processing.h"
  16:.\main.c      **** 
  17:.\main.c      **** 
  18:.\main.c      **** int main()
  19:.\main.c      **** {
  31              		.loc 1 19 0
  32              		.cfi_startproc
  33              		@ args = 0, pretend = 0, frame = 0
  34              		@ frame_needed = 0, uses_anonymous_args = 0
  35 0000 2DE9F04F 		push	{r4, r5, r6, r7, r8, r9, r10, fp, lr}
  36              		.cfi_def_cfa_offset 36
  37              		.cfi_offset 4, -36
  38              		.cfi_offset 5, -32
ARM GAS  C:\Users\mitchell\AppData\Local\Temp\cc0RngRd.s 			page 2


  39              		.cfi_offset 6, -28
  40              		.cfi_offset 7, -24
  41              		.cfi_offset 8, -20
  42              		.cfi_offset 9, -16
  43              		.cfi_offset 10, -12
  44              		.cfi_offset 11, -8
  45              		.cfi_offset 14, -4
  46 0004 83B0     		sub	sp, sp, #12
  47              		.cfi_def_cfa_offset 48
  20:.\main.c      ****     CyGlobalIntEnable; /* Enable global interrupts. */
  48              		.loc 1 20 0
  49              	@ 20 ".\main.c" 1
  50 0006 62B6     		CPSIE   i
  51              	@ 0 "" 2
  21:.\main.c      ****     
  22:.\main.c      ****     uint16 apps0_count, apps1_count, tps0_count, tps1_count, brake_count;
  23:.\main.c      ****     float apps0_percent, apps1_percent, tps0_percent, tps1_percent, brake_percent;
  24:.\main.c      ****     float apps_avg, tps_avg, prev_throttle_pos;
  25:.\main.c      ****     
  26:.\main.c      **** 
  27:.\main.c      ****     /* Initializations */
  28:.\main.c      ****     Error_Buffer * err_buff = createErrorBuffer();
  52              		.loc 1 28 0
  53              		.thumb
  54 0008 FFF7FEFF 		bl	createErrorBuffer
  55              	.LVL0:
  56 000c 8346     		mov	fp, r0
  57              	.LVL1:
  29:.\main.c      ****     Timer_Start();
  58              		.loc 1 29 0
  59 000e FFF7FEFF 		bl	Timer_Start
  60              	.LVL2:
  30:.\main.c      ****     APPS_ADC_Start();
  61              		.loc 1 30 0
  62 0012 FFF7FEFF 		bl	APPS_ADC_Start
  63              	.LVL3:
  31:.\main.c      ****     TPS_ADC_Start();
  64              		.loc 1 31 0
  65 0016 FFF7FEFF 		bl	TPS_ADC_Start
  66              	.LVL4:
  32:.\main.c      ****     BRAKE_ADC_Start();
  67              		.loc 1 32 0
  68 001a FFF7FEFF 		bl	BRAKE_ADC_Start
  69              	.LVL5:
  33:.\main.c      ****     APPS_ADC_StartConvert();
  70              		.loc 1 33 0
  71 001e FFF7FEFF 		bl	APPS_ADC_StartConvert
  72              	.LVL6:
  34:.\main.c      ****     TPS_ADC_StartConvert();
  73              		.loc 1 34 0
  74 0022 FFF7FEFF 		bl	TPS_ADC_StartConvert
  75              	.LVL7:
  35:.\main.c      ****     BRAKE_ADC_StartConvert();
  76              		.loc 1 35 0
  77 0026 FFF7FEFF 		bl	BRAKE_ADC_StartConvert
  78              	.LVL8:
  79              	.LBB2:
ARM GAS  C:\Users\mitchell\AppData\Local\Temp\cc0RngRd.s 			page 3


  36:.\main.c      ****     prev_throttle_pos = 0.0;
  37:.\main.c      **** 
  38:.\main.c      ****     for(;;)
  39:.\main.c      ****     {
  40:.\main.c      ****         /* Get the count APPS result */
  41:.\main.c      ****         APPS_ADC_StartConvert();
  42:.\main.c      ****         APPS_ADC_IsEndConversion(APPS_ADC_WAIT_FOR_RESULT);
  80              		.loc 1 42 0
  81 002a 0024     		movs	r4, #0
  43:.\main.c      ****         apps0_count = APPS_ADC_GetResult16(0);
  44:.\main.c      ****         apps1_count = APPS_ADC_GetResult16(1);
  45:.\main.c      ****         /* Get the count TPS result */
  46:.\main.c      ****         TPS_ADC_StartConvert();
  47:.\main.c      ****         TPS_ADC_IsEndConversion(TPS_ADC_WAIT_FOR_RESULT);
  48:.\main.c      ****         tps0_count = TPS_ADC_GetResult16(0);
  49:.\main.c      ****         tps1_count = TPS_ADC_GetResult16(1);
  50:.\main.c      ****         /* Get the brake encoder result */
  51:.\main.c      ****         brake_count = BRAKE_ADC_Read16();
  52:.\main.c      ****         /* Check to make sure there are no open/short circuits */
  53:.\main.c      ****         if (signalCheck(tps0_count, tps0_count, apps0_count, apps1_count, brake_count) == ERROR) {
  54:.\main.c      ****             handleError();
  55:.\main.c      ****         }
  56:.\main.c      ****     
  57:.\main.c      ****         /* Convert to percents */
  58:.\main.c      ****         apps0_percent = convertToPercent(apps0_count, APPS);
  59:.\main.c      ****         apps1_percent = convertToPercent(apps1_count, APPS);
  60:.\main.c      ****         tps0_percent = convertToPercent(tps0_count, TPS);
  61:.\main.c      ****         tps1_percent = convertToPercent(tps1_count, TPS);
  62:.\main.c      ****         brake_percent = convertToPercent(brake_count, BRAKE);
  63:.\main.c      ****         
  64:.\main.c      ****         /* Average and check for local errors */
  65:.\main.c      ****         apps_avg = average(apps0_percent, apps1_percent);
  66:.\main.c      ****         tps_avg = average(tps0_percent, tps1_percent);
  67:.\main.c      ****         if (apps_avg == fERROR || tps_avg == fERROR) {
  82              		.loc 1 67 0
  83 002c 0027     		movs	r7, #0
  84              	.L10:
  41:.\main.c      ****         APPS_ADC_StartConvert();
  85              		.loc 1 41 0
  86 002e FFF7FEFF 		bl	APPS_ADC_StartConvert
  87              	.LVL9:
  42:.\main.c      ****         APPS_ADC_IsEndConversion(APPS_ADC_WAIT_FOR_RESULT);
  88              		.loc 1 42 0
  89 0032 2046     		mov	r0, r4
  90 0034 FFF7FEFF 		bl	APPS_ADC_IsEndConversion
  91              	.LVL10:
  43:.\main.c      ****         apps0_count = APPS_ADC_GetResult16(0);
  92              		.loc 1 43 0
  93 0038 2046     		mov	r0, r4
  94 003a FFF7FEFF 		bl	APPS_ADC_GetResult16
  95              	.LVL11:
  96 003e 1FFA80F9 		uxth	r9, r0
  97              	.LVL12:
  44:.\main.c      ****         apps1_count = APPS_ADC_GetResult16(1);
  98              		.loc 1 44 0
  99 0042 0120     		movs	r0, #1
 100              	.LVL13:
ARM GAS  C:\Users\mitchell\AppData\Local\Temp\cc0RngRd.s 			page 4


 101 0044 FFF7FEFF 		bl	APPS_ADC_GetResult16
 102              	.LVL14:
 103 0048 1FFA80F8 		uxth	r8, r0
 104              	.LVL15:
  46:.\main.c      ****         TPS_ADC_StartConvert();
 105              		.loc 1 46 0
 106 004c FFF7FEFF 		bl	TPS_ADC_StartConvert
 107              	.LVL16:
  47:.\main.c      ****         TPS_ADC_IsEndConversion(TPS_ADC_WAIT_FOR_RESULT);
 108              		.loc 1 47 0
 109 0050 2046     		mov	r0, r4
 110 0052 FFF7FEFF 		bl	TPS_ADC_IsEndConversion
 111              	.LVL17:
  48:.\main.c      ****         tps0_count = TPS_ADC_GetResult16(0);
 112              		.loc 1 48 0
 113 0056 2046     		mov	r0, r4
 114 0058 FFF7FEFF 		bl	TPS_ADC_GetResult16
 115              	.LVL18:
 116 005c 85B2     		uxth	r5, r0
 117              	.LVL19:
  49:.\main.c      ****         tps1_count = TPS_ADC_GetResult16(1);
 118              		.loc 1 49 0
 119 005e 0120     		movs	r0, #1
 120              	.LVL20:
 121 0060 FFF7FEFF 		bl	TPS_ADC_GetResult16
 122              	.LVL21:
 123 0064 1FFA80FA 		uxth	r10, r0
 124              	.LVL22:
  51:.\main.c      ****         brake_count = BRAKE_ADC_Read16();
 125              		.loc 1 51 0
 126 0068 FFF7FEFF 		bl	BRAKE_ADC_Read16
 127              	.LVL23:
 128 006c 86B2     		uxth	r6, r0
 129              	.LVL24:
  53:.\main.c      ****         if (signalCheck(tps0_count, tps0_count, apps0_count, apps1_count, brake_count) == ERROR) {
 130              		.loc 1 53 0
 131 006e 0096     		str	r6, [sp]
 132 0070 2846     		mov	r0, r5
 133              	.LVL25:
 134 0072 2946     		mov	r1, r5
 135 0074 4A46     		mov	r2, r9
 136 0076 4346     		mov	r3, r8
 137 0078 FFF7FEFF 		bl	signalCheck
 138              	.LVL26:
 139 007c 08B9     		cbnz	r0, .L2
  54:.\main.c      ****             handleError();
 140              		.loc 1 54 0
 141 007e FFF7FEFF 		bl	handleError
 142              	.LVL27:
 143              	.L2:
  58:.\main.c      ****         apps0_percent = convertToPercent(apps0_count, APPS);
 144              		.loc 1 58 0
 145 0082 4846     		mov	r0, r9
 146 0084 0121     		movs	r1, #1
 147 0086 FFF7FEFF 		bl	convertToPercent
 148              	.LVL28:
 149 008a 8146     		mov	r9, r0
ARM GAS  C:\Users\mitchell\AppData\Local\Temp\cc0RngRd.s 			page 5


 150              	.LVL29:
  59:.\main.c      ****         apps1_percent = convertToPercent(apps1_count, APPS);
 151              		.loc 1 59 0
 152 008c 4046     		mov	r0, r8
 153              	.LVL30:
 154 008e 0121     		movs	r1, #1
 155 0090 FFF7FEFF 		bl	convertToPercent
 156              	.LVL31:
 157 0094 8046     		mov	r8, r0
 158              	.LVL32:
  60:.\main.c      ****         tps0_percent = convertToPercent(tps0_count, TPS);
 159              		.loc 1 60 0
 160 0096 2846     		mov	r0, r5
 161              	.LVL33:
 162 0098 2146     		mov	r1, r4
 163 009a FFF7FEFF 		bl	convertToPercent
 164              	.LVL34:
 165 009e 0546     		mov	r5, r0
 166              	.LVL35:
  61:.\main.c      ****         tps1_percent = convertToPercent(tps1_count, TPS);
 167              		.loc 1 61 0
 168 00a0 5046     		mov	r0, r10
 169              	.LVL36:
 170 00a2 2146     		mov	r1, r4
 171 00a4 FFF7FEFF 		bl	convertToPercent
 172              	.LVL37:
 173 00a8 8246     		mov	r10, r0
 174              	.LVL38:
  62:.\main.c      ****         brake_percent = convertToPercent(brake_count, BRAKE);
 175              		.loc 1 62 0
 176 00aa 3046     		mov	r0, r6
 177              	.LVL39:
 178 00ac 0221     		movs	r1, #2
 179 00ae FFF7FEFF 		bl	convertToPercent
 180              	.LVL40:
 181 00b2 0646     		mov	r6, r0
 182              	.LVL41:
  65:.\main.c      ****         apps_avg = average(apps0_percent, apps1_percent);
 183              		.loc 1 65 0
 184 00b4 4846     		mov	r0, r9
 185              	.LVL42:
 186 00b6 4146     		mov	r1, r8
 187 00b8 FFF7FEFF 		bl	average
 188              	.LVL43:
 189 00bc 8046     		mov	r8, r0
 190              	.LVL44:
  66:.\main.c      ****         tps_avg = average(tps0_percent, tps1_percent);
 191              		.loc 1 66 0
 192 00be 2846     		mov	r0, r5
 193              	.LVL45:
 194 00c0 5146     		mov	r1, r10
 195 00c2 FFF7FEFF 		bl	average
 196              	.LVL46:
 197 00c6 0546     		mov	r5, r0
 198              	.LVL47:
 199              		.loc 1 67 0
 200 00c8 4046     		mov	r0, r8
ARM GAS  C:\Users\mitchell\AppData\Local\Temp\cc0RngRd.s 			page 6


 201              	.LVL48:
 202 00ca 3946     		mov	r1, r7
 203 00cc FFF7FEFF 		bl	__aeabi_fcmpeq
 204              	.LVL49:
 205 00d0 20B9     		cbnz	r0, .L3
 206              		.loc 1 67 0 is_stmt 0 discriminator 1
 207 00d2 2846     		mov	r0, r5
 208 00d4 3946     		mov	r1, r7
 209 00d6 FFF7FEFF 		bl	__aeabi_fcmpeq
 210              	.LVL50:
 211 00da 08B1     		cbz	r0, .L4
 212              	.L3:
  68:.\main.c      ****             handleError();
 213              		.loc 1 68 0 is_stmt 1
 214 00dc FFF7FEFF 		bl	handleError
 215              	.LVL51:
 216              	.L4:
  69:.\main.c      ****         }
  70:.\main.c      ****         
  71:.\main.c      ****         /* Get next throttle position */
  72:.\main.c      ****         int next_throttle_pos = 
  73:.\main.c      ****             nextThrottlePosition(apps_avg, tps_avg, prev_throttle_pos, brake_percent, err_buff);
 217              		.loc 1 73 0
 218 00e0 CDF800B0 		str	fp, [sp]
 219 00e4 4046     		mov	r0, r8
 220 00e6 2946     		mov	r1, r5
 221 00e8 3A46     		mov	r2, r7
 222 00ea 3346     		mov	r3, r6
 223 00ec FFF7FEFF 		bl	nextThrottlePosition
 224              	.LVL52:
  72:.\main.c      ****         int next_throttle_pos = 
 225              		.loc 1 72 0
 226 00f0 FFF7FEFF 		bl	__aeabi_f2iz
 227              	.LVL53:
  74:.\main.c      ****         if (next_throttle_pos == fERROR) {
 228              		.loc 1 74 0
 229 00f4 FFF7FEFF 		bl	__aeabi_i2d
 230              	.LVL54:
 231 00f8 0022     		movs	r2, #0
 232 00fa 0023     		movs	r3, #0
 233 00fc FFF7FEFF 		bl	__aeabi_dcmpeq
 234              	.LVL55:
 235 0100 0028     		cmp	r0, #0
 236 0102 94D0     		beq	.L10
  75:.\main.c      ****             handleError();
 237              		.loc 1 75 0
 238 0104 FFF7FEFF 		bl	handleError
 239              	.LVL56:
 240 0108 91E7     		b	.L10
 241              	.LBE2:
 242              		.cfi_endproc
 243              	.LFE63:
 244              		.size	main, .-main
 245 010a 00BF     		.text
 246              	.Letext0:
 247              		.file 2 "c:\\program files (x86)\\cypress\\psoc creator\\3.2\\psoc creator\\import\\gnu\\arm\\4.8.
 248              		.file 3 "c:\\program files (x86)\\cypress\\psoc creator\\3.2\\psoc creator\\import\\gnu\\arm\\4.8.
ARM GAS  C:\Users\mitchell\AppData\Local\Temp\cc0RngRd.s 			page 7


 249              		.file 4 "Generated_Source\\PSoC5/cytypes.h"
 250              		.file 5 ".\\queue.h"
 251              		.file 6 ".\\signal_processing.h"
 252              		.file 7 "Generated_Source\\PSoC5/APPS_ADC.h"
 253              		.file 8 "Generated_Source\\PSoC5/TPS_ADC.h"
 254              		.file 9 "Generated_Source\\PSoC5/Timer.h"
 255              		.file 10 "Generated_Source\\PSoC5/BRAKE_ADC.h"
 256              		.file 11 "Generated_Source\\PSoC5/core_cm3.h"