ARM GAS  C:\Users\mitchell\AppData\Local\Temp\ccF6zu8g.s 			page 1


   1              		.syntax unified
   2              		.cpu cortex-m3
   3              		.fpu softvfp
   4              		.eabi_attribute 20, 1
   5              		.eabi_attribute 21, 1
   6              		.eabi_attribute 23, 3
   7              		.eabi_attribute 24, 1
   8              		.eabi_attribute 25, 1
   9              		.eabi_attribute 26, 1
  10              		.eabi_attribute 30, 1
  11              		.eabi_attribute 34, 1
  12              		.eabi_attribute 18, 4
  13              		.thumb
  14              		.file	"signal_processing.c"
  15              		.text
  16              	.Ltext0:
  17              		.cfi_sections	.debug_frame
  18              		.global	__aeabi_ui2f
  19              		.global	__aeabi_fdiv
  20              		.global	__aeabi_fmul
  21              		.section	.text.convertToPercent,"ax",%progbits
  22              		.align	2
  23              		.global	convertToPercent
  24              		.thumb
  25              		.thumb_func
  26              		.type	convertToPercent, %function
  27              	convertToPercent:
  28              	.LFB63:
  29              		.file 1 ".\\signal_processing.c"
   1:.\signal_processing.c ****  /* ========================================
   2:.\signal_processing.c ****     A collection of functions that do the brunt
   3:.\signal_processing.c ****     of the I/O processing and calculation work
   4:.\signal_processing.c ****     needed for the E-Throttle.
   5:.\signal_processing.c **** 
   6:.\signal_processing.c ****     Author: Mitchell Mellone (mellom3@rpi.edu)
   7:.\signal_processing.c ****     Date Created: 12/28/15
   8:.\signal_processing.c ****     Most Recent Modification: 12/30/15
   9:.\signal_processing.c **** 
  10:.\signal_processing.c ****     Copyright (c) 2015 Rensselaer Motorsport
  11:.\signal_processing.c ****     Distributed under the MIT License.
  12:.\signal_processing.c ****     See "LICENSE" for more information.
  13:.\signal_processing.c ****  * ========================================
  14:.\signal_processing.c **** */
  15:.\signal_processing.c **** 
  16:.\signal_processing.c **** #include "signal_processing.h"
  17:.\signal_processing.c **** 
  18:.\signal_processing.c **** /*
  19:.\signal_processing.c **** parameters: count - The current count returned by
  20:.\signal_processing.c ****                    an ADC
  21:.\signal_processing.c ****             type - The type of sensor
  22:.\signal_processing.c **** return:     A percentage of the maximum possible count
  23:.\signal_processing.c ****             ** From 0.0 - 100.0 **
  24:.\signal_processing.c ****             If the type is not defined it will return 0.0
  25:.\signal_processing.c **** */
  26:.\signal_processing.c **** float convertToPercent(uint16 count, sensor type) {
  30              		.loc 1 26 0
  31              		.cfi_startproc
ARM GAS  C:\Users\mitchell\AppData\Local\Temp\ccF6zu8g.s 			page 2


  32              		@ args = 0, pretend = 0, frame = 0
  33              		@ frame_needed = 0, uses_anonymous_args = 0
  34              	.LVL0:
  35 0000 08B5     		push	{r3, lr}
  36              		.cfi_def_cfa_offset 8
  37              		.cfi_offset 3, -8
  38              		.cfi_offset 14, -4
  27:.\signal_processing.c ****     /* TODO:    check bounds on these percents,
  28:.\signal_processing.c ****                 expecially the BRAKE case (sigdel
  29:.\signal_processing.c ****                 ADC gave a little over MAX_BRAKE_COUNT
  30:.\signal_processing.c ****                 in prelim. test)
  31:.\signal_processing.c ****     */
  32:.\signal_processing.c ****     float percent;
  33:.\signal_processing.c ****     switch (type) {
  39              		.loc 1 33 0
  40 0002 11B1     		cbz	r1, .L3
  41 0004 0129     		cmp	r1, #1
  42 0006 06D0     		beq	.L4
  43 0008 0BE0     		b	.L6
  44              	.L3:
  34:.\signal_processing.c ****         case TPS:
  35:.\signal_processing.c ****             percent = (float) count / MAX_TPS_COUNT;
  45              		.loc 1 35 0
  46 000a FFF7FEFF 		bl	__aeabi_ui2f
  47              	.LVL1:
  48 000e 0749     		ldr	r1, .L7
  49 0010 FFF7FEFF 		bl	__aeabi_fdiv
  50              	.LVL2:
  36:.\signal_processing.c ****             break;
  51              		.loc 1 36 0
  52 0014 06E0     		b	.L2
  53              	.LVL3:
  54              	.L4:
  37:.\signal_processing.c ****         case APPS:
  38:.\signal_processing.c ****             percent = (float) count / MAX_APPS_COUNT;
  55              		.loc 1 38 0
  56 0016 FFF7FEFF 		bl	__aeabi_ui2f
  57              	.LVL4:
  58 001a 0449     		ldr	r1, .L7
  59 001c FFF7FEFF 		bl	__aeabi_fdiv
  60              	.LVL5:
  39:.\signal_processing.c ****             break;
  61              		.loc 1 39 0
  62 0020 00E0     		b	.L2
  63              	.LVL6:
  64              	.L6:
  40:.\signal_processing.c ****         case BRAKE:
  41:.\signal_processing.c ****             percent = (float) count / MAX_BRAKE_COUNT;
  42:.\signal_processing.c ****         default:
  43:.\signal_processing.c ****             percent = 0.0;
  65              		.loc 1 43 0
  66 0022 0020     		movs	r0, #0
  67              	.LVL7:
  68              	.L2:
  44:.\signal_processing.c ****     }
  45:.\signal_processing.c ****     return percent * 100.0;
  69              		.loc 1 45 0
ARM GAS  C:\Users\mitchell\AppData\Local\Temp\ccF6zu8g.s 			page 3


  70 0024 0249     		ldr	r1, .L7+4
  71 0026 FFF7FEFF 		bl	__aeabi_fmul
  72              	.LVL8:
  46:.\signal_processing.c **** }
  73              		.loc 1 46 0
  74 002a 08BD     		pop	{r3, pc}
  75              	.L8:
  76              		.align	2
  77              	.L7:
  78 002c 00F07F45 		.word	1166012416
  79 0030 0000C842 		.word	1120403456
  80              		.cfi_endproc
  81              	.LFE63:
  82              		.size	convertToPercent, .-convertToPercent
  83              		.section	.text.createErrorBuffer,"ax",%progbits
  84              		.align	2
  85              		.global	createErrorBuffer
  86              		.thumb
  87              		.thumb_func
  88              		.type	createErrorBuffer, %function
  89              	createErrorBuffer:
  90              	.LFB66:
  47:.\signal_processing.c **** 
  48:.\signal_processing.c **** /*
  49:.\signal_processing.c **** parameters: s0 - Percent that sensor 0 is open (0.0-100.0)
  50:.\signal_processing.c ****             s1 - Percent that sensor 1 is open (0.0-100.0)
  51:.\signal_processing.c **** effect:     Checks for implausibility, then averages
  52:.\signal_processing.c ****             the values
  53:.\signal_processing.c **** return:     ERROR if there is an implausibility,
  54:.\signal_processing.c ****             The average of the sensors otherwise
  55:.\signal_processing.c **** */
  56:.\signal_processing.c **** float average(float s0, float s1) {
  57:.\signal_processing.c ****     if(localImplausibility(s0, s1) == ERROR) {
  58:.\signal_processing.c ****         return fERROR;
  59:.\signal_processing.c ****     }
  60:.\signal_processing.c ****     return ((s0 + s1) / 2.0);
  61:.\signal_processing.c **** }
  62:.\signal_processing.c **** 
  63:.\signal_processing.c **** /*
  64:.\signal_processing.c **** parameters: tpsPos - The current throttle percentage (% open, 0.0-100.0)
  65:.\signal_processing.c ****             appsPos - The requested throttle percentage (% open, 0.0-100.0)
  66:.\signal_processing.c **** effect:     Checks for implausability between the tps and apps
  67:.\signal_processing.c ****             signals, and then calculates the next position of
  68:.\signal_processing.c ****             the throttle actuator. This is also where we can add custom throttle
  69:.\signal_processing.c ****             profile functions.
  70:.\signal_processing.c **** return:     ERROR if there is an implausibility, the next
  71:.\signal_processing.c ****             desired servo position otherwise.
  72:.\signal_processing.c **** */
  73:.\signal_processing.c **** float nextThrottlePosition(float requested_pos, float curr_pos,
  74:.\signal_processing.c ****                            float prev_request, float brake_pos, Error_Buffer * errs) {
  75:.\signal_processing.c ****     if (globalImplausibility(curr_pos, prev_request, brake_pos, errs) == ERROR) {
  76:.\signal_processing.c ****         return fERROR;
  77:.\signal_processing.c ****     }
  78:.\signal_processing.c ****     return requested_pos;
  79:.\signal_processing.c **** }
  80:.\signal_processing.c **** 
  81:.\signal_processing.c **** /*
ARM GAS  C:\Users\mitchell\AppData\Local\Temp\ccF6zu8g.s 			page 4


  82:.\signal_processing.c **** return: An Error_Buffer initialized with all 0.0s
  83:.\signal_processing.c **** */
  84:.\signal_processing.c **** Error_Buffer * createErrorBuffer() {
  91              		.loc 1 84 0
  92              		.cfi_startproc
  93              		@ args = 0, pretend = 0, frame = 0
  94              		@ frame_needed = 0, uses_anonymous_args = 0
  95 0000 10B5     		push	{r4, lr}
  96              		.cfi_def_cfa_offset 8
  97              		.cfi_offset 4, -8
  98              		.cfi_offset 14, -4
  85:.\signal_processing.c ****     Error_Buffer * eb = (Error_Buffer*)malloc(sizeof(Error_Buffer));
  99              		.loc 1 85 0
 100 0002 1C20     		movs	r0, #28
 101 0004 FFF7FEFF 		bl	malloc
 102              	.LVL9:
 103 0008 0446     		mov	r4, r0
 104              	.LVL10:
  86:.\signal_processing.c ****     eb->error_queue = createQueue();
 105              		.loc 1 86 0
 106 000a FFF7FEFF 		bl	createQueue
 107              	.LVL11:
 108 000e 2060     		str	r0, [r4]
  87:.\signal_processing.c ****     eb->num_brake_errs = 0;
 109              		.loc 1 87 0
 110 0010 0022     		movs	r2, #0
 111 0012 2261     		str	r2, [r4, #16]
  88:.\signal_processing.c ****     eb->TPS_APPS_avg = 0.0;
 112              		.loc 1 88 0
 113 0014 0023     		movs	r3, #0
 114 0016 A360     		str	r3, [r4, #8]	@ float
  89:.\signal_processing.c ****     eb->TPS_APPS_sum = 0.0;
 115              		.loc 1 89 0
 116 0018 6360     		str	r3, [r4, #4]	@ float
  90:.\signal_processing.c ****     eb->percent_brake_errs = 0.0;
 117              		.loc 1 90 0
 118 001a E360     		str	r3, [r4, #12]	@ float
  91:.\signal_processing.c ****     eb->size = 0;
 119              		.loc 1 91 0
 120 001c 6261     		str	r2, [r4, #20]
  92:.\signal_processing.c ****     return eb;
  93:.\signal_processing.c **** }
 121              		.loc 1 93 0
 122 001e 2046     		mov	r0, r4
 123 0020 10BD     		pop	{r4, pc}
 124              		.cfi_endproc
 125              	.LFE66:
 126              		.size	createErrorBuffer, .-createErrorBuffer
 127              		.global	__aeabi_fadd
 128              		.global	__aeabi_fsub
 129              		.global	__aeabi_i2f
 130 0022 00BF     		.section	.text.updateErrorBuffer,"ax",%progbits
 131              		.align	2
 132              		.global	updateErrorBuffer
 133              		.thumb
 134              		.thumb_func
 135              		.type	updateErrorBuffer, %function
ARM GAS  C:\Users\mitchell\AppData\Local\Temp\ccF6zu8g.s 			page 5


 136              	updateErrorBuffer:
 137              	.LFB67:
  94:.\signal_processing.c **** 
  95:.\signal_processing.c **** /*
  96:.\signal_processing.c **** parameter:  eb - The Error_Buffer to update
  97:.\signal_processing.c ****             newErr - The new error to update it with (
  98:.\signal_processing.c **** effect:     Adds the new error to the start of the queue
  99:.\signal_processing.c ****             Removes the least recent error
 100:.\signal_processing.c ****             Updates the sum and average accordingly
 101:.\signal_processing.c **** */
 102:.\signal_processing.c **** void updateErrorBuffer(Error_Buffer * eb, unsigned char brake_err, float TPS_APPS_err) {
 138              		.loc 1 102 0
 139              		.cfi_startproc
 140              		@ args = 0, pretend = 0, frame = 0
 141              		@ frame_needed = 0, uses_anonymous_args = 0
 142              	.LVL12:
 143 0000 2DE9F843 		push	{r3, r4, r5, r6, r7, r8, r9, lr}
 144              		.cfi_def_cfa_offset 32
 145              		.cfi_offset 3, -32
 146              		.cfi_offset 4, -28
 147              		.cfi_offset 5, -24
 148              		.cfi_offset 6, -20
 149              		.cfi_offset 7, -16
 150              		.cfi_offset 8, -12
 151              		.cfi_offset 9, -8
 152              		.cfi_offset 14, -4
 153 0004 0446     		mov	r4, r0
 154 0006 8946     		mov	r9, r1
 155 0008 9046     		mov	r8, r2
 103:.\signal_processing.c ****     Queue * q = eb->error_queue;
 156              		.loc 1 103 0
 157 000a 0668     		ldr	r6, [r0]
 158              	.LVL13:
 104:.\signal_processing.c ****     int elap_time = Timer_ReadCounter();
 159              		.loc 1 104 0
 160 000c FFF7FEFF 		bl	Timer_ReadCounter
 161              	.LVL14:
 162 0010 0546     		mov	r5, r0
 163 0012 0746     		mov	r7, r0
 164              	.LVL15:
 105:.\signal_processing.c ****     Timer_Stop();
 165              		.loc 1 105 0
 166 0014 FFF7FEFF 		bl	Timer_Stop
 167              	.LVL16:
 106:.\signal_processing.c ****     Timer_Start(); /* Reset the timer */
 168              		.loc 1 106 0
 169 0018 FFF7FEFF 		bl	Timer_Start
 170              	.LVL17:
 107:.\signal_processing.c ****     enqueue(q, brake_err, TPS_APPS_err, elap_time);
 171              		.loc 1 107 0
 172 001c 3046     		mov	r0, r6
 173 001e 4946     		mov	r1, r9
 174 0020 4246     		mov	r2, r8
 175 0022 2B46     		mov	r3, r5
 176 0024 FFF7FEFF 		bl	enqueue
 177              	.LVL18:
 108:.\signal_processing.c ****     eb->num_brake_errs += brake_err; /* +1 if = BRAKE_ERROR, +0 if = BRAKE_GOOD */
ARM GAS  C:\Users\mitchell\AppData\Local\Temp\ccF6zu8g.s 			page 6


 178              		.loc 1 108 0
 179 0028 2369     		ldr	r3, [r4, #16]
 180 002a 4B44     		add	r3, r3, r9
 181 002c 2361     		str	r3, [r4, #16]
 109:.\signal_processing.c ****     eb->TPS_APPS_sum += TPS_APPS_err;
 182              		.loc 1 109 0
 183 002e 6068     		ldr	r0, [r4, #4]	@ float
 184 0030 4146     		mov	r1, r8
 185 0032 FFF7FEFF 		bl	__aeabi_fadd
 186              	.LVL19:
 187 0036 6060     		str	r0, [r4, #4]	@ float
 110:.\signal_processing.c ****     eb->size++;
 188              		.loc 1 110 0
 189 0038 6369     		ldr	r3, [r4, #20]
 190 003a 0133     		adds	r3, r3, #1
 191 003c 6361     		str	r3, [r4, #20]
 111:.\signal_processing.c ****     eb->total_time += elap_time;
 192              		.loc 1 111 0
 193 003e A369     		ldr	r3, [r4, #24]
 194 0040 1D44     		add	r5, r5, r3
 195              	.LVL20:
 196 0042 A561     		str	r5, [r4, #24]
 112:.\signal_processing.c ****     while (elap_time > TIMER_FREQ) {
 197              		.loc 1 112 0
 198 0044 13E0     		b	.L11
 199              	.L12:
 200              	.LBB2:
 113:.\signal_processing.c ****         /* Delete all error values that happened more than one sec ago */
 114:.\signal_processing.c ****         Node * toRemove = dequeue(q);
 201              		.loc 1 114 0
 202 0046 3046     		mov	r0, r6
 203 0048 FFF7FEFF 		bl	dequeue
 204              	.LVL21:
 205 004c 0546     		mov	r5, r0
 206              	.LVL22:
 115:.\signal_processing.c ****         eb->num_brake_errs -= toRemove->brake_error;
 207              		.loc 1 115 0
 208 004e 0278     		ldrb	r2, [r0]	@ zero_extendqisi2
 209 0050 2369     		ldr	r3, [r4, #16]
 210 0052 9B1A     		subs	r3, r3, r2
 211 0054 2361     		str	r3, [r4, #16]
 116:.\signal_processing.c ****         eb->TPS_APPS_sum -= toRemove->TPS_APPS_error;
 212              		.loc 1 116 0
 213 0056 6068     		ldr	r0, [r4, #4]	@ float
 214              	.LVL23:
 215 0058 6968     		ldr	r1, [r5, #4]	@ float
 216 005a FFF7FEFF 		bl	__aeabi_fsub
 217              	.LVL24:
 218 005e 6060     		str	r0, [r4, #4]	@ float
 117:.\signal_processing.c ****         eb->size--;
 219              		.loc 1 117 0
 220 0060 6369     		ldr	r3, [r4, #20]
 221 0062 013B     		subs	r3, r3, #1
 222 0064 6361     		str	r3, [r4, #20]
 118:.\signal_processing.c ****         eb->total_time -= toRemove->time_count;
 223              		.loc 1 118 0
 224 0066 AA68     		ldr	r2, [r5, #8]
ARM GAS  C:\Users\mitchell\AppData\Local\Temp\ccF6zu8g.s 			page 7


 225 0068 A369     		ldr	r3, [r4, #24]
 226 006a 9B1A     		subs	r3, r3, r2
 227 006c A361     		str	r3, [r4, #24]
 228              	.LVL25:
 229              	.L11:
 230              	.LBE2:
 112:.\signal_processing.c ****     while (elap_time > TIMER_FREQ) {
 231              		.loc 1 112 0 discriminator 1
 232 006e B7F5FA4F 		cmp	r7, #32000
 233 0072 E8DC     		bgt	.L12
 119:.\signal_processing.c ****     }
 120:.\signal_processing.c ****     eb->TPS_APPS_avg = eb->TPS_APPS_sum / ((float)eb->size);
 234              		.loc 1 120 0
 235 0074 6668     		ldr	r6, [r4, #4]	@ float
 236              	.LVL26:
 237 0076 6069     		ldr	r0, [r4, #20]
 238 0078 FFF7FEFF 		bl	__aeabi_i2f
 239              	.LVL27:
 240 007c 0546     		mov	r5, r0
 241 007e 3046     		mov	r0, r6
 242 0080 2946     		mov	r1, r5
 243 0082 FFF7FEFF 		bl	__aeabi_fdiv
 244              	.LVL28:
 245 0086 A060     		str	r0, [r4, #8]	@ float
 121:.\signal_processing.c ****     eb->percent_brake_errs = ((float)eb->num_brake_errs) / ((float)eb->size);
 246              		.loc 1 121 0
 247 0088 2069     		ldr	r0, [r4, #16]
 248 008a FFF7FEFF 		bl	__aeabi_i2f
 249              	.LVL29:
 250 008e 2946     		mov	r1, r5
 251 0090 FFF7FEFF 		bl	__aeabi_fdiv
 252              	.LVL30:
 253 0094 E060     		str	r0, [r4, #12]	@ float
 254 0096 BDE8F883 		pop	{r3, r4, r5, r6, r7, r8, r9, pc}
 255              		.cfi_endproc
 256              	.LFE67:
 257              		.size	updateErrorBuffer, .-updateErrorBuffer
 258 009a 00BF     		.section	.text.signalCheck,"ax",%progbits
 259              		.align	2
 260              		.global	signalCheck
 261              		.thumb
 262              		.thumb_func
 263              		.type	signalCheck, %function
 264              	signalCheck:
 265              	.LFB68:
 122:.\signal_processing.c **** }
 123:.\signal_processing.c **** 
 124:.\signal_processing.c **** /*
 125:.\signal_processing.c **** parameter:  tps0 - tps0 count
 126:.\signal_processing.c ****             tps1 - tps1 count
 127:.\signal_processing.c ****             apps0 - apps0 count
 128:.\signal_processing.c ****             apps1 - apps1 count
 129:.\signal_processing.c ****             brake - brake count
 130:.\signal_processing.c **** return:     ERROR if any of the signals show open/short circuit signals
 131:.\signal_processing.c **** */
 132:.\signal_processing.c **** unsigned char signalCheck(uint16 tps0, uint16 tps1, uint16 apps0, uint16 apps1, uint16 brake) {
 266              		.loc 1 132 0
ARM GAS  C:\Users\mitchell\AppData\Local\Temp\ccF6zu8g.s 			page 8


 267              		.cfi_startproc
 268              		@ args = 4, pretend = 0, frame = 0
 269              		@ frame_needed = 0, uses_anonymous_args = 0
 270              		@ link register save eliminated.
 271              	.LVL31:
 133:.\signal_processing.c ****     if (tps0 == OPEN_SHORT_CIRCUIT || tps1 == OPEN_SHORT_CIRCUIT ||
 272              		.loc 1 133 0
 273 0000 38B1     		cbz	r0, .L15
 274              		.loc 1 133 0 is_stmt 0 discriminator 1
 275 0002 41B1     		cbz	r1, .L16
 276 0004 4AB1     		cbz	r2, .L17
 134:.\signal_processing.c ****         apps0 == OPEN_SHORT_CIRCUIT || apps1 == OPEN_SHORT_CIRCUIT ||
 277              		.loc 1 134 0 is_stmt 1
 278 0006 53B1     		cbz	r3, .L18
 279              		.loc 1 134 0 is_stmt 0 discriminator 1
 280 0008 BDF80030 		ldrh	r3, [sp]
 281              	.LVL32:
 282 000c 4BB9     		cbnz	r3, .L19
 135:.\signal_processing.c ****         brake == OPEN_SHORT_CIRCUIT) {
 136:.\signal_processing.c ****             return ERROR;
 283              		.loc 1 136 0 is_stmt 1
 284 000e 0020     		movs	r0, #0
 285              	.LVL33:
 286 0010 7047     		bx	lr
 287              	.LVL34:
 288              	.L15:
 289 0012 0020     		movs	r0, #0
 290              	.LVL35:
 291 0014 7047     		bx	lr
 292              	.LVL36:
 293              	.L16:
 294 0016 0020     		movs	r0, #0
 295              	.LVL37:
 296 0018 7047     		bx	lr
 297              	.LVL38:
 298              	.L17:
 299 001a 0020     		movs	r0, #0
 300              	.LVL39:
 301 001c 7047     		bx	lr
 302              	.LVL40:
 303              	.L18:
 304 001e 0020     		movs	r0, #0
 305              	.LVL41:
 306 0020 7047     		bx	lr
 307              	.LVL42:
 308              	.L19:
 137:.\signal_processing.c ****     } else {
 138:.\signal_processing.c ****         return NO_ERROR;
 309              		.loc 1 138 0
 310 0022 0120     		movs	r0, #1
 311              	.LVL43:
 139:.\signal_processing.c ****     }
 140:.\signal_processing.c **** }
 312              		.loc 1 140 0
 313 0024 7047     		bx	lr
 314              		.cfi_endproc
 315              	.LFE68:
ARM GAS  C:\Users\mitchell\AppData\Local\Temp\ccF6zu8g.s 			page 9


 316              		.size	signalCheck, .-signalCheck
 317              		.global	__aeabi_f2d
 318              		.global	__aeabi_dcmplt
 319 0026 00BF     		.section	.text.localImplausibility,"ax",%progbits
 320              		.align	2
 321              		.global	localImplausibility
 322              		.thumb
 323              		.thumb_func
 324              		.type	localImplausibility, %function
 325              	localImplausibility:
 326              	.LFB69:
 141:.\signal_processing.c **** 
 142:.\signal_processing.c **** /*
 143:.\signal_processing.c **** parameter:  sens_0 - The first sensor (% open, 0.0-100.0)
 144:.\signal_processing.c ****             sens_1 - The second sensor (% open, 0.0-100.0)
 145:.\signal_processing.c **** return:     ERROR if sens_0 and sens_1 differ by more than 10% (percent difference)
 146:.\signal_processing.c ****                 OR pull-down resistor shows open circuit
 147:.\signal_processing.c ****             NO_ERROR otherwise
 148:.\signal_processing.c **** */
 149:.\signal_processing.c **** unsigned char localImplausibility(float sens_0, float sens_1) {
 327              		.loc 1 149 0
 328              		.cfi_startproc
 329              		@ args = 0, pretend = 0, frame = 0
 330              		@ frame_needed = 0, uses_anonymous_args = 0
 331              	.LVL44:
 332 0000 08B5     		push	{r3, lr}
 333              		.cfi_def_cfa_offset 8
 334              		.cfi_offset 3, -8
 335              		.cfi_offset 14, -4
 336 0002 0346     		mov	r3, r0
 150:.\signal_processing.c ****     float diff = fabs(sens_1 - sens_0);
 337              		.loc 1 150 0
 338 0004 0846     		mov	r0, r1
 339              	.LVL45:
 340 0006 1946     		mov	r1, r3
 341              	.LVL46:
 342 0008 FFF7FEFF 		bl	__aeabi_fsub
 343              	.LVL47:
 344 000c 20F00040 		bic	r0, r0, #-2147483648
 345              	.LVL48:
 151:.\signal_processing.c ****     if (diff < 0.10) {
 346              		.loc 1 151 0
 347 0010 FFF7FEFF 		bl	__aeabi_f2d
 348              	.LVL49:
 349 0014 04A3     		adr	r3, .L26
 350 0016 D3E90023 		ldrd	r2, [r3]
 351 001a FFF7FEFF 		bl	__aeabi_dcmplt
 352              	.LVL50:
 353 001e 08B1     		cbz	r0, .L25
 152:.\signal_processing.c ****         return NO_ERROR;
 354              		.loc 1 152 0
 355 0020 0120     		movs	r0, #1
 356 0022 08BD     		pop	{r3, pc}
 357              	.L25:
 153:.\signal_processing.c ****     } else {
 154:.\signal_processing.c ****         return ERROR;
 358              		.loc 1 154 0
ARM GAS  C:\Users\mitchell\AppData\Local\Temp\ccF6zu8g.s 			page 10


 359 0024 0020     		movs	r0, #0
 155:.\signal_processing.c ****     }
 156:.\signal_processing.c **** }
 360              		.loc 1 156 0
 361 0026 08BD     		pop	{r3, pc}
 362              	.L27:
 363              		.align	3
 364              	.L26:
 365 0028 9A999999 		.word	-1717986918
 366 002c 9999B93F 		.word	1069128089
 367              		.cfi_endproc
 368              	.LFE69:
 369              		.size	localImplausibility, .-localImplausibility
 370              		.section	.text.average,"ax",%progbits
 371              		.align	2
 372              		.global	average
 373              		.thumb
 374              		.thumb_func
 375              		.type	average, %function
 376              	average:
 377              	.LFB64:
  56:.\signal_processing.c **** float average(float s0, float s1) {
 378              		.loc 1 56 0
 379              		.cfi_startproc
 380              		@ args = 0, pretend = 0, frame = 0
 381              		@ frame_needed = 0, uses_anonymous_args = 0
 382              	.LVL51:
 383 0000 38B5     		push	{r3, r4, r5, lr}
 384              		.cfi_def_cfa_offset 16
 385              		.cfi_offset 3, -16
 386              		.cfi_offset 4, -12
 387              		.cfi_offset 5, -8
 388              		.cfi_offset 14, -4
 389 0002 0546     		mov	r5, r0
 390 0004 0C46     		mov	r4, r1
  57:.\signal_processing.c ****     if(localImplausibility(s0, s1) == ERROR) {
 391              		.loc 1 57 0
 392 0006 FFF7FEFF 		bl	localImplausibility
 393              	.LVL52:
 394 000a 40B1     		cbz	r0, .L30
  60:.\signal_processing.c ****     return ((s0 + s1) / 2.0);
 395              		.loc 1 60 0
 396 000c 2846     		mov	r0, r5
 397 000e 2146     		mov	r1, r4
 398 0010 FFF7FEFF 		bl	__aeabi_fadd
 399              	.LVL53:
 400 0014 4FF07C51 		mov	r1, #1056964608
 401 0018 FFF7FEFF 		bl	__aeabi_fmul
 402              	.LVL54:
 403 001c 38BD     		pop	{r3, r4, r5, pc}
 404              	.LVL55:
 405              	.L30:
  58:.\signal_processing.c ****         return fERROR;
 406              		.loc 1 58 0
 407 001e 0020     		movs	r0, #0
  61:.\signal_processing.c **** }
 408              		.loc 1 61 0
ARM GAS  C:\Users\mitchell\AppData\Local\Temp\ccF6zu8g.s 			page 11


 409 0020 38BD     		pop	{r3, r4, r5, pc}
 410              		.cfi_endproc
 411              	.LFE64:
 412              		.size	average, .-average
 413              		.global	__aeabi_fcmpgt
 414 0022 00BF     		.section	.text.brakeErrorCheck,"ax",%progbits
 415              		.align	2
 416              		.global	brakeErrorCheck
 417              		.thumb
 418              		.thumb_func
 419              		.type	brakeErrorCheck, %function
 420              	brakeErrorCheck:
 421              	.LFB71:
 157:.\signal_processing.c **** 
 158:.\signal_processing.c **** /*
 159:.\signal_processing.c **** parameter:  curr_tps - The current TPS reading (% open, 0.0-100.0)
 160:.\signal_processing.c ****             exp_tps - The expected TPS reading (% open, 0.0-100.0)
 161:.\signal_processing.c ****             brake - The current brake reading (% open, 0.0-100.0)
 162:.\signal_processing.c **** effect:     Checks to make average error between current and
 163:.\signal_processing.c ****             expected TPS reading has not been greater than 10%
 164:.\signal_processing.c ****             for > 1 sec, and that the brake and is not above a
 165:.\signal_processing.c ****             desired threshold for a certain amount of time.
 166:.\signal_processing.c **** return:     ERROR if there is an error, a non-error output
 167:.\signal_processing.c ****             otherwise
 168:.\signal_processing.c **** */
 169:.\signal_processing.c **** unsigned char globalImplausibility(float curr_tps, float expected_tps,
 170:.\signal_processing.c ****                             float brake, Error_Buffer * eb) {
 171:.\signal_processing.c ****     float tp_err = fabs(curr_tps - expected_tps);
 172:.\signal_processing.c ****     unsigned char brake_err = brakeErrorCheck(brake, curr_tps);
 173:.\signal_processing.c ****     
 174:.\signal_processing.c ****     updateErrorBuffer(eb, brake_err, tp_err);
 175:.\signal_processing.c ****     
 176:.\signal_processing.c ****     if (eb->TPS_APPS_avg > TP_ERR_CUTOFF
 177:.\signal_processing.c ****             || eb->percent_brake_errs > BRAKE_ERR_CUTOFF) {
 178:.\signal_processing.c ****         return ERROR;
 179:.\signal_processing.c ****     } else {
 180:.\signal_processing.c ****         return NO_ERROR;
 181:.\signal_processing.c ****     }
 182:.\signal_processing.c **** }
 183:.\signal_processing.c ****                             
 184:.\signal_processing.c **** /*
 185:.\signal_processing.c **** parameter:  brake - The current brake position reading (% open, 0.0-100.0)
 186:.\signal_processing.c ****             tps - The current TPS reading (% open, 0.0-100.0)
 187:.\signal_processing.c **** return:     BRAKE_ERROR If the brake is applied above a given throttle threshold
 188:.\signal_processing.c ****             BRAKE_GOOD If there is no current brake implausibility
 189:.\signal_processing.c **** */
 190:.\signal_processing.c **** unsigned char brakeErrorCheck(float brake, float tps) {
 422              		.loc 1 190 0
 423              		.cfi_startproc
 424              		@ args = 0, pretend = 0, frame = 0
 425              		@ frame_needed = 0, uses_anonymous_args = 0
 426              	.LVL56:
 427 0000 10B5     		push	{r4, lr}
 428              		.cfi_def_cfa_offset 8
 429              		.cfi_offset 4, -8
 430              		.cfi_offset 14, -4
 431 0002 0C46     		mov	r4, r1
ARM GAS  C:\Users\mitchell\AppData\Local\Temp\ccF6zu8g.s 			page 12


 191:.\signal_processing.c ****     /* TODO: Find and program a valid relationship. I just put in some 
 192:.\signal_processing.c ****              simple numbers
 193:.\signal_processing.c ****     */
 194:.\signal_processing.c ****     if (brake > 5.0 && tps > 10.0) {
 432              		.loc 1 194 0
 433 0004 0649     		ldr	r1, .L38
 434              	.LVL57:
 435 0006 FFF7FEFF 		bl	__aeabi_fcmpgt
 436              	.LVL58:
 437 000a 28B1     		cbz	r0, .L37
 438              		.loc 1 194 0 is_stmt 0 discriminator 1
 439 000c 2046     		mov	r0, r4
 440 000e 0549     		ldr	r1, .L38+4
 441 0010 FFF7FEFF 		bl	__aeabi_fcmpgt
 442              	.LVL59:
 443 0014 10B9     		cbnz	r0, .L35
 444 0016 10BD     		pop	{r4, pc}
 445              	.LVL60:
 446              	.L37:
 195:.\signal_processing.c ****         return BRAKE_ERROR;
 196:.\signal_processing.c ****     } else {
 197:.\signal_processing.c ****         return BRAKE_GOOD;
 447              		.loc 1 197 0 is_stmt 1
 448 0018 0020     		movs	r0, #0
 449 001a 10BD     		pop	{r4, pc}
 450              	.LVL61:
 451              	.L35:
 195:.\signal_processing.c ****         return BRAKE_ERROR;
 452              		.loc 1 195 0
 453 001c 0120     		movs	r0, #1
 198:.\signal_processing.c ****     }
 199:.\signal_processing.c **** }
 454              		.loc 1 199 0
 455 001e 10BD     		pop	{r4, pc}
 456              	.LVL62:
 457              	.L39:
 458              		.align	2
 459              	.L38:
 460 0020 0000A040 		.word	1084227584
 461 0024 00002041 		.word	1092616192
 462              		.cfi_endproc
 463              	.LFE71:
 464              		.size	brakeErrorCheck, .-brakeErrorCheck
 465              		.section	.text.globalImplausibility,"ax",%progbits
 466              		.align	2
 467              		.global	globalImplausibility
 468              		.thumb
 469              		.thumb_func
 470              		.type	globalImplausibility, %function
 471              	globalImplausibility:
 472              	.LFB70:
 170:.\signal_processing.c ****                             float brake, Error_Buffer * eb) {
 473              		.loc 1 170 0
 474              		.cfi_startproc
 475              		@ args = 0, pretend = 0, frame = 0
 476              		@ frame_needed = 0, uses_anonymous_args = 0
 477              	.LVL63:
ARM GAS  C:\Users\mitchell\AppData\Local\Temp\ccF6zu8g.s 			page 13


 478 0000 F8B5     		push	{r3, r4, r5, r6, r7, lr}
 479              		.cfi_def_cfa_offset 24
 480              		.cfi_offset 3, -24
 481              		.cfi_offset 4, -20
 482              		.cfi_offset 5, -16
 483              		.cfi_offset 6, -12
 484              		.cfi_offset 7, -8
 485              		.cfi_offset 14, -4
 486 0002 0646     		mov	r6, r0
 487 0004 1746     		mov	r7, r2
 488 0006 1C46     		mov	r4, r3
 171:.\signal_processing.c ****     float tp_err = fabs(curr_tps - expected_tps);
 489              		.loc 1 171 0
 490 0008 FFF7FEFF 		bl	__aeabi_fsub
 491              	.LVL64:
 492 000c 20F00045 		bic	r5, r0, #-2147483648
 493              	.LVL65:
 172:.\signal_processing.c ****     unsigned char brake_err = brakeErrorCheck(brake, curr_tps);
 494              		.loc 1 172 0
 495 0010 3846     		mov	r0, r7
 496 0012 3146     		mov	r1, r6
 497 0014 FFF7FEFF 		bl	brakeErrorCheck
 498              	.LVL66:
 499 0018 0146     		mov	r1, r0
 500              	.LVL67:
 174:.\signal_processing.c ****     updateErrorBuffer(eb, brake_err, tp_err);
 501              		.loc 1 174 0
 502 001a 2046     		mov	r0, r4
 503              	.LVL68:
 504 001c 2A46     		mov	r2, r5
 505 001e FFF7FEFF 		bl	updateErrorBuffer
 506              	.LVL69:
 176:.\signal_processing.c ****     if (eb->TPS_APPS_avg > TP_ERR_CUTOFF
 507              		.loc 1 176 0
 508 0022 A068     		ldr	r0, [r4, #8]	@ float
 509 0024 0749     		ldr	r1, .L47
 510 0026 FFF7FEFF 		bl	__aeabi_fcmpgt
 511              	.LVL70:
 512 002a 30B9     		cbnz	r0, .L43
 177:.\signal_processing.c ****             || eb->percent_brake_errs > BRAKE_ERR_CUTOFF) {
 513              		.loc 1 177 0
 514 002c E068     		ldr	r0, [r4, #12]	@ float
 515 002e 0649     		ldr	r1, .L47+4
 516 0030 FFF7FEFF 		bl	__aeabi_fcmpgt
 517              	.LVL71:
 518 0034 18B1     		cbz	r0, .L46
 178:.\signal_processing.c ****         return ERROR;
 519              		.loc 1 178 0
 520 0036 0020     		movs	r0, #0
 521 0038 F8BD     		pop	{r3, r4, r5, r6, r7, pc}
 522              	.LVL72:
 523              	.L43:
 524 003a 0020     		movs	r0, #0
 525 003c F8BD     		pop	{r3, r4, r5, r6, r7, pc}
 526              	.LVL73:
 527              	.L46:
 180:.\signal_processing.c ****         return NO_ERROR;
ARM GAS  C:\Users\mitchell\AppData\Local\Temp\ccF6zu8g.s 			page 14


 528              		.loc 1 180 0
 529 003e 0120     		movs	r0, #1
 182:.\signal_processing.c **** }
 530              		.loc 1 182 0
 531 0040 F8BD     		pop	{r3, r4, r5, r6, r7, pc}
 532              	.LVL74:
 533              	.L48:
 534 0042 00BF     		.align	2
 535              	.L47:
 536 0044 00002041 		.word	1092616192
 537 0048 0000B442 		.word	1119092736
 538              		.cfi_endproc
 539              	.LFE70:
 540              		.size	globalImplausibility, .-globalImplausibility
 541              		.section	.text.nextThrottlePosition,"ax",%progbits
 542              		.align	2
 543              		.global	nextThrottlePosition
 544              		.thumb
 545              		.thumb_func
 546              		.type	nextThrottlePosition, %function
 547              	nextThrottlePosition:
 548              	.LFB65:
  74:.\signal_processing.c ****                            float prev_request, float brake_pos, Error_Buffer * errs) {
 549              		.loc 1 74 0
 550              		.cfi_startproc
 551              		@ args = 4, pretend = 0, frame = 0
 552              		@ frame_needed = 0, uses_anonymous_args = 0
 553              	.LVL75:
 554 0000 10B5     		push	{r4, lr}
 555              		.cfi_def_cfa_offset 8
 556              		.cfi_offset 4, -8
 557              		.cfi_offset 14, -4
 558 0002 0446     		mov	r4, r0
  75:.\signal_processing.c ****     if (globalImplausibility(curr_pos, prev_request, brake_pos, errs) == ERROR) {
 559              		.loc 1 75 0
 560 0004 0846     		mov	r0, r1
 561              	.LVL76:
 562 0006 1146     		mov	r1, r2
 563              	.LVL77:
 564 0008 1A46     		mov	r2, r3
 565              	.LVL78:
 566 000a 029B     		ldr	r3, [sp, #8]
 567              	.LVL79:
 568 000c FFF7FEFF 		bl	globalImplausibility
 569              	.LVL80:
 570 0010 08B9     		cbnz	r0, .L51
  76:.\signal_processing.c ****         return fERROR;
 571              		.loc 1 76 0
 572 0012 0020     		movs	r0, #0
 573 0014 10BD     		pop	{r4, pc}
 574              	.LVL81:
 575              	.L51:
  78:.\signal_processing.c ****     return requested_pos;
 576              		.loc 1 78 0
 577 0016 2046     		mov	r0, r4
  79:.\signal_processing.c **** }
 578              		.loc 1 79 0
ARM GAS  C:\Users\mitchell\AppData\Local\Temp\ccF6zu8g.s 			page 15


 579 0018 10BD     		pop	{r4, pc}
 580              		.cfi_endproc
 581              	.LFE65:
 582              		.size	nextThrottlePosition, .-nextThrottlePosition
 583              		.global	__aeabi_dmul
 584              		.global	__aeabi_dadd
 585              		.global	__aeabi_d2uiz
 586 001a 00BF     		.section	.text.writeToServo,"ax",%progbits
 587              		.align	2
 588              		.global	writeToServo
 589              		.thumb
 590              		.thumb_func
 591              		.type	writeToServo, %function
 592              	writeToServo:
 593              	.LFB72:
 200:.\signal_processing.c **** 
 201:.\signal_processing.c **** /*
 202:.\signal_processing.c **** parameter:  percent_open - How much the throttle body should be open
 203:.\signal_processing.c **** effect:     Writes compare for the PWM component which determins the
 204:.\signal_processing.c ****             throttle actuator position.
 205:.\signal_processing.c **** */
 206:.\signal_processing.c **** void writeToServo(float percent_open) {
 594              		.loc 1 206 0
 595              		.cfi_startproc
 596              		@ args = 0, pretend = 0, frame = 0
 597              		@ frame_needed = 0, uses_anonymous_args = 0
 598              	.LVL82:
 599 0000 08B5     		push	{r3, lr}
 600              		.cfi_def_cfa_offset 8
 601              		.cfi_offset 3, -8
 602              		.cfi_offset 14, -4
 207:.\signal_processing.c ****     uint16 compare = (uint16)(1000 + (percent_open * 1000.0));
 603              		.loc 1 207 0
 604 0002 FFF7FEFF 		bl	__aeabi_f2d
 605              	.LVL83:
 606 0006 0022     		movs	r2, #0
 607 0008 064B     		ldr	r3, .L53
 608 000a FFF7FEFF 		bl	__aeabi_dmul
 609              	.LVL84:
 610 000e 0022     		movs	r2, #0
 611 0010 044B     		ldr	r3, .L53
 612 0012 FFF7FEFF 		bl	__aeabi_dadd
 613              	.LVL85:
 614 0016 FFF7FEFF 		bl	__aeabi_d2uiz
 615              	.LVL86:
 208:.\signal_processing.c ****     SERVO_PWM_WriteCompare(compare);
 616              		.loc 1 208 0
 617 001a 80B2     		uxth	r0, r0
 618 001c FFF7FEFF 		bl	SERVO_PWM_WriteCompare
 619              	.LVL87:
 620 0020 08BD     		pop	{r3, pc}
 621              	.L54:
 622 0022 00BF     		.align	2
 623              	.L53:
 624 0024 00408F40 		.word	1083129856
 625              		.cfi_endproc
 626              	.LFE72:
ARM GAS  C:\Users\mitchell\AppData\Local\Temp\ccF6zu8g.s 			page 16


 627              		.size	writeToServo, .-writeToServo
 628              		.section	.text.handleError,"ax",%progbits
 629              		.align	2
 630              		.global	handleError
 631              		.thumb
 632              		.thumb_func
 633              		.type	handleError, %function
 634              	handleError:
 635              	.LFB73:
 209:.\signal_processing.c **** }
 210:.\signal_processing.c **** 
 211:.\signal_processing.c **** /*
 212:.\signal_processing.c **** effect:     Stops the e-throttle system in case of an error.
 213:.\signal_processing.c ****             Shuts down power to the throttle actuator until 
 214:.\signal_processing.c ****             TPS signal is < 5%
 215:.\signal_processing.c **** */
 216:.\signal_processing.c **** void handleError() {
 636              		.loc 1 216 0
 637              		.cfi_startproc
 638              		@ args = 0, pretend = 0, frame = 0
 639              		@ frame_needed = 0, uses_anonymous_args = 0
 640 0000 08B5     		push	{r3, lr}
 641              		.cfi_def_cfa_offset 8
 642              		.cfi_offset 3, -8
 643              		.cfi_offset 14, -4
 217:.\signal_processing.c ****     Timer_Stop();
 644              		.loc 1 217 0
 645 0002 FFF7FEFF 		bl	Timer_Stop
 646              	.LVL88:
 647 0006 08BD     		pop	{r3, pc}
 648              		.cfi_endproc
 649              	.LFE73:
 650              		.size	handleError, .-handleError
 651              		.text
 652              	.Letext0:
 653              		.file 2 "c:\\program files (x86)\\cypress\\psoc creator\\3.2\\psoc creator\\import\\gnu\\arm\\4.8.
 654              		.file 3 "c:\\program files (x86)\\cypress\\psoc creator\\3.2\\psoc creator\\import\\gnu\\arm\\4.8.
 655              		.file 4 "Generated_Source\\PSoC5/cytypes.h"
 656              		.file 5 "c:\\program files (x86)\\cypress\\psoc creator\\3.2\\psoc creator\\import\\gnu\\arm\\4.8.
 657              		.file 6 ".\\queue.h"
 658              		.file 7 ".\\signal_processing.h"
 659              		.file 8 "c:\\program files (x86)\\cypress\\psoc creator\\3.2\\psoc creator\\import\\gnu\\arm\\4.8.
 660              		.file 9 "Generated_Source\\PSoC5/Timer.h"
 661              		.file 10 "Generated_Source\\PSoC5/core_cm3.h"
 662              		.file 11 "Generated_Source\\PSoC5/SERVO_PWM.h"