ARM GAS  C:\Users\mitchell\AppData\Local\Temp\ccAQ6deh.s 			page 1


   1              		.syntax unified
   2              		.cpu cortex-m3
   3              		.fpu softvfp
   4              		.eabi_attribute 20, 1
   5              		.eabi_attribute 21, 1
   6              		.eabi_attribute 23, 3
   7              		.eabi_attribute 24, 1
   8              		.eabi_attribute 25, 1
   9              		.eabi_attribute 26, 1
  10              		.eabi_attribute 30, 1
  11              		.eabi_attribute 34, 1
  12              		.eabi_attribute 18, 4
  13              		.thumb
  14              		.file	"Timer.c"
  15              		.text
  16              	.Ltext0:
  17              		.cfi_sections	.debug_frame
  18              		.section	.text.Timer_Enable,"ax",%progbits
  19              		.align	2
  20              		.global	Timer_Enable
  21              		.thumb
  22              		.thumb_func
  23              		.type	Timer_Enable, %function
  24              	Timer_Enable:
  25              	.LFB1:
  26              		.file 1 ".\\Generated_Source\\PSoC5\\Timer.c"
   1:.\Generated_Source\PSoC5/Timer.c **** /*******************************************************************************
   2:.\Generated_Source\PSoC5/Timer.c **** * File Name: Timer.c
   3:.\Generated_Source\PSoC5/Timer.c **** * Version 2.70
   4:.\Generated_Source\PSoC5/Timer.c **** *
   5:.\Generated_Source\PSoC5/Timer.c **** * Description:
   6:.\Generated_Source\PSoC5/Timer.c **** *  The Timer component consists of a 8, 16, 24 or 32-bit timer with
   7:.\Generated_Source\PSoC5/Timer.c **** *  a selectable period between 2 and 2^Width - 1.  The timer may free run
   8:.\Generated_Source\PSoC5/Timer.c **** *  or be used as a capture timer as well.  The capture can be initiated
   9:.\Generated_Source\PSoC5/Timer.c **** *  by a positive or negative edge signal as well as via software.
  10:.\Generated_Source\PSoC5/Timer.c **** *  A trigger input can be programmed to enable the timer on rising edge
  11:.\Generated_Source\PSoC5/Timer.c **** *  falling edge, either edge or continous run.
  12:.\Generated_Source\PSoC5/Timer.c **** *  Interrupts may be generated due to a terminal count condition
  13:.\Generated_Source\PSoC5/Timer.c **** *  or a capture event.
  14:.\Generated_Source\PSoC5/Timer.c **** *
  15:.\Generated_Source\PSoC5/Timer.c **** * Note:
  16:.\Generated_Source\PSoC5/Timer.c **** *
  17:.\Generated_Source\PSoC5/Timer.c **** ********************************************************************************
  18:.\Generated_Source\PSoC5/Timer.c **** * Copyright 2008-2014, Cypress Semiconductor Corporation.  All rights reserved.
  19:.\Generated_Source\PSoC5/Timer.c **** * You may use this file only in accordance with the license, terms, conditions,
  20:.\Generated_Source\PSoC5/Timer.c **** * disclaimers, and limitations in the end user license agreement accompanying
  21:.\Generated_Source\PSoC5/Timer.c **** * the software package with which this file was provided.
  22:.\Generated_Source\PSoC5/Timer.c **** ********************************************************************************/
  23:.\Generated_Source\PSoC5/Timer.c **** 
  24:.\Generated_Source\PSoC5/Timer.c **** #include "Timer.h"
  25:.\Generated_Source\PSoC5/Timer.c **** 
  26:.\Generated_Source\PSoC5/Timer.c **** uint8 Timer_initVar = 0u;
  27:.\Generated_Source\PSoC5/Timer.c **** 
  28:.\Generated_Source\PSoC5/Timer.c **** 
  29:.\Generated_Source\PSoC5/Timer.c **** /*******************************************************************************
  30:.\Generated_Source\PSoC5/Timer.c **** * Function Name: Timer_Init
  31:.\Generated_Source\PSoC5/Timer.c **** ********************************************************************************
ARM GAS  C:\Users\mitchell\AppData\Local\Temp\ccAQ6deh.s 			page 2


  32:.\Generated_Source\PSoC5/Timer.c **** *
  33:.\Generated_Source\PSoC5/Timer.c **** * Summary:
  34:.\Generated_Source\PSoC5/Timer.c **** *  Initialize to the schematic state
  35:.\Generated_Source\PSoC5/Timer.c **** *
  36:.\Generated_Source\PSoC5/Timer.c **** * Parameters:
  37:.\Generated_Source\PSoC5/Timer.c **** *  void
  38:.\Generated_Source\PSoC5/Timer.c **** *
  39:.\Generated_Source\PSoC5/Timer.c **** * Return:
  40:.\Generated_Source\PSoC5/Timer.c **** *  void
  41:.\Generated_Source\PSoC5/Timer.c **** *
  42:.\Generated_Source\PSoC5/Timer.c **** *******************************************************************************/
  43:.\Generated_Source\PSoC5/Timer.c **** void Timer_Init(void) 
  44:.\Generated_Source\PSoC5/Timer.c **** {
  45:.\Generated_Source\PSoC5/Timer.c ****     #if(!Timer_UsingFixedFunction)
  46:.\Generated_Source\PSoC5/Timer.c ****             /* Interrupt State Backup for Critical Region*/
  47:.\Generated_Source\PSoC5/Timer.c ****             uint8 Timer_interruptState;
  48:.\Generated_Source\PSoC5/Timer.c ****     #endif /* Interrupt state back up for Fixed Function only */
  49:.\Generated_Source\PSoC5/Timer.c **** 
  50:.\Generated_Source\PSoC5/Timer.c ****     #if (Timer_UsingFixedFunction)
  51:.\Generated_Source\PSoC5/Timer.c ****         /* Clear all bits but the enable bit (if it's already set) for Timer operation */
  52:.\Generated_Source\PSoC5/Timer.c ****         Timer_CONTROL &= Timer_CTRL_ENABLE;
  53:.\Generated_Source\PSoC5/Timer.c **** 
  54:.\Generated_Source\PSoC5/Timer.c ****         /* Clear the mode bits for continuous run mode */
  55:.\Generated_Source\PSoC5/Timer.c ****         #if (CY_PSOC5A)
  56:.\Generated_Source\PSoC5/Timer.c ****             Timer_CONTROL2 &= ((uint8)(~Timer_CTRL_MODE_MASK));
  57:.\Generated_Source\PSoC5/Timer.c ****         #endif /* Clear bits in CONTROL2 only in PSOC5A */
  58:.\Generated_Source\PSoC5/Timer.c **** 
  59:.\Generated_Source\PSoC5/Timer.c ****         #if (CY_PSOC3 || CY_PSOC5LP)
  60:.\Generated_Source\PSoC5/Timer.c ****             Timer_CONTROL3 &= ((uint8)(~Timer_CTRL_MODE_MASK));
  61:.\Generated_Source\PSoC5/Timer.c ****         #endif /* CONTROL3 register exists only in PSoC3 OR PSoC5LP */
  62:.\Generated_Source\PSoC5/Timer.c **** 
  63:.\Generated_Source\PSoC5/Timer.c ****         /* Check if One Shot mode is enabled i.e. RunMode !=0*/
  64:.\Generated_Source\PSoC5/Timer.c ****         #if (Timer_RunModeUsed != 0x0u)
  65:.\Generated_Source\PSoC5/Timer.c ****             /* Set 3rd bit of Control register to enable one shot mode */
  66:.\Generated_Source\PSoC5/Timer.c ****             Timer_CONTROL |= 0x04u;
  67:.\Generated_Source\PSoC5/Timer.c ****         #endif /* One Shot enabled only when RunModeUsed is not Continuous*/
  68:.\Generated_Source\PSoC5/Timer.c **** 
  69:.\Generated_Source\PSoC5/Timer.c ****         #if (Timer_RunModeUsed == 2)
  70:.\Generated_Source\PSoC5/Timer.c ****             #if (CY_PSOC5A)
  71:.\Generated_Source\PSoC5/Timer.c ****                 /* Set last 2 bits of control2 register if one shot(halt on
  72:.\Generated_Source\PSoC5/Timer.c ****                 interrupt) is enabled*/
  73:.\Generated_Source\PSoC5/Timer.c ****                 Timer_CONTROL2 |= 0x03u;
  74:.\Generated_Source\PSoC5/Timer.c ****             #endif /* Set One-Shot Halt on Interrupt bit in CONTROL2 for PSoC5A */
  75:.\Generated_Source\PSoC5/Timer.c **** 
  76:.\Generated_Source\PSoC5/Timer.c ****             #if (CY_PSOC3 || CY_PSOC5LP)
  77:.\Generated_Source\PSoC5/Timer.c ****                 /* Set last 2 bits of control3 register if one shot(halt on
  78:.\Generated_Source\PSoC5/Timer.c ****                 interrupt) is enabled*/
  79:.\Generated_Source\PSoC5/Timer.c ****                 Timer_CONTROL3 |= 0x03u;
  80:.\Generated_Source\PSoC5/Timer.c ****             #endif /* Set One-Shot Halt on Interrupt bit in CONTROL3 for PSoC3 or PSoC5LP */
  81:.\Generated_Source\PSoC5/Timer.c **** 
  82:.\Generated_Source\PSoC5/Timer.c ****         #endif /* Remove section if One Shot Halt on Interrupt is not enabled */
  83:.\Generated_Source\PSoC5/Timer.c **** 
  84:.\Generated_Source\PSoC5/Timer.c ****         #if (Timer_UsingHWEnable != 0)
  85:.\Generated_Source\PSoC5/Timer.c ****             #if (CY_PSOC5A)
  86:.\Generated_Source\PSoC5/Timer.c ****                 /* Set the default Run Mode of the Timer to Continuous */
  87:.\Generated_Source\PSoC5/Timer.c ****                 Timer_CONTROL2 |= Timer_CTRL_MODE_PULSEWIDTH;
  88:.\Generated_Source\PSoC5/Timer.c ****             #endif /* Set Continuous Run Mode in CONTROL2 for PSoC5A */
ARM GAS  C:\Users\mitchell\AppData\Local\Temp\ccAQ6deh.s 			page 3


  89:.\Generated_Source\PSoC5/Timer.c **** 
  90:.\Generated_Source\PSoC5/Timer.c ****             #if (CY_PSOC3 || CY_PSOC5LP)
  91:.\Generated_Source\PSoC5/Timer.c ****                 /* Clear and Set ROD and COD bits of CFG2 register */
  92:.\Generated_Source\PSoC5/Timer.c ****                 Timer_CONTROL3 &= ((uint8)(~Timer_CTRL_RCOD_MASK));
  93:.\Generated_Source\PSoC5/Timer.c ****                 Timer_CONTROL3 |= Timer_CTRL_RCOD;
  94:.\Generated_Source\PSoC5/Timer.c **** 
  95:.\Generated_Source\PSoC5/Timer.c ****                 /* Clear and Enable the HW enable bit in CFG2 register */
  96:.\Generated_Source\PSoC5/Timer.c ****                 Timer_CONTROL3 &= ((uint8)(~Timer_CTRL_ENBL_MASK));
  97:.\Generated_Source\PSoC5/Timer.c ****                 Timer_CONTROL3 |= Timer_CTRL_ENBL;
  98:.\Generated_Source\PSoC5/Timer.c **** 
  99:.\Generated_Source\PSoC5/Timer.c ****                 /* Set the default Run Mode of the Timer to Continuous */
 100:.\Generated_Source\PSoC5/Timer.c ****                 Timer_CONTROL3 |= Timer_CTRL_MODE_CONTINUOUS;
 101:.\Generated_Source\PSoC5/Timer.c ****             #endif /* Set Continuous Run Mode in CONTROL3 for PSoC3ES3 or PSoC5A */
 102:.\Generated_Source\PSoC5/Timer.c **** 
 103:.\Generated_Source\PSoC5/Timer.c ****         #endif /* Configure Run Mode with hardware enable */
 104:.\Generated_Source\PSoC5/Timer.c **** 
 105:.\Generated_Source\PSoC5/Timer.c ****         /* Clear and Set SYNCTC and SYNCCMP bits of RT1 register */
 106:.\Generated_Source\PSoC5/Timer.c ****         Timer_RT1 &= ((uint8)(~Timer_RT1_MASK));
 107:.\Generated_Source\PSoC5/Timer.c ****         Timer_RT1 |= Timer_SYNC;
 108:.\Generated_Source\PSoC5/Timer.c **** 
 109:.\Generated_Source\PSoC5/Timer.c ****         /*Enable DSI Sync all all inputs of the Timer*/
 110:.\Generated_Source\PSoC5/Timer.c ****         Timer_RT1 &= ((uint8)(~Timer_SYNCDSI_MASK));
 111:.\Generated_Source\PSoC5/Timer.c ****         Timer_RT1 |= Timer_SYNCDSI_EN;
 112:.\Generated_Source\PSoC5/Timer.c **** 
 113:.\Generated_Source\PSoC5/Timer.c ****         /* Set the IRQ to use the status register interrupts */
 114:.\Generated_Source\PSoC5/Timer.c ****         Timer_CONTROL2 |= Timer_CTRL2_IRQ_SEL;
 115:.\Generated_Source\PSoC5/Timer.c ****     #endif /* Configuring registers of fixed function implementation */
 116:.\Generated_Source\PSoC5/Timer.c **** 
 117:.\Generated_Source\PSoC5/Timer.c ****     /* Set Initial values from Configuration */
 118:.\Generated_Source\PSoC5/Timer.c ****     Timer_WritePeriod(Timer_INIT_PERIOD);
 119:.\Generated_Source\PSoC5/Timer.c ****     Timer_WriteCounter(Timer_INIT_PERIOD);
 120:.\Generated_Source\PSoC5/Timer.c **** 
 121:.\Generated_Source\PSoC5/Timer.c ****     #if (Timer_UsingHWCaptureCounter)/* Capture counter is enabled */
 122:.\Generated_Source\PSoC5/Timer.c ****         Timer_CAPTURE_COUNT_CTRL |= Timer_CNTR_ENABLE;
 123:.\Generated_Source\PSoC5/Timer.c ****         Timer_SetCaptureCount(Timer_INIT_CAPTURE_COUNT);
 124:.\Generated_Source\PSoC5/Timer.c ****     #endif /* Configure capture counter value */
 125:.\Generated_Source\PSoC5/Timer.c **** 
 126:.\Generated_Source\PSoC5/Timer.c ****     #if (!Timer_UsingFixedFunction)
 127:.\Generated_Source\PSoC5/Timer.c ****         #if (Timer_SoftwareCaptureMode)
 128:.\Generated_Source\PSoC5/Timer.c ****             Timer_SetCaptureMode(Timer_INIT_CAPTURE_MODE);
 129:.\Generated_Source\PSoC5/Timer.c ****         #endif /* Set Capture Mode for UDB implementation if capture mode is software controlled */
 130:.\Generated_Source\PSoC5/Timer.c **** 
 131:.\Generated_Source\PSoC5/Timer.c ****         #if (Timer_SoftwareTriggerMode)
 132:.\Generated_Source\PSoC5/Timer.c ****             #if (!Timer_UDB_CONTROL_REG_REMOVED)
 133:.\Generated_Source\PSoC5/Timer.c ****                 if (0u == (Timer_CONTROL & Timer__B_TIMER__TM_SOFTWARE))
 134:.\Generated_Source\PSoC5/Timer.c ****                 {
 135:.\Generated_Source\PSoC5/Timer.c ****                     Timer_SetTriggerMode(Timer_INIT_TRIGGER_MODE);
 136:.\Generated_Source\PSoC5/Timer.c ****                 }
 137:.\Generated_Source\PSoC5/Timer.c ****             #endif /* (!Timer_UDB_CONTROL_REG_REMOVED) */
 138:.\Generated_Source\PSoC5/Timer.c ****         #endif /* Set trigger mode for UDB Implementation if trigger mode is software controlled */
 139:.\Generated_Source\PSoC5/Timer.c **** 
 140:.\Generated_Source\PSoC5/Timer.c ****         /* CyEnterCriticalRegion and CyExitCriticalRegion are used to mark following region critica
 141:.\Generated_Source\PSoC5/Timer.c ****         /* Enter Critical Region*/
 142:.\Generated_Source\PSoC5/Timer.c ****         Timer_interruptState = CyEnterCriticalSection();
 143:.\Generated_Source\PSoC5/Timer.c **** 
 144:.\Generated_Source\PSoC5/Timer.c ****         /* Use the interrupt output of the status register for IRQ output */
 145:.\Generated_Source\PSoC5/Timer.c ****         Timer_STATUS_AUX_CTRL |= Timer_STATUS_ACTL_INT_EN_MASK;
ARM GAS  C:\Users\mitchell\AppData\Local\Temp\ccAQ6deh.s 			page 4


 146:.\Generated_Source\PSoC5/Timer.c **** 
 147:.\Generated_Source\PSoC5/Timer.c ****         /* Exit Critical Region*/
 148:.\Generated_Source\PSoC5/Timer.c ****         CyExitCriticalSection(Timer_interruptState);
 149:.\Generated_Source\PSoC5/Timer.c **** 
 150:.\Generated_Source\PSoC5/Timer.c ****         #if (Timer_EnableTriggerMode)
 151:.\Generated_Source\PSoC5/Timer.c ****             Timer_EnableTrigger();
 152:.\Generated_Source\PSoC5/Timer.c ****         #endif /* Set Trigger enable bit for UDB implementation in the control register*/
 153:.\Generated_Source\PSoC5/Timer.c **** 		
 154:.\Generated_Source\PSoC5/Timer.c **** 		
 155:.\Generated_Source\PSoC5/Timer.c ****         #if (Timer_InterruptOnCaptureCount && !Timer_UDB_CONTROL_REG_REMOVED)
 156:.\Generated_Source\PSoC5/Timer.c ****             Timer_SetInterruptCount(Timer_INIT_INT_CAPTURE_COUNT);
 157:.\Generated_Source\PSoC5/Timer.c ****         #endif /* Set interrupt count in UDB implementation if interrupt count feature is checked.*
 158:.\Generated_Source\PSoC5/Timer.c **** 
 159:.\Generated_Source\PSoC5/Timer.c ****         Timer_ClearFIFO();
 160:.\Generated_Source\PSoC5/Timer.c ****     #endif /* Configure additional features of UDB implementation */
 161:.\Generated_Source\PSoC5/Timer.c **** 
 162:.\Generated_Source\PSoC5/Timer.c ****     Timer_SetInterruptMode(Timer_INIT_INTERRUPT_MODE);
 163:.\Generated_Source\PSoC5/Timer.c **** }
 164:.\Generated_Source\PSoC5/Timer.c **** 
 165:.\Generated_Source\PSoC5/Timer.c **** 
 166:.\Generated_Source\PSoC5/Timer.c **** /*******************************************************************************
 167:.\Generated_Source\PSoC5/Timer.c **** * Function Name: Timer_Enable
 168:.\Generated_Source\PSoC5/Timer.c **** ********************************************************************************
 169:.\Generated_Source\PSoC5/Timer.c **** *
 170:.\Generated_Source\PSoC5/Timer.c **** * Summary:
 171:.\Generated_Source\PSoC5/Timer.c **** *  Enable the Timer
 172:.\Generated_Source\PSoC5/Timer.c **** *
 173:.\Generated_Source\PSoC5/Timer.c **** * Parameters:
 174:.\Generated_Source\PSoC5/Timer.c **** *  void
 175:.\Generated_Source\PSoC5/Timer.c **** *
 176:.\Generated_Source\PSoC5/Timer.c **** * Return:
 177:.\Generated_Source\PSoC5/Timer.c **** *  void
 178:.\Generated_Source\PSoC5/Timer.c **** *
 179:.\Generated_Source\PSoC5/Timer.c **** *******************************************************************************/
 180:.\Generated_Source\PSoC5/Timer.c **** void Timer_Enable(void) 
 181:.\Generated_Source\PSoC5/Timer.c **** {
  27              		.loc 1 181 0
  28              		.cfi_startproc
  29              		@ args = 0, pretend = 0, frame = 0
  30              		@ frame_needed = 0, uses_anonymous_args = 0
  31              		@ link register save eliminated.
 182:.\Generated_Source\PSoC5/Timer.c ****     /* Globally Enable the Fixed Function Block chosen */
 183:.\Generated_Source\PSoC5/Timer.c ****     #if (Timer_UsingFixedFunction)
 184:.\Generated_Source\PSoC5/Timer.c ****         Timer_GLOBAL_ENABLE |= Timer_BLOCK_EN_MASK;
  32              		.loc 1 184 0
  33 0000 084B     		ldr	r3, .L2
  34 0002 1A78     		ldrb	r2, [r3]	@ zero_extendqisi2
  35 0004 42F00202 		orr	r2, r2, #2
  36 0008 1A70     		strb	r2, [r3]
 185:.\Generated_Source\PSoC5/Timer.c ****         Timer_GLOBAL_STBY_ENABLE |= Timer_BLOCK_STBY_EN_MASK;
  37              		.loc 1 185 0
  38 000a 1033     		adds	r3, r3, #16
  39 000c 1A78     		ldrb	r2, [r3]	@ zero_extendqisi2
  40 000e 42F00202 		orr	r2, r2, #2
  41 0012 1A70     		strb	r2, [r3]
 186:.\Generated_Source\PSoC5/Timer.c ****     #endif /* Set Enable bit for enabling Fixed function timer*/
 187:.\Generated_Source\PSoC5/Timer.c **** 
ARM GAS  C:\Users\mitchell\AppData\Local\Temp\ccAQ6deh.s 			page 5


 188:.\Generated_Source\PSoC5/Timer.c ****     /* Remove assignment if control register is removed */
 189:.\Generated_Source\PSoC5/Timer.c ****     #if (!Timer_UDB_CONTROL_REG_REMOVED || Timer_UsingFixedFunction)
 190:.\Generated_Source\PSoC5/Timer.c ****         Timer_CONTROL |= Timer_CTRL_ENABLE;
  42              		.loc 1 190 0
  43 0014 03F65933 		addw	r3, r3, #2905
  44 0018 1A78     		ldrb	r2, [r3]	@ zero_extendqisi2
  45 001a 42F00102 		orr	r2, r2, #1
  46 001e 1A70     		strb	r2, [r3]
  47 0020 7047     		bx	lr
  48              	.L3:
  49 0022 00BF     		.align	2
  50              	.L2:
  51 0024 A3430040 		.word	1073759139
  52              		.cfi_endproc
  53              	.LFE1:
  54              		.size	Timer_Enable, .-Timer_Enable
  55              		.section	.text.Timer_Stop,"ax",%progbits
  56              		.align	2
  57              		.global	Timer_Stop
  58              		.thumb
  59              		.thumb_func
  60              		.type	Timer_Stop, %function
  61              	Timer_Stop:
  62              	.LFB3:
 191:.\Generated_Source\PSoC5/Timer.c ****     #endif /* Remove assignment if control register is removed */
 192:.\Generated_Source\PSoC5/Timer.c **** }
 193:.\Generated_Source\PSoC5/Timer.c **** 
 194:.\Generated_Source\PSoC5/Timer.c **** 
 195:.\Generated_Source\PSoC5/Timer.c **** /*******************************************************************************
 196:.\Generated_Source\PSoC5/Timer.c **** * Function Name: Timer_Start
 197:.\Generated_Source\PSoC5/Timer.c **** ********************************************************************************
 198:.\Generated_Source\PSoC5/Timer.c **** *
 199:.\Generated_Source\PSoC5/Timer.c **** * Summary:
 200:.\Generated_Source\PSoC5/Timer.c **** *  The start function initializes the timer with the default values, the
 201:.\Generated_Source\PSoC5/Timer.c **** *  enables the timerto begin counting.  It does not enable interrupts,
 202:.\Generated_Source\PSoC5/Timer.c **** *  the EnableInt command should be called if interrupt generation is required.
 203:.\Generated_Source\PSoC5/Timer.c **** *
 204:.\Generated_Source\PSoC5/Timer.c **** * Parameters:
 205:.\Generated_Source\PSoC5/Timer.c **** *  void
 206:.\Generated_Source\PSoC5/Timer.c **** *
 207:.\Generated_Source\PSoC5/Timer.c **** * Return:
 208:.\Generated_Source\PSoC5/Timer.c **** *  void
 209:.\Generated_Source\PSoC5/Timer.c **** *
 210:.\Generated_Source\PSoC5/Timer.c **** * Global variables:
 211:.\Generated_Source\PSoC5/Timer.c **** *  Timer_initVar: Is modified when this function is called for the
 212:.\Generated_Source\PSoC5/Timer.c **** *   first time. Is used to ensure that initialization happens only once.
 213:.\Generated_Source\PSoC5/Timer.c **** *
 214:.\Generated_Source\PSoC5/Timer.c **** *******************************************************************************/
 215:.\Generated_Source\PSoC5/Timer.c **** void Timer_Start(void) 
 216:.\Generated_Source\PSoC5/Timer.c **** {
 217:.\Generated_Source\PSoC5/Timer.c ****     if(Timer_initVar == 0u)
 218:.\Generated_Source\PSoC5/Timer.c ****     {
 219:.\Generated_Source\PSoC5/Timer.c ****         Timer_Init();
 220:.\Generated_Source\PSoC5/Timer.c **** 
 221:.\Generated_Source\PSoC5/Timer.c ****         Timer_initVar = 1u;   /* Clear this bit for Initialization */
 222:.\Generated_Source\PSoC5/Timer.c ****     }
 223:.\Generated_Source\PSoC5/Timer.c **** 
ARM GAS  C:\Users\mitchell\AppData\Local\Temp\ccAQ6deh.s 			page 6


 224:.\Generated_Source\PSoC5/Timer.c ****     /* Enable the Timer */
 225:.\Generated_Source\PSoC5/Timer.c ****     Timer_Enable();
 226:.\Generated_Source\PSoC5/Timer.c **** }
 227:.\Generated_Source\PSoC5/Timer.c **** 
 228:.\Generated_Source\PSoC5/Timer.c **** 
 229:.\Generated_Source\PSoC5/Timer.c **** /*******************************************************************************
 230:.\Generated_Source\PSoC5/Timer.c **** * Function Name: Timer_Stop
 231:.\Generated_Source\PSoC5/Timer.c **** ********************************************************************************
 232:.\Generated_Source\PSoC5/Timer.c **** *
 233:.\Generated_Source\PSoC5/Timer.c **** * Summary:
 234:.\Generated_Source\PSoC5/Timer.c **** *  The stop function halts the timer, but does not change any modes or disable
 235:.\Generated_Source\PSoC5/Timer.c **** *  interrupts.
 236:.\Generated_Source\PSoC5/Timer.c **** *
 237:.\Generated_Source\PSoC5/Timer.c **** * Parameters:
 238:.\Generated_Source\PSoC5/Timer.c **** *  void
 239:.\Generated_Source\PSoC5/Timer.c **** *
 240:.\Generated_Source\PSoC5/Timer.c **** * Return:
 241:.\Generated_Source\PSoC5/Timer.c **** *  void
 242:.\Generated_Source\PSoC5/Timer.c **** *
 243:.\Generated_Source\PSoC5/Timer.c **** * Side Effects: If the Enable mode is set to Hardware only then this function
 244:.\Generated_Source\PSoC5/Timer.c **** *               has no effect on the operation of the timer.
 245:.\Generated_Source\PSoC5/Timer.c **** *
 246:.\Generated_Source\PSoC5/Timer.c **** *******************************************************************************/
 247:.\Generated_Source\PSoC5/Timer.c **** void Timer_Stop(void) 
 248:.\Generated_Source\PSoC5/Timer.c **** {
  63              		.loc 1 248 0
  64              		.cfi_startproc
  65              		@ args = 0, pretend = 0, frame = 0
  66              		@ frame_needed = 0, uses_anonymous_args = 0
  67              		@ link register save eliminated.
 249:.\Generated_Source\PSoC5/Timer.c ****     /* Disable Timer */
 250:.\Generated_Source\PSoC5/Timer.c ****     #if(!Timer_UDB_CONTROL_REG_REMOVED || Timer_UsingFixedFunction)
 251:.\Generated_Source\PSoC5/Timer.c ****         Timer_CONTROL &= ((uint8)(~Timer_CTRL_ENABLE));
  68              		.loc 1 251 0
  69 0000 084B     		ldr	r3, .L5
  70 0002 1A78     		ldrb	r2, [r3]	@ zero_extendqisi2
  71 0004 02F0FE02 		and	r2, r2, #254
  72 0008 1A70     		strb	r2, [r3]
 252:.\Generated_Source\PSoC5/Timer.c ****     #endif /* Remove assignment if control register is removed */
 253:.\Generated_Source\PSoC5/Timer.c **** 
 254:.\Generated_Source\PSoC5/Timer.c ****     /* Globally disable the Fixed Function Block chosen */
 255:.\Generated_Source\PSoC5/Timer.c ****     #if (Timer_UsingFixedFunction)
 256:.\Generated_Source\PSoC5/Timer.c ****         Timer_GLOBAL_ENABLE &= ((uint8)(~Timer_BLOCK_EN_MASK));
  73              		.loc 1 256 0
  74 000a A3F66933 		subw	r3, r3, #2921
  75 000e 1A78     		ldrb	r2, [r3]	@ zero_extendqisi2
  76 0010 02F0FD02 		and	r2, r2, #253
  77 0014 1A70     		strb	r2, [r3]
 257:.\Generated_Source\PSoC5/Timer.c ****         Timer_GLOBAL_STBY_ENABLE &= ((uint8)(~Timer_BLOCK_STBY_EN_MASK));
  78              		.loc 1 257 0
  79 0016 1033     		adds	r3, r3, #16
  80 0018 1A78     		ldrb	r2, [r3]	@ zero_extendqisi2
  81 001a 02F0FD02 		and	r2, r2, #253
  82 001e 1A70     		strb	r2, [r3]
  83 0020 7047     		bx	lr
  84              	.L6:
  85 0022 00BF     		.align	2
ARM GAS  C:\Users\mitchell\AppData\Local\Temp\ccAQ6deh.s 			page 7


  86              	.L5:
  87 0024 0C4F0040 		.word	1073762060
  88              		.cfi_endproc
  89              	.LFE3:
  90              		.size	Timer_Stop, .-Timer_Stop
  91              		.section	.text.Timer_SetInterruptMode,"ax",%progbits
  92              		.align	2
  93              		.global	Timer_SetInterruptMode
  94              		.thumb
  95              		.thumb_func
  96              		.type	Timer_SetInterruptMode, %function
  97              	Timer_SetInterruptMode:
  98              	.LFB4:
 258:.\Generated_Source\PSoC5/Timer.c ****     #endif /* Disable global enable for the Timer Fixed function block to stop the Timer*/
 259:.\Generated_Source\PSoC5/Timer.c **** }
 260:.\Generated_Source\PSoC5/Timer.c **** 
 261:.\Generated_Source\PSoC5/Timer.c **** 
 262:.\Generated_Source\PSoC5/Timer.c **** /*******************************************************************************
 263:.\Generated_Source\PSoC5/Timer.c **** * Function Name: Timer_SetInterruptMode
 264:.\Generated_Source\PSoC5/Timer.c **** ********************************************************************************
 265:.\Generated_Source\PSoC5/Timer.c **** *
 266:.\Generated_Source\PSoC5/Timer.c **** * Summary:
 267:.\Generated_Source\PSoC5/Timer.c **** *  This function selects which of the interrupt inputs may cause an interrupt.
 268:.\Generated_Source\PSoC5/Timer.c **** *  The twosources are caputure and terminal.  One, both or neither may
 269:.\Generated_Source\PSoC5/Timer.c **** *  be selected.
 270:.\Generated_Source\PSoC5/Timer.c **** *
 271:.\Generated_Source\PSoC5/Timer.c **** * Parameters:
 272:.\Generated_Source\PSoC5/Timer.c **** *  interruptMode:   This parameter is used to enable interrups on either/or
 273:.\Generated_Source\PSoC5/Timer.c **** *                   terminal count or capture.
 274:.\Generated_Source\PSoC5/Timer.c **** *
 275:.\Generated_Source\PSoC5/Timer.c **** * Return:
 276:.\Generated_Source\PSoC5/Timer.c **** *  void
 277:.\Generated_Source\PSoC5/Timer.c **** *
 278:.\Generated_Source\PSoC5/Timer.c **** *******************************************************************************/
 279:.\Generated_Source\PSoC5/Timer.c **** void Timer_SetInterruptMode(uint8 interruptMode) 
 280:.\Generated_Source\PSoC5/Timer.c **** {
  99              		.loc 1 280 0
 100              		.cfi_startproc
 101              		@ args = 0, pretend = 0, frame = 0
 102              		@ frame_needed = 0, uses_anonymous_args = 0
 103              		@ link register save eliminated.
 104              	.LVL0:
 281:.\Generated_Source\PSoC5/Timer.c ****     Timer_STATUS_MASK = interruptMode;
 105              		.loc 1 281 0
 106 0000 014B     		ldr	r3, .L8
 107 0002 1870     		strb	r0, [r3]
 108 0004 7047     		bx	lr
 109              	.L9:
 110 0006 00BF     		.align	2
 111              	.L8:
 112 0008 0F4F0040 		.word	1073762063
 113              		.cfi_endproc
 114              	.LFE4:
 115              		.size	Timer_SetInterruptMode, .-Timer_SetInterruptMode
 116              		.section	.text.Timer_SoftwareCapture,"ax",%progbits
 117              		.align	2
 118              		.global	Timer_SoftwareCapture
ARM GAS  C:\Users\mitchell\AppData\Local\Temp\ccAQ6deh.s 			page 8


 119              		.thumb
 120              		.thumb_func
 121              		.type	Timer_SoftwareCapture, %function
 122              	Timer_SoftwareCapture:
 123              	.LFB5:
 282:.\Generated_Source\PSoC5/Timer.c **** }
 283:.\Generated_Source\PSoC5/Timer.c **** 
 284:.\Generated_Source\PSoC5/Timer.c **** 
 285:.\Generated_Source\PSoC5/Timer.c **** /*******************************************************************************
 286:.\Generated_Source\PSoC5/Timer.c **** * Function Name: Timer_SoftwareCapture
 287:.\Generated_Source\PSoC5/Timer.c **** ********************************************************************************
 288:.\Generated_Source\PSoC5/Timer.c **** *
 289:.\Generated_Source\PSoC5/Timer.c **** * Summary:
 290:.\Generated_Source\PSoC5/Timer.c **** *  This function forces a capture independent of the capture signal.
 291:.\Generated_Source\PSoC5/Timer.c **** *
 292:.\Generated_Source\PSoC5/Timer.c **** * Parameters:
 293:.\Generated_Source\PSoC5/Timer.c **** *  void
 294:.\Generated_Source\PSoC5/Timer.c **** *
 295:.\Generated_Source\PSoC5/Timer.c **** * Return:
 296:.\Generated_Source\PSoC5/Timer.c **** *  void
 297:.\Generated_Source\PSoC5/Timer.c **** *
 298:.\Generated_Source\PSoC5/Timer.c **** * Side Effects:
 299:.\Generated_Source\PSoC5/Timer.c **** *  An existing hardware capture could be overwritten.
 300:.\Generated_Source\PSoC5/Timer.c **** *
 301:.\Generated_Source\PSoC5/Timer.c **** *******************************************************************************/
 302:.\Generated_Source\PSoC5/Timer.c **** void Timer_SoftwareCapture(void) 
 303:.\Generated_Source\PSoC5/Timer.c **** {
 124              		.loc 1 303 0
 125              		.cfi_startproc
 126              		@ args = 0, pretend = 0, frame = 0
 127              		@ frame_needed = 0, uses_anonymous_args = 0
 128              		@ link register save eliminated.
 304:.\Generated_Source\PSoC5/Timer.c ****     /* Generate a software capture by reading the counter register */
 305:.\Generated_Source\PSoC5/Timer.c ****     #if(Timer_UsingFixedFunction)
 306:.\Generated_Source\PSoC5/Timer.c ****         (void)CY_GET_REG16(Timer_COUNTER_LSB_PTR);
 129              		.loc 1 306 0
 130 0000 014B     		ldr	r3, .L11
 131 0002 1B88     		ldrh	r3, [r3]
 132 0004 7047     		bx	lr
 133              	.L12:
 134 0006 00BF     		.align	2
 135              	.L11:
 136 0008 124F0040 		.word	1073762066
 137              		.cfi_endproc
 138              	.LFE5:
 139              		.size	Timer_SoftwareCapture, .-Timer_SoftwareCapture
 140              		.section	.text.Timer_ReadStatusRegister,"ax",%progbits
 141              		.align	2
 142              		.global	Timer_ReadStatusRegister
 143              		.thumb
 144              		.thumb_func
 145              		.type	Timer_ReadStatusRegister, %function
 146              	Timer_ReadStatusRegister:
 147              	.LFB6:
 307:.\Generated_Source\PSoC5/Timer.c ****     #else
 308:.\Generated_Source\PSoC5/Timer.c ****         (void)CY_GET_REG8(Timer_COUNTER_LSB_PTR_8BIT);
 309:.\Generated_Source\PSoC5/Timer.c ****     #endif/* (Timer_UsingFixedFunction) */
ARM GAS  C:\Users\mitchell\AppData\Local\Temp\ccAQ6deh.s 			page 9


 310:.\Generated_Source\PSoC5/Timer.c ****     /* Capture Data is now in the FIFO */
 311:.\Generated_Source\PSoC5/Timer.c **** }
 312:.\Generated_Source\PSoC5/Timer.c **** 
 313:.\Generated_Source\PSoC5/Timer.c **** 
 314:.\Generated_Source\PSoC5/Timer.c **** /*******************************************************************************
 315:.\Generated_Source\PSoC5/Timer.c **** * Function Name: Timer_ReadStatusRegister
 316:.\Generated_Source\PSoC5/Timer.c **** ********************************************************************************
 317:.\Generated_Source\PSoC5/Timer.c **** *
 318:.\Generated_Source\PSoC5/Timer.c **** * Summary:
 319:.\Generated_Source\PSoC5/Timer.c **** *  Reads the status register and returns it's state. This function should use
 320:.\Generated_Source\PSoC5/Timer.c **** *  defined types for the bit-field information as the bits in this register may
 321:.\Generated_Source\PSoC5/Timer.c **** *  be permuteable.
 322:.\Generated_Source\PSoC5/Timer.c **** *
 323:.\Generated_Source\PSoC5/Timer.c **** * Parameters:
 324:.\Generated_Source\PSoC5/Timer.c **** *  void
 325:.\Generated_Source\PSoC5/Timer.c **** *
 326:.\Generated_Source\PSoC5/Timer.c **** * Return:
 327:.\Generated_Source\PSoC5/Timer.c **** *  The contents of the status register
 328:.\Generated_Source\PSoC5/Timer.c **** *
 329:.\Generated_Source\PSoC5/Timer.c **** * Side Effects:
 330:.\Generated_Source\PSoC5/Timer.c **** *  Status register bits may be clear on read.
 331:.\Generated_Source\PSoC5/Timer.c **** *
 332:.\Generated_Source\PSoC5/Timer.c **** *******************************************************************************/
 333:.\Generated_Source\PSoC5/Timer.c **** uint8   Timer_ReadStatusRegister(void) 
 334:.\Generated_Source\PSoC5/Timer.c **** {
 148              		.loc 1 334 0
 149              		.cfi_startproc
 150              		@ args = 0, pretend = 0, frame = 0
 151              		@ frame_needed = 0, uses_anonymous_args = 0
 152              		@ link register save eliminated.
 335:.\Generated_Source\PSoC5/Timer.c ****     return (Timer_STATUS);
 153              		.loc 1 335 0
 154 0000 014B     		ldr	r3, .L14
 155 0002 1878     		ldrb	r0, [r3]	@ zero_extendqisi2
 336:.\Generated_Source\PSoC5/Timer.c **** }
 156              		.loc 1 336 0
 157 0004 7047     		bx	lr
 158              	.L15:
 159 0006 00BF     		.align	2
 160              	.L14:
 161 0008 0F4F0040 		.word	1073762063
 162              		.cfi_endproc
 163              	.LFE6:
 164              		.size	Timer_ReadStatusRegister, .-Timer_ReadStatusRegister
 165              		.section	.text.Timer_ReadControlRegister,"ax",%progbits
 166              		.align	2
 167              		.global	Timer_ReadControlRegister
 168              		.thumb
 169              		.thumb_func
 170              		.type	Timer_ReadControlRegister, %function
 171              	Timer_ReadControlRegister:
 172              	.LFB7:
 337:.\Generated_Source\PSoC5/Timer.c **** 
 338:.\Generated_Source\PSoC5/Timer.c **** 
 339:.\Generated_Source\PSoC5/Timer.c **** #if (!Timer_UDB_CONTROL_REG_REMOVED) /* Remove API if control register is unused */
 340:.\Generated_Source\PSoC5/Timer.c **** 
 341:.\Generated_Source\PSoC5/Timer.c **** 
ARM GAS  C:\Users\mitchell\AppData\Local\Temp\ccAQ6deh.s 			page 10


 342:.\Generated_Source\PSoC5/Timer.c **** /*******************************************************************************
 343:.\Generated_Source\PSoC5/Timer.c **** * Function Name: Timer_ReadControlRegister
 344:.\Generated_Source\PSoC5/Timer.c **** ********************************************************************************
 345:.\Generated_Source\PSoC5/Timer.c **** *
 346:.\Generated_Source\PSoC5/Timer.c **** * Summary:
 347:.\Generated_Source\PSoC5/Timer.c **** *  Reads the control register and returns it's value.
 348:.\Generated_Source\PSoC5/Timer.c **** *
 349:.\Generated_Source\PSoC5/Timer.c **** * Parameters:
 350:.\Generated_Source\PSoC5/Timer.c **** *  void
 351:.\Generated_Source\PSoC5/Timer.c **** *
 352:.\Generated_Source\PSoC5/Timer.c **** * Return:
 353:.\Generated_Source\PSoC5/Timer.c **** *  The contents of the control register
 354:.\Generated_Source\PSoC5/Timer.c **** *
 355:.\Generated_Source\PSoC5/Timer.c **** *******************************************************************************/
 356:.\Generated_Source\PSoC5/Timer.c **** uint8 Timer_ReadControlRegister(void) 
 357:.\Generated_Source\PSoC5/Timer.c **** {
 173              		.loc 1 357 0
 174              		.cfi_startproc
 175              		@ args = 0, pretend = 0, frame = 0
 176              		@ frame_needed = 0, uses_anonymous_args = 0
 177              		@ link register save eliminated.
 358:.\Generated_Source\PSoC5/Timer.c ****     #if (!Timer_UDB_CONTROL_REG_REMOVED) 
 359:.\Generated_Source\PSoC5/Timer.c ****         return ((uint8)Timer_CONTROL);
 178              		.loc 1 359 0
 179 0000 014B     		ldr	r3, .L17
 180 0002 1878     		ldrb	r0, [r3]	@ zero_extendqisi2
 360:.\Generated_Source\PSoC5/Timer.c ****     #else
 361:.\Generated_Source\PSoC5/Timer.c ****         return (0);
 362:.\Generated_Source\PSoC5/Timer.c ****     #endif /* (!Timer_UDB_CONTROL_REG_REMOVED) */
 363:.\Generated_Source\PSoC5/Timer.c **** }
 181              		.loc 1 363 0
 182 0004 7047     		bx	lr
 183              	.L18:
 184 0006 00BF     		.align	2
 185              	.L17:
 186 0008 0C4F0040 		.word	1073762060
 187              		.cfi_endproc
 188              	.LFE7:
 189              		.size	Timer_ReadControlRegister, .-Timer_ReadControlRegister
 190              		.section	.text.Timer_WriteControlRegister,"ax",%progbits
 191              		.align	2
 192              		.global	Timer_WriteControlRegister
 193              		.thumb
 194              		.thumb_func
 195              		.type	Timer_WriteControlRegister, %function
 196              	Timer_WriteControlRegister:
 197              	.LFB8:
 364:.\Generated_Source\PSoC5/Timer.c **** 
 365:.\Generated_Source\PSoC5/Timer.c **** 
 366:.\Generated_Source\PSoC5/Timer.c **** /*******************************************************************************
 367:.\Generated_Source\PSoC5/Timer.c **** * Function Name: Timer_WriteControlRegister
 368:.\Generated_Source\PSoC5/Timer.c **** ********************************************************************************
 369:.\Generated_Source\PSoC5/Timer.c **** *
 370:.\Generated_Source\PSoC5/Timer.c **** * Summary:
 371:.\Generated_Source\PSoC5/Timer.c **** *  Sets the bit-field of the control register.
 372:.\Generated_Source\PSoC5/Timer.c **** *
 373:.\Generated_Source\PSoC5/Timer.c **** * Parameters:
ARM GAS  C:\Users\mitchell\AppData\Local\Temp\ccAQ6deh.s 			page 11


 374:.\Generated_Source\PSoC5/Timer.c **** *  control: The contents of the control register
 375:.\Generated_Source\PSoC5/Timer.c **** *
 376:.\Generated_Source\PSoC5/Timer.c **** * Return:
 377:.\Generated_Source\PSoC5/Timer.c **** *
 378:.\Generated_Source\PSoC5/Timer.c **** *******************************************************************************/
 379:.\Generated_Source\PSoC5/Timer.c **** void Timer_WriteControlRegister(uint8 control) 
 380:.\Generated_Source\PSoC5/Timer.c **** {
 198              		.loc 1 380 0
 199              		.cfi_startproc
 200              		@ args = 0, pretend = 0, frame = 0
 201              		@ frame_needed = 0, uses_anonymous_args = 0
 202              		@ link register save eliminated.
 203              	.LVL1:
 381:.\Generated_Source\PSoC5/Timer.c ****     #if (!Timer_UDB_CONTROL_REG_REMOVED) 
 382:.\Generated_Source\PSoC5/Timer.c ****         Timer_CONTROL = control;
 204              		.loc 1 382 0
 205 0000 014B     		ldr	r3, .L20
 206 0002 1870     		strb	r0, [r3]
 207 0004 7047     		bx	lr
 208              	.L21:
 209 0006 00BF     		.align	2
 210              	.L20:
 211 0008 0C4F0040 		.word	1073762060
 212              		.cfi_endproc
 213              	.LFE8:
 214              		.size	Timer_WriteControlRegister, .-Timer_WriteControlRegister
 215              		.section	.text.Timer_ReadPeriod,"ax",%progbits
 216              		.align	2
 217              		.global	Timer_ReadPeriod
 218              		.thumb
 219              		.thumb_func
 220              		.type	Timer_ReadPeriod, %function
 221              	Timer_ReadPeriod:
 222              	.LFB9:
 383:.\Generated_Source\PSoC5/Timer.c ****     #else
 384:.\Generated_Source\PSoC5/Timer.c ****         control = 0u;
 385:.\Generated_Source\PSoC5/Timer.c ****     #endif /* (!Timer_UDB_CONTROL_REG_REMOVED) */
 386:.\Generated_Source\PSoC5/Timer.c **** }
 387:.\Generated_Source\PSoC5/Timer.c **** 
 388:.\Generated_Source\PSoC5/Timer.c **** #endif /* Remove API if control register is unused */
 389:.\Generated_Source\PSoC5/Timer.c **** 
 390:.\Generated_Source\PSoC5/Timer.c **** 
 391:.\Generated_Source\PSoC5/Timer.c **** /*******************************************************************************
 392:.\Generated_Source\PSoC5/Timer.c **** * Function Name: Timer_ReadPeriod
 393:.\Generated_Source\PSoC5/Timer.c **** ********************************************************************************
 394:.\Generated_Source\PSoC5/Timer.c **** *
 395:.\Generated_Source\PSoC5/Timer.c **** * Summary:
 396:.\Generated_Source\PSoC5/Timer.c **** *  This function returns the current value of the Period.
 397:.\Generated_Source\PSoC5/Timer.c **** *
 398:.\Generated_Source\PSoC5/Timer.c **** * Parameters:
 399:.\Generated_Source\PSoC5/Timer.c **** *  void
 400:.\Generated_Source\PSoC5/Timer.c **** *
 401:.\Generated_Source\PSoC5/Timer.c **** * Return:
 402:.\Generated_Source\PSoC5/Timer.c **** *  The present value of the counter.
 403:.\Generated_Source\PSoC5/Timer.c **** *
 404:.\Generated_Source\PSoC5/Timer.c **** *******************************************************************************/
 405:.\Generated_Source\PSoC5/Timer.c **** uint16 Timer_ReadPeriod(void) 
ARM GAS  C:\Users\mitchell\AppData\Local\Temp\ccAQ6deh.s 			page 12


 406:.\Generated_Source\PSoC5/Timer.c **** {
 223              		.loc 1 406 0
 224              		.cfi_startproc
 225              		@ args = 0, pretend = 0, frame = 0
 226              		@ frame_needed = 0, uses_anonymous_args = 0
 227              		@ link register save eliminated.
 407:.\Generated_Source\PSoC5/Timer.c ****    #if(Timer_UsingFixedFunction)
 408:.\Generated_Source\PSoC5/Timer.c ****        return ((uint16)CY_GET_REG16(Timer_PERIOD_LSB_PTR));
 228              		.loc 1 408 0
 229 0000 014B     		ldr	r3, .L23
 230 0002 1888     		ldrh	r0, [r3]
 409:.\Generated_Source\PSoC5/Timer.c ****    #else
 410:.\Generated_Source\PSoC5/Timer.c ****        return (CY_GET_REG16(Timer_PERIOD_LSB_PTR));
 411:.\Generated_Source\PSoC5/Timer.c ****    #endif /* (Timer_UsingFixedFunction) */
 412:.\Generated_Source\PSoC5/Timer.c **** }
 231              		.loc 1 412 0
 232 0004 80B2     		uxth	r0, r0
 233 0006 7047     		bx	lr
 234              	.L24:
 235              		.align	2
 236              	.L23:
 237 0008 104F0040 		.word	1073762064
 238              		.cfi_endproc
 239              	.LFE9:
 240              		.size	Timer_ReadPeriod, .-Timer_ReadPeriod
 241              		.section	.text.Timer_WritePeriod,"ax",%progbits
 242              		.align	2
 243              		.global	Timer_WritePeriod
 244              		.thumb
 245              		.thumb_func
 246              		.type	Timer_WritePeriod, %function
 247              	Timer_WritePeriod:
 248              	.LFB10:
 413:.\Generated_Source\PSoC5/Timer.c **** 
 414:.\Generated_Source\PSoC5/Timer.c **** 
 415:.\Generated_Source\PSoC5/Timer.c **** /*******************************************************************************
 416:.\Generated_Source\PSoC5/Timer.c **** * Function Name: Timer_WritePeriod
 417:.\Generated_Source\PSoC5/Timer.c **** ********************************************************************************
 418:.\Generated_Source\PSoC5/Timer.c **** *
 419:.\Generated_Source\PSoC5/Timer.c **** * Summary:
 420:.\Generated_Source\PSoC5/Timer.c **** *  This function is used to change the period of the counter.  The new period
 421:.\Generated_Source\PSoC5/Timer.c **** *  will be loaded the next time terminal count is detected.
 422:.\Generated_Source\PSoC5/Timer.c **** *
 423:.\Generated_Source\PSoC5/Timer.c **** * Parameters:
 424:.\Generated_Source\PSoC5/Timer.c **** *  period: This value may be between 1 and (2^Resolution)-1.  A value of 0 will
 425:.\Generated_Source\PSoC5/Timer.c **** *          result in the counter remaining at zero.
 426:.\Generated_Source\PSoC5/Timer.c **** *
 427:.\Generated_Source\PSoC5/Timer.c **** * Return:
 428:.\Generated_Source\PSoC5/Timer.c **** *  void
 429:.\Generated_Source\PSoC5/Timer.c **** *
 430:.\Generated_Source\PSoC5/Timer.c **** *******************************************************************************/
 431:.\Generated_Source\PSoC5/Timer.c **** void Timer_WritePeriod(uint16 period) 
 432:.\Generated_Source\PSoC5/Timer.c **** {
 249              		.loc 1 432 0
 250              		.cfi_startproc
 251              		@ args = 0, pretend = 0, frame = 0
 252              		@ frame_needed = 0, uses_anonymous_args = 0
ARM GAS  C:\Users\mitchell\AppData\Local\Temp\ccAQ6deh.s 			page 13


 253              		@ link register save eliminated.
 254              	.LVL2:
 433:.\Generated_Source\PSoC5/Timer.c ****     #if(Timer_UsingFixedFunction)
 434:.\Generated_Source\PSoC5/Timer.c ****         uint16 period_temp = (uint16)period;
 435:.\Generated_Source\PSoC5/Timer.c ****         CY_SET_REG16(Timer_PERIOD_LSB_PTR, period_temp);
 255              		.loc 1 435 0
 256 0000 014B     		ldr	r3, .L26
 257 0002 1880     		strh	r0, [r3]	@ movhi
 258 0004 7047     		bx	lr
 259              	.L27:
 260 0006 00BF     		.align	2
 261              	.L26:
 262 0008 104F0040 		.word	1073762064
 263              		.cfi_endproc
 264              	.LFE10:
 265              		.size	Timer_WritePeriod, .-Timer_WritePeriod
 266              		.section	.text.Timer_ReadCapture,"ax",%progbits
 267              		.align	2
 268              		.global	Timer_ReadCapture
 269              		.thumb
 270              		.thumb_func
 271              		.type	Timer_ReadCapture, %function
 272              	Timer_ReadCapture:
 273              	.LFB11:
 436:.\Generated_Source\PSoC5/Timer.c ****     #else
 437:.\Generated_Source\PSoC5/Timer.c ****         CY_SET_REG16(Timer_PERIOD_LSB_PTR, period);
 438:.\Generated_Source\PSoC5/Timer.c ****     #endif /*Write Period value with appropriate resolution suffix depending on UDB or fixed functi
 439:.\Generated_Source\PSoC5/Timer.c **** }
 440:.\Generated_Source\PSoC5/Timer.c **** 
 441:.\Generated_Source\PSoC5/Timer.c **** 
 442:.\Generated_Source\PSoC5/Timer.c **** /*******************************************************************************
 443:.\Generated_Source\PSoC5/Timer.c **** * Function Name: Timer_ReadCapture
 444:.\Generated_Source\PSoC5/Timer.c **** ********************************************************************************
 445:.\Generated_Source\PSoC5/Timer.c **** *
 446:.\Generated_Source\PSoC5/Timer.c **** * Summary:
 447:.\Generated_Source\PSoC5/Timer.c **** *  This function returns the last value captured.
 448:.\Generated_Source\PSoC5/Timer.c **** *
 449:.\Generated_Source\PSoC5/Timer.c **** * Parameters:
 450:.\Generated_Source\PSoC5/Timer.c **** *  void
 451:.\Generated_Source\PSoC5/Timer.c **** *
 452:.\Generated_Source\PSoC5/Timer.c **** * Return:
 453:.\Generated_Source\PSoC5/Timer.c **** *  Present Capture value.
 454:.\Generated_Source\PSoC5/Timer.c **** *
 455:.\Generated_Source\PSoC5/Timer.c **** *******************************************************************************/
 456:.\Generated_Source\PSoC5/Timer.c **** uint16 Timer_ReadCapture(void) 
 457:.\Generated_Source\PSoC5/Timer.c **** {
 274              		.loc 1 457 0
 275              		.cfi_startproc
 276              		@ args = 0, pretend = 0, frame = 0
 277              		@ frame_needed = 0, uses_anonymous_args = 0
 278              		@ link register save eliminated.
 458:.\Generated_Source\PSoC5/Timer.c ****    #if(Timer_UsingFixedFunction)
 459:.\Generated_Source\PSoC5/Timer.c ****        return ((uint16)CY_GET_REG16(Timer_CAPTURE_LSB_PTR));
 279              		.loc 1 459 0
 280 0000 014B     		ldr	r3, .L29
 281 0002 1888     		ldrh	r0, [r3]
 460:.\Generated_Source\PSoC5/Timer.c ****    #else
ARM GAS  C:\Users\mitchell\AppData\Local\Temp\ccAQ6deh.s 			page 14


 461:.\Generated_Source\PSoC5/Timer.c ****        return (CY_GET_REG16(Timer_CAPTURE_LSB_PTR));
 462:.\Generated_Source\PSoC5/Timer.c ****    #endif /* (Timer_UsingFixedFunction) */
 463:.\Generated_Source\PSoC5/Timer.c **** }
 282              		.loc 1 463 0
 283 0004 80B2     		uxth	r0, r0
 284 0006 7047     		bx	lr
 285              	.L30:
 286              		.align	2
 287              	.L29:
 288 0008 144F0040 		.word	1073762068
 289              		.cfi_endproc
 290              	.LFE11:
 291              		.size	Timer_ReadCapture, .-Timer_ReadCapture
 292              		.section	.text.Timer_WriteCounter,"ax",%progbits
 293              		.align	2
 294              		.global	Timer_WriteCounter
 295              		.thumb
 296              		.thumb_func
 297              		.type	Timer_WriteCounter, %function
 298              	Timer_WriteCounter:
 299              	.LFB12:
 464:.\Generated_Source\PSoC5/Timer.c **** 
 465:.\Generated_Source\PSoC5/Timer.c **** 
 466:.\Generated_Source\PSoC5/Timer.c **** /*******************************************************************************
 467:.\Generated_Source\PSoC5/Timer.c **** * Function Name: Timer_WriteCounter
 468:.\Generated_Source\PSoC5/Timer.c **** ********************************************************************************
 469:.\Generated_Source\PSoC5/Timer.c **** *
 470:.\Generated_Source\PSoC5/Timer.c **** * Summary:
 471:.\Generated_Source\PSoC5/Timer.c **** *  This funtion is used to set the counter to a specific value
 472:.\Generated_Source\PSoC5/Timer.c **** *
 473:.\Generated_Source\PSoC5/Timer.c **** * Parameters:
 474:.\Generated_Source\PSoC5/Timer.c **** *  counter:  New counter value.
 475:.\Generated_Source\PSoC5/Timer.c **** *
 476:.\Generated_Source\PSoC5/Timer.c **** * Return:
 477:.\Generated_Source\PSoC5/Timer.c **** *  void
 478:.\Generated_Source\PSoC5/Timer.c **** *
 479:.\Generated_Source\PSoC5/Timer.c **** *******************************************************************************/
 480:.\Generated_Source\PSoC5/Timer.c **** void Timer_WriteCounter(uint16 counter) 
 481:.\Generated_Source\PSoC5/Timer.c **** {
 300              		.loc 1 481 0
 301              		.cfi_startproc
 302              		@ args = 0, pretend = 0, frame = 0
 303              		@ frame_needed = 0, uses_anonymous_args = 0
 304              		@ link register save eliminated.
 305              	.LVL3:
 482:.\Generated_Source\PSoC5/Timer.c ****    #if(Timer_UsingFixedFunction)
 483:.\Generated_Source\PSoC5/Timer.c ****         /* This functionality is removed until a FixedFunction HW update to
 484:.\Generated_Source\PSoC5/Timer.c ****          * allow this register to be written
 485:.\Generated_Source\PSoC5/Timer.c ****          */
 486:.\Generated_Source\PSoC5/Timer.c ****         CY_SET_REG16(Timer_COUNTER_LSB_PTR, (uint16)counter);
 306              		.loc 1 486 0
 307 0000 014B     		ldr	r3, .L32
 308 0002 1880     		strh	r0, [r3]	@ movhi
 309 0004 7047     		bx	lr
 310              	.L33:
 311 0006 00BF     		.align	2
 312              	.L32:
ARM GAS  C:\Users\mitchell\AppData\Local\Temp\ccAQ6deh.s 			page 15


 313 0008 124F0040 		.word	1073762066
 314              		.cfi_endproc
 315              	.LFE12:
 316              		.size	Timer_WriteCounter, .-Timer_WriteCounter
 317              		.section	.text.Timer_Init,"ax",%progbits
 318              		.align	2
 319              		.global	Timer_Init
 320              		.thumb
 321              		.thumb_func
 322              		.type	Timer_Init, %function
 323              	Timer_Init:
 324              	.LFB0:
  44:.\Generated_Source\PSoC5/Timer.c **** {
 325              		.loc 1 44 0
 326              		.cfi_startproc
 327              		@ args = 0, pretend = 0, frame = 0
 328              		@ frame_needed = 0, uses_anonymous_args = 0
 329 0000 08B5     		push	{r3, lr}
 330              		.cfi_def_cfa_offset 8
 331              		.cfi_offset 3, -8
 332              		.cfi_offset 14, -4
  52:.\Generated_Source\PSoC5/Timer.c ****         Timer_CONTROL &= Timer_CTRL_ENABLE;
 333              		.loc 1 52 0
 334 0002 164B     		ldr	r3, .L35
 335 0004 1A78     		ldrb	r2, [r3]	@ zero_extendqisi2
 336 0006 02F00102 		and	r2, r2, #1
 337 000a 1A70     		strb	r2, [r3]
  60:.\Generated_Source\PSoC5/Timer.c ****             Timer_CONTROL3 &= ((uint8)(~Timer_CTRL_MODE_MASK));
 338              		.loc 1 60 0
 339 000c 0233     		adds	r3, r3, #2
 340 000e 1A78     		ldrb	r2, [r3]	@ zero_extendqisi2
 341 0010 02F0FC02 		and	r2, r2, #252
 342 0014 1A70     		strb	r2, [r3]
 106:.\Generated_Source\PSoC5/Timer.c ****         Timer_RT1 &= ((uint8)(~Timer_RT1_MASK));
 343              		.loc 1 106 0
 344 0016 0933     		adds	r3, r3, #9
 345 0018 1A78     		ldrb	r2, [r3]	@ zero_extendqisi2
 346 001a 02F0CF02 		and	r2, r2, #207
 347 001e 1A70     		strb	r2, [r3]
 107:.\Generated_Source\PSoC5/Timer.c ****         Timer_RT1 |= Timer_SYNC;
 348              		.loc 1 107 0
 349 0020 1A78     		ldrb	r2, [r3]	@ zero_extendqisi2
 350 0022 42F03002 		orr	r2, r2, #48
 351 0026 1A70     		strb	r2, [r3]
 110:.\Generated_Source\PSoC5/Timer.c ****         Timer_RT1 &= ((uint8)(~Timer_SYNCDSI_MASK));
 352              		.loc 1 110 0
 353 0028 1A78     		ldrb	r2, [r3]	@ zero_extendqisi2
 354 002a 02F0F002 		and	r2, r2, #240
 355 002e 1A70     		strb	r2, [r3]
 111:.\Generated_Source\PSoC5/Timer.c ****         Timer_RT1 |= Timer_SYNCDSI_EN;
 356              		.loc 1 111 0
 357 0030 1A78     		ldrb	r2, [r3]	@ zero_extendqisi2
 358 0032 42F00F02 		orr	r2, r2, #15
 359 0036 1A70     		strb	r2, [r3]
 114:.\Generated_Source\PSoC5/Timer.c ****         Timer_CONTROL2 |= Timer_CTRL2_IRQ_SEL;
 360              		.loc 1 114 0
 361 0038 0A3B     		subs	r3, r3, #10
ARM GAS  C:\Users\mitchell\AppData\Local\Temp\ccAQ6deh.s 			page 16


 362 003a 1A78     		ldrb	r2, [r3]	@ zero_extendqisi2
 363 003c 42F00102 		orr	r2, r2, #1
 364 0040 1A70     		strb	r2, [r3]
 118:.\Generated_Source\PSoC5/Timer.c ****     Timer_WritePeriod(Timer_INIT_PERIOD);
 365              		.loc 1 118 0
 366 0042 4FF6FF70 		movw	r0, #65535
 367 0046 FFF7FEFF 		bl	Timer_WritePeriod
 368              	.LVL4:
 119:.\Generated_Source\PSoC5/Timer.c ****     Timer_WriteCounter(Timer_INIT_PERIOD);
 369              		.loc 1 119 0
 370 004a 4FF6FF70 		movw	r0, #65535
 371 004e FFF7FEFF 		bl	Timer_WriteCounter
 372              	.LVL5:
 162:.\Generated_Source\PSoC5/Timer.c ****     Timer_SetInterruptMode(Timer_INIT_INTERRUPT_MODE);
 373              		.loc 1 162 0
 374 0052 0820     		movs	r0, #8
 375 0054 FFF7FEFF 		bl	Timer_SetInterruptMode
 376              	.LVL6:
 377 0058 08BD     		pop	{r3, pc}
 378              	.L36:
 379 005a 00BF     		.align	2
 380              	.L35:
 381 005c 0C4F0040 		.word	1073762060
 382              		.cfi_endproc
 383              	.LFE0:
 384              		.size	Timer_Init, .-Timer_Init
 385              		.section	.text.Timer_Start,"ax",%progbits
 386              		.align	2
 387              		.global	Timer_Start
 388              		.thumb
 389              		.thumb_func
 390              		.type	Timer_Start, %function
 391              	Timer_Start:
 392              	.LFB2:
 216:.\Generated_Source\PSoC5/Timer.c **** {
 393              		.loc 1 216 0
 394              		.cfi_startproc
 395              		@ args = 0, pretend = 0, frame = 0
 396              		@ frame_needed = 0, uses_anonymous_args = 0
 397 0000 08B5     		push	{r3, lr}
 398              		.cfi_def_cfa_offset 8
 399              		.cfi_offset 3, -8
 400              		.cfi_offset 14, -4
 217:.\Generated_Source\PSoC5/Timer.c ****     if(Timer_initVar == 0u)
 401              		.loc 1 217 0
 402 0002 054B     		ldr	r3, .L39
 403 0004 1B78     		ldrb	r3, [r3]	@ zero_extendqisi2
 404 0006 23B9     		cbnz	r3, .L38
 219:.\Generated_Source\PSoC5/Timer.c ****         Timer_Init();
 405              		.loc 1 219 0
 406 0008 FFF7FEFF 		bl	Timer_Init
 407              	.LVL7:
 221:.\Generated_Source\PSoC5/Timer.c ****         Timer_initVar = 1u;   /* Clear this bit for Initialization */
 408              		.loc 1 221 0
 409 000c 0122     		movs	r2, #1
 410 000e 024B     		ldr	r3, .L39
 411 0010 1A70     		strb	r2, [r3]
ARM GAS  C:\Users\mitchell\AppData\Local\Temp\ccAQ6deh.s 			page 17


 412              	.L38:
 225:.\Generated_Source\PSoC5/Timer.c ****     Timer_Enable();
 413              		.loc 1 225 0
 414 0012 FFF7FEFF 		bl	Timer_Enable
 415              	.LVL8:
 416 0016 08BD     		pop	{r3, pc}
 417              	.L40:
 418              		.align	2
 419              	.L39:
 420 0018 00000000 		.word	.LANCHOR0
 421              		.cfi_endproc
 422              	.LFE2:
 423              		.size	Timer_Start, .-Timer_Start
 424              		.section	.text.Timer_ReadCounter,"ax",%progbits
 425              		.align	2
 426              		.global	Timer_ReadCounter
 427              		.thumb
 428              		.thumb_func
 429              		.type	Timer_ReadCounter, %function
 430              	Timer_ReadCounter:
 431              	.LFB13:
 487:.\Generated_Source\PSoC5/Timer.c ****         
 488:.\Generated_Source\PSoC5/Timer.c ****     #else
 489:.\Generated_Source\PSoC5/Timer.c ****         CY_SET_REG16(Timer_COUNTER_LSB_PTR, counter);
 490:.\Generated_Source\PSoC5/Timer.c ****     #endif /* Set Write Counter only for the UDB implementation (Write Counter not available in fix
 491:.\Generated_Source\PSoC5/Timer.c **** }
 492:.\Generated_Source\PSoC5/Timer.c **** 
 493:.\Generated_Source\PSoC5/Timer.c **** 
 494:.\Generated_Source\PSoC5/Timer.c **** /*******************************************************************************
 495:.\Generated_Source\PSoC5/Timer.c **** * Function Name: Timer_ReadCounter
 496:.\Generated_Source\PSoC5/Timer.c **** ********************************************************************************
 497:.\Generated_Source\PSoC5/Timer.c **** *
 498:.\Generated_Source\PSoC5/Timer.c **** * Summary:
 499:.\Generated_Source\PSoC5/Timer.c **** *  This function returns the current counter value.
 500:.\Generated_Source\PSoC5/Timer.c **** *
 501:.\Generated_Source\PSoC5/Timer.c **** * Parameters:
 502:.\Generated_Source\PSoC5/Timer.c **** *  void
 503:.\Generated_Source\PSoC5/Timer.c **** *
 504:.\Generated_Source\PSoC5/Timer.c **** * Return:
 505:.\Generated_Source\PSoC5/Timer.c **** *  Present compare value.
 506:.\Generated_Source\PSoC5/Timer.c **** *
 507:.\Generated_Source\PSoC5/Timer.c **** *******************************************************************************/
 508:.\Generated_Source\PSoC5/Timer.c **** uint16 Timer_ReadCounter(void) 
 509:.\Generated_Source\PSoC5/Timer.c **** {
 432              		.loc 1 509 0
 433              		.cfi_startproc
 434              		@ args = 0, pretend = 0, frame = 0
 435              		@ frame_needed = 0, uses_anonymous_args = 0
 436              		@ link register save eliminated.
 510:.\Generated_Source\PSoC5/Timer.c ****     /* Force capture by reading Accumulator */
 511:.\Generated_Source\PSoC5/Timer.c ****     /* Must first do a software capture to be able to read the counter */
 512:.\Generated_Source\PSoC5/Timer.c ****     /* It is up to the user code to make sure there isn't already captured data in the FIFO */
 513:.\Generated_Source\PSoC5/Timer.c ****     #if(Timer_UsingFixedFunction)
 514:.\Generated_Source\PSoC5/Timer.c ****         (void)CY_GET_REG16(Timer_COUNTER_LSB_PTR);
 437              		.loc 1 514 0
 438 0000 024B     		ldr	r3, .L42
 439 0002 1B88     		ldrh	r3, [r3]
ARM GAS  C:\Users\mitchell\AppData\Local\Temp\ccAQ6deh.s 			page 18


 515:.\Generated_Source\PSoC5/Timer.c ****     #else
 516:.\Generated_Source\PSoC5/Timer.c ****         (void)CY_GET_REG8(Timer_COUNTER_LSB_PTR_8BIT);
 517:.\Generated_Source\PSoC5/Timer.c ****     #endif/* (Timer_UsingFixedFunction) */
 518:.\Generated_Source\PSoC5/Timer.c **** 
 519:.\Generated_Source\PSoC5/Timer.c ****     /* Read the data from the FIFO (or capture register for Fixed Function)*/
 520:.\Generated_Source\PSoC5/Timer.c ****     #if(Timer_UsingFixedFunction)
 521:.\Generated_Source\PSoC5/Timer.c ****         return ((uint16)CY_GET_REG16(Timer_CAPTURE_LSB_PTR));
 440              		.loc 1 521 0
 441 0004 024B     		ldr	r3, .L42+4
 442 0006 1888     		ldrh	r0, [r3]
 522:.\Generated_Source\PSoC5/Timer.c ****     #else
 523:.\Generated_Source\PSoC5/Timer.c ****         return (CY_GET_REG16(Timer_CAPTURE_LSB_PTR));
 524:.\Generated_Source\PSoC5/Timer.c ****     #endif /* (Timer_UsingFixedFunction) */
 525:.\Generated_Source\PSoC5/Timer.c **** }
 443              		.loc 1 525 0
 444 0008 80B2     		uxth	r0, r0
 445 000a 7047     		bx	lr
 446              	.L43:
 447              		.align	2
 448              	.L42:
 449 000c 124F0040 		.word	1073762066
 450 0010 144F0040 		.word	1073762068
 451              		.cfi_endproc
 452              	.LFE13:
 453              		.size	Timer_ReadCounter, .-Timer_ReadCounter
 454              		.global	Timer_initVar
 455              		.bss
 456              		.set	.LANCHOR0,. + 0
 457              		.type	Timer_initVar, %object
 458              		.size	Timer_initVar, 1
 459              	Timer_initVar:
 460 0000 00       		.space	1
 461              		.text
 462              	.Letext0:
 463              		.file 2 ".\\Generated_Source\\PSoC5\\cytypes.h"