ARM GAS  C:\Users\mitchell\AppData\Local\Temp\ccEaOq0a.s 			page 1


   1              		.syntax unified
   2              		.cpu cortex-m3
   3              		.fpu softvfp
   4              		.eabi_attribute 20, 1
   5              		.eabi_attribute 21, 1
   6              		.eabi_attribute 23, 3
   7              		.eabi_attribute 24, 1
   8              		.eabi_attribute 25, 1
   9              		.eabi_attribute 26, 1
  10              		.eabi_attribute 30, 1
  11              		.eabi_attribute 34, 1
  12              		.eabi_attribute 18, 4
  13              		.thumb
  14              		.file	"TPS_ADC_PM.c"
  15              		.text
  16              	.Ltext0:
  17              		.cfi_sections	.debug_frame
  18              		.section	.text.TPS_ADC_Sleep,"ax",%progbits
  19              		.align	2
  20              		.global	TPS_ADC_Sleep
  21              		.thumb
  22              		.thumb_func
  23              		.type	TPS_ADC_Sleep, %function
  24              	TPS_ADC_Sleep:
  25              	.LFB0:
  26              		.file 1 ".\\Generated_Source\\PSoC5\\TPS_ADC_PM.c"
   1:.\Generated_Source\PSoC5/TPS_ADC_PM.c **** /*******************************************************************************
   2:.\Generated_Source\PSoC5/TPS_ADC_PM.c **** * File Name: TPS_ADC_PM.c
   3:.\Generated_Source\PSoC5/TPS_ADC_PM.c **** * Version 2.0
   4:.\Generated_Source\PSoC5/TPS_ADC_PM.c **** *
   5:.\Generated_Source\PSoC5/TPS_ADC_PM.c **** * Description:
   6:.\Generated_Source\PSoC5/TPS_ADC_PM.c **** *  This file contains the setup, control and status commands to support
   7:.\Generated_Source\PSoC5/TPS_ADC_PM.c **** *  component operations in low power mode.
   8:.\Generated_Source\PSoC5/TPS_ADC_PM.c **** *
   9:.\Generated_Source\PSoC5/TPS_ADC_PM.c **** * Note:
  10:.\Generated_Source\PSoC5/TPS_ADC_PM.c **** *
  11:.\Generated_Source\PSoC5/TPS_ADC_PM.c **** ********************************************************************************
  12:.\Generated_Source\PSoC5/TPS_ADC_PM.c **** * Copyright 2012-2015, Cypress Semiconductor Corporation.  All rights reserved.
  13:.\Generated_Source\PSoC5/TPS_ADC_PM.c **** * You may use this file only in accordance with the license, terms, conditions,
  14:.\Generated_Source\PSoC5/TPS_ADC_PM.c **** * disclaimers, and limitations in the end user license agreement accompanying
  15:.\Generated_Source\PSoC5/TPS_ADC_PM.c **** * the software package with which this file was provided.
  16:.\Generated_Source\PSoC5/TPS_ADC_PM.c **** *******************************************************************************/
  17:.\Generated_Source\PSoC5/TPS_ADC_PM.c **** 
  18:.\Generated_Source\PSoC5/TPS_ADC_PM.c **** #include "TPS_ADC.h"
  19:.\Generated_Source\PSoC5/TPS_ADC_PM.c **** #include "TPS_ADC_SAR.h"
  20:.\Generated_Source\PSoC5/TPS_ADC_PM.c **** #if(TPS_ADC_CLOCK_SOURCE == TPS_ADC_CLOCK_INTERNAL)
  21:.\Generated_Source\PSoC5/TPS_ADC_PM.c ****     #include "TPS_ADC_IntClock.h"
  22:.\Generated_Source\PSoC5/TPS_ADC_PM.c **** #endif   /* TPS_ADC_CLOCK_SOURCE == TPS_ADC_CLOCK_INTERNAL */
  23:.\Generated_Source\PSoC5/TPS_ADC_PM.c **** 
  24:.\Generated_Source\PSoC5/TPS_ADC_PM.c **** 
  25:.\Generated_Source\PSoC5/TPS_ADC_PM.c **** /*******************************************************************************
  26:.\Generated_Source\PSoC5/TPS_ADC_PM.c **** * Function Name: TPS_ADC_Sleep
  27:.\Generated_Source\PSoC5/TPS_ADC_PM.c **** ********************************************************************************
  28:.\Generated_Source\PSoC5/TPS_ADC_PM.c **** *
  29:.\Generated_Source\PSoC5/TPS_ADC_PM.c **** * Summary:
  30:.\Generated_Source\PSoC5/TPS_ADC_PM.c **** *  Stops the ADC operation and saves the configuration registers and component
  31:.\Generated_Source\PSoC5/TPS_ADC_PM.c **** *  enable state. Should be called just prior to entering sleep
ARM GAS  C:\Users\mitchell\AppData\Local\Temp\ccEaOq0a.s 			page 2


  32:.\Generated_Source\PSoC5/TPS_ADC_PM.c **** *
  33:.\Generated_Source\PSoC5/TPS_ADC_PM.c **** * Parameters:
  34:.\Generated_Source\PSoC5/TPS_ADC_PM.c **** *  None.
  35:.\Generated_Source\PSoC5/TPS_ADC_PM.c **** *
  36:.\Generated_Source\PSoC5/TPS_ADC_PM.c **** * Return:
  37:.\Generated_Source\PSoC5/TPS_ADC_PM.c **** *  None.
  38:.\Generated_Source\PSoC5/TPS_ADC_PM.c **** *
  39:.\Generated_Source\PSoC5/TPS_ADC_PM.c **** * Side Effects:
  40:.\Generated_Source\PSoC5/TPS_ADC_PM.c **** *  None.
  41:.\Generated_Source\PSoC5/TPS_ADC_PM.c **** *
  42:.\Generated_Source\PSoC5/TPS_ADC_PM.c **** * Reentrant:
  43:.\Generated_Source\PSoC5/TPS_ADC_PM.c **** *  No.
  44:.\Generated_Source\PSoC5/TPS_ADC_PM.c **** *
  45:.\Generated_Source\PSoC5/TPS_ADC_PM.c **** *******************************************************************************/
  46:.\Generated_Source\PSoC5/TPS_ADC_PM.c **** void TPS_ADC_Sleep(void)
  47:.\Generated_Source\PSoC5/TPS_ADC_PM.c **** {
  27              		.loc 1 47 0
  28              		.cfi_startproc
  29              		@ args = 0, pretend = 0, frame = 0
  30              		@ frame_needed = 0, uses_anonymous_args = 0
  31 0000 08B5     		push	{r3, lr}
  32              		.cfi_def_cfa_offset 8
  33              		.cfi_offset 3, -8
  34              		.cfi_offset 14, -4
  48:.\Generated_Source\PSoC5/TPS_ADC_PM.c ****     TPS_ADC_SAR_Stop();
  35              		.loc 1 48 0
  36 0002 FFF7FEFF 		bl	TPS_ADC_SAR_Stop
  37              	.LVL0:
  49:.\Generated_Source\PSoC5/TPS_ADC_PM.c ****     TPS_ADC_SAR_Sleep();
  38              		.loc 1 49 0
  39 0006 FFF7FEFF 		bl	TPS_ADC_SAR_Sleep
  40              	.LVL1:
  50:.\Generated_Source\PSoC5/TPS_ADC_PM.c ****     TPS_ADC_Disable();
  41              		.loc 1 50 0
  42 000a FFF7FEFF 		bl	TPS_ADC_Disable
  43              	.LVL2:
  51:.\Generated_Source\PSoC5/TPS_ADC_PM.c **** 
  52:.\Generated_Source\PSoC5/TPS_ADC_PM.c ****     #if(TPS_ADC_CLOCK_SOURCE == TPS_ADC_CLOCK_INTERNAL)
  53:.\Generated_Source\PSoC5/TPS_ADC_PM.c ****         TPS_ADC_IntClock_Stop();
  44              		.loc 1 53 0
  45 000e FFF7FEFF 		bl	TPS_ADC_IntClock_Stop
  46              	.LVL3:
  47 0012 08BD     		pop	{r3, pc}
  48              		.cfi_endproc
  49              	.LFE0:
  50              		.size	TPS_ADC_Sleep, .-TPS_ADC_Sleep
  51              		.section	.text.TPS_ADC_Wakeup,"ax",%progbits
  52              		.align	2
  53              		.global	TPS_ADC_Wakeup
  54              		.thumb
  55              		.thumb_func
  56              		.type	TPS_ADC_Wakeup, %function
  57              	TPS_ADC_Wakeup:
  58              	.LFB1:
  54:.\Generated_Source\PSoC5/TPS_ADC_PM.c ****     #endif   /* TPS_ADC_CLOCK_SOURCE == TPS_ADC_CLOCK_INTERNAL */
  55:.\Generated_Source\PSoC5/TPS_ADC_PM.c **** }
  56:.\Generated_Source\PSoC5/TPS_ADC_PM.c **** 
ARM GAS  C:\Users\mitchell\AppData\Local\Temp\ccEaOq0a.s 			page 3


  57:.\Generated_Source\PSoC5/TPS_ADC_PM.c **** 
  58:.\Generated_Source\PSoC5/TPS_ADC_PM.c **** /*******************************************************************************
  59:.\Generated_Source\PSoC5/TPS_ADC_PM.c **** * Function Name: TPS_ADC_Wakeup
  60:.\Generated_Source\PSoC5/TPS_ADC_PM.c **** ********************************************************************************
  61:.\Generated_Source\PSoC5/TPS_ADC_PM.c **** *
  62:.\Generated_Source\PSoC5/TPS_ADC_PM.c **** * Summary:
  63:.\Generated_Source\PSoC5/TPS_ADC_PM.c **** *  Restores the component enable state and configuration registers. This should
  64:.\Generated_Source\PSoC5/TPS_ADC_PM.c **** *  be called just after awaking from sleep mode
  65:.\Generated_Source\PSoC5/TPS_ADC_PM.c **** *
  66:.\Generated_Source\PSoC5/TPS_ADC_PM.c **** * Parameters:
  67:.\Generated_Source\PSoC5/TPS_ADC_PM.c **** *  None.
  68:.\Generated_Source\PSoC5/TPS_ADC_PM.c **** *
  69:.\Generated_Source\PSoC5/TPS_ADC_PM.c **** * Return:
  70:.\Generated_Source\PSoC5/TPS_ADC_PM.c **** *  None.
  71:.\Generated_Source\PSoC5/TPS_ADC_PM.c **** *
  72:.\Generated_Source\PSoC5/TPS_ADC_PM.c **** * Side Effects:
  73:.\Generated_Source\PSoC5/TPS_ADC_PM.c **** *  None.
  74:.\Generated_Source\PSoC5/TPS_ADC_PM.c **** *
  75:.\Generated_Source\PSoC5/TPS_ADC_PM.c **** * Reentrant:
  76:.\Generated_Source\PSoC5/TPS_ADC_PM.c **** *  No.
  77:.\Generated_Source\PSoC5/TPS_ADC_PM.c **** *
  78:.\Generated_Source\PSoC5/TPS_ADC_PM.c **** *******************************************************************************/
  79:.\Generated_Source\PSoC5/TPS_ADC_PM.c **** void TPS_ADC_Wakeup(void)
  80:.\Generated_Source\PSoC5/TPS_ADC_PM.c **** {
  59              		.loc 1 80 0
  60              		.cfi_startproc
  61              		@ args = 0, pretend = 0, frame = 0
  62              		@ frame_needed = 0, uses_anonymous_args = 0
  63 0000 08B5     		push	{r3, lr}
  64              		.cfi_def_cfa_offset 8
  65              		.cfi_offset 3, -8
  66              		.cfi_offset 14, -4
  81:.\Generated_Source\PSoC5/TPS_ADC_PM.c ****     TPS_ADC_SAR_Wakeup();
  67              		.loc 1 81 0
  68 0002 FFF7FEFF 		bl	TPS_ADC_SAR_Wakeup
  69              	.LVL4:
  82:.\Generated_Source\PSoC5/TPS_ADC_PM.c ****     TPS_ADC_SAR_Enable();
  70              		.loc 1 82 0
  71 0006 FFF7FEFF 		bl	TPS_ADC_SAR_Enable
  72              	.LVL5:
  83:.\Generated_Source\PSoC5/TPS_ADC_PM.c **** 
  84:.\Generated_Source\PSoC5/TPS_ADC_PM.c ****     #if(TPS_ADC_CLOCK_SOURCE == TPS_ADC_CLOCK_INTERNAL)
  85:.\Generated_Source\PSoC5/TPS_ADC_PM.c ****         TPS_ADC_IntClock_Start();
  73              		.loc 1 85 0
  74 000a FFF7FEFF 		bl	TPS_ADC_IntClock_Start
  75              	.LVL6:
  86:.\Generated_Source\PSoC5/TPS_ADC_PM.c ****     #endif   /* TPS_ADC_CLOCK_SOURCE == TPS_ADC_CLOCK_INTERNAL */
  87:.\Generated_Source\PSoC5/TPS_ADC_PM.c **** 
  88:.\Generated_Source\PSoC5/TPS_ADC_PM.c ****     /* The block is ready to use 10 us after the SAR enable signal is set high. */
  89:.\Generated_Source\PSoC5/TPS_ADC_PM.c ****     CyDelayUs(10u);
  76              		.loc 1 89 0
  77 000e 0A20     		movs	r0, #10
  78 0010 FFF7FEFF 		bl	CyDelayUs
  79              	.LVL7:
  90:.\Generated_Source\PSoC5/TPS_ADC_PM.c ****     
  91:.\Generated_Source\PSoC5/TPS_ADC_PM.c ****     TPS_ADC_Enable();
  80              		.loc 1 91 0
ARM GAS  C:\Users\mitchell\AppData\Local\Temp\ccEaOq0a.s 			page 4


  81 0014 FFF7FEFF 		bl	TPS_ADC_Enable
  82              	.LVL8:
  92:.\Generated_Source\PSoC5/TPS_ADC_PM.c **** 
  93:.\Generated_Source\PSoC5/TPS_ADC_PM.c ****     #if(TPS_ADC_SAMPLE_MODE == TPS_ADC_SAMPLE_MODE_FREE_RUNNING)
  94:.\Generated_Source\PSoC5/TPS_ADC_PM.c ****         TPS_ADC_SAR_StartConvert();
  95:.\Generated_Source\PSoC5/TPS_ADC_PM.c ****     #endif /* (TPS_ADC_SAMPLE_MODE == TPS_ADC_SAMPLE_MODE_FREE_RUNNING) */
  96:.\Generated_Source\PSoC5/TPS_ADC_PM.c **** 
  97:.\Generated_Source\PSoC5/TPS_ADC_PM.c ****     (void) CY_GET_REG8(TPS_ADC_STATUS_PTR);
  83              		.loc 1 97 0
  84 0018 014B     		ldr	r3, .L3
  85 001a 1B78     		ldrb	r3, [r3]	@ zero_extendqisi2
  86 001c 08BD     		pop	{r3, pc}
  87              	.L4:
  88 001e 00BF     		.align	2
  89              	.L3:
  90 0020 66650040 		.word	1073767782
  91              		.cfi_endproc
  92              	.LFE1:
  93              		.size	TPS_ADC_Wakeup, .-TPS_ADC_Wakeup
  94              		.section	.text.TPS_ADC_SaveConfig,"ax",%progbits
  95              		.align	2
  96              		.global	TPS_ADC_SaveConfig
  97              		.thumb
  98              		.thumb_func
  99              		.type	TPS_ADC_SaveConfig, %function
 100              	TPS_ADC_SaveConfig:
 101              	.LFB2:
  98:.\Generated_Source\PSoC5/TPS_ADC_PM.c **** }
  99:.\Generated_Source\PSoC5/TPS_ADC_PM.c **** 
 100:.\Generated_Source\PSoC5/TPS_ADC_PM.c **** 
 101:.\Generated_Source\PSoC5/TPS_ADC_PM.c **** /*******************************************************************************
 102:.\Generated_Source\PSoC5/TPS_ADC_PM.c **** * Function Name: TPS_ADC_SaveConfig
 103:.\Generated_Source\PSoC5/TPS_ADC_PM.c **** ********************************************************************************
 104:.\Generated_Source\PSoC5/TPS_ADC_PM.c **** *
 105:.\Generated_Source\PSoC5/TPS_ADC_PM.c **** * Summary:
 106:.\Generated_Source\PSoC5/TPS_ADC_PM.c **** *  Save the current configuration of ADC non-retention registers
 107:.\Generated_Source\PSoC5/TPS_ADC_PM.c **** *
 108:.\Generated_Source\PSoC5/TPS_ADC_PM.c **** * Parameters:
 109:.\Generated_Source\PSoC5/TPS_ADC_PM.c **** *  None.
 110:.\Generated_Source\PSoC5/TPS_ADC_PM.c **** *
 111:.\Generated_Source\PSoC5/TPS_ADC_PM.c **** * Return:
 112:.\Generated_Source\PSoC5/TPS_ADC_PM.c **** *  None.
 113:.\Generated_Source\PSoC5/TPS_ADC_PM.c **** *
 114:.\Generated_Source\PSoC5/TPS_ADC_PM.c **** * Side Effects:
 115:.\Generated_Source\PSoC5/TPS_ADC_PM.c **** *  None.
 116:.\Generated_Source\PSoC5/TPS_ADC_PM.c **** *
 117:.\Generated_Source\PSoC5/TPS_ADC_PM.c **** * Reentrant:
 118:.\Generated_Source\PSoC5/TPS_ADC_PM.c **** *  No.
 119:.\Generated_Source\PSoC5/TPS_ADC_PM.c **** *
 120:.\Generated_Source\PSoC5/TPS_ADC_PM.c **** *******************************************************************************/
 121:.\Generated_Source\PSoC5/TPS_ADC_PM.c **** void TPS_ADC_SaveConfig(void)
 122:.\Generated_Source\PSoC5/TPS_ADC_PM.c **** {
 102              		.loc 1 122 0
 103              		.cfi_startproc
 104              		@ args = 0, pretend = 0, frame = 0
 105              		@ frame_needed = 0, uses_anonymous_args = 0
 106              		@ link register save eliminated.
ARM GAS  C:\Users\mitchell\AppData\Local\Temp\ccEaOq0a.s 			page 5


 107 0000 7047     		bx	lr
 108              		.cfi_endproc
 109              	.LFE2:
 110              		.size	TPS_ADC_SaveConfig, .-TPS_ADC_SaveConfig
 111 0002 00BF     		.section	.text.TPS_ADC_RestoreConfig,"ax",%progbits
 112              		.align	2
 113              		.global	TPS_ADC_RestoreConfig
 114              		.thumb
 115              		.thumb_func
 116              		.type	TPS_ADC_RestoreConfig, %function
 117              	TPS_ADC_RestoreConfig:
 118              	.LFB3:
 123:.\Generated_Source\PSoC5/TPS_ADC_PM.c **** 
 124:.\Generated_Source\PSoC5/TPS_ADC_PM.c **** }
 125:.\Generated_Source\PSoC5/TPS_ADC_PM.c **** 
 126:.\Generated_Source\PSoC5/TPS_ADC_PM.c **** 
 127:.\Generated_Source\PSoC5/TPS_ADC_PM.c **** /*******************************************************************************
 128:.\Generated_Source\PSoC5/TPS_ADC_PM.c **** * Function Name: TPS_ADC_RestoreConfig
 129:.\Generated_Source\PSoC5/TPS_ADC_PM.c **** ********************************************************************************
 130:.\Generated_Source\PSoC5/TPS_ADC_PM.c **** *
 131:.\Generated_Source\PSoC5/TPS_ADC_PM.c **** * Summary:
 132:.\Generated_Source\PSoC5/TPS_ADC_PM.c **** *  Restores the configuration of ADC non-retention registers
 133:.\Generated_Source\PSoC5/TPS_ADC_PM.c **** *
 134:.\Generated_Source\PSoC5/TPS_ADC_PM.c **** * Parameters:
 135:.\Generated_Source\PSoC5/TPS_ADC_PM.c **** *  None.
 136:.\Generated_Source\PSoC5/TPS_ADC_PM.c **** *
 137:.\Generated_Source\PSoC5/TPS_ADC_PM.c **** * Return:
 138:.\Generated_Source\PSoC5/TPS_ADC_PM.c **** *  None.
 139:.\Generated_Source\PSoC5/TPS_ADC_PM.c **** *
 140:.\Generated_Source\PSoC5/TPS_ADC_PM.c **** * Side Effects:
 141:.\Generated_Source\PSoC5/TPS_ADC_PM.c **** *  None.
 142:.\Generated_Source\PSoC5/TPS_ADC_PM.c **** *
 143:.\Generated_Source\PSoC5/TPS_ADC_PM.c **** * Reentrant:
 144:.\Generated_Source\PSoC5/TPS_ADC_PM.c **** *  No.
 145:.\Generated_Source\PSoC5/TPS_ADC_PM.c **** *
 146:.\Generated_Source\PSoC5/TPS_ADC_PM.c **** *******************************************************************************/
 147:.\Generated_Source\PSoC5/TPS_ADC_PM.c **** void TPS_ADC_RestoreConfig(void)
 148:.\Generated_Source\PSoC5/TPS_ADC_PM.c **** {
 119              		.loc 1 148 0
 120              		.cfi_startproc
 121              		@ args = 0, pretend = 0, frame = 0
 122              		@ frame_needed = 0, uses_anonymous_args = 0
 123              		@ link register save eliminated.
 124 0000 7047     		bx	lr
 125              		.cfi_endproc
 126              	.LFE3:
 127              		.size	TPS_ADC_RestoreConfig, .-TPS_ADC_RestoreConfig
 128 0002 00BF     		.text
 129              	.Letext0:
 130              		.file 2 ".\\Generated_Source\\PSoC5\\cytypes.h"
 131              		.file 3 ".\\Generated_Source\\PSoC5\\TPS_ADC_SAR.h"
 132              		.file 4 ".\\Generated_Source\\PSoC5\\TPS_ADC.h"
 133              		.file 5 ".\\Generated_Source\\PSoC5\\TPS_ADC_IntClock.h"
 134              		.file 6 ".\\Generated_Source\\PSoC5\\CyLib.h"