ARM GAS  C:\Users\maxk\AppData\Local\Temp\ccab1BcQ.s 			page 1


   1              		.cpu cortex-m0
   2              		.fpu softvfp
   3              		.eabi_attribute 20, 1
   4              		.eabi_attribute 21, 1
   5              		.eabi_attribute 23, 3
   6              		.eabi_attribute 24, 1
   7              		.eabi_attribute 25, 1
   8              		.eabi_attribute 26, 1
   9              		.eabi_attribute 30, 6
  10              		.eabi_attribute 18, 4
  11              		.code	16
  12              		.file	"ADC_SAR_Seq_1_PM.c"
  19 0000 D2000000 		.text
  19      02007C00 
  19      00000201 
  19      FB0E0D00 
  19      01010101 
  20              	.Ltext0:
  21              		.cfi_sections	.debug_frame
  22              		.bss
  23              		.align	2
  24              	ADC_SAR_Seq_1_backup:
  25 0000 00       		.space	1
  26 0001 000000   		.section	.text.ADC_SAR_Seq_1_SaveConfig,"ax",%progbits
  27              		.align	2
  28              		.global	ADC_SAR_Seq_1_SaveConfig
  29              		.code	16
  30              		.thumb_func
  31              		.type	ADC_SAR_Seq_1_SaveConfig, %function
  32              	ADC_SAR_Seq_1_SaveConfig:
  33              	.LFB0:
  34              		.file 1 ".\\Generated_Source\\PSoC4\\ADC_SAR_Seq_1_PM.c"
   1:.\Generated_Source\PSoC4/ADC_SAR_Seq_1_PM.c **** /*******************************************************************************
   2:.\Generated_Source\PSoC4/ADC_SAR_Seq_1_PM.c **** * File Name: ADC_SAR_Seq_1_PM.c
   3:.\Generated_Source\PSoC4/ADC_SAR_Seq_1_PM.c **** * Version 1.0
   4:.\Generated_Source\PSoC4/ADC_SAR_Seq_1_PM.c **** *
   5:.\Generated_Source\PSoC4/ADC_SAR_Seq_1_PM.c **** * Description:
   6:.\Generated_Source\PSoC4/ADC_SAR_Seq_1_PM.c **** *  This file provides Sleep/WakeUp APIs functionality.
   7:.\Generated_Source\PSoC4/ADC_SAR_Seq_1_PM.c **** *
   8:.\Generated_Source\PSoC4/ADC_SAR_Seq_1_PM.c **** * Note:
   9:.\Generated_Source\PSoC4/ADC_SAR_Seq_1_PM.c **** *
  10:.\Generated_Source\PSoC4/ADC_SAR_Seq_1_PM.c **** ********************************************************************************
  11:.\Generated_Source\PSoC4/ADC_SAR_Seq_1_PM.c **** * Copyright 2008-2013, Cypress Semiconductor Corporation.  All rights reserved.
  12:.\Generated_Source\PSoC4/ADC_SAR_Seq_1_PM.c **** * You may use this file only in accordance with the license, terms, conditions,
  13:.\Generated_Source\PSoC4/ADC_SAR_Seq_1_PM.c **** * disclaimers, and limitations in the end user license agreement accompanying
  14:.\Generated_Source\PSoC4/ADC_SAR_Seq_1_PM.c **** * the software package with which this file was provided.
  15:.\Generated_Source\PSoC4/ADC_SAR_Seq_1_PM.c **** *******************************************************************************/
  16:.\Generated_Source\PSoC4/ADC_SAR_Seq_1_PM.c **** 
  17:.\Generated_Source\PSoC4/ADC_SAR_Seq_1_PM.c **** #include "CyLib.h"
  18:.\Generated_Source\PSoC4/ADC_SAR_Seq_1_PM.c **** #include "ADC_SAR_Seq_1.h"
  19:.\Generated_Source\PSoC4/ADC_SAR_Seq_1_PM.c **** 
ARM GAS  C:\Users\maxk\AppData\Local\Temp\ccab1BcQ.s 			page 2


  20:.\Generated_Source\PSoC4/ADC_SAR_Seq_1_PM.c **** 
  21:.\Generated_Source\PSoC4/ADC_SAR_Seq_1_PM.c **** /***************************************
  22:.\Generated_Source\PSoC4/ADC_SAR_Seq_1_PM.c **** * Local data allocation
  23:.\Generated_Source\PSoC4/ADC_SAR_Seq_1_PM.c **** ***************************************/
  24:.\Generated_Source\PSoC4/ADC_SAR_Seq_1_PM.c **** 
  25:.\Generated_Source\PSoC4/ADC_SAR_Seq_1_PM.c **** static ADC_SAR_Seq_1_BACKUP_STRUCT  ADC_SAR_Seq_1_backup =
  26:.\Generated_Source\PSoC4/ADC_SAR_Seq_1_PM.c **** {
  27:.\Generated_Source\PSoC4/ADC_SAR_Seq_1_PM.c ****     ADC_SAR_Seq_1_DISABLED
  28:.\Generated_Source\PSoC4/ADC_SAR_Seq_1_PM.c **** };
  29:.\Generated_Source\PSoC4/ADC_SAR_Seq_1_PM.c **** 
  30:.\Generated_Source\PSoC4/ADC_SAR_Seq_1_PM.c **** 
  31:.\Generated_Source\PSoC4/ADC_SAR_Seq_1_PM.c **** /*******************************************************************************
  32:.\Generated_Source\PSoC4/ADC_SAR_Seq_1_PM.c **** * Function Name: ADC_SAR_Seq_1_SaveConfig
  33:.\Generated_Source\PSoC4/ADC_SAR_Seq_1_PM.c **** ********************************************************************************
  34:.\Generated_Source\PSoC4/ADC_SAR_Seq_1_PM.c **** *
  35:.\Generated_Source\PSoC4/ADC_SAR_Seq_1_PM.c **** * Summary:
  36:.\Generated_Source\PSoC4/ADC_SAR_Seq_1_PM.c **** *  Saves the current user configuration.
  37:.\Generated_Source\PSoC4/ADC_SAR_Seq_1_PM.c **** *
  38:.\Generated_Source\PSoC4/ADC_SAR_Seq_1_PM.c **** * Parameters:
  39:.\Generated_Source\PSoC4/ADC_SAR_Seq_1_PM.c **** *  None.
  40:.\Generated_Source\PSoC4/ADC_SAR_Seq_1_PM.c **** *
  41:.\Generated_Source\PSoC4/ADC_SAR_Seq_1_PM.c **** * Return:
  42:.\Generated_Source\PSoC4/ADC_SAR_Seq_1_PM.c **** *  None.
  43:.\Generated_Source\PSoC4/ADC_SAR_Seq_1_PM.c **** *
  44:.\Generated_Source\PSoC4/ADC_SAR_Seq_1_PM.c **** *******************************************************************************/
  45:.\Generated_Source\PSoC4/ADC_SAR_Seq_1_PM.c **** void ADC_SAR_Seq_1_SaveConfig(void)
  46:.\Generated_Source\PSoC4/ADC_SAR_Seq_1_PM.c **** {
  35              		.loc 1 46 0
  36              		.cfi_startproc
  37 0000 80B5     		push	{r7, lr}
  38              	.LCFI0:
  39              		.cfi_def_cfa_offset 8
  40              		.cfi_offset 7, -8
  41              		.cfi_offset 14, -4
  42 0002 00AF     		add	r7, sp, #0
  43              	.LCFI1:
  44              		.cfi_def_cfa_register 7
  47:.\Generated_Source\PSoC4/ADC_SAR_Seq_1_PM.c ****     /* All configuration registers are marked as [reset_all_retention] */
  48:.\Generated_Source\PSoC4/ADC_SAR_Seq_1_PM.c **** }
  45              		.loc 1 48 0
  46 0004 BD46     		mov	sp, r7
  47              		@ sp needed for prologue
  48 0006 80BD     		pop	{r7, pc}
  49              		.cfi_endproc
  50              	.LFE0:
  51              		.size	ADC_SAR_Seq_1_SaveConfig, .-ADC_SAR_Seq_1_SaveConfig
  52              		.section	.text.ADC_SAR_Seq_1_RestoreConfig,"ax",%progbits
  53              		.align	2
  54              		.global	ADC_SAR_Seq_1_RestoreConfig
  55              		.code	16
  56              		.thumb_func
  57              		.type	ADC_SAR_Seq_1_RestoreConfig, %function
  58              	ADC_SAR_Seq_1_RestoreConfig:
  59              	.LFB1:
  49:.\Generated_Source\PSoC4/ADC_SAR_Seq_1_PM.c **** 
  50:.\Generated_Source\PSoC4/ADC_SAR_Seq_1_PM.c **** 
  51:.\Generated_Source\PSoC4/ADC_SAR_Seq_1_PM.c **** /*******************************************************************************
ARM GAS  C:\Users\maxk\AppData\Local\Temp\ccab1BcQ.s 			page 3


  52:.\Generated_Source\PSoC4/ADC_SAR_Seq_1_PM.c **** * Function Name: ADC_SAR_Seq_1_RestoreConfig
  53:.\Generated_Source\PSoC4/ADC_SAR_Seq_1_PM.c **** ********************************************************************************
  54:.\Generated_Source\PSoC4/ADC_SAR_Seq_1_PM.c **** *
  55:.\Generated_Source\PSoC4/ADC_SAR_Seq_1_PM.c **** * Summary:
  56:.\Generated_Source\PSoC4/ADC_SAR_Seq_1_PM.c **** *  Restores the current user configuration.
  57:.\Generated_Source\PSoC4/ADC_SAR_Seq_1_PM.c **** *
  58:.\Generated_Source\PSoC4/ADC_SAR_Seq_1_PM.c **** * Parameters:
  59:.\Generated_Source\PSoC4/ADC_SAR_Seq_1_PM.c **** *  None.
  60:.\Generated_Source\PSoC4/ADC_SAR_Seq_1_PM.c **** *
  61:.\Generated_Source\PSoC4/ADC_SAR_Seq_1_PM.c **** * Return:
  62:.\Generated_Source\PSoC4/ADC_SAR_Seq_1_PM.c **** *  None.
  63:.\Generated_Source\PSoC4/ADC_SAR_Seq_1_PM.c **** *
  64:.\Generated_Source\PSoC4/ADC_SAR_Seq_1_PM.c **** *******************************************************************************/
  65:.\Generated_Source\PSoC4/ADC_SAR_Seq_1_PM.c **** void ADC_SAR_Seq_1_RestoreConfig(void)
  66:.\Generated_Source\PSoC4/ADC_SAR_Seq_1_PM.c **** {
  60              		.loc 1 66 0
  61              		.cfi_startproc
  62 0000 80B5     		push	{r7, lr}
  63              	.LCFI2:
  64              		.cfi_def_cfa_offset 8
  65              		.cfi_offset 7, -8
  66              		.cfi_offset 14, -4
  67 0002 00AF     		add	r7, sp, #0
  68              	.LCFI3:
  69              		.cfi_def_cfa_register 7
  67:.\Generated_Source\PSoC4/ADC_SAR_Seq_1_PM.c ****     /* All congiguration registers are marked as [reset_all_retention] */
  68:.\Generated_Source\PSoC4/ADC_SAR_Seq_1_PM.c **** }
  70              		.loc 1 68 0
  71 0004 BD46     		mov	sp, r7
  72              		@ sp needed for prologue
  73 0006 80BD     		pop	{r7, pc}
  74              		.cfi_endproc
  75              	.LFE1:
  76              		.size	ADC_SAR_Seq_1_RestoreConfig, .-ADC_SAR_Seq_1_RestoreConfig
  77              		.section	.text.ADC_SAR_Seq_1_Sleep,"ax",%progbits
  78              		.align	2
  79              		.global	ADC_SAR_Seq_1_Sleep
  80              		.code	16
  81              		.thumb_func
  82              		.type	ADC_SAR_Seq_1_Sleep, %function
  83              	ADC_SAR_Seq_1_Sleep:
  84              	.LFB2:
  69:.\Generated_Source\PSoC4/ADC_SAR_Seq_1_PM.c **** 
  70:.\Generated_Source\PSoC4/ADC_SAR_Seq_1_PM.c **** 
  71:.\Generated_Source\PSoC4/ADC_SAR_Seq_1_PM.c **** /*******************************************************************************
  72:.\Generated_Source\PSoC4/ADC_SAR_Seq_1_PM.c **** * Function Name: ADC_SAR_Seq_1_Sleep
  73:.\Generated_Source\PSoC4/ADC_SAR_Seq_1_PM.c **** ********************************************************************************
  74:.\Generated_Source\PSoC4/ADC_SAR_Seq_1_PM.c **** *
  75:.\Generated_Source\PSoC4/ADC_SAR_Seq_1_PM.c **** * Summary:
  76:.\Generated_Source\PSoC4/ADC_SAR_Seq_1_PM.c **** *  Stops the ADC operation and saves the configuration registers and component
  77:.\Generated_Source\PSoC4/ADC_SAR_Seq_1_PM.c **** *  enable state. Should be called just prior to entering sleep.
  78:.\Generated_Source\PSoC4/ADC_SAR_Seq_1_PM.c **** *
  79:.\Generated_Source\PSoC4/ADC_SAR_Seq_1_PM.c **** * Parameters:
  80:.\Generated_Source\PSoC4/ADC_SAR_Seq_1_PM.c **** *  None.
  81:.\Generated_Source\PSoC4/ADC_SAR_Seq_1_PM.c **** *
  82:.\Generated_Source\PSoC4/ADC_SAR_Seq_1_PM.c **** * Return:
  83:.\Generated_Source\PSoC4/ADC_SAR_Seq_1_PM.c **** *  None.
ARM GAS  C:\Users\maxk\AppData\Local\Temp\ccab1BcQ.s 			page 4


  84:.\Generated_Source\PSoC4/ADC_SAR_Seq_1_PM.c **** *
  85:.\Generated_Source\PSoC4/ADC_SAR_Seq_1_PM.c **** * Global Variables:
  86:.\Generated_Source\PSoC4/ADC_SAR_Seq_1_PM.c **** *  ADC_SAR_Seq_1_backup - modified.
  87:.\Generated_Source\PSoC4/ADC_SAR_Seq_1_PM.c **** *
  88:.\Generated_Source\PSoC4/ADC_SAR_Seq_1_PM.c **** *******************************************************************************/
  89:.\Generated_Source\PSoC4/ADC_SAR_Seq_1_PM.c **** void ADC_SAR_Seq_1_Sleep(void)
  90:.\Generated_Source\PSoC4/ADC_SAR_Seq_1_PM.c **** {
  85              		.loc 1 90 0
  86              		.cfi_startproc
  87 0000 80B5     		push	{r7, lr}
  88              	.LCFI4:
  89              		.cfi_def_cfa_offset 8
  90              		.cfi_offset 7, -8
  91              		.cfi_offset 14, -4
  92 0002 00AF     		add	r7, sp, #0
  93              	.LCFI5:
  94              		.cfi_def_cfa_register 7
  91:.\Generated_Source\PSoC4/ADC_SAR_Seq_1_PM.c ****     /* During deepsleep/ hibernate mode keep SARMUX active, i.e. do not open
  92:.\Generated_Source\PSoC4/ADC_SAR_Seq_1_PM.c ****     *   all switches (disconnect), to be used for ADFT
  93:.\Generated_Source\PSoC4/ADC_SAR_Seq_1_PM.c ****     */
  94:.\Generated_Source\PSoC4/ADC_SAR_Seq_1_PM.c ****     ADC_SAR_Seq_1_SAR_DFT_CTRL_REG |= ADC_SAR_Seq_1_ADFT_OVERRIDE;
  95              		.loc 1 94 0
  96 0004 114A     		ldr	r2, .L11
  97 0006 114B     		ldr	r3, .L11
  98 0008 1968     		ldr	r1, [r3]
  99 000a 8023     		mov	r3, #128
 100 000c 1B06     		lsl	r3, r3, #24
 101 000e 0B43     		orr	r3, r3, r1
 102 0010 1360     		str	r3, [r2]
  95:.\Generated_Source\PSoC4/ADC_SAR_Seq_1_PM.c ****     if((ADC_SAR_Seq_1_SAR_CTRL_REG  & ADC_SAR_Seq_1_ENABLE) != 0u)
 103              		.loc 1 95 0
 104 0012 0F4B     		ldr	r3, .L11+4
 105 0014 1B68     		ldr	r3, [r3]
 106 0016 002B     		cmp	r3, #0
 107 0018 12DA     		bge	.L6
  96:.\Generated_Source\PSoC4/ADC_SAR_Seq_1_PM.c ****     {
  97:.\Generated_Source\PSoC4/ADC_SAR_Seq_1_PM.c ****         if((ADC_SAR_Seq_1_SAR_SAMPLE_CTRL_REG & ADC_SAR_Seq_1_CONTINUOUS_EN) != 0u)
 108              		.loc 1 97 0
 109 001a 0E4B     		ldr	r3, .L11+8
 110 001c 1A68     		ldr	r2, [r3]
 111 001e 8023     		mov	r3, #128
 112 0020 5B02     		lsl	r3, r3, #9
 113 0022 1340     		and	r3, r3, r2
 114 0024 002B     		cmp	r3, #0
 115 0026 03D0     		beq	.L7
  98:.\Generated_Source\PSoC4/ADC_SAR_Seq_1_PM.c ****         {
  99:.\Generated_Source\PSoC4/ADC_SAR_Seq_1_PM.c ****             ADC_SAR_Seq_1_backup.enableState = ADC_SAR_Seq_1_ENABLED | ADC_SAR_Seq_1_STARTED;
 116              		.loc 1 99 0
 117 0028 0B4B     		ldr	r3, .L11+12
 118 002a 0322     		mov	r2, #3
 119 002c 1A70     		strb	r2, [r3]
 120 002e 02E0     		b	.L8
 121              	.L7:
 100:.\Generated_Source\PSoC4/ADC_SAR_Seq_1_PM.c ****         }
 101:.\Generated_Source\PSoC4/ADC_SAR_Seq_1_PM.c ****         else
 102:.\Generated_Source\PSoC4/ADC_SAR_Seq_1_PM.c ****         {
 103:.\Generated_Source\PSoC4/ADC_SAR_Seq_1_PM.c ****             ADC_SAR_Seq_1_backup.enableState = ADC_SAR_Seq_1_ENABLED;
ARM GAS  C:\Users\maxk\AppData\Local\Temp\ccab1BcQ.s 			page 5


 122              		.loc 1 103 0
 123 0030 094B     		ldr	r3, .L11+12
 124 0032 0122     		mov	r2, #1
 125 0034 1A70     		strb	r2, [r3]
 126              	.L8:
 104:.\Generated_Source\PSoC4/ADC_SAR_Seq_1_PM.c ****         }
 105:.\Generated_Source\PSoC4/ADC_SAR_Seq_1_PM.c ****         ADC_SAR_Seq_1_StopConvert();
 127              		.loc 1 105 0
 128 0036 FFF7FEFF 		bl	ADC_SAR_Seq_1_StopConvert
 106:.\Generated_Source\PSoC4/ADC_SAR_Seq_1_PM.c ****         ADC_SAR_Seq_1_Stop();
 129              		.loc 1 106 0
 130 003a FFF7FEFF 		bl	ADC_SAR_Seq_1_Stop
 131 003e 02E0     		b	.L10
 132              	.L6:
 107:.\Generated_Source\PSoC4/ADC_SAR_Seq_1_PM.c ****     }
 108:.\Generated_Source\PSoC4/ADC_SAR_Seq_1_PM.c ****     else
 109:.\Generated_Source\PSoC4/ADC_SAR_Seq_1_PM.c ****     {
 110:.\Generated_Source\PSoC4/ADC_SAR_Seq_1_PM.c ****         ADC_SAR_Seq_1_backup.enableState = ADC_SAR_Seq_1_DISABLED;
 133              		.loc 1 110 0
 134 0040 054B     		ldr	r3, .L11+12
 135 0042 0022     		mov	r2, #0
 136 0044 1A70     		strb	r2, [r3]
 137              	.L10:
 111:.\Generated_Source\PSoC4/ADC_SAR_Seq_1_PM.c ****     }
 112:.\Generated_Source\PSoC4/ADC_SAR_Seq_1_PM.c **** }
 138              		.loc 1 112 0
 139 0046 BD46     		mov	sp, r7
 140              		@ sp needed for prologue
 141 0048 80BD     		pop	{r7, pc}
 142              	.L12:
 143 004a C046     		.align	2
 144              	.L11:
 145 004c 30001A40 		.word	1075445808
 146 0050 00001A40 		.word	1075445760
 147 0054 04001A40 		.word	1075445764
 148 0058 00000000 		.word	ADC_SAR_Seq_1_backup
 149              		.cfi_endproc
 150              	.LFE2:
 151              		.size	ADC_SAR_Seq_1_Sleep, .-ADC_SAR_Seq_1_Sleep
 152              		.section	.text.ADC_SAR_Seq_1_Wakeup,"ax",%progbits
 153              		.align	2
 154              		.global	ADC_SAR_Seq_1_Wakeup
 155              		.code	16
 156              		.thumb_func
 157              		.type	ADC_SAR_Seq_1_Wakeup, %function
 158              	ADC_SAR_Seq_1_Wakeup:
 159              	.LFB3:
 113:.\Generated_Source\PSoC4/ADC_SAR_Seq_1_PM.c **** 
 114:.\Generated_Source\PSoC4/ADC_SAR_Seq_1_PM.c **** 
 115:.\Generated_Source\PSoC4/ADC_SAR_Seq_1_PM.c **** /*******************************************************************************
 116:.\Generated_Source\PSoC4/ADC_SAR_Seq_1_PM.c **** * Function Name: ADC_SAR_Seq_1_Wakeup
 117:.\Generated_Source\PSoC4/ADC_SAR_Seq_1_PM.c **** ********************************************************************************
 118:.\Generated_Source\PSoC4/ADC_SAR_Seq_1_PM.c **** *
 119:.\Generated_Source\PSoC4/ADC_SAR_Seq_1_PM.c **** * Summary:
 120:.\Generated_Source\PSoC4/ADC_SAR_Seq_1_PM.c **** *  Restores the component enable state and configuration registers.
 121:.\Generated_Source\PSoC4/ADC_SAR_Seq_1_PM.c **** *  This should be called just after awaking from sleep mode.
 122:.\Generated_Source\PSoC4/ADC_SAR_Seq_1_PM.c **** *
ARM GAS  C:\Users\maxk\AppData\Local\Temp\ccab1BcQ.s 			page 6


 123:.\Generated_Source\PSoC4/ADC_SAR_Seq_1_PM.c **** * Parameters:
 124:.\Generated_Source\PSoC4/ADC_SAR_Seq_1_PM.c **** *  None.
 125:.\Generated_Source\PSoC4/ADC_SAR_Seq_1_PM.c **** *
 126:.\Generated_Source\PSoC4/ADC_SAR_Seq_1_PM.c **** * Return:
 127:.\Generated_Source\PSoC4/ADC_SAR_Seq_1_PM.c **** *  None.
 128:.\Generated_Source\PSoC4/ADC_SAR_Seq_1_PM.c **** *
 129:.\Generated_Source\PSoC4/ADC_SAR_Seq_1_PM.c **** * Global Variables:
 130:.\Generated_Source\PSoC4/ADC_SAR_Seq_1_PM.c **** *  ADC_SAR_Seq_1_backup - used.
 131:.\Generated_Source\PSoC4/ADC_SAR_Seq_1_PM.c **** *
 132:.\Generated_Source\PSoC4/ADC_SAR_Seq_1_PM.c **** *******************************************************************************/
 133:.\Generated_Source\PSoC4/ADC_SAR_Seq_1_PM.c **** void ADC_SAR_Seq_1_Wakeup(void)
 134:.\Generated_Source\PSoC4/ADC_SAR_Seq_1_PM.c **** {
 160              		.loc 1 134 0
 161              		.cfi_startproc
 162 0000 80B5     		push	{r7, lr}
 163              	.LCFI6:
 164              		.cfi_def_cfa_offset 8
 165              		.cfi_offset 7, -8
 166              		.cfi_offset 14, -4
 167 0002 00AF     		add	r7, sp, #0
 168              	.LCFI7:
 169              		.cfi_def_cfa_register 7
 135:.\Generated_Source\PSoC4/ADC_SAR_Seq_1_PM.c ****     ADC_SAR_Seq_1_SAR_DFT_CTRL_REG &= (uint32)~ADC_SAR_Seq_1_ADFT_OVERRIDE;
 170              		.loc 1 135 0
 171 0004 0B4B     		ldr	r3, .L16
 172 0006 0B4A     		ldr	r2, .L16
 173 0008 1268     		ldr	r2, [r2]
 174 000a 5200     		lsl	r2, r2, #1
 175 000c 5208     		lsr	r2, r2, #1
 176 000e 1A60     		str	r2, [r3]
 136:.\Generated_Source\PSoC4/ADC_SAR_Seq_1_PM.c ****     if(ADC_SAR_Seq_1_backup.enableState != ADC_SAR_Seq_1_DISABLED)
 177              		.loc 1 136 0
 178 0010 094B     		ldr	r3, .L16+4
 179 0012 1B78     		ldrb	r3, [r3]
 180 0014 002B     		cmp	r3, #0
 181 0016 0AD0     		beq	.L15
 137:.\Generated_Source\PSoC4/ADC_SAR_Seq_1_PM.c ****     {
 138:.\Generated_Source\PSoC4/ADC_SAR_Seq_1_PM.c ****         ADC_SAR_Seq_1_Start();
 182              		.loc 1 138 0
 183 0018 FFF7FEFF 		bl	ADC_SAR_Seq_1_Start
 139:.\Generated_Source\PSoC4/ADC_SAR_Seq_1_PM.c ****         if((ADC_SAR_Seq_1_backup.enableState & ADC_SAR_Seq_1_STARTED) != 0u)
 184              		.loc 1 139 0
 185 001c 064B     		ldr	r3, .L16+4
 186 001e 1B78     		ldrb	r3, [r3]
 187 0020 1A1C     		mov	r2, r3
 188 0022 0223     		mov	r3, #2
 189 0024 1340     		and	r3, r3, r2
 190 0026 002B     		cmp	r3, #0
 191 0028 01D0     		beq	.L15
 140:.\Generated_Source\PSoC4/ADC_SAR_Seq_1_PM.c ****         {
 141:.\Generated_Source\PSoC4/ADC_SAR_Seq_1_PM.c ****             ADC_SAR_Seq_1_StartConvert();
 192              		.loc 1 141 0
 193 002a FFF7FEFF 		bl	ADC_SAR_Seq_1_StartConvert
 194              	.L15:
 142:.\Generated_Source\PSoC4/ADC_SAR_Seq_1_PM.c ****         }
 143:.\Generated_Source\PSoC4/ADC_SAR_Seq_1_PM.c ****     }
 144:.\Generated_Source\PSoC4/ADC_SAR_Seq_1_PM.c **** }
ARM GAS  C:\Users\maxk\AppData\Local\Temp\ccab1BcQ.s 			page 7


 195              		.loc 1 144 0
 196 002e BD46     		mov	sp, r7
 197              		@ sp needed for prologue
 198 0030 80BD     		pop	{r7, pc}
 199              	.L17:
 200 0032 C046     		.align	2
 201              	.L16:
 202 0034 30001A40 		.word	1075445808
 203 0038 00000000 		.word	ADC_SAR_Seq_1_backup
 204              		.cfi_endproc
 205              	.LFE3:
 206              		.size	ADC_SAR_Seq_1_Wakeup, .-ADC_SAR_Seq_1_Wakeup
 207              		.text
 208              	.Letext0: