ARM GAS  C:\Users\maxk\AppData\Local\Temp\cco4JLBC.s 			page 1


   1              		.cpu cortex-m0
   2              		.fpu softvfp
   3              		.eabi_attribute 20, 1
   4              		.eabi_attribute 21, 1
   5              		.eabi_attribute 23, 3
   6              		.eabi_attribute 24, 1
   7              		.eabi_attribute 25, 1
   8              		.eabi_attribute 26, 1
   9              		.eabi_attribute 30, 6
  10              		.eabi_attribute 18, 4
  11              		.code	16
  12              		.file	"ADC_SAR_Seq_1.c"
  19 0000 05020000 		.text
  19      02006600 
  19      00000201 
  19      FB0E0D00 
  19      01010101 
  20              	.Ltext0:
  21              		.cfi_sections	.debug_frame
  22              		.global	ADC_SAR_Seq_1_initVar
  23              		.bss
  24              		.type	ADC_SAR_Seq_1_initVar, %object
  25              		.size	ADC_SAR_Seq_1_initVar, 1
  26              	ADC_SAR_Seq_1_initVar:
  27 0000 00       		.space	1
  28              		.comm	ADC_SAR_Seq_1_offset,2,4
  29              		.comm	ADC_SAR_Seq_1_countsPer10Volt,4,4
  30              		.section	.rodata
  31              		.align	2
  32              		.type	ADC_SAR_Seq_1_channelsConfig, %object
  33              		.size	ADC_SAR_Seq_1_channelsConfig, 4
  34              	ADC_SAR_Seq_1_channelsConfig:
  35 0000 00000000 		.space	4
  36              		.section	.text.ADC_SAR_Seq_1_Start,"ax",%progbits
  37              		.align	2
  38              		.global	ADC_SAR_Seq_1_Start
  39              		.code	16
  40              		.thumb_func
  41              		.type	ADC_SAR_Seq_1_Start, %function
  42              	ADC_SAR_Seq_1_Start:
  43              	.LFB0:
  44              		.file 1 ".\\Generated_Source\\PSoC4\\ADC_SAR_Seq_1.c"
   1:.\Generated_Source\PSoC4/ADC_SAR_Seq_1.c **** /*******************************************************************************
   2:.\Generated_Source\PSoC4/ADC_SAR_Seq_1.c **** * File Name: ADC_SAR_Seq_1.c
   3:.\Generated_Source\PSoC4/ADC_SAR_Seq_1.c **** * Version 1.0
   4:.\Generated_Source\PSoC4/ADC_SAR_Seq_1.c **** *
   5:.\Generated_Source\PSoC4/ADC_SAR_Seq_1.c **** * Description:
   6:.\Generated_Source\PSoC4/ADC_SAR_Seq_1.c **** *  This file provides the source code to the API for the Sequencing Successive
   7:.\Generated_Source\PSoC4/ADC_SAR_Seq_1.c **** *  Approximation ADC Component Component.
   8:.\Generated_Source\PSoC4/ADC_SAR_Seq_1.c **** *
   9:.\Generated_Source\PSoC4/ADC_SAR_Seq_1.c **** * Note:
ARM GAS  C:\Users\maxk\AppData\Local\Temp\cco4JLBC.s 			page 2


  10:.\Generated_Source\PSoC4/ADC_SAR_Seq_1.c **** *
  11:.\Generated_Source\PSoC4/ADC_SAR_Seq_1.c **** ********************************************************************************
  12:.\Generated_Source\PSoC4/ADC_SAR_Seq_1.c **** * Copyright 2008-2013, Cypress Semiconductor Corporation.  All rights reserved.
  13:.\Generated_Source\PSoC4/ADC_SAR_Seq_1.c **** * You may use this file only in accordance with the license, terms, conditions,
  14:.\Generated_Source\PSoC4/ADC_SAR_Seq_1.c **** * disclaimers, and limitations in the end user license agreement accompanying
  15:.\Generated_Source\PSoC4/ADC_SAR_Seq_1.c **** * the software package with which this file was provided.
  16:.\Generated_Source\PSoC4/ADC_SAR_Seq_1.c **** *******************************************************************************/
  17:.\Generated_Source\PSoC4/ADC_SAR_Seq_1.c **** 
  18:.\Generated_Source\PSoC4/ADC_SAR_Seq_1.c **** #include "CyLib.h"
  19:.\Generated_Source\PSoC4/ADC_SAR_Seq_1.c **** #include "ADC_SAR_Seq_1.h"
  20:.\Generated_Source\PSoC4/ADC_SAR_Seq_1.c **** 
  21:.\Generated_Source\PSoC4/ADC_SAR_Seq_1.c **** 
  22:.\Generated_Source\PSoC4/ADC_SAR_Seq_1.c **** /***************************************
  23:.\Generated_Source\PSoC4/ADC_SAR_Seq_1.c **** * Global data allocation
  24:.\Generated_Source\PSoC4/ADC_SAR_Seq_1.c **** ***************************************/
  25:.\Generated_Source\PSoC4/ADC_SAR_Seq_1.c **** uint8 ADC_SAR_Seq_1_initVar = 0u;
  26:.\Generated_Source\PSoC4/ADC_SAR_Seq_1.c **** volatile int16 ADC_SAR_Seq_1_offset[ADC_SAR_Seq_1_TOTAL_CHANNELS_NUM];
  27:.\Generated_Source\PSoC4/ADC_SAR_Seq_1.c **** volatile int32 ADC_SAR_Seq_1_countsPer10Volt[ADC_SAR_Seq_1_TOTAL_CHANNELS_NUM];   /* Gain compensat
  28:.\Generated_Source\PSoC4/ADC_SAR_Seq_1.c **** 
  29:.\Generated_Source\PSoC4/ADC_SAR_Seq_1.c **** 
  30:.\Generated_Source\PSoC4/ADC_SAR_Seq_1.c **** /***************************************
  31:.\Generated_Source\PSoC4/ADC_SAR_Seq_1.c **** * Local data allocation
  32:.\Generated_Source\PSoC4/ADC_SAR_Seq_1.c **** ***************************************/
  33:.\Generated_Source\PSoC4/ADC_SAR_Seq_1.c **** /* Channels configuration generated by customiser */
  34:.\Generated_Source\PSoC4/ADC_SAR_Seq_1.c **** static const uint32 CYCODE ADC_SAR_Seq_1_channelsConfig[] = { 0x00000000u };
  35:.\Generated_Source\PSoC4/ADC_SAR_Seq_1.c **** 
  36:.\Generated_Source\PSoC4/ADC_SAR_Seq_1.c **** 
  37:.\Generated_Source\PSoC4/ADC_SAR_Seq_1.c **** /*******************************************************************************
  38:.\Generated_Source\PSoC4/ADC_SAR_Seq_1.c **** * Function Name: ADC_SAR_Seq_1_Start
  39:.\Generated_Source\PSoC4/ADC_SAR_Seq_1.c **** ********************************************************************************
  40:.\Generated_Source\PSoC4/ADC_SAR_Seq_1.c **** *
  41:.\Generated_Source\PSoC4/ADC_SAR_Seq_1.c **** * Summary:
  42:.\Generated_Source\PSoC4/ADC_SAR_Seq_1.c **** *  Performs all required initialization for this component
  43:.\Generated_Source\PSoC4/ADC_SAR_Seq_1.c **** *  and enables the power. The power will be set to the appropriate
  44:.\Generated_Source\PSoC4/ADC_SAR_Seq_1.c **** *  power based on the clock frequency.
  45:.\Generated_Source\PSoC4/ADC_SAR_Seq_1.c **** *
  46:.\Generated_Source\PSoC4/ADC_SAR_Seq_1.c **** * Parameters:
  47:.\Generated_Source\PSoC4/ADC_SAR_Seq_1.c **** *  None.
  48:.\Generated_Source\PSoC4/ADC_SAR_Seq_1.c **** *
  49:.\Generated_Source\PSoC4/ADC_SAR_Seq_1.c **** * Return:
  50:.\Generated_Source\PSoC4/ADC_SAR_Seq_1.c **** *  None.
  51:.\Generated_Source\PSoC4/ADC_SAR_Seq_1.c **** *
  52:.\Generated_Source\PSoC4/ADC_SAR_Seq_1.c **** * Global variables:
  53:.\Generated_Source\PSoC4/ADC_SAR_Seq_1.c **** *  The ADC_SAR_Seq_1_initVar variable is used to indicate when/if initial
  54:.\Generated_Source\PSoC4/ADC_SAR_Seq_1.c **** *  configuration of this component has happened. The variable is initialized to
  55:.\Generated_Source\PSoC4/ADC_SAR_Seq_1.c **** *  zero and set to 1 the first time ADC_Start() is called. This allows for
  56:.\Generated_Source\PSoC4/ADC_SAR_Seq_1.c **** *  component Re-Start without re-initialization in all subsequent calls to the
  57:.\Generated_Source\PSoC4/ADC_SAR_Seq_1.c **** *  ADC_SAR_Seq_1_Start() routine.
  58:.\Generated_Source\PSoC4/ADC_SAR_Seq_1.c **** *  If re-initialization of the component is required the variable should be set
  59:.\Generated_Source\PSoC4/ADC_SAR_Seq_1.c **** *  to zero before call of ADC_SAR_Seq_1_Start() routine, or the user may call
  60:.\Generated_Source\PSoC4/ADC_SAR_Seq_1.c **** *  ADC_SAR_Seq_1_Init() and ADC_SAR_Seq_1_Enable() as done in the
  61:.\Generated_Source\PSoC4/ADC_SAR_Seq_1.c **** *  ADC_SAR_Seq_1_Start() routine.
  62:.\Generated_Source\PSoC4/ADC_SAR_Seq_1.c **** *
  63:.\Generated_Source\PSoC4/ADC_SAR_Seq_1.c **** *******************************************************************************/
  64:.\Generated_Source\PSoC4/ADC_SAR_Seq_1.c **** void ADC_SAR_Seq_1_Start(void)
  65:.\Generated_Source\PSoC4/ADC_SAR_Seq_1.c **** {
  45              		.loc 1 65 0
ARM GAS  C:\Users\maxk\AppData\Local\Temp\cco4JLBC.s 			page 3


  46              		.cfi_startproc
  47 0000 80B5     		push	{r7, lr}
  48              	.LCFI0:
  49              		.cfi_def_cfa_offset 8
  50              		.cfi_offset 7, -8
  51              		.cfi_offset 14, -4
  52 0002 00AF     		add	r7, sp, #0
  53              	.LCFI1:
  54              		.cfi_def_cfa_register 7
  66:.\Generated_Source\PSoC4/ADC_SAR_Seq_1.c ****     /* If not Initialized then initialize all required hardware and software */
  67:.\Generated_Source\PSoC4/ADC_SAR_Seq_1.c ****     if(ADC_SAR_Seq_1_initVar == 0u)
  55              		.loc 1 67 0
  56 0004 064B     		ldr	r3, .L4
  57 0006 1B78     		ldrb	r3, [r3]
  58 0008 002B     		cmp	r3, #0
  59 000a 04D1     		bne	.L2
  68:.\Generated_Source\PSoC4/ADC_SAR_Seq_1.c ****     {
  69:.\Generated_Source\PSoC4/ADC_SAR_Seq_1.c ****         ADC_SAR_Seq_1_Init();
  60              		.loc 1 69 0
  61 000c FFF7FEFF 		bl	ADC_SAR_Seq_1_Init
  70:.\Generated_Source\PSoC4/ADC_SAR_Seq_1.c ****         ADC_SAR_Seq_1_initVar = 1u;
  62              		.loc 1 70 0
  63 0010 034B     		ldr	r3, .L4
  64 0012 0122     		mov	r2, #1
  65 0014 1A70     		strb	r2, [r3]
  66              	.L2:
  71:.\Generated_Source\PSoC4/ADC_SAR_Seq_1.c ****     }
  72:.\Generated_Source\PSoC4/ADC_SAR_Seq_1.c ****     ADC_SAR_Seq_1_Enable();
  67              		.loc 1 72 0
  68 0016 FFF7FEFF 		bl	ADC_SAR_Seq_1_Enable
  73:.\Generated_Source\PSoC4/ADC_SAR_Seq_1.c **** }
  69              		.loc 1 73 0
  70 001a BD46     		mov	sp, r7
  71              		@ sp needed for prologue
  72 001c 80BD     		pop	{r7, pc}
  73              	.L5:
  74 001e C046     		.align	2
  75              	.L4:
  76 0020 00000000 		.word	ADC_SAR_Seq_1_initVar
  77              		.cfi_endproc
  78              	.LFE0:
  79              		.size	ADC_SAR_Seq_1_Start, .-ADC_SAR_Seq_1_Start
  80              		.section	.text.ADC_SAR_Seq_1_Init,"ax",%progbits
  81              		.align	2
  82              		.global	ADC_SAR_Seq_1_Init
  83              		.code	16
  84              		.thumb_func
  85              		.type	ADC_SAR_Seq_1_Init, %function
  86              	ADC_SAR_Seq_1_Init:
  87              	.LFB1:
  74:.\Generated_Source\PSoC4/ADC_SAR_Seq_1.c **** 
  75:.\Generated_Source\PSoC4/ADC_SAR_Seq_1.c **** 
  76:.\Generated_Source\PSoC4/ADC_SAR_Seq_1.c **** /*******************************************************************************
  77:.\Generated_Source\PSoC4/ADC_SAR_Seq_1.c **** * Function Name: ADC_SAR_Seq_1_Init
  78:.\Generated_Source\PSoC4/ADC_SAR_Seq_1.c **** ********************************************************************************
  79:.\Generated_Source\PSoC4/ADC_SAR_Seq_1.c **** *
  80:.\Generated_Source\PSoC4/ADC_SAR_Seq_1.c **** * Summary:
ARM GAS  C:\Users\maxk\AppData\Local\Temp\cco4JLBC.s 			page 4


  81:.\Generated_Source\PSoC4/ADC_SAR_Seq_1.c **** *  Initialize component's parameters to the parameters set by user in the
  82:.\Generated_Source\PSoC4/ADC_SAR_Seq_1.c **** *  customizer of the component placed onto schematic. Usually called in
  83:.\Generated_Source\PSoC4/ADC_SAR_Seq_1.c **** *  ADC_SAR_Seq_1_Start().
  84:.\Generated_Source\PSoC4/ADC_SAR_Seq_1.c **** *
  85:.\Generated_Source\PSoC4/ADC_SAR_Seq_1.c **** * Parameters:
  86:.\Generated_Source\PSoC4/ADC_SAR_Seq_1.c **** *  None.
  87:.\Generated_Source\PSoC4/ADC_SAR_Seq_1.c **** *
  88:.\Generated_Source\PSoC4/ADC_SAR_Seq_1.c **** * Return:
  89:.\Generated_Source\PSoC4/ADC_SAR_Seq_1.c **** *  None.
  90:.\Generated_Source\PSoC4/ADC_SAR_Seq_1.c **** *
  91:.\Generated_Source\PSoC4/ADC_SAR_Seq_1.c **** * Global variables:
  92:.\Generated_Source\PSoC4/ADC_SAR_Seq_1.c **** *  The ADC_SAR_Seq_1_offset variable is initialized.
  93:.\Generated_Source\PSoC4/ADC_SAR_Seq_1.c **** *
  94:.\Generated_Source\PSoC4/ADC_SAR_Seq_1.c **** *******************************************************************************/
  95:.\Generated_Source\PSoC4/ADC_SAR_Seq_1.c **** void ADC_SAR_Seq_1_Init(void)
  96:.\Generated_Source\PSoC4/ADC_SAR_Seq_1.c **** {
  88              		.loc 1 96 0
  89              		.cfi_startproc
  90 0000 90B5     		push	{r4, r7, lr}
  91              	.LCFI2:
  92              		.cfi_def_cfa_offset 12
  93              		.cfi_offset 4, -12
  94              		.cfi_offset 7, -8
  95              		.cfi_offset 14, -4
  96 0002 85B0     		sub	sp, sp, #20
  97              	.LCFI3:
  98              		.cfi_def_cfa_offset 32
  99 0004 00AF     		add	r7, sp, #0
 100              	.LCFI4:
 101              		.cfi_def_cfa_register 7
  97:.\Generated_Source\PSoC4/ADC_SAR_Seq_1.c ****     uint32 chNum;
  98:.\Generated_Source\PSoC4/ADC_SAR_Seq_1.c ****     uint32 tmpRegVal;
  99:.\Generated_Source\PSoC4/ADC_SAR_Seq_1.c ****     int32 counts;
 100:.\Generated_Source\PSoC4/ADC_SAR_Seq_1.c **** 
 101:.\Generated_Source\PSoC4/ADC_SAR_Seq_1.c ****     #if(ADC_SAR_Seq_1_TOTAL_CHANNELS_NUM > 1u)
 102:.\Generated_Source\PSoC4/ADC_SAR_Seq_1.c ****         static const uint8 CYCODE ADC_SAR_Seq_1_InputsPlacement[] =
 103:.\Generated_Source\PSoC4/ADC_SAR_Seq_1.c ****         {
 104:.\Generated_Source\PSoC4/ADC_SAR_Seq_1.c ****             (uint8)(ADC_SAR_Seq_1_cy_psoc4_sarmux_8__CH_0_PORT << 4u) |
 105:.\Generated_Source\PSoC4/ADC_SAR_Seq_1.c ****             (uint8)ADC_SAR_Seq_1_cy_psoc4_sarmux_8__CH_0_PIN
 106:.\Generated_Source\PSoC4/ADC_SAR_Seq_1.c ****             ,(uint8)(ADC_SAR_Seq_1_cy_psoc4_sarmux_8__CH_1_PORT << 4u) |
 107:.\Generated_Source\PSoC4/ADC_SAR_Seq_1.c ****              (uint8)ADC_SAR_Seq_1_cy_psoc4_sarmux_8__CH_1_PIN
 108:.\Generated_Source\PSoC4/ADC_SAR_Seq_1.c ****             #if(ADC_SAR_Seq_1_TOTAL_CHANNELS_NUM > 2u)
 109:.\Generated_Source\PSoC4/ADC_SAR_Seq_1.c ****                 ,(uint8)(ADC_SAR_Seq_1_cy_psoc4_sarmux_8__CH_2_PORT << 4u) |
 110:.\Generated_Source\PSoC4/ADC_SAR_Seq_1.c ****                  (uint8)ADC_SAR_Seq_1_cy_psoc4_sarmux_8__CH_2_PIN
 111:.\Generated_Source\PSoC4/ADC_SAR_Seq_1.c ****             #endif /* End ADC_SAR_Seq_1_TOTAL_CHANNELS_NUM > 2u */
 112:.\Generated_Source\PSoC4/ADC_SAR_Seq_1.c ****             #if(ADC_SAR_Seq_1_TOTAL_CHANNELS_NUM > 3u)
 113:.\Generated_Source\PSoC4/ADC_SAR_Seq_1.c ****                 ,(uint8)(ADC_SAR_Seq_1_cy_psoc4_sarmux_8__CH_3_PORT << 4u) |
 114:.\Generated_Source\PSoC4/ADC_SAR_Seq_1.c ****                  (uint8)ADC_SAR_Seq_1_cy_psoc4_sarmux_8__CH_3_PIN
 115:.\Generated_Source\PSoC4/ADC_SAR_Seq_1.c ****             #endif /* End ADC_SAR_Seq_1_TOTAL_CHANNELS_NUM > 3u */
 116:.\Generated_Source\PSoC4/ADC_SAR_Seq_1.c ****             #if(ADC_SAR_Seq_1_TOTAL_CHANNELS_NUM > 4u)
 117:.\Generated_Source\PSoC4/ADC_SAR_Seq_1.c ****                 ,(uint8)(ADC_SAR_Seq_1_cy_psoc4_sarmux_8__CH_4_PORT << 4u) |
 118:.\Generated_Source\PSoC4/ADC_SAR_Seq_1.c ****                  (uint8)ADC_SAR_Seq_1_cy_psoc4_sarmux_8__CH_4_PIN
 119:.\Generated_Source\PSoC4/ADC_SAR_Seq_1.c ****             #endif /* End ADC_SAR_Seq_1_TOTAL_CHANNELS_NUM > 4u */
 120:.\Generated_Source\PSoC4/ADC_SAR_Seq_1.c ****             #if(ADC_SAR_Seq_1_TOTAL_CHANNELS_NUM > 5u)
 121:.\Generated_Source\PSoC4/ADC_SAR_Seq_1.c ****                 ,(uint8)(ADC_SAR_Seq_1_cy_psoc4_sarmux_8__CH_5_PORT << 4u) |
 122:.\Generated_Source\PSoC4/ADC_SAR_Seq_1.c ****                  (uint8)ADC_SAR_Seq_1_cy_psoc4_sarmux_8__CH_5_PIN
 123:.\Generated_Source\PSoC4/ADC_SAR_Seq_1.c ****             #endif /* End ADC_SAR_Seq_1_TOTAL_CHANNELS_NUM > 5u */
ARM GAS  C:\Users\maxk\AppData\Local\Temp\cco4JLBC.s 			page 5


 124:.\Generated_Source\PSoC4/ADC_SAR_Seq_1.c ****             #if(ADC_SAR_Seq_1_TOTAL_CHANNELS_NUM > 6u)
 125:.\Generated_Source\PSoC4/ADC_SAR_Seq_1.c ****                 ,(uint8)(ADC_SAR_Seq_1_cy_psoc4_sarmux_8__CH_6_PORT << 4u) |
 126:.\Generated_Source\PSoC4/ADC_SAR_Seq_1.c ****                  (uint8)ADC_SAR_Seq_1_cy_psoc4_sarmux_8__CH_6_PIN
 127:.\Generated_Source\PSoC4/ADC_SAR_Seq_1.c ****             #endif /* End ADC_SAR_Seq_1_TOTAL_CHANNELS_NUM > 6u */
 128:.\Generated_Source\PSoC4/ADC_SAR_Seq_1.c ****             #if(ADC_SAR_Seq_1_TOTAL_CHANNELS_NUM > 7u)
 129:.\Generated_Source\PSoC4/ADC_SAR_Seq_1.c ****                 ,(uint8)(ADC_SAR_Seq_1_cy_psoc4_sarmux_8__CH_7_PORT << 4u) |
 130:.\Generated_Source\PSoC4/ADC_SAR_Seq_1.c ****                  (uint8)ADC_SAR_Seq_1_cy_psoc4_sarmux_8__CH_7_PIN
 131:.\Generated_Source\PSoC4/ADC_SAR_Seq_1.c ****             #endif /* End ADC_SAR_Seq_1_TOTAL_CHANNELS_NUM > 7u */
 132:.\Generated_Source\PSoC4/ADC_SAR_Seq_1.c ****             #if(ADC_SAR_Seq_1_TOTAL_CHANNELS_NUM > 8u)
 133:.\Generated_Source\PSoC4/ADC_SAR_Seq_1.c ****                 ,(uint8)(ADC_SAR_Seq_1_cy_psoc4_sarmux_8__CH_8_PORT << 4u) |
 134:.\Generated_Source\PSoC4/ADC_SAR_Seq_1.c ****                  (uint8)ADC_SAR_Seq_1_cy_psoc4_sarmux_8__CH_8_PIN
 135:.\Generated_Source\PSoC4/ADC_SAR_Seq_1.c ****             #endif /* End ADC_SAR_Seq_1_TOTAL_CHANNELS_NUM > 8u */
 136:.\Generated_Source\PSoC4/ADC_SAR_Seq_1.c ****         };
 137:.\Generated_Source\PSoC4/ADC_SAR_Seq_1.c ****     #endif /* End ADC_SAR_Seq_1_TOTAL_CHANNELS_NUM > 1u */
 138:.\Generated_Source\PSoC4/ADC_SAR_Seq_1.c **** 
 139:.\Generated_Source\PSoC4/ADC_SAR_Seq_1.c ****     #if(ADC_SAR_Seq_1_IRQ_REMOVE == 0u)
 140:.\Generated_Source\PSoC4/ADC_SAR_Seq_1.c ****         /* Start and set interrupt vector */
 141:.\Generated_Source\PSoC4/ADC_SAR_Seq_1.c ****         CyIntSetPriority(ADC_SAR_Seq_1_INTC_NUMBER, ADC_SAR_Seq_1_INTC_PRIOR_NUMBER);
 102              		.loc 1 141 0
 103 0006 0E20     		mov	r0, #14
 104 0008 0321     		mov	r1, #3
 105 000a FFF7FEFF 		bl	CyIntSetPriority
 142:.\Generated_Source\PSoC4/ADC_SAR_Seq_1.c ****         (void)CyIntSetVector(ADC_SAR_Seq_1_INTC_NUMBER, &ADC_SAR_Seq_1_ISR);
 106              		.loc 1 142 0
 107 000e 504B     		ldr	r3, .L17
 108 0010 0E20     		mov	r0, #14
 109 0012 191C     		mov	r1, r3
 110 0014 FFF7FEFF 		bl	CyIntSetVector
 143:.\Generated_Source\PSoC4/ADC_SAR_Seq_1.c ****     #endif   /* End ADC_SAR_Seq_1_IRQ_REMOVE */
 144:.\Generated_Source\PSoC4/ADC_SAR_Seq_1.c **** 
 145:.\Generated_Source\PSoC4/ADC_SAR_Seq_1.c ****     /* Init SAR and MUX registers */
 146:.\Generated_Source\PSoC4/ADC_SAR_Seq_1.c ****     ADC_SAR_Seq_1_SAR_CHAN_EN_REG = ADC_SAR_Seq_1_DEFAULT_EN_CHANNELS;
 111              		.loc 1 146 0
 112 0018 4E4B     		ldr	r3, .L17+4
 113 001a 0122     		mov	r2, #1
 114 001c 1A60     		str	r2, [r3]
 147:.\Generated_Source\PSoC4/ADC_SAR_Seq_1.c ****     ADC_SAR_Seq_1_SAR_CTRL_REG = ADC_SAR_Seq_1_DEFAULT_CTRL_REG_CFG;
 115              		.loc 1 147 0
 116 001e 4E4B     		ldr	r3, .L17+8
 117 0020 4E4A     		ldr	r2, .L17+12
 118 0022 1A60     		str	r2, [r3]
 148:.\Generated_Source\PSoC4/ADC_SAR_Seq_1.c ****     ADC_SAR_Seq_1_SAR_SAMPLE_CTRL_REG = ADC_SAR_Seq_1_DEFAULT_SAMPLE_CTRL_REG_CFG;
 119              		.loc 1 148 0
 120 0024 4E4B     		ldr	r3, .L17+16
 121 0026 4F4A     		ldr	r2, .L17+20
 122 0028 1A60     		str	r2, [r3]
 149:.\Generated_Source\PSoC4/ADC_SAR_Seq_1.c ****     ADC_SAR_Seq_1_SAR_RANGE_THRES_REG = ADC_SAR_Seq_1_DEFAULT_RANGE_THRES_REG_CFG;
 123              		.loc 1 149 0
 124 002a 4F4B     		ldr	r3, .L17+24
 125 002c 4F4A     		ldr	r2, .L17+28
 126 002e 1A60     		str	r2, [r3]
 150:.\Generated_Source\PSoC4/ADC_SAR_Seq_1.c ****     ADC_SAR_Seq_1_SAR_RANGE_COND_REG  = ADC_SAR_Seq_1_COMPARE_MODE;
 127              		.loc 1 150 0
 128 0030 4F4B     		ldr	r3, .L17+32
 129 0032 0022     		mov	r2, #0
 130 0034 1A60     		str	r2, [r3]
 151:.\Generated_Source\PSoC4/ADC_SAR_Seq_1.c ****     ADC_SAR_Seq_1_SAR_SAMPLE_TIME01_REG = ADC_SAR_Seq_1_DEFAULT_SAMPLE_TIME01_REG_CFG;
ARM GAS  C:\Users\maxk\AppData\Local\Temp\cco4JLBC.s 			page 6


 131              		.loc 1 151 0
 132 0036 4F4B     		ldr	r3, .L17+36
 133 0038 4F4A     		ldr	r2, .L17+40
 134 003a 1A60     		str	r2, [r3]
 152:.\Generated_Source\PSoC4/ADC_SAR_Seq_1.c ****     ADC_SAR_Seq_1_SAR_SAMPLE_TIME23_REG = ADC_SAR_Seq_1_DEFAULT_SAMPLE_TIME23_REG_CFG;
 135              		.loc 1 152 0
 136 003c 4F4B     		ldr	r3, .L17+44
 137 003e 4E4A     		ldr	r2, .L17+40
 138 0040 1A60     		str	r2, [r3]
 153:.\Generated_Source\PSoC4/ADC_SAR_Seq_1.c ****     /* Connect Vm to VSSA when even one channel is single-ended or multiple channels configured */
 154:.\Generated_Source\PSoC4/ADC_SAR_Seq_1.c ****     #if(ADC_SAR_Seq_1_DEFAULT_MUX_SWITCH0 != 0u)
 155:.\Generated_Source\PSoC4/ADC_SAR_Seq_1.c ****         ADC_SAR_Seq_1_MUX_SWITCH0_REG |= ADC_SAR_Seq_1_DEFAULT_MUX_SWITCH0; 
 139              		.loc 1 155 0
 140 0042 4F4A     		ldr	r2, .L17+48
 141 0044 4E4B     		ldr	r3, .L17+48
 142 0046 1968     		ldr	r1, [r3]
 143 0048 8023     		mov	r3, #128
 144 004a 5B02     		lsl	r3, r3, #9
 145 004c 0B43     		orr	r3, r3, r1
 146 004e 1360     		str	r3, [r2]
 156:.\Generated_Source\PSoC4/ADC_SAR_Seq_1.c ****         /* Set MUX_HW_CTRL_VSSA in MUX_SWITCH_HW_CTRL when multiple channels enabled */
 157:.\Generated_Source\PSoC4/ADC_SAR_Seq_1.c ****         #if(ADC_SAR_Seq_1_TOTAL_CHANNELS_NUM > 1u)
 158:.\Generated_Source\PSoC4/ADC_SAR_Seq_1.c ****             ADC_SAR_Seq_1_MUX_SWITCH_HW_CTRL_REG |= ADC_SAR_Seq_1_DEFAULT_MUX_SWITCH0; 
 159:.\Generated_Source\PSoC4/ADC_SAR_Seq_1.c ****         #endif
 160:.\Generated_Source\PSoC4/ADC_SAR_Seq_1.c ****     #endif /*ADC_SAR_Seq_1_CHANNELS_MODE !=0 */    
 161:.\Generated_Source\PSoC4/ADC_SAR_Seq_1.c **** 
 162:.\Generated_Source\PSoC4/ADC_SAR_Seq_1.c ****     ADC_SAR_Seq_1_SAR_SATURATE_INTR_MASK_REG = 0u;
 147              		.loc 1 162 0
 148 0050 4C4B     		ldr	r3, .L17+52
 149 0052 0022     		mov	r2, #0
 150 0054 1A60     		str	r2, [r3]
 163:.\Generated_Source\PSoC4/ADC_SAR_Seq_1.c ****     ADC_SAR_Seq_1_SAR_RANGE_INTR_MASK_REG = 0u;
 151              		.loc 1 163 0
 152 0056 4C4B     		ldr	r3, .L17+56
 153 0058 0022     		mov	r2, #0
 154 005a 1A60     		str	r2, [r3]
 164:.\Generated_Source\PSoC4/ADC_SAR_Seq_1.c ****     ADC_SAR_Seq_1_SAR_INTR_MASK_REG = ADC_SAR_Seq_1_SAR_INTR_MASK;
 155              		.loc 1 164 0
 156 005c 4B4B     		ldr	r3, .L17+60
 157 005e 0122     		mov	r2, #1
 158 0060 1A60     		str	r2, [r3]
 165:.\Generated_Source\PSoC4/ADC_SAR_Seq_1.c ****     #if(ADC_SAR_Seq_1_MAX_RESOLUTION != ADC_SAR_Seq_1_RESOLUTION_12)
 166:.\Generated_Source\PSoC4/ADC_SAR_Seq_1.c ****         ADC_SAR_Seq_1_WOUNDING_REG = ADC_SAR_Seq_1_ALT_WOUNDING;
 167:.\Generated_Source\PSoC4/ADC_SAR_Seq_1.c ****     #endif /* ADC_SAR_Seq_1_MAX_RESOLUTION != ADC_SAR_Seq_1_RESOLUTION_12 */
 168:.\Generated_Source\PSoC4/ADC_SAR_Seq_1.c **** 
 169:.\Generated_Source\PSoC4/ADC_SAR_Seq_1.c ****     for(chNum = 0u; chNum < ADC_SAR_Seq_1_TOTAL_CHANNELS_NUM; chNum++)
 159              		.loc 1 169 0
 160 0062 0023     		mov	r3, #0
 161 0064 7B60     		str	r3, [r7, #4]
 162 0066 6DE0     		b	.L7
 163              	.L15:
 170:.\Generated_Source\PSoC4/ADC_SAR_Seq_1.c ****     {
 171:.\Generated_Source\PSoC4/ADC_SAR_Seq_1.c ****         tmpRegVal = (ADC_SAR_Seq_1_channelsConfig[chNum] & ADC_SAR_Seq_1_CHANNEL_CONFIG_MASK);
 164              		.loc 1 171 0
 165 0068 7A68     		ldr	r2, [r7, #4]
 166 006a 494B     		ldr	r3, .L17+64
 167 006c 9200     		lsl	r2, r2, #2
ARM GAS  C:\Users\maxk\AppData\Local\Temp\cco4JLBC.s 			page 7


 168 006e D258     		ldr	r2, [r2, r3]
 169 0070 DC23     		mov	r3, #220
 170 0072 9B01     		lsl	r3, r3, #6
 171 0074 1340     		and	r3, r3, r2
 172 0076 BB60     		str	r3, [r7, #8]
 172:.\Generated_Source\PSoC4/ADC_SAR_Seq_1.c ****         #if(ADC_SAR_Seq_1_TOTAL_CHANNELS_NUM > 1u)
 173:.\Generated_Source\PSoC4/ADC_SAR_Seq_1.c ****             tmpRegVal |= ADC_SAR_Seq_1_InputsPlacement[chNum];
 174:.\Generated_Source\PSoC4/ADC_SAR_Seq_1.c ****         #endif /* End ADC_SAR_Seq_1_TOTAL_CHANNELS_NUM > 1u */
 175:.\Generated_Source\PSoC4/ADC_SAR_Seq_1.c ****         /* When the part is wounded to 10-bit then the SUB_RESOLUTION bit will be ignored and the
 176:.\Generated_Source\PSoC4/ADC_SAR_Seq_1.c ****         *  RESOLUTION bit selects between 10-bit (0) and 8-bit (1) resolution.
 177:.\Generated_Source\PSoC4/ADC_SAR_Seq_1.c ****         */
 178:.\Generated_Source\PSoC4/ADC_SAR_Seq_1.c ****         #if((ADC_SAR_Seq_1_MAX_RESOLUTION != ADC_SAR_Seq_1_RESOLUTION_12) && \
 179:.\Generated_Source\PSoC4/ADC_SAR_Seq_1.c ****             (ADC_SAR_Seq_1_ALT_WOUNDING == ADC_SAR_Seq_1_WOUNDING_10BIT))
 180:.\Generated_Source\PSoC4/ADC_SAR_Seq_1.c ****             tmpRegVal &= (uint32)(~ADC_SAR_Seq_1_ALT_RESOLUTION_ON);
 181:.\Generated_Source\PSoC4/ADC_SAR_Seq_1.c ****         #endif /* ADC_SAR_Seq_1_MAX_RESOLUTION != ADC_SAR_Seq_1_RESOLUTION_12 */
 182:.\Generated_Source\PSoC4/ADC_SAR_Seq_1.c **** 
 183:.\Generated_Source\PSoC4/ADC_SAR_Seq_1.c ****         #if(ADC_SAR_Seq_1_INJ_CHANNEL_ENABLED)
 184:.\Generated_Source\PSoC4/ADC_SAR_Seq_1.c ****         if(chNum < ADC_SAR_Seq_1_SEQUENCED_CHANNELS_NUM)
 185:.\Generated_Source\PSoC4/ADC_SAR_Seq_1.c ****         #endif /* ADC_SAR_Seq_1_INJ_CHANNEL_ENABLED */
 186:.\Generated_Source\PSoC4/ADC_SAR_Seq_1.c ****         {
 187:.\Generated_Source\PSoC4/ADC_SAR_Seq_1.c ****             CY_SET_REG32((reg32 *)(ADC_SAR_Seq_1_SAR_CHAN_CONFIG_IND + (uint32)(chNum << 2)), tmpRe
 173              		.loc 1 187 0
 174 0078 7B68     		ldr	r3, [r7, #4]
 175 007a 9B00     		lsl	r3, r3, #2
 176 007c 4549     		ldr	r1, .L17+68
 177 007e 5B18     		add	r3, r3, r1
 178 0080 BA68     		ldr	r2, [r7, #8]
 179 0082 1A60     		str	r2, [r3]
 188:.\Generated_Source\PSoC4/ADC_SAR_Seq_1.c **** 
 189:.\Generated_Source\PSoC4/ADC_SAR_Seq_1.c ****             if((ADC_SAR_Seq_1_channelsConfig[chNum] & ADC_SAR_Seq_1_IS_SATURATE_EN_MASK) != 0u)
 180              		.loc 1 189 0
 181 0084 7A68     		ldr	r2, [r7, #4]
 182 0086 424B     		ldr	r3, .L17+64
 183 0088 9200     		lsl	r2, r2, #2
 184 008a D358     		ldr	r3, [r2, r3]
 185 008c 1A1C     		mov	r2, r3
 186 008e 0123     		mov	r3, #1
 187 0090 1340     		and	r3, r3, r2
 188 0092 DBB2     		uxtb	r3, r3
 189 0094 002B     		cmp	r3, #0
 190 0096 0AD0     		beq	.L8
 190:.\Generated_Source\PSoC4/ADC_SAR_Seq_1.c ****             {
 191:.\Generated_Source\PSoC4/ADC_SAR_Seq_1.c ****                 ADC_SAR_Seq_1_SAR_SATURATE_INTR_MASK_REG |= (uint16)((uint16)1 << chNum);
 191              		.loc 1 191 0
 192 0098 3A4B     		ldr	r3, .L17+52
 193 009a 3A4A     		ldr	r2, .L17+52
 194 009c 1168     		ldr	r1, [r2]
 195 009e 7A68     		ldr	r2, [r7, #4]
 196 00a0 0120     		mov	r0, #1
 197 00a2 041C     		mov	r4, r0
 198 00a4 9440     		lsl	r4, r4, r2
 199 00a6 221C     		mov	r2, r4
 200 00a8 92B2     		uxth	r2, r2
 201 00aa 0A43     		orr	r2, r2, r1
 202 00ac 1A60     		str	r2, [r3]
 203              	.L8:
 192:.\Generated_Source\PSoC4/ADC_SAR_Seq_1.c ****             }
ARM GAS  C:\Users\maxk\AppData\Local\Temp\cco4JLBC.s 			page 8


 193:.\Generated_Source\PSoC4/ADC_SAR_Seq_1.c **** 
 194:.\Generated_Source\PSoC4/ADC_SAR_Seq_1.c ****             if((ADC_SAR_Seq_1_channelsConfig[chNum] & ADC_SAR_Seq_1_IS_RANGE_CTRL_EN_MASK) != 0u)
 204              		.loc 1 194 0
 205 00ae 7A68     		ldr	r2, [r7, #4]
 206 00b0 374B     		ldr	r3, .L17+64
 207 00b2 9200     		lsl	r2, r2, #2
 208 00b4 D258     		ldr	r2, [r2, r3]
 209 00b6 0223     		mov	r3, #2
 210 00b8 1340     		and	r3, r3, r2
 211 00ba 002B     		cmp	r3, #0
 212 00bc 0AD0     		beq	.L9
 195:.\Generated_Source\PSoC4/ADC_SAR_Seq_1.c ****             {
 196:.\Generated_Source\PSoC4/ADC_SAR_Seq_1.c ****                 ADC_SAR_Seq_1_SAR_RANGE_INTR_MASK_REG |= (uint16)((uint16)1 << chNum);
 213              		.loc 1 196 0
 214 00be 324B     		ldr	r3, .L17+56
 215 00c0 314A     		ldr	r2, .L17+56
 216 00c2 1168     		ldr	r1, [r2]
 217 00c4 7A68     		ldr	r2, [r7, #4]
 218 00c6 0120     		mov	r0, #1
 219 00c8 041C     		mov	r4, r0
 220 00ca 9440     		lsl	r4, r4, r2
 221 00cc 221C     		mov	r2, r4
 222 00ce 92B2     		uxth	r2, r2
 223 00d0 0A43     		orr	r2, r2, r1
 224 00d2 1A60     		str	r2, [r3]
 225              	.L9:
 197:.\Generated_Source\PSoC4/ADC_SAR_Seq_1.c ****             }
 198:.\Generated_Source\PSoC4/ADC_SAR_Seq_1.c ****         }
 199:.\Generated_Source\PSoC4/ADC_SAR_Seq_1.c ****         #if(ADC_SAR_Seq_1_INJ_CHANNEL_ENABLED)
 200:.\Generated_Source\PSoC4/ADC_SAR_Seq_1.c ****             else
 201:.\Generated_Source\PSoC4/ADC_SAR_Seq_1.c ****             {
 202:.\Generated_Source\PSoC4/ADC_SAR_Seq_1.c ****                 CY_SET_REG32(ADC_SAR_Seq_1_SAR_INJ_CHAN_CONFIG_PTR, tmpRegVal | ADC_SAR_Seq_1_INJ_T
 203:.\Generated_Source\PSoC4/ADC_SAR_Seq_1.c **** 
 204:.\Generated_Source\PSoC4/ADC_SAR_Seq_1.c ****                 if((ADC_SAR_Seq_1_channelsConfig[chNum] & ADC_SAR_Seq_1_IS_SATURATE_EN_MASK) != 0u)
 205:.\Generated_Source\PSoC4/ADC_SAR_Seq_1.c ****                 {
 206:.\Generated_Source\PSoC4/ADC_SAR_Seq_1.c ****                     ADC_SAR_Seq_1_SAR_INTR_MASK_REG |= ADC_SAR_Seq_1_INJ_SATURATE_MASK;
 207:.\Generated_Source\PSoC4/ADC_SAR_Seq_1.c ****                 }
 208:.\Generated_Source\PSoC4/ADC_SAR_Seq_1.c **** 
 209:.\Generated_Source\PSoC4/ADC_SAR_Seq_1.c ****                 if((ADC_SAR_Seq_1_channelsConfig[chNum] & ADC_SAR_Seq_1_IS_RANGE_CTRL_EN_MASK) != 0
 210:.\Generated_Source\PSoC4/ADC_SAR_Seq_1.c ****                 {
 211:.\Generated_Source\PSoC4/ADC_SAR_Seq_1.c ****                     ADC_SAR_Seq_1_SAR_INTR_MASK_REG |= ADC_SAR_Seq_1_INJ_RANGE_MASK;
 212:.\Generated_Source\PSoC4/ADC_SAR_Seq_1.c ****                 }
 213:.\Generated_Source\PSoC4/ADC_SAR_Seq_1.c ****             }
 214:.\Generated_Source\PSoC4/ADC_SAR_Seq_1.c ****         #endif /* ADC_SAR_Seq_1_INJ_CHANNEL_ENABLED */
 215:.\Generated_Source\PSoC4/ADC_SAR_Seq_1.c **** 
 216:.\Generated_Source\PSoC4/ADC_SAR_Seq_1.c ****         if((ADC_SAR_Seq_1_channelsConfig[chNum] & ADC_SAR_Seq_1_ALT_RESOLUTION_ON) != 0u)
 226              		.loc 1 216 0
 227 00d4 7A68     		ldr	r2, [r7, #4]
 228 00d6 2E4B     		ldr	r3, .L17+64
 229 00d8 9200     		lsl	r2, r2, #2
 230 00da D258     		ldr	r2, [r2, r3]
 231 00dc 8023     		mov	r3, #128
 232 00de 9B00     		lsl	r3, r3, #2
 233 00e0 1340     		and	r3, r3, r2
 234 00e2 002B     		cmp	r3, #0
 235 00e4 03D0     		beq	.L10
 217:.\Generated_Source\PSoC4/ADC_SAR_Seq_1.c ****         {
ARM GAS  C:\Users\maxk\AppData\Local\Temp\cco4JLBC.s 			page 9


 218:.\Generated_Source\PSoC4/ADC_SAR_Seq_1.c ****                counts = (int32)ADC_SAR_Seq_1_DEFAULT_MAX_WRK_ALT;
 236              		.loc 1 218 0
 237 00e6 8023     		mov	r3, #128
 238 00e8 5B00     		lsl	r3, r3, #1
 239 00ea FB60     		str	r3, [r7, #12]
 240 00ec 02E0     		b	.L11
 241              	.L10:
 219:.\Generated_Source\PSoC4/ADC_SAR_Seq_1.c ****         }
 220:.\Generated_Source\PSoC4/ADC_SAR_Seq_1.c ****         else
 221:.\Generated_Source\PSoC4/ADC_SAR_Seq_1.c ****         {
 222:.\Generated_Source\PSoC4/ADC_SAR_Seq_1.c ****                counts = (int32)ADC_SAR_Seq_1_SAR_WRK_MAX_12BIT;
 242              		.loc 1 222 0
 243 00ee 8023     		mov	r3, #128
 244 00f0 5B01     		lsl	r3, r3, #5
 245 00f2 FB60     		str	r3, [r7, #12]
 246              	.L11:
 223:.\Generated_Source\PSoC4/ADC_SAR_Seq_1.c ****         }
 224:.\Generated_Source\PSoC4/ADC_SAR_Seq_1.c **** 
 225:.\Generated_Source\PSoC4/ADC_SAR_Seq_1.c ****         if((ADC_SAR_Seq_1_channelsConfig[chNum] & ADC_SAR_Seq_1_DIFFERENTIAL_EN) == 0u)
 247              		.loc 1 225 0
 248 00f4 7A68     		ldr	r2, [r7, #4]
 249 00f6 264B     		ldr	r3, .L17+64
 250 00f8 9200     		lsl	r2, r2, #2
 251 00fa D258     		ldr	r2, [r2, r3]
 252 00fc 8023     		mov	r3, #128
 253 00fe 5B00     		lsl	r3, r3, #1
 254 0100 1340     		and	r3, r3, r2
 255 0102 002B     		cmp	r3, #0
 256 0104 05D1     		bne	.L12
 226:.\Generated_Source\PSoC4/ADC_SAR_Seq_1.c ****         {  
 227:.\Generated_Source\PSoC4/ADC_SAR_Seq_1.c ****             #if((ADC_SAR_Seq_1_DEFAULT_SE_RESULT_FORMAT_SEL == ADC_SAR_Seq_1__FSIGNED) && \
 228:.\Generated_Source\PSoC4/ADC_SAR_Seq_1.c ****                 (ADC_SAR_Seq_1_DEFAULT_NEG_INPUT_SEL == ADC_SAR_Seq_1__VREF))
 229:.\Generated_Source\PSoC4/ADC_SAR_Seq_1.c ****                 /* Set offset to the minus half scale to convert results to unsigned format */
 230:.\Generated_Source\PSoC4/ADC_SAR_Seq_1.c ****                 ADC_SAR_Seq_1_offset[chNum] = (int16)(counts / -2);
 231:.\Generated_Source\PSoC4/ADC_SAR_Seq_1.c ****             #else    
 232:.\Generated_Source\PSoC4/ADC_SAR_Seq_1.c ****                 ADC_SAR_Seq_1_offset[chNum] = 0;
 257              		.loc 1 232 0
 258 0106 7A68     		ldr	r2, [r7, #4]
 259 0108 234B     		ldr	r3, .L17+72
 260 010a 5200     		lsl	r2, r2, #1
 261 010c 0021     		mov	r1, #0
 262 010e D152     		strh	r1, [r2, r3]
 263 0110 04E0     		b	.L13
 264              	.L12:
 233:.\Generated_Source\PSoC4/ADC_SAR_Seq_1.c ****             #endif /* end DEFAULT_SE_RESULT_FORMAT_SEL == ADC_SAR_Seq_1__FSIGNED */    
 234:.\Generated_Source\PSoC4/ADC_SAR_Seq_1.c ****         }
 235:.\Generated_Source\PSoC4/ADC_SAR_Seq_1.c ****         else    /* Differential channel */
 236:.\Generated_Source\PSoC4/ADC_SAR_Seq_1.c ****         {
 237:.\Generated_Source\PSoC4/ADC_SAR_Seq_1.c ****             #if(ADC_SAR_Seq_1_DEFAULT_DIFF_RESULT_FORMAT_SEL == ADC_SAR_Seq_1__FUNSIGNED)
 238:.\Generated_Source\PSoC4/ADC_SAR_Seq_1.c ****                 /* Set offset to the half scale to convert results to signed format */
 239:.\Generated_Source\PSoC4/ADC_SAR_Seq_1.c ****                 ADC_SAR_Seq_1_offset[chNum] = (int16)(counts / 2);
 240:.\Generated_Source\PSoC4/ADC_SAR_Seq_1.c ****             #else    
 241:.\Generated_Source\PSoC4/ADC_SAR_Seq_1.c ****                 ADC_SAR_Seq_1_offset[chNum] = 0;
 265              		.loc 1 241 0
 266 0112 7A68     		ldr	r2, [r7, #4]
 267 0114 204B     		ldr	r3, .L17+72
 268 0116 5200     		lsl	r2, r2, #1
ARM GAS  C:\Users\maxk\AppData\Local\Temp\cco4JLBC.s 			page 10


 269 0118 0021     		mov	r1, #0
 270 011a D152     		strh	r1, [r2, r3]
 271              	.L13:
 242:.\Generated_Source\PSoC4/ADC_SAR_Seq_1.c ****             #endif /* end ADC_SAR_Seq_1_DEFAULT_DIFF_RESULT_FORMAT_SEL == ADC_SAR_Seq_1__FUNSIGNED 
 243:.\Generated_Source\PSoC4/ADC_SAR_Seq_1.c ****         }
 244:.\Generated_Source\PSoC4/ADC_SAR_Seq_1.c ****         /* Calculate gain in counts per 10 volts with rounding */
 245:.\Generated_Source\PSoC4/ADC_SAR_Seq_1.c ****         ADC_SAR_Seq_1_countsPer10Volt[chNum] = (int16)(((counts * ADC_SAR_Seq_1_10MV_COUNTS) + 
 272              		.loc 1 245 0
 273 011c 7A68     		ldr	r2, [r7, #4]
 274 011e FB68     		ldr	r3, [r7, #12]
 275 0120 1E49     		ldr	r1, .L17+76
 276 0122 4B43     		mul	r3, r1
 277 0124 8021     		mov	r1, #128
 278 0126 C900     		lsl	r1, r1, #3
 279 0128 5B18     		add	r3, r3, r1
 280 012a 002B     		cmp	r3, #0
 281 012c 01DA     		bge	.L14
 282 012e 1C4C     		ldr	r4, .L17+80
 283 0130 1B19     		add	r3, r3, r4
 284              	.L14:
 285 0132 DB12     		asr	r3, r3, #11
 286 0134 9BB2     		uxth	r3, r3
 287 0136 19B2     		sxth	r1, r3
 288 0138 1A4B     		ldr	r3, .L17+84
 289 013a 9200     		lsl	r2, r2, #2
 290 013c D150     		str	r1, [r2, r3]
 291              		.loc 1 169 0
 292 013e 7B68     		ldr	r3, [r7, #4]
 293 0140 0133     		add	r3, r3, #1
 294 0142 7B60     		str	r3, [r7, #4]
 295              	.L7:
 296 0144 7B68     		ldr	r3, [r7, #4]
 297 0146 002B     		cmp	r3, #0
 298 0148 8ED0     		beq	.L15
 246:.\Generated_Source\PSoC4/ADC_SAR_Seq_1.c ****                             ADC_SAR_Seq_1_DEFAULT_VREF_MV_VALUE) / (ADC_SAR_Seq_1_DEFAULT_VREF_MV_V
 247:.\Generated_Source\PSoC4/ADC_SAR_Seq_1.c ****     }
 248:.\Generated_Source\PSoC4/ADC_SAR_Seq_1.c **** }
 299              		.loc 1 248 0
 300 014a BD46     		mov	sp, r7
 301 014c 05B0     		add	sp, sp, #20
 302              		@ sp needed for prologue
 303 014e 90BD     		pop	{r4, r7, pc}
 304              	.L18:
 305              		.align	2
 306              	.L17:
 307 0150 00000000 		.word	ADC_SAR_Seq_1_ISR
 308 0154 20001A40 		.word	1075445792
 309 0158 00001A40 		.word	1075445760
 310 015c C0020053 		.word	1392509632
 311 0160 04001A40 		.word	1075445764
 312 0164 88000080 		.word	-2147483512
 313 0168 18001A40 		.word	1075445784
 314 016c 0000FF07 		.word	134152192
 315 0170 1C001A40 		.word	1075445788
 316 0174 10001A40 		.word	1075445776
 317 0178 04000400 		.word	262148
 318 017c 14001A40 		.word	1075445780
ARM GAS  C:\Users\maxk\AppData\Local\Temp\cco4JLBC.s 			page 11


 319 0180 00031A40 		.word	1075446528
 320 0184 28021A40 		.word	1075446312
 321 0188 38021A40 		.word	1075446328
 322 018c 18021A40 		.word	1075446296
 323 0190 00000000 		.word	ADC_SAR_Seq_1_channelsConfig
 324 0194 80001A40 		.word	1075445888
 325 0198 00000000 		.word	ADC_SAR_Seq_1_offset
 326 019c 10270000 		.word	10000
 327 01a0 FF070000 		.word	2047
 328 01a4 00000000 		.word	ADC_SAR_Seq_1_countsPer10Volt
 329              		.cfi_endproc
 330              	.LFE1:
 331              		.size	ADC_SAR_Seq_1_Init, .-ADC_SAR_Seq_1_Init
 332              		.section	.text.ADC_SAR_Seq_1_Enable,"ax",%progbits
 333              		.align	2
 334              		.global	ADC_SAR_Seq_1_Enable
 335              		.code	16
 336              		.thumb_func
 337              		.type	ADC_SAR_Seq_1_Enable, %function
 338              	ADC_SAR_Seq_1_Enable:
 339              	.LFB2:
 249:.\Generated_Source\PSoC4/ADC_SAR_Seq_1.c **** 
 250:.\Generated_Source\PSoC4/ADC_SAR_Seq_1.c **** /*******************************************************************************
 251:.\Generated_Source\PSoC4/ADC_SAR_Seq_1.c **** * Function Name: ADC_SAR_1_Enable
 252:.\Generated_Source\PSoC4/ADC_SAR_Seq_1.c **** ********************************************************************************
 253:.\Generated_Source\PSoC4/ADC_SAR_Seq_1.c **** *
 254:.\Generated_Source\PSoC4/ADC_SAR_Seq_1.c **** * Summary:
 255:.\Generated_Source\PSoC4/ADC_SAR_Seq_1.c **** *  Enables the clock and analog power for SAR ADC.
 256:.\Generated_Source\PSoC4/ADC_SAR_Seq_1.c **** *
 257:.\Generated_Source\PSoC4/ADC_SAR_Seq_1.c **** * Parameters:
 258:.\Generated_Source\PSoC4/ADC_SAR_Seq_1.c **** *  None.
 259:.\Generated_Source\PSoC4/ADC_SAR_Seq_1.c **** *
 260:.\Generated_Source\PSoC4/ADC_SAR_Seq_1.c **** * Return:
 261:.\Generated_Source\PSoC4/ADC_SAR_Seq_1.c **** *  None.
 262:.\Generated_Source\PSoC4/ADC_SAR_Seq_1.c **** *
 263:.\Generated_Source\PSoC4/ADC_SAR_Seq_1.c **** *******************************************************************************/
 264:.\Generated_Source\PSoC4/ADC_SAR_Seq_1.c **** void ADC_SAR_Seq_1_Enable(void)
 265:.\Generated_Source\PSoC4/ADC_SAR_Seq_1.c **** {
 340              		.loc 1 265 0
 341              		.cfi_startproc
 342 0000 80B5     		push	{r7, lr}
 343              	.LCFI5:
 344              		.cfi_def_cfa_offset 8
 345              		.cfi_offset 7, -8
 346              		.cfi_offset 14, -4
 347 0002 00AF     		add	r7, sp, #0
 348              	.LCFI6:
 349              		.cfi_def_cfa_register 7
 266:.\Generated_Source\PSoC4/ADC_SAR_Seq_1.c ****     ADC_SAR_Seq_1_SAR_CTRL_REG |= ADC_SAR_Seq_1_ENABLE;
 350              		.loc 1 266 0
 351 0004 054A     		ldr	r2, .L21
 352 0006 054B     		ldr	r3, .L21
 353 0008 1968     		ldr	r1, [r3]
 354 000a 8023     		mov	r3, #128
 355 000c 1B06     		lsl	r3, r3, #24
 356 000e 0B43     		orr	r3, r3, r1
 357 0010 1360     		str	r3, [r2]
ARM GAS  C:\Users\maxk\AppData\Local\Temp\cco4JLBC.s 			page 12


 267:.\Generated_Source\PSoC4/ADC_SAR_Seq_1.c ****     /* The block is ready to use 10 us after the enable signal is set high. */
 268:.\Generated_Source\PSoC4/ADC_SAR_Seq_1.c ****     CyDelayUs(ADC_SAR_Seq_1_10US_DELAY);
 358              		.loc 1 268 0
 359 0012 0A20     		mov	r0, #10
 360 0014 FFF7FEFF 		bl	CyDelayUs
 269:.\Generated_Source\PSoC4/ADC_SAR_Seq_1.c **** }
 361              		.loc 1 269 0
 362 0018 BD46     		mov	sp, r7
 363              		@ sp needed for prologue
 364 001a 80BD     		pop	{r7, pc}
 365              	.L22:
 366              		.align	2
 367              	.L21:
 368 001c 00001A40 		.word	1075445760
 369              		.cfi_endproc
 370              	.LFE2:
 371              		.size	ADC_SAR_Seq_1_Enable, .-ADC_SAR_Seq_1_Enable
 372              		.section	.text.ADC_SAR_Seq_1_Stop,"ax",%progbits
 373              		.align	2
 374              		.global	ADC_SAR_Seq_1_Stop
 375              		.code	16
 376              		.thumb_func
 377              		.type	ADC_SAR_Seq_1_Stop, %function
 378              	ADC_SAR_Seq_1_Stop:
 379              	.LFB3:
 270:.\Generated_Source\PSoC4/ADC_SAR_Seq_1.c **** 
 271:.\Generated_Source\PSoC4/ADC_SAR_Seq_1.c **** 
 272:.\Generated_Source\PSoC4/ADC_SAR_Seq_1.c **** /*******************************************************************************
 273:.\Generated_Source\PSoC4/ADC_SAR_Seq_1.c **** * Function Name: ADC_SAR_Seq_1_Stop
 274:.\Generated_Source\PSoC4/ADC_SAR_Seq_1.c **** ********************************************************************************
 275:.\Generated_Source\PSoC4/ADC_SAR_Seq_1.c **** *
 276:.\Generated_Source\PSoC4/ADC_SAR_Seq_1.c **** * Summary:
 277:.\Generated_Source\PSoC4/ADC_SAR_Seq_1.c **** *  This function stops ADC conversions and puts the ADC into its lowest power
 278:.\Generated_Source\PSoC4/ADC_SAR_Seq_1.c **** *  mode.
 279:.\Generated_Source\PSoC4/ADC_SAR_Seq_1.c **** *
 280:.\Generated_Source\PSoC4/ADC_SAR_Seq_1.c **** * Parameters:
 281:.\Generated_Source\PSoC4/ADC_SAR_Seq_1.c **** *  None.
 282:.\Generated_Source\PSoC4/ADC_SAR_Seq_1.c **** *
 283:.\Generated_Source\PSoC4/ADC_SAR_Seq_1.c **** * Return:
 284:.\Generated_Source\PSoC4/ADC_SAR_Seq_1.c **** *  None.
 285:.\Generated_Source\PSoC4/ADC_SAR_Seq_1.c **** *
 286:.\Generated_Source\PSoC4/ADC_SAR_Seq_1.c **** *******************************************************************************/
 287:.\Generated_Source\PSoC4/ADC_SAR_Seq_1.c **** void ADC_SAR_Seq_1_Stop(void)
 288:.\Generated_Source\PSoC4/ADC_SAR_Seq_1.c **** {
 380              		.loc 1 288 0
 381              		.cfi_startproc
 382 0000 80B5     		push	{r7, lr}
 383              	.LCFI7:
 384              		.cfi_def_cfa_offset 8
 385              		.cfi_offset 7, -8
 386              		.cfi_offset 14, -4
 387 0002 00AF     		add	r7, sp, #0
 388              	.LCFI8:
 389              		.cfi_def_cfa_register 7
 289:.\Generated_Source\PSoC4/ADC_SAR_Seq_1.c ****     ADC_SAR_Seq_1_SAR_CTRL_REG &= (uint32)~ADC_SAR_Seq_1_ENABLE;
 390              		.loc 1 289 0
 391 0004 034B     		ldr	r3, .L25
ARM GAS  C:\Users\maxk\AppData\Local\Temp\cco4JLBC.s 			page 13


 392 0006 034A     		ldr	r2, .L25
 393 0008 1268     		ldr	r2, [r2]
 394 000a 5200     		lsl	r2, r2, #1
 395 000c 5208     		lsr	r2, r2, #1
 396 000e 1A60     		str	r2, [r3]
 290:.\Generated_Source\PSoC4/ADC_SAR_Seq_1.c **** }
 397              		.loc 1 290 0
 398 0010 BD46     		mov	sp, r7
 399              		@ sp needed for prologue
 400 0012 80BD     		pop	{r7, pc}
 401              	.L26:
 402              		.align	2
 403              	.L25:
 404 0014 00001A40 		.word	1075445760
 405              		.cfi_endproc
 406              	.LFE3:
 407              		.size	ADC_SAR_Seq_1_Stop, .-ADC_SAR_Seq_1_Stop
 408              		.section	.text.ADC_SAR_Seq_1_StartConvert,"ax",%progbits
 409              		.align	2
 410              		.global	ADC_SAR_Seq_1_StartConvert
 411              		.code	16
 412              		.thumb_func
 413              		.type	ADC_SAR_Seq_1_StartConvert, %function
 414              	ADC_SAR_Seq_1_StartConvert:
 415              	.LFB4:
 291:.\Generated_Source\PSoC4/ADC_SAR_Seq_1.c **** 
 292:.\Generated_Source\PSoC4/ADC_SAR_Seq_1.c **** 
 293:.\Generated_Source\PSoC4/ADC_SAR_Seq_1.c **** /*******************************************************************************
 294:.\Generated_Source\PSoC4/ADC_SAR_Seq_1.c **** * Function Name: ADC_SAR_Seq_1_StartConvert
 295:.\Generated_Source\PSoC4/ADC_SAR_Seq_1.c **** ********************************************************************************
 296:.\Generated_Source\PSoC4/ADC_SAR_Seq_1.c **** *
 297:.\Generated_Source\PSoC4/ADC_SAR_Seq_1.c **** * Summary:
 298:.\Generated_Source\PSoC4/ADC_SAR_Seq_1.c **** *  Description:
 299:.\Generated_Source\PSoC4/ADC_SAR_Seq_1.c **** *  For free running mode, this API starts the conversion process and it
 300:.\Generated_Source\PSoC4/ADC_SAR_Seq_1.c **** *  runs continuously.
 301:.\Generated_Source\PSoC4/ADC_SAR_Seq_1.c **** *
 302:.\Generated_Source\PSoC4/ADC_SAR_Seq_1.c **** *  In a triggered mode, this routine triggers every conversion by
 303:.\Generated_Source\PSoC4/ADC_SAR_Seq_1.c **** *  writing into the FW_TRIGGER bit in SAR_START_CTRL reg. In triggered mode,
 304:.\Generated_Source\PSoC4/ADC_SAR_Seq_1.c **** *  every conversion has to start by this API.
 305:.\Generated_Source\PSoC4/ADC_SAR_Seq_1.c **** *
 306:.\Generated_Source\PSoC4/ADC_SAR_Seq_1.c **** * Parameters:
 307:.\Generated_Source\PSoC4/ADC_SAR_Seq_1.c **** *  None.
 308:.\Generated_Source\PSoC4/ADC_SAR_Seq_1.c **** *
 309:.\Generated_Source\PSoC4/ADC_SAR_Seq_1.c **** * Return:
 310:.\Generated_Source\PSoC4/ADC_SAR_Seq_1.c **** *  None.
 311:.\Generated_Source\PSoC4/ADC_SAR_Seq_1.c **** *
 312:.\Generated_Source\PSoC4/ADC_SAR_Seq_1.c **** *******************************************************************************/
 313:.\Generated_Source\PSoC4/ADC_SAR_Seq_1.c **** void ADC_SAR_Seq_1_StartConvert(void)
 314:.\Generated_Source\PSoC4/ADC_SAR_Seq_1.c **** {
 416              		.loc 1 314 0
 417              		.cfi_startproc
 418 0000 80B5     		push	{r7, lr}
 419              	.LCFI9:
 420              		.cfi_def_cfa_offset 8
 421              		.cfi_offset 7, -8
 422              		.cfi_offset 14, -4
 423 0002 00AF     		add	r7, sp, #0
ARM GAS  C:\Users\maxk\AppData\Local\Temp\cco4JLBC.s 			page 14


 424              	.LCFI10:
 425              		.cfi_def_cfa_register 7
 315:.\Generated_Source\PSoC4/ADC_SAR_Seq_1.c ****     #if(ADC_SAR_Seq_1_DEFAULT_SAMPLE_MODE_SEL == ADC_SAR_Seq_1__FREERUNNING)
 316:.\Generated_Source\PSoC4/ADC_SAR_Seq_1.c ****         ADC_SAR_Seq_1_SAR_SAMPLE_CTRL_REG |= ADC_SAR_Seq_1_CONTINUOUS_EN;
 426              		.loc 1 316 0
 427 0004 044A     		ldr	r2, .L29
 428 0006 044B     		ldr	r3, .L29
 429 0008 1968     		ldr	r1, [r3]
 430 000a 8023     		mov	r3, #128
 431 000c 5B02     		lsl	r3, r3, #9
 432 000e 0B43     		orr	r3, r3, r1
 433 0010 1360     		str	r3, [r2]
 317:.\Generated_Source\PSoC4/ADC_SAR_Seq_1.c ****     #else /* Firmware trigger */
 318:.\Generated_Source\PSoC4/ADC_SAR_Seq_1.c ****         ADC_SAR_Seq_1_SAR_START_CTRL_REG = ADC_SAR_Seq_1_FW_TRIGGER;
 319:.\Generated_Source\PSoC4/ADC_SAR_Seq_1.c ****     #endif /* End ADC_SAR_Seq_1_DEFAULT_SAMPLE_MODE == ADC_SAR_Seq_1__FREERUNNING */
 320:.\Generated_Source\PSoC4/ADC_SAR_Seq_1.c **** 
 321:.\Generated_Source\PSoC4/ADC_SAR_Seq_1.c **** }
 434              		.loc 1 321 0
 435 0012 BD46     		mov	sp, r7
 436              		@ sp needed for prologue
 437 0014 80BD     		pop	{r7, pc}
 438              	.L30:
 439 0016 C046     		.align	2
 440              	.L29:
 441 0018 04001A40 		.word	1075445764
 442              		.cfi_endproc
 443              	.LFE4:
 444              		.size	ADC_SAR_Seq_1_StartConvert, .-ADC_SAR_Seq_1_StartConvert
 445              		.section	.text.ADC_SAR_Seq_1_StopConvert,"ax",%progbits
 446              		.align	2
 447              		.global	ADC_SAR_Seq_1_StopConvert
 448              		.code	16
 449              		.thumb_func
 450              		.type	ADC_SAR_Seq_1_StopConvert, %function
 451              	ADC_SAR_Seq_1_StopConvert:
 452              	.LFB5:
 322:.\Generated_Source\PSoC4/ADC_SAR_Seq_1.c **** 
 323:.\Generated_Source\PSoC4/ADC_SAR_Seq_1.c **** 
 324:.\Generated_Source\PSoC4/ADC_SAR_Seq_1.c **** /*******************************************************************************
 325:.\Generated_Source\PSoC4/ADC_SAR_Seq_1.c **** * Function Name: ADC_SAR_Seq_1_StopConvert
 326:.\Generated_Source\PSoC4/ADC_SAR_Seq_1.c **** ********************************************************************************
 327:.\Generated_Source\PSoC4/ADC_SAR_Seq_1.c **** *
 328:.\Generated_Source\PSoC4/ADC_SAR_Seq_1.c **** * Summary:
 329:.\Generated_Source\PSoC4/ADC_SAR_Seq_1.c **** *  Forces the ADC to stop all conversions.
 330:.\Generated_Source\PSoC4/ADC_SAR_Seq_1.c **** *
 331:.\Generated_Source\PSoC4/ADC_SAR_Seq_1.c **** * Parameters:
 332:.\Generated_Source\PSoC4/ADC_SAR_Seq_1.c **** *  None.
 333:.\Generated_Source\PSoC4/ADC_SAR_Seq_1.c **** *
 334:.\Generated_Source\PSoC4/ADC_SAR_Seq_1.c **** * Return:
 335:.\Generated_Source\PSoC4/ADC_SAR_Seq_1.c **** *  None.
 336:.\Generated_Source\PSoC4/ADC_SAR_Seq_1.c **** *
 337:.\Generated_Source\PSoC4/ADC_SAR_Seq_1.c **** *******************************************************************************/
 338:.\Generated_Source\PSoC4/ADC_SAR_Seq_1.c **** void ADC_SAR_Seq_1_StopConvert(void)
 339:.\Generated_Source\PSoC4/ADC_SAR_Seq_1.c **** {
 453              		.loc 1 339 0
 454              		.cfi_startproc
 455 0000 80B5     		push	{r7, lr}
ARM GAS  C:\Users\maxk\AppData\Local\Temp\cco4JLBC.s 			page 15


 456              	.LCFI11:
 457              		.cfi_def_cfa_offset 8
 458              		.cfi_offset 7, -8
 459              		.cfi_offset 14, -4
 460 0002 00AF     		add	r7, sp, #0
 461              	.LCFI12:
 462              		.cfi_def_cfa_register 7
 340:.\Generated_Source\PSoC4/ADC_SAR_Seq_1.c ****     #if(ADC_SAR_Seq_1_DEFAULT_SAMPLE_MODE_SEL == ADC_SAR_Seq_1__FREERUNNING)
 341:.\Generated_Source\PSoC4/ADC_SAR_Seq_1.c ****         ADC_SAR_Seq_1_SAR_SAMPLE_CTRL_REG &= (uint32)(~ADC_SAR_Seq_1_CONTINUOUS_EN);
 463              		.loc 1 341 0
 464 0004 034B     		ldr	r3, .L33
 465 0006 034A     		ldr	r2, .L33
 466 0008 1168     		ldr	r1, [r2]
 467 000a 034A     		ldr	r2, .L33+4
 468 000c 0A40     		and	r2, r2, r1
 469 000e 1A60     		str	r2, [r3]
 342:.\Generated_Source\PSoC4/ADC_SAR_Seq_1.c ****     #endif /* ADC_SAR_Seq_1_DEFAULT_SAMPLE_MODE == ADC_SAR_Seq_1__FREERUNNING */
 343:.\Generated_Source\PSoC4/ADC_SAR_Seq_1.c **** }
 470              		.loc 1 343 0
 471 0010 BD46     		mov	sp, r7
 472              		@ sp needed for prologue
 473 0012 80BD     		pop	{r7, pc}
 474              	.L34:
 475              		.align	2
 476              	.L33:
 477 0014 04001A40 		.word	1075445764
 478 0018 FFFFFEFF 		.word	-65537
 479              		.cfi_endproc
 480              	.LFE5:
 481              		.size	ADC_SAR_Seq_1_StopConvert, .-ADC_SAR_Seq_1_StopConvert
 482              		.section	.text.ADC_SAR_Seq_1_IsEndConversion,"ax",%progbits
 483              		.align	2
 484              		.global	ADC_SAR_Seq_1_IsEndConversion
 485              		.code	16
 486              		.thumb_func
 487              		.type	ADC_SAR_Seq_1_IsEndConversion, %function
 488              	ADC_SAR_Seq_1_IsEndConversion:
 489              	.LFB6:
 344:.\Generated_Source\PSoC4/ADC_SAR_Seq_1.c **** 
 345:.\Generated_Source\PSoC4/ADC_SAR_Seq_1.c **** 
 346:.\Generated_Source\PSoC4/ADC_SAR_Seq_1.c **** /*******************************************************************************
 347:.\Generated_Source\PSoC4/ADC_SAR_Seq_1.c **** * Function Name: ADC_SAR_Seq_1_IsEndConversion
 348:.\Generated_Source\PSoC4/ADC_SAR_Seq_1.c **** ********************************************************************************
 349:.\Generated_Source\PSoC4/ADC_SAR_Seq_1.c **** *
 350:.\Generated_Source\PSoC4/ADC_SAR_Seq_1.c **** * Summary:
 351:.\Generated_Source\PSoC4/ADC_SAR_Seq_1.c **** *  Description: Checks for ADC end of conversion for the case one
 352:.\Generated_Source\PSoC4/ADC_SAR_Seq_1.c **** *  channel and end of scan for the case of multiple channels. It acts
 353:.\Generated_Source\PSoC4/ADC_SAR_Seq_1.c **** *  as a software version of the EOC. This function provides the
 354:.\Generated_Source\PSoC4/ADC_SAR_Seq_1.c **** *  programmer with two options. In one mode this function
 355:.\Generated_Source\PSoC4/ADC_SAR_Seq_1.c **** *  immediately returns with the conversion status. In the other mode,
 356:.\Generated_Source\PSoC4/ADC_SAR_Seq_1.c **** *  the function does not return (blocking) until the conversion has
 357:.\Generated_Source\PSoC4/ADC_SAR_Seq_1.c **** *  completed.
 358:.\Generated_Source\PSoC4/ADC_SAR_Seq_1.c **** *
 359:.\Generated_Source\PSoC4/ADC_SAR_Seq_1.c **** * Parameters:
 360:.\Generated_Source\PSoC4/ADC_SAR_Seq_1.c **** *  ADC_RETURN_STATUS        -> Immediately returns conversion result status
 361:.\Generated_Source\PSoC4/ADC_SAR_Seq_1.c **** *  ADC_WAIT_FOR_RESULT      -> Does not return until ADC complete
 362:.\Generated_Source\PSoC4/ADC_SAR_Seq_1.c **** *  ADC_RETURN_STATUS_INJ    -> Immediately returns conversion result status
ARM GAS  C:\Users\maxk\AppData\Local\Temp\cco4JLBC.s 			page 16


 363:.\Generated_Source\PSoC4/ADC_SAR_Seq_1.c **** *                              for injection channel
 364:.\Generated_Source\PSoC4/ADC_SAR_Seq_1.c **** *  ADC_WAIT_FOR_RESULT_INJ  -> Does not return until ADC completes injection
 365:.\Generated_Source\PSoC4/ADC_SAR_Seq_1.c **** *                              channel conversion
 366:.\Generated_Source\PSoC4/ADC_SAR_Seq_1.c **** *
 367:.\Generated_Source\PSoC4/ADC_SAR_Seq_1.c **** * Return:
 368:.\Generated_Source\PSoC4/ADC_SAR_Seq_1.c **** *  If a non-zero value is returned, the last conversion or scan has completed.
 369:.\Generated_Source\PSoC4/ADC_SAR_Seq_1.c **** *  If the returned value is zero, the ADC is still in the process of a scan.
 370:.\Generated_Source\PSoC4/ADC_SAR_Seq_1.c **** *
 371:.\Generated_Source\PSoC4/ADC_SAR_Seq_1.c **** *******************************************************************************/
 372:.\Generated_Source\PSoC4/ADC_SAR_Seq_1.c **** uint32 ADC_SAR_Seq_1_IsEndConversion(uint32 retMode)
 373:.\Generated_Source\PSoC4/ADC_SAR_Seq_1.c **** {
 490              		.loc 1 373 0
 491              		.cfi_startproc
 492 0000 80B5     		push	{r7, lr}
 493              	.LCFI13:
 494              		.cfi_def_cfa_offset 8
 495              		.cfi_offset 7, -8
 496              		.cfi_offset 14, -4
 497 0002 84B0     		sub	sp, sp, #16
 498              	.LCFI14:
 499              		.cfi_def_cfa_offset 24
 500 0004 00AF     		add	r7, sp, #0
 501              	.LCFI15:
 502              		.cfi_def_cfa_register 7
 503 0006 7860     		str	r0, [r7, #4]
 374:.\Generated_Source\PSoC4/ADC_SAR_Seq_1.c ****     uint32 status = 0u;
 504              		.loc 1 374 0
 505 0008 0023     		mov	r3, #0
 506 000a FB60     		str	r3, [r7, #12]
 375:.\Generated_Source\PSoC4/ADC_SAR_Seq_1.c **** 
 376:.\Generated_Source\PSoC4/ADC_SAR_Seq_1.c ****     if((retMode & (ADC_SAR_Seq_1_RETURN_STATUS | ADC_SAR_Seq_1_WAIT_FOR_RESULT)) != 0u)
 507              		.loc 1 376 0
 508 000c 7A68     		ldr	r2, [r7, #4]
 509 000e 0323     		mov	r3, #3
 510 0010 1340     		and	r3, r3, r2
 511 0012 002B     		cmp	r3, #0
 512 0014 12D0     		beq	.L36
 513              	.L38:
 377:.\Generated_Source\PSoC4/ADC_SAR_Seq_1.c ****     {
 378:.\Generated_Source\PSoC4/ADC_SAR_Seq_1.c ****         do
 379:.\Generated_Source\PSoC4/ADC_SAR_Seq_1.c ****         {
 380:.\Generated_Source\PSoC4/ADC_SAR_Seq_1.c ****             status = ADC_SAR_Seq_1_SAR_INTR_REG & ADC_SAR_Seq_1_EOS_MASK;
 514              		.loc 1 380 0
 515 0016 0C4B     		ldr	r3, .L40
 516 0018 1A68     		ldr	r2, [r3]
 517 001a 0123     		mov	r3, #1
 518 001c 1340     		and	r3, r3, r2
 519 001e FB60     		str	r3, [r7, #12]
 381:.\Generated_Source\PSoC4/ADC_SAR_Seq_1.c ****         }while((status == 0u) && ((retMode & ADC_SAR_Seq_1_WAIT_FOR_RESULT) != 0u));
 520              		.loc 1 381 0
 521 0020 FB68     		ldr	r3, [r7, #12]
 522 0022 002B     		cmp	r3, #0
 523 0024 04D1     		bne	.L37
 524 0026 7A68     		ldr	r2, [r7, #4]
 525 0028 0223     		mov	r3, #2
 526 002a 1340     		and	r3, r3, r2
 527 002c 002B     		cmp	r3, #0
ARM GAS  C:\Users\maxk\AppData\Local\Temp\cco4JLBC.s 			page 17


 528 002e F2D1     		bne	.L38
 529              	.L37:
 382:.\Generated_Source\PSoC4/ADC_SAR_Seq_1.c **** 
 383:.\Generated_Source\PSoC4/ADC_SAR_Seq_1.c ****         if(status != 0u)
 530              		.loc 1 383 0
 531 0030 FB68     		ldr	r3, [r7, #12]
 532 0032 002B     		cmp	r3, #0
 533 0034 02D0     		beq	.L36
 384:.\Generated_Source\PSoC4/ADC_SAR_Seq_1.c ****         {
 385:.\Generated_Source\PSoC4/ADC_SAR_Seq_1.c ****             /* Clear EOS bit */
 386:.\Generated_Source\PSoC4/ADC_SAR_Seq_1.c ****             ADC_SAR_Seq_1_SAR_INTR_REG = ADC_SAR_Seq_1_EOS_MASK;
 534              		.loc 1 386 0
 535 0036 044B     		ldr	r3, .L40
 536 0038 0122     		mov	r2, #1
 537 003a 1A60     		str	r2, [r3]
 538              	.L36:
 387:.\Generated_Source\PSoC4/ADC_SAR_Seq_1.c ****         }
 388:.\Generated_Source\PSoC4/ADC_SAR_Seq_1.c ****     }
 389:.\Generated_Source\PSoC4/ADC_SAR_Seq_1.c **** 
 390:.\Generated_Source\PSoC4/ADC_SAR_Seq_1.c ****     #if(ADC_SAR_Seq_1_INJ_CHANNEL_ENABLED)
 391:.\Generated_Source\PSoC4/ADC_SAR_Seq_1.c ****         if((retMode & (ADC_SAR_Seq_1_RETURN_STATUS_INJ | ADC_SAR_Seq_1_WAIT_FOR_RESULT_INJ)) != 0u)
 392:.\Generated_Source\PSoC4/ADC_SAR_Seq_1.c ****         {
 393:.\Generated_Source\PSoC4/ADC_SAR_Seq_1.c ****             do
 394:.\Generated_Source\PSoC4/ADC_SAR_Seq_1.c ****             {
 395:.\Generated_Source\PSoC4/ADC_SAR_Seq_1.c ****                 status |= ADC_SAR_Seq_1_SAR_INTR_REG & ADC_SAR_Seq_1_INJ_EOC_MASK;
 396:.\Generated_Source\PSoC4/ADC_SAR_Seq_1.c ****             }while(((status & ADC_SAR_Seq_1_INJ_EOC_MASK) != 0u) &&
 397:.\Generated_Source\PSoC4/ADC_SAR_Seq_1.c ****                    ((retMode & ADC_SAR_Seq_1_WAIT_FOR_RESULT_INJ) != 0u));
 398:.\Generated_Source\PSoC4/ADC_SAR_Seq_1.c **** 
 399:.\Generated_Source\PSoC4/ADC_SAR_Seq_1.c ****             if((status & ADC_SAR_Seq_1_INJ_EOC_MASK) != 0u)
 400:.\Generated_Source\PSoC4/ADC_SAR_Seq_1.c ****             {
 401:.\Generated_Source\PSoC4/ADC_SAR_Seq_1.c ****                 /* Clear Injection EOS bit */
 402:.\Generated_Source\PSoC4/ADC_SAR_Seq_1.c ****                 ADC_SAR_Seq_1_SAR_INTR_REG = ADC_SAR_Seq_1_INJ_EOC_MASK;
 403:.\Generated_Source\PSoC4/ADC_SAR_Seq_1.c ****             }
 404:.\Generated_Source\PSoC4/ADC_SAR_Seq_1.c ****         }
 405:.\Generated_Source\PSoC4/ADC_SAR_Seq_1.c ****     #endif /* ADC_SAR_Seq_1_INJ_CHANNEL_ENABLED */
 406:.\Generated_Source\PSoC4/ADC_SAR_Seq_1.c **** 
 407:.\Generated_Source\PSoC4/ADC_SAR_Seq_1.c ****     return (status);
 539              		.loc 1 407 0
 540 003c FB68     		ldr	r3, [r7, #12]
 408:.\Generated_Source\PSoC4/ADC_SAR_Seq_1.c **** }
 541              		.loc 1 408 0
 542 003e 181C     		mov	r0, r3
 543 0040 BD46     		mov	sp, r7
 544 0042 04B0     		add	sp, sp, #16
 545              		@ sp needed for prologue
 546 0044 80BD     		pop	{r7, pc}
 547              	.L41:
 548 0046 C046     		.align	2
 549              	.L40:
 550 0048 10021A40 		.word	1075446288
 551              		.cfi_endproc
 552              	.LFE6:
 553              		.size	ADC_SAR_Seq_1_IsEndConversion, .-ADC_SAR_Seq_1_IsEndConversion
 554              		.section	.text.ADC_SAR_Seq_1_GetResult16,"ax",%progbits
 555              		.align	2
 556              		.global	ADC_SAR_Seq_1_GetResult16
 557              		.code	16
ARM GAS  C:\Users\maxk\AppData\Local\Temp\cco4JLBC.s 			page 18


 558              		.thumb_func
 559              		.type	ADC_SAR_Seq_1_GetResult16, %function
 560              	ADC_SAR_Seq_1_GetResult16:
 561              	.LFB7:
 409:.\Generated_Source\PSoC4/ADC_SAR_Seq_1.c **** 
 410:.\Generated_Source\PSoC4/ADC_SAR_Seq_1.c **** 
 411:.\Generated_Source\PSoC4/ADC_SAR_Seq_1.c **** /*******************************************************************************
 412:.\Generated_Source\PSoC4/ADC_SAR_Seq_1.c **** * Function Name: ADC_SAR_Seq_1_GetResult16
 413:.\Generated_Source\PSoC4/ADC_SAR_Seq_1.c **** ********************************************************************************
 414:.\Generated_Source\PSoC4/ADC_SAR_Seq_1.c **** *
 415:.\Generated_Source\PSoC4/ADC_SAR_Seq_1.c **** * Summary:
 416:.\Generated_Source\PSoC4/ADC_SAR_Seq_1.c **** *  Gets the data available in the SAR DATA register.
 417:.\Generated_Source\PSoC4/ADC_SAR_Seq_1.c **** *
 418:.\Generated_Source\PSoC4/ADC_SAR_Seq_1.c **** * Parameters:
 419:.\Generated_Source\PSoC4/ADC_SAR_Seq_1.c **** *  chan: The ADC channel in which to return the result. The first channel
 420:.\Generated_Source\PSoC4/ADC_SAR_Seq_1.c **** *  is 0 and the injection channel if enabled is the number of valid channels.
 421:.\Generated_Source\PSoC4/ADC_SAR_Seq_1.c **** *
 422:.\Generated_Source\PSoC4/ADC_SAR_Seq_1.c **** * Return:
 423:.\Generated_Source\PSoC4/ADC_SAR_Seq_1.c **** *  Returns converted data as a signed 16-bit integer
 424:.\Generated_Source\PSoC4/ADC_SAR_Seq_1.c **** *
 425:.\Generated_Source\PSoC4/ADC_SAR_Seq_1.c **** *******************************************************************************/
 426:.\Generated_Source\PSoC4/ADC_SAR_Seq_1.c **** int16 ADC_SAR_Seq_1_GetResult16(uint32 chan)
 427:.\Generated_Source\PSoC4/ADC_SAR_Seq_1.c **** {
 562              		.loc 1 427 0
 563              		.cfi_startproc
 564 0000 80B5     		push	{r7, lr}
 565              	.LCFI16:
 566              		.cfi_def_cfa_offset 8
 567              		.cfi_offset 7, -8
 568              		.cfi_offset 14, -4
 569 0002 84B0     		sub	sp, sp, #16
 570              	.LCFI17:
 571              		.cfi_def_cfa_offset 24
 572 0004 00AF     		add	r7, sp, #0
 573              	.LCFI18:
 574              		.cfi_def_cfa_register 7
 575 0006 7860     		str	r0, [r7, #4]
 428:.\Generated_Source\PSoC4/ADC_SAR_Seq_1.c ****     uint32 result;
 429:.\Generated_Source\PSoC4/ADC_SAR_Seq_1.c **** 
 430:.\Generated_Source\PSoC4/ADC_SAR_Seq_1.c ****     /* Halt CPU in debug mode if channel is out of valid range */
 431:.\Generated_Source\PSoC4/ADC_SAR_Seq_1.c ****     CYASSERT(chan < ADC_SAR_Seq_1_TOTAL_CHANNELS_NUM);
 576              		.loc 1 431 0
 577 0008 7B68     		ldr	r3, [r7, #4]
 578 000a 002B     		cmp	r3, #0
 579 000c 02D0     		beq	.L43
 580 000e 0020     		mov	r0, #0
 581 0010 FFF7FEFF 		bl	CyHalt
 582              	.L43:
 432:.\Generated_Source\PSoC4/ADC_SAR_Seq_1.c **** 
 433:.\Generated_Source\PSoC4/ADC_SAR_Seq_1.c ****     if(chan < ADC_SAR_Seq_1_SEQUENCED_CHANNELS_NUM)
 583              		.loc 1 433 0
 584 0014 7B68     		ldr	r3, [r7, #4]
 585 0016 002B     		cmp	r3, #0
 586 0018 08D1     		bne	.L44
 434:.\Generated_Source\PSoC4/ADC_SAR_Seq_1.c ****     {
 435:.\Generated_Source\PSoC4/ADC_SAR_Seq_1.c ****         result = CY_GET_REG32((reg32 *)(ADC_SAR_Seq_1_SAR_CHAN_RESULT_IND + (uint32)(chan << 2u))) 
 587              		.loc 1 435 0
ARM GAS  C:\Users\maxk\AppData\Local\Temp\cco4JLBC.s 			page 19


 588 001a 7B68     		ldr	r3, [r7, #4]
 589 001c 9B00     		lsl	r3, r3, #2
 590 001e 084A     		ldr	r2, .L47
 591 0020 9B18     		add	r3, r3, r2
 592 0022 1B68     		ldr	r3, [r3]
 593 0024 1B04     		lsl	r3, r3, #16
 594 0026 1B0C     		lsr	r3, r3, #16
 595 0028 FB60     		str	r3, [r7, #12]
 596 002a 01E0     		b	.L45
 597              	.L44:
 436:.\Generated_Source\PSoC4/ADC_SAR_Seq_1.c ****                 ADC_SAR_Seq_1_RESULT_MASK;
 437:.\Generated_Source\PSoC4/ADC_SAR_Seq_1.c ****     }
 438:.\Generated_Source\PSoC4/ADC_SAR_Seq_1.c ****     else
 439:.\Generated_Source\PSoC4/ADC_SAR_Seq_1.c ****     {
 440:.\Generated_Source\PSoC4/ADC_SAR_Seq_1.c ****         #if(ADC_SAR_Seq_1_INJ_CHANNEL_ENABLED)
 441:.\Generated_Source\PSoC4/ADC_SAR_Seq_1.c ****             result = ADC_SAR_Seq_1_SAR_INJ_RESULT_REG & ADC_SAR_Seq_1_RESULT_MASK;
 442:.\Generated_Source\PSoC4/ADC_SAR_Seq_1.c ****         #else
 443:.\Generated_Source\PSoC4/ADC_SAR_Seq_1.c ****             result = 0u;
 598              		.loc 1 443 0
 599 002c 0023     		mov	r3, #0
 600 002e FB60     		str	r3, [r7, #12]
 601              	.L45:
 444:.\Generated_Source\PSoC4/ADC_SAR_Seq_1.c ****         #endif /* ADC_SAR_Seq_1_INJ_CHANNEL_ENABLED */
 445:.\Generated_Source\PSoC4/ADC_SAR_Seq_1.c ****     }
 446:.\Generated_Source\PSoC4/ADC_SAR_Seq_1.c **** 
 447:.\Generated_Source\PSoC4/ADC_SAR_Seq_1.c ****     return ( (int16)result );
 602              		.loc 1 447 0
 603 0030 FB68     		ldr	r3, [r7, #12]
 604 0032 9BB2     		uxth	r3, r3
 605 0034 1BB2     		sxth	r3, r3
 448:.\Generated_Source\PSoC4/ADC_SAR_Seq_1.c **** }
 606              		.loc 1 448 0
 607 0036 181C     		mov	r0, r3
 608 0038 BD46     		mov	sp, r7
 609 003a 04B0     		add	sp, sp, #16
 610              		@ sp needed for prologue
 611 003c 80BD     		pop	{r7, pc}
 612              	.L48:
 613 003e C046     		.align	2
 614              	.L47:
 615 0040 80011A40 		.word	1075446144
 616              		.cfi_endproc
 617              	.LFE7:
 618              		.size	ADC_SAR_Seq_1_GetResult16, .-ADC_SAR_Seq_1_GetResult16
 619              		.section	.text.ADC_SAR_Seq_1_SetChanMask,"ax",%progbits
 620              		.align	2
 621              		.global	ADC_SAR_Seq_1_SetChanMask
 622              		.code	16
 623              		.thumb_func
 624              		.type	ADC_SAR_Seq_1_SetChanMask, %function
 625              	ADC_SAR_Seq_1_SetChanMask:
 626              	.LFB8:
 449:.\Generated_Source\PSoC4/ADC_SAR_Seq_1.c **** 
 450:.\Generated_Source\PSoC4/ADC_SAR_Seq_1.c **** 
 451:.\Generated_Source\PSoC4/ADC_SAR_Seq_1.c **** /*******************************************************************************
 452:.\Generated_Source\PSoC4/ADC_SAR_Seq_1.c **** * Function Name: ADC_SAR_Seq_1_SetChanMask
 453:.\Generated_Source\PSoC4/ADC_SAR_Seq_1.c **** ********************************************************************************
ARM GAS  C:\Users\maxk\AppData\Local\Temp\cco4JLBC.s 			page 20


 454:.\Generated_Source\PSoC4/ADC_SAR_Seq_1.c **** *
 455:.\Generated_Source\PSoC4/ADC_SAR_Seq_1.c **** * Summary:
 456:.\Generated_Source\PSoC4/ADC_SAR_Seq_1.c **** *  Sets the channel enable mask.
 457:.\Generated_Source\PSoC4/ADC_SAR_Seq_1.c **** *
 458:.\Generated_Source\PSoC4/ADC_SAR_Seq_1.c **** * Parameters:
 459:.\Generated_Source\PSoC4/ADC_SAR_Seq_1.c **** *  mask: Sets which channels that will be
 460:.\Generated_Source\PSoC4/ADC_SAR_Seq_1.c **** *  scanned. Setting bits for channels that do not exist will have no
 461:.\Generated_Source\PSoC4/ADC_SAR_Seq_1.c **** *  effect. For example, if only 6 channels were enabled, setting a
 462:.\Generated_Source\PSoC4/ADC_SAR_Seq_1.c **** *  mask of 0x0103 would only enable the last two channels (0 and 1).
 463:.\Generated_Source\PSoC4/ADC_SAR_Seq_1.c **** *  This API will not enable the injection channel.
 464:.\Generated_Source\PSoC4/ADC_SAR_Seq_1.c **** *  Examples: If the component is setup to sequence through 8
 465:.\Generated_Source\PSoC4/ADC_SAR_Seq_1.c **** *  channels, a mask of 0x000F would enable channels 0, 1, 2, and 3.
 466:.\Generated_Source\PSoC4/ADC_SAR_Seq_1.c **** *
 467:.\Generated_Source\PSoC4/ADC_SAR_Seq_1.c **** * Return:
 468:.\Generated_Source\PSoC4/ADC_SAR_Seq_1.c **** *  None.
 469:.\Generated_Source\PSoC4/ADC_SAR_Seq_1.c **** *
 470:.\Generated_Source\PSoC4/ADC_SAR_Seq_1.c **** *******************************************************************************/
 471:.\Generated_Source\PSoC4/ADC_SAR_Seq_1.c **** void ADC_SAR_Seq_1_SetChanMask(uint32 mask)
 472:.\Generated_Source\PSoC4/ADC_SAR_Seq_1.c **** {
 627              		.loc 1 472 0
 628              		.cfi_startproc
 629 0000 80B5     		push	{r7, lr}
 630              	.LCFI19:
 631              		.cfi_def_cfa_offset 8
 632              		.cfi_offset 7, -8
 633              		.cfi_offset 14, -4
 634 0002 82B0     		sub	sp, sp, #8
 635              	.LCFI20:
 636              		.cfi_def_cfa_offset 16
 637 0004 00AF     		add	r7, sp, #0
 638              	.LCFI21:
 639              		.cfi_def_cfa_register 7
 640 0006 7860     		str	r0, [r7, #4]
 473:.\Generated_Source\PSoC4/ADC_SAR_Seq_1.c ****     ADC_SAR_Seq_1_SAR_CHAN_EN_REG = mask & ADC_SAR_Seq_1_MAX_CHANNELS_EN_MASK;
 641              		.loc 1 473 0
 642 0008 034B     		ldr	r3, .L51
 643 000a 7968     		ldr	r1, [r7, #4]
 644 000c 0122     		mov	r2, #1
 645 000e 0A40     		and	r2, r2, r1
 646 0010 1A60     		str	r2, [r3]
 474:.\Generated_Source\PSoC4/ADC_SAR_Seq_1.c **** }
 647              		.loc 1 474 0
 648 0012 BD46     		mov	sp, r7
 649 0014 02B0     		add	sp, sp, #8
 650              		@ sp needed for prologue
 651 0016 80BD     		pop	{r7, pc}
 652              	.L52:
 653              		.align	2
 654              	.L51:
 655 0018 20001A40 		.word	1075445792
 656              		.cfi_endproc
 657              	.LFE8:
 658              		.size	ADC_SAR_Seq_1_SetChanMask, .-ADC_SAR_Seq_1_SetChanMask
 659              		.section	.text.ADC_SAR_Seq_1_SetLowLimit,"ax",%progbits
 660              		.align	2
 661              		.global	ADC_SAR_Seq_1_SetLowLimit
 662              		.code	16
ARM GAS  C:\Users\maxk\AppData\Local\Temp\cco4JLBC.s 			page 21


 663              		.thumb_func
 664              		.type	ADC_SAR_Seq_1_SetLowLimit, %function
 665              	ADC_SAR_Seq_1_SetLowLimit:
 666              	.LFB9:
 475:.\Generated_Source\PSoC4/ADC_SAR_Seq_1.c **** 
 476:.\Generated_Source\PSoC4/ADC_SAR_Seq_1.c **** #if(ADC_SAR_Seq_1_INJ_CHANNEL_ENABLED)
 477:.\Generated_Source\PSoC4/ADC_SAR_Seq_1.c **** 
 478:.\Generated_Source\PSoC4/ADC_SAR_Seq_1.c **** 
 479:.\Generated_Source\PSoC4/ADC_SAR_Seq_1.c ****     /*******************************************************************************
 480:.\Generated_Source\PSoC4/ADC_SAR_Seq_1.c ****     * Function Name: ADC_SAR_Seq_1_EnableInjection
 481:.\Generated_Source\PSoC4/ADC_SAR_Seq_1.c ****     ********************************************************************************
 482:.\Generated_Source\PSoC4/ADC_SAR_Seq_1.c ****     *
 483:.\Generated_Source\PSoC4/ADC_SAR_Seq_1.c ****     * Summary:
 484:.\Generated_Source\PSoC4/ADC_SAR_Seq_1.c ****     *  Enables the injection channel for the next scan only.
 485:.\Generated_Source\PSoC4/ADC_SAR_Seq_1.c ****     *
 486:.\Generated_Source\PSoC4/ADC_SAR_Seq_1.c ****     * Parameters:
 487:.\Generated_Source\PSoC4/ADC_SAR_Seq_1.c ****     *  None.
 488:.\Generated_Source\PSoC4/ADC_SAR_Seq_1.c ****     *
 489:.\Generated_Source\PSoC4/ADC_SAR_Seq_1.c ****     * Return:
 490:.\Generated_Source\PSoC4/ADC_SAR_Seq_1.c ****     *  None.
 491:.\Generated_Source\PSoC4/ADC_SAR_Seq_1.c ****     *
 492:.\Generated_Source\PSoC4/ADC_SAR_Seq_1.c ****     *******************************************************************************/
 493:.\Generated_Source\PSoC4/ADC_SAR_Seq_1.c ****     void ADC_SAR_Seq_1_EnableInjection(void)
 494:.\Generated_Source\PSoC4/ADC_SAR_Seq_1.c ****     {
 495:.\Generated_Source\PSoC4/ADC_SAR_Seq_1.c ****         ADC_SAR_Seq_1_SAR_INJ_CHAN_CONFIG_REG |= ADC_SAR_Seq_1_INJ_CHAN_EN;
 496:.\Generated_Source\PSoC4/ADC_SAR_Seq_1.c ****     }
 497:.\Generated_Source\PSoC4/ADC_SAR_Seq_1.c **** 
 498:.\Generated_Source\PSoC4/ADC_SAR_Seq_1.c **** #endif /* ADC_SAR_Seq_1_INJ_CHANNEL_ENABLED */
 499:.\Generated_Source\PSoC4/ADC_SAR_Seq_1.c **** 
 500:.\Generated_Source\PSoC4/ADC_SAR_Seq_1.c **** 
 501:.\Generated_Source\PSoC4/ADC_SAR_Seq_1.c **** /*******************************************************************************
 502:.\Generated_Source\PSoC4/ADC_SAR_Seq_1.c **** * Function Name: ADC_SAR_Seq_1_SetLowLimit
 503:.\Generated_Source\PSoC4/ADC_SAR_Seq_1.c **** ********************************************************************************
 504:.\Generated_Source\PSoC4/ADC_SAR_Seq_1.c **** *
 505:.\Generated_Source\PSoC4/ADC_SAR_Seq_1.c **** * Summary:
 506:.\Generated_Source\PSoC4/ADC_SAR_Seq_1.c **** *  Sets the low limit parameter for a limit condition.
 507:.\Generated_Source\PSoC4/ADC_SAR_Seq_1.c **** *
 508:.\Generated_Source\PSoC4/ADC_SAR_Seq_1.c **** * Parameters:
 509:.\Generated_Source\PSoC4/ADC_SAR_Seq_1.c **** *  lowLimit: The low limit for a limit condition.
 510:.\Generated_Source\PSoC4/ADC_SAR_Seq_1.c **** *
 511:.\Generated_Source\PSoC4/ADC_SAR_Seq_1.c **** * Return:
 512:.\Generated_Source\PSoC4/ADC_SAR_Seq_1.c **** *  None.
 513:.\Generated_Source\PSoC4/ADC_SAR_Seq_1.c **** *
 514:.\Generated_Source\PSoC4/ADC_SAR_Seq_1.c **** *******************************************************************************/
 515:.\Generated_Source\PSoC4/ADC_SAR_Seq_1.c **** void ADC_SAR_Seq_1_SetLowLimit(uint32 lowLimit)
 516:.\Generated_Source\PSoC4/ADC_SAR_Seq_1.c **** {
 667              		.loc 1 516 0
 668              		.cfi_startproc
 669 0000 80B5     		push	{r7, lr}
 670              	.LCFI22:
 671              		.cfi_def_cfa_offset 8
 672              		.cfi_offset 7, -8
 673              		.cfi_offset 14, -4
 674 0002 82B0     		sub	sp, sp, #8
 675              	.LCFI23:
 676              		.cfi_def_cfa_offset 16
 677 0004 00AF     		add	r7, sp, #0
ARM GAS  C:\Users\maxk\AppData\Local\Temp\cco4JLBC.s 			page 22


 678              	.LCFI24:
 679              		.cfi_def_cfa_register 7
 680 0006 7860     		str	r0, [r7, #4]
 517:.\Generated_Source\PSoC4/ADC_SAR_Seq_1.c ****     ADC_SAR_Seq_1_SAR_RANGE_THRES_REG &= (uint32)(~ADC_SAR_Seq_1_RANGE_LOW_MASK);
 681              		.loc 1 517 0
 682 0008 084B     		ldr	r3, .L55
 683 000a 084A     		ldr	r2, .L55
 684 000c 1268     		ldr	r2, [r2]
 685 000e 120C     		lsr	r2, r2, #16
 686 0010 1204     		lsl	r2, r2, #16
 687 0012 1A60     		str	r2, [r3]
 518:.\Generated_Source\PSoC4/ADC_SAR_Seq_1.c ****     ADC_SAR_Seq_1_SAR_RANGE_THRES_REG |= lowLimit & ADC_SAR_Seq_1_RANGE_LOW_MASK;
 688              		.loc 1 518 0
 689 0014 054B     		ldr	r3, .L55
 690 0016 054A     		ldr	r2, .L55
 691 0018 1168     		ldr	r1, [r2]
 692 001a 7A68     		ldr	r2, [r7, #4]
 693 001c 1204     		lsl	r2, r2, #16
 694 001e 120C     		lsr	r2, r2, #16
 695 0020 0A43     		orr	r2, r2, r1
 696 0022 1A60     		str	r2, [r3]
 519:.\Generated_Source\PSoC4/ADC_SAR_Seq_1.c **** }
 697              		.loc 1 519 0
 698 0024 BD46     		mov	sp, r7
 699 0026 02B0     		add	sp, sp, #8
 700              		@ sp needed for prologue
 701 0028 80BD     		pop	{r7, pc}
 702              	.L56:
 703 002a C046     		.align	2
 704              	.L55:
 705 002c 18001A40 		.word	1075445784
 706              		.cfi_endproc
 707              	.LFE9:
 708              		.size	ADC_SAR_Seq_1_SetLowLimit, .-ADC_SAR_Seq_1_SetLowLimit
 709              		.section	.text.ADC_SAR_Seq_1_SetHighLimit,"ax",%progbits
 710              		.align	2
 711              		.global	ADC_SAR_Seq_1_SetHighLimit
 712              		.code	16
 713              		.thumb_func
 714              		.type	ADC_SAR_Seq_1_SetHighLimit, %function
 715              	ADC_SAR_Seq_1_SetHighLimit:
 716              	.LFB10:
 520:.\Generated_Source\PSoC4/ADC_SAR_Seq_1.c **** 
 521:.\Generated_Source\PSoC4/ADC_SAR_Seq_1.c **** 
 522:.\Generated_Source\PSoC4/ADC_SAR_Seq_1.c **** /*******************************************************************************
 523:.\Generated_Source\PSoC4/ADC_SAR_Seq_1.c **** * Function Name: ADC_SAR_Seq_1_SetHighLimit
 524:.\Generated_Source\PSoC4/ADC_SAR_Seq_1.c **** ********************************************************************************
 525:.\Generated_Source\PSoC4/ADC_SAR_Seq_1.c **** *
 526:.\Generated_Source\PSoC4/ADC_SAR_Seq_1.c **** * Summary:
 527:.\Generated_Source\PSoC4/ADC_SAR_Seq_1.c **** *  Sets the low limit parameter for a limit condition.
 528:.\Generated_Source\PSoC4/ADC_SAR_Seq_1.c **** *
 529:.\Generated_Source\PSoC4/ADC_SAR_Seq_1.c **** * Parameters:
 530:.\Generated_Source\PSoC4/ADC_SAR_Seq_1.c **** *  highLimit: The high limit for a limit condition.
 531:.\Generated_Source\PSoC4/ADC_SAR_Seq_1.c **** *
 532:.\Generated_Source\PSoC4/ADC_SAR_Seq_1.c **** * Return:
 533:.\Generated_Source\PSoC4/ADC_SAR_Seq_1.c **** *  None.
 534:.\Generated_Source\PSoC4/ADC_SAR_Seq_1.c **** *
ARM GAS  C:\Users\maxk\AppData\Local\Temp\cco4JLBC.s 			page 23


 535:.\Generated_Source\PSoC4/ADC_SAR_Seq_1.c **** *******************************************************************************/
 536:.\Generated_Source\PSoC4/ADC_SAR_Seq_1.c **** void ADC_SAR_Seq_1_SetHighLimit(uint32 highLimit)
 537:.\Generated_Source\PSoC4/ADC_SAR_Seq_1.c **** {
 717              		.loc 1 537 0
 718              		.cfi_startproc
 719 0000 80B5     		push	{r7, lr}
 720              	.LCFI25:
 721              		.cfi_def_cfa_offset 8
 722              		.cfi_offset 7, -8
 723              		.cfi_offset 14, -4
 724 0002 82B0     		sub	sp, sp, #8
 725              	.LCFI26:
 726              		.cfi_def_cfa_offset 16
 727 0004 00AF     		add	r7, sp, #0
 728              	.LCFI27:
 729              		.cfi_def_cfa_register 7
 730 0006 7860     		str	r0, [r7, #4]
 538:.\Generated_Source\PSoC4/ADC_SAR_Seq_1.c ****     ADC_SAR_Seq_1_SAR_RANGE_THRES_REG &= (uint32)(~ADC_SAR_Seq_1_RANGE_HIGH_MASK);
 731              		.loc 1 538 0
 732 0008 074B     		ldr	r3, .L59
 733 000a 074A     		ldr	r2, .L59
 734 000c 1268     		ldr	r2, [r2]
 735 000e 1204     		lsl	r2, r2, #16
 736 0010 120C     		lsr	r2, r2, #16
 737 0012 1A60     		str	r2, [r3]
 539:.\Generated_Source\PSoC4/ADC_SAR_Seq_1.c ****     ADC_SAR_Seq_1_SAR_RANGE_THRES_REG |= (uint32)(highLimit << ADC_SAR_Seq_1_RANGE_HIGH_OFFSET);
 738              		.loc 1 539 0
 739 0014 044B     		ldr	r3, .L59
 740 0016 044A     		ldr	r2, .L59
 741 0018 1168     		ldr	r1, [r2]
 742 001a 7A68     		ldr	r2, [r7, #4]
 743 001c 1204     		lsl	r2, r2, #16
 744 001e 0A43     		orr	r2, r2, r1
 745 0020 1A60     		str	r2, [r3]
 540:.\Generated_Source\PSoC4/ADC_SAR_Seq_1.c **** }
 746              		.loc 1 540 0
 747 0022 BD46     		mov	sp, r7
 748 0024 02B0     		add	sp, sp, #8
 749              		@ sp needed for prologue
 750 0026 80BD     		pop	{r7, pc}
 751              	.L60:
 752              		.align	2
 753              	.L59:
 754 0028 18001A40 		.word	1075445784
 755              		.cfi_endproc
 756              	.LFE10:
 757              		.size	ADC_SAR_Seq_1_SetHighLimit, .-ADC_SAR_Seq_1_SetHighLimit
 758              		.section	.text.ADC_SAR_Seq_1_SetLimitMask,"ax",%progbits
 759              		.align	2
 760              		.global	ADC_SAR_Seq_1_SetLimitMask
 761              		.code	16
 762              		.thumb_func
 763              		.type	ADC_SAR_Seq_1_SetLimitMask, %function
 764              	ADC_SAR_Seq_1_SetLimitMask:
 765              	.LFB11:
 541:.\Generated_Source\PSoC4/ADC_SAR_Seq_1.c **** 
 542:.\Generated_Source\PSoC4/ADC_SAR_Seq_1.c **** 
ARM GAS  C:\Users\maxk\AppData\Local\Temp\cco4JLBC.s 			page 24


 543:.\Generated_Source\PSoC4/ADC_SAR_Seq_1.c **** /*******************************************************************************
 544:.\Generated_Source\PSoC4/ADC_SAR_Seq_1.c **** * Function Name: ADC_SAR_Seq_1_SetLimitMask
 545:.\Generated_Source\PSoC4/ADC_SAR_Seq_1.c **** ********************************************************************************
 546:.\Generated_Source\PSoC4/ADC_SAR_Seq_1.c **** *
 547:.\Generated_Source\PSoC4/ADC_SAR_Seq_1.c **** * Summary:
 548:.\Generated_Source\PSoC4/ADC_SAR_Seq_1.c **** *  Sets the channel limit condition mask.
 549:.\Generated_Source\PSoC4/ADC_SAR_Seq_1.c **** *
 550:.\Generated_Source\PSoC4/ADC_SAR_Seq_1.c **** * Parameters:
 551:.\Generated_Source\PSoC4/ADC_SAR_Seq_1.c **** *  mask: Sets which channels that may cause a
 552:.\Generated_Source\PSoC4/ADC_SAR_Seq_1.c **** *  limit condition interrupt. Setting bits for channels that do not exist
 553:.\Generated_Source\PSoC4/ADC_SAR_Seq_1.c **** *  will have no effect. For example, if only 6 channels were enabled,
 554:.\Generated_Source\PSoC4/ADC_SAR_Seq_1.c **** *  setting a mask of 0x0103 would only enable the last two channels (0 and 1).
 555:.\Generated_Source\PSoC4/ADC_SAR_Seq_1.c **** *
 556:.\Generated_Source\PSoC4/ADC_SAR_Seq_1.c **** * Return:
 557:.\Generated_Source\PSoC4/ADC_SAR_Seq_1.c **** *  None.
 558:.\Generated_Source\PSoC4/ADC_SAR_Seq_1.c **** *
 559:.\Generated_Source\PSoC4/ADC_SAR_Seq_1.c **** *******************************************************************************/
 560:.\Generated_Source\PSoC4/ADC_SAR_Seq_1.c **** void ADC_SAR_Seq_1_SetLimitMask(uint32 mask)
 561:.\Generated_Source\PSoC4/ADC_SAR_Seq_1.c **** {
 766              		.loc 1 561 0
 767              		.cfi_startproc
 768 0000 80B5     		push	{r7, lr}
 769              	.LCFI28:
 770              		.cfi_def_cfa_offset 8
 771              		.cfi_offset 7, -8
 772              		.cfi_offset 14, -4
 773 0002 82B0     		sub	sp, sp, #8
 774              	.LCFI29:
 775              		.cfi_def_cfa_offset 16
 776 0004 00AF     		add	r7, sp, #0
 777              	.LCFI30:
 778              		.cfi_def_cfa_register 7
 779 0006 7860     		str	r0, [r7, #4]
 562:.\Generated_Source\PSoC4/ADC_SAR_Seq_1.c ****     ADC_SAR_Seq_1_SAR_RANGE_INTR_MASK_REG = mask & ADC_SAR_Seq_1_MAX_CHANNELS_EN_MASK;
 780              		.loc 1 562 0
 781 0008 034B     		ldr	r3, .L63
 782 000a 7968     		ldr	r1, [r7, #4]
 783 000c 0122     		mov	r2, #1
 784 000e 0A40     		and	r2, r2, r1
 785 0010 1A60     		str	r2, [r3]
 563:.\Generated_Source\PSoC4/ADC_SAR_Seq_1.c **** }
 786              		.loc 1 563 0
 787 0012 BD46     		mov	sp, r7
 788 0014 02B0     		add	sp, sp, #8
 789              		@ sp needed for prologue
 790 0016 80BD     		pop	{r7, pc}
 791              	.L64:
 792              		.align	2
 793              	.L63:
 794 0018 38021A40 		.word	1075446328
 795              		.cfi_endproc
 796              	.LFE11:
 797              		.size	ADC_SAR_Seq_1_SetLimitMask, .-ADC_SAR_Seq_1_SetLimitMask
 798              		.section	.text.ADC_SAR_Seq_1_SetSatMask,"ax",%progbits
 799              		.align	2
 800              		.global	ADC_SAR_Seq_1_SetSatMask
 801              		.code	16
ARM GAS  C:\Users\maxk\AppData\Local\Temp\cco4JLBC.s 			page 25


 802              		.thumb_func
 803              		.type	ADC_SAR_Seq_1_SetSatMask, %function
 804              	ADC_SAR_Seq_1_SetSatMask:
 805              	.LFB12:
 564:.\Generated_Source\PSoC4/ADC_SAR_Seq_1.c **** 
 565:.\Generated_Source\PSoC4/ADC_SAR_Seq_1.c **** 
 566:.\Generated_Source\PSoC4/ADC_SAR_Seq_1.c **** /*******************************************************************************
 567:.\Generated_Source\PSoC4/ADC_SAR_Seq_1.c **** * Function Name: ADC_SAR_Seq_1_SetSatMask
 568:.\Generated_Source\PSoC4/ADC_SAR_Seq_1.c **** ********************************************************************************
 569:.\Generated_Source\PSoC4/ADC_SAR_Seq_1.c **** *
 570:.\Generated_Source\PSoC4/ADC_SAR_Seq_1.c **** * Summary:
 571:.\Generated_Source\PSoC4/ADC_SAR_Seq_1.c **** *  Sets the channel saturation event mask.
 572:.\Generated_Source\PSoC4/ADC_SAR_Seq_1.c **** *
 573:.\Generated_Source\PSoC4/ADC_SAR_Seq_1.c **** * Parameters:
 574:.\Generated_Source\PSoC4/ADC_SAR_Seq_1.c **** *  mask: Sets which channels that may cause a
 575:.\Generated_Source\PSoC4/ADC_SAR_Seq_1.c **** *  saturation event interrupt. Setting bits for channels that do not exist
 576:.\Generated_Source\PSoC4/ADC_SAR_Seq_1.c **** *  will have no effect. For example, if only 8 channels were enabled,
 577:.\Generated_Source\PSoC4/ADC_SAR_Seq_1.c **** *  setting a mask of 0x01C0 would only enable two channels (6 and 7).
 578:.\Generated_Source\PSoC4/ADC_SAR_Seq_1.c **** *
 579:.\Generated_Source\PSoC4/ADC_SAR_Seq_1.c **** * Return:
 580:.\Generated_Source\PSoC4/ADC_SAR_Seq_1.c **** *  None.
 581:.\Generated_Source\PSoC4/ADC_SAR_Seq_1.c **** *
 582:.\Generated_Source\PSoC4/ADC_SAR_Seq_1.c **** *******************************************************************************/
 583:.\Generated_Source\PSoC4/ADC_SAR_Seq_1.c **** void ADC_SAR_Seq_1_SetSatMask(uint32 mask)
 584:.\Generated_Source\PSoC4/ADC_SAR_Seq_1.c **** {
 806              		.loc 1 584 0
 807              		.cfi_startproc
 808 0000 80B5     		push	{r7, lr}
 809              	.LCFI31:
 810              		.cfi_def_cfa_offset 8
 811              		.cfi_offset 7, -8
 812              		.cfi_offset 14, -4
 813 0002 82B0     		sub	sp, sp, #8
 814              	.LCFI32:
 815              		.cfi_def_cfa_offset 16
 816 0004 00AF     		add	r7, sp, #0
 817              	.LCFI33:
 818              		.cfi_def_cfa_register 7
 819 0006 7860     		str	r0, [r7, #4]
 585:.\Generated_Source\PSoC4/ADC_SAR_Seq_1.c ****     ADC_SAR_Seq_1_SAR_SATURATE_INTR_MASK_REG = mask & ADC_SAR_Seq_1_MAX_CHANNELS_EN_MASK;
 820              		.loc 1 585 0
 821 0008 034B     		ldr	r3, .L67
 822 000a 7968     		ldr	r1, [r7, #4]
 823 000c 0122     		mov	r2, #1
 824 000e 0A40     		and	r2, r2, r1
 825 0010 1A60     		str	r2, [r3]
 586:.\Generated_Source\PSoC4/ADC_SAR_Seq_1.c **** }
 826              		.loc 1 586 0
 827 0012 BD46     		mov	sp, r7
 828 0014 02B0     		add	sp, sp, #8
 829              		@ sp needed for prologue
 830 0016 80BD     		pop	{r7, pc}
 831              	.L68:
 832              		.align	2
 833              	.L67:
 834 0018 28021A40 		.word	1075446312
 835              		.cfi_endproc
ARM GAS  C:\Users\maxk\AppData\Local\Temp\cco4JLBC.s 			page 26


 836              	.LFE12:
 837              		.size	ADC_SAR_Seq_1_SetSatMask, .-ADC_SAR_Seq_1_SetSatMask
 838              		.section	.text.ADC_SAR_Seq_1_SetOffset,"ax",%progbits
 839              		.align	2
 840              		.global	ADC_SAR_Seq_1_SetOffset
 841              		.code	16
 842              		.thumb_func
 843              		.type	ADC_SAR_Seq_1_SetOffset, %function
 844              	ADC_SAR_Seq_1_SetOffset:
 845              	.LFB13:
 587:.\Generated_Source\PSoC4/ADC_SAR_Seq_1.c **** 
 588:.\Generated_Source\PSoC4/ADC_SAR_Seq_1.c **** 
 589:.\Generated_Source\PSoC4/ADC_SAR_Seq_1.c **** /*******************************************************************************
 590:.\Generated_Source\PSoC4/ADC_SAR_Seq_1.c **** * Function Name: ADC_SAR_Seq_1_SetOffset
 591:.\Generated_Source\PSoC4/ADC_SAR_Seq_1.c **** ********************************************************************************
 592:.\Generated_Source\PSoC4/ADC_SAR_Seq_1.c **** *
 593:.\Generated_Source\PSoC4/ADC_SAR_Seq_1.c **** * Summary:
 594:.\Generated_Source\PSoC4/ADC_SAR_Seq_1.c **** *   Description: Sets the ADC offset which is used by the functions
 595:.\Generated_Source\PSoC4/ADC_SAR_Seq_1.c **** *   ADC_CountsTo_uVolts, ADC_CountsTo_mVolts and ADC_CountsTo_Volts
 596:.\Generated_Source\PSoC4/ADC_SAR_Seq_1.c **** *   to substract the offset from the given reading
 597:.\Generated_Source\PSoC4/ADC_SAR_Seq_1.c **** *   before calculating the voltage conversion.
 598:.\Generated_Source\PSoC4/ADC_SAR_Seq_1.c **** *
 599:.\Generated_Source\PSoC4/ADC_SAR_Seq_1.c **** * Parameters:
 600:.\Generated_Source\PSoC4/ADC_SAR_Seq_1.c **** *  chan: ADC channel number.
 601:.\Generated_Source\PSoC4/ADC_SAR_Seq_1.c **** *  offset: This value is a measured value when the
 602:.\Generated_Source\PSoC4/ADC_SAR_Seq_1.c **** *          inputs are shorted or connected to the same input voltage.
 603:.\Generated_Source\PSoC4/ADC_SAR_Seq_1.c **** *
 604:.\Generated_Source\PSoC4/ADC_SAR_Seq_1.c **** * Return:
 605:.\Generated_Source\PSoC4/ADC_SAR_Seq_1.c **** *  None.
 606:.\Generated_Source\PSoC4/ADC_SAR_Seq_1.c **** *
 607:.\Generated_Source\PSoC4/ADC_SAR_Seq_1.c **** * Global variables:
 608:.\Generated_Source\PSoC4/ADC_SAR_Seq_1.c **** *  ADC_SAR_Seq_1_Offset:  Modified to set the user provided offset.
 609:.\Generated_Source\PSoC4/ADC_SAR_Seq_1.c **** *
 610:.\Generated_Source\PSoC4/ADC_SAR_Seq_1.c **** *******************************************************************************/
 611:.\Generated_Source\PSoC4/ADC_SAR_Seq_1.c **** void ADC_SAR_Seq_1_SetOffset(uint32 chan, int16 offset)
 612:.\Generated_Source\PSoC4/ADC_SAR_Seq_1.c **** {
 846              		.loc 1 612 0
 847              		.cfi_startproc
 848 0000 80B5     		push	{r7, lr}
 849              	.LCFI34:
 850              		.cfi_def_cfa_offset 8
 851              		.cfi_offset 7, -8
 852              		.cfi_offset 14, -4
 853 0002 82B0     		sub	sp, sp, #8
 854              	.LCFI35:
 855              		.cfi_def_cfa_offset 16
 856 0004 00AF     		add	r7, sp, #0
 857              	.LCFI36:
 858              		.cfi_def_cfa_register 7
 859 0006 7860     		str	r0, [r7, #4]
 860 0008 0A1C     		mov	r2, r1
 861 000a BB1C     		add	r3, r7, #2
 862 000c 1A80     		strh	r2, [r3]
 613:.\Generated_Source\PSoC4/ADC_SAR_Seq_1.c ****     /* Halt CPU in debug mode if channel is out of valid range */
 614:.\Generated_Source\PSoC4/ADC_SAR_Seq_1.c ****     CYASSERT(chan < ADC_SAR_Seq_1_TOTAL_CHANNELS_NUM);
 863              		.loc 1 614 0
 864 000e 7B68     		ldr	r3, [r7, #4]
ARM GAS  C:\Users\maxk\AppData\Local\Temp\cco4JLBC.s 			page 27


 865 0010 002B     		cmp	r3, #0
 866 0012 02D0     		beq	.L70
 867 0014 0020     		mov	r0, #0
 868 0016 FFF7FEFF 		bl	CyHalt
 869              	.L70:
 615:.\Generated_Source\PSoC4/ADC_SAR_Seq_1.c **** 
 616:.\Generated_Source\PSoC4/ADC_SAR_Seq_1.c ****     ADC_SAR_Seq_1_offset[chan] = offset;
 870              		.loc 1 616 0
 871 001a 7A68     		ldr	r2, [r7, #4]
 872 001c 034B     		ldr	r3, .L72
 873 001e 5200     		lsl	r2, r2, #1
 874 0020 B91C     		add	r1, r7, #2
 875 0022 0988     		ldrh	r1, [r1]
 876 0024 D152     		strh	r1, [r2, r3]
 617:.\Generated_Source\PSoC4/ADC_SAR_Seq_1.c **** }
 877              		.loc 1 617 0
 878 0026 BD46     		mov	sp, r7
 879 0028 02B0     		add	sp, sp, #8
 880              		@ sp needed for prologue
 881 002a 80BD     		pop	{r7, pc}
 882              	.L73:
 883              		.align	2
 884              	.L72:
 885 002c 00000000 		.word	ADC_SAR_Seq_1_offset
 886              		.cfi_endproc
 887              	.LFE13:
 888              		.size	ADC_SAR_Seq_1_SetOffset, .-ADC_SAR_Seq_1_SetOffset
 889              		.section	.text.ADC_SAR_Seq_1_SetGain,"ax",%progbits
 890              		.align	2
 891              		.global	ADC_SAR_Seq_1_SetGain
 892              		.code	16
 893              		.thumb_func
 894              		.type	ADC_SAR_Seq_1_SetGain, %function
 895              	ADC_SAR_Seq_1_SetGain:
 896              	.LFB14:
 618:.\Generated_Source\PSoC4/ADC_SAR_Seq_1.c **** 
 619:.\Generated_Source\PSoC4/ADC_SAR_Seq_1.c **** 
 620:.\Generated_Source\PSoC4/ADC_SAR_Seq_1.c **** /*******************************************************************************
 621:.\Generated_Source\PSoC4/ADC_SAR_Seq_1.c **** * Function Name: ADC_SAR_Seq_1_SetGain
 622:.\Generated_Source\PSoC4/ADC_SAR_Seq_1.c **** ********************************************************************************
 623:.\Generated_Source\PSoC4/ADC_SAR_Seq_1.c **** *
 624:.\Generated_Source\PSoC4/ADC_SAR_Seq_1.c **** * Summary:
 625:.\Generated_Source\PSoC4/ADC_SAR_Seq_1.c **** *  Description: Sets the ADC gain in counts per 10 volt for the voltage
 626:.\Generated_Source\PSoC4/ADC_SAR_Seq_1.c **** *  conversion functions below. This value is set by default by the
 627:.\Generated_Source\PSoC4/ADC_SAR_Seq_1.c **** *  reference and input range settings. It should only be used to further
 628:.\Generated_Source\PSoC4/ADC_SAR_Seq_1.c **** *  calibrate the ADC with a known input or if an external reference is
 629:.\Generated_Source\PSoC4/ADC_SAR_Seq_1.c **** *  used. Affects the ADC_CountsTo_uVolts, ADC_CountsTo_mVolts
 630:.\Generated_Source\PSoC4/ADC_SAR_Seq_1.c **** *  and ADC_CountsTo_Volts functions by supplying the correct
 631:.\Generated_Source\PSoC4/ADC_SAR_Seq_1.c **** *  conversion between ADC counts and voltage.
 632:.\Generated_Source\PSoC4/ADC_SAR_Seq_1.c **** *
 633:.\Generated_Source\PSoC4/ADC_SAR_Seq_1.c **** * Parameters:
 634:.\Generated_Source\PSoC4/ADC_SAR_Seq_1.c **** *  chan: ADC channel number.
 635:.\Generated_Source\PSoC4/ADC_SAR_Seq_1.c **** *  adcGain: ADC gain in counts per 10 volts.
 636:.\Generated_Source\PSoC4/ADC_SAR_Seq_1.c **** *
 637:.\Generated_Source\PSoC4/ADC_SAR_Seq_1.c **** * Return:
 638:.\Generated_Source\PSoC4/ADC_SAR_Seq_1.c **** *  None.
 639:.\Generated_Source\PSoC4/ADC_SAR_Seq_1.c **** *
ARM GAS  C:\Users\maxk\AppData\Local\Temp\cco4JLBC.s 			page 28


 640:.\Generated_Source\PSoC4/ADC_SAR_Seq_1.c **** * Global variables:
 641:.\Generated_Source\PSoC4/ADC_SAR_Seq_1.c **** *  ADC_SAR_Seq_1_CountsPer10Volt:  modified to set the ADC gain in counts 
 642:.\Generated_Source\PSoC4/ADC_SAR_Seq_1.c **** *   per 10 volt.
 643:.\Generated_Source\PSoC4/ADC_SAR_Seq_1.c **** *
 644:.\Generated_Source\PSoC4/ADC_SAR_Seq_1.c **** *******************************************************************************/
 645:.\Generated_Source\PSoC4/ADC_SAR_Seq_1.c **** void ADC_SAR_Seq_1_SetGain(uint32 chan, int32 adcGain)
 646:.\Generated_Source\PSoC4/ADC_SAR_Seq_1.c **** {
 897              		.loc 1 646 0
 898              		.cfi_startproc
 899 0000 80B5     		push	{r7, lr}
 900              	.LCFI37:
 901              		.cfi_def_cfa_offset 8
 902              		.cfi_offset 7, -8
 903              		.cfi_offset 14, -4
 904 0002 82B0     		sub	sp, sp, #8
 905              	.LCFI38:
 906              		.cfi_def_cfa_offset 16
 907 0004 00AF     		add	r7, sp, #0
 908              	.LCFI39:
 909              		.cfi_def_cfa_register 7
 910 0006 7860     		str	r0, [r7, #4]
 911 0008 3960     		str	r1, [r7]
 647:.\Generated_Source\PSoC4/ADC_SAR_Seq_1.c ****     /* Halt CPU in debug mode if channel is out of valid range */
 648:.\Generated_Source\PSoC4/ADC_SAR_Seq_1.c ****     CYASSERT(chan < ADC_SAR_Seq_1_TOTAL_CHANNELS_NUM);
 912              		.loc 1 648 0
 913 000a 7B68     		ldr	r3, [r7, #4]
 914 000c 002B     		cmp	r3, #0
 915 000e 02D0     		beq	.L75
 916 0010 0020     		mov	r0, #0
 917 0012 FFF7FEFF 		bl	CyHalt
 918              	.L75:
 649:.\Generated_Source\PSoC4/ADC_SAR_Seq_1.c **** 
 650:.\Generated_Source\PSoC4/ADC_SAR_Seq_1.c ****     ADC_SAR_Seq_1_countsPer10Volt[chan] = adcGain;
 919              		.loc 1 650 0
 920 0016 7A68     		ldr	r2, [r7, #4]
 921 0018 034B     		ldr	r3, .L77
 922 001a 9200     		lsl	r2, r2, #2
 923 001c 3968     		ldr	r1, [r7]
 924 001e D150     		str	r1, [r2, r3]
 651:.\Generated_Source\PSoC4/ADC_SAR_Seq_1.c **** }
 925              		.loc 1 651 0
 926 0020 BD46     		mov	sp, r7
 927 0022 02B0     		add	sp, sp, #8
 928              		@ sp needed for prologue
 929 0024 80BD     		pop	{r7, pc}
 930              	.L78:
 931 0026 C046     		.align	2
 932              	.L77:
 933 0028 00000000 		.word	ADC_SAR_Seq_1_countsPer10Volt
 934              		.cfi_endproc
 935              	.LFE14:
 936              		.size	ADC_SAR_Seq_1_SetGain, .-ADC_SAR_Seq_1_SetGain
 937              		.global	__aeabi_idiv
 938              		.section	.text.ADC_SAR_Seq_1_CountsTo_mVolts,"ax",%progbits
 939              		.align	2
 940              		.global	ADC_SAR_Seq_1_CountsTo_mVolts
 941              		.code	16
ARM GAS  C:\Users\maxk\AppData\Local\Temp\cco4JLBC.s 			page 29


 942              		.thumb_func
 943              		.type	ADC_SAR_Seq_1_CountsTo_mVolts, %function
 944              	ADC_SAR_Seq_1_CountsTo_mVolts:
 945              	.LFB15:
 652:.\Generated_Source\PSoC4/ADC_SAR_Seq_1.c **** 
 653:.\Generated_Source\PSoC4/ADC_SAR_Seq_1.c **** 
 654:.\Generated_Source\PSoC4/ADC_SAR_Seq_1.c **** #if(ADC_SAR_Seq_1_DEFAULT_JUSTIFICATION_SEL == ADC_SAR_Seq_1__RIGHT)
 655:.\Generated_Source\PSoC4/ADC_SAR_Seq_1.c **** 
 656:.\Generated_Source\PSoC4/ADC_SAR_Seq_1.c **** 
 657:.\Generated_Source\PSoC4/ADC_SAR_Seq_1.c ****     /*******************************************************************************
 658:.\Generated_Source\PSoC4/ADC_SAR_Seq_1.c ****     * Function Name: ADC_SAR_Seq_1_CountsTo_mVolts
 659:.\Generated_Source\PSoC4/ADC_SAR_Seq_1.c ****     ********************************************************************************
 660:.\Generated_Source\PSoC4/ADC_SAR_Seq_1.c ****     *
 661:.\Generated_Source\PSoC4/ADC_SAR_Seq_1.c ****     * Summary:
 662:.\Generated_Source\PSoC4/ADC_SAR_Seq_1.c ****     *  This function converts ADC counts to mVolts
 663:.\Generated_Source\PSoC4/ADC_SAR_Seq_1.c ****     *  This function is not available when left data format justification selected.
 664:.\Generated_Source\PSoC4/ADC_SAR_Seq_1.c ****     *
 665:.\Generated_Source\PSoC4/ADC_SAR_Seq_1.c ****     * Parameters:
 666:.\Generated_Source\PSoC4/ADC_SAR_Seq_1.c ****     *  chan: The ADC channel number.
 667:.\Generated_Source\PSoC4/ADC_SAR_Seq_1.c ****     *  adcCounts: Result from the ADC conversion
 668:.\Generated_Source\PSoC4/ADC_SAR_Seq_1.c ****     *
 669:.\Generated_Source\PSoC4/ADC_SAR_Seq_1.c ****     * Return:
 670:.\Generated_Source\PSoC4/ADC_SAR_Seq_1.c ****     *  Results in mVolts
 671:.\Generated_Source\PSoC4/ADC_SAR_Seq_1.c ****     *
 672:.\Generated_Source\PSoC4/ADC_SAR_Seq_1.c ****     * Global variables:
 673:.\Generated_Source\PSoC4/ADC_SAR_Seq_1.c ****     *  ADC_SAR_Seq_1_countsPer10Volt:  used to convert ADC counts to mVolts.
 674:.\Generated_Source\PSoC4/ADC_SAR_Seq_1.c ****     *  ADC_SAR_Seq_1_Offset:  Used as the offset while converting ADC counts 
 675:.\Generated_Source\PSoC4/ADC_SAR_Seq_1.c ****     *   to mVolts.
 676:.\Generated_Source\PSoC4/ADC_SAR_Seq_1.c ****     *
 677:.\Generated_Source\PSoC4/ADC_SAR_Seq_1.c ****     *******************************************************************************/
 678:.\Generated_Source\PSoC4/ADC_SAR_Seq_1.c ****     int16 ADC_SAR_Seq_1_CountsTo_mVolts(uint32 chan, int16 adcCounts)
 679:.\Generated_Source\PSoC4/ADC_SAR_Seq_1.c ****     {
 946              		.loc 1 679 0
 947              		.cfi_startproc
 948 0000 80B5     		push	{r7, lr}
 949              	.LCFI40:
 950              		.cfi_def_cfa_offset 8
 951              		.cfi_offset 7, -8
 952              		.cfi_offset 14, -4
 953 0002 84B0     		sub	sp, sp, #16
 954              	.LCFI41:
 955              		.cfi_def_cfa_offset 24
 956 0004 00AF     		add	r7, sp, #0
 957              	.LCFI42:
 958              		.cfi_def_cfa_register 7
 959 0006 7860     		str	r0, [r7, #4]
 960 0008 0A1C     		mov	r2, r1
 961 000a BB1C     		add	r3, r7, #2
 962 000c 1A80     		strh	r2, [r3]
 680:.\Generated_Source\PSoC4/ADC_SAR_Seq_1.c ****         int16 mVolts;
 681:.\Generated_Source\PSoC4/ADC_SAR_Seq_1.c **** 
 682:.\Generated_Source\PSoC4/ADC_SAR_Seq_1.c ****         /* Halt CPU in debug mode if channel is out of valid range */
 683:.\Generated_Source\PSoC4/ADC_SAR_Seq_1.c ****         CYASSERT(chan < ADC_SAR_Seq_1_TOTAL_CHANNELS_NUM);
 963              		.loc 1 683 0
 964 000e 7B68     		ldr	r3, [r7, #4]
 965 0010 002B     		cmp	r3, #0
 966 0012 02D0     		beq	.L80
ARM GAS  C:\Users\maxk\AppData\Local\Temp\cco4JLBC.s 			page 30


 967 0014 0020     		mov	r0, #0
 968 0016 FFF7FEFF 		bl	CyHalt
 969              	.L80:
 684:.\Generated_Source\PSoC4/ADC_SAR_Seq_1.c **** 
 685:.\Generated_Source\PSoC4/ADC_SAR_Seq_1.c ****         /* Divide the adcCount when accumulate averaging mode selected */
 686:.\Generated_Source\PSoC4/ADC_SAR_Seq_1.c ****         #if(ADC_SAR_Seq_1_DEFAULT_AVG_MODE == ADC_SAR_Seq_1__ACCUMULATE)
 687:.\Generated_Source\PSoC4/ADC_SAR_Seq_1.c ****             if((ADC_SAR_Seq_1_channelsConfig[chan] & ADC_SAR_Seq_1_AVERAGING_EN) != 0u)
 688:.\Generated_Source\PSoC4/ADC_SAR_Seq_1.c ****             {
 689:.\Generated_Source\PSoC4/ADC_SAR_Seq_1.c ****                 adcCounts /= ADC_SAR_Seq_1_DEFAULT_AVG_SAMPLES_DIV;
 690:.\Generated_Source\PSoC4/ADC_SAR_Seq_1.c ****             }    
 691:.\Generated_Source\PSoC4/ADC_SAR_Seq_1.c ****         #endif /* ADC_SAR_Seq_1_DEFAULT_AVG_MODE == ADC_SAR_Seq_1__ACCUMULATE */
 692:.\Generated_Source\PSoC4/ADC_SAR_Seq_1.c **** 
 693:.\Generated_Source\PSoC4/ADC_SAR_Seq_1.c ****         /* Subtract ADC offset */
 694:.\Generated_Source\PSoC4/ADC_SAR_Seq_1.c ****         adcCounts -= ADC_SAR_Seq_1_offset[chan];
 970              		.loc 1 694 0
 971 001a BB1C     		add	r3, r7, #2
 972 001c 1A88     		ldrh	r2, [r3]
 973 001e 7968     		ldr	r1, [r7, #4]
 974 0020 1D4B     		ldr	r3, .L86
 975 0022 4900     		lsl	r1, r1, #1
 976 0024 CB5A     		ldrh	r3, [r1, r3]
 977 0026 9BB2     		uxth	r3, r3
 978 0028 9BB2     		uxth	r3, r3
 979 002a D31A     		sub	r3, r2, r3
 980 002c 9AB2     		uxth	r2, r3
 981 002e BB1C     		add	r3, r7, #2
 982 0030 1A80     		strh	r2, [r3]
 695:.\Generated_Source\PSoC4/ADC_SAR_Seq_1.c **** 
 696:.\Generated_Source\PSoC4/ADC_SAR_Seq_1.c ****         mVolts = (int16)((((int32)adcCounts * ADC_SAR_Seq_1_10MV_COUNTS) + ( (adcCounts > 0) ? 
 983              		.loc 1 696 0
 984 0032 BB1C     		add	r3, r7, #2
 985 0034 0021     		mov	r1, #0
 986 0036 5B5E     		ldrsh	r3, [r3, r1]
 987 0038 184A     		ldr	r2, .L86+4
 988 003a 5A43     		mul	r2, r3
 989 003c BB1C     		add	r3, r7, #2
 990 003e 0021     		mov	r1, #0
 991 0040 5B5E     		ldrsh	r3, [r3, r1]
 992 0042 002B     		cmp	r3, #0
 993 0044 08DD     		ble	.L81
 697:.\Generated_Source\PSoC4/ADC_SAR_Seq_1.c ****                  (ADC_SAR_Seq_1_countsPer10Volt[chan] / 2) : (-(ADC_SAR_Seq_1_countsPer10Volt[chan]
 994              		.loc 1 697 0
 995 0046 7968     		ldr	r1, [r7, #4]
 996 0048 154B     		ldr	r3, .L86+8
 997 004a 8900     		lsl	r1, r1, #2
 998 004c CB58     		ldr	r3, [r1, r3]
 999              		.loc 1 696 0
 1000 004e 002B     		cmp	r3, #0
 1001 0050 00DA     		bge	.L82
 1002 0052 0133     		add	r3, r3, #1
 1003              	.L82:
 1004 0054 5B10     		asr	r3, r3, #1
 1005 0056 08E0     		b	.L83
 1006              	.L81:
 1007              		.loc 1 697 0
 1008 0058 7968     		ldr	r1, [r7, #4]
 1009 005a 114B     		ldr	r3, .L86+8
ARM GAS  C:\Users\maxk\AppData\Local\Temp\cco4JLBC.s 			page 31


 1010 005c 8900     		lsl	r1, r1, #2
 1011 005e CB58     		ldr	r3, [r1, r3]
 1012 0060 002B     		cmp	r3, #0
 1013 0062 00DA     		bge	.L84
 1014 0064 0133     		add	r3, r3, #1
 1015              	.L84:
 1016 0066 5B10     		asr	r3, r3, #1
 1017              		.loc 1 696 0
 1018 0068 5B42     		neg	r3, r3
 1019              	.L83:
 1020 006a D218     		add	r2, r2, r3
 1021 006c 7968     		ldr	r1, [r7, #4]
 698:.\Generated_Source\PSoC4/ADC_SAR_Seq_1.c ****                  / ADC_SAR_Seq_1_countsPer10Volt[chan]);
 1022              		.loc 1 698 0
 1023 006e 0C4B     		ldr	r3, .L86+8
 1024 0070 8900     		lsl	r1, r1, #2
 1025 0072 CB58     		ldr	r3, [r1, r3]
 1026              		.loc 1 696 0
 1027 0074 101C     		mov	r0, r2
 1028 0076 191C     		mov	r1, r3
 1029 0078 FFF7FEFF 		bl	__aeabi_idiv
 1030 007c 031C     		mov	r3, r0
 1031 007e 1A1C     		mov	r2, r3
 1032 0080 3B1C     		mov	r3, r7
 1033 0082 0E33     		add	r3, r3, #14
 1034 0084 1A80     		strh	r2, [r3]
 699:.\Generated_Source\PSoC4/ADC_SAR_Seq_1.c **** 
 700:.\Generated_Source\PSoC4/ADC_SAR_Seq_1.c ****         return( mVolts );
 1035              		.loc 1 700 0
 1036 0086 3B1C     		mov	r3, r7
 1037 0088 0E33     		add	r3, r3, #14
 1038 008a 1B88     		ldrh	r3, [r3]
 1039 008c 1BB2     		sxth	r3, r3
 701:.\Generated_Source\PSoC4/ADC_SAR_Seq_1.c ****     }
 1040              		.loc 1 701 0
 1041 008e 181C     		mov	r0, r3
 1042 0090 BD46     		mov	sp, r7
 1043 0092 04B0     		add	sp, sp, #16
 1044              		@ sp needed for prologue
 1045 0094 80BD     		pop	{r7, pc}
 1046              	.L87:
 1047 0096 C046     		.align	2
 1048              	.L86:
 1049 0098 00000000 		.word	ADC_SAR_Seq_1_offset
 1050 009c 10270000 		.word	10000
 1051 00a0 00000000 		.word	ADC_SAR_Seq_1_countsPer10Volt
 1052              		.cfi_endproc
 1053              	.LFE15:
 1054              		.size	ADC_SAR_Seq_1_CountsTo_mVolts, .-ADC_SAR_Seq_1_CountsTo_mVolts
 1055              		.global	__aeabi_lmul
 1056              		.global	__aeabi_ldivmod
 1057              		.section	.text.ADC_SAR_Seq_1_CountsTo_uVolts,"ax",%progbits
 1058              		.align	2
 1059              		.global	ADC_SAR_Seq_1_CountsTo_uVolts
 1060              		.code	16
 1061              		.thumb_func
 1062              		.type	ADC_SAR_Seq_1_CountsTo_uVolts, %function
ARM GAS  C:\Users\maxk\AppData\Local\Temp\cco4JLBC.s 			page 32


 1063              	ADC_SAR_Seq_1_CountsTo_uVolts:
 1064              	.LFB16:
 702:.\Generated_Source\PSoC4/ADC_SAR_Seq_1.c **** 
 703:.\Generated_Source\PSoC4/ADC_SAR_Seq_1.c **** 
 704:.\Generated_Source\PSoC4/ADC_SAR_Seq_1.c ****     /*******************************************************************************
 705:.\Generated_Source\PSoC4/ADC_SAR_Seq_1.c ****     * Function Name: ADC_SAR_Seq_1_CountsTo_uVolts
 706:.\Generated_Source\PSoC4/ADC_SAR_Seq_1.c ****     ********************************************************************************
 707:.\Generated_Source\PSoC4/ADC_SAR_Seq_1.c ****     *
 708:.\Generated_Source\PSoC4/ADC_SAR_Seq_1.c ****     * Summary:
 709:.\Generated_Source\PSoC4/ADC_SAR_Seq_1.c ****     *  This function converts ADC counts to micro Volts
 710:.\Generated_Source\PSoC4/ADC_SAR_Seq_1.c ****     *  This function is not available when left data format justification selected.
 711:.\Generated_Source\PSoC4/ADC_SAR_Seq_1.c ****     *
 712:.\Generated_Source\PSoC4/ADC_SAR_Seq_1.c ****     * Parameters:
 713:.\Generated_Source\PSoC4/ADC_SAR_Seq_1.c ****     *  chan: The ADC channel number.
 714:.\Generated_Source\PSoC4/ADC_SAR_Seq_1.c ****     *  adcCounts: Result from the ADC conversion
 715:.\Generated_Source\PSoC4/ADC_SAR_Seq_1.c ****     *
 716:.\Generated_Source\PSoC4/ADC_SAR_Seq_1.c ****     * Return:
 717:.\Generated_Source\PSoC4/ADC_SAR_Seq_1.c ****     *  Results in uVolts
 718:.\Generated_Source\PSoC4/ADC_SAR_Seq_1.c ****     *
 719:.\Generated_Source\PSoC4/ADC_SAR_Seq_1.c ****     * Global variables:
 720:.\Generated_Source\PSoC4/ADC_SAR_Seq_1.c ****     *  ADC_SAR_Seq_1_countsPer10Volt:  used to convert ADC counts to uVolts.
 721:.\Generated_Source\PSoC4/ADC_SAR_Seq_1.c ****     *  ADC_SAR_Seq_1_Offset:  Used as the offset while converting ADC counts 
 722:.\Generated_Source\PSoC4/ADC_SAR_Seq_1.c ****     *   to mVolts.
 723:.\Generated_Source\PSoC4/ADC_SAR_Seq_1.c ****     *
 724:.\Generated_Source\PSoC4/ADC_SAR_Seq_1.c ****     * Theory: 
 725:.\Generated_Source\PSoC4/ADC_SAR_Seq_1.c ****     *  Care must be taken to not exceed the maximum value for a 31 bit signed
 726:.\Generated_Source\PSoC4/ADC_SAR_Seq_1.c ****     *  number in the conversion to uVolts and at the same time not loose 
 727:.\Generated_Source\PSoC4/ADC_SAR_Seq_1.c ****     *  resolution.
 728:.\Generated_Source\PSoC4/ADC_SAR_Seq_1.c ****     *  To convert adcCounts to microVolts it is required to be multiplied
 729:.\Generated_Source\PSoC4/ADC_SAR_Seq_1.c ****     *  on 10 million and later divide on gain in counts per 10V. 
 730:.\Generated_Source\PSoC4/ADC_SAR_Seq_1.c ****     *
 731:.\Generated_Source\PSoC4/ADC_SAR_Seq_1.c ****     *******************************************************************************/
 732:.\Generated_Source\PSoC4/ADC_SAR_Seq_1.c ****     int32 ADC_SAR_Seq_1_CountsTo_uVolts(uint32 chan, int16 adcCounts)
 733:.\Generated_Source\PSoC4/ADC_SAR_Seq_1.c ****     {
 1065              		.loc 1 733 0
 1066              		.cfi_startproc
 1067 0000 B0B5     		push	{r4, r5, r7, lr}
 1068              	.LCFI43:
 1069              		.cfi_def_cfa_offset 16
 1070              		.cfi_offset 4, -16
 1071              		.cfi_offset 5, -12
 1072              		.cfi_offset 7, -8
 1073              		.cfi_offset 14, -4
 1074 0002 86B0     		sub	sp, sp, #24
 1075              	.LCFI44:
 1076              		.cfi_def_cfa_offset 40
 1077 0004 00AF     		add	r7, sp, #0
 1078              	.LCFI45:
 1079              		.cfi_def_cfa_register 7
 1080 0006 F860     		str	r0, [r7, #12]
 1081 0008 0A1C     		mov	r2, r1
 1082 000a 3B1C     		mov	r3, r7
 1083 000c 0A33     		add	r3, r3, #10
 1084 000e 1A80     		strh	r2, [r3]
 734:.\Generated_Source\PSoC4/ADC_SAR_Seq_1.c ****         int64 uVolts;
 735:.\Generated_Source\PSoC4/ADC_SAR_Seq_1.c **** 
 736:.\Generated_Source\PSoC4/ADC_SAR_Seq_1.c ****         /* Halt CPU in debug mode if channel is out of valid range */
ARM GAS  C:\Users\maxk\AppData\Local\Temp\cco4JLBC.s 			page 33


 737:.\Generated_Source\PSoC4/ADC_SAR_Seq_1.c ****         CYASSERT(chan < ADC_SAR_Seq_1_TOTAL_CHANNELS_NUM);
 1085              		.loc 1 737 0
 1086 0010 FB68     		ldr	r3, [r7, #12]
 1087 0012 002B     		cmp	r3, #0
 1088 0014 02D0     		beq	.L89
 1089 0016 0020     		mov	r0, #0
 1090 0018 FFF7FEFF 		bl	CyHalt
 1091              	.L89:
 738:.\Generated_Source\PSoC4/ADC_SAR_Seq_1.c **** 
 739:.\Generated_Source\PSoC4/ADC_SAR_Seq_1.c ****         /* Divide the adcCount when accumulate averaging mode selected */
 740:.\Generated_Source\PSoC4/ADC_SAR_Seq_1.c ****         #if(ADC_SAR_Seq_1_DEFAULT_AVG_MODE == ADC_SAR_Seq_1__ACCUMULATE)
 741:.\Generated_Source\PSoC4/ADC_SAR_Seq_1.c ****             if((ADC_SAR_Seq_1_channelsConfig[chan] & ADC_SAR_Seq_1_AVERAGING_EN) != 0u)
 742:.\Generated_Source\PSoC4/ADC_SAR_Seq_1.c ****             {
 743:.\Generated_Source\PSoC4/ADC_SAR_Seq_1.c ****                 adcCounts /= ADC_SAR_Seq_1_DEFAULT_AVG_SAMPLES_DIV;
 744:.\Generated_Source\PSoC4/ADC_SAR_Seq_1.c ****             }    
 745:.\Generated_Source\PSoC4/ADC_SAR_Seq_1.c ****         #endif /* ADC_SAR_Seq_1_DEFAULT_AVG_MODE == ADC_SAR_Seq_1__ACCUMULATE */
 746:.\Generated_Source\PSoC4/ADC_SAR_Seq_1.c **** 
 747:.\Generated_Source\PSoC4/ADC_SAR_Seq_1.c ****         /* Subtract ADC offset */
 748:.\Generated_Source\PSoC4/ADC_SAR_Seq_1.c ****         adcCounts -= ADC_SAR_Seq_1_offset[chan];
 1092              		.loc 1 748 0
 1093 001c 3B1C     		mov	r3, r7
 1094 001e 0A33     		add	r3, r3, #10
 1095 0020 1A88     		ldrh	r2, [r3]
 1096 0022 F968     		ldr	r1, [r7, #12]
 1097 0024 1A4B     		ldr	r3, .L91+8
 1098 0026 4900     		lsl	r1, r1, #1
 1099 0028 CB5A     		ldrh	r3, [r1, r3]
 1100 002a 9BB2     		uxth	r3, r3
 1101 002c 9BB2     		uxth	r3, r3
 1102 002e D31A     		sub	r3, r2, r3
 1103 0030 9AB2     		uxth	r2, r3
 1104 0032 3B1C     		mov	r3, r7
 1105 0034 0A33     		add	r3, r3, #10
 1106 0036 1A80     		strh	r2, [r3]
 749:.\Generated_Source\PSoC4/ADC_SAR_Seq_1.c **** 
 750:.\Generated_Source\PSoC4/ADC_SAR_Seq_1.c ****         uVolts = ((int64)adcCounts * ADC_SAR_Seq_1_10UV_COUNTS) / ADC_SAR_Seq_1_countsPer10Volt[cha
 1107              		.loc 1 750 0
 1108 0038 3B1C     		mov	r3, r7
 1109 003a 0A33     		add	r3, r3, #10
 1110 003c 0022     		mov	r2, #0
 1111 003e 9B5E     		ldrsh	r3, [r3, r2]
 1112 0040 1A1C     		mov	r2, r3
 1113 0042 3A60     		str	r2, [r7]
 1114 0044 DB17     		asr	r3, r3, #31
 1115 0046 7B60     		str	r3, [r7, #4]
 1116 0048 3868     		ldr	r0, [r7]
 1117 004a 7968     		ldr	r1, [r7, #4]
 1118 004c 0F4B     		ldr	r3, .L91+4
 1119 004e 0E4A     		ldr	r2, .L91
 1120 0050 FFF7FEFF 		bl	__aeabi_lmul
 1121 0054 021C     		mov	r2, r0
 1122 0056 0B1C     		mov	r3, r1
 1123 0058 F868     		ldr	r0, [r7, #12]
 1124 005a 0E49     		ldr	r1, .L91+12
 1125 005c 8000     		lsl	r0, r0, #2
 1126 005e 4158     		ldr	r1, [r0, r1]
 1127 0060 0C1C     		mov	r4, r1
ARM GAS  C:\Users\maxk\AppData\Local\Temp\cco4JLBC.s 			page 34


 1128 0062 C917     		asr	r1, r1, #31
 1129 0064 0D1C     		mov	r5, r1
 1130 0066 101C     		mov	r0, r2
 1131 0068 191C     		mov	r1, r3
 1132 006a 221C     		mov	r2, r4
 1133 006c 2B1C     		mov	r3, r5
 1134 006e FFF7FEFF 		bl	__aeabi_ldivmod
 1135 0072 031C     		mov	r3, r0
 1136 0074 0C1C     		mov	r4, r1
 1137 0076 3B61     		str	r3, [r7, #16]
 1138 0078 7C61     		str	r4, [r7, #20]
 751:.\Generated_Source\PSoC4/ADC_SAR_Seq_1.c **** 
 752:.\Generated_Source\PSoC4/ADC_SAR_Seq_1.c ****         return( (int32)uVolts );
 1139              		.loc 1 752 0
 1140 007a 3B69     		ldr	r3, [r7, #16]
 753:.\Generated_Source\PSoC4/ADC_SAR_Seq_1.c ****     }
 1141              		.loc 1 753 0
 1142 007c 181C     		mov	r0, r3
 1143 007e BD46     		mov	sp, r7
 1144 0080 06B0     		add	sp, sp, #24
 1145              		@ sp needed for prologue
 1146 0082 B0BD     		pop	{r4, r5, r7, pc}
 1147              	.L92:
 1148 0084 C046C046 		.align	3
 1149              	.L91:
 1150 0088 80969800 		.word	10000000
 1151 008c 00000000 		.word	0
 1152 0090 00000000 		.word	ADC_SAR_Seq_1_offset
 1153 0094 00000000 		.word	ADC_SAR_Seq_1_countsPer10Volt
 1154              		.cfi_endproc
 1155              	.LFE16:
 1156              		.size	ADC_SAR_Seq_1_CountsTo_uVolts, .-ADC_SAR_Seq_1_CountsTo_uVolts
 1157              		.global	__aeabi_i2f
 1158              		.global	__aeabi_fmul
 1159              		.global	__aeabi_fdiv
 1160              		.section	.text.ADC_SAR_Seq_1_CountsTo_Volts,"ax",%progbits
 1161              		.align	2
 1162              		.global	ADC_SAR_Seq_1_CountsTo_Volts
 1163              		.code	16
 1164              		.thumb_func
 1165              		.type	ADC_SAR_Seq_1_CountsTo_Volts, %function
 1166              	ADC_SAR_Seq_1_CountsTo_Volts:
 1167              	.LFB17:
 754:.\Generated_Source\PSoC4/ADC_SAR_Seq_1.c **** 
 755:.\Generated_Source\PSoC4/ADC_SAR_Seq_1.c **** 
 756:.\Generated_Source\PSoC4/ADC_SAR_Seq_1.c ****     /*******************************************************************************
 757:.\Generated_Source\PSoC4/ADC_SAR_Seq_1.c ****     * Function Name: ADC_SAR_Seq_1_CountsTo_Volts
 758:.\Generated_Source\PSoC4/ADC_SAR_Seq_1.c ****     ********************************************************************************
 759:.\Generated_Source\PSoC4/ADC_SAR_Seq_1.c ****     *
 760:.\Generated_Source\PSoC4/ADC_SAR_Seq_1.c ****     * Summary:
 761:.\Generated_Source\PSoC4/ADC_SAR_Seq_1.c ****     *  Converts the ADC output to Volts as a floating point number.
 762:.\Generated_Source\PSoC4/ADC_SAR_Seq_1.c ****     *  This function is not available when left data format justification selected.
 763:.\Generated_Source\PSoC4/ADC_SAR_Seq_1.c ****     *
 764:.\Generated_Source\PSoC4/ADC_SAR_Seq_1.c ****     * Parameters:
 765:.\Generated_Source\PSoC4/ADC_SAR_Seq_1.c ****     *  chan: The ADC channel number.
 766:.\Generated_Source\PSoC4/ADC_SAR_Seq_1.c ****     *  Result from the ADC conversion
 767:.\Generated_Source\PSoC4/ADC_SAR_Seq_1.c ****     *
ARM GAS  C:\Users\maxk\AppData\Local\Temp\cco4JLBC.s 			page 35


 768:.\Generated_Source\PSoC4/ADC_SAR_Seq_1.c ****     * Return:
 769:.\Generated_Source\PSoC4/ADC_SAR_Seq_1.c ****     *  Results in Volts
 770:.\Generated_Source\PSoC4/ADC_SAR_Seq_1.c ****     *
 771:.\Generated_Source\PSoC4/ADC_SAR_Seq_1.c ****     * Global variables:
 772:.\Generated_Source\PSoC4/ADC_SAR_Seq_1.c ****     *  ADC_SAR_Seq_1_countsPer10Volt:  used to convert ADC counts to Volts.
 773:.\Generated_Source\PSoC4/ADC_SAR_Seq_1.c ****     *  ADC_SAR_Seq_1_Offset:  Used as the offset while converting ADC counts 
 774:.\Generated_Source\PSoC4/ADC_SAR_Seq_1.c ****     *   to mVolts.
 775:.\Generated_Source\PSoC4/ADC_SAR_Seq_1.c ****     *
 776:.\Generated_Source\PSoC4/ADC_SAR_Seq_1.c ****     *******************************************************************************/
 777:.\Generated_Source\PSoC4/ADC_SAR_Seq_1.c ****     float32 ADC_SAR_Seq_1_CountsTo_Volts(uint32 chan, int16 adcCounts)
 778:.\Generated_Source\PSoC4/ADC_SAR_Seq_1.c ****     {
 1168              		.loc 1 778 0
 1169              		.cfi_startproc
 1170 0000 90B5     		push	{r4, r7, lr}
 1171              	.LCFI46:
 1172              		.cfi_def_cfa_offset 12
 1173              		.cfi_offset 4, -12
 1174              		.cfi_offset 7, -8
 1175              		.cfi_offset 14, -4
 1176 0002 85B0     		sub	sp, sp, #20
 1177              	.LCFI47:
 1178              		.cfi_def_cfa_offset 32
 1179 0004 00AF     		add	r7, sp, #0
 1180              	.LCFI48:
 1181              		.cfi_def_cfa_register 7
 1182 0006 7860     		str	r0, [r7, #4]
 1183 0008 0A1C     		mov	r2, r1
 1184 000a BB1C     		add	r3, r7, #2
 1185 000c 1A80     		strh	r2, [r3]
 779:.\Generated_Source\PSoC4/ADC_SAR_Seq_1.c ****         float32 volts;
 780:.\Generated_Source\PSoC4/ADC_SAR_Seq_1.c **** 
 781:.\Generated_Source\PSoC4/ADC_SAR_Seq_1.c ****         /* Halt CPU in debug mode if channel is out of valid range */
 782:.\Generated_Source\PSoC4/ADC_SAR_Seq_1.c ****         CYASSERT(chan < ADC_SAR_Seq_1_TOTAL_CHANNELS_NUM);
 1186              		.loc 1 782 0
 1187 000e 7B68     		ldr	r3, [r7, #4]
 1188 0010 002B     		cmp	r3, #0
 1189 0012 02D0     		beq	.L94
 1190 0014 0020     		mov	r0, #0
 1191 0016 FFF7FEFF 		bl	CyHalt
 1192              	.L94:
 783:.\Generated_Source\PSoC4/ADC_SAR_Seq_1.c **** 
 784:.\Generated_Source\PSoC4/ADC_SAR_Seq_1.c ****         /* Divide the adcCount when accumulate averaging mode selected */
 785:.\Generated_Source\PSoC4/ADC_SAR_Seq_1.c ****         #if(ADC_SAR_Seq_1_DEFAULT_AVG_MODE == ADC_SAR_Seq_1__ACCUMULATE)
 786:.\Generated_Source\PSoC4/ADC_SAR_Seq_1.c ****             if((ADC_SAR_Seq_1_channelsConfig[chan] & ADC_SAR_Seq_1_AVERAGING_EN) != 0u)
 787:.\Generated_Source\PSoC4/ADC_SAR_Seq_1.c ****             {
 788:.\Generated_Source\PSoC4/ADC_SAR_Seq_1.c ****                 adcCounts /= ADC_SAR_Seq_1_DEFAULT_AVG_SAMPLES_DIV;
 789:.\Generated_Source\PSoC4/ADC_SAR_Seq_1.c ****             }    
 790:.\Generated_Source\PSoC4/ADC_SAR_Seq_1.c ****         #endif /* ADC_SAR_Seq_1_DEFAULT_AVG_MODE == ADC_SAR_Seq_1__ACCUMULATE */
 791:.\Generated_Source\PSoC4/ADC_SAR_Seq_1.c **** 
 792:.\Generated_Source\PSoC4/ADC_SAR_Seq_1.c ****         /* Subtract ADC offset */
 793:.\Generated_Source\PSoC4/ADC_SAR_Seq_1.c ****         adcCounts -= ADC_SAR_Seq_1_offset[chan];
 1193              		.loc 1 793 0
 1194 001a BB1C     		add	r3, r7, #2
 1195 001c 1A88     		ldrh	r2, [r3]
 1196 001e 7968     		ldr	r1, [r7, #4]
 1197 0020 144B     		ldr	r3, .L96
 1198 0022 4900     		lsl	r1, r1, #1
ARM GAS  C:\Users\maxk\AppData\Local\Temp\cco4JLBC.s 			page 36


 1199 0024 CB5A     		ldrh	r3, [r1, r3]
 1200 0026 9BB2     		uxth	r3, r3
 1201 0028 9BB2     		uxth	r3, r3
 1202 002a D31A     		sub	r3, r2, r3
 1203 002c 9AB2     		uxth	r2, r3
 1204 002e BB1C     		add	r3, r7, #2
 1205 0030 1A80     		strh	r2, [r3]
 794:.\Generated_Source\PSoC4/ADC_SAR_Seq_1.c **** 
 795:.\Generated_Source\PSoC4/ADC_SAR_Seq_1.c ****         volts = ((float32)adcCounts * ADC_SAR_Seq_1_10V_COUNTS) / (float32)ADC_SAR_Seq_1_countsPer1
 1206              		.loc 1 795 0
 1207 0032 BB1C     		add	r3, r7, #2
 1208 0034 0022     		mov	r2, #0
 1209 0036 9B5E     		ldrsh	r3, [r3, r2]
 1210 0038 181C     		mov	r0, r3
 1211 003a FFF7FEFF 		bl	__aeabi_i2f
 1212 003e 031C     		add	r3, r0, #0
 1213 0040 181C     		add	r0, r3, #0
 1214 0042 0D49     		ldr	r1, .L96+4
 1215 0044 FFF7FEFF 		bl	__aeabi_fmul
 1216 0048 031C     		add	r3, r0, #0
 1217 004a 1C1C     		add	r4, r3, #0
 1218 004c 7A68     		ldr	r2, [r7, #4]
 1219 004e 0B4B     		ldr	r3, .L96+8
 1220 0050 9200     		lsl	r2, r2, #2
 1221 0052 D358     		ldr	r3, [r2, r3]
 1222 0054 181C     		mov	r0, r3
 1223 0056 FFF7FEFF 		bl	__aeabi_i2f
 1224 005a 031C     		add	r3, r0, #0
 1225 005c 201C     		add	r0, r4, #0
 1226 005e 191C     		add	r1, r3, #0
 1227 0060 FFF7FEFF 		bl	__aeabi_fdiv
 1228 0064 031C     		add	r3, r0, #0
 1229 0066 FB60     		str	r3, [r7, #12]
 796:.\Generated_Source\PSoC4/ADC_SAR_Seq_1.c **** 
 797:.\Generated_Source\PSoC4/ADC_SAR_Seq_1.c ****         return( volts );
 1230              		.loc 1 797 0
 1231 0068 FB68     		ldr	r3, [r7, #12]
 798:.\Generated_Source\PSoC4/ADC_SAR_Seq_1.c ****     }
 1232              		.loc 1 798 0
 1233 006a 181C     		add	r0, r3, #0
 1234 006c BD46     		mov	sp, r7
 1235 006e 05B0     		add	sp, sp, #20
 1236              		@ sp needed for prologue
 1237 0070 90BD     		pop	{r4, r7, pc}
 1238              	.L97:
 1239 0072 C046     		.align	2
 1240              	.L96:
 1241 0074 00000000 		.word	ADC_SAR_Seq_1_offset
 1242 0078 00002041 		.word	1092616192
 1243 007c 00000000 		.word	ADC_SAR_Seq_1_countsPer10Volt
 1244              		.cfi_endproc
 1245              	.LFE17:
 1246              		.size	ADC_SAR_Seq_1_CountsTo_Volts, .-ADC_SAR_Seq_1_CountsTo_Volts
 1247              		.text
 1248              	.Letext0: