Archive member included because of file (symbol)

.\CortexM0\ARM_GCC_441\Debug\Lab 4 ADC.a(CyLib.o)
                              .\CortexM0\ARM_GCC_441\Debug\main.o (CyDelay)
.\CortexM0\ARM_GCC_441\Debug\Lab 4 ADC.a(PWM_R.o)
                              .\CortexM0\ARM_GCC_441\Debug\LED_RGB.o (PWM_R_WriteCompare)
.\CortexM0\ARM_GCC_441\Debug\Lab 4 ADC.a(PWM_G.o)
                              .\CortexM0\ARM_GCC_441\Debug\LED_RGB.o (PWM_G_WriteCompare)
.\CortexM0\ARM_GCC_441\Debug\Lab 4 ADC.a(PWM_B.o)
                              .\CortexM0\ARM_GCC_441\Debug\LED_RGB.o (PWM_B_WriteCompare)
.\CortexM0\ARM_GCC_441\Debug\Lab 4 ADC.a(ADC_SAR_Seq_1.o)
                              .\CortexM0\ARM_GCC_441\Debug\main.o (ADC_SAR_Seq_1_Start)
.\CortexM0\ARM_GCC_441\Debug\Lab 4 ADC.a(ADC_SAR_Seq_1_INT.o)
                              .\CortexM0\ARM_GCC_441\Debug\Lab 4 ADC.a(ADC_SAR_Seq_1.o) (ADC_SAR_Seq_1_ISR)
.\CortexM0\ARM_GCC_441\Debug\Lab 4 ADC.a(cyfitter_cfg.o)
                              .\CortexM0\ARM_GCC_441\Debug\Cm0Start.o (cyfitter_cfg)
.\CortexM0\ARM_GCC_441\Debug\Lab 4 ADC.a(CyBootAsmGnu.o)
                              .\CortexM0\ARM_GCC_441\Debug\Lab 4 ADC.a(CyLib.o) (CyDelayCycles)
c:/program files (x86)/cypress/psoc creator/2.2/psoc creator/import/gnu_cs/arm/4.4.1/bin/../lib/gcc/arm-none-eabi/4.4.1/armv6-m\libgcc.a(_udivsi3.o)
                              .\CortexM0\ARM_GCC_441\Debug\LED_RGB.o (__aeabi_uidiv)
c:/program files (x86)/cypress/psoc creator/2.2/psoc creator/import/gnu_cs/arm/4.4.1/bin/../lib/gcc/arm-none-eabi/4.4.1/armv6-m\libgcc.a(_divsi3.o)
                              .\CortexM0\ARM_GCC_441\Debug\Lab 4 ADC.a(ADC_SAR_Seq_1.o) (__aeabi_idiv)
c:/program files (x86)/cypress/psoc creator/2.2/psoc creator/import/gnu_cs/arm/4.4.1/bin/../lib/gcc/arm-none-eabi/4.4.1/armv6-m\libgcc.a(_dvmd_tls.o)
                              c:/program files (x86)/cypress/psoc creator/2.2/psoc creator/import/gnu_cs/arm/4.4.1/bin/../lib/gcc/arm-none-eabi/4.4.1/armv6-m\libgcc.a(_udivsi3.o) (__aeabi_idiv0)
c:/program files (x86)/cypress/psoc creator/2.2/psoc creator/import/gnu_cs/arm/4.4.1/bin/../lib/gcc/arm-none-eabi/4.4.1/armv6-m\libgcc.a(_aeabi_ldivmod.o)
                              .\CortexM0\ARM_GCC_441\Debug\Lab 4 ADC.a(ADC_SAR_Seq_1.o) (__aeabi_ldivmod)
c:/program files (x86)/cypress/psoc creator/2.2/psoc creator/import/gnu_cs/arm/4.4.1/bin/../lib/gcc/arm-none-eabi/4.4.1/armv6-m\libgcc.a(_muldi3.o)
                              .\CortexM0\ARM_GCC_441\Debug\Lab 4 ADC.a(ADC_SAR_Seq_1.o) (__aeabi_lmul)
c:/program files (x86)/cypress/psoc creator/2.2/psoc creator/import/gnu_cs/arm/4.4.1/bin/../lib/gcc/arm-none-eabi/4.4.1/armv6-m\libgcc.a(bpabi.o)
                              c:/program files (x86)/cypress/psoc creator/2.2/psoc creator/import/gnu_cs/arm/4.4.1/bin/../lib/gcc/arm-none-eabi/4.4.1/armv6-m\libgcc.a(_aeabi_ldivmod.o) (__gnu_ldivmod_helper)
c:/program files (x86)/cypress/psoc creator/2.2/psoc creator/import/gnu_cs/arm/4.4.1/bin/../lib/gcc/arm-none-eabi/4.4.1/armv6-m\libgcc.a(divsf3.o)
                              .\CortexM0\ARM_GCC_441\Debug\Lab 4 ADC.a(ADC_SAR_Seq_1.o) (__aeabi_fdiv)
c:/program files (x86)/cypress/psoc creator/2.2/psoc creator/import/gnu_cs/arm/4.4.1/bin/../lib/gcc/arm-none-eabi/4.4.1/armv6-m\libgcc.a(mulsf3.o)
                              .\CortexM0\ARM_GCC_441\Debug\Lab 4 ADC.a(ADC_SAR_Seq_1.o) (__aeabi_fmul)
c:/program files (x86)/cypress/psoc creator/2.2/psoc creator/import/gnu_cs/arm/4.4.1/bin/../lib/gcc/arm-none-eabi/4.4.1/armv6-m\libgcc.a(floatsisf.o)
                              .\CortexM0\ARM_GCC_441\Debug\Lab 4 ADC.a(ADC_SAR_Seq_1.o) (__aeabi_i2f)
c:/program files (x86)/cypress/psoc creator/2.2/psoc creator/import/gnu_cs/arm/4.4.1/bin/../lib/gcc/arm-none-eabi/4.4.1/armv6-m\libgcc.a(_clzsi2.o)
                              c:/program files (x86)/cypress/psoc creator/2.2/psoc creator/import/gnu_cs/arm/4.4.1/bin/../lib/gcc/arm-none-eabi/4.4.1/armv6-m\libgcc.a(divsf3.o) (__clzsi2)
c:/program files (x86)/cypress/psoc creator/2.2/psoc creator/import/gnu_cs/arm/4.4.1/bin/../lib/gcc/arm-none-eabi/4.4.1/armv6-m\libgcc.a(_divdi3.o)
                              c:/program files (x86)/cypress/psoc creator/2.2/psoc creator/import/gnu_cs/arm/4.4.1/bin/../lib/gcc/arm-none-eabi/4.4.1/armv6-m\libgcc.a(bpabi.o) (__divdi3)
c:/program files (x86)/cypress/psoc creator/2.2/psoc creator/import/gnu_cs/arm/4.4.1/bin/../lib/gcc/arm-none-eabi/4.4.1/armv6-m\libgcc.a(_udivdi3.o)
                              c:/program files (x86)/cypress/psoc creator/2.2/psoc creator/import/gnu_cs/arm/4.4.1/bin/../lib/gcc/arm-none-eabi/4.4.1/armv6-m\libgcc.a(bpabi.o) (__udivdi3)
c:/program files (x86)/cypress/psoc creator/2.2/psoc creator/import/gnu_cs/arm/4.4.1/bin/../lib/gcc/arm-none-eabi/4.4.1/../../../../arm-none-eabi/lib/armv6-m\libc.a(lib_a-memcpy.o)
                              .\CortexM0\ARM_GCC_441\Debug\Lab 4 ADC.a(cyfitter_cfg.o) (memcpy)
c:/program files (x86)/cypress/psoc creator/2.2/psoc creator/import/gnu_cs/arm/4.4.1/bin/../lib/gcc/arm-none-eabi/4.4.1/../../../../arm-none-eabi/lib/armv6-m\libc.a(lib_a-memset.o)
                              .\CortexM0\ARM_GCC_441\Debug\Lab 4 ADC.a(cyfitter_cfg.o) (memset)
c:/program files (x86)/cypress/psoc creator/2.2/psoc creator/import/gnu_cs/arm/4.4.1/bin/../lib/gcc/arm-none-eabi/4.4.1/../../../../arm-none-eabi/lib/armv6-m\libcs3.a(start_c.o)
                              (__cs3_start_c)
c:/program files (x86)/cypress/psoc creator/2.2/psoc creator/import/gnu_cs/arm/4.4.1/bin/../lib/gcc/arm-none-eabi/4.4.1/../../../../arm-none-eabi/lib/armv6-m\libcs3micro.a(micro_isr_interrupt.o)
                              (__cs3_isr_nmi)
c:/program files (x86)/cypress/psoc creator/2.2/psoc creator/import/gnu_cs/arm/4.4.1/bin/../lib/gcc/arm-none-eabi/4.4.1/../../../../arm-none-eabi/lib/armv6-m\libc.a(lib_a-init.o)
                              c:/program files (x86)/cypress/psoc creator/2.2/psoc creator/import/gnu_cs/arm/4.4.1/bin/../lib/gcc/arm-none-eabi/4.4.1/../../../../arm-none-eabi/lib/armv6-m\libcs3.a(start_c.o) (__libc_init_array)

Allocating common symbols
Common symbol       size              file

ADC_SAR_Seq_1_offset
                    0x2               .\CortexM0\ARM_GCC_441\Debug\Lab 4 ADC.a(ADC_SAR_Seq_1.o)
ADC_SAR_Seq_1_countsPer10Volt
                    0x4               .\CortexM0\ARM_GCC_441\Debug\Lab 4 ADC.a(ADC_SAR_Seq_1.o)

Discarded input sections

 .text          0x00000000        0x0 c:/program files (x86)/cypress/psoc creator/2.2/psoc creator/import/gnu_cs/arm/4.4.1/bin/../lib/gcc/arm-none-eabi/4.4.1/armv6-m/crti.o
 .data          0x00000000        0x0 c:/program files (x86)/cypress/psoc creator/2.2/psoc creator/import/gnu_cs/arm/4.4.1/bin/../lib/gcc/arm-none-eabi/4.4.1/armv6-m/crti.o
 .bss           0x00000000        0x0 c:/program files (x86)/cypress/psoc creator/2.2/psoc creator/import/gnu_cs/arm/4.4.1/bin/../lib/gcc/arm-none-eabi/4.4.1/armv6-m/crti.o
 .data          0x00000000        0x4 c:/program files (x86)/cypress/psoc creator/2.2/psoc creator/import/gnu_cs/arm/4.4.1/bin/../lib/gcc/arm-none-eabi/4.4.1/armv6-m/crtbegin.o
 .text          0x00000000        0x0 .\CortexM0\ARM_GCC_441\Debug\main.o
 .data          0x00000000        0x0 .\CortexM0\ARM_GCC_441\Debug\main.o
 .bss           0x00000000        0x0 .\CortexM0\ARM_GCC_441\Debug\main.o
 .text          0x00000000        0x0 .\CortexM0\ARM_GCC_441\Debug\LED_RGB.o
 .data          0x00000000        0x0 .\CortexM0\ARM_GCC_441\Debug\LED_RGB.o
 .bss           0x00000000        0x0 .\CortexM0\ARM_GCC_441\Debug\LED_RGB.o
 .text.LED_RGB_Stop
                0x00000000       0x14 .\CortexM0\ARM_GCC_441\Debug\LED_RGB.o
 .text.LED_RGB_SetColorCircle
                0x00000000      0x180 .\CortexM0\ARM_GCC_441\Debug\LED_RGB.o
 .text.LED_RGB_SetColorCircleHSV
                0x00000000      0x1dc .\CortexM0\ARM_GCC_441\Debug\LED_RGB.o
 .text          0x00000000        0x0 .\CortexM0\ARM_GCC_441\Debug\Cm0Start.o
 .data          0x00000000        0x0 .\CortexM0\ARM_GCC_441\Debug\Cm0Start.o
 .bss           0x00000000        0x0 .\CortexM0\ARM_GCC_441\Debug\Cm0Start.o
 .text          0x00000000        0x0 .\CortexM0\ARM_GCC_441\Debug\Lab 4 ADC.a(CyLib.o)
 .bss           0x00000000        0x0 .\CortexM0\ARM_GCC_441\Debug\Lab 4 ADC.a(CyLib.o)
 .text.CySysClkImoStart
                0x00000000       0x1c .\CortexM0\ARM_GCC_441\Debug\Lab 4 ADC.a(CyLib.o)
 .text.CySysClkImoStop
                0x00000000       0x18 .\CortexM0\ARM_GCC_441\Debug\Lab 4 ADC.a(CyLib.o)
 .text.CySysClkIloStart
                0x00000000       0x1c .\CortexM0\ARM_GCC_441\Debug\Lab 4 ADC.a(CyLib.o)
 .text.CySysClkIloStop
                0x00000000       0x18 .\CortexM0\ARM_GCC_441\Debug\Lab 4 ADC.a(CyLib.o)
 .text.CySysClkWriteHfclkDirect
                0x00000000       0x2c .\CortexM0\ARM_GCC_441\Debug\Lab 4 ADC.a(CyLib.o)
 .text.CySysClkWriteSysclkDiv
                0x00000000       0x2c .\CortexM0\ARM_GCC_441\Debug\Lab 4 ADC.a(CyLib.o)
 .text.CySysClkWriteImoFreq
                0x00000000      0x200 .\CortexM0\ARM_GCC_441\Debug\Lab 4 ADC.a(CyLib.o)
 .text.CySysWdtLock
                0x00000000       0x44 .\CortexM0\ARM_GCC_441\Debug\Lab 4 ADC.a(CyLib.o)
 .text.CySysWdtUnlock
                0x00000000       0x60 .\CortexM0\ARM_GCC_441\Debug\Lab 4 ADC.a(CyLib.o)
 .text.CySysWdtReadEnabledStatus
                0x00000000       0x30 .\CortexM0\ARM_GCC_441\Debug\Lab 4 ADC.a(CyLib.o)
 .text.CySysWdtWriteMode
                0x00000000       0x70 .\CortexM0\ARM_GCC_441\Debug\Lab 4 ADC.a(CyLib.o)
 .text.CySysWdtReadMode
                0x00000000       0x24 .\CortexM0\ARM_GCC_441\Debug\Lab 4 ADC.a(CyLib.o)
 .text.CySysWdtWriteClearOnMatch
                0x00000000       0x60 .\CortexM0\ARM_GCC_441\Debug\Lab 4 ADC.a(CyLib.o)
 .text.CySysWdtReadClearOnMatch
                0x00000000       0x38 .\CortexM0\ARM_GCC_441\Debug\Lab 4 ADC.a(CyLib.o)
 .text.CySysWdtEnable
                0x00000000       0x30 .\CortexM0\ARM_GCC_441\Debug\Lab 4 ADC.a(CyLib.o)
 .text.CySysWdtDisable
                0x00000000       0x30 .\CortexM0\ARM_GCC_441\Debug\Lab 4 ADC.a(CyLib.o)
 .text.CySysWdtWriteCascade
                0x00000000       0x68 .\CortexM0\ARM_GCC_441\Debug\Lab 4 ADC.a(CyLib.o)
 .text.CySysWdtReadCascade
                0x00000000       0x1c .\CortexM0\ARM_GCC_441\Debug\Lab 4 ADC.a(CyLib.o)
 .text.CySysWdtWriteMatch
                0x00000000       0x6c .\CortexM0\ARM_GCC_441\Debug\Lab 4 ADC.a(CyLib.o)
 .text.CySysWdtWriteToggleBit
                0x00000000       0x54 .\CortexM0\ARM_GCC_441\Debug\Lab 4 ADC.a(CyLib.o)
 .text.CySysWdtReadToggleBit
                0x00000000       0x18 .\CortexM0\ARM_GCC_441\Debug\Lab 4 ADC.a(CyLib.o)
 .text.CySysWdtReadMatch
                0x00000000       0x38 .\CortexM0\ARM_GCC_441\Debug\Lab 4 ADC.a(CyLib.o)
 .text.CySysWdtReadCount
                0x00000000       0x54 .\CortexM0\ARM_GCC_441\Debug\Lab 4 ADC.a(CyLib.o)
 .text.CySysWdtGetInterruptSource
                0x00000000       0x1c .\CortexM0\ARM_GCC_441\Debug\Lab 4 ADC.a(CyLib.o)
 .text.CySysWdtClearInterrupt
                0x00000000       0xac .\CortexM0\ARM_GCC_441\Debug\Lab 4 ADC.a(CyLib.o)
 .text.CySysWdtResetCounters
                0x00000000       0x38 .\CortexM0\ARM_GCC_441\Debug\Lab 4 ADC.a(CyLib.o)
 .text.CySysLvdEnable
                0x00000000       0x48 .\CortexM0\ARM_GCC_441\Debug\Lab 4 ADC.a(CyLib.o)
 .text.CySysLvdDisable
                0x00000000       0x28 .\CortexM0\ARM_GCC_441\Debug\Lab 4 ADC.a(CyLib.o)
 .text.CySysLvdGetInterruptSource
                0x00000000       0x18 .\CortexM0\ARM_GCC_441\Debug\Lab 4 ADC.a(CyLib.o)
 .text.CySysLvdClearInterrupt
                0x00000000       0x14 .\CortexM0\ARM_GCC_441\Debug\Lab 4 ADC.a(CyLib.o)
 .text.CyDisableInts
                0x00000000       0x24 .\CortexM0\ARM_GCC_441\Debug\Lab 4 ADC.a(CyLib.o)
 .text.CyEnableInts
                0x00000000       0x18 .\CortexM0\ARM_GCC_441\Debug\Lab 4 ADC.a(CyLib.o)
 .text.CyIntSetSysVector
                0x00000000       0x48 .\CortexM0\ARM_GCC_441\Debug\Lab 4 ADC.a(CyLib.o)
 .text.CyIntGetSysVector
                0x00000000       0x34 .\CortexM0\ARM_GCC_441\Debug\Lab 4 ADC.a(CyLib.o)
 .text.CyIntGetVector
                0x00000000       0x38 .\CortexM0\ARM_GCC_441\Debug\Lab 4 ADC.a(CyLib.o)
 .text.CyIntGetPriority
                0x00000000       0x54 .\CortexM0\ARM_GCC_441\Debug\Lab 4 ADC.a(CyLib.o)
 .text.CyIntEnable
                0x00000000       0x2c .\CortexM0\ARM_GCC_441\Debug\Lab 4 ADC.a(CyLib.o)
 .text.CyIntGetState
                0x00000000       0x3c .\CortexM0\ARM_GCC_441\Debug\Lab 4 ADC.a(CyLib.o)
 .text.CyIntDisable
                0x00000000       0x2c .\CortexM0\ARM_GCC_441\Debug\Lab 4 ADC.a(CyLib.o)
 .text.CyIntSetPending
                0x00000000       0x2c .\CortexM0\ARM_GCC_441\Debug\Lab 4 ADC.a(CyLib.o)
 .text.CyIntClearPending
                0x00000000       0x2c .\CortexM0\ARM_GCC_441\Debug\Lab 4 ADC.a(CyLib.o)
 .text.CySoftwareReset
                0x00000000       0x20 .\CortexM0\ARM_GCC_441\Debug\Lab 4 ADC.a(CyLib.o)
 .text.CyDelayFreq
                0x00000000       0x80 .\CortexM0\ARM_GCC_441\Debug\Lab 4 ADC.a(CyLib.o)
 .rodata        0x00000000       0x30 .\CortexM0\ARM_GCC_441\Debug\Lab 4 ADC.a(CyLib.o)
 .text          0x00000000        0x0 .\CortexM0\ARM_GCC_441\Debug\Lab 4 ADC.a(PWM_R.o)
 .data          0x00000000        0x0 .\CortexM0\ARM_GCC_441\Debug\Lab 4 ADC.a(PWM_R.o)
 .text.PWM_R_Stop
                0x00000000       0x34 .\CortexM0\ARM_GCC_441\Debug\Lab 4 ADC.a(PWM_R.o)
 .text.PWM_R_SetMode
                0x00000000       0x48 .\CortexM0\ARM_GCC_441\Debug\Lab 4 ADC.a(PWM_R.o)
 .text.PWM_R_SetQDMode
                0x00000000       0x48 .\CortexM0\ARM_GCC_441\Debug\Lab 4 ADC.a(PWM_R.o)
 .text.PWM_R_SetPrescaler
                0x00000000       0x48 .\CortexM0\ARM_GCC_441\Debug\Lab 4 ADC.a(PWM_R.o)
 .text.PWM_R_SetOneShot
                0x00000000       0x50 .\CortexM0\ARM_GCC_441\Debug\Lab 4 ADC.a(PWM_R.o)
 .text.PWM_R_SetPWMMode
                0x00000000       0x1c .\CortexM0\ARM_GCC_441\Debug\Lab 4 ADC.a(PWM_R.o)
 .text.PWM_R_SetPWMSyncKill
                0x00000000       0x4c .\CortexM0\ARM_GCC_441\Debug\Lab 4 ADC.a(PWM_R.o)
 .text.PWM_R_SetPWMStopOnKill
                0x00000000       0x4c .\CortexM0\ARM_GCC_441\Debug\Lab 4 ADC.a(PWM_R.o)
 .text.PWM_R_SetPWMDeadTime
                0x00000000       0x50 .\CortexM0\ARM_GCC_441\Debug\Lab 4 ADC.a(PWM_R.o)
 .text.PWM_R_SetPWMInvert
                0x00000000       0x48 .\CortexM0\ARM_GCC_441\Debug\Lab 4 ADC.a(PWM_R.o)
 .text.PWM_R_WriteCounter
                0x00000000       0x1c .\CortexM0\ARM_GCC_441\Debug\Lab 4 ADC.a(PWM_R.o)
 .text.PWM_R_ReadCounter
                0x00000000       0x18 .\CortexM0\ARM_GCC_441\Debug\Lab 4 ADC.a(PWM_R.o)
 .text.PWM_R_SetCounterMode
                0x00000000       0x48 .\CortexM0\ARM_GCC_441\Debug\Lab 4 ADC.a(PWM_R.o)
 .text.PWM_R_ReadPeriod
                0x00000000       0x18 .\CortexM0\ARM_GCC_441\Debug\Lab 4 ADC.a(PWM_R.o)
 .text.PWM_R_SetCompareSwap
                0x00000000       0x48 .\CortexM0\ARM_GCC_441\Debug\Lab 4 ADC.a(PWM_R.o)
 .text.PWM_R_WritePeriodBuf
                0x00000000       0x1c .\CortexM0\ARM_GCC_441\Debug\Lab 4 ADC.a(PWM_R.o)
 .text.PWM_R_ReadPeriodBuf
                0x00000000       0x18 .\CortexM0\ARM_GCC_441\Debug\Lab 4 ADC.a(PWM_R.o)
 .text.PWM_R_SetPeriodSwap
                0x00000000       0x4c .\CortexM0\ARM_GCC_441\Debug\Lab 4 ADC.a(PWM_R.o)
 .text.PWM_R_ReadCompare
                0x00000000       0x18 .\CortexM0\ARM_GCC_441\Debug\Lab 4 ADC.a(PWM_R.o)
 .text.PWM_R_WriteCompareBuf
                0x00000000       0x1c .\CortexM0\ARM_GCC_441\Debug\Lab 4 ADC.a(PWM_R.o)
 .text.PWM_R_ReadCompareBuf
                0x00000000       0x18 .\CortexM0\ARM_GCC_441\Debug\Lab 4 ADC.a(PWM_R.o)
 .text.PWM_R_ReadCapture
                0x00000000       0x18 .\CortexM0\ARM_GCC_441\Debug\Lab 4 ADC.a(PWM_R.o)
 .text.PWM_R_ReadCaptureBuf
                0x00000000       0x18 .\CortexM0\ARM_GCC_441\Debug\Lab 4 ADC.a(PWM_R.o)
 .text.PWM_R_SetCaptureMode
                0x00000000       0x44 .\CortexM0\ARM_GCC_441\Debug\Lab 4 ADC.a(PWM_R.o)
 .text.PWM_R_SetReloadMode
                0x00000000       0x48 .\CortexM0\ARM_GCC_441\Debug\Lab 4 ADC.a(PWM_R.o)
 .text.PWM_R_SetStartMode
                0x00000000       0x4c .\CortexM0\ARM_GCC_441\Debug\Lab 4 ADC.a(PWM_R.o)
 .text.PWM_R_SetStopMode
                0x00000000       0x48 .\CortexM0\ARM_GCC_441\Debug\Lab 4 ADC.a(PWM_R.o)
 .text.PWM_R_SetCountMode
                0x00000000       0x48 .\CortexM0\ARM_GCC_441\Debug\Lab 4 ADC.a(PWM_R.o)
 .text.PWM_R_ReadStatus
                0x00000000       0x20 .\CortexM0\ARM_GCC_441\Debug\Lab 4 ADC.a(PWM_R.o)
 .text.PWM_R_GetInterruptSourceMasked
                0x00000000       0x14 .\CortexM0\ARM_GCC_441\Debug\Lab 4 ADC.a(PWM_R.o)
 .text.PWM_R_GetInterruptSource
                0x00000000       0x14 .\CortexM0\ARM_GCC_441\Debug\Lab 4 ADC.a(PWM_R.o)
 .text.PWM_R_ClearInterrupt
                0x00000000       0x18 .\CortexM0\ARM_GCC_441\Debug\Lab 4 ADC.a(PWM_R.o)
 .text.PWM_R_SetInterrupt
                0x00000000       0x18 .\CortexM0\ARM_GCC_441\Debug\Lab 4 ADC.a(PWM_R.o)
 .text          0x00000000        0x0 .\CortexM0\ARM_GCC_441\Debug\Lab 4 ADC.a(PWM_G.o)
 .data          0x00000000        0x0 .\CortexM0\ARM_GCC_441\Debug\Lab 4 ADC.a(PWM_G.o)
 .text.PWM_G_Stop
                0x00000000       0x34 .\CortexM0\ARM_GCC_441\Debug\Lab 4 ADC.a(PWM_G.o)
 .text.PWM_G_SetMode
                0x00000000       0x48 .\CortexM0\ARM_GCC_441\Debug\Lab 4 ADC.a(PWM_G.o)
 .text.PWM_G_SetQDMode
                0x00000000       0x48 .\CortexM0\ARM_GCC_441\Debug\Lab 4 ADC.a(PWM_G.o)
 .text.PWM_G_SetPrescaler
                0x00000000       0x48 .\CortexM0\ARM_GCC_441\Debug\Lab 4 ADC.a(PWM_G.o)
 .text.PWM_G_SetOneShot
                0x00000000       0x50 .\CortexM0\ARM_GCC_441\Debug\Lab 4 ADC.a(PWM_G.o)
 .text.PWM_G_SetPWMMode
                0x00000000       0x1c .\CortexM0\ARM_GCC_441\Debug\Lab 4 ADC.a(PWM_G.o)
 .text.PWM_G_SetPWMSyncKill
                0x00000000       0x4c .\CortexM0\ARM_GCC_441\Debug\Lab 4 ADC.a(PWM_G.o)
 .text.PWM_G_SetPWMStopOnKill
                0x00000000       0x4c .\CortexM0\ARM_GCC_441\Debug\Lab 4 ADC.a(PWM_G.o)
 .text.PWM_G_SetPWMDeadTime
                0x00000000       0x50 .\CortexM0\ARM_GCC_441\Debug\Lab 4 ADC.a(PWM_G.o)
 .text.PWM_G_SetPWMInvert
                0x00000000       0x48 .\CortexM0\ARM_GCC_441\Debug\Lab 4 ADC.a(PWM_G.o)
 .text.PWM_G_WriteCounter
                0x00000000       0x1c .\CortexM0\ARM_GCC_441\Debug\Lab 4 ADC.a(PWM_G.o)
 .text.PWM_G_ReadCounter
                0x00000000       0x18 .\CortexM0\ARM_GCC_441\Debug\Lab 4 ADC.a(PWM_G.o)
 .text.PWM_G_SetCounterMode
                0x00000000       0x48 .\CortexM0\ARM_GCC_441\Debug\Lab 4 ADC.a(PWM_G.o)
 .text.PWM_G_ReadPeriod
                0x00000000       0x18 .\CortexM0\ARM_GCC_441\Debug\Lab 4 ADC.a(PWM_G.o)
 .text.PWM_G_SetCompareSwap
                0x00000000       0x48 .\CortexM0\ARM_GCC_441\Debug\Lab 4 ADC.a(PWM_G.o)
 .text.PWM_G_WritePeriodBuf
                0x00000000       0x1c .\CortexM0\ARM_GCC_441\Debug\Lab 4 ADC.a(PWM_G.o)
 .text.PWM_G_ReadPeriodBuf
                0x00000000       0x18 .\CortexM0\ARM_GCC_441\Debug\Lab 4 ADC.a(PWM_G.o)
 .text.PWM_G_SetPeriodSwap
                0x00000000       0x4c .\CortexM0\ARM_GCC_441\Debug\Lab 4 ADC.a(PWM_G.o)
 .text.PWM_G_ReadCompare
                0x00000000       0x18 .\CortexM0\ARM_GCC_441\Debug\Lab 4 ADC.a(PWM_G.o)
 .text.PWM_G_WriteCompareBuf
                0x00000000       0x1c .\CortexM0\ARM_GCC_441\Debug\Lab 4 ADC.a(PWM_G.o)
 .text.PWM_G_ReadCompareBuf
                0x00000000       0x18 .\CortexM0\ARM_GCC_441\Debug\Lab 4 ADC.a(PWM_G.o)
 .text.PWM_G_ReadCapture
                0x00000000       0x18 .\CortexM0\ARM_GCC_441\Debug\Lab 4 ADC.a(PWM_G.o)
 .text.PWM_G_ReadCaptureBuf
                0x00000000       0x18 .\CortexM0\ARM_GCC_441\Debug\Lab 4 ADC.a(PWM_G.o)
 .text.PWM_G_SetCaptureMode
                0x00000000       0x44 .\CortexM0\ARM_GCC_441\Debug\Lab 4 ADC.a(PWM_G.o)
 .text.PWM_G_SetReloadMode
                0x00000000       0x48 .\CortexM0\ARM_GCC_441\Debug\Lab 4 ADC.a(PWM_G.o)
 .text.PWM_G_SetStartMode
                0x00000000       0x4c .\CortexM0\ARM_GCC_441\Debug\Lab 4 ADC.a(PWM_G.o)
 .text.PWM_G_SetStopMode
                0x00000000       0x48 .\CortexM0\ARM_GCC_441\Debug\Lab 4 ADC.a(PWM_G.o)
 .text.PWM_G_SetCountMode
                0x00000000       0x48 .\CortexM0\ARM_GCC_441\Debug\Lab 4 ADC.a(PWM_G.o)
 .text.PWM_G_ReadStatus
                0x00000000       0x20 .\CortexM0\ARM_GCC_441\Debug\Lab 4 ADC.a(PWM_G.o)
 .text.PWM_G_GetInterruptSourceMasked
                0x00000000       0x14 .\CortexM0\ARM_GCC_441\Debug\Lab 4 ADC.a(PWM_G.o)
 .text.PWM_G_GetInterruptSource
                0x00000000       0x14 .\CortexM0\ARM_GCC_441\Debug\Lab 4 ADC.a(PWM_G.o)
 .text.PWM_G_ClearInterrupt
                0x00000000       0x18 .\CortexM0\ARM_GCC_441\Debug\Lab 4 ADC.a(PWM_G.o)
 .text.PWM_G_SetInterrupt
                0x00000000       0x18 .\CortexM0\ARM_GCC_441\Debug\Lab 4 ADC.a(PWM_G.o)
 .text          0x00000000        0x0 .\CortexM0\ARM_GCC_441\Debug\Lab 4 ADC.a(PWM_B.o)
 .data          0x00000000        0x0 .\CortexM0\ARM_GCC_441\Debug\Lab 4 ADC.a(PWM_B.o)
 .text.PWM_B_Stop
                0x00000000       0x34 .\CortexM0\ARM_GCC_441\Debug\Lab 4 ADC.a(PWM_B.o)
 .text.PWM_B_SetMode
                0x00000000       0x48 .\CortexM0\ARM_GCC_441\Debug\Lab 4 ADC.a(PWM_B.o)
 .text.PWM_B_SetQDMode
                0x00000000       0x48 .\CortexM0\ARM_GCC_441\Debug\Lab 4 ADC.a(PWM_B.o)
 .text.PWM_B_SetPrescaler
                0x00000000       0x48 .\CortexM0\ARM_GCC_441\Debug\Lab 4 ADC.a(PWM_B.o)
 .text.PWM_B_SetOneShot
                0x00000000       0x50 .\CortexM0\ARM_GCC_441\Debug\Lab 4 ADC.a(PWM_B.o)
 .text.PWM_B_SetPWMMode
                0x00000000       0x1c .\CortexM0\ARM_GCC_441\Debug\Lab 4 ADC.a(PWM_B.o)
 .text.PWM_B_SetPWMSyncKill
                0x00000000       0x4c .\CortexM0\ARM_GCC_441\Debug\Lab 4 ADC.a(PWM_B.o)
 .text.PWM_B_SetPWMStopOnKill
                0x00000000       0x4c .\CortexM0\ARM_GCC_441\Debug\Lab 4 ADC.a(PWM_B.o)
 .text.PWM_B_SetPWMDeadTime
                0x00000000       0x50 .\CortexM0\ARM_GCC_441\Debug\Lab 4 ADC.a(PWM_B.o)
 .text.PWM_B_SetPWMInvert
                0x00000000       0x48 .\CortexM0\ARM_GCC_441\Debug\Lab 4 ADC.a(PWM_B.o)
 .text.PWM_B_WriteCounter
                0x00000000       0x1c .\CortexM0\ARM_GCC_441\Debug\Lab 4 ADC.a(PWM_B.o)
 .text.PWM_B_ReadCounter
                0x00000000       0x18 .\CortexM0\ARM_GCC_441\Debug\Lab 4 ADC.a(PWM_B.o)
 .text.PWM_B_SetCounterMode
                0x00000000       0x48 .\CortexM0\ARM_GCC_441\Debug\Lab 4 ADC.a(PWM_B.o)
 .text.PWM_B_ReadPeriod
                0x00000000       0x18 .\CortexM0\ARM_GCC_441\Debug\Lab 4 ADC.a(PWM_B.o)
 .text.PWM_B_SetCompareSwap
                0x00000000       0x48 .\CortexM0\ARM_GCC_441\Debug\Lab 4 ADC.a(PWM_B.o)
 .text.PWM_B_WritePeriodBuf
                0x00000000       0x1c .\CortexM0\ARM_GCC_441\Debug\Lab 4 ADC.a(PWM_B.o)
 .text.PWM_B_ReadPeriodBuf
                0x00000000       0x18 .\CortexM0\ARM_GCC_441\Debug\Lab 4 ADC.a(PWM_B.o)
 .text.PWM_B_SetPeriodSwap
                0x00000000       0x4c .\CortexM0\ARM_GCC_441\Debug\Lab 4 ADC.a(PWM_B.o)
 .text.PWM_B_ReadCompare
                0x00000000       0x18 .\CortexM0\ARM_GCC_441\Debug\Lab 4 ADC.a(PWM_B.o)
 .text.PWM_B_WriteCompareBuf
                0x00000000       0x1c .\CortexM0\ARM_GCC_441\Debug\Lab 4 ADC.a(PWM_B.o)
 .text.PWM_B_ReadCompareBuf
                0x00000000       0x18 .\CortexM0\ARM_GCC_441\Debug\Lab 4 ADC.a(PWM_B.o)
 .text.PWM_B_ReadCapture
                0x00000000       0x18 .\CortexM0\ARM_GCC_441\Debug\Lab 4 ADC.a(PWM_B.o)
 .text.PWM_B_ReadCaptureBuf
                0x00000000       0x18 .\CortexM0\ARM_GCC_441\Debug\Lab 4 ADC.a(PWM_B.o)
 .text.PWM_B_SetCaptureMode
                0x00000000       0x44 .\CortexM0\ARM_GCC_441\Debug\Lab 4 ADC.a(PWM_B.o)
 .text.PWM_B_SetReloadMode
                0x00000000       0x48 .\CortexM0\ARM_GCC_441\Debug\Lab 4 ADC.a(PWM_B.o)
 .text.PWM_B_SetStartMode
                0x00000000       0x4c .\CortexM0\ARM_GCC_441\Debug\Lab 4 ADC.a(PWM_B.o)
 .text.PWM_B_SetStopMode
                0x00000000       0x48 .\CortexM0\ARM_GCC_441\Debug\Lab 4 ADC.a(PWM_B.o)
 .text.PWM_B_SetCountMode
                0x00000000       0x48 .\CortexM0\ARM_GCC_441\Debug\Lab 4 ADC.a(PWM_B.o)
 .text.PWM_B_ReadStatus
                0x00000000       0x20 .\CortexM0\ARM_GCC_441\Debug\Lab 4 ADC.a(PWM_B.o)
 .text.PWM_B_GetInterruptSourceMasked
                0x00000000       0x14 .\CortexM0\ARM_GCC_441\Debug\Lab 4 ADC.a(PWM_B.o)
 .text.PWM_B_GetInterruptSource
                0x00000000       0x14 .\CortexM0\ARM_GCC_441\Debug\Lab 4 ADC.a(PWM_B.o)
 .text.PWM_B_ClearInterrupt
                0x00000000       0x18 .\CortexM0\ARM_GCC_441\Debug\Lab 4 ADC.a(PWM_B.o)
 .text.PWM_B_SetInterrupt
                0x00000000       0x18 .\CortexM0\ARM_GCC_441\Debug\Lab 4 ADC.a(PWM_B.o)
 .text          0x00000000        0x0 .\CortexM0\ARM_GCC_441\Debug\Lab 4 ADC.a(ADC_SAR_Seq_1.o)
 .data          0x00000000        0x0 .\CortexM0\ARM_GCC_441\Debug\Lab 4 ADC.a(ADC_SAR_Seq_1.o)
 .text.ADC_SAR_Seq_1_Stop
                0x00000000       0x18 .\CortexM0\ARM_GCC_441\Debug\Lab 4 ADC.a(ADC_SAR_Seq_1.o)
 .text.ADC_SAR_Seq_1_StopConvert
                0x00000000       0x1c .\CortexM0\ARM_GCC_441\Debug\Lab 4 ADC.a(ADC_SAR_Seq_1.o)
 .text.ADC_SAR_Seq_1_SetChanMask
                0x00000000       0x1c .\CortexM0\ARM_GCC_441\Debug\Lab 4 ADC.a(ADC_SAR_Seq_1.o)
 .text.ADC_SAR_Seq_1_SetLowLimit
                0x00000000       0x30 .\CortexM0\ARM_GCC_441\Debug\Lab 4 ADC.a(ADC_SAR_Seq_1.o)
 .text.ADC_SAR_Seq_1_SetHighLimit
                0x00000000       0x2c .\CortexM0\ARM_GCC_441\Debug\Lab 4 ADC.a(ADC_SAR_Seq_1.o)
 .text.ADC_SAR_Seq_1_SetLimitMask
                0x00000000       0x1c .\CortexM0\ARM_GCC_441\Debug\Lab 4 ADC.a(ADC_SAR_Seq_1.o)
 .text.ADC_SAR_Seq_1_SetSatMask
                0x00000000       0x1c .\CortexM0\ARM_GCC_441\Debug\Lab 4 ADC.a(ADC_SAR_Seq_1.o)
 .text.ADC_SAR_Seq_1_SetOffset
                0x00000000       0x30 .\CortexM0\ARM_GCC_441\Debug\Lab 4 ADC.a(ADC_SAR_Seq_1.o)
 .text.ADC_SAR_Seq_1_SetGain
                0x00000000       0x2c .\CortexM0\ARM_GCC_441\Debug\Lab 4 ADC.a(ADC_SAR_Seq_1.o)
 .text.ADC_SAR_Seq_1_CountsTo_mVolts
                0x00000000       0xa4 .\CortexM0\ARM_GCC_441\Debug\Lab 4 ADC.a(ADC_SAR_Seq_1.o)
 .text.ADC_SAR_Seq_1_CountsTo_uVolts
                0x00000000       0x98 .\CortexM0\ARM_GCC_441\Debug\Lab 4 ADC.a(ADC_SAR_Seq_1.o)
 .text.ADC_SAR_Seq_1_CountsTo_Volts
                0x00000000       0x80 .\CortexM0\ARM_GCC_441\Debug\Lab 4 ADC.a(ADC_SAR_Seq_1.o)
 .text          0x00000000        0x0 .\CortexM0\ARM_GCC_441\Debug\Lab 4 ADC.a(ADC_SAR_Seq_1_INT.o)
 .data          0x00000000        0x0 .\CortexM0\ARM_GCC_441\Debug\Lab 4 ADC.a(ADC_SAR_Seq_1_INT.o)
 .bss           0x00000000        0x0 .\CortexM0\ARM_GCC_441\Debug\Lab 4 ADC.a(ADC_SAR_Seq_1_INT.o)
 .text          0x00000000        0x0 .\CortexM0\ARM_GCC_441\Debug\Lab 4 ADC.a(cyfitter_cfg.o)
 .bss           0x00000000        0x0 .\CortexM0\ARM_GCC_441\Debug\Lab 4 ADC.a(cyfitter_cfg.o)
 .text.CYCONFIGCPY
                0x00000000       0x24 .\CortexM0\ARM_GCC_441\Debug\Lab 4 ADC.a(cyfitter_cfg.o)
 .text.CYCONFIGCPYCODE
                0x00000000       0x24 .\CortexM0\ARM_GCC_441\Debug\Lab 4 ADC.a(cyfitter_cfg.o)
 .data          0x00000000        0x0 .\CortexM0\ARM_GCC_441\Debug\Lab 4 ADC.a(CyBootAsmGnu.o)
 .bss           0x00000000        0x0 .\CortexM0\ARM_GCC_441\Debug\Lab 4 ADC.a(CyBootAsmGnu.o)
 .text          0x00000000       0x9c c:/program files (x86)/cypress/psoc creator/2.2/psoc creator/import/gnu_cs/arm/4.4.1/bin/../lib/gcc/arm-none-eabi/4.4.1/armv6-m\libgcc.a(_udivsi3.o)
 .data          0x00000000        0x0 c:/program files (x86)/cypress/psoc creator/2.2/psoc creator/import/gnu_cs/arm/4.4.1/bin/../lib/gcc/arm-none-eabi/4.4.1/armv6-m\libgcc.a(_udivsi3.o)
 .bss           0x00000000        0x0 c:/program files (x86)/cypress/psoc creator/2.2/psoc creator/import/gnu_cs/arm/4.4.1/bin/../lib/gcc/arm-none-eabi/4.4.1/armv6-m\libgcc.a(_udivsi3.o)
 .text          0x00000000       0xc0 c:/program files (x86)/cypress/psoc creator/2.2/psoc creator/import/gnu_cs/arm/4.4.1/bin/../lib/gcc/arm-none-eabi/4.4.1/armv6-m\libgcc.a(_divsi3.o)
 .data          0x00000000        0x0 c:/program files (x86)/cypress/psoc creator/2.2/psoc creator/import/gnu_cs/arm/4.4.1/bin/../lib/gcc/arm-none-eabi/4.4.1/armv6-m\libgcc.a(_divsi3.o)
 .bss           0x00000000        0x0 c:/program files (x86)/cypress/psoc creator/2.2/psoc creator/import/gnu_cs/arm/4.4.1/bin/../lib/gcc/arm-none-eabi/4.4.1/armv6-m\libgcc.a(_divsi3.o)
 .text          0x00000000        0x4 c:/program files (x86)/cypress/psoc creator/2.2/psoc creator/import/gnu_cs/arm/4.4.1/bin/../lib/gcc/arm-none-eabi/4.4.1/armv6-m\libgcc.a(_dvmd_tls.o)
 .data          0x00000000        0x0 c:/program files (x86)/cypress/psoc creator/2.2/psoc creator/import/gnu_cs/arm/4.4.1/bin/../lib/gcc/arm-none-eabi/4.4.1/armv6-m\libgcc.a(_dvmd_tls.o)
 .bss           0x00000000        0x0 c:/program files (x86)/cypress/psoc creator/2.2/psoc creator/import/gnu_cs/arm/4.4.1/bin/../lib/gcc/arm-none-eabi/4.4.1/armv6-m\libgcc.a(_dvmd_tls.o)
 .text          0x00000000       0x48 c:/program files (x86)/cypress/psoc creator/2.2/psoc creator/import/gnu_cs/arm/4.4.1/bin/../lib/gcc/arm-none-eabi/4.4.1/armv6-m\libgcc.a(_aeabi_ldivmod.o)
 .data          0x00000000        0x0 c:/program files (x86)/cypress/psoc creator/2.2/psoc creator/import/gnu_cs/arm/4.4.1/bin/../lib/gcc/arm-none-eabi/4.4.1/armv6-m\libgcc.a(_aeabi_ldivmod.o)
 .bss           0x00000000        0x0 c:/program files (x86)/cypress/psoc creator/2.2/psoc creator/import/gnu_cs/arm/4.4.1/bin/../lib/gcc/arm-none-eabi/4.4.1/armv6-m\libgcc.a(_aeabi_ldivmod.o)
 .text          0x00000000       0x8c c:/program files (x86)/cypress/psoc creator/2.2/psoc creator/import/gnu_cs/arm/4.4.1/bin/../lib/gcc/arm-none-eabi/4.4.1/armv6-m\libgcc.a(_muldi3.o)
 .data          0x00000000        0x0 c:/program files (x86)/cypress/psoc creator/2.2/psoc creator/import/gnu_cs/arm/4.4.1/bin/../lib/gcc/arm-none-eabi/4.4.1/armv6-m\libgcc.a(_muldi3.o)
 .bss           0x00000000        0x0 c:/program files (x86)/cypress/psoc creator/2.2/psoc creator/import/gnu_cs/arm/4.4.1/bin/../lib/gcc/arm-none-eabi/4.4.1/armv6-m\libgcc.a(_muldi3.o)
 .text          0x00000000       0x70 c:/program files (x86)/cypress/psoc creator/2.2/psoc creator/import/gnu_cs/arm/4.4.1/bin/../lib/gcc/arm-none-eabi/4.4.1/armv6-m\libgcc.a(bpabi.o)
 .data          0x00000000        0x0 c:/program files (x86)/cypress/psoc creator/2.2/psoc creator/import/gnu_cs/arm/4.4.1/bin/../lib/gcc/arm-none-eabi/4.4.1/armv6-m\libgcc.a(bpabi.o)
 .bss           0x00000000        0x0 c:/program files (x86)/cypress/psoc creator/2.2/psoc creator/import/gnu_cs/arm/4.4.1/bin/../lib/gcc/arm-none-eabi/4.4.1/armv6-m\libgcc.a(bpabi.o)
 .text          0x00000000      0x248 c:/program files (x86)/cypress/psoc creator/2.2/psoc creator/import/gnu_cs/arm/4.4.1/bin/../lib/gcc/arm-none-eabi/4.4.1/armv6-m\libgcc.a(divsf3.o)
 .data          0x00000000        0x0 c:/program files (x86)/cypress/psoc creator/2.2/psoc creator/import/gnu_cs/arm/4.4.1/bin/../lib/gcc/arm-none-eabi/4.4.1/armv6-m\libgcc.a(divsf3.o)
 .bss           0x00000000        0x0 c:/program files (x86)/cypress/psoc creator/2.2/psoc creator/import/gnu_cs/arm/4.4.1/bin/../lib/gcc/arm-none-eabi/4.4.1/armv6-m\libgcc.a(divsf3.o)
 .rodata        0x00000000       0x40 c:/program files (x86)/cypress/psoc creator/2.2/psoc creator/import/gnu_cs/arm/4.4.1/bin/../lib/gcc/arm-none-eabi/4.4.1/armv6-m\libgcc.a(divsf3.o)
 .text          0x00000000      0x224 c:/program files (x86)/cypress/psoc creator/2.2/psoc creator/import/gnu_cs/arm/4.4.1/bin/../lib/gcc/arm-none-eabi/4.4.1/armv6-m\libgcc.a(mulsf3.o)
 .data          0x00000000        0x0 c:/program files (x86)/cypress/psoc creator/2.2/psoc creator/import/gnu_cs/arm/4.4.1/bin/../lib/gcc/arm-none-eabi/4.4.1/armv6-m\libgcc.a(mulsf3.o)
 .bss           0x00000000        0x0 c:/program files (x86)/cypress/psoc creator/2.2/psoc creator/import/gnu_cs/arm/4.4.1/bin/../lib/gcc/arm-none-eabi/4.4.1/armv6-m\libgcc.a(mulsf3.o)
 .rodata        0x00000000       0x40 c:/program files (x86)/cypress/psoc creator/2.2/psoc creator/import/gnu_cs/arm/4.4.1/bin/../lib/gcc/arm-none-eabi/4.4.1/armv6-m\libgcc.a(mulsf3.o)
 .text          0x00000000       0xb4 c:/program files (x86)/cypress/psoc creator/2.2/psoc creator/import/gnu_cs/arm/4.4.1/bin/../lib/gcc/arm-none-eabi/4.4.1/armv6-m\libgcc.a(floatsisf.o)
 .data          0x00000000        0x0 c:/program files (x86)/cypress/psoc creator/2.2/psoc creator/import/gnu_cs/arm/4.4.1/bin/../lib/gcc/arm-none-eabi/4.4.1/armv6-m\libgcc.a(floatsisf.o)
 .bss           0x00000000        0x0 c:/program files (x86)/cypress/psoc creator/2.2/psoc creator/import/gnu_cs/arm/4.4.1/bin/../lib/gcc/arm-none-eabi/4.4.1/armv6-m\libgcc.a(floatsisf.o)
 .text          0x00000000       0x3c c:/program files (x86)/cypress/psoc creator/2.2/psoc creator/import/gnu_cs/arm/4.4.1/bin/../lib/gcc/arm-none-eabi/4.4.1/armv6-m\libgcc.a(_clzsi2.o)
 .data          0x00000000        0x0 c:/program files (x86)/cypress/psoc creator/2.2/psoc creator/import/gnu_cs/arm/4.4.1/bin/../lib/gcc/arm-none-eabi/4.4.1/armv6-m\libgcc.a(_clzsi2.o)
 .bss           0x00000000        0x0 c:/program files (x86)/cypress/psoc creator/2.2/psoc creator/import/gnu_cs/arm/4.4.1/bin/../lib/gcc/arm-none-eabi/4.4.1/armv6-m\libgcc.a(_clzsi2.o)
 .text          0x00000000      0x388 c:/program files (x86)/cypress/psoc creator/2.2/psoc creator/import/gnu_cs/arm/4.4.1/bin/../lib/gcc/arm-none-eabi/4.4.1/armv6-m\libgcc.a(_divdi3.o)
 .data          0x00000000        0x0 c:/program files (x86)/cypress/psoc creator/2.2/psoc creator/import/gnu_cs/arm/4.4.1/bin/../lib/gcc/arm-none-eabi/4.4.1/armv6-m\libgcc.a(_divdi3.o)
 .bss           0x00000000        0x0 c:/program files (x86)/cypress/psoc creator/2.2/psoc creator/import/gnu_cs/arm/4.4.1/bin/../lib/gcc/arm-none-eabi/4.4.1/armv6-m\libgcc.a(_divdi3.o)
 .ARM.extab     0x00000000        0x0 c:/program files (x86)/cypress/psoc creator/2.2/psoc creator/import/gnu_cs/arm/4.4.1/bin/../lib/gcc/arm-none-eabi/4.4.1/armv6-m\libgcc.a(_divdi3.o)
 .ARM.exidx     0x00000000        0x8 c:/program files (x86)/cypress/psoc creator/2.2/psoc creator/import/gnu_cs/arm/4.4.1/bin/../lib/gcc/arm-none-eabi/4.4.1/armv6-m\libgcc.a(_divdi3.o)
 .text          0x00000000      0x338 c:/program files (x86)/cypress/psoc creator/2.2/psoc creator/import/gnu_cs/arm/4.4.1/bin/../lib/gcc/arm-none-eabi/4.4.1/armv6-m\libgcc.a(_udivdi3.o)
 .data          0x00000000        0x0 c:/program files (x86)/cypress/psoc creator/2.2/psoc creator/import/gnu_cs/arm/4.4.1/bin/../lib/gcc/arm-none-eabi/4.4.1/armv6-m\libgcc.a(_udivdi3.o)
 .bss           0x00000000        0x0 c:/program files (x86)/cypress/psoc creator/2.2/psoc creator/import/gnu_cs/arm/4.4.1/bin/../lib/gcc/arm-none-eabi/4.4.1/armv6-m\libgcc.a(_udivdi3.o)
 .ARM.extab     0x00000000        0x0 c:/program files (x86)/cypress/psoc creator/2.2/psoc creator/import/gnu_cs/arm/4.4.1/bin/../lib/gcc/arm-none-eabi/4.4.1/armv6-m\libgcc.a(_udivdi3.o)
 .ARM.exidx     0x00000000        0x8 c:/program files (x86)/cypress/psoc creator/2.2/psoc creator/import/gnu_cs/arm/4.4.1/bin/../lib/gcc/arm-none-eabi/4.4.1/armv6-m\libgcc.a(_udivdi3.o)
 .text          0x00000000      0x100 c:/program files (x86)/cypress/psoc creator/2.2/psoc creator/import/gnu_cs/arm/4.4.1/bin/../lib/gcc/arm-none-eabi/4.4.1/../../../../arm-none-eabi/lib/armv6-m\libc.a(lib_a-memcpy.o)
 .data          0x00000000        0x0 c:/program files (x86)/cypress/psoc creator/2.2/psoc creator/import/gnu_cs/arm/4.4.1/bin/../lib/gcc/arm-none-eabi/4.4.1/../../../../arm-none-eabi/lib/armv6-m\libc.a(lib_a-memcpy.o)
 .bss           0x00000000        0x0 c:/program files (x86)/cypress/psoc creator/2.2/psoc creator/import/gnu_cs/arm/4.4.1/bin/../lib/gcc/arm-none-eabi/4.4.1/../../../../arm-none-eabi/lib/armv6-m\libc.a(lib_a-memcpy.o)
 .data          0x00000000        0x0 c:/program files (x86)/cypress/psoc creator/2.2/psoc creator/import/gnu_cs/arm/4.4.1/bin/../lib/gcc/arm-none-eabi/4.4.1/../../../../arm-none-eabi/lib/armv6-m\libc.a(lib_a-memset.o)
 .bss           0x00000000        0x0 c:/program files (x86)/cypress/psoc creator/2.2/psoc creator/import/gnu_cs/arm/4.4.1/bin/../lib/gcc/arm-none-eabi/4.4.1/../../../../arm-none-eabi/lib/armv6-m\libc.a(lib_a-memset.o)
 .text          0x00000000        0x0 c:/program files (x86)/cypress/psoc creator/2.2/psoc creator/import/gnu_cs/arm/4.4.1/bin/../lib/gcc/arm-none-eabi/4.4.1/armv6-m/crtend.o
 .data          0x00000000        0x0 c:/program files (x86)/cypress/psoc creator/2.2/psoc creator/import/gnu_cs/arm/4.4.1/bin/../lib/gcc/arm-none-eabi/4.4.1/armv6-m/crtend.o
 .bss           0x00000000        0x0 c:/program files (x86)/cypress/psoc creator/2.2/psoc creator/import/gnu_cs/arm/4.4.1/bin/../lib/gcc/arm-none-eabi/4.4.1/armv6-m/crtend.o
 .text          0x00000000        0x0 c:/program files (x86)/cypress/psoc creator/2.2/psoc creator/import/gnu_cs/arm/4.4.1/bin/../lib/gcc/arm-none-eabi/4.4.1/armv6-m/crtn.o
 .data          0x00000000        0x0 c:/program files (x86)/cypress/psoc creator/2.2/psoc creator/import/gnu_cs/arm/4.4.1/bin/../lib/gcc/arm-none-eabi/4.4.1/armv6-m/crtn.o
 .bss           0x00000000        0x0 c:/program files (x86)/cypress/psoc creator/2.2/psoc creator/import/gnu_cs/arm/4.4.1/bin/../lib/gcc/arm-none-eabi/4.4.1/armv6-m/crtn.o
 .data          0x00000000        0x0 c:/program files (x86)/cypress/psoc creator/2.2/psoc creator/import/gnu_cs/arm/4.4.1/bin/../lib/gcc/arm-none-eabi/4.4.1/../../../../arm-none-eabi/lib/armv6-m\libcs3.a(start_c.o)
 .bss           0x00000000        0x0 c:/program files (x86)/cypress/psoc creator/2.2/psoc creator/import/gnu_cs/arm/4.4.1/bin/../lib/gcc/arm-none-eabi/4.4.1/../../../../arm-none-eabi/lib/armv6-m\libcs3.a(start_c.o)
 .data          0x00000000        0x0 c:/program files (x86)/cypress/psoc creator/2.2/psoc creator/import/gnu_cs/arm/4.4.1/bin/../lib/gcc/arm-none-eabi/4.4.1/../../../../arm-none-eabi/lib/armv6-m\libcs3micro.a(micro_isr_interrupt.o)
 .bss           0x00000000        0x0 c:/program files (x86)/cypress/psoc creator/2.2/psoc creator/import/gnu_cs/arm/4.4.1/bin/../lib/gcc/arm-none-eabi/4.4.1/../../../../arm-none-eabi/lib/armv6-m\libcs3micro.a(micro_isr_interrupt.o)
 .data          0x00000000        0x0 c:/program files (x86)/cypress/psoc creator/2.2/psoc creator/import/gnu_cs/arm/4.4.1/bin/../lib/gcc/arm-none-eabi/4.4.1/../../../../arm-none-eabi/lib/armv6-m\libc.a(lib_a-init.o)
 .bss           0x00000000        0x0 c:/program files (x86)/cypress/psoc creator/2.2/psoc creator/import/gnu_cs/arm/4.4.1/bin/../lib/gcc/arm-none-eabi/4.4.1/../../../../arm-none-eabi/lib/armv6-m\libc.a(lib_a-init.o)

Memory Configuration

Name             Origin             Length             Attributes
rom              0x00000000         0x00008000         xr
ram              0x20000000         0x00000b00         xrw
*default*        0x00000000         0xffffffff

Linker script and memory map

LOAD c:/program files (x86)/cypress/psoc creator/2.2/psoc creator/import/gnu_cs/arm/4.4.1/bin/../lib/gcc/arm-none-eabi/4.4.1/armv6-m/crti.o
LOAD c:/program files (x86)/cypress/psoc creator/2.2/psoc creator/import/gnu_cs/arm/4.4.1/bin/../lib/gcc/arm-none-eabi/4.4.1/armv6-m/crtbegin.o
START GROUP
LOAD .\CortexM0\ARM_GCC_441\Debug\main.o
LOAD .\CortexM0\ARM_GCC_441\Debug\LED_RGB.o
LOAD .\CortexM0\ARM_GCC_441\Debug\Cm0Start.o
LOAD .\CortexM0\ARM_GCC_441\Debug\Lab 4 ADC.a
LOAD C:\Program Files (x86)\Cypress\PSoC Creator\2.2\PSoC Creator\psoc\content\cycomponentlibrary\CyComponentLibrary.cylib\CortexM0\ARM_GCC_441\Debug\CyComponentLibrary.a
END GROUP
START GROUP
LOAD c:/program files (x86)/cypress/psoc creator/2.2/psoc creator/import/gnu_cs/arm/4.4.1/bin/../lib/gcc/arm-none-eabi/4.4.1/armv6-m\libgcc.a
LOAD c:/program files (x86)/cypress/psoc creator/2.2/psoc creator/import/gnu_cs/arm/4.4.1/bin/../lib/gcc/arm-none-eabi/4.4.1/../../../../arm-none-eabi/lib/armv6-m\libc.a
END GROUP
LOAD c:/program files (x86)/cypress/psoc creator/2.2/psoc creator/import/gnu_cs/arm/4.4.1/bin/../lib/gcc/arm-none-eabi/4.4.1/armv6-m/crtend.o
LOAD c:/program files (x86)/cypress/psoc creator/2.2/psoc creator/import/gnu_cs/arm/4.4.1/bin/../lib/gcc/arm-none-eabi/4.4.1/armv6-m/crtn.o
START GROUP
LOAD c:/program files (x86)/cypress/psoc creator/2.2/psoc creator/import/gnu_cs/arm/4.4.1/bin/../lib/gcc/arm-none-eabi/4.4.1/armv6-m\libgcc.a
LOAD c:/program files (x86)/cypress/psoc creator/2.2/psoc creator/import/gnu_cs/arm/4.4.1/bin/../lib/gcc/arm-none-eabi/4.4.1/../../../../arm-none-eabi/lib/armv6-m\libc.a
LOAD c:/program files (x86)/cypress/psoc creator/2.2/psoc creator/import/gnu_cs/arm/4.4.1/bin/../lib/gcc/arm-none-eabi/4.4.1/../../../../arm-none-eabi/lib/armv6-m\libcs3.a
LOAD c:/program files (x86)/cypress/psoc creator/2.2/psoc creator/import/gnu_cs/arm/4.4.1/bin/../lib/gcc/arm-none-eabi/4.4.1/../../../../arm-none-eabi/lib/armv6-m\libcs3unhosted.a
LOAD c:/program files (x86)/cypress/psoc creator/2.2/psoc creator/import/gnu_cs/arm/4.4.1/bin/../lib/gcc/arm-none-eabi/4.4.1/../../../../arm-none-eabi/lib/armv6-m\libcs3micro.a
END GROUP
                0x200000f0                PROVIDE (__cs3_heap_start, _end)
                0x00000001                PROVIDE (__cs3_region_num, ((__cs3_regions_end - __cs3_regions) / 0x14))
                0x20001000                PROVIDE (__cs3_stack, 0x20001000)
                0x20000c00                PROVIDE (__cs3_heap_end, (__cs3_stack - 0x400))

.text           0x00000000      0xea4
 CREATE_OBJECT_SYMBOLS
                0x00000000                PROVIDE (__cs3_interrupt_vector, RomVectors)
 *(.romvectors)
 .romvectors    0x00000000       0x10 .\CortexM0\ARM_GCC_441\Debug\Cm0Start.o
                0x00000000                RomVectors
 *(.cs3.interrupt_vector)
                0x00000001                ASSERT ((. != __cs3_interrupt_vector), No interrupt vector)
                0x00000460                PROVIDE (__cs3_reset, Reset)
 *(.cs3.reset)
                0x00000001                ASSERT ((. != __cs3_reset), No reset code)
 *(.text.cs3.init)
 .text.cs3.init
                0x00000010       0x50 c:/program files (x86)/cypress/psoc creator/2.2/psoc creator/import/gnu_cs/arm/4.4.1/bin/../lib/gcc/arm-none-eabi/4.4.1/../../../../arm-none-eabi/lib/armv6-m\libcs3.a(start_c.o)
                0x00000010                __cs3_start_c
 *(.psocinit)
 .psocinit      0x00000060      0x2e4 .\CortexM0\ARM_GCC_441\Debug\Lab 4 ADC.a(cyfitter_cfg.o)
                0x000001c4                cyfitter_cfg
                0x00000344                . = (. MAX 0x100)
 *(.text .text.* .gnu.linkonce.t.*)
 .text          0x00000344       0x30 c:/program files (x86)/cypress/psoc creator/2.2/psoc creator/import/gnu_cs/arm/4.4.1/bin/../lib/gcc/arm-none-eabi/4.4.1/armv6-m/crtbegin.o
 .text.main     0x00000374       0x48 .\CortexM0\ARM_GCC_441\Debug\main.o
                0x00000374                main
 .text.LED_RGB_Start
                0x000003bc       0x14 .\CortexM0\ARM_GCC_441\Debug\LED_RGB.o
                0x000003bc                LED_RGB_Start
 .text.LED_RGB_DCWrite
                0x000003d0       0x4c .\CortexM0\ARM_GCC_441\Debug\LED_RGB.o
                0x000003d0                LED_RGB_DCWrite
 .text.LED_RGB_SetColorRGB
                0x0000041c       0x3c .\CortexM0\ARM_GCC_441\Debug\LED_RGB.o
                0x0000041c                LED_RGB_SetColorRGB
 .text.IntDefaultHandler
                0x00000458        0x8 .\CortexM0\ARM_GCC_441\Debug\Cm0Start.o
                0x00000458                IntDefaultHandler
 .text.Reset    0x00000460       0x10 .\CortexM0\ARM_GCC_441\Debug\Cm0Start.o
                0x00000460                Reset
 .text.initialize_psoc
                0x00000470       0x5c .\CortexM0\ARM_GCC_441\Debug\Cm0Start.o
                0x00000470                initialize_psoc
 .text.CyIntSetVector
                0x000004cc       0x4c .\CortexM0\ARM_GCC_441\Debug\Lab 4 ADC.a(CyLib.o)
                0x000004cc                CyIntSetVector
 .text.CyIntSetPriority
                0x00000518       0xa8 .\CortexM0\ARM_GCC_441\Debug\Lab 4 ADC.a(CyLib.o)
                0x00000518                CyIntSetPriority
 .text.CyHalt   0x000005c0       0x14 .\CortexM0\ARM_GCC_441\Debug\Lab 4 ADC.a(CyLib.o)
                0x000005c0                CyHalt
 .text.CyDelay  0x000005d4       0x48 .\CortexM0\ARM_GCC_441\Debug\Lab 4 ADC.a(CyLib.o)
                0x000005d4                CyDelay
 .text.CyDelayUs
                0x0000061c       0x28 .\CortexM0\ARM_GCC_441\Debug\Lab 4 ADC.a(CyLib.o)
                0x0000061c                CyDelayUs
 .text.PWM_R_Init
                0x00000644       0x54 .\CortexM0\ARM_GCC_441\Debug\Lab 4 ADC.a(PWM_R.o)
                0x00000644                PWM_R_Init
 .text.PWM_R_Enable
                0x00000698       0x3c .\CortexM0\ARM_GCC_441\Debug\Lab 4 ADC.a(PWM_R.o)
                0x00000698                PWM_R_Enable
 .text.PWM_R_Start
                0x000006d4       0x24 .\CortexM0\ARM_GCC_441\Debug\Lab 4 ADC.a(PWM_R.o)
                0x000006d4                PWM_R_Start
 .text.PWM_R_WritePeriod
                0x000006f8       0x1c .\CortexM0\ARM_GCC_441\Debug\Lab 4 ADC.a(PWM_R.o)
                0x000006f8                PWM_R_WritePeriod
 .text.PWM_R_WriteCompare
                0x00000714       0x1c .\CortexM0\ARM_GCC_441\Debug\Lab 4 ADC.a(PWM_R.o)
                0x00000714                PWM_R_WriteCompare
 .text.PWM_R_TriggerCommand
                0x00000730       0x3c .\CortexM0\ARM_GCC_441\Debug\Lab 4 ADC.a(PWM_R.o)
                0x00000730                PWM_R_TriggerCommand
 .text.PWM_R_SetInterruptMode
                0x0000076c       0x18 .\CortexM0\ARM_GCC_441\Debug\Lab 4 ADC.a(PWM_R.o)
                0x0000076c                PWM_R_SetInterruptMode
 .text.PWM_G_Init
                0x00000784       0x54 .\CortexM0\ARM_GCC_441\Debug\Lab 4 ADC.a(PWM_G.o)
                0x00000784                PWM_G_Init
 .text.PWM_G_Enable
                0x000007d8       0x3c .\CortexM0\ARM_GCC_441\Debug\Lab 4 ADC.a(PWM_G.o)
                0x000007d8                PWM_G_Enable
 .text.PWM_G_Start
                0x00000814       0x24 .\CortexM0\ARM_GCC_441\Debug\Lab 4 ADC.a(PWM_G.o)
                0x00000814                PWM_G_Start
 .text.PWM_G_WritePeriod
                0x00000838       0x1c .\CortexM0\ARM_GCC_441\Debug\Lab 4 ADC.a(PWM_G.o)
                0x00000838                PWM_G_WritePeriod
 .text.PWM_G_WriteCompare
                0x00000854       0x1c .\CortexM0\ARM_GCC_441\Debug\Lab 4 ADC.a(PWM_G.o)
                0x00000854                PWM_G_WriteCompare
 .text.PWM_G_TriggerCommand
                0x00000870       0x3c .\CortexM0\ARM_GCC_441\Debug\Lab 4 ADC.a(PWM_G.o)
                0x00000870                PWM_G_TriggerCommand
 .text.PWM_G_SetInterruptMode
                0x000008ac       0x18 .\CortexM0\ARM_GCC_441\Debug\Lab 4 ADC.a(PWM_G.o)
                0x000008ac                PWM_G_SetInterruptMode
 .text.PWM_B_Init
                0x000008c4       0x54 .\CortexM0\ARM_GCC_441\Debug\Lab 4 ADC.a(PWM_B.o)
                0x000008c4                PWM_B_Init
 .text.PWM_B_Enable
                0x00000918       0x3c .\CortexM0\ARM_GCC_441\Debug\Lab 4 ADC.a(PWM_B.o)
                0x00000918                PWM_B_Enable
 .text.PWM_B_Start
                0x00000954       0x24 .\CortexM0\ARM_GCC_441\Debug\Lab 4 ADC.a(PWM_B.o)
                0x00000954                PWM_B_Start
 .text.PWM_B_WritePeriod
                0x00000978       0x1c .\CortexM0\ARM_GCC_441\Debug\Lab 4 ADC.a(PWM_B.o)
                0x00000978                PWM_B_WritePeriod
 .text.PWM_B_WriteCompare
                0x00000994       0x1c .\CortexM0\ARM_GCC_441\Debug\Lab 4 ADC.a(PWM_B.o)
                0x00000994                PWM_B_WriteCompare
 .text.PWM_B_TriggerCommand
                0x000009b0       0x3c .\CortexM0\ARM_GCC_441\Debug\Lab 4 ADC.a(PWM_B.o)
                0x000009b0                PWM_B_TriggerCommand
 .text.PWM_B_SetInterruptMode
                0x000009ec       0x18 .\CortexM0\ARM_GCC_441\Debug\Lab 4 ADC.a(PWM_B.o)
                0x000009ec                PWM_B_SetInterruptMode
 .text.ADC_SAR_Seq_1_Start
                0x00000a04       0x24 .\CortexM0\ARM_GCC_441\Debug\Lab 4 ADC.a(ADC_SAR_Seq_1.o)
                0x00000a04                ADC_SAR_Seq_1_Start
 .text.ADC_SAR_Seq_1_Init
                0x00000a28      0x1a8 .\CortexM0\ARM_GCC_441\Debug\Lab 4 ADC.a(ADC_SAR_Seq_1.o)
                0x00000a28                ADC_SAR_Seq_1_Init
 .text.ADC_SAR_Seq_1_Enable
                0x00000bd0       0x20 .\CortexM0\ARM_GCC_441\Debug\Lab 4 ADC.a(ADC_SAR_Seq_1.o)
                0x00000bd0                ADC_SAR_Seq_1_Enable
 .text.ADC_SAR_Seq_1_StartConvert
                0x00000bf0       0x1c .\CortexM0\ARM_GCC_441\Debug\Lab 4 ADC.a(ADC_SAR_Seq_1.o)
                0x00000bf0                ADC_SAR_Seq_1_StartConvert
 .text.ADC_SAR_Seq_1_IsEndConversion
                0x00000c0c       0x4c .\CortexM0\ARM_GCC_441\Debug\Lab 4 ADC.a(ADC_SAR_Seq_1.o)
                0x00000c0c                ADC_SAR_Seq_1_IsEndConversion
 .text.ADC_SAR_Seq_1_GetResult16
                0x00000c58       0x44 .\CortexM0\ARM_GCC_441\Debug\Lab 4 ADC.a(ADC_SAR_Seq_1.o)
                0x00000c58                ADC_SAR_Seq_1_GetResult16
 .text.ADC_SAR_Seq_1_ISR
                0x00000c9c       0x1c .\CortexM0\ARM_GCC_441\Debug\Lab 4 ADC.a(ADC_SAR_Seq_1_INT.o)
                0x00000c9c                ADC_SAR_Seq_1_ISR
 .text.CYMEMZERO
                0x00000cb8       0x20 .\CortexM0\ARM_GCC_441\Debug\Lab 4 ADC.a(cyfitter_cfg.o)
 .text.cfg_write_bytes32
                0x00000cd8       0x80 .\CortexM0\ARM_GCC_441\Debug\Lab 4 ADC.a(cyfitter_cfg.o)
 .text.AnalogSetDefault
                0x00000d58       0x14 .\CortexM0\ARM_GCC_441\Debug\Lab 4 ADC.a(cyfitter_cfg.o)
 *fill*         0x00000d6c        0x4 00
 .text          0x00000d70       0x20 .\CortexM0\ARM_GCC_441\Debug\Lab 4 ADC.a(CyBootAsmGnu.o)
                0x00000d70                CyDelayCycles
                0x00000d82                CyEnterCriticalSection
                0x00000d8a                CyExitCriticalSection
 .text          0x00000d90       0x8c c:/program files (x86)/cypress/psoc creator/2.2/psoc creator/import/gnu_cs/arm/4.4.1/bin/../lib/gcc/arm-none-eabi/4.4.1/../../../../arm-none-eabi/lib/armv6-m\libc.a(lib_a-memset.o)
                0x00000d90                memset
 .text          0x00000e1c       0x3c c:/program files (x86)/cypress/psoc creator/2.2/psoc creator/import/gnu_cs/arm/4.4.1/bin/../lib/gcc/arm-none-eabi/4.4.1/../../../../arm-none-eabi/lib/armv6-m\libcs3.a(start_c.o)
                0x00000e1c                __cs3_premain
 .text          0x00000e58        0x2 c:/program files (x86)/cypress/psoc creator/2.2/psoc creator/import/gnu_cs/arm/4.4.1/bin/../lib/gcc/arm-none-eabi/4.4.1/../../../../arm-none-eabi/lib/armv6-m\libcs3micro.a(micro_isr_interrupt.o)
                0x00000e58                __cs3_isr_external_24
                0x00000e58                __cs3_isr_external_9
                0x00000e58                __cs3_isr_external_14
                0x00000e58                __cs3_isr_reserved_9
                0x00000e58                __cs3_isr_external_4
                0x00000e58                __cs3_isr_external_21
                0x00000e58                __cs3_isr_external_0
                0x00000e58                __cs3_isr_external_27
                0x00000e58                __cs3_isr_external_11
                0x00000e58                __cs3_isr_usage_fault
                0x00000e58                __cs3_isr_svcall
                0x00000e58                __cs3_isr_external_3
                0x00000e58                __cs3_isr_mpu_fault
                0x00000e58                __cs3_isr_external_16
                0x00000e58                __cs3_isr_pendsv
                0x00000e58                __cs3_isr_external_31
                0x00000e58                __cs3_isr_nmi
                0x00000e58                __cs3_isr_external_5
                0x00000e58                __cs3_isr_external_6
                0x00000e58                __cs3_isr_external_12
                0x00000e58                __cs3_isr_hard_fault
                0x00000e58                __cs3_isr_bus_fault
                0x00000e58                __cs3_isr_external_1
                0x00000e58                __cs3_isr_external_13
                0x00000e58                __cs3_isr_external_30
                0x00000e58                __cs3_isr_external_23
                0x00000e58                __cs3_isr_external_20
                0x00000e58                __cs3_isr_debug
                0x00000e58                __cs3_isr_reserved_13
                0x00000e58                __cs3_isr_external_8
                0x00000e58                __cs3_isr_external_26
                0x00000e58                __cs3_isr_reserved_8
                0x00000e58                __cs3_isr_reserved_7
                0x00000e58                __cs3_isr_external_7
                0x00000e58                __cs3_isr_external_28
                0x00000e58                __cs3_isr_systick
                0x00000e58                __cs3_isr_external_22
                0x00000e58                __cs3_isr_external_10
                0x00000e58                __cs3_isr_external_15
                0x00000e58                __cs3_isr_interrupt
                0x00000e58                __cs3_isr_external_18
                0x00000e58                __cs3_isr_external_29
                0x00000e58                __cs3_isr_external_25
                0x00000e58                __cs3_isr_reserved_10
                0x00000e58                __cs3_isr_external_2
                0x00000e58                __cs3_isr_external_17
                0x00000e58                __cs3_isr_external_19
 *fill*         0x00000e5a        0x2 00
 .text          0x00000e5c       0x48 c:/program files (x86)/cypress/psoc creator/2.2/psoc creator/import/gnu_cs/arm/4.4.1/bin/../lib/gcc/arm-none-eabi/4.4.1/../../../../arm-none-eabi/lib/armv6-m\libc.a(lib_a-init.o)
                0x00000e5c                __libc_init_array
 *(.plt)
 *(.gnu.warning)
 *(.glue_7t)
 .glue_7t       0x00000000        0x0 linker stubs
 *(.glue_7)
 .glue_7        0x00000000        0x0 linker stubs
 *(.vfp11_veneer)
 .vfp11_veneer  0x00000000        0x0 linker stubs
 *(.bootloader)
 *(.ARM.extab* .gnu.linkonce.armextab.*)
 *(.gcc_except_table)

.v4_bx          0x00000ea4        0x0
 .v4_bx         0x00000000        0x0 linker stubs

.eh_frame_hdr
 *(.eh_frame_hdr)

.eh_frame
 *(.eh_frame)
                0x00000ea4                PROVIDE (__exidx_start, .)

.ARM.exidx
 *(.ARM.exidx* .gnu.linkonce.armexidx.*)
                0x00000ea4                __exidx_end = .

.rodata         0x00000ea4       0x8c
 *(.rodata .rodata.* .gnu.linkonce.r.*)
 .rodata        0x00000ea4        0x4 .\CortexM0\ARM_GCC_441\Debug\Lab 4 ADC.a(ADC_SAR_Seq_1.o)
 .rodata        0x00000ea8       0x4c .\CortexM0\ARM_GCC_441\Debug\Lab 4 ADC.a(cyfitter_cfg.o)
                0x00000ef4                . = ALIGN (0x4)
 *(.init)
 .init          0x00000ef4        0x4 c:/program files (x86)/cypress/psoc creator/2.2/psoc creator/import/gnu_cs/arm/4.4.1/bin/../lib/gcc/arm-none-eabi/4.4.1/armv6-m/crti.o
                0x00000ef4                _init
 .init          0x00000ef8        0x8 c:/program files (x86)/cypress/psoc creator/2.2/psoc creator/import/gnu_cs/arm/4.4.1/bin/../lib/gcc/arm-none-eabi/4.4.1/armv6-m/crtn.o
                0x00000f00                . = ALIGN (0x4)
                0x00000f00                __preinit_array_start = .
 *(.preinit_array)
                0x00000f00                __preinit_array_end = .
                0x00000f00                . = ALIGN (0x4)
                0x00000f00                __init_array_start = .
 *(SORT(.init_array.*))
 *(.init_array)
 .init_array    0x00000f00        0x4 c:/program files (x86)/cypress/psoc creator/2.2/psoc creator/import/gnu_cs/arm/4.4.1/bin/../lib/gcc/arm-none-eabi/4.4.1/armv6-m/crtbegin.o
 .init_array    0x00000f04        0x4 .\CortexM0\ARM_GCC_441\Debug\Cm0Start.o
                0x00000f08                __init_array_end = .
                0x00000f08                . = ALIGN (0x4)
 *(.fini)
 .fini          0x00000f08        0x4 c:/program files (x86)/cypress/psoc creator/2.2/psoc creator/import/gnu_cs/arm/4.4.1/bin/../lib/gcc/arm-none-eabi/4.4.1/armv6-m/crti.o
                0x00000f08                _fini
 .fini          0x00000f0c        0x8 c:/program files (x86)/cypress/psoc creator/2.2/psoc creator/import/gnu_cs/arm/4.4.1/bin/../lib/gcc/arm-none-eabi/4.4.1/armv6-m/crtn.o
                0x00000f14                . = ALIGN (0x4)
                0x00000f14                __fini_array_start = .
 *(.fini_array)
 .fini_array    0x00000f14        0x4 c:/program files (x86)/cypress/psoc creator/2.2/psoc creator/import/gnu_cs/arm/4.4.1/bin/../lib/gcc/arm-none-eabi/4.4.1/armv6-m/crtbegin.o
 *(SORT(.fini_array.*))
                0x00000f18                __fini_array_end = .
                0x00000f18                . = ALIGN (0x4)
 *crtbegin.o(.ctors)
 *(EXCLUDE_FILE(*crtend.o) .ctors)
 *(SORT(.ctors.*))
 *crtend.o(.ctors)
                0x00000f18                . = ALIGN (0x4)
 *crtbegin.o(.dtors)
 *(EXCLUDE_FILE(*crtend.o) .dtors)
 *(SORT(.dtors.*))
 *crtend.o(.dtors)
                0x00000f18                . = ALIGN (0x4)
                0x00000f18                __cs3_regions = .
                0x00000f18        0x4 LONG 0x0
                0x00000f1c        0x4 LONG 0xf30 __cs3_region_init_ram
                0x00000f20        0x4 LONG 0x200000c8 __cs3_region_start_data
                0x00000f24        0x4 LONG 0x18 __cs3_region_init_size_ram
                0x00000f28        0x4 LONG 0x10 __cs3_region_zero_size_ram
                0x00000f2c                __cs3_regions_end = .
                0x00000f30                . = ALIGN (0x8)
 *fill*         0x00000f2c        0x4 00
                0x00000f30                _etext = .

.ramvectors     0x20000000       0xc0
                0x20000000                __cs3_region_start_ram = .
 *(.cs3.region-head.ram)
                0x20000001                ASSERT ((. == __cs3_region_start_ram), .cs3.region-head.ram not permitted)
 *(.ramvectors)
 .ramvectors    0x20000000       0xc0 .\CortexM0\ARM_GCC_441\Debug\Cm0Start.o
                0x20000000                CyRamVectors

.noinit         0x200000c0        0x4
 *(.noinit)
 .noinit        0x200000c0        0x4 .\CortexM0\ARM_GCC_441\Debug\Cm0Start.o

.data           0x200000c8       0x18 load address 0x00000f30
                0x200000c8                __cs3_region_start_data = .
 *(.jcr)
 .jcr           0x200000c8        0x0 c:/program files (x86)/cypress/psoc creator/2.2/psoc creator/import/gnu_cs/arm/4.4.1/bin/../lib/gcc/arm-none-eabi/4.4.1/armv6-m/crtbegin.o
 .jcr           0x200000c8        0x4 c:/program files (x86)/cypress/psoc creator/2.2/psoc creator/import/gnu_cs/arm/4.4.1/bin/../lib/gcc/arm-none-eabi/4.4.1/armv6-m/crtend.o
 *(.got.plt)
 *(.got)
 *(.shdata)
 *(.data .data.* .gnu.linkonce.d.*)
 .data          0x200000cc       0x10 .\CortexM0\ARM_GCC_441\Debug\Lab 4 ADC.a(CyLib.o)
                0x200000cc                cydelayFreqHz
                0x200000d0                cydelayFreqKhz
                0x200000d4                cydelayFreqMhz
                0x200000d8                cydelay32kMs
 .data          0x200000dc        0x4 .\CortexM0\ARM_GCC_441\Debug\Lab 4 ADC.a(cyfitter_cfg.o)
                0x200000e0                . = ALIGN (0x8)
 *(.ram)
                0x200000e0                _edata = .

.bss            0x200000e0       0x10 load address 0x00000f48
 *(.shbss)
 *(.bss .bss.* .gnu.linkonce.b.*)
 .bss           0x200000e0        0x1 c:/program files (x86)/cypress/psoc creator/2.2/psoc creator/import/gnu_cs/arm/4.4.1/bin/../lib/gcc/arm-none-eabi/4.4.1/armv6-m/crtbegin.o
 .bss           0x200000e1        0x1 .\CortexM0\ARM_GCC_441\Debug\Lab 4 ADC.a(PWM_R.o)
                0x200000e1                PWM_R_initVar
 .bss           0x200000e2        0x1 .\CortexM0\ARM_GCC_441\Debug\Lab 4 ADC.a(PWM_G.o)
                0x200000e2                PWM_G_initVar
 .bss           0x200000e3        0x1 .\CortexM0\ARM_GCC_441\Debug\Lab 4 ADC.a(PWM_B.o)
                0x200000e3                PWM_B_initVar
 .bss           0x200000e4        0x1 .\CortexM0\ARM_GCC_441\Debug\Lab 4 ADC.a(ADC_SAR_Seq_1.o)
                0x200000e4                ADC_SAR_Seq_1_initVar
 *(COMMON)
 *fill*         0x200000e5        0x3 00
 COMMON         0x200000e8        0x8 .\CortexM0\ARM_GCC_441\Debug\Lab 4 ADC.a(ADC_SAR_Seq_1.o)
                0x200000e8                ADC_SAR_Seq_1_offset
                0x200000ec                ADC_SAR_Seq_1_countsPer10Volt
                0x200000f0                . = ALIGN (0x8)
 *(.ram.b)
                0x200000f0                _end = .
                0x200000f0                __end = .
                0x20000b00                __cs3_region_end_ram = (__cs3_region_start_ram + 0xb00)
                0x00000b00                __cs3_region_size_ram = 0xb00
                0x00000f30                __cs3_region_init_ram = LOADADDR (.data)
                0x00000018                __cs3_region_init_size_ram = (_edata - ADDR (.data))
                0x00000010                __cs3_region_zero_size_ram = (_end - _edata)

.stab
 *(.stab)

.stabstr
 *(.stabstr)

.debug
 *(.debug)

.line
 *(.line)

.debug_srcinfo
 *(.debug_srcinfo)

.debug_sfnames
 *(.debug_sfnames)

.comment        0x00000000      0x1ae
 .comment       0x00000000       0x2b .\CortexM0\ARM_GCC_441\Debug\main.o
 .comment       0x0000002b       0x2b .\CortexM0\ARM_GCC_441\Debug\LED_RGB.o
 .comment       0x00000056       0x2b .\CortexM0\ARM_GCC_441\Debug\Cm0Start.o
 .comment       0x00000081       0x2b .\CortexM0\ARM_GCC_441\Debug\Lab 4 ADC.a(CyLib.o)
 .comment       0x000000ac       0x2b .\CortexM0\ARM_GCC_441\Debug\Lab 4 ADC.a(PWM_R.o)
 .comment       0x000000d7       0x2b .\CortexM0\ARM_GCC_441\Debug\Lab 4 ADC.a(PWM_G.o)
 .comment       0x00000102       0x2b .\CortexM0\ARM_GCC_441\Debug\Lab 4 ADC.a(PWM_B.o)
 .comment       0x0000012d       0x2b .\CortexM0\ARM_GCC_441\Debug\Lab 4 ADC.a(ADC_SAR_Seq_1.o)
 .comment       0x00000158       0x2b .\CortexM0\ARM_GCC_441\Debug\Lab 4 ADC.a(ADC_SAR_Seq_1_INT.o)
 .comment       0x00000183       0x2b .\CortexM0\ARM_GCC_441\Debug\Lab 4 ADC.a(cyfitter_cfg.o)

.debug_aranges  0x00000000      0x778
 *(.debug_aranges)
 .debug_aranges
                0x00000000       0x20 .\CortexM0\ARM_GCC_441\Debug\main.o
 .debug_aranges
                0x00000020       0x48 .\CortexM0\ARM_GCC_441\Debug\LED_RGB.o
 .debug_aranges
                0x00000068       0x30 .\CortexM0\ARM_GCC_441\Debug\Cm0Start.o
 .debug_aranges
                0x00000098      0x198 .\CortexM0\ARM_GCC_441\Debug\Lab 4 ADC.a(CyLib.o)
 .debug_aranges
                0x00000230      0x158 .\CortexM0\ARM_GCC_441\Debug\Lab 4 ADC.a(PWM_R.o)
 .debug_aranges
                0x00000388      0x158 .\CortexM0\ARM_GCC_441\Debug\Lab 4 ADC.a(PWM_G.o)
 .debug_aranges
                0x000004e0      0x158 .\CortexM0\ARM_GCC_441\Debug\Lab 4 ADC.a(PWM_B.o)
 .debug_aranges
                0x00000638       0xa8 .\CortexM0\ARM_GCC_441\Debug\Lab 4 ADC.a(ADC_SAR_Seq_1.o)
 .debug_aranges
                0x000006e0       0x20 .\CortexM0\ARM_GCC_441\Debug\Lab 4 ADC.a(ADC_SAR_Seq_1_INT.o)
 .debug_aranges
                0x00000700       0x58 .\CortexM0\ARM_GCC_441\Debug\Lab 4 ADC.a(cyfitter_cfg.o)
 .debug_aranges
                0x00000758       0x20 .\CortexM0\ARM_GCC_441\Debug\Lab 4 ADC.a(CyBootAsmGnu.o)

.debug_pubnames
                0x00000000     0x1385
 *(.debug_pubnames)
 .debug_pubnames
                0x00000000       0x1b .\CortexM0\ARM_GCC_441\Debug\main.o
 .debug_pubnames
                0x0000001b       0x9a .\CortexM0\ARM_GCC_441\Debug\LED_RGB.o
 .debug_pubnames
                0x000000b5       0x66 .\CortexM0\ARM_GCC_441\Debug\Cm0Start.o
 .debug_pubnames
                0x0000011b      0x470 .\CortexM0\ARM_GCC_441\Debug\Lab 4 ADC.a(CyLib.o)
 .debug_pubnames
                0x0000058b      0x3be .\CortexM0\ARM_GCC_441\Debug\Lab 4 ADC.a(PWM_R.o)
 .debug_pubnames
                0x00000949      0x3be .\CortexM0\ARM_GCC_441\Debug\Lab 4 ADC.a(PWM_G.o)
 .debug_pubnames
                0x00000d07      0x3be .\CortexM0\ARM_GCC_441\Debug\Lab 4 ADC.a(PWM_B.o)
 .debug_pubnames
                0x000010c5      0x275 .\CortexM0\ARM_GCC_441\Debug\Lab 4 ADC.a(ADC_SAR_Seq_1.o)
 .debug_pubnames
                0x0000133a       0x28 .\CortexM0\ARM_GCC_441\Debug\Lab 4 ADC.a(ADC_SAR_Seq_1_INT.o)
 .debug_pubnames
                0x00001362       0x23 .\CortexM0\ARM_GCC_441\Debug\Lab 4 ADC.a(cyfitter_cfg.o)

.debug_info     0x00000000     0x2f24
 *(.debug_info .gnu.linkonce.wi.*)
 .debug_info    0x00000000       0xb6 .\CortexM0\ARM_GCC_441\Debug\main.o
 .debug_info    0x000000b6      0x230 .\CortexM0\ARM_GCC_441\Debug\LED_RGB.o
 .debug_info    0x000002e6      0x150 .\CortexM0\ARM_GCC_441\Debug\Cm0Start.o
 .debug_info    0x00000436      0xa16 .\CortexM0\ARM_GCC_441\Debug\Lab 4 ADC.a(CyLib.o)
 .debug_info    0x00000e4c      0x782 .\CortexM0\ARM_GCC_441\Debug\Lab 4 ADC.a(PWM_R.o)
 .debug_info    0x000015ce      0x782 .\CortexM0\ARM_GCC_441\Debug\Lab 4 ADC.a(PWM_G.o)
 .debug_info    0x00001d50      0x782 .\CortexM0\ARM_GCC_441\Debug\Lab 4 ADC.a(PWM_B.o)
 .debug_info    0x000024d2      0x4a3 .\CortexM0\ARM_GCC_441\Debug\Lab 4 ADC.a(ADC_SAR_Seq_1.o)
 .debug_info    0x00002975       0xb7 .\CortexM0\ARM_GCC_441\Debug\Lab 4 ADC.a(ADC_SAR_Seq_1_INT.o)
 .debug_info    0x00002a2c      0x449 .\CortexM0\ARM_GCC_441\Debug\Lab 4 ADC.a(cyfitter_cfg.o)
 .debug_info    0x00002e75       0xaf .\CortexM0\ARM_GCC_441\Debug\Lab 4 ADC.a(CyBootAsmGnu.o)

.debug_abbrev   0x00000000      0x8b2
 *(.debug_abbrev)
 .debug_abbrev  0x00000000       0x64 .\CortexM0\ARM_GCC_441\Debug\main.o
 .debug_abbrev  0x00000064       0xb0 .\CortexM0\ARM_GCC_441\Debug\LED_RGB.o
 .debug_abbrev  0x00000114       0xcc .\CortexM0\ARM_GCC_441\Debug\Cm0Start.o
 .debug_abbrev  0x000001e0      0x14f .\CortexM0\ARM_GCC_441\Debug\Lab 4 ADC.a(CyLib.o)
 .debug_abbrev  0x0000032f       0xda .\CortexM0\ARM_GCC_441\Debug\Lab 4 ADC.a(PWM_R.o)
 .debug_abbrev  0x00000409       0xda .\CortexM0\ARM_GCC_441\Debug\Lab 4 ADC.a(PWM_G.o)
 .debug_abbrev  0x000004e3       0xda .\CortexM0\ARM_GCC_441\Debug\Lab 4 ADC.a(PWM_B.o)
 .debug_abbrev  0x000005bd      0x111 .\CortexM0\ARM_GCC_441\Debug\Lab 4 ADC.a(ADC_SAR_Seq_1.o)
 .debug_abbrev  0x000006ce       0x66 .\CortexM0\ARM_GCC_441\Debug\Lab 4 ADC.a(ADC_SAR_Seq_1_INT.o)
 .debug_abbrev  0x00000734      0x16a .\CortexM0\ARM_GCC_441\Debug\Lab 4 ADC.a(cyfitter_cfg.o)
 .debug_abbrev  0x0000089e       0x14 .\CortexM0\ARM_GCC_441\Debug\Lab 4 ADC.a(CyBootAsmGnu.o)

.debug_line     0x00000000     0x15e0
 *(.debug_line)
 .debug_line    0x00000000       0x65 .\CortexM0\ARM_GCC_441\Debug\main.o
 .debug_line    0x00000065      0x108 .\CortexM0\ARM_GCC_441\Debug\LED_RGB.o
 .debug_line    0x0000016d       0xaa .\CortexM0\ARM_GCC_441\Debug\Cm0Start.o
 .debug_line    0x00000217      0x476 .\CortexM0\ARM_GCC_441\Debug\Lab 4 ADC.a(CyLib.o)
 .debug_line    0x0000068d      0x38c .\CortexM0\ARM_GCC_441\Debug\Lab 4 ADC.a(PWM_R.o)
 .debug_line    0x00000a19      0x38c .\CortexM0\ARM_GCC_441\Debug\Lab 4 ADC.a(PWM_G.o)
 .debug_line    0x00000da5      0x38c .\CortexM0\ARM_GCC_441\Debug\Lab 4 ADC.a(PWM_B.o)
 .debug_line    0x00001131      0x209 .\CortexM0\ARM_GCC_441\Debug\Lab 4 ADC.a(ADC_SAR_Seq_1.o)
 .debug_line    0x0000133a       0x88 .\CortexM0\ARM_GCC_441\Debug\Lab 4 ADC.a(ADC_SAR_Seq_1_INT.o)
 .debug_line    0x000013c2      0x1b6 .\CortexM0\ARM_GCC_441\Debug\Lab 4 ADC.a(cyfitter_cfg.o)
 .debug_line    0x00001578       0x68 .\CortexM0\ARM_GCC_441\Debug\Lab 4 ADC.a(CyBootAsmGnu.o)

.debug_frame    0x00000000     0x1c1c
 *(.debug_frame)
 .debug_frame   0x00000000       0x30 .\CortexM0\ARM_GCC_441\Debug\main.o
 .debug_frame   0x00000030       0xc8 .\CortexM0\ARM_GCC_441\Debug\LED_RGB.o
 .debug_frame   0x000000f8       0x5c .\CortexM0\ARM_GCC_441\Debug\Cm0Start.o
 .debug_frame   0x00000154      0x5ec .\CortexM0\ARM_GCC_441\Debug\Lab 4 ADC.a(CyLib.o)
 .debug_frame   0x00000740      0x4e0 .\CortexM0\ARM_GCC_441\Debug\Lab 4 ADC.a(PWM_R.o)
 .debug_frame   0x00000c20      0x4e0 .\CortexM0\ARM_GCC_441\Debug\Lab 4 ADC.a(PWM_G.o)
 .debug_frame   0x00001100      0x4e0 .\CortexM0\ARM_GCC_441\Debug\Lab 4 ADC.a(PWM_B.o)
 .debug_frame   0x000015e0      0x24c .\CortexM0\ARM_GCC_441\Debug\Lab 4 ADC.a(ADC_SAR_Seq_1.o)
 .debug_frame   0x0000182c       0x30 .\CortexM0\ARM_GCC_441\Debug\Lab 4 ADC.a(ADC_SAR_Seq_1_INT.o)
 .debug_frame   0x0000185c      0x108 .\CortexM0\ARM_GCC_441\Debug\Lab 4 ADC.a(cyfitter_cfg.o)
 .debug_frame   0x00001964       0x20 c:/program files (x86)/cypress/psoc creator/2.2/psoc creator/import/gnu_cs/arm/4.4.1/bin/../lib/gcc/arm-none-eabi/4.4.1/armv6-m\libgcc.a(_udivsi3.o)
 .debug_frame   0x00001984       0x20 c:/program files (x86)/cypress/psoc creator/2.2/psoc creator/import/gnu_cs/arm/4.4.1/bin/../lib/gcc/arm-none-eabi/4.4.1/armv6-m\libgcc.a(_divsi3.o)
 .debug_frame   0x000019a4       0x3c c:/program files (x86)/cypress/psoc creator/2.2/psoc creator/import/gnu_cs/arm/4.4.1/bin/../lib/gcc/arm-none-eabi/4.4.1/armv6-m\libgcc.a(_muldi3.o)
 .debug_frame   0x000019e0       0x50 c:/program files (x86)/cypress/psoc creator/2.2/psoc creator/import/gnu_cs/arm/4.4.1/bin/../lib/gcc/arm-none-eabi/4.4.1/armv6-m\libgcc.a(bpabi.o)
 .debug_frame   0x00001a30       0x3c c:/program files (x86)/cypress/psoc creator/2.2/psoc creator/import/gnu_cs/arm/4.4.1/bin/../lib/gcc/arm-none-eabi/4.4.1/armv6-m\libgcc.a(divsf3.o)
 .debug_frame   0x00001a6c       0x3c c:/program files (x86)/cypress/psoc creator/2.2/psoc creator/import/gnu_cs/arm/4.4.1/bin/../lib/gcc/arm-none-eabi/4.4.1/armv6-m\libgcc.a(mulsf3.o)
 .debug_frame   0x00001aa8       0x2c c:/program files (x86)/cypress/psoc creator/2.2/psoc creator/import/gnu_cs/arm/4.4.1/bin/../lib/gcc/arm-none-eabi/4.4.1/armv6-m\libgcc.a(floatsisf.o)
 .debug_frame   0x00001ad4       0x3c c:/program files (x86)/cypress/psoc creator/2.2/psoc creator/import/gnu_cs/arm/4.4.1/bin/../lib/gcc/arm-none-eabi/4.4.1/armv6-m\libgcc.a(_divdi3.o)
 .debug_frame   0x00001b10       0x3c c:/program files (x86)/cypress/psoc creator/2.2/psoc creator/import/gnu_cs/arm/4.4.1/bin/../lib/gcc/arm-none-eabi/4.4.1/armv6-m\libgcc.a(_udivdi3.o)
 .debug_frame   0x00001b4c       0x30 c:/program files (x86)/cypress/psoc creator/2.2/psoc creator/import/gnu_cs/arm/4.4.1/bin/../lib/gcc/arm-none-eabi/4.4.1/../../../../arm-none-eabi/lib/armv6-m\libc.a(lib_a-memcpy.o)
 .debug_frame   0x00001b7c       0x2c c:/program files (x86)/cypress/psoc creator/2.2/psoc creator/import/gnu_cs/arm/4.4.1/bin/../lib/gcc/arm-none-eabi/4.4.1/../../../../arm-none-eabi/lib/armv6-m\libc.a(lib_a-memset.o)
 .debug_frame   0x00001ba8       0x48 c:/program files (x86)/cypress/psoc creator/2.2/psoc creator/import/gnu_cs/arm/4.4.1/bin/../lib/gcc/arm-none-eabi/4.4.1/../../../../arm-none-eabi/lib/armv6-m\libcs3.a(start_c.o)
 .debug_frame   0x00001bf0       0x2c c:/program files (x86)/cypress/psoc creator/2.2/psoc creator/import/gnu_cs/arm/4.4.1/bin/../lib/gcc/arm-none-eabi/4.4.1/../../../../arm-none-eabi/lib/armv6-m\libc.a(lib_a-init.o)

.debug_str      0x00000000     0x1682
 *(.debug_str)
 .debug_str     0x00000000       0xde .\CortexM0\ARM_GCC_441\Debug\main.o
                                0x117 (size before relaxing)
 .debug_str     0x000000de      0x160 .\CortexM0\ARM_GCC_441\Debug\LED_RGB.o
                                0x20f (size before relaxing)
 .debug_str     0x0000023e       0x8a .\CortexM0\ARM_GCC_441\Debug\Cm0Start.o
                                0x197 (size before relaxing)
 .debug_str     0x000002c8      0x4e8 .\CortexM0\ARM_GCC_441\Debug\Lab 4 ADC.a(CyLib.o)
                                0x617 (size before relaxing)
 .debug_str     0x000007b0      0x3ee .\CortexM0\ARM_GCC_441\Debug\Lab 4 ADC.a(PWM_R.o)
                                0x505 (size before relaxing)
 .debug_str     0x00000b9e      0x329 .\CortexM0\ARM_GCC_441\Debug\Lab 4 ADC.a(PWM_G.o)
                                0x505 (size before relaxing)
 .debug_str     0x00000ec7      0x329 .\CortexM0\ARM_GCC_441\Debug\Lab 4 ADC.a(PWM_B.o)
                                0x505 (size before relaxing)
 .debug_str     0x000011f0      0x2b9 .\CortexM0\ARM_GCC_441\Debug\Lab 4 ADC.a(ADC_SAR_Seq_1.o)
                                0x3f3 (size before relaxing)
 .debug_str     0x000014a9       0x4b .\CortexM0\ARM_GCC_441\Debug\Lab 4 ADC.a(ADC_SAR_Seq_1_INT.o)
                                0x152 (size before relaxing)
 .debug_str     0x000014f4      0x18e .\CortexM0\ARM_GCC_441\Debug\Lab 4 ADC.a(cyfitter_cfg.o)
                                0x2de (size before relaxing)

.debug_loc      0x00000000     0x2928
 *(.debug_loc)
 .debug_loc     0x00000000       0x37 .\CortexM0\ARM_GCC_441\Debug\main.o
 .debug_loc     0x00000037      0x132 .\CortexM0\ARM_GCC_441\Debug\LED_RGB.o
 .debug_loc     0x00000169       0x62 .\CortexM0\ARM_GCC_441\Debug\Cm0Start.o
 .debug_loc     0x000001cb      0x9cc .\CortexM0\ARM_GCC_441\Debug\Lab 4 ADC.a(CyLib.o)
 .debug_loc     0x00000b97      0x808 .\CortexM0\ARM_GCC_441\Debug\Lab 4 ADC.a(PWM_R.o)
 .debug_loc     0x0000139f      0x808 .\CortexM0\ARM_GCC_441\Debug\Lab 4 ADC.a(PWM_G.o)
 .debug_loc     0x00001ba7      0x808 .\CortexM0\ARM_GCC_441\Debug\Lab 4 ADC.a(PWM_B.o)
 .debug_loc     0x000023af      0x3a2 .\CortexM0\ARM_GCC_441\Debug\Lab 4 ADC.a(ADC_SAR_Seq_1.o)
 .debug_loc     0x00002751       0x37 .\CortexM0\ARM_GCC_441\Debug\Lab 4 ADC.a(ADC_SAR_Seq_1_INT.o)
 .debug_loc     0x00002788      0x1a0 .\CortexM0\ARM_GCC_441\Debug\Lab 4 ADC.a(cyfitter_cfg.o)

.debug_macinfo
 *(.debug_macinfo)

.debug_ranges   0x00000000      0x708
 *(.debug_ranges)
 .debug_ranges  0x00000000       0x18 .\CortexM0\ARM_GCC_441\Debug\main.o
 .debug_ranges  0x00000018       0x40 .\CortexM0\ARM_GCC_441\Debug\LED_RGB.o
 .debug_ranges  0x00000058       0x28 .\CortexM0\ARM_GCC_441\Debug\Cm0Start.o
 .debug_ranges  0x00000080      0x190 .\CortexM0\ARM_GCC_441\Debug\Lab 4 ADC.a(CyLib.o)
 .debug_ranges  0x00000210      0x150 .\CortexM0\ARM_GCC_441\Debug\Lab 4 ADC.a(PWM_R.o)
 .debug_ranges  0x00000360      0x150 .\CortexM0\ARM_GCC_441\Debug\Lab 4 ADC.a(PWM_G.o)
 .debug_ranges  0x000004b0      0x150 .\CortexM0\ARM_GCC_441\Debug\Lab 4 ADC.a(PWM_B.o)
 .debug_ranges  0x00000600       0xa0 .\CortexM0\ARM_GCC_441\Debug\Lab 4 ADC.a(ADC_SAR_Seq_1.o)
 .debug_ranges  0x000006a0       0x18 .\CortexM0\ARM_GCC_441\Debug\Lab 4 ADC.a(ADC_SAR_Seq_1_INT.o)
 .debug_ranges  0x000006b8       0x50 .\CortexM0\ARM_GCC_441\Debug\Lab 4 ADC.a(cyfitter_cfg.o)

.debug_weaknames
 *(.debug_weaknames)

.debug_funcnames
 *(.debug_funcnames)

.debug_typenames
 *(.debug_typenames)

.debug_varnames
 *(.debug_varnames)

.note.gnu.arm.ident
 *(.note.gnu.arm.ident)

.ARM.attributes
                0x00000000       0x29
 *(.ARM.attributes)
 .ARM.attributes
                0x00000000       0x1d c:/program files (x86)/cypress/psoc creator/2.2/psoc creator/import/gnu_cs/arm/4.4.1/bin/../lib/gcc/arm-none-eabi/4.4.1/armv6-m/crti.o
 .ARM.attributes
                0x0000001d       0x2d c:/program files (x86)/cypress/psoc creator/2.2/psoc creator/import/gnu_cs/arm/4.4.1/bin/../lib/gcc/arm-none-eabi/4.4.1/armv6-m/crtbegin.o
 .ARM.attributes
                0x0000004a       0x33 .\CortexM0\ARM_GCC_441\Debug\main.o
 .ARM.attributes
                0x0000007d       0x33 .\CortexM0\ARM_GCC_441\Debug\LED_RGB.o
 .ARM.attributes
                0x000000b0       0x33 .\CortexM0\ARM_GCC_441\Debug\Cm0Start.o
 .ARM.attributes
                0x000000e3       0x33 .\CortexM0\ARM_GCC_441\Debug\Lab 4 ADC.a(CyLib.o)
 .ARM.attributes
                0x00000116       0x33 .\CortexM0\ARM_GCC_441\Debug\Lab 4 ADC.a(PWM_R.o)
 .ARM.attributes
                0x00000149       0x33 .\CortexM0\ARM_GCC_441\Debug\Lab 4 ADC.a(PWM_G.o)
 .ARM.attributes
                0x0000017c       0x33 .\CortexM0\ARM_GCC_441\Debug\Lab 4 ADC.a(PWM_B.o)
 .ARM.attributes
                0x000001af       0x33 .\CortexM0\ARM_GCC_441\Debug\Lab 4 ADC.a(ADC_SAR_Seq_1.o)
 .ARM.attributes
                0x000001e2       0x33 .\CortexM0\ARM_GCC_441\Debug\Lab 4 ADC.a(ADC_SAR_Seq_1_INT.o)
 .ARM.attributes
                0x00000215       0x33 .\CortexM0\ARM_GCC_441\Debug\Lab 4 ADC.a(cyfitter_cfg.o)
 .ARM.attributes
                0x00000248       0x23 .\CortexM0\ARM_GCC_441\Debug\Lab 4 ADC.a(CyBootAsmGnu.o)
 .ARM.attributes
                0x0000026b       0x1f c:/program files (x86)/cypress/psoc creator/2.2/psoc creator/import/gnu_cs/arm/4.4.1/bin/../lib/gcc/arm-none-eabi/4.4.1/armv6-m\libgcc.a(_udivsi3.o)
 .ARM.attributes
                0x0000028a       0x1f c:/program files (x86)/cypress/psoc creator/2.2/psoc creator/import/gnu_cs/arm/4.4.1/bin/../lib/gcc/arm-none-eabi/4.4.1/armv6-m\libgcc.a(_divsi3.o)
 .ARM.attributes
                0x000002a9       0x1f c:/program files (x86)/cypress/psoc creator/2.2/psoc creator/import/gnu_cs/arm/4.4.1/bin/../lib/gcc/arm-none-eabi/4.4.1/armv6-m\libgcc.a(_dvmd_tls.o)
 .ARM.attributes
                0x000002c8       0x1f c:/program files (x86)/cypress/psoc creator/2.2/psoc creator/import/gnu_cs/arm/4.4.1/bin/../lib/gcc/arm-none-eabi/4.4.1/armv6-m\libgcc.a(_aeabi_ldivmod.o)
 .ARM.attributes
                0x000002e7       0x2d c:/program files (x86)/cypress/psoc creator/2.2/psoc creator/import/gnu_cs/arm/4.4.1/bin/../lib/gcc/arm-none-eabi/4.4.1/armv6-m\libgcc.a(_muldi3.o)
 .ARM.attributes
                0x00000314       0x2d c:/program files (x86)/cypress/psoc creator/2.2/psoc creator/import/gnu_cs/arm/4.4.1/bin/../lib/gcc/arm-none-eabi/4.4.1/armv6-m\libgcc.a(bpabi.o)
 .ARM.attributes
                0x00000341       0x2d c:/program files (x86)/cypress/psoc creator/2.2/psoc creator/import/gnu_cs/arm/4.4.1/bin/../lib/gcc/arm-none-eabi/4.4.1/armv6-m\libgcc.a(divsf3.o)
 .ARM.attributes
                0x0000036e       0x2d c:/program files (x86)/cypress/psoc creator/2.2/psoc creator/import/gnu_cs/arm/4.4.1/bin/../lib/gcc/arm-none-eabi/4.4.1/armv6-m\libgcc.a(mulsf3.o)
 .ARM.attributes
                0x0000039b       0x2d c:/program files (x86)/cypress/psoc creator/2.2/psoc creator/import/gnu_cs/arm/4.4.1/bin/../lib/gcc/arm-none-eabi/4.4.1/armv6-m\libgcc.a(floatsisf.o)
 .ARM.attributes
                0x000003c8       0x1f c:/program files (x86)/cypress/psoc creator/2.2/psoc creator/import/gnu_cs/arm/4.4.1/bin/../lib/gcc/arm-none-eabi/4.4.1/armv6-m\libgcc.a(_clzsi2.o)
 .ARM.attributes
                0x000003e7       0x2d c:/program files (x86)/cypress/psoc creator/2.2/psoc creator/import/gnu_cs/arm/4.4.1/bin/../lib/gcc/arm-none-eabi/4.4.1/armv6-m\libgcc.a(_divdi3.o)
 .ARM.attributes
                0x00000414       0x2d c:/program files (x86)/cypress/psoc creator/2.2/psoc creator/import/gnu_cs/arm/4.4.1/bin/../lib/gcc/arm-none-eabi/4.4.1/armv6-m\libgcc.a(_udivdi3.o)
 .ARM.attributes
                0x00000441       0x2d c:/program files (x86)/cypress/psoc creator/2.2/psoc creator/import/gnu_cs/arm/4.4.1/bin/../lib/gcc/arm-none-eabi/4.4.1/../../../../arm-none-eabi/lib/armv6-m\libc.a(lib_a-memcpy.o)
 .ARM.attributes
                0x0000046e       0x2d c:/program files (x86)/cypress/psoc creator/2.2/psoc creator/import/gnu_cs/arm/4.4.1/bin/../lib/gcc/arm-none-eabi/4.4.1/../../../../arm-none-eabi/lib/armv6-m\libc.a(lib_a-memset.o)
 .ARM.attributes
                0x0000049b       0x2d c:/program files (x86)/cypress/psoc creator/2.2/psoc creator/import/gnu_cs/arm/4.4.1/bin/../lib/gcc/arm-none-eabi/4.4.1/armv6-m/crtend.o
 .ARM.attributes
                0x000004c8       0x1d c:/program files (x86)/cypress/psoc creator/2.2/psoc creator/import/gnu_cs/arm/4.4.1/bin/../lib/gcc/arm-none-eabi/4.4.1/armv6-m/crtn.o
 .ARM.attributes
                0x000004e5       0x2d c:/program files (x86)/cypress/psoc creator/2.2/psoc creator/import/gnu_cs/arm/4.4.1/bin/../lib/gcc/arm-none-eabi/4.4.1/../../../../arm-none-eabi/lib/armv6-m\libcs3.a(start_c.o)
 .ARM.attributes
                0x00000512       0x1d c:/program files (x86)/cypress/psoc creator/2.2/psoc creator/import/gnu_cs/arm/4.4.1/bin/../lib/gcc/arm-none-eabi/4.4.1/../../../../arm-none-eabi/lib/armv6-m\libcs3micro.a(micro_isr_interrupt.o)
 .ARM.attributes
                0x0000052f       0x2d c:/program files (x86)/cypress/psoc creator/2.2/psoc creator/import/gnu_cs/arm/4.4.1/bin/../lib/gcc/arm-none-eabi/4.4.1/../../../../arm-none-eabi/lib/armv6-m\libc.a(lib_a-init.o)

/DISCARD/
 *(.note.GNU-stack)
OUTPUT(.\CortexM0\ARM_GCC_441\Debug\Lab 4 ADC.elf elf32-littlearm)
