ARM GAS  C:\Users\maxk\AppData\Local\Temp\ccLnB6IN.s 			page 1


   1              		.cpu cortex-m0
   2              		.fpu softvfp
   3              		.eabi_attribute 20, 1
   4              		.eabi_attribute 21, 1
   5              		.eabi_attribute 23, 3
   6              		.eabi_attribute 24, 1
   7              		.eabi_attribute 25, 1
   8              		.eabi_attribute 26, 1
   9              		.eabi_attribute 30, 6
  10              		.eabi_attribute 18, 4
  11              		.code	16
  12              		.file	"main.c"
  19 0000 61000000 		.text
  19      02004500 
  19      00000201 
  19      FB0E0D00 
  19      01010101 
  20              	.Ltext0:
  21              		.cfi_sections	.debug_frame
  22              		.section	.text.main,"ax",%progbits
  23              		.align	2
  24              		.global	main
  25              		.code	16
  26              		.thumb_func
  27              		.type	main, %function
  28              	main:
  29              	.LFB20:
  30              		.file 1 ".\\main.c"
   1:.\main.c      **** #include <device.h>
   2:.\main.c      **** #include <LED_RGB.h>
   3:.\main.c      **** 
   4:.\main.c      **** void main()
   5:.\main.c      **** {
  31              		.loc 1 5 0
  32              		.cfi_startproc
  33 0000 80B5     		push	{r7, lr}
  34              	.LCFI0:
  35              		.cfi_def_cfa_offset 8
  36              		.cfi_offset 7, -8
  37              		.cfi_offset 14, -4
  38 0002 82B0     		sub	sp, sp, #8
  39              	.LCFI1:
  40              		.cfi_def_cfa_offset 16
  41 0004 00AF     		add	r7, sp, #0
  42              	.LCFI2:
  43              		.cfi_def_cfa_register 7
   6:.\main.c      ****     /* Place your initialization/startup code here (e.g. MyInst_Start()) */
   7:.\main.c      ****     uint16 ADCResult;
   8:.\main.c      ****     LED_RGB_Start();
  44              		.loc 1 8 0
  45 0006 FFF7FEFF 		bl	LED_RGB_Start
ARM GAS  C:\Users\maxk\AppData\Local\Temp\ccLnB6IN.s 			page 2


   9:.\main.c      ****     
  10:.\main.c      ****     CyGlobalIntEnable; /* Uncomment this line to enable global interrupts. */
  46              		.loc 1 10 0
  47              	@ 10 ".\main.c" 1
  48 000a 62B6     		CPSIE   i
  49              	@ 0 "" 2
  11:.\main.c      ****     
  12:.\main.c      ****     ADC_SAR_Seq_1_Start();
  50              		.loc 1 12 0
  51              		.code	16
  52 000c FFF7FEFF 		bl	ADC_SAR_Seq_1_Start
  13:.\main.c      ****     ADC_SAR_Seq_1_StartConvert();
  53              		.loc 1 13 0
  54 0010 FFF7FEFF 		bl	ADC_SAR_Seq_1_StartConvert
  14:.\main.c      ****     ADC_SAR_Seq_1_IsEndConversion(ADC_SAR_Seq_1_WAIT_FOR_RESULT);
  55              		.loc 1 14 0
  56 0014 0220     		mov	r0, #2
  57 0016 FFF7FEFF 		bl	ADC_SAR_Seq_1_IsEndConversion
  58              	.L2:
  15:.\main.c      ****     
  16:.\main.c      ****     for(;;)
  17:.\main.c      ****     {
  18:.\main.c      ****         /* Place your application code here. */
  19:.\main.c      ****         ADCResult = ADC_SAR_Seq_1_GetResult16(0);
  59              		.loc 1 19 0
  60 001a 0020     		mov	r0, #0
  61 001c FFF7FEFF 		bl	ADC_SAR_Seq_1_GetResult16
  62 0020 031C     		mov	r3, r0
  63 0022 9AB2     		uxth	r2, r3
  64 0024 BB1D     		add	r3, r7, #6
  65 0026 1A80     		strh	r2, [r3]
  20:.\main.c      ****         LED_RGB_SetColorRGB(ADCResult * (65535 / 2048), 0, 0);
  66              		.loc 1 20 0
  67 0028 BB1D     		add	r3, r7, #6
  68 002a 1B88     		ldrh	r3, [r3]
  69 002c 1A1C     		add	r2, r3, #0
  70 002e 5201     		lsl	r2, r2, #5
  71 0030 D31A     		sub	r3, r2, r3
  72 0032 9BB2     		uxth	r3, r3
  73 0034 181C     		mov	r0, r3
  74 0036 0021     		mov	r1, #0
  75 0038 0022     		mov	r2, #0
  76 003a FFF7FEFF 		bl	LED_RGB_SetColorRGB
  21:.\main.c      ****         CyDelay(10);
  77              		.loc 1 21 0
  78 003e 0A20     		mov	r0, #10
  79 0040 FFF7FEFF 		bl	CyDelay
  22:.\main.c      ****     }
  80              		.loc 1 22 0
  81 0044 E9E7     		b	.L2
  82              		.cfi_endproc
  83              	.LFE20:
  84              		.size	main, .-main
  85 0046 C046     		.text
  86              	.Letext0: