ARM GAS  C:\Users\maxk\AppData\Local\Temp\ccAwTnN3.s 			page 1


   1              		.cpu cortex-m0
   2              		.fpu softvfp
   3              		.eabi_attribute 20, 1
   4              		.eabi_attribute 21, 1
   5              		.eabi_attribute 23, 3
   6              		.eabi_attribute 24, 1
   7              		.eabi_attribute 25, 1
   8              		.eabi_attribute 26, 1
   9              		.eabi_attribute 30, 6
  10              		.eabi_attribute 18, 4
  11              		.code	16
  12              		.file	"Pin_1.c"
  19 0000 C1000000 		.text
  19      02005E00 
  19      00000201 
  19      FB0E0D00 
  19      01010101 
  20              	.Ltext0:
  21              		.cfi_sections	.debug_frame
  22              		.section	.text.Pin_1_Write,"ax",%progbits
  23              		.align	2
  24              		.global	Pin_1_Write
  25              		.code	16
  26              		.thumb_func
  27              		.type	Pin_1_Write, %function
  28              	Pin_1_Write:
  29              	.LFB0:
  30              		.file 1 ".\\Generated_Source\\PSoC4\\Pin_1.c"
   1:.\Generated_Source\PSoC4/Pin_1.c **** /*******************************************************************************
   2:.\Generated_Source\PSoC4/Pin_1.c **** * File Name: Pin_1.c  
   3:.\Generated_Source\PSoC4/Pin_1.c **** * Version 1.90
   4:.\Generated_Source\PSoC4/Pin_1.c **** *
   5:.\Generated_Source\PSoC4/Pin_1.c **** * Description:
   6:.\Generated_Source\PSoC4/Pin_1.c **** *  This file contains API to enable firmware control of a Pins component.
   7:.\Generated_Source\PSoC4/Pin_1.c **** *
   8:.\Generated_Source\PSoC4/Pin_1.c **** * Note:
   9:.\Generated_Source\PSoC4/Pin_1.c **** *
  10:.\Generated_Source\PSoC4/Pin_1.c **** ********************************************************************************
  11:.\Generated_Source\PSoC4/Pin_1.c **** * Copyright 2008-2012, Cypress Semiconductor Corporation.  All rights reserved.
  12:.\Generated_Source\PSoC4/Pin_1.c **** * You may use this file only in accordance with the license, terms, conditions, 
  13:.\Generated_Source\PSoC4/Pin_1.c **** * disclaimers, and limitations in the end user license agreement accompanying 
  14:.\Generated_Source\PSoC4/Pin_1.c **** * the software package with which this file was provided.
  15:.\Generated_Source\PSoC4/Pin_1.c **** *******************************************************************************/
  16:.\Generated_Source\PSoC4/Pin_1.c **** 
  17:.\Generated_Source\PSoC4/Pin_1.c **** #include "cytypes.h"
  18:.\Generated_Source\PSoC4/Pin_1.c **** #include "Pin_1.h"
  19:.\Generated_Source\PSoC4/Pin_1.c **** 
  20:.\Generated_Source\PSoC4/Pin_1.c **** #define SetP4PinDriveMode(shift, mode)  \
  21:.\Generated_Source\PSoC4/Pin_1.c ****     do { \
  22:.\Generated_Source\PSoC4/Pin_1.c ****         Pin_1_PC =   (Pin_1_PC & \
  23:.\Generated_Source\PSoC4/Pin_1.c ****                                 (uint32)(~(uint32)(Pin_1_DRIVE_MODE_IND_MASK << (Pin_1_DRIVE_MODE_B
ARM GAS  C:\Users\maxk\AppData\Local\Temp\ccAwTnN3.s 			page 2


  24:.\Generated_Source\PSoC4/Pin_1.c ****                                 (uint32)((uint32)(mode) << (Pin_1_DRIVE_MODE_BITS * (shift))); \
  25:.\Generated_Source\PSoC4/Pin_1.c ****     } while (0)
  26:.\Generated_Source\PSoC4/Pin_1.c **** 
  27:.\Generated_Source\PSoC4/Pin_1.c **** 
  28:.\Generated_Source\PSoC4/Pin_1.c **** /*******************************************************************************
  29:.\Generated_Source\PSoC4/Pin_1.c **** * Function Name: Pin_1_Write
  30:.\Generated_Source\PSoC4/Pin_1.c **** ********************************************************************************
  31:.\Generated_Source\PSoC4/Pin_1.c **** *
  32:.\Generated_Source\PSoC4/Pin_1.c **** * Summary:
  33:.\Generated_Source\PSoC4/Pin_1.c **** *  Assign a new value to the digital port's data output register.  
  34:.\Generated_Source\PSoC4/Pin_1.c **** *
  35:.\Generated_Source\PSoC4/Pin_1.c **** * Parameters:  
  36:.\Generated_Source\PSoC4/Pin_1.c **** *  prtValue:  The value to be assigned to the Digital Port. 
  37:.\Generated_Source\PSoC4/Pin_1.c **** *
  38:.\Generated_Source\PSoC4/Pin_1.c **** * Return: 
  39:.\Generated_Source\PSoC4/Pin_1.c **** *  None 
  40:.\Generated_Source\PSoC4/Pin_1.c **** *  
  41:.\Generated_Source\PSoC4/Pin_1.c **** *******************************************************************************/
  42:.\Generated_Source\PSoC4/Pin_1.c **** void Pin_1_Write(uint8 value) 
  43:.\Generated_Source\PSoC4/Pin_1.c **** {
  31              		.loc 1 43 0
  32              		.cfi_startproc
  33 0000 80B5     		push	{r7, lr}
  34              	.LCFI0:
  35              		.cfi_def_cfa_offset 8
  36              		.cfi_offset 7, -8
  37              		.cfi_offset 14, -4
  38 0002 84B0     		sub	sp, sp, #16
  39              	.LCFI1:
  40              		.cfi_def_cfa_offset 24
  41 0004 00AF     		add	r7, sp, #0
  42              	.LCFI2:
  43              		.cfi_def_cfa_register 7
  44 0006 021C     		mov	r2, r0
  45 0008 FB1D     		add	r3, r7, #7
  46 000a 1A70     		strb	r2, [r3]
  44:.\Generated_Source\PSoC4/Pin_1.c ****     uint8 drVal = (uint8)(Pin_1_DR & (uint8)(~Pin_1_MASK));
  47              		.loc 1 44 0
  48 000c 0D4B     		ldr	r3, .L3
  49 000e 1B68     		ldr	r3, [r3]
  50 0010 DAB2     		uxtb	r2, r3
  51 0012 3B1C     		mov	r3, r7
  52 0014 0F33     		add	r3, r3, #15
  53 0016 0121     		mov	r1, #1
  54 0018 8A43     		bic	r2, r2, r1
  55 001a 1A70     		strb	r2, [r3]
  45:.\Generated_Source\PSoC4/Pin_1.c ****     drVal = (drVal | ((uint8)(value << Pin_1_SHIFT) & Pin_1_MASK));
  56              		.loc 1 45 0
  57 001c FB1D     		add	r3, r7, #7
  58 001e 1B78     		ldrb	r3, [r3]
  59 0020 0122     		mov	r2, #1
  60 0022 1340     		and	r3, r3, r2
  61 0024 3A1C     		mov	r2, r7
  62 0026 0F32     		add	r2, r2, #15
  63 0028 391C     		mov	r1, r7
  64 002a 0F31     		add	r1, r1, #15
  65 002c 0978     		ldrb	r1, [r1]
ARM GAS  C:\Users\maxk\AppData\Local\Temp\ccAwTnN3.s 			page 3


  66 002e 0B43     		orr	r3, r3, r1
  67 0030 1370     		strb	r3, [r2]
  46:.\Generated_Source\PSoC4/Pin_1.c ****     Pin_1_DR = (uint32)drVal;
  68              		.loc 1 46 0
  69 0032 044B     		ldr	r3, .L3
  70 0034 3A1C     		mov	r2, r7
  71 0036 0F32     		add	r2, r2, #15
  72 0038 1278     		ldrb	r2, [r2]
  73 003a 1A60     		str	r2, [r3]
  47:.\Generated_Source\PSoC4/Pin_1.c **** }
  74              		.loc 1 47 0
  75 003c BD46     		mov	sp, r7
  76 003e 04B0     		add	sp, sp, #16
  77              		@ sp needed for prologue
  78 0040 80BD     		pop	{r7, pc}
  79              	.L4:
  80 0042 C046     		.align	2
  81              	.L3:
  82 0044 00020440 		.word	1074004480
  83              		.cfi_endproc
  84              	.LFE0:
  85              		.size	Pin_1_Write, .-Pin_1_Write
  86              		.section	.text.Pin_1_SetDriveMode,"ax",%progbits
  87              		.align	2
  88              		.global	Pin_1_SetDriveMode
  89              		.code	16
  90              		.thumb_func
  91              		.type	Pin_1_SetDriveMode, %function
  92              	Pin_1_SetDriveMode:
  93              	.LFB1:
  48:.\Generated_Source\PSoC4/Pin_1.c **** 
  49:.\Generated_Source\PSoC4/Pin_1.c **** 
  50:.\Generated_Source\PSoC4/Pin_1.c **** /*******************************************************************************
  51:.\Generated_Source\PSoC4/Pin_1.c **** * Function Name: Pin_1_SetDriveMode
  52:.\Generated_Source\PSoC4/Pin_1.c **** ********************************************************************************
  53:.\Generated_Source\PSoC4/Pin_1.c **** *
  54:.\Generated_Source\PSoC4/Pin_1.c **** * Summary:
  55:.\Generated_Source\PSoC4/Pin_1.c **** *  Change the drive mode on the pins of the port.
  56:.\Generated_Source\PSoC4/Pin_1.c **** * 
  57:.\Generated_Source\PSoC4/Pin_1.c **** * Parameters:  
  58:.\Generated_Source\PSoC4/Pin_1.c **** *  mode:  Change the pins to this drive mode.
  59:.\Generated_Source\PSoC4/Pin_1.c **** *
  60:.\Generated_Source\PSoC4/Pin_1.c **** * Return: 
  61:.\Generated_Source\PSoC4/Pin_1.c **** *  None
  62:.\Generated_Source\PSoC4/Pin_1.c **** *
  63:.\Generated_Source\PSoC4/Pin_1.c **** *******************************************************************************/
  64:.\Generated_Source\PSoC4/Pin_1.c **** void Pin_1_SetDriveMode(uint8 mode) 
  65:.\Generated_Source\PSoC4/Pin_1.c **** {
  94              		.loc 1 65 0
  95              		.cfi_startproc
  96 0000 80B5     		push	{r7, lr}
  97              	.LCFI3:
  98              		.cfi_def_cfa_offset 8
  99              		.cfi_offset 7, -8
 100              		.cfi_offset 14, -4
 101 0002 82B0     		sub	sp, sp, #8
 102              	.LCFI4:
ARM GAS  C:\Users\maxk\AppData\Local\Temp\ccAwTnN3.s 			page 4


 103              		.cfi_def_cfa_offset 16
 104 0004 00AF     		add	r7, sp, #0
 105              	.LCFI5:
 106              		.cfi_def_cfa_register 7
 107 0006 021C     		mov	r2, r0
 108 0008 FB1D     		add	r3, r7, #7
 109 000a 1A70     		strb	r2, [r3]
  66:.\Generated_Source\PSoC4/Pin_1.c **** 	SetP4PinDriveMode(Pin_1__0__SHIFT, mode);
 110              		.loc 1 66 0
 111 000c 064B     		ldr	r3, .L7
 112 000e 064A     		ldr	r2, .L7
 113 0010 1268     		ldr	r2, [r2]
 114 0012 0721     		mov	r1, #7
 115 0014 101C     		mov	r0, r2
 116 0016 8843     		bic	r0, r0, r1
 117 0018 011C     		mov	r1, r0
 118 001a FA1D     		add	r2, r7, #7
 119 001c 1278     		ldrb	r2, [r2]
 120 001e 0A43     		orr	r2, r2, r1
 121 0020 1A60     		str	r2, [r3]
  67:.\Generated_Source\PSoC4/Pin_1.c **** }
 122              		.loc 1 67 0
 123 0022 BD46     		mov	sp, r7
 124 0024 02B0     		add	sp, sp, #8
 125              		@ sp needed for prologue
 126 0026 80BD     		pop	{r7, pc}
 127              	.L8:
 128              		.align	2
 129              	.L7:
 130 0028 08020440 		.word	1074004488
 131              		.cfi_endproc
 132              	.LFE1:
 133              		.size	Pin_1_SetDriveMode, .-Pin_1_SetDriveMode
 134              		.section	.text.Pin_1_Read,"ax",%progbits
 135              		.align	2
 136              		.global	Pin_1_Read
 137              		.code	16
 138              		.thumb_func
 139              		.type	Pin_1_Read, %function
 140              	Pin_1_Read:
 141              	.LFB2:
  68:.\Generated_Source\PSoC4/Pin_1.c **** 
  69:.\Generated_Source\PSoC4/Pin_1.c **** 
  70:.\Generated_Source\PSoC4/Pin_1.c **** /*******************************************************************************
  71:.\Generated_Source\PSoC4/Pin_1.c **** * Function Name: Pin_1_Read
  72:.\Generated_Source\PSoC4/Pin_1.c **** ********************************************************************************
  73:.\Generated_Source\PSoC4/Pin_1.c **** *
  74:.\Generated_Source\PSoC4/Pin_1.c **** * Summary:
  75:.\Generated_Source\PSoC4/Pin_1.c **** *  Read the current value on the pins of the Digital Port in right justified 
  76:.\Generated_Source\PSoC4/Pin_1.c **** *  form.
  77:.\Generated_Source\PSoC4/Pin_1.c **** *
  78:.\Generated_Source\PSoC4/Pin_1.c **** * Parameters:  
  79:.\Generated_Source\PSoC4/Pin_1.c **** *  None 
  80:.\Generated_Source\PSoC4/Pin_1.c **** *
  81:.\Generated_Source\PSoC4/Pin_1.c **** * Return: 
  82:.\Generated_Source\PSoC4/Pin_1.c **** *  Returns the current value of the Digital Port as a right justified number
  83:.\Generated_Source\PSoC4/Pin_1.c **** *  
ARM GAS  C:\Users\maxk\AppData\Local\Temp\ccAwTnN3.s 			page 5


  84:.\Generated_Source\PSoC4/Pin_1.c **** * Note:
  85:.\Generated_Source\PSoC4/Pin_1.c **** *  Macro Pin_1_ReadPS calls this function. 
  86:.\Generated_Source\PSoC4/Pin_1.c **** *  
  87:.\Generated_Source\PSoC4/Pin_1.c **** *******************************************************************************/
  88:.\Generated_Source\PSoC4/Pin_1.c **** uint8 Pin_1_Read(void) 
  89:.\Generated_Source\PSoC4/Pin_1.c **** {
 142              		.loc 1 89 0
 143              		.cfi_startproc
 144 0000 80B5     		push	{r7, lr}
 145              	.LCFI6:
 146              		.cfi_def_cfa_offset 8
 147              		.cfi_offset 7, -8
 148              		.cfi_offset 14, -4
 149 0002 00AF     		add	r7, sp, #0
 150              	.LCFI7:
 151              		.cfi_def_cfa_register 7
  90:.\Generated_Source\PSoC4/Pin_1.c ****     return (uint8)((Pin_1_PS & Pin_1_MASK) >> Pin_1_SHIFT);
 152              		.loc 1 90 0
 153 0004 034B     		ldr	r3, .L11
 154 0006 1B68     		ldr	r3, [r3]
 155 0008 DBB2     		uxtb	r3, r3
 156 000a 0122     		mov	r2, #1
 157 000c 1340     		and	r3, r3, r2
  91:.\Generated_Source\PSoC4/Pin_1.c **** }
 158              		.loc 1 91 0
 159 000e 181C     		mov	r0, r3
 160 0010 BD46     		mov	sp, r7
 161              		@ sp needed for prologue
 162 0012 80BD     		pop	{r7, pc}
 163              	.L12:
 164              		.align	2
 165              	.L11:
 166 0014 04020440 		.word	1074004484
 167              		.cfi_endproc
 168              	.LFE2:
 169              		.size	Pin_1_Read, .-Pin_1_Read
 170              		.section	.text.Pin_1_ReadDataReg,"ax",%progbits
 171              		.align	2
 172              		.global	Pin_1_ReadDataReg
 173              		.code	16
 174              		.thumb_func
 175              		.type	Pin_1_ReadDataReg, %function
 176              	Pin_1_ReadDataReg:
 177              	.LFB3:
  92:.\Generated_Source\PSoC4/Pin_1.c **** 
  93:.\Generated_Source\PSoC4/Pin_1.c **** 
  94:.\Generated_Source\PSoC4/Pin_1.c **** /*******************************************************************************
  95:.\Generated_Source\PSoC4/Pin_1.c **** * Function Name: Pin_1_ReadDataReg
  96:.\Generated_Source\PSoC4/Pin_1.c **** ********************************************************************************
  97:.\Generated_Source\PSoC4/Pin_1.c **** *
  98:.\Generated_Source\PSoC4/Pin_1.c **** * Summary:
  99:.\Generated_Source\PSoC4/Pin_1.c **** *  Read the current value assigned to a Digital Port's data output register
 100:.\Generated_Source\PSoC4/Pin_1.c **** *
 101:.\Generated_Source\PSoC4/Pin_1.c **** * Parameters:  
 102:.\Generated_Source\PSoC4/Pin_1.c **** *  None 
 103:.\Generated_Source\PSoC4/Pin_1.c **** *
 104:.\Generated_Source\PSoC4/Pin_1.c **** * Return: 
ARM GAS  C:\Users\maxk\AppData\Local\Temp\ccAwTnN3.s 			page 6


 105:.\Generated_Source\PSoC4/Pin_1.c **** *  Returns the current value assigned to the Digital Port's data output register
 106:.\Generated_Source\PSoC4/Pin_1.c **** *  
 107:.\Generated_Source\PSoC4/Pin_1.c **** *******************************************************************************/
 108:.\Generated_Source\PSoC4/Pin_1.c **** uint8 Pin_1_ReadDataReg(void) 
 109:.\Generated_Source\PSoC4/Pin_1.c **** {
 178              		.loc 1 109 0
 179              		.cfi_startproc
 180 0000 80B5     		push	{r7, lr}
 181              	.LCFI8:
 182              		.cfi_def_cfa_offset 8
 183              		.cfi_offset 7, -8
 184              		.cfi_offset 14, -4
 185 0002 00AF     		add	r7, sp, #0
 186              	.LCFI9:
 187              		.cfi_def_cfa_register 7
 110:.\Generated_Source\PSoC4/Pin_1.c ****     return (uint8)((Pin_1_DR & Pin_1_MASK) >> Pin_1_SHIFT);
 188              		.loc 1 110 0
 189 0004 034B     		ldr	r3, .L15
 190 0006 1B68     		ldr	r3, [r3]
 191 0008 DBB2     		uxtb	r3, r3
 192 000a 0122     		mov	r2, #1
 193 000c 1340     		and	r3, r3, r2
 111:.\Generated_Source\PSoC4/Pin_1.c **** }
 194              		.loc 1 111 0
 195 000e 181C     		mov	r0, r3
 196 0010 BD46     		mov	sp, r7
 197              		@ sp needed for prologue
 198 0012 80BD     		pop	{r7, pc}
 199              	.L16:
 200              		.align	2
 201              	.L15:
 202 0014 00020440 		.word	1074004480
 203              		.cfi_endproc
 204              	.LFE3:
 205              		.size	Pin_1_ReadDataReg, .-Pin_1_ReadDataReg
 206              		.section	.text.Pin_1_ClearInterrupt,"ax",%progbits
 207              		.align	2
 208              		.global	Pin_1_ClearInterrupt
 209              		.code	16
 210              		.thumb_func
 211              		.type	Pin_1_ClearInterrupt, %function
 212              	Pin_1_ClearInterrupt:
 213              	.LFB4:
 112:.\Generated_Source\PSoC4/Pin_1.c **** 
 113:.\Generated_Source\PSoC4/Pin_1.c **** 
 114:.\Generated_Source\PSoC4/Pin_1.c **** /* If Interrupts Are Enabled for this Pins component */ 
 115:.\Generated_Source\PSoC4/Pin_1.c **** #if defined(Pin_1_INTSTAT) 
 116:.\Generated_Source\PSoC4/Pin_1.c **** 
 117:.\Generated_Source\PSoC4/Pin_1.c ****     /*******************************************************************************
 118:.\Generated_Source\PSoC4/Pin_1.c ****     * Function Name: Pin_1_ClearInterrupt
 119:.\Generated_Source\PSoC4/Pin_1.c ****     ********************************************************************************
 120:.\Generated_Source\PSoC4/Pin_1.c ****     *
 121:.\Generated_Source\PSoC4/Pin_1.c ****     * Summary:
 122:.\Generated_Source\PSoC4/Pin_1.c ****     *  Clears any active interrupts attached to port and returns the value of the 
 123:.\Generated_Source\PSoC4/Pin_1.c ****     *  interrupt status register.
 124:.\Generated_Source\PSoC4/Pin_1.c ****     *
 125:.\Generated_Source\PSoC4/Pin_1.c ****     * Parameters:  
ARM GAS  C:\Users\maxk\AppData\Local\Temp\ccAwTnN3.s 			page 7


 126:.\Generated_Source\PSoC4/Pin_1.c ****     *  None 
 127:.\Generated_Source\PSoC4/Pin_1.c ****     *
 128:.\Generated_Source\PSoC4/Pin_1.c ****     * Return: 
 129:.\Generated_Source\PSoC4/Pin_1.c ****     *  Returns the value of the interrupt status register
 130:.\Generated_Source\PSoC4/Pin_1.c ****     *  
 131:.\Generated_Source\PSoC4/Pin_1.c ****     *******************************************************************************/
 132:.\Generated_Source\PSoC4/Pin_1.c ****     uint8 Pin_1_ClearInterrupt(void) 
 133:.\Generated_Source\PSoC4/Pin_1.c ****     {
 214              		.loc 1 133 0
 215              		.cfi_startproc
 216 0000 80B5     		push	{r7, lr}
 217              	.LCFI10:
 218              		.cfi_def_cfa_offset 8
 219              		.cfi_offset 7, -8
 220              		.cfi_offset 14, -4
 221 0002 82B0     		sub	sp, sp, #8
 222              	.LCFI11:
 223              		.cfi_def_cfa_offset 16
 224 0004 00AF     		add	r7, sp, #0
 225              	.LCFI12:
 226              		.cfi_def_cfa_register 7
 134:.\Generated_Source\PSoC4/Pin_1.c **** 		uint8 maskedStatus = (uint8)(Pin_1_INTSTAT & Pin_1_MASK);
 227              		.loc 1 134 0
 228 0006 084B     		ldr	r3, .L19
 229 0008 1B68     		ldr	r3, [r3]
 230 000a D9B2     		uxtb	r1, r3
 231 000c FB1D     		add	r3, r7, #7
 232 000e 0122     		mov	r2, #1
 233 0010 0A40     		and	r2, r2, r1
 234 0012 1A70     		strb	r2, [r3]
 135:.\Generated_Source\PSoC4/Pin_1.c **** 		Pin_1_INTSTAT = maskedStatus;
 235              		.loc 1 135 0
 236 0014 044B     		ldr	r3, .L19
 237 0016 FA1D     		add	r2, r7, #7
 238 0018 1278     		ldrb	r2, [r2]
 239 001a 1A60     		str	r2, [r3]
 136:.\Generated_Source\PSoC4/Pin_1.c ****         return maskedStatus >> Pin_1_SHIFT;
 240              		.loc 1 136 0
 241 001c FB1D     		add	r3, r7, #7
 242 001e 1B78     		ldrb	r3, [r3]
 137:.\Generated_Source\PSoC4/Pin_1.c ****     }
 243              		.loc 1 137 0
 244 0020 181C     		mov	r0, r3
 245 0022 BD46     		mov	sp, r7
 246 0024 02B0     		add	sp, sp, #8
 247              		@ sp needed for prologue
 248 0026 80BD     		pop	{r7, pc}
 249              	.L20:
 250              		.align	2
 251              	.L19:
 252 0028 10020440 		.word	1074004496
 253              		.cfi_endproc
 254              	.LFE4:
 255              		.size	Pin_1_ClearInterrupt, .-Pin_1_ClearInterrupt
 256              		.text
 257              	.Letext0: