ARM GAS  C:\Users\mitchell\AppData\Local\Temp\cccNcCd4.s 			page 1


   1              		.cpu cortex-m0
   2              		.fpu softvfp
   3              		.eabi_attribute 20, 1
   4              		.eabi_attribute 21, 1
   5              		.eabi_attribute 23, 3
   6              		.eabi_attribute 24, 1
   7              		.eabi_attribute 25, 1
   8              		.eabi_attribute 26, 1
   9              		.eabi_attribute 30, 6
  10              		.eabi_attribute 34, 0
  11              		.eabi_attribute 18, 4
  12              		.code	16
  13              		.file	"cyfitter_cfg.c"
  14              		.text
  15              	.Ltext0:
  16              		.cfi_sections	.debug_frame
  17              		.section	.text.CYMEMZERO,"ax",%progbits
  18              		.align	2
  19              		.code	16
  20              		.thumb_func
  21              		.type	CYMEMZERO, %function
  22              	CYMEMZERO:
  23              	.LFB0:
  24              		.file 1 ".\\Generated_Source\\PSoC4\\cyfitter_cfg.c"
   1:.\Generated_Source\PSoC4/cyfitter_cfg.c **** /*******************************************************************************
   2:.\Generated_Source\PSoC4/cyfitter_cfg.c **** * FILENAME: cyfitter_cfg.c
   3:.\Generated_Source\PSoC4/cyfitter_cfg.c **** * 
   4:.\Generated_Source\PSoC4/cyfitter_cfg.c **** * PSoC Creator  3.2 SP1
   5:.\Generated_Source\PSoC4/cyfitter_cfg.c **** *
   6:.\Generated_Source\PSoC4/cyfitter_cfg.c **** * DESCRIPTION:
   7:.\Generated_Source\PSoC4/cyfitter_cfg.c **** * This file contains device initialization code.
   8:.\Generated_Source\PSoC4/cyfitter_cfg.c **** * Except for the user defined sections in CyClockStartupError(), this file should not be modified.
   9:.\Generated_Source\PSoC4/cyfitter_cfg.c **** * This file is automatically generated by PSoC Creator.
  10:.\Generated_Source\PSoC4/cyfitter_cfg.c **** *
  11:.\Generated_Source\PSoC4/cyfitter_cfg.c **** ********************************************************************************
  12:.\Generated_Source\PSoC4/cyfitter_cfg.c **** * Copyright (c) 2007-2015 Cypress Semiconductor.  All rights reserved.
  13:.\Generated_Source\PSoC4/cyfitter_cfg.c **** * You may use this file only in accordance with the license, terms, conditions, 
  14:.\Generated_Source\PSoC4/cyfitter_cfg.c **** * disclaimers, and limitations in the end user license agreement accompanying 
  15:.\Generated_Source\PSoC4/cyfitter_cfg.c **** * the software package with which this file was provided.
  16:.\Generated_Source\PSoC4/cyfitter_cfg.c **** ********************************************************************************/
  17:.\Generated_Source\PSoC4/cyfitter_cfg.c **** 
  18:.\Generated_Source\PSoC4/cyfitter_cfg.c **** #include <string.h>
  19:.\Generated_Source\PSoC4/cyfitter_cfg.c **** #include "cytypes.h"
  20:.\Generated_Source\PSoC4/cyfitter_cfg.c **** #include "cydevice_trm.h"
  21:.\Generated_Source\PSoC4/cyfitter_cfg.c **** #include "cyfitter.h"
  22:.\Generated_Source\PSoC4/cyfitter_cfg.c **** #include "CyLib.h"
  23:.\Generated_Source\PSoC4/cyfitter_cfg.c **** #include "cyfitter_cfg.h"
  24:.\Generated_Source\PSoC4/cyfitter_cfg.c **** 
  25:.\Generated_Source\PSoC4/cyfitter_cfg.c **** 
  26:.\Generated_Source\PSoC4/cyfitter_cfg.c **** #if defined(__GNUC__) || defined(__ARMCC_VERSION)
  27:.\Generated_Source\PSoC4/cyfitter_cfg.c ****     #define CYPACKED 
  28:.\Generated_Source\PSoC4/cyfitter_cfg.c ****     #define CYPACKED_ATTR __attribute__ ((packed))
  29:.\Generated_Source\PSoC4/cyfitter_cfg.c ****     #define CYALIGNED __attribute__ ((aligned))
  30:.\Generated_Source\PSoC4/cyfitter_cfg.c ****     #define CY_CFG_UNUSED __attribute__ ((unused))
  31:.\Generated_Source\PSoC4/cyfitter_cfg.c ****     #define CY_CFG_SECTION __attribute__ ((section(".psocinit")))
  32:.\Generated_Source\PSoC4/cyfitter_cfg.c ****     
  33:.\Generated_Source\PSoC4/cyfitter_cfg.c ****     #if defined(__ARMCC_VERSION)
ARM GAS  C:\Users\mitchell\AppData\Local\Temp\cccNcCd4.s 			page 2


  34:.\Generated_Source\PSoC4/cyfitter_cfg.c ****         #define CY_CFG_MEMORY_BARRIER() __memory_changed()
  35:.\Generated_Source\PSoC4/cyfitter_cfg.c ****     #else
  36:.\Generated_Source\PSoC4/cyfitter_cfg.c ****         #define CY_CFG_MEMORY_BARRIER() __sync_synchronize()
  37:.\Generated_Source\PSoC4/cyfitter_cfg.c ****     #endif
  38:.\Generated_Source\PSoC4/cyfitter_cfg.c ****     
  39:.\Generated_Source\PSoC4/cyfitter_cfg.c **** #elif defined(__ICCARM__)
  40:.\Generated_Source\PSoC4/cyfitter_cfg.c ****     #include <intrinsics.h>
  41:.\Generated_Source\PSoC4/cyfitter_cfg.c **** 
  42:.\Generated_Source\PSoC4/cyfitter_cfg.c ****     #define CYPACKED __packed
  43:.\Generated_Source\PSoC4/cyfitter_cfg.c ****     #define CYPACKED_ATTR 
  44:.\Generated_Source\PSoC4/cyfitter_cfg.c ****     #define CYALIGNED _Pragma("data_alignment=4")
  45:.\Generated_Source\PSoC4/cyfitter_cfg.c ****     #define CY_CFG_UNUSED _Pragma("diag_suppress=Pe177")
  46:.\Generated_Source\PSoC4/cyfitter_cfg.c ****     #define CY_CFG_SECTION _Pragma("location=\".psocinit\"")
  47:.\Generated_Source\PSoC4/cyfitter_cfg.c ****     
  48:.\Generated_Source\PSoC4/cyfitter_cfg.c ****     #define CY_CFG_MEMORY_BARRIER() __DMB()
  49:.\Generated_Source\PSoC4/cyfitter_cfg.c ****     
  50:.\Generated_Source\PSoC4/cyfitter_cfg.c **** #else
  51:.\Generated_Source\PSoC4/cyfitter_cfg.c ****     #error Unsupported toolchain
  52:.\Generated_Source\PSoC4/cyfitter_cfg.c **** #endif
  53:.\Generated_Source\PSoC4/cyfitter_cfg.c **** 
  54:.\Generated_Source\PSoC4/cyfitter_cfg.c **** 
  55:.\Generated_Source\PSoC4/cyfitter_cfg.c **** CY_CFG_UNUSED
  56:.\Generated_Source\PSoC4/cyfitter_cfg.c **** static void CYMEMZERO(void *s, size_t n);
  57:.\Generated_Source\PSoC4/cyfitter_cfg.c **** CY_CFG_UNUSED
  58:.\Generated_Source\PSoC4/cyfitter_cfg.c **** static void CYMEMZERO(void *s, size_t n)
  59:.\Generated_Source\PSoC4/cyfitter_cfg.c **** {
  25              		.loc 1 59 0
  26              		.cfi_startproc
  27 0000 80B5     		push	{r7, lr}
  28              		.cfi_def_cfa_offset 8
  29              		.cfi_offset 7, -8
  30              		.cfi_offset 14, -4
  31 0002 82B0     		sub	sp, sp, #8
  32              		.cfi_def_cfa_offset 16
  33 0004 00AF     		add	r7, sp, #0
  34              		.cfi_def_cfa_register 7
  35 0006 7860     		str	r0, [r7, #4]
  36 0008 3960     		str	r1, [r7]
  60:.\Generated_Source\PSoC4/cyfitter_cfg.c **** 	(void)memset(s, 0, n);
  37              		.loc 1 60 0
  38 000a 7A68     		ldr	r2, [r7, #4]
  39 000c 3B68     		ldr	r3, [r7]
  40 000e 101C     		mov	r0, r2
  41 0010 0021     		mov	r1, #0
  42 0012 1A1C     		mov	r2, r3
  43 0014 FFF7FEFF 		bl	memset
  61:.\Generated_Source\PSoC4/cyfitter_cfg.c **** }
  44              		.loc 1 61 0
  45 0018 BD46     		mov	sp, r7
  46 001a 02B0     		add	sp, sp, #8
  47              		@ sp needed
  48 001c 80BD     		pop	{r7, pc}
  49              		.cfi_endproc
  50              	.LFE0:
  51              		.size	CYMEMZERO, .-CYMEMZERO
  52 001e C046     		.section	.text.CYCONFIGCPY,"ax",%progbits
  53              		.align	2
ARM GAS  C:\Users\mitchell\AppData\Local\Temp\cccNcCd4.s 			page 3


  54              		.code	16
  55              		.thumb_func
  56              		.type	CYCONFIGCPY, %function
  57              	CYCONFIGCPY:
  58              	.LFB1:
  62:.\Generated_Source\PSoC4/cyfitter_cfg.c **** CY_CFG_UNUSED
  63:.\Generated_Source\PSoC4/cyfitter_cfg.c **** static void CYCONFIGCPY(void *dest, const void *src, size_t n);
  64:.\Generated_Source\PSoC4/cyfitter_cfg.c **** CY_CFG_UNUSED
  65:.\Generated_Source\PSoC4/cyfitter_cfg.c **** static void CYCONFIGCPY(void *dest, const void *src, size_t n)
  66:.\Generated_Source\PSoC4/cyfitter_cfg.c **** {
  59              		.loc 1 66 0
  60              		.cfi_startproc
  61 0000 80B5     		push	{r7, lr}
  62              		.cfi_def_cfa_offset 8
  63              		.cfi_offset 7, -8
  64              		.cfi_offset 14, -4
  65 0002 84B0     		sub	sp, sp, #16
  66              		.cfi_def_cfa_offset 24
  67 0004 00AF     		add	r7, sp, #0
  68              		.cfi_def_cfa_register 7
  69 0006 F860     		str	r0, [r7, #12]
  70 0008 B960     		str	r1, [r7, #8]
  71 000a 7A60     		str	r2, [r7, #4]
  67:.\Generated_Source\PSoC4/cyfitter_cfg.c **** 	(void)memcpy(dest, src, n);
  72              		.loc 1 67 0
  73 000c F968     		ldr	r1, [r7, #12]
  74 000e BA68     		ldr	r2, [r7, #8]
  75 0010 7B68     		ldr	r3, [r7, #4]
  76 0012 081C     		mov	r0, r1
  77 0014 111C     		mov	r1, r2
  78 0016 1A1C     		mov	r2, r3
  79 0018 FFF7FEFF 		bl	memcpy
  68:.\Generated_Source\PSoC4/cyfitter_cfg.c **** }
  80              		.loc 1 68 0
  81 001c BD46     		mov	sp, r7
  82 001e 04B0     		add	sp, sp, #16
  83              		@ sp needed
  84 0020 80BD     		pop	{r7, pc}
  85              		.cfi_endproc
  86              	.LFE1:
  87              		.size	CYCONFIGCPY, .-CYCONFIGCPY
  88 0022 C046     		.section	.text.CYCONFIGCPYCODE,"ax",%progbits
  89              		.align	2
  90              		.code	16
  91              		.thumb_func
  92              		.type	CYCONFIGCPYCODE, %function
  93              	CYCONFIGCPYCODE:
  94              	.LFB2:
  69:.\Generated_Source\PSoC4/cyfitter_cfg.c **** CY_CFG_UNUSED
  70:.\Generated_Source\PSoC4/cyfitter_cfg.c **** static void CYCONFIGCPYCODE(void *dest, const void *src, size_t n);
  71:.\Generated_Source\PSoC4/cyfitter_cfg.c **** CY_CFG_UNUSED
  72:.\Generated_Source\PSoC4/cyfitter_cfg.c **** static void CYCONFIGCPYCODE(void *dest, const void *src, size_t n)
  73:.\Generated_Source\PSoC4/cyfitter_cfg.c **** {
  95              		.loc 1 73 0
  96              		.cfi_startproc
  97 0000 80B5     		push	{r7, lr}
  98              		.cfi_def_cfa_offset 8
ARM GAS  C:\Users\mitchell\AppData\Local\Temp\cccNcCd4.s 			page 4


  99              		.cfi_offset 7, -8
 100              		.cfi_offset 14, -4
 101 0002 84B0     		sub	sp, sp, #16
 102              		.cfi_def_cfa_offset 24
 103 0004 00AF     		add	r7, sp, #0
 104              		.cfi_def_cfa_register 7
 105 0006 F860     		str	r0, [r7, #12]
 106 0008 B960     		str	r1, [r7, #8]
 107 000a 7A60     		str	r2, [r7, #4]
  74:.\Generated_Source\PSoC4/cyfitter_cfg.c **** 	(void)memcpy(dest, src, n);
 108              		.loc 1 74 0
 109 000c F968     		ldr	r1, [r7, #12]
 110 000e BA68     		ldr	r2, [r7, #8]
 111 0010 7B68     		ldr	r3, [r7, #4]
 112 0012 081C     		mov	r0, r1
 113 0014 111C     		mov	r1, r2
 114 0016 1A1C     		mov	r2, r3
 115 0018 FFF7FEFF 		bl	memcpy
  75:.\Generated_Source\PSoC4/cyfitter_cfg.c **** }
 116              		.loc 1 75 0
 117 001c BD46     		mov	sp, r7
 118 001e 04B0     		add	sp, sp, #16
 119              		@ sp needed
 120 0020 80BD     		pop	{r7, pc}
 121              		.cfi_endproc
 122              	.LFE2:
 123              		.size	CYCONFIGCPYCODE, .-CYCONFIGCPYCODE
 124 0022 C046     		.section	.text.cfg_write_bytes32,"ax",%progbits
 125              		.align	2
 126              		.code	16
 127              		.thumb_func
 128              		.type	cfg_write_bytes32, %function
 129              	cfg_write_bytes32:
 130              	.LFB3:
  76:.\Generated_Source\PSoC4/cyfitter_cfg.c **** 
  77:.\Generated_Source\PSoC4/cyfitter_cfg.c **** 
  78:.\Generated_Source\PSoC4/cyfitter_cfg.c **** 
  79:.\Generated_Source\PSoC4/cyfitter_cfg.c **** /* Clock startup error codes                                                   */
  80:.\Generated_Source\PSoC4/cyfitter_cfg.c **** #define CYCLOCKSTART_NO_ERROR    0u
  81:.\Generated_Source\PSoC4/cyfitter_cfg.c **** #define CYCLOCKSTART_XTAL_ERROR  1u
  82:.\Generated_Source\PSoC4/cyfitter_cfg.c **** #define CYCLOCKSTART_32KHZ_ERROR 2u
  83:.\Generated_Source\PSoC4/cyfitter_cfg.c **** #define CYCLOCKSTART_PLL_ERROR   3u
  84:.\Generated_Source\PSoC4/cyfitter_cfg.c **** 
  85:.\Generated_Source\PSoC4/cyfitter_cfg.c **** #ifdef CY_NEED_CYCLOCKSTARTUPERROR
  86:.\Generated_Source\PSoC4/cyfitter_cfg.c **** /*******************************************************************************
  87:.\Generated_Source\PSoC4/cyfitter_cfg.c **** * Function Name: CyClockStartupError
  88:.\Generated_Source\PSoC4/cyfitter_cfg.c **** ********************************************************************************
  89:.\Generated_Source\PSoC4/cyfitter_cfg.c **** * Summary:
  90:.\Generated_Source\PSoC4/cyfitter_cfg.c **** *  If an error is encountered during clock configuration (crystal startup error,
  91:.\Generated_Source\PSoC4/cyfitter_cfg.c **** *  PLL lock error, etc.), the system will end up here.  Unless reimplemented by
  92:.\Generated_Source\PSoC4/cyfitter_cfg.c **** *  the customer, this function will stop in an infinite loop.
  93:.\Generated_Source\PSoC4/cyfitter_cfg.c **** *
  94:.\Generated_Source\PSoC4/cyfitter_cfg.c **** * Parameters:
  95:.\Generated_Source\PSoC4/cyfitter_cfg.c **** *   void
  96:.\Generated_Source\PSoC4/cyfitter_cfg.c **** *
  97:.\Generated_Source\PSoC4/cyfitter_cfg.c **** * Return:
  98:.\Generated_Source\PSoC4/cyfitter_cfg.c **** *   void
ARM GAS  C:\Users\mitchell\AppData\Local\Temp\cccNcCd4.s 			page 5


  99:.\Generated_Source\PSoC4/cyfitter_cfg.c **** *
 100:.\Generated_Source\PSoC4/cyfitter_cfg.c **** *******************************************************************************/
 101:.\Generated_Source\PSoC4/cyfitter_cfg.c **** CY_CFG_UNUSED
 102:.\Generated_Source\PSoC4/cyfitter_cfg.c **** static void CyClockStartupError(uint8 errorCode);
 103:.\Generated_Source\PSoC4/cyfitter_cfg.c **** CY_CFG_UNUSED
 104:.\Generated_Source\PSoC4/cyfitter_cfg.c **** static void CyClockStartupError(uint8 errorCode)
 105:.\Generated_Source\PSoC4/cyfitter_cfg.c **** {
 106:.\Generated_Source\PSoC4/cyfitter_cfg.c ****     /* To remove the compiler warning if errorCode not used.                */
 107:.\Generated_Source\PSoC4/cyfitter_cfg.c ****     errorCode = errorCode;
 108:.\Generated_Source\PSoC4/cyfitter_cfg.c **** 
 109:.\Generated_Source\PSoC4/cyfitter_cfg.c ****     /* `#START CyClockStartupError` */
 110:.\Generated_Source\PSoC4/cyfitter_cfg.c **** 
 111:.\Generated_Source\PSoC4/cyfitter_cfg.c ****     /* If we have a clock startup error (bad MHz crystal, PLL lock, etc.),  */
 112:.\Generated_Source\PSoC4/cyfitter_cfg.c ****     /* we will end up here to allow the customer to implement something to  */
 113:.\Generated_Source\PSoC4/cyfitter_cfg.c ****     /* deal with the clock condition.                                       */
 114:.\Generated_Source\PSoC4/cyfitter_cfg.c **** 
 115:.\Generated_Source\PSoC4/cyfitter_cfg.c ****     /* `#END` */
 116:.\Generated_Source\PSoC4/cyfitter_cfg.c **** 
 117:.\Generated_Source\PSoC4/cyfitter_cfg.c ****     /* If nothing else, stop here since the clocks have not started         */
 118:.\Generated_Source\PSoC4/cyfitter_cfg.c ****     /* correctly.                                                           */
 119:.\Generated_Source\PSoC4/cyfitter_cfg.c ****     while(1) {}
 120:.\Generated_Source\PSoC4/cyfitter_cfg.c **** }
 121:.\Generated_Source\PSoC4/cyfitter_cfg.c **** #endif
 122:.\Generated_Source\PSoC4/cyfitter_cfg.c **** 
 123:.\Generated_Source\PSoC4/cyfitter_cfg.c **** #define CY_CFG_BASE_ADDR_COUNT 1u
 124:.\Generated_Source\PSoC4/cyfitter_cfg.c **** CYPACKED typedef struct
 125:.\Generated_Source\PSoC4/cyfitter_cfg.c **** {
 126:.\Generated_Source\PSoC4/cyfitter_cfg.c **** 	uint8 offset;
 127:.\Generated_Source\PSoC4/cyfitter_cfg.c **** 	uint8 value;
 128:.\Generated_Source\PSoC4/cyfitter_cfg.c **** } CYPACKED_ATTR cy_cfg_addrvalue_t;
 129:.\Generated_Source\PSoC4/cyfitter_cfg.c **** 
 130:.\Generated_Source\PSoC4/cyfitter_cfg.c **** 
 131:.\Generated_Source\PSoC4/cyfitter_cfg.c **** 
 132:.\Generated_Source\PSoC4/cyfitter_cfg.c **** /*******************************************************************************
 133:.\Generated_Source\PSoC4/cyfitter_cfg.c **** * Function Name: cfg_write_bytes32
 134:.\Generated_Source\PSoC4/cyfitter_cfg.c **** ********************************************************************************
 135:.\Generated_Source\PSoC4/cyfitter_cfg.c **** * Summary:
 136:.\Generated_Source\PSoC4/cyfitter_cfg.c **** *  This function is used for setting up the chip configuration areas that
 137:.\Generated_Source\PSoC4/cyfitter_cfg.c **** *  contain relatively sparse data.
 138:.\Generated_Source\PSoC4/cyfitter_cfg.c **** *
 139:.\Generated_Source\PSoC4/cyfitter_cfg.c **** * Parameters:
 140:.\Generated_Source\PSoC4/cyfitter_cfg.c **** *   void
 141:.\Generated_Source\PSoC4/cyfitter_cfg.c **** *
 142:.\Generated_Source\PSoC4/cyfitter_cfg.c **** * Return:
 143:.\Generated_Source\PSoC4/cyfitter_cfg.c **** *   void
 144:.\Generated_Source\PSoC4/cyfitter_cfg.c **** *
 145:.\Generated_Source\PSoC4/cyfitter_cfg.c **** *******************************************************************************/
 146:.\Generated_Source\PSoC4/cyfitter_cfg.c **** static void cfg_write_bytes32(const uint32 addr_table[], const cy_cfg_addrvalue_t data_table[]);
 147:.\Generated_Source\PSoC4/cyfitter_cfg.c **** static void cfg_write_bytes32(const uint32 addr_table[], const cy_cfg_addrvalue_t data_table[])
 148:.\Generated_Source\PSoC4/cyfitter_cfg.c **** {
 131              		.loc 1 148 0
 132              		.cfi_startproc
 133 0000 80B5     		push	{r7, lr}
 134              		.cfi_def_cfa_offset 8
 135              		.cfi_offset 7, -8
 136              		.cfi_offset 14, -4
 137 0002 86B0     		sub	sp, sp, #24
ARM GAS  C:\Users\mitchell\AppData\Local\Temp\cccNcCd4.s 			page 6


 138              		.cfi_def_cfa_offset 32
 139 0004 00AF     		add	r7, sp, #0
 140              		.cfi_def_cfa_register 7
 141 0006 7860     		str	r0, [r7, #4]
 142 0008 3960     		str	r1, [r7]
 149:.\Generated_Source\PSoC4/cyfitter_cfg.c **** 	/* For 32-bit little-endian architectures */
 150:.\Generated_Source\PSoC4/cyfitter_cfg.c **** 	uint32 i, j = 0u;
 143              		.loc 1 150 0
 144 000a 0023     		mov	r3, #0
 145 000c 3B61     		str	r3, [r7, #16]
 151:.\Generated_Source\PSoC4/cyfitter_cfg.c **** 	for (i = 0u; i < CY_CFG_BASE_ADDR_COUNT; i++)
 146              		.loc 1 151 0
 147 000e 0023     		mov	r3, #0
 148 0010 7B61     		str	r3, [r7, #20]
 149 0012 2EE0     		b	.L5
 150              	.L8:
 151              	.LBB2:
 152:.\Generated_Source\PSoC4/cyfitter_cfg.c **** 	{
 153:.\Generated_Source\PSoC4/cyfitter_cfg.c **** 		uint32 baseAddr = addr_table[i];
 152              		.loc 1 153 0
 153 0014 7B69     		ldr	r3, [r7, #20]
 154 0016 9B00     		lsl	r3, r3, #2
 155 0018 7A68     		ldr	r2, [r7, #4]
 156 001a D318     		add	r3, r2, r3
 157 001c 1B68     		ldr	r3, [r3]
 158 001e BB60     		str	r3, [r7, #8]
 154:.\Generated_Source\PSoC4/cyfitter_cfg.c **** 		uint8 count = (uint8)baseAddr;
 159              		.loc 1 154 0
 160 0020 3B1C     		mov	r3, r7
 161 0022 0F33     		add	r3, r3, #15
 162 0024 BA68     		ldr	r2, [r7, #8]
 163 0026 1A70     		strb	r2, [r3]
 155:.\Generated_Source\PSoC4/cyfitter_cfg.c **** 		baseAddr &= 0xFFFFFF00u;
 164              		.loc 1 155 0
 165 0028 BB68     		ldr	r3, [r7, #8]
 166 002a FF22     		mov	r2, #255
 167 002c 9343     		bic	r3, r2
 168 002e BB60     		str	r3, [r7, #8]
 156:.\Generated_Source\PSoC4/cyfitter_cfg.c **** 		while (count != 0u)
 169              		.loc 1 156 0
 170 0030 17E0     		b	.L6
 171              	.L7:
 157:.\Generated_Source\PSoC4/cyfitter_cfg.c **** 		{
 158:.\Generated_Source\PSoC4/cyfitter_cfg.c **** 			CY_SET_XTND_REG8((void CYFAR *)(baseAddr + data_table[j].offset), data_table[j].value);
 172              		.loc 1 158 0
 173 0032 3B69     		ldr	r3, [r7, #16]
 174 0034 5B00     		lsl	r3, r3, #1
 175 0036 3A68     		ldr	r2, [r7]
 176 0038 D318     		add	r3, r2, r3
 177 003a 1B78     		ldrb	r3, [r3]
 178 003c 1A1C     		mov	r2, r3
 179 003e BB68     		ldr	r3, [r7, #8]
 180 0040 D318     		add	r3, r2, r3
 181 0042 3A69     		ldr	r2, [r7, #16]
 182 0044 5200     		lsl	r2, r2, #1
 183 0046 3968     		ldr	r1, [r7]
 184 0048 8A18     		add	r2, r1, r2
ARM GAS  C:\Users\mitchell\AppData\Local\Temp\cccNcCd4.s 			page 7


 185 004a 5278     		ldrb	r2, [r2, #1]
 186 004c 1A70     		strb	r2, [r3]
 159:.\Generated_Source\PSoC4/cyfitter_cfg.c **** 			j++;
 187              		.loc 1 159 0
 188 004e 3B69     		ldr	r3, [r7, #16]
 189 0050 0133     		add	r3, r3, #1
 190 0052 3B61     		str	r3, [r7, #16]
 160:.\Generated_Source\PSoC4/cyfitter_cfg.c **** 			count--;
 191              		.loc 1 160 0
 192 0054 3B1C     		mov	r3, r7
 193 0056 0F33     		add	r3, r3, #15
 194 0058 1A78     		ldrb	r2, [r3]
 195 005a 3B1C     		mov	r3, r7
 196 005c 0F33     		add	r3, r3, #15
 197 005e 013A     		sub	r2, r2, #1
 198 0060 1A70     		strb	r2, [r3]
 199              	.L6:
 156:.\Generated_Source\PSoC4/cyfitter_cfg.c **** 		while (count != 0u)
 200              		.loc 1 156 0 discriminator 1
 201 0062 3B1C     		mov	r3, r7
 202 0064 0F33     		add	r3, r3, #15
 203 0066 1B78     		ldrb	r3, [r3]
 204 0068 002B     		cmp	r3, #0
 205 006a E2D1     		bne	.L7
 206              	.LBE2:
 151:.\Generated_Source\PSoC4/cyfitter_cfg.c **** 	for (i = 0u; i < CY_CFG_BASE_ADDR_COUNT; i++)
 207              		.loc 1 151 0
 208 006c 7B69     		ldr	r3, [r7, #20]
 209 006e 0133     		add	r3, r3, #1
 210 0070 7B61     		str	r3, [r7, #20]
 211              	.L5:
 151:.\Generated_Source\PSoC4/cyfitter_cfg.c **** 	for (i = 0u; i < CY_CFG_BASE_ADDR_COUNT; i++)
 212              		.loc 1 151 0 is_stmt 0 discriminator 1
 213 0072 7B69     		ldr	r3, [r7, #20]
 214 0074 002B     		cmp	r3, #0
 215 0076 CDD0     		beq	.L8
 161:.\Generated_Source\PSoC4/cyfitter_cfg.c **** 		}
 162:.\Generated_Source\PSoC4/cyfitter_cfg.c **** 	}
 163:.\Generated_Source\PSoC4/cyfitter_cfg.c **** }
 216              		.loc 1 163 0 is_stmt 1
 217 0078 BD46     		mov	sp, r7
 218 007a 06B0     		add	sp, sp, #24
 219              		@ sp needed
 220 007c 80BD     		pop	{r7, pc}
 221              		.cfi_endproc
 222              	.LFE3:
 223              		.size	cfg_write_bytes32, .-cfg_write_bytes32
 224 007e C046     		.section	.psocinit,"ax",%progbits
 225              		.align	2
 226              		.code	16
 227              		.thumb_func
 228              		.type	ClockSetup, %function
 229              	ClockSetup:
 230              	.LFB4:
 164:.\Generated_Source\PSoC4/cyfitter_cfg.c **** 
 165:.\Generated_Source\PSoC4/cyfitter_cfg.c **** 
 166:.\Generated_Source\PSoC4/cyfitter_cfg.c **** /*******************************************************************************
ARM GAS  C:\Users\mitchell\AppData\Local\Temp\cccNcCd4.s 			page 8


 167:.\Generated_Source\PSoC4/cyfitter_cfg.c **** * Function Name: ClockSetup
 168:.\Generated_Source\PSoC4/cyfitter_cfg.c **** ********************************************************************************
 169:.\Generated_Source\PSoC4/cyfitter_cfg.c **** *
 170:.\Generated_Source\PSoC4/cyfitter_cfg.c **** * Summary:
 171:.\Generated_Source\PSoC4/cyfitter_cfg.c **** *   Performs the initialization of all of the clocks in the device based on the
 172:.\Generated_Source\PSoC4/cyfitter_cfg.c **** *   settings in the Clock tab of the DWR.  This includes enabling the requested
 173:.\Generated_Source\PSoC4/cyfitter_cfg.c **** *   clocks and setting the necessary dividers to produce the desired frequency. 
 174:.\Generated_Source\PSoC4/cyfitter_cfg.c **** *
 175:.\Generated_Source\PSoC4/cyfitter_cfg.c **** * Parameters:
 176:.\Generated_Source\PSoC4/cyfitter_cfg.c **** *   void
 177:.\Generated_Source\PSoC4/cyfitter_cfg.c **** *
 178:.\Generated_Source\PSoC4/cyfitter_cfg.c **** * Return:
 179:.\Generated_Source\PSoC4/cyfitter_cfg.c **** *   void
 180:.\Generated_Source\PSoC4/cyfitter_cfg.c **** *
 181:.\Generated_Source\PSoC4/cyfitter_cfg.c **** *******************************************************************************/
 182:.\Generated_Source\PSoC4/cyfitter_cfg.c **** static void ClockSetup(void);
 183:.\Generated_Source\PSoC4/cyfitter_cfg.c **** CY_CFG_SECTION
 184:.\Generated_Source\PSoC4/cyfitter_cfg.c **** static void ClockSetup(void)
 185:.\Generated_Source\PSoC4/cyfitter_cfg.c **** {
 231              		.loc 1 185 0
 232              		.cfi_startproc
 233 0000 80B5     		push	{r7, lr}
 234              		.cfi_def_cfa_offset 8
 235              		.cfi_offset 7, -8
 236              		.cfi_offset 14, -4
 237 0002 00AF     		add	r7, sp, #0
 238              		.cfi_def_cfa_register 7
 186:.\Generated_Source\PSoC4/cyfitter_cfg.c **** 	/* Enable HALF_EN before trimming for the flash accelerator. */
 187:.\Generated_Source\PSoC4/cyfitter_cfg.c **** 	CY_SET_REG32((void CYXDATA *)(CYREG_CLK_SELECT), (CY_GET_REG32((void *)CYREG_CLK_SELECT) | 0x00040
 239              		.loc 1 187 0
 240 0004 134B     		ldr	r3, .L10
 241 0006 134A     		ldr	r2, .L10
 242 0008 1268     		ldr	r2, [r2]
 243 000a 8021     		mov	r1, #128
 244 000c C902     		lsl	r1, r1, #11
 245 000e 0A43     		orr	r2, r1
 246 0010 1A60     		str	r2, [r3]
 188:.\Generated_Source\PSoC4/cyfitter_cfg.c **** 
 189:.\Generated_Source\PSoC4/cyfitter_cfg.c **** 	/* Setup and trim IMO based on desired frequency. */
 190:.\Generated_Source\PSoC4/cyfitter_cfg.c **** 	CySysClkWriteImoFreq(3u);
 247              		.loc 1 190 0
 248 0012 0320     		mov	r0, #3
 249 0014 FFF7FEFF 		bl	CySysClkWriteImoFreq
 191:.\Generated_Source\PSoC4/cyfitter_cfg.c **** 
 192:.\Generated_Source\PSoC4/cyfitter_cfg.c **** 	/* Disable HALF_EN since it is not required at this IMO frequency. */
 193:.\Generated_Source\PSoC4/cyfitter_cfg.c **** 	CY_SET_REG32((void CYXDATA *)(CYREG_CLK_SELECT), (CY_GET_REG32((void *)CYREG_CLK_SELECT) & 0xFFFBF
 250              		.loc 1 193 0
 251 0018 0E4B     		ldr	r3, .L10
 252 001a 0E4A     		ldr	r2, .L10
 253 001c 1168     		ldr	r1, [r2]
 254 001e 0E4A     		ldr	r2, .L10+4
 255 0020 0A40     		and	r2, r1
 256 0022 1A60     		str	r2, [r3]
 194:.\Generated_Source\PSoC4/cyfitter_cfg.c **** 	/* CYDEV_CLK_ILO_CONFIG Starting address: CYDEV_CLK_ILO_CONFIG */
 195:.\Generated_Source\PSoC4/cyfitter_cfg.c **** 	CY_SET_XTND_REG32((void CYFAR *)(CYREG_CLK_ILO_CONFIG), 0x80000006u);
 257              		.loc 1 195 0
 258 0024 0D4B     		ldr	r3, .L10+8
ARM GAS  C:\Users\mitchell\AppData\Local\Temp\cccNcCd4.s 			page 9


 259 0026 0E4A     		ldr	r2, .L10+12
 260 0028 1A60     		str	r2, [r3]
 196:.\Generated_Source\PSoC4/cyfitter_cfg.c **** 
 197:.\Generated_Source\PSoC4/cyfitter_cfg.c **** 
 198:.\Generated_Source\PSoC4/cyfitter_cfg.c **** 	/* CYDEV_CLK_SELECT00 Starting address: CYDEV_CLK_SELECT00 */
 199:.\Generated_Source\PSoC4/cyfitter_cfg.c **** 	CY_SET_XTND_REG32((void CYFAR *)(CYREG_CLK_SELECT03), 0x00000020u);
 261              		.loc 1 199 0
 262 002a 0E4B     		ldr	r3, .L10+16
 263 002c 2022     		mov	r2, #32
 264 002e 1A60     		str	r2, [r3]
 200:.\Generated_Source\PSoC4/cyfitter_cfg.c **** 	CY_SET_XTND_REG32((void CYFAR *)(CYREG_CLK_SELECT07), 0x00000010u);
 265              		.loc 1 200 0
 266 0030 0D4B     		ldr	r3, .L10+20
 267 0032 1022     		mov	r2, #16
 268 0034 1A60     		str	r2, [r3]
 201:.\Generated_Source\PSoC4/cyfitter_cfg.c **** 
 202:.\Generated_Source\PSoC4/cyfitter_cfg.c **** 	/* CYDEV_CLK_IMO_CONFIG Starting address: CYDEV_CLK_IMO_CONFIG */
 203:.\Generated_Source\PSoC4/cyfitter_cfg.c **** 	CY_SET_XTND_REG32((void CYFAR *)(CYREG_CLK_IMO_CONFIG), 0xA6000000u);
 269              		.loc 1 203 0
 270 0036 0D4B     		ldr	r3, .L10+24
 271 0038 A622     		mov	r2, #166
 272 003a 1206     		lsl	r2, r2, #24
 273 003c 1A60     		str	r2, [r3]
 204:.\Generated_Source\PSoC4/cyfitter_cfg.c **** 
 205:.\Generated_Source\PSoC4/cyfitter_cfg.c **** 	/* CYDEV_CLK_DIVIDER_A00 Starting address: CYDEV_CLK_DIVIDER_A00 */
 206:.\Generated_Source\PSoC4/cyfitter_cfg.c **** 	CY_SET_XTND_REG32((void CYFAR *)(CYREG_CLK_DIVIDER_A00), 0x80000001u);
 274              		.loc 1 206 0
 275 003e 0C4B     		ldr	r3, .L10+28
 276 0040 0C4A     		ldr	r2, .L10+32
 277 0042 1A60     		str	r2, [r3]
 207:.\Generated_Source\PSoC4/cyfitter_cfg.c **** 
 208:.\Generated_Source\PSoC4/cyfitter_cfg.c **** 	/* CYDEV_CLK_DIVIDER_B00 Starting address: CYDEV_CLK_DIVIDER_B00 */
 209:.\Generated_Source\PSoC4/cyfitter_cfg.c **** 	CY_SET_XTND_REG32((void CYFAR *)(CYREG_CLK_DIVIDER_B00), 0x80000026u);
 278              		.loc 1 209 0
 279 0044 0C4B     		ldr	r3, .L10+36
 280 0046 0D4A     		ldr	r2, .L10+40
 281 0048 1A60     		str	r2, [r3]
 210:.\Generated_Source\PSoC4/cyfitter_cfg.c **** 
 211:.\Generated_Source\PSoC4/cyfitter_cfg.c **** 	CY_SET_XTND_REG32((void CYFAR *)(CYREG_WDT_CONFIG), 0x00000000u);
 282              		.loc 1 211 0
 283 004a 0D4B     		ldr	r3, .L10+44
 284 004c 0022     		mov	r2, #0
 285 004e 1A60     		str	r2, [r3]
 212:.\Generated_Source\PSoC4/cyfitter_cfg.c **** }
 286              		.loc 1 212 0
 287 0050 BD46     		mov	sp, r7
 288              		@ sp needed
 289 0052 80BD     		pop	{r7, pc}
 290              	.L11:
 291              		.align	2
 292              	.L10:
 293 0054 00010B40 		.word	1074462976
 294 0058 FFFFFBFF 		.word	-262145
 295 005c 04010B40 		.word	1074462980
 296 0060 06000080 		.word	-2147483642
 297 0064 0C020240 		.word	1073873420
 298 0068 1C020240 		.word	1073873436
ARM GAS  C:\Users\mitchell\AppData\Local\Temp\cccNcCd4.s 			page 10


 299 006c 08010B40 		.word	1074462984
 300 0070 00000240 		.word	1073872896
 301 0074 01000080 		.word	-2147483647
 302 0078 40000240 		.word	1073872960
 303 007c 26000080 		.word	-2147483610
 304 0080 0C020B40 		.word	1074463244
 305              		.cfi_endproc
 306              	.LFE4:
 307              		.size	ClockSetup, .-ClockSetup
 308              		.section	.text.AnalogSetDefault,"ax",%progbits
 309              		.align	2
 310              		.code	16
 311              		.thumb_func
 312              		.type	AnalogSetDefault, %function
 313              	AnalogSetDefault:
 314              	.LFB5:
 213:.\Generated_Source\PSoC4/cyfitter_cfg.c **** 
 214:.\Generated_Source\PSoC4/cyfitter_cfg.c **** 
 215:.\Generated_Source\PSoC4/cyfitter_cfg.c **** /* Analog API Functions */
 216:.\Generated_Source\PSoC4/cyfitter_cfg.c **** 
 217:.\Generated_Source\PSoC4/cyfitter_cfg.c **** 
 218:.\Generated_Source\PSoC4/cyfitter_cfg.c **** /*******************************************************************************
 219:.\Generated_Source\PSoC4/cyfitter_cfg.c **** * Function Name: AnalogSetDefault
 220:.\Generated_Source\PSoC4/cyfitter_cfg.c **** ********************************************************************************
 221:.\Generated_Source\PSoC4/cyfitter_cfg.c **** *
 222:.\Generated_Source\PSoC4/cyfitter_cfg.c **** * Summary:
 223:.\Generated_Source\PSoC4/cyfitter_cfg.c **** *  Sets up the analog portions of the chip to default values based on chip
 224:.\Generated_Source\PSoC4/cyfitter_cfg.c **** *  configuration options from the project.
 225:.\Generated_Source\PSoC4/cyfitter_cfg.c **** *
 226:.\Generated_Source\PSoC4/cyfitter_cfg.c **** * Parameters:
 227:.\Generated_Source\PSoC4/cyfitter_cfg.c **** *  void
 228:.\Generated_Source\PSoC4/cyfitter_cfg.c **** *
 229:.\Generated_Source\PSoC4/cyfitter_cfg.c **** * Return:
 230:.\Generated_Source\PSoC4/cyfitter_cfg.c **** *  void
 231:.\Generated_Source\PSoC4/cyfitter_cfg.c **** *
 232:.\Generated_Source\PSoC4/cyfitter_cfg.c **** *******************************************************************************/
 233:.\Generated_Source\PSoC4/cyfitter_cfg.c **** static void AnalogSetDefault(void);
 234:.\Generated_Source\PSoC4/cyfitter_cfg.c **** static void AnalogSetDefault(void)
 235:.\Generated_Source\PSoC4/cyfitter_cfg.c **** {
 315              		.loc 1 235 0
 316              		.cfi_startproc
 317 0000 80B5     		push	{r7, lr}
 318              		.cfi_def_cfa_offset 8
 319              		.cfi_offset 7, -8
 320              		.cfi_offset 14, -4
 321 0002 00AF     		add	r7, sp, #0
 322              		.cfi_def_cfa_register 7
 236:.\Generated_Source\PSoC4/cyfitter_cfg.c **** 	CY_SET_XTND_REG32((void CYFAR *)CYREG_CTBM_OA0_SW, 0x00240104u);
 323              		.loc 1 236 0
 324 0004 084B     		ldr	r3, .L13
 325 0006 094A     		ldr	r2, .L13+4
 326 0008 1A60     		str	r2, [r3]
 237:.\Generated_Source\PSoC4/cyfitter_cfg.c **** 	CY_SET_XTND_REG32((void CYFAR *)CYREG_CTBM_OA1_SW, 0x00280102u);
 327              		.loc 1 237 0
 328 000a 094B     		ldr	r3, .L13+8
 329 000c 094A     		ldr	r2, .L13+12
 330 000e 1A60     		str	r2, [r3]
ARM GAS  C:\Users\mitchell\AppData\Local\Temp\cccNcCd4.s 			page 11


 238:.\Generated_Source\PSoC4/cyfitter_cfg.c **** 	CY_SET_XTND_REG32((void CYFAR *)CYREG_CTBM_CTB_SW_HW_CTRL, 0x0000000Cu);
 331              		.loc 1 238 0
 332 0010 094B     		ldr	r3, .L13+16
 333 0012 0C22     		mov	r2, #12
 334 0014 1A60     		str	r2, [r3]
 239:.\Generated_Source\PSoC4/cyfitter_cfg.c **** 	CY_SET_XTND_REG32((void CYFAR *)CYREG_SAR_MUX_SWITCH0, 0x0240020Du);
 335              		.loc 1 239 0
 336 0016 094B     		ldr	r3, .L13+20
 337 0018 094A     		ldr	r2, .L13+24
 338 001a 1A60     		str	r2, [r3]
 240:.\Generated_Source\PSoC4/cyfitter_cfg.c **** 	CY_SET_XTND_REG32((void CYFAR *)CYREG_SAR_MUX_SWITCH_HW_CTRL, 0x00C0000Fu);
 339              		.loc 1 240 0
 340 001c 094B     		ldr	r3, .L13+28
 341 001e 0A4A     		ldr	r2, .L13+32
 342 0020 1A60     		str	r2, [r3]
 241:.\Generated_Source\PSoC4/cyfitter_cfg.c **** }
 343              		.loc 1 241 0
 344 0022 BD46     		mov	sp, r7
 345              		@ sp needed
 346 0024 80BD     		pop	{r7, pc}
 347              	.L14:
 348 0026 C046     		.align	2
 349              	.L13:
 350 0028 80001040 		.word	1074790528
 351 002c 04012400 		.word	2359556
 352 0030 88001040 		.word	1074790536
 353 0034 02012800 		.word	2621698
 354 0038 C0001040 		.word	1074790592
 355 003c 00031A40 		.word	1075446528
 356 0040 0D024002 		.word	37749261
 357 0044 40031A40 		.word	1075446592
 358 0048 0F00C000 		.word	12582927
 359              		.cfi_endproc
 360              	.LFE5:
 361              		.size	AnalogSetDefault, .-AnalogSetDefault
 362              		.section	.psocinit
 363              		.align	2
 364              		.global	cyfitter_cfg
 365              		.code	16
 366              		.thumb_func
 367              		.type	cyfitter_cfg, %function
 368              	cyfitter_cfg:
 369              	.LFB6:
 242:.\Generated_Source\PSoC4/cyfitter_cfg.c **** 
 243:.\Generated_Source\PSoC4/cyfitter_cfg.c **** #define CY_AMUX_UNUSED CYREG_CM0_ROM_DWT
 244:.\Generated_Source\PSoC4/cyfitter_cfg.c **** 
 245:.\Generated_Source\PSoC4/cyfitter_cfg.c **** 
 246:.\Generated_Source\PSoC4/cyfitter_cfg.c **** /*******************************************************************************
 247:.\Generated_Source\PSoC4/cyfitter_cfg.c **** * Function Name: cyfitter_cfg
 248:.\Generated_Source\PSoC4/cyfitter_cfg.c **** ********************************************************************************
 249:.\Generated_Source\PSoC4/cyfitter_cfg.c **** * Summary:
 250:.\Generated_Source\PSoC4/cyfitter_cfg.c **** *  This function is called by the start-up code for the selected device. It
 251:.\Generated_Source\PSoC4/cyfitter_cfg.c **** *  performs all of the necessary device configuration based on the design
 252:.\Generated_Source\PSoC4/cyfitter_cfg.c **** *  settings.  This includes settings from the Design Wide Resources (DWR) such
 253:.\Generated_Source\PSoC4/cyfitter_cfg.c **** *  as Clocks and Pins as well as any component configuration that is necessary.
 254:.\Generated_Source\PSoC4/cyfitter_cfg.c **** *
 255:.\Generated_Source\PSoC4/cyfitter_cfg.c **** * Parameters:  
ARM GAS  C:\Users\mitchell\AppData\Local\Temp\cccNcCd4.s 			page 12


 256:.\Generated_Source\PSoC4/cyfitter_cfg.c **** *   void
 257:.\Generated_Source\PSoC4/cyfitter_cfg.c **** *
 258:.\Generated_Source\PSoC4/cyfitter_cfg.c **** * Return:
 259:.\Generated_Source\PSoC4/cyfitter_cfg.c **** *   void
 260:.\Generated_Source\PSoC4/cyfitter_cfg.c **** *
 261:.\Generated_Source\PSoC4/cyfitter_cfg.c **** *******************************************************************************/
 262:.\Generated_Source\PSoC4/cyfitter_cfg.c **** CY_CFG_SECTION
 263:.\Generated_Source\PSoC4/cyfitter_cfg.c **** void cyfitter_cfg(void)
 264:.\Generated_Source\PSoC4/cyfitter_cfg.c **** {
 370              		.loc 1 264 0
 371              		.cfi_startproc
 372 0084 80B5     		push	{r7, lr}
 373              		.cfi_def_cfa_offset 8
 374              		.cfi_offset 7, -8
 375              		.cfi_offset 14, -4
 376 0086 82B0     		sub	sp, sp, #8
 377              		.cfi_def_cfa_offset 16
 378 0088 00AF     		add	r7, sp, #0
 379              		.cfi_def_cfa_register 7
 265:.\Generated_Source\PSoC4/cyfitter_cfg.c **** 	/* Disable interrupts by default. Let user enable if/when they want. */
 266:.\Generated_Source\PSoC4/cyfitter_cfg.c **** 	CyGlobalIntDisable;
 380              		.loc 1 266 0
 381              	@ 266 ".\Generated_Source\PSoC4\cyfitter_cfg.c" 1
 382 008a 72B6     		CPSID   i
 383              	@ 0 "" 2
 384              		.code	16
 385              	.LBB3:
 267:.\Generated_Source\PSoC4/cyfitter_cfg.c **** 
 268:.\Generated_Source\PSoC4/cyfitter_cfg.c **** 	{
 269:.\Generated_Source\PSoC4/cyfitter_cfg.c **** 		static const uint32 CYCODE cy_cfg_addr_table[] = {
 270:.\Generated_Source\PSoC4/cyfitter_cfg.c **** 			0x400F6002u, /* Base address: 0x400F6000 Count: 2 */
 271:.\Generated_Source\PSoC4/cyfitter_cfg.c **** 		};
 272:.\Generated_Source\PSoC4/cyfitter_cfg.c **** 
 273:.\Generated_Source\PSoC4/cyfitter_cfg.c **** 		static const cy_cfg_addrvalue_t CYCODE cy_cfg_data_table[] = {
 274:.\Generated_Source\PSoC4/cyfitter_cfg.c **** 			{0x02u, 0x01u},
 275:.\Generated_Source\PSoC4/cyfitter_cfg.c **** 			{0x11u, 0x01u},
 276:.\Generated_Source\PSoC4/cyfitter_cfg.c **** 		};
 277:.\Generated_Source\PSoC4/cyfitter_cfg.c **** 
 278:.\Generated_Source\PSoC4/cyfitter_cfg.c **** 
 279:.\Generated_Source\PSoC4/cyfitter_cfg.c **** 
 280:.\Generated_Source\PSoC4/cyfitter_cfg.c **** 		CYPACKED typedef struct {
 281:.\Generated_Source\PSoC4/cyfitter_cfg.c **** 			void CYFAR *address;
 282:.\Generated_Source\PSoC4/cyfitter_cfg.c **** 			uint16 size;
 283:.\Generated_Source\PSoC4/cyfitter_cfg.c **** 		} CYPACKED_ATTR cfg_memset_t;
 284:.\Generated_Source\PSoC4/cyfitter_cfg.c **** 
 285:.\Generated_Source\PSoC4/cyfitter_cfg.c **** 		static const cfg_memset_t CYCODE cfg_memset_list [] = {
 286:.\Generated_Source\PSoC4/cyfitter_cfg.c **** 			/* address, size */
 287:.\Generated_Source\PSoC4/cyfitter_cfg.c **** 			{(void CYFAR *)(CYDEV_UDB_P0_U0_BASE), 1024u},
 288:.\Generated_Source\PSoC4/cyfitter_cfg.c **** 			{(void CYFAR *)(CYDEV_UDB_DSI0_BASE), 1024u},
 289:.\Generated_Source\PSoC4/cyfitter_cfg.c **** 		};
 290:.\Generated_Source\PSoC4/cyfitter_cfg.c **** 
 291:.\Generated_Source\PSoC4/cyfitter_cfg.c **** 		uint8 CYDATA i;
 292:.\Generated_Source\PSoC4/cyfitter_cfg.c **** 
 293:.\Generated_Source\PSoC4/cyfitter_cfg.c **** 		/* Zero out critical memory blocks before beginning configuration */
 294:.\Generated_Source\PSoC4/cyfitter_cfg.c **** 		for (i = 0u; i < (sizeof(cfg_memset_list)/sizeof(cfg_memset_list[0])); i++)
 386              		.loc 1 294 0
 387 008c FB1D     		add	r3, r7, #7
ARM GAS  C:\Users\mitchell\AppData\Local\Temp\cccNcCd4.s 			page 13


 388 008e 0022     		mov	r2, #0
 389 0090 1A70     		strb	r2, [r3]
 390 0092 23E0     		b	.L16
 391              	.L17:
 392              	.LBB4:
 295:.\Generated_Source\PSoC4/cyfitter_cfg.c **** 		{
 296:.\Generated_Source\PSoC4/cyfitter_cfg.c **** 			const cfg_memset_t CYCODE * CYDATA ms = &cfg_memset_list[i];
 393              		.loc 1 296 0 discriminator 2
 394 0094 FB1D     		add	r3, r7, #7
 395 0096 1A78     		ldrb	r2, [r3]
 396 0098 131C     		mov	r3, r2
 397 009a 5B00     		lsl	r3, r3, #1
 398 009c 9B18     		add	r3, r3, r2
 399 009e 5B00     		lsl	r3, r3, #1
 400 00a0 414A     		ldr	r2, .L18
 401 00a2 9B18     		add	r3, r3, r2
 402 00a4 3B60     		str	r3, [r7]
 297:.\Generated_Source\PSoC4/cyfitter_cfg.c **** 			CYMEMZERO(ms->address, (size_t)(uint32)(ms->size));
 403              		.loc 1 297 0 discriminator 2
 404 00a6 3B68     		ldr	r3, [r7]
 405 00a8 1A78     		ldrb	r2, [r3]
 406 00aa 5978     		ldrb	r1, [r3, #1]
 407 00ac 0902     		lsl	r1, r1, #8
 408 00ae 0A43     		orr	r2, r1
 409 00b0 9978     		ldrb	r1, [r3, #2]
 410 00b2 0904     		lsl	r1, r1, #16
 411 00b4 0A43     		orr	r2, r1
 412 00b6 DB78     		ldrb	r3, [r3, #3]
 413 00b8 1B06     		lsl	r3, r3, #24
 414 00ba 1343     		orr	r3, r2
 415 00bc 1A1C     		mov	r2, r3
 416 00be 3B68     		ldr	r3, [r7]
 417 00c0 1979     		ldrb	r1, [r3, #4]
 418 00c2 5B79     		ldrb	r3, [r3, #5]
 419 00c4 1B02     		lsl	r3, r3, #8
 420 00c6 0B43     		orr	r3, r1
 421 00c8 9BB2     		uxth	r3, r3
 422 00ca 101C     		mov	r0, r2
 423 00cc 191C     		mov	r1, r3
 424 00ce FFF7FEFF 		bl	CYMEMZERO
 425              	.LBE4:
 294:.\Generated_Source\PSoC4/cyfitter_cfg.c **** 		for (i = 0u; i < (sizeof(cfg_memset_list)/sizeof(cfg_memset_list[0])); i++)
 426              		.loc 1 294 0 discriminator 2
 427 00d2 FB1D     		add	r3, r7, #7
 428 00d4 1A78     		ldrb	r2, [r3]
 429 00d6 FB1D     		add	r3, r7, #7
 430 00d8 0132     		add	r2, r2, #1
 431 00da 1A70     		strb	r2, [r3]
 432              	.L16:
 294:.\Generated_Source\PSoC4/cyfitter_cfg.c **** 		for (i = 0u; i < (sizeof(cfg_memset_list)/sizeof(cfg_memset_list[0])); i++)
 433              		.loc 1 294 0 is_stmt 0 discriminator 1
 434 00dc FB1D     		add	r3, r7, #7
 435 00de 1B78     		ldrb	r3, [r3]
 436 00e0 012B     		cmp	r3, #1
 437 00e2 D7D9     		bls	.L17
 298:.\Generated_Source\PSoC4/cyfitter_cfg.c **** 		}
 299:.\Generated_Source\PSoC4/cyfitter_cfg.c **** 
ARM GAS  C:\Users\mitchell\AppData\Local\Temp\cccNcCd4.s 			page 14


 300:.\Generated_Source\PSoC4/cyfitter_cfg.c **** 		cfg_write_bytes32(cy_cfg_addr_table, cy_cfg_data_table);
 438              		.loc 1 300 0 is_stmt 1
 439 00e4 314A     		ldr	r2, .L18+4
 440 00e6 324B     		ldr	r3, .L18+8
 441 00e8 101C     		mov	r0, r2
 442 00ea 191C     		mov	r1, r3
 443 00ec FFF7FEFF 		bl	cfg_write_bytes32
 301:.\Generated_Source\PSoC4/cyfitter_cfg.c **** 
 302:.\Generated_Source\PSoC4/cyfitter_cfg.c **** 		/* HSIOM Starting address: CYDEV_HSIOM_BASE */
 303:.\Generated_Source\PSoC4/cyfitter_cfg.c **** 		CY_SET_XTND_REG32((void CYFAR *)(CYDEV_HSIOM_BASE), 0x00900000u);
 444              		.loc 1 303 0
 445 00f0 304B     		ldr	r3, .L18+12
 446 00f2 9022     		mov	r2, #144
 447 00f4 1204     		lsl	r2, r2, #16
 448 00f6 1A60     		str	r2, [r3]
 304:.\Generated_Source\PSoC4/cyfitter_cfg.c **** 		CY_SET_XTND_REG32((void CYFAR *)(CYREG_HSIOM_PORT_SEL3), 0x0000EE00u);
 449              		.loc 1 304 0
 450 00f8 2F4B     		ldr	r3, .L18+16
 451 00fa EE22     		mov	r2, #238
 452 00fc 1202     		lsl	r2, r2, #8
 453 00fe 1A60     		str	r2, [r3]
 305:.\Generated_Source\PSoC4/cyfitter_cfg.c **** 
 306:.\Generated_Source\PSoC4/cyfitter_cfg.c **** 		/* UDB_PA_0 Starting address: CYDEV_UDB_PA0_BASE */
 307:.\Generated_Source\PSoC4/cyfitter_cfg.c **** 		CY_SET_XTND_REG32((void CYFAR *)(CYDEV_UDB_PA0_BASE), 0x00990000u);
 454              		.loc 1 307 0
 455 0100 2E4B     		ldr	r3, .L18+20
 456 0102 9922     		mov	r2, #153
 457 0104 1204     		lsl	r2, r2, #16
 458 0106 1A60     		str	r2, [r3]
 308:.\Generated_Source\PSoC4/cyfitter_cfg.c **** 		CY_SET_XTND_REG32((void CYFAR *)(CYREG_UDB_PA0_CFG4), 0x80000000u);
 459              		.loc 1 308 0
 460 0108 2D4B     		ldr	r3, .L18+24
 461 010a 8022     		mov	r2, #128
 462 010c 1206     		lsl	r2, r2, #24
 463 010e 1A60     		str	r2, [r3]
 309:.\Generated_Source\PSoC4/cyfitter_cfg.c **** 
 310:.\Generated_Source\PSoC4/cyfitter_cfg.c **** 		/* UDB_PA_1 Starting address: CYDEV_UDB_PA1_BASE */
 311:.\Generated_Source\PSoC4/cyfitter_cfg.c **** 		CY_SET_XTND_REG32((void CYFAR *)(CYDEV_UDB_PA1_BASE), 0x00990000u);
 464              		.loc 1 311 0
 465 0110 2C4B     		ldr	r3, .L18+28
 466 0112 9922     		mov	r2, #153
 467 0114 1204     		lsl	r2, r2, #16
 468 0116 1A60     		str	r2, [r3]
 312:.\Generated_Source\PSoC4/cyfitter_cfg.c **** 
 313:.\Generated_Source\PSoC4/cyfitter_cfg.c **** 		/* UDB_PA_2 Starting address: CYDEV_UDB_PA2_BASE */
 314:.\Generated_Source\PSoC4/cyfitter_cfg.c **** 		CY_SET_XTND_REG32((void CYFAR *)(CYDEV_UDB_PA2_BASE), 0x00990000u);
 469              		.loc 1 314 0
 470 0118 2B4B     		ldr	r3, .L18+32
 471 011a 9922     		mov	r2, #153
 472 011c 1204     		lsl	r2, r2, #16
 473 011e 1A60     		str	r2, [r3]
 315:.\Generated_Source\PSoC4/cyfitter_cfg.c **** 
 316:.\Generated_Source\PSoC4/cyfitter_cfg.c **** 		/* UDB_PA_3 Starting address: CYDEV_UDB_PA3_BASE */
 317:.\Generated_Source\PSoC4/cyfitter_cfg.c **** 		CY_SET_XTND_REG32((void CYFAR *)(CYDEV_UDB_PA3_BASE), 0x00990000u);
 474              		.loc 1 317 0
 475 0120 2A4B     		ldr	r3, .L18+36
 476 0122 9922     		mov	r2, #153
ARM GAS  C:\Users\mitchell\AppData\Local\Temp\cccNcCd4.s 			page 15


 477 0124 1204     		lsl	r2, r2, #16
 478 0126 1A60     		str	r2, [r3]
 318:.\Generated_Source\PSoC4/cyfitter_cfg.c **** 
 319:.\Generated_Source\PSoC4/cyfitter_cfg.c **** 		/* Enable digital routing */
 320:.\Generated_Source\PSoC4/cyfitter_cfg.c **** 		CY_SET_XTND_REG8((void *)CYREG_UDB_UDBIF_BANK_CTL, CY_GET_XTND_REG8((void *)CYREG_UDB_UDBIF_BANK_
 479              		.loc 1 320 0
 480 0128 294B     		ldr	r3, .L18+40
 481 012a 294A     		ldr	r2, .L18+40
 482 012c 1278     		ldrb	r2, [r2]
 483 012e D2B2     		uxtb	r2, r2
 484 0130 0221     		mov	r1, #2
 485 0132 0A43     		orr	r2, r1
 486 0134 D2B2     		uxtb	r2, r2
 487 0136 1A70     		strb	r2, [r3]
 321:.\Generated_Source\PSoC4/cyfitter_cfg.c **** 
 322:.\Generated_Source\PSoC4/cyfitter_cfg.c **** 		/* Enable UDB array */
 323:.\Generated_Source\PSoC4/cyfitter_cfg.c **** 		CY_SET_XTND_REG8((void *)CYREG_UDB_UDBIF_WAIT_CFG, (uint8)((CY_GET_XTND_REG8((void *)CYREG_UDB_UD
 488              		.loc 1 323 0
 489 0138 264B     		ldr	r3, .L18+44
 490 013a 264A     		ldr	r2, .L18+44
 491 013c 1278     		ldrb	r2, [r2]
 492 013e D2B2     		uxtb	r2, r2
 493 0140 3C21     		mov	r1, #60
 494 0142 8A43     		bic	r2, r1
 495 0144 D2B2     		uxtb	r2, r2
 496 0146 1421     		mov	r1, #20
 497 0148 0A43     		orr	r2, r1
 498 014a D2B2     		uxtb	r2, r2
 499 014c 1A70     		strb	r2, [r3]
 324:.\Generated_Source\PSoC4/cyfitter_cfg.c **** 		CY_SET_XTND_REG8((void *)CYREG_UDB_UDBIF_BANK_CTL, (uint8)(CY_GET_XTND_REG8((void *)CYREG_UDB_UDB
 500              		.loc 1 324 0
 501 014e 204B     		ldr	r3, .L18+40
 502 0150 1F4A     		ldr	r2, .L18+40
 503 0152 1278     		ldrb	r2, [r2]
 504 0154 D2B2     		uxtb	r2, r2
 505 0156 1621     		mov	r1, #22
 506 0158 0A43     		orr	r2, r1
 507 015a D2B2     		uxtb	r2, r2
 508 015c 1A70     		strb	r2, [r3]
 509              	.LBE3:
 325:.\Generated_Source\PSoC4/cyfitter_cfg.c **** 	}
 326:.\Generated_Source\PSoC4/cyfitter_cfg.c **** 
 327:.\Generated_Source\PSoC4/cyfitter_cfg.c **** 	/* Perform second pass device configuration. These items must be configured in specific order afte
 328:.\Generated_Source\PSoC4/cyfitter_cfg.c **** 	/* IOPINS0_0 Starting address: CYDEV_PRT0_DR */
 329:.\Generated_Source\PSoC4/cyfitter_cfg.c **** 	CY_SET_XTND_REG32((void CYFAR *)(CYREG_PRT0_DR), 0x000000A0u);
 510              		.loc 1 329 0
 511 015e 1E4B     		ldr	r3, .L18+48
 512 0160 A022     		mov	r2, #160
 513 0162 1A60     		str	r2, [r3]
 330:.\Generated_Source\PSoC4/cyfitter_cfg.c **** 	CY_SET_XTND_REG32((void CYFAR *)(CYREG_PRT0_PC), 0x00430000u);
 514              		.loc 1 330 0
 515 0164 1D4B     		ldr	r3, .L18+52
 516 0166 8622     		mov	r2, #134
 517 0168 D203     		lsl	r2, r2, #15
 518 016a 1A60     		str	r2, [r3]
 331:.\Generated_Source\PSoC4/cyfitter_cfg.c **** 	CY_SET_XTND_REG32((void CYFAR *)(CYREG_PRT0_PC2), 0x00000020u);
 519              		.loc 1 331 0
ARM GAS  C:\Users\mitchell\AppData\Local\Temp\cccNcCd4.s 			page 16


 520 016c 1C4B     		ldr	r3, .L18+56
 521 016e 2022     		mov	r2, #32
 522 0170 1A60     		str	r2, [r3]
 332:.\Generated_Source\PSoC4/cyfitter_cfg.c **** 
 333:.\Generated_Source\PSoC4/cyfitter_cfg.c **** 	/* IOPINS0_1 Starting address: CYDEV_PRT1_DR */
 334:.\Generated_Source\PSoC4/cyfitter_cfg.c **** 	CY_SET_XTND_REG32((void CYFAR *)(CYREG_PRT1_DR), 0x0000007Fu);
 523              		.loc 1 334 0
 524 0172 1C4B     		ldr	r3, .L18+60
 525 0174 7F22     		mov	r2, #127
 526 0176 1A60     		str	r2, [r3]
 335:.\Generated_Source\PSoC4/cyfitter_cfg.c **** 	CY_SET_XTND_REG32((void CYFAR *)(CYREG_PRT1_PC), 0x00100000u);
 527              		.loc 1 335 0
 528 0178 1B4B     		ldr	r3, .L18+64
 529 017a 8022     		mov	r2, #128
 530 017c 5203     		lsl	r2, r2, #13
 531 017e 1A60     		str	r2, [r3]
 336:.\Generated_Source\PSoC4/cyfitter_cfg.c **** 	CY_SET_XTND_REG32((void CYFAR *)(CYREG_PRT1_PC2), 0x0000003Fu);
 532              		.loc 1 336 0
 533 0180 1A4B     		ldr	r3, .L18+68
 534 0182 3F22     		mov	r2, #63
 535 0184 1A60     		str	r2, [r3]
 337:.\Generated_Source\PSoC4/cyfitter_cfg.c **** 
 338:.\Generated_Source\PSoC4/cyfitter_cfg.c **** 	/* IOPINS0_2 Starting address: CYDEV_PRT2_DR */
 339:.\Generated_Source\PSoC4/cyfitter_cfg.c **** 	CY_SET_XTND_REG32((void CYFAR *)(CYREG_PRT2_DR), 0x0000000Fu);
 536              		.loc 1 339 0
 537 0186 1A4B     		ldr	r3, .L18+72
 538 0188 0F22     		mov	r2, #15
 539 018a 1A60     		str	r2, [r3]
 340:.\Generated_Source\PSoC4/cyfitter_cfg.c **** 	CY_SET_XTND_REG32((void CYFAR *)(CYREG_PRT2_PC2), 0x0000000Fu);
 540              		.loc 1 340 0
 541 018c 194B     		ldr	r3, .L18+76
 542 018e 0F22     		mov	r2, #15
 543 0190 1A60     		str	r2, [r3]
 341:.\Generated_Source\PSoC4/cyfitter_cfg.c **** 
 342:.\Generated_Source\PSoC4/cyfitter_cfg.c **** 	/* IOPINS0_3 Starting address: CYDEV_PRT3_DR */
 343:.\Generated_Source\PSoC4/cyfitter_cfg.c **** 	CY_SET_XTND_REG32((void CYFAR *)(CYREG_PRT3_PC), 0x00000D80u);
 544              		.loc 1 343 0
 545 0192 194B     		ldr	r3, .L18+80
 546 0194 D822     		mov	r2, #216
 547 0196 1201     		lsl	r2, r2, #4
 548 0198 1A60     		str	r2, [r3]
 344:.\Generated_Source\PSoC4/cyfitter_cfg.c **** 
 345:.\Generated_Source\PSoC4/cyfitter_cfg.c **** 	/* Setup clocks based on selections from Clock DWR */
 346:.\Generated_Source\PSoC4/cyfitter_cfg.c **** 	ClockSetup();
 549              		.loc 1 346 0
 550 019a FFF731FF 		bl	ClockSetup
 347:.\Generated_Source\PSoC4/cyfitter_cfg.c **** 
 348:.\Generated_Source\PSoC4/cyfitter_cfg.c **** 	/* Perform basic analog initialization to defaults */
 349:.\Generated_Source\PSoC4/cyfitter_cfg.c **** 	AnalogSetDefault();
 551              		.loc 1 349 0
 552 019e FFF7FEFF 		bl	AnalogSetDefault
 350:.\Generated_Source\PSoC4/cyfitter_cfg.c **** 
 351:.\Generated_Source\PSoC4/cyfitter_cfg.c **** }
 553              		.loc 1 351 0
 554 01a2 BD46     		mov	sp, r7
 555 01a4 02B0     		add	sp, sp, #8
 556              		@ sp needed
ARM GAS  C:\Users\mitchell\AppData\Local\Temp\cccNcCd4.s 			page 17


 557 01a6 80BD     		pop	{r7, pc}
 558              	.L19:
 559              		.align	2
 560              	.L18:
 561 01a8 00000000 		.word	cfg_memset_list.4740
 562 01ac 0C000000 		.word	cy_cfg_addr_table.4734
 563 01b0 10000000 		.word	cy_cfg_data_table.4735
 564 01b4 00000140 		.word	1073807360
 565 01b8 0C000140 		.word	1073807372
 566 01bc 00500F40 		.word	1074745344
 567 01c0 04500F40 		.word	1074745348
 568 01c4 10500F40 		.word	1074745360
 569 01c8 20500F40 		.word	1074745376
 570 01cc 30500F40 		.word	1074745392
 571 01d0 00700F40 		.word	1074753536
 572 01d4 01700F40 		.word	1074753537
 573 01d8 00000440 		.word	1074003968
 574 01dc 08000440 		.word	1074003976
 575 01e0 18000440 		.word	1074003992
 576 01e4 00010440 		.word	1074004224
 577 01e8 08010440 		.word	1074004232
 578 01ec 18010440 		.word	1074004248
 579 01f0 00020440 		.word	1074004480
 580 01f4 18020440 		.word	1074004504
 581 01f8 08030440 		.word	1074004744
 582              		.cfi_endproc
 583              	.LFE6:
 584              		.size	cyfitter_cfg, .-cyfitter_cfg
 585              		.section	.rodata
 586              		.align	2
 587              		.type	cfg_memset_list.4740, %object
 588              		.size	cfg_memset_list.4740, 12
 589              	cfg_memset_list.4740:
 590 0000 00300F40 		.word	1074737152
 591 0004 0004     		.short	1024
 592 0006 00400F40 		.4byte	1074741248
 593 000a 0004     		.short	1024
 594              		.align	2
 595              		.type	cy_cfg_addr_table.4734, %object
 596              		.size	cy_cfg_addr_table.4734, 4
 597              	cy_cfg_addr_table.4734:
 598 000c 02600F40 		.word	1074749442
 599              		.align	2
 600              		.type	cy_cfg_data_table.4735, %object
 601              		.size	cy_cfg_data_table.4735, 4
 602              	cy_cfg_data_table.4735:
 603 0010 02       		.byte	2
 604 0011 01       		.byte	1
 605 0012 11       		.byte	17
 606 0013 01       		.byte	1
 607              		.text
 608              	.Letext0:
 609              		.file 2 "c:\\program files (x86)\\cypress\\psoc creator\\3.2\\psoc creator\\import\\gnu\\arm\\4.8.
 610              		.file 3 ".\\Generated_Source\\PSoC4\\cytypes.h"
 611              		.section	.debug_info,"",%progbits
 612              	.Ldebug_info0:
 613 0000 4F030000 		.4byte	0x34f
ARM GAS  C:\Users\mitchell\AppData\Local\Temp\cccNcCd4.s 			page 18


 614 0004 0400     		.2byte	0x4
 615 0006 00000000 		.4byte	.Ldebug_abbrev0
 616 000a 04       		.byte	0x4
 617 000b 01       		.uleb128 0x1
 618 000c A5000000 		.4byte	.LASF39
 619 0010 01       		.byte	0x1
 620 0011 05020000 		.4byte	.LASF40
 621 0015 1E000000 		.4byte	.LASF41
 622 0019 00000000 		.4byte	.Ldebug_ranges0+0
 623 001d 00000000 		.4byte	0
 624 0021 00000000 		.4byte	.Ldebug_line0
 625 0025 02       		.uleb128 0x2
 626 0026 04       		.byte	0x4
 627 0027 05       		.byte	0x5
 628 0028 696E7400 		.ascii	"int\000"
 629 002c 03       		.uleb128 0x3
 630 002d 06000000 		.4byte	.LASF11
 631 0031 02       		.byte	0x2
 632 0032 D4       		.byte	0xd4
 633 0033 37000000 		.4byte	0x37
 634 0037 04       		.uleb128 0x4
 635 0038 04       		.byte	0x4
 636 0039 07       		.byte	0x7
 637 003a BA010000 		.4byte	.LASF0
 638 003e 04       		.uleb128 0x4
 639 003f 01       		.byte	0x1
 640 0040 06       		.byte	0x6
 641 0041 6D020000 		.4byte	.LASF1
 642 0045 04       		.uleb128 0x4
 643 0046 01       		.byte	0x1
 644 0047 08       		.byte	0x8
 645 0048 62010000 		.4byte	.LASF2
 646 004c 04       		.uleb128 0x4
 647 004d 02       		.byte	0x2
 648 004e 05       		.byte	0x5
 649 004f 5A020000 		.4byte	.LASF3
 650 0053 04       		.uleb128 0x4
 651 0054 02       		.byte	0x2
 652 0055 07       		.byte	0x7
 653 0056 79020000 		.4byte	.LASF4
 654 005a 04       		.uleb128 0x4
 655 005b 04       		.byte	0x4
 656 005c 05       		.byte	0x5
 657 005d 64020000 		.4byte	.LASF5
 658 0061 04       		.uleb128 0x4
 659 0062 04       		.byte	0x4
 660 0063 07       		.byte	0x7
 661 0064 40010000 		.4byte	.LASF6
 662 0068 04       		.uleb128 0x4
 663 0069 08       		.byte	0x8
 664 006a 05       		.byte	0x5
 665 006b 2D020000 		.4byte	.LASF7
 666 006f 04       		.uleb128 0x4
 667 0070 08       		.byte	0x8
 668 0071 07       		.byte	0x7
 669 0072 CF010000 		.4byte	.LASF8
 670 0076 04       		.uleb128 0x4
ARM GAS  C:\Users\mitchell\AppData\Local\Temp\cccNcCd4.s 			page 19


 671 0077 04       		.byte	0x4
 672 0078 07       		.byte	0x7
 673 0079 FC010000 		.4byte	.LASF9
 674 007d 05       		.uleb128 0x5
 675 007e 04       		.byte	0x4
 676 007f 04       		.uleb128 0x4
 677 0080 01       		.byte	0x1
 678 0081 08       		.byte	0x8
 679 0082 3B020000 		.4byte	.LASF10
 680 0086 03       		.uleb128 0x3
 681 0087 52010000 		.4byte	.LASF12
 682 008b 03       		.byte	0x3
 683 008c C1       		.byte	0xc1
 684 008d 45000000 		.4byte	0x45
 685 0091 03       		.uleb128 0x3
 686 0092 A1010000 		.4byte	.LASF13
 687 0096 03       		.byte	0x3
 688 0097 C2       		.byte	0xc2
 689 0098 53000000 		.4byte	0x53
 690 009c 03       		.uleb128 0x3
 691 009d B3010000 		.4byte	.LASF14
 692 00a1 03       		.byte	0x3
 693 00a2 C3       		.byte	0xc3
 694 00a3 61000000 		.4byte	0x61
 695 00a7 04       		.uleb128 0x4
 696 00a8 04       		.byte	0x4
 697 00a9 04       		.byte	0x4
 698 00aa 9F000000 		.4byte	.LASF15
 699 00ae 04       		.uleb128 0x4
 700 00af 08       		.byte	0x8
 701 00b0 04       		.byte	0x4
 702 00b1 70010000 		.4byte	.LASF16
 703 00b5 06       		.uleb128 0x6
 704 00b6 3B010000 		.4byte	.LASF17
 705 00ba 03       		.byte	0x3
 706 00bb 6B01     		.2byte	0x16b
 707 00bd C1000000 		.4byte	0xc1
 708 00c1 07       		.uleb128 0x7
 709 00c2 86000000 		.4byte	0x86
 710 00c6 06       		.uleb128 0x6
 711 00c7 00000000 		.4byte	.LASF18
 712 00cb 03       		.byte	0x3
 713 00cc 6D01     		.2byte	0x16d
 714 00ce D2000000 		.4byte	0xd2
 715 00d2 07       		.uleb128 0x7
 716 00d3 9C000000 		.4byte	0x9c
 717 00d7 08       		.uleb128 0x8
 718 00d8 02       		.byte	0x2
 719 00d9 01       		.byte	0x1
 720 00da 7C       		.byte	0x7c
 721 00db F8000000 		.4byte	0xf8
 722 00df 09       		.uleb128 0x9
 723 00e0 53020000 		.4byte	.LASF19
 724 00e4 01       		.byte	0x1
 725 00e5 7E       		.byte	0x7e
 726 00e6 86000000 		.4byte	0x86
 727 00ea 00       		.byte	0
ARM GAS  C:\Users\mitchell\AppData\Local\Temp\cccNcCd4.s 			page 20


 728 00eb 09       		.uleb128 0x9
 729 00ec 64000000 		.4byte	.LASF20
 730 00f0 01       		.byte	0x1
 731 00f1 7F       		.byte	0x7f
 732 00f2 86000000 		.4byte	0x86
 733 00f6 01       		.byte	0x1
 734 00f7 00       		.byte	0
 735 00f8 03       		.uleb128 0x3
 736 00f9 40020000 		.4byte	.LASF21
 737 00fd 01       		.byte	0x1
 738 00fe 80       		.byte	0x80
 739 00ff D7000000 		.4byte	0xd7
 740 0103 0A       		.uleb128 0xa
 741 0104 58010000 		.4byte	.LASF22
 742 0108 01       		.byte	0x1
 743 0109 3A       		.byte	0x3a
 744 010a 00000000 		.4byte	.LFB0
 745 010e 1E000000 		.4byte	.LFE0-.LFB0
 746 0112 01       		.uleb128 0x1
 747 0113 9C       		.byte	0x9c
 748 0114 31010000 		.4byte	0x131
 749 0118 0B       		.uleb128 0xb
 750 0119 7300     		.ascii	"s\000"
 751 011b 01       		.byte	0x1
 752 011c 3A       		.byte	0x3a
 753 011d 7D000000 		.4byte	0x7d
 754 0121 02       		.uleb128 0x2
 755 0122 91       		.byte	0x91
 756 0123 74       		.sleb128 -12
 757 0124 0B       		.uleb128 0xb
 758 0125 6E00     		.ascii	"n\000"
 759 0127 01       		.byte	0x1
 760 0128 3A       		.byte	0x3a
 761 0129 2C000000 		.4byte	0x2c
 762 012d 02       		.uleb128 0x2
 763 012e 91       		.byte	0x91
 764 012f 70       		.sleb128 -16
 765 0130 00       		.byte	0
 766 0131 0A       		.uleb128 0xa
 767 0132 9C020000 		.4byte	.LASF23
 768 0136 01       		.byte	0x1
 769 0137 41       		.byte	0x41
 770 0138 00000000 		.4byte	.LFB1
 771 013c 22000000 		.4byte	.LFE1-.LFB1
 772 0140 01       		.uleb128 0x1
 773 0141 9C       		.byte	0x9c
 774 0142 6F010000 		.4byte	0x16f
 775 0146 0C       		.uleb128 0xc
 776 0147 21010000 		.4byte	.LASF24
 777 014b 01       		.byte	0x1
 778 014c 41       		.byte	0x41
 779 014d 7D000000 		.4byte	0x7d
 780 0151 02       		.uleb128 0x2
 781 0152 91       		.byte	0x91
 782 0153 74       		.sleb128 -12
 783 0154 0B       		.uleb128 0xb
 784 0155 73726300 		.ascii	"src\000"
ARM GAS  C:\Users\mitchell\AppData\Local\Temp\cccNcCd4.s 			page 21


 785 0159 01       		.byte	0x1
 786 015a 41       		.byte	0x41
 787 015b 6F010000 		.4byte	0x16f
 788 015f 02       		.uleb128 0x2
 789 0160 91       		.byte	0x91
 790 0161 70       		.sleb128 -16
 791 0162 0B       		.uleb128 0xb
 792 0163 6E00     		.ascii	"n\000"
 793 0165 01       		.byte	0x1
 794 0166 41       		.byte	0x41
 795 0167 2C000000 		.4byte	0x2c
 796 016b 02       		.uleb128 0x2
 797 016c 91       		.byte	0x91
 798 016d 6C       		.sleb128 -20
 799 016e 00       		.byte	0
 800 016f 0D       		.uleb128 0xd
 801 0170 04       		.byte	0x4
 802 0171 75010000 		.4byte	0x175
 803 0175 0E       		.uleb128 0xe
 804 0176 0A       		.uleb128 0xa
 805 0177 8C020000 		.4byte	.LASF25
 806 017b 01       		.byte	0x1
 807 017c 48       		.byte	0x48
 808 017d 00000000 		.4byte	.LFB2
 809 0181 22000000 		.4byte	.LFE2-.LFB2
 810 0185 01       		.uleb128 0x1
 811 0186 9C       		.byte	0x9c
 812 0187 B4010000 		.4byte	0x1b4
 813 018b 0C       		.uleb128 0xc
 814 018c 21010000 		.4byte	.LASF24
 815 0190 01       		.byte	0x1
 816 0191 48       		.byte	0x48
 817 0192 7D000000 		.4byte	0x7d
 818 0196 02       		.uleb128 0x2
 819 0197 91       		.byte	0x91
 820 0198 74       		.sleb128 -12
 821 0199 0B       		.uleb128 0xb
 822 019a 73726300 		.ascii	"src\000"
 823 019e 01       		.byte	0x1
 824 019f 48       		.byte	0x48
 825 01a0 6F010000 		.4byte	0x16f
 826 01a4 02       		.uleb128 0x2
 827 01a5 91       		.byte	0x91
 828 01a6 70       		.sleb128 -16
 829 01a7 0B       		.uleb128 0xb
 830 01a8 6E00     		.ascii	"n\000"
 831 01aa 01       		.byte	0x1
 832 01ab 48       		.byte	0x48
 833 01ac 2C000000 		.4byte	0x2c
 834 01b0 02       		.uleb128 0x2
 835 01b1 91       		.byte	0x91
 836 01b2 6C       		.sleb128 -20
 837 01b3 00       		.byte	0
 838 01b4 0F       		.uleb128 0xf
 839 01b5 77010000 		.4byte	.LASF26
 840 01b9 01       		.byte	0x1
 841 01ba 93       		.byte	0x93
ARM GAS  C:\Users\mitchell\AppData\Local\Temp\cccNcCd4.s 			page 22


 842 01bb 00000000 		.4byte	.LFB3
 843 01bf 7E000000 		.4byte	.LFE3-.LFB3
 844 01c3 01       		.uleb128 0x1
 845 01c4 9C       		.byte	0x9c
 846 01c5 24020000 		.4byte	0x224
 847 01c9 0C       		.uleb128 0xc
 848 01ca 96010000 		.4byte	.LASF27
 849 01ce 01       		.byte	0x1
 850 01cf 93       		.byte	0x93
 851 01d0 24020000 		.4byte	0x224
 852 01d4 02       		.uleb128 0x2
 853 01d5 91       		.byte	0x91
 854 01d6 64       		.sleb128 -28
 855 01d7 0C       		.uleb128 0xc
 856 01d8 A8010000 		.4byte	.LASF28
 857 01dc 01       		.byte	0x1
 858 01dd 93       		.byte	0x93
 859 01de 2F020000 		.4byte	0x22f
 860 01e2 02       		.uleb128 0x2
 861 01e3 91       		.byte	0x91
 862 01e4 60       		.sleb128 -32
 863 01e5 10       		.uleb128 0x10
 864 01e6 6900     		.ascii	"i\000"
 865 01e8 01       		.byte	0x1
 866 01e9 96       		.byte	0x96
 867 01ea 9C000000 		.4byte	0x9c
 868 01ee 02       		.uleb128 0x2
 869 01ef 91       		.byte	0x91
 870 01f0 74       		.sleb128 -12
 871 01f1 10       		.uleb128 0x10
 872 01f2 6A00     		.ascii	"j\000"
 873 01f4 01       		.byte	0x1
 874 01f5 96       		.byte	0x96
 875 01f6 9C000000 		.4byte	0x9c
 876 01fa 02       		.uleb128 0x2
 877 01fb 91       		.byte	0x91
 878 01fc 70       		.sleb128 -16
 879 01fd 11       		.uleb128 0x11
 880 01fe 14000000 		.4byte	.LBB2
 881 0202 58000000 		.4byte	.LBE2-.LBB2
 882 0206 12       		.uleb128 0x12
 883 0207 F3010000 		.4byte	.LASF29
 884 020b 01       		.byte	0x1
 885 020c 99       		.byte	0x99
 886 020d 9C000000 		.4byte	0x9c
 887 0211 02       		.uleb128 0x2
 888 0212 91       		.byte	0x91
 889 0213 68       		.sleb128 -24
 890 0214 12       		.uleb128 0x12
 891 0215 6A000000 		.4byte	.LASF30
 892 0219 01       		.byte	0x1
 893 021a 9A       		.byte	0x9a
 894 021b 86000000 		.4byte	0x86
 895 021f 02       		.uleb128 0x2
 896 0220 91       		.byte	0x91
 897 0221 6F       		.sleb128 -17
 898 0222 00       		.byte	0
ARM GAS  C:\Users\mitchell\AppData\Local\Temp\cccNcCd4.s 			page 23


 899 0223 00       		.byte	0
 900 0224 0D       		.uleb128 0xd
 901 0225 04       		.byte	0x4
 902 0226 2A020000 		.4byte	0x22a
 903 022a 13       		.uleb128 0x13
 904 022b 9C000000 		.4byte	0x9c
 905 022f 0D       		.uleb128 0xd
 906 0230 04       		.byte	0x4
 907 0231 35020000 		.4byte	0x235
 908 0235 13       		.uleb128 0x13
 909 0236 F8000000 		.4byte	0xf8
 910 023a 14       		.uleb128 0x14
 911 023b 70000000 		.4byte	.LASF31
 912 023f 01       		.byte	0x1
 913 0240 B8       		.byte	0xb8
 914 0241 00000000 		.4byte	.LFB4
 915 0245 84000000 		.4byte	.LFE4-.LFB4
 916 0249 01       		.uleb128 0x1
 917 024a 9C       		.byte	0x9c
 918 024b 15       		.uleb128 0x15
 919 024c 0D000000 		.4byte	.LASF32
 920 0250 01       		.byte	0x1
 921 0251 EA       		.byte	0xea
 922 0252 00000000 		.4byte	.LFB5
 923 0256 4C000000 		.4byte	.LFE5-.LFB5
 924 025a 01       		.uleb128 0x1
 925 025b 9C       		.byte	0x9c
 926 025c 16       		.uleb128 0x16
 927 025d 89010000 		.4byte	.LASF42
 928 0261 01       		.byte	0x1
 929 0262 0701     		.2byte	0x107
 930 0264 84000000 		.4byte	.LFB6
 931 0268 78010000 		.4byte	.LFE6-.LFB6
 932 026c 01       		.uleb128 0x1
 933 026d 9C       		.byte	0x9c
 934 026e 28030000 		.4byte	0x328
 935 0272 11       		.uleb128 0x11
 936 0273 8C000000 		.4byte	.LBB3
 937 0277 D2000000 		.4byte	.LBE3-.LBB3
 938 027b 17       		.uleb128 0x17
 939 027c 7B000000 		.4byte	.LASF33
 940 0280 01       		.byte	0x1
 941 0281 0D01     		.2byte	0x10d
 942 0283 38030000 		.4byte	0x338
 943 0287 05       		.uleb128 0x5
 944 0288 03       		.byte	0x3
 945 0289 0C000000 		.4byte	cy_cfg_addr_table.4734
 946 028d 17       		.uleb128 0x17
 947 028e 8D000000 		.4byte	.LASF34
 948 0292 01       		.byte	0x1
 949 0293 1101     		.2byte	0x111
 950 0295 4D030000 		.4byte	0x34d
 951 0299 05       		.uleb128 0x5
 952 029a 03       		.byte	0x3
 953 029b 10000000 		.4byte	cy_cfg_data_table.4735
 954 029f 18       		.uleb128 0x18
 955 02a0 06       		.byte	0x6
ARM GAS  C:\Users\mitchell\AppData\Local\Temp\cccNcCd4.s 			page 24


 956 02a1 01       		.byte	0x1
 957 02a2 1801     		.2byte	0x118
 958 02a4 C3020000 		.4byte	0x2c3
 959 02a8 19       		.uleb128 0x19
 960 02a9 C7010000 		.4byte	.LASF35
 961 02ad 01       		.byte	0x1
 962 02ae 1901     		.2byte	0x119
 963 02b0 7D000000 		.4byte	0x7d
 964 02b4 00       		.byte	0
 965 02b5 19       		.uleb128 0x19
 966 02b6 36010000 		.4byte	.LASF36
 967 02ba 01       		.byte	0x1
 968 02bb 1A01     		.2byte	0x11a
 969 02bd 91000000 		.4byte	0x91
 970 02c1 04       		.byte	0x4
 971 02c2 00       		.byte	0
 972 02c3 06       		.uleb128 0x6
 973 02c4 E6010000 		.4byte	.LASF37
 974 02c8 01       		.byte	0x1
 975 02c9 1B01     		.2byte	0x11b
 976 02cb 9F020000 		.4byte	0x29f
 977 02cf 1A       		.uleb128 0x1a
 978 02d0 C3020000 		.4byte	0x2c3
 979 02d4 DF020000 		.4byte	0x2df
 980 02d8 1B       		.uleb128 0x1b
 981 02d9 76000000 		.4byte	0x76
 982 02dd 01       		.byte	0x1
 983 02de 00       		.byte	0
 984 02df 17       		.uleb128 0x17
 985 02e0 26010000 		.4byte	.LASF38
 986 02e4 01       		.byte	0x1
 987 02e5 1D01     		.2byte	0x11d
 988 02e7 F1020000 		.4byte	0x2f1
 989 02eb 05       		.uleb128 0x5
 990 02ec 03       		.byte	0x3
 991 02ed 00000000 		.4byte	cfg_memset_list.4740
 992 02f1 13       		.uleb128 0x13
 993 02f2 CF020000 		.4byte	0x2cf
 994 02f6 1C       		.uleb128 0x1c
 995 02f7 6900     		.ascii	"i\000"
 996 02f9 01       		.byte	0x1
 997 02fa 2301     		.2byte	0x123
 998 02fc 86000000 		.4byte	0x86
 999 0300 02       		.uleb128 0x2
 1000 0301 91       		.byte	0x91
 1001 0302 77       		.sleb128 -9
 1002 0303 11       		.uleb128 0x11
 1003 0304 94000000 		.4byte	.LBB4
 1004 0308 3E000000 		.4byte	.LBE4-.LBB4
 1005 030c 1C       		.uleb128 0x1c
 1006 030d 6D7300   		.ascii	"ms\000"
 1007 0310 01       		.byte	0x1
 1008 0311 2801     		.2byte	0x128
 1009 0313 1A030000 		.4byte	0x31a
 1010 0317 02       		.uleb128 0x2
 1011 0318 91       		.byte	0x91
 1012 0319 70       		.sleb128 -16
ARM GAS  C:\Users\mitchell\AppData\Local\Temp\cccNcCd4.s 			page 25


 1013 031a 0D       		.uleb128 0xd
 1014 031b 04       		.byte	0x4
 1015 031c 20030000 		.4byte	0x320
 1016 0320 13       		.uleb128 0x13
 1017 0321 C3020000 		.4byte	0x2c3
 1018 0325 00       		.byte	0
 1019 0326 00       		.byte	0
 1020 0327 00       		.byte	0
 1021 0328 1A       		.uleb128 0x1a
 1022 0329 9C000000 		.4byte	0x9c
 1023 032d 38030000 		.4byte	0x338
 1024 0331 1B       		.uleb128 0x1b
 1025 0332 76000000 		.4byte	0x76
 1026 0336 00       		.byte	0
 1027 0337 00       		.byte	0
 1028 0338 13       		.uleb128 0x13
 1029 0339 28030000 		.4byte	0x328
 1030 033d 1A       		.uleb128 0x1a
 1031 033e F8000000 		.4byte	0xf8
 1032 0342 4D030000 		.4byte	0x34d
 1033 0346 1B       		.uleb128 0x1b
 1034 0347 76000000 		.4byte	0x76
 1035 034b 01       		.byte	0x1
 1036 034c 00       		.byte	0
 1037 034d 13       		.uleb128 0x13
 1038 034e 3D030000 		.4byte	0x33d
 1039 0352 00       		.byte	0
 1040              		.section	.debug_abbrev,"",%progbits
 1041              	.Ldebug_abbrev0:
 1042 0000 01       		.uleb128 0x1
 1043 0001 11       		.uleb128 0x11
 1044 0002 01       		.byte	0x1
 1045 0003 25       		.uleb128 0x25
 1046 0004 0E       		.uleb128 0xe
 1047 0005 13       		.uleb128 0x13
 1048 0006 0B       		.uleb128 0xb
 1049 0007 03       		.uleb128 0x3
 1050 0008 0E       		.uleb128 0xe
 1051 0009 1B       		.uleb128 0x1b
 1052 000a 0E       		.uleb128 0xe
 1053 000b 55       		.uleb128 0x55
 1054 000c 17       		.uleb128 0x17
 1055 000d 11       		.uleb128 0x11
 1056 000e 01       		.uleb128 0x1
 1057 000f 10       		.uleb128 0x10
 1058 0010 17       		.uleb128 0x17
 1059 0011 00       		.byte	0
 1060 0012 00       		.byte	0
 1061 0013 02       		.uleb128 0x2
 1062 0014 24       		.uleb128 0x24
 1063 0015 00       		.byte	0
 1064 0016 0B       		.uleb128 0xb
 1065 0017 0B       		.uleb128 0xb
 1066 0018 3E       		.uleb128 0x3e
 1067 0019 0B       		.uleb128 0xb
 1068 001a 03       		.uleb128 0x3
 1069 001b 08       		.uleb128 0x8
ARM GAS  C:\Users\mitchell\AppData\Local\Temp\cccNcCd4.s 			page 26


 1070 001c 00       		.byte	0
 1071 001d 00       		.byte	0
 1072 001e 03       		.uleb128 0x3
 1073 001f 16       		.uleb128 0x16
 1074 0020 00       		.byte	0
 1075 0021 03       		.uleb128 0x3
 1076 0022 0E       		.uleb128 0xe
 1077 0023 3A       		.uleb128 0x3a
 1078 0024 0B       		.uleb128 0xb
 1079 0025 3B       		.uleb128 0x3b
 1080 0026 0B       		.uleb128 0xb
 1081 0027 49       		.uleb128 0x49
 1082 0028 13       		.uleb128 0x13
 1083 0029 00       		.byte	0
 1084 002a 00       		.byte	0
 1085 002b 04       		.uleb128 0x4
 1086 002c 24       		.uleb128 0x24
 1087 002d 00       		.byte	0
 1088 002e 0B       		.uleb128 0xb
 1089 002f 0B       		.uleb128 0xb
 1090 0030 3E       		.uleb128 0x3e
 1091 0031 0B       		.uleb128 0xb
 1092 0032 03       		.uleb128 0x3
 1093 0033 0E       		.uleb128 0xe
 1094 0034 00       		.byte	0
 1095 0035 00       		.byte	0
 1096 0036 05       		.uleb128 0x5
 1097 0037 0F       		.uleb128 0xf
 1098 0038 00       		.byte	0
 1099 0039 0B       		.uleb128 0xb
 1100 003a 0B       		.uleb128 0xb
 1101 003b 00       		.byte	0
 1102 003c 00       		.byte	0
 1103 003d 06       		.uleb128 0x6
 1104 003e 16       		.uleb128 0x16
 1105 003f 00       		.byte	0
 1106 0040 03       		.uleb128 0x3
 1107 0041 0E       		.uleb128 0xe
 1108 0042 3A       		.uleb128 0x3a
 1109 0043 0B       		.uleb128 0xb
 1110 0044 3B       		.uleb128 0x3b
 1111 0045 05       		.uleb128 0x5
 1112 0046 49       		.uleb128 0x49
 1113 0047 13       		.uleb128 0x13
 1114 0048 00       		.byte	0
 1115 0049 00       		.byte	0
 1116 004a 07       		.uleb128 0x7
 1117 004b 35       		.uleb128 0x35
 1118 004c 00       		.byte	0
 1119 004d 49       		.uleb128 0x49
 1120 004e 13       		.uleb128 0x13
 1121 004f 00       		.byte	0
 1122 0050 00       		.byte	0
 1123 0051 08       		.uleb128 0x8
 1124 0052 13       		.uleb128 0x13
 1125 0053 01       		.byte	0x1
 1126 0054 0B       		.uleb128 0xb
ARM GAS  C:\Users\mitchell\AppData\Local\Temp\cccNcCd4.s 			page 27


 1127 0055 0B       		.uleb128 0xb
 1128 0056 3A       		.uleb128 0x3a
 1129 0057 0B       		.uleb128 0xb
 1130 0058 3B       		.uleb128 0x3b
 1131 0059 0B       		.uleb128 0xb
 1132 005a 01       		.uleb128 0x1
 1133 005b 13       		.uleb128 0x13
 1134 005c 00       		.byte	0
 1135 005d 00       		.byte	0
 1136 005e 09       		.uleb128 0x9
 1137 005f 0D       		.uleb128 0xd
 1138 0060 00       		.byte	0
 1139 0061 03       		.uleb128 0x3
 1140 0062 0E       		.uleb128 0xe
 1141 0063 3A       		.uleb128 0x3a
 1142 0064 0B       		.uleb128 0xb
 1143 0065 3B       		.uleb128 0x3b
 1144 0066 0B       		.uleb128 0xb
 1145 0067 49       		.uleb128 0x49
 1146 0068 13       		.uleb128 0x13
 1147 0069 38       		.uleb128 0x38
 1148 006a 0B       		.uleb128 0xb
 1149 006b 00       		.byte	0
 1150 006c 00       		.byte	0
 1151 006d 0A       		.uleb128 0xa
 1152 006e 2E       		.uleb128 0x2e
 1153 006f 01       		.byte	0x1
 1154 0070 03       		.uleb128 0x3
 1155 0071 0E       		.uleb128 0xe
 1156 0072 3A       		.uleb128 0x3a
 1157 0073 0B       		.uleb128 0xb
 1158 0074 3B       		.uleb128 0x3b
 1159 0075 0B       		.uleb128 0xb
 1160 0076 27       		.uleb128 0x27
 1161 0077 19       		.uleb128 0x19
 1162 0078 11       		.uleb128 0x11
 1163 0079 01       		.uleb128 0x1
 1164 007a 12       		.uleb128 0x12
 1165 007b 06       		.uleb128 0x6
 1166 007c 40       		.uleb128 0x40
 1167 007d 18       		.uleb128 0x18
 1168 007e 9642     		.uleb128 0x2116
 1169 0080 19       		.uleb128 0x19
 1170 0081 01       		.uleb128 0x1
 1171 0082 13       		.uleb128 0x13
 1172 0083 00       		.byte	0
 1173 0084 00       		.byte	0
 1174 0085 0B       		.uleb128 0xb
 1175 0086 05       		.uleb128 0x5
 1176 0087 00       		.byte	0
 1177 0088 03       		.uleb128 0x3
 1178 0089 08       		.uleb128 0x8
 1179 008a 3A       		.uleb128 0x3a
 1180 008b 0B       		.uleb128 0xb
 1181 008c 3B       		.uleb128 0x3b
 1182 008d 0B       		.uleb128 0xb
 1183 008e 49       		.uleb128 0x49
ARM GAS  C:\Users\mitchell\AppData\Local\Temp\cccNcCd4.s 			page 28


 1184 008f 13       		.uleb128 0x13
 1185 0090 02       		.uleb128 0x2
 1186 0091 18       		.uleb128 0x18
 1187 0092 00       		.byte	0
 1188 0093 00       		.byte	0
 1189 0094 0C       		.uleb128 0xc
 1190 0095 05       		.uleb128 0x5
 1191 0096 00       		.byte	0
 1192 0097 03       		.uleb128 0x3
 1193 0098 0E       		.uleb128 0xe
 1194 0099 3A       		.uleb128 0x3a
 1195 009a 0B       		.uleb128 0xb
 1196 009b 3B       		.uleb128 0x3b
 1197 009c 0B       		.uleb128 0xb
 1198 009d 49       		.uleb128 0x49
 1199 009e 13       		.uleb128 0x13
 1200 009f 02       		.uleb128 0x2
 1201 00a0 18       		.uleb128 0x18
 1202 00a1 00       		.byte	0
 1203 00a2 00       		.byte	0
 1204 00a3 0D       		.uleb128 0xd
 1205 00a4 0F       		.uleb128 0xf
 1206 00a5 00       		.byte	0
 1207 00a6 0B       		.uleb128 0xb
 1208 00a7 0B       		.uleb128 0xb
 1209 00a8 49       		.uleb128 0x49
 1210 00a9 13       		.uleb128 0x13
 1211 00aa 00       		.byte	0
 1212 00ab 00       		.byte	0
 1213 00ac 0E       		.uleb128 0xe
 1214 00ad 26       		.uleb128 0x26
 1215 00ae 00       		.byte	0
 1216 00af 00       		.byte	0
 1217 00b0 00       		.byte	0
 1218 00b1 0F       		.uleb128 0xf
 1219 00b2 2E       		.uleb128 0x2e
 1220 00b3 01       		.byte	0x1
 1221 00b4 03       		.uleb128 0x3
 1222 00b5 0E       		.uleb128 0xe
 1223 00b6 3A       		.uleb128 0x3a
 1224 00b7 0B       		.uleb128 0xb
 1225 00b8 3B       		.uleb128 0x3b
 1226 00b9 0B       		.uleb128 0xb
 1227 00ba 27       		.uleb128 0x27
 1228 00bb 19       		.uleb128 0x19
 1229 00bc 11       		.uleb128 0x11
 1230 00bd 01       		.uleb128 0x1
 1231 00be 12       		.uleb128 0x12
 1232 00bf 06       		.uleb128 0x6
 1233 00c0 40       		.uleb128 0x40
 1234 00c1 18       		.uleb128 0x18
 1235 00c2 9742     		.uleb128 0x2117
 1236 00c4 19       		.uleb128 0x19
 1237 00c5 01       		.uleb128 0x1
 1238 00c6 13       		.uleb128 0x13
 1239 00c7 00       		.byte	0
 1240 00c8 00       		.byte	0
ARM GAS  C:\Users\mitchell\AppData\Local\Temp\cccNcCd4.s 			page 29


 1241 00c9 10       		.uleb128 0x10
 1242 00ca 34       		.uleb128 0x34
 1243 00cb 00       		.byte	0
 1244 00cc 03       		.uleb128 0x3
 1245 00cd 08       		.uleb128 0x8
 1246 00ce 3A       		.uleb128 0x3a
 1247 00cf 0B       		.uleb128 0xb
 1248 00d0 3B       		.uleb128 0x3b
 1249 00d1 0B       		.uleb128 0xb
 1250 00d2 49       		.uleb128 0x49
 1251 00d3 13       		.uleb128 0x13
 1252 00d4 02       		.uleb128 0x2
 1253 00d5 18       		.uleb128 0x18
 1254 00d6 00       		.byte	0
 1255 00d7 00       		.byte	0
 1256 00d8 11       		.uleb128 0x11
 1257 00d9 0B       		.uleb128 0xb
 1258 00da 01       		.byte	0x1
 1259 00db 11       		.uleb128 0x11
 1260 00dc 01       		.uleb128 0x1
 1261 00dd 12       		.uleb128 0x12
 1262 00de 06       		.uleb128 0x6
 1263 00df 00       		.byte	0
 1264 00e0 00       		.byte	0
 1265 00e1 12       		.uleb128 0x12
 1266 00e2 34       		.uleb128 0x34
 1267 00e3 00       		.byte	0
 1268 00e4 03       		.uleb128 0x3
 1269 00e5 0E       		.uleb128 0xe
 1270 00e6 3A       		.uleb128 0x3a
 1271 00e7 0B       		.uleb128 0xb
 1272 00e8 3B       		.uleb128 0x3b
 1273 00e9 0B       		.uleb128 0xb
 1274 00ea 49       		.uleb128 0x49
 1275 00eb 13       		.uleb128 0x13
 1276 00ec 02       		.uleb128 0x2
 1277 00ed 18       		.uleb128 0x18
 1278 00ee 00       		.byte	0
 1279 00ef 00       		.byte	0
 1280 00f0 13       		.uleb128 0x13
 1281 00f1 26       		.uleb128 0x26
 1282 00f2 00       		.byte	0
 1283 00f3 49       		.uleb128 0x49
 1284 00f4 13       		.uleb128 0x13
 1285 00f5 00       		.byte	0
 1286 00f6 00       		.byte	0
 1287 00f7 14       		.uleb128 0x14
 1288 00f8 2E       		.uleb128 0x2e
 1289 00f9 00       		.byte	0
 1290 00fa 03       		.uleb128 0x3
 1291 00fb 0E       		.uleb128 0xe
 1292 00fc 3A       		.uleb128 0x3a
 1293 00fd 0B       		.uleb128 0xb
 1294 00fe 3B       		.uleb128 0x3b
 1295 00ff 0B       		.uleb128 0xb
 1296 0100 27       		.uleb128 0x27
 1297 0101 19       		.uleb128 0x19
ARM GAS  C:\Users\mitchell\AppData\Local\Temp\cccNcCd4.s 			page 30


 1298 0102 11       		.uleb128 0x11
 1299 0103 01       		.uleb128 0x1
 1300 0104 12       		.uleb128 0x12
 1301 0105 06       		.uleb128 0x6
 1302 0106 40       		.uleb128 0x40
 1303 0107 18       		.uleb128 0x18
 1304 0108 9642     		.uleb128 0x2116
 1305 010a 19       		.uleb128 0x19
 1306 010b 00       		.byte	0
 1307 010c 00       		.byte	0
 1308 010d 15       		.uleb128 0x15
 1309 010e 2E       		.uleb128 0x2e
 1310 010f 00       		.byte	0
 1311 0110 03       		.uleb128 0x3
 1312 0111 0E       		.uleb128 0xe
 1313 0112 3A       		.uleb128 0x3a
 1314 0113 0B       		.uleb128 0xb
 1315 0114 3B       		.uleb128 0x3b
 1316 0115 0B       		.uleb128 0xb
 1317 0116 27       		.uleb128 0x27
 1318 0117 19       		.uleb128 0x19
 1319 0118 11       		.uleb128 0x11
 1320 0119 01       		.uleb128 0x1
 1321 011a 12       		.uleb128 0x12
 1322 011b 06       		.uleb128 0x6
 1323 011c 40       		.uleb128 0x40
 1324 011d 18       		.uleb128 0x18
 1325 011e 9742     		.uleb128 0x2117
 1326 0120 19       		.uleb128 0x19
 1327 0121 00       		.byte	0
 1328 0122 00       		.byte	0
 1329 0123 16       		.uleb128 0x16
 1330 0124 2E       		.uleb128 0x2e
 1331 0125 01       		.byte	0x1
 1332 0126 3F       		.uleb128 0x3f
 1333 0127 19       		.uleb128 0x19
 1334 0128 03       		.uleb128 0x3
 1335 0129 0E       		.uleb128 0xe
 1336 012a 3A       		.uleb128 0x3a
 1337 012b 0B       		.uleb128 0xb
 1338 012c 3B       		.uleb128 0x3b
 1339 012d 05       		.uleb128 0x5
 1340 012e 27       		.uleb128 0x27
 1341 012f 19       		.uleb128 0x19
 1342 0130 11       		.uleb128 0x11
 1343 0131 01       		.uleb128 0x1
 1344 0132 12       		.uleb128 0x12
 1345 0133 06       		.uleb128 0x6
 1346 0134 40       		.uleb128 0x40
 1347 0135 18       		.uleb128 0x18
 1348 0136 9642     		.uleb128 0x2116
 1349 0138 19       		.uleb128 0x19
 1350 0139 01       		.uleb128 0x1
 1351 013a 13       		.uleb128 0x13
 1352 013b 00       		.byte	0
 1353 013c 00       		.byte	0
 1354 013d 17       		.uleb128 0x17
ARM GAS  C:\Users\mitchell\AppData\Local\Temp\cccNcCd4.s 			page 31


 1355 013e 34       		.uleb128 0x34
 1356 013f 00       		.byte	0
 1357 0140 03       		.uleb128 0x3
 1358 0141 0E       		.uleb128 0xe
 1359 0142 3A       		.uleb128 0x3a
 1360 0143 0B       		.uleb128 0xb
 1361 0144 3B       		.uleb128 0x3b
 1362 0145 05       		.uleb128 0x5
 1363 0146 49       		.uleb128 0x49
 1364 0147 13       		.uleb128 0x13
 1365 0148 02       		.uleb128 0x2
 1366 0149 18       		.uleb128 0x18
 1367 014a 00       		.byte	0
 1368 014b 00       		.byte	0
 1369 014c 18       		.uleb128 0x18
 1370 014d 13       		.uleb128 0x13
 1371 014e 01       		.byte	0x1
 1372 014f 0B       		.uleb128 0xb
 1373 0150 0B       		.uleb128 0xb
 1374 0151 3A       		.uleb128 0x3a
 1375 0152 0B       		.uleb128 0xb
 1376 0153 3B       		.uleb128 0x3b
 1377 0154 05       		.uleb128 0x5
 1378 0155 01       		.uleb128 0x1
 1379 0156 13       		.uleb128 0x13
 1380 0157 00       		.byte	0
 1381 0158 00       		.byte	0
 1382 0159 19       		.uleb128 0x19
 1383 015a 0D       		.uleb128 0xd
 1384 015b 00       		.byte	0
 1385 015c 03       		.uleb128 0x3
 1386 015d 0E       		.uleb128 0xe
 1387 015e 3A       		.uleb128 0x3a
 1388 015f 0B       		.uleb128 0xb
 1389 0160 3B       		.uleb128 0x3b
 1390 0161 05       		.uleb128 0x5
 1391 0162 49       		.uleb128 0x49
 1392 0163 13       		.uleb128 0x13
 1393 0164 38       		.uleb128 0x38
 1394 0165 0B       		.uleb128 0xb
 1395 0166 00       		.byte	0
 1396 0167 00       		.byte	0
 1397 0168 1A       		.uleb128 0x1a
 1398 0169 01       		.uleb128 0x1
 1399 016a 01       		.byte	0x1
 1400 016b 49       		.uleb128 0x49
 1401 016c 13       		.uleb128 0x13
 1402 016d 01       		.uleb128 0x1
 1403 016e 13       		.uleb128 0x13
 1404 016f 00       		.byte	0
 1405 0170 00       		.byte	0
 1406 0171 1B       		.uleb128 0x1b
 1407 0172 21       		.uleb128 0x21
 1408 0173 00       		.byte	0
 1409 0174 49       		.uleb128 0x49
 1410 0175 13       		.uleb128 0x13
 1411 0176 2F       		.uleb128 0x2f
ARM GAS  C:\Users\mitchell\AppData\Local\Temp\cccNcCd4.s 			page 32


 1412 0177 0B       		.uleb128 0xb
 1413 0178 00       		.byte	0
 1414 0179 00       		.byte	0
 1415 017a 1C       		.uleb128 0x1c
 1416 017b 34       		.uleb128 0x34
 1417 017c 00       		.byte	0
 1418 017d 03       		.uleb128 0x3
 1419 017e 08       		.uleb128 0x8
 1420 017f 3A       		.uleb128 0x3a
 1421 0180 0B       		.uleb128 0xb
 1422 0181 3B       		.uleb128 0x3b
 1423 0182 05       		.uleb128 0x5
 1424 0183 49       		.uleb128 0x49
 1425 0184 13       		.uleb128 0x13
 1426 0185 02       		.uleb128 0x2
 1427 0186 18       		.uleb128 0x18
 1428 0187 00       		.byte	0
 1429 0188 00       		.byte	0
 1430 0189 00       		.byte	0
 1431              		.section	.debug_aranges,"",%progbits
 1432 0000 4C000000 		.4byte	0x4c
 1433 0004 0200     		.2byte	0x2
 1434 0006 00000000 		.4byte	.Ldebug_info0
 1435 000a 04       		.byte	0x4
 1436 000b 00       		.byte	0
 1437 000c 0000     		.2byte	0
 1438 000e 0000     		.2byte	0
 1439 0010 00000000 		.4byte	.LFB0
 1440 0014 1E000000 		.4byte	.LFE0-.LFB0
 1441 0018 00000000 		.4byte	.LFB1
 1442 001c 22000000 		.4byte	.LFE1-.LFB1
 1443 0020 00000000 		.4byte	.LFB2
 1444 0024 22000000 		.4byte	.LFE2-.LFB2
 1445 0028 00000000 		.4byte	.LFB3
 1446 002c 7E000000 		.4byte	.LFE3-.LFB3
 1447 0030 00000000 		.4byte	.LFB4
 1448 0034 84000000 		.4byte	.LFE4-.LFB4
 1449 0038 00000000 		.4byte	.LFB5
 1450 003c 4C000000 		.4byte	.LFE5-.LFB5
 1451 0040 84000000 		.4byte	.LFB6
 1452 0044 78010000 		.4byte	.LFE6-.LFB6
 1453 0048 00000000 		.4byte	0
 1454 004c 00000000 		.4byte	0
 1455              		.section	.debug_ranges,"",%progbits
 1456              	.Ldebug_ranges0:
 1457 0000 00000000 		.4byte	.LFB0
 1458 0004 1E000000 		.4byte	.LFE0
 1459 0008 00000000 		.4byte	.LFB1
 1460 000c 22000000 		.4byte	.LFE1
 1461 0010 00000000 		.4byte	.LFB2
 1462 0014 22000000 		.4byte	.LFE2
 1463 0018 00000000 		.4byte	.LFB3
 1464 001c 7E000000 		.4byte	.LFE3
 1465 0020 00000000 		.4byte	.LFB4
 1466 0024 84000000 		.4byte	.LFE4
 1467 0028 00000000 		.4byte	.LFB5
 1468 002c 4C000000 		.4byte	.LFE5
ARM GAS  C:\Users\mitchell\AppData\Local\Temp\cccNcCd4.s 			page 33


 1469 0030 84000000 		.4byte	.LFB6
 1470 0034 FC010000 		.4byte	.LFE6
 1471 0038 00000000 		.4byte	0
 1472 003c 00000000 		.4byte	0
 1473              		.section	.debug_line,"",%progbits
 1474              	.Ldebug_line0:
 1475 0000 98010000 		.section	.debug_str,"MS",%progbits,1
 1475      0200CD00 
 1475      00000201 
 1475      FB0E0D00 
 1475      01010101 
 1476              	.LASF18:
 1477 0000 72656733 		.ascii	"reg32\000"
 1477      3200
 1478              	.LASF11:
 1479 0006 73697A65 		.ascii	"size_t\000"
 1479      5F7400
 1480              	.LASF32:
 1481 000d 416E616C 		.ascii	"AnalogSetDefault\000"
 1481      6F675365 
 1481      74446566 
 1481      61756C74 
 1481      00
 1482              	.LASF41:
 1483 001e 433A5C55 		.ascii	"C:\\Users\\mitchell\\Documents\\fsae\\E-Throttle\\E"
 1483      73657273 
 1483      5C6D6974 
 1483      6368656C 
 1483      6C5C446F 
 1484 004b 2D546872 		.ascii	"-Throttle\\Design01.cydsn\000"
 1484      6F74746C 
 1484      655C4465 
 1484      7369676E 
 1484      30312E63 
 1485              	.LASF20:
 1486 0064 76616C75 		.ascii	"value\000"
 1486      6500
 1487              	.LASF30:
 1488 006a 636F756E 		.ascii	"count\000"
 1488      7400
 1489              	.LASF31:
 1490 0070 436C6F63 		.ascii	"ClockSetup\000"
 1490      6B536574 
 1490      757000
 1491              	.LASF33:
 1492 007b 63795F63 		.ascii	"cy_cfg_addr_table\000"
 1492      66675F61 
 1492      6464725F 
 1492      7461626C 
 1492      6500
 1493              	.LASF34:
 1494 008d 63795F63 		.ascii	"cy_cfg_data_table\000"
 1494      66675F64 
 1494      6174615F 
 1494      7461626C 
 1494      6500
 1495              	.LASF15:
ARM GAS  C:\Users\mitchell\AppData\Local\Temp\cccNcCd4.s 			page 34


 1496 009f 666C6F61 		.ascii	"float\000"
 1496      7400
 1497              	.LASF39:
 1498 00a5 474E5520 		.ascii	"GNU C 4.8.4 20140526 (release) [ARM/embedded-4_8-br"
 1498      4320342E 
 1498      382E3420 
 1498      32303134 
 1498      30353236 
 1499 00d8 616E6368 		.ascii	"anch revision 211358] -mcpu=cortex-m0 -mthumb -g -O"
 1499      20726576 
 1499      6973696F 
 1499      6E203231 
 1499      31333538 
 1500 010b 30202D66 		.ascii	"0 -ffunction-sections\000"
 1500      66756E63 
 1500      74696F6E 
 1500      2D736563 
 1500      74696F6E 
 1501              	.LASF24:
 1502 0121 64657374 		.ascii	"dest\000"
 1502      00
 1503              	.LASF38:
 1504 0126 6366675F 		.ascii	"cfg_memset_list\000"
 1504      6D656D73 
 1504      65745F6C 
 1504      69737400 
 1505              	.LASF36:
 1506 0136 73697A65 		.ascii	"size\000"
 1506      00
 1507              	.LASF17:
 1508 013b 72656738 		.ascii	"reg8\000"
 1508      00
 1509              	.LASF6:
 1510 0140 6C6F6E67 		.ascii	"long unsigned int\000"
 1510      20756E73 
 1510      69676E65 
 1510      6420696E 
 1510      7400
 1511              	.LASF12:
 1512 0152 75696E74 		.ascii	"uint8\000"
 1512      3800
 1513              	.LASF22:
 1514 0158 43594D45 		.ascii	"CYMEMZERO\000"
 1514      4D5A4552 
 1514      4F00
 1515              	.LASF2:
 1516 0162 756E7369 		.ascii	"unsigned char\000"
 1516      676E6564 
 1516      20636861 
 1516      7200
 1517              	.LASF16:
 1518 0170 646F7562 		.ascii	"double\000"
 1518      6C6500
 1519              	.LASF26:
 1520 0177 6366675F 		.ascii	"cfg_write_bytes32\000"
 1520      77726974 
 1520      655F6279 
ARM GAS  C:\Users\mitchell\AppData\Local\Temp\cccNcCd4.s 			page 35


 1520      74657333 
 1520      3200
 1521              	.LASF42:
 1522 0189 63796669 		.ascii	"cyfitter_cfg\000"
 1522      74746572 
 1522      5F636667 
 1522      00
 1523              	.LASF27:
 1524 0196 61646472 		.ascii	"addr_table\000"
 1524      5F746162 
 1524      6C6500
 1525              	.LASF13:
 1526 01a1 75696E74 		.ascii	"uint16\000"
 1526      313600
 1527              	.LASF28:
 1528 01a8 64617461 		.ascii	"data_table\000"
 1528      5F746162 
 1528      6C6500
 1529              	.LASF14:
 1530 01b3 75696E74 		.ascii	"uint32\000"
 1530      333200
 1531              	.LASF0:
 1532 01ba 756E7369 		.ascii	"unsigned int\000"
 1532      676E6564 
 1532      20696E74 
 1532      00
 1533              	.LASF35:
 1534 01c7 61646472 		.ascii	"address\000"
 1534      65737300 
 1535              	.LASF8:
 1536 01cf 6C6F6E67 		.ascii	"long long unsigned int\000"
 1536      206C6F6E 
 1536      6720756E 
 1536      7369676E 
 1536      65642069 
 1537              	.LASF37:
 1538 01e6 6366675F 		.ascii	"cfg_memset_t\000"
 1538      6D656D73 
 1538      65745F74 
 1538      00
 1539              	.LASF29:
 1540 01f3 62617365 		.ascii	"baseAddr\000"
 1540      41646472 
 1540      00
 1541              	.LASF9:
 1542 01fc 73697A65 		.ascii	"sizetype\000"
 1542      74797065 
 1542      00
 1543              	.LASF40:
 1544 0205 2E5C4765 		.ascii	".\\Generated_Source\\PSoC4\\cyfitter_cfg.c\000"
 1544      6E657261 
 1544      7465645F 
 1544      536F7572 
 1544      63655C50 
 1545              	.LASF7:
 1546 022d 6C6F6E67 		.ascii	"long long int\000"
 1546      206C6F6E 
ARM GAS  C:\Users\mitchell\AppData\Local\Temp\cccNcCd4.s 			page 36


 1546      6720696E 
 1546      7400
 1547              	.LASF10:
 1548 023b 63686172 		.ascii	"char\000"
 1548      00
 1549              	.LASF21:
 1550 0240 63795F63 		.ascii	"cy_cfg_addrvalue_t\000"
 1550      66675F61 
 1550      64647276 
 1550      616C7565 
 1550      5F7400
 1551              	.LASF19:
 1552 0253 6F666673 		.ascii	"offset\000"
 1552      657400
 1553              	.LASF3:
 1554 025a 73686F72 		.ascii	"short int\000"
 1554      7420696E 
 1554      7400
 1555              	.LASF5:
 1556 0264 6C6F6E67 		.ascii	"long int\000"
 1556      20696E74 
 1556      00
 1557              	.LASF1:
 1558 026d 7369676E 		.ascii	"signed char\000"
 1558      65642063 
 1558      68617200 
 1559              	.LASF4:
 1560 0279 73686F72 		.ascii	"short unsigned int\000"
 1560      7420756E 
 1560      7369676E 
 1560      65642069 
 1560      6E7400
 1561              	.LASF25:
 1562 028c 4359434F 		.ascii	"CYCONFIGCPYCODE\000"
 1562      4E464947 
 1562      43505943 
 1562      4F444500 
 1563              	.LASF23:
 1564 029c 4359434F 		.ascii	"CYCONFIGCPY\000"
 1564      4E464947 
 1564      43505900 
 1565              		.ident	"GCC: (GNU Tools for ARM Embedded Processors) 4.8.4 20140526 (release) [ARM/embedded-4_8-br
