ARM GAS  C:\Users\mitchell\AppData\Local\Temp\cc8LRJxb.s 			page 1


   1              		.cpu cortex-m0
   2              		.fpu softvfp
   3              		.eabi_attribute 20, 1
   4              		.eabi_attribute 21, 1
   5              		.eabi_attribute 23, 3
   6              		.eabi_attribute 24, 1
   7              		.eabi_attribute 25, 1
   8              		.eabi_attribute 26, 1
   9              		.eabi_attribute 30, 6
  10              		.eabi_attribute 34, 0
  11              		.eabi_attribute 18, 4
  12              		.code	16
  13              		.file	"Opamp_2_PM.c"
  14              		.text
  15              	.Ltext0:
  16              		.cfi_sections	.debug_frame
  17              		.bss
  18              		.align	2
  19              	Opamp_2_backup:
  20 0000 00       		.space	1
  21 0001 000000   		.section	.text.Opamp_2_SaveConfig,"ax",%progbits
  22              		.align	2
  23              		.global	Opamp_2_SaveConfig
  24              		.code	16
  25              		.thumb_func
  26              		.type	Opamp_2_SaveConfig, %function
  27              	Opamp_2_SaveConfig:
  28              	.LFB0:
  29              		.file 1 ".\\Generated_Source\\PSoC4\\Opamp_2_PM.c"
   1:.\Generated_Source\PSoC4/Opamp_2_PM.c **** /*******************************************************************************
   2:.\Generated_Source\PSoC4/Opamp_2_PM.c **** * File Name: Opamp_2_PM.c
   3:.\Generated_Source\PSoC4/Opamp_2_PM.c **** * Version 1.10
   4:.\Generated_Source\PSoC4/Opamp_2_PM.c **** *
   5:.\Generated_Source\PSoC4/Opamp_2_PM.c **** * Description:
   6:.\Generated_Source\PSoC4/Opamp_2_PM.c **** *  This file provides the power management source code to the API for the
   7:.\Generated_Source\PSoC4/Opamp_2_PM.c **** *  Opamp (Analog Buffer) component.
   8:.\Generated_Source\PSoC4/Opamp_2_PM.c **** *
   9:.\Generated_Source\PSoC4/Opamp_2_PM.c **** *
  10:.\Generated_Source\PSoC4/Opamp_2_PM.c **** ********************************************************************************
  11:.\Generated_Source\PSoC4/Opamp_2_PM.c **** * Copyright 2013-2014, Cypress Semiconductor Corporation.  All rights reserved.
  12:.\Generated_Source\PSoC4/Opamp_2_PM.c **** * You may use this file only in accordance with the license, terms, conditions,
  13:.\Generated_Source\PSoC4/Opamp_2_PM.c **** * disclaimers, and limitations in the end user license agreement accompanying
  14:.\Generated_Source\PSoC4/Opamp_2_PM.c **** * the software package with which this file was provided.
  15:.\Generated_Source\PSoC4/Opamp_2_PM.c **** *******************************************************************************/
  16:.\Generated_Source\PSoC4/Opamp_2_PM.c **** 
  17:.\Generated_Source\PSoC4/Opamp_2_PM.c **** #include "Opamp_2.h"
  18:.\Generated_Source\PSoC4/Opamp_2_PM.c **** 
  19:.\Generated_Source\PSoC4/Opamp_2_PM.c **** #if(!Opamp_2_CHECK_DEEPSLEEP_SUPPORT)
  20:.\Generated_Source\PSoC4/Opamp_2_PM.c ****     static Opamp_2_BACKUP_STRUCT Opamp_2_backup =
  21:.\Generated_Source\PSoC4/Opamp_2_PM.c ****     {
  22:.\Generated_Source\PSoC4/Opamp_2_PM.c ****         0u, /* enableState */
  23:.\Generated_Source\PSoC4/Opamp_2_PM.c ****     };
  24:.\Generated_Source\PSoC4/Opamp_2_PM.c **** #endif /* (Opamp_2_CHECK_DEEPSLEEP_SUPPORT) */
  25:.\Generated_Source\PSoC4/Opamp_2_PM.c **** 
  26:.\Generated_Source\PSoC4/Opamp_2_PM.c **** 
  27:.\Generated_Source\PSoC4/Opamp_2_PM.c **** /*******************************************************************************
  28:.\Generated_Source\PSoC4/Opamp_2_PM.c **** * Function Name: Opamp_2_SaveConfig
ARM GAS  C:\Users\mitchell\AppData\Local\Temp\cc8LRJxb.s 			page 2


  29:.\Generated_Source\PSoC4/Opamp_2_PM.c **** ********************************************************************************
  30:.\Generated_Source\PSoC4/Opamp_2_PM.c **** *
  31:.\Generated_Source\PSoC4/Opamp_2_PM.c **** * Summary:
  32:.\Generated_Source\PSoC4/Opamp_2_PM.c **** *  Empty function. Included for consistency with other components.
  33:.\Generated_Source\PSoC4/Opamp_2_PM.c **** *
  34:.\Generated_Source\PSoC4/Opamp_2_PM.c **** * Parameters:
  35:.\Generated_Source\PSoC4/Opamp_2_PM.c **** *  None
  36:.\Generated_Source\PSoC4/Opamp_2_PM.c **** *
  37:.\Generated_Source\PSoC4/Opamp_2_PM.c **** * Return:
  38:.\Generated_Source\PSoC4/Opamp_2_PM.c **** *  None
  39:.\Generated_Source\PSoC4/Opamp_2_PM.c **** *
  40:.\Generated_Source\PSoC4/Opamp_2_PM.c **** *******************************************************************************/
  41:.\Generated_Source\PSoC4/Opamp_2_PM.c **** void Opamp_2_SaveConfig(void)
  42:.\Generated_Source\PSoC4/Opamp_2_PM.c **** {
  30              		.loc 1 42 0
  31              		.cfi_startproc
  32 0000 80B5     		push	{r7, lr}
  33              		.cfi_def_cfa_offset 8
  34              		.cfi_offset 7, -8
  35              		.cfi_offset 14, -4
  36 0002 00AF     		add	r7, sp, #0
  37              		.cfi_def_cfa_register 7
  43:.\Generated_Source\PSoC4/Opamp_2_PM.c **** 
  44:.\Generated_Source\PSoC4/Opamp_2_PM.c **** }
  38              		.loc 1 44 0
  39 0004 BD46     		mov	sp, r7
  40              		@ sp needed
  41 0006 80BD     		pop	{r7, pc}
  42              		.cfi_endproc
  43              	.LFE0:
  44              		.size	Opamp_2_SaveConfig, .-Opamp_2_SaveConfig
  45              		.section	.text.Opamp_2_RestoreConfig,"ax",%progbits
  46              		.align	2
  47              		.global	Opamp_2_RestoreConfig
  48              		.code	16
  49              		.thumb_func
  50              		.type	Opamp_2_RestoreConfig, %function
  51              	Opamp_2_RestoreConfig:
  52              	.LFB1:
  45:.\Generated_Source\PSoC4/Opamp_2_PM.c **** 
  46:.\Generated_Source\PSoC4/Opamp_2_PM.c **** 
  47:.\Generated_Source\PSoC4/Opamp_2_PM.c **** /*******************************************************************************
  48:.\Generated_Source\PSoC4/Opamp_2_PM.c **** * Function Name: Opamp_2_RestoreConfig
  49:.\Generated_Source\PSoC4/Opamp_2_PM.c **** ********************************************************************************
  50:.\Generated_Source\PSoC4/Opamp_2_PM.c **** *
  51:.\Generated_Source\PSoC4/Opamp_2_PM.c **** * Summary:
  52:.\Generated_Source\PSoC4/Opamp_2_PM.c **** *  Empty function. Included for consistency with other components.
  53:.\Generated_Source\PSoC4/Opamp_2_PM.c **** *
  54:.\Generated_Source\PSoC4/Opamp_2_PM.c **** * Parameters:
  55:.\Generated_Source\PSoC4/Opamp_2_PM.c **** *  None
  56:.\Generated_Source\PSoC4/Opamp_2_PM.c **** *
  57:.\Generated_Source\PSoC4/Opamp_2_PM.c **** * Return:
  58:.\Generated_Source\PSoC4/Opamp_2_PM.c **** *  None
  59:.\Generated_Source\PSoC4/Opamp_2_PM.c **** *
  60:.\Generated_Source\PSoC4/Opamp_2_PM.c **** *******************************************************************************/
  61:.\Generated_Source\PSoC4/Opamp_2_PM.c **** void Opamp_2_RestoreConfig(void)
  62:.\Generated_Source\PSoC4/Opamp_2_PM.c **** {
ARM GAS  C:\Users\mitchell\AppData\Local\Temp\cc8LRJxb.s 			page 3


  53              		.loc 1 62 0
  54              		.cfi_startproc
  55 0000 80B5     		push	{r7, lr}
  56              		.cfi_def_cfa_offset 8
  57              		.cfi_offset 7, -8
  58              		.cfi_offset 14, -4
  59 0002 00AF     		add	r7, sp, #0
  60              		.cfi_def_cfa_register 7
  63:.\Generated_Source\PSoC4/Opamp_2_PM.c ****     
  64:.\Generated_Source\PSoC4/Opamp_2_PM.c **** }
  61              		.loc 1 64 0
  62 0004 BD46     		mov	sp, r7
  63              		@ sp needed
  64 0006 80BD     		pop	{r7, pc}
  65              		.cfi_endproc
  66              	.LFE1:
  67              		.size	Opamp_2_RestoreConfig, .-Opamp_2_RestoreConfig
  68              		.section	.text.Opamp_2_Sleep,"ax",%progbits
  69              		.align	2
  70              		.global	Opamp_2_Sleep
  71              		.code	16
  72              		.thumb_func
  73              		.type	Opamp_2_Sleep, %function
  74              	Opamp_2_Sleep:
  75              	.LFB2:
  65:.\Generated_Source\PSoC4/Opamp_2_PM.c **** 
  66:.\Generated_Source\PSoC4/Opamp_2_PM.c **** 
  67:.\Generated_Source\PSoC4/Opamp_2_PM.c **** /*******************************************************************************
  68:.\Generated_Source\PSoC4/Opamp_2_PM.c **** * Function Name: Opamp_2_Sleep
  69:.\Generated_Source\PSoC4/Opamp_2_PM.c **** ********************************************************************************
  70:.\Generated_Source\PSoC4/Opamp_2_PM.c **** *
  71:.\Generated_Source\PSoC4/Opamp_2_PM.c **** * Summary:
  72:.\Generated_Source\PSoC4/Opamp_2_PM.c **** *  This is the preferred API to prepare the component for sleep. The Sleep() API 
  73:.\Generated_Source\PSoC4/Opamp_2_PM.c **** *  saves the current component state. Call the Sleep() function before calling the 
  74:.\Generated_Source\PSoC4/Opamp_2_PM.c **** *  CySysPmDeepSleep() or the CySysPmHibernate() functions. The "Deep sleep operation" 
  75:.\Generated_Source\PSoC4/Opamp_2_PM.c **** *  option has an influence on this function implementation.
  76:.\Generated_Source\PSoC4/Opamp_2_PM.c **** *
  77:.\Generated_Source\PSoC4/Opamp_2_PM.c **** * Parameters:
  78:.\Generated_Source\PSoC4/Opamp_2_PM.c **** *  None
  79:.\Generated_Source\PSoC4/Opamp_2_PM.c **** *
  80:.\Generated_Source\PSoC4/Opamp_2_PM.c **** * Return:
  81:.\Generated_Source\PSoC4/Opamp_2_PM.c **** *  None
  82:.\Generated_Source\PSoC4/Opamp_2_PM.c **** *
  83:.\Generated_Source\PSoC4/Opamp_2_PM.c **** * Global variables:
  84:.\Generated_Source\PSoC4/Opamp_2_PM.c **** *  Opamp_2_backup: The structure field 'enableState' is modified
  85:.\Generated_Source\PSoC4/Opamp_2_PM.c **** *  depending on the enable state of the block before entering the sleep mode.
  86:.\Generated_Source\PSoC4/Opamp_2_PM.c **** *
  87:.\Generated_Source\PSoC4/Opamp_2_PM.c **** *******************************************************************************/
  88:.\Generated_Source\PSoC4/Opamp_2_PM.c **** void Opamp_2_Sleep(void)
  89:.\Generated_Source\PSoC4/Opamp_2_PM.c **** {
  76              		.loc 1 89 0
  77              		.cfi_startproc
  78 0000 80B5     		push	{r7, lr}
  79              		.cfi_def_cfa_offset 8
  80              		.cfi_offset 7, -8
  81              		.cfi_offset 14, -4
  82 0002 00AF     		add	r7, sp, #0
ARM GAS  C:\Users\mitchell\AppData\Local\Temp\cc8LRJxb.s 			page 4


  83              		.cfi_def_cfa_register 7
  90:.\Generated_Source\PSoC4/Opamp_2_PM.c **** #if(!Opamp_2_CHECK_DEEPSLEEP_SUPPORT)
  91:.\Generated_Source\PSoC4/Opamp_2_PM.c ****     if(Opamp_2_CHECK_PWR_MODE_OFF)
  84              		.loc 1 91 0
  85 0004 074B     		ldr	r3, .L6
  86 0006 1A68     		ldr	r2, [r3]
  87 0008 0323     		mov	r3, #3
  88 000a 1340     		and	r3, r2
  89 000c 05D0     		beq	.L4
  92:.\Generated_Source\PSoC4/Opamp_2_PM.c ****     {
  93:.\Generated_Source\PSoC4/Opamp_2_PM.c ****         Opamp_2_backup.enableState = 1u;
  90              		.loc 1 93 0
  91 000e 064B     		ldr	r3, .L6+4
  92 0010 0122     		mov	r2, #1
  93 0012 1A70     		strb	r2, [r3]
  94:.\Generated_Source\PSoC4/Opamp_2_PM.c ****         Opamp_2_Stop();
  94              		.loc 1 94 0
  95 0014 FFF7FEFF 		bl	Opamp_2_Stop
  96 0018 02E0     		b	.L3
  97              	.L4:
  95:.\Generated_Source\PSoC4/Opamp_2_PM.c ****     }
  96:.\Generated_Source\PSoC4/Opamp_2_PM.c ****     else /* The component is disabled */
  97:.\Generated_Source\PSoC4/Opamp_2_PM.c ****     {
  98:.\Generated_Source\PSoC4/Opamp_2_PM.c ****         Opamp_2_backup.enableState = 0u;
  98              		.loc 1 98 0
  99 001a 034B     		ldr	r3, .L6+4
 100 001c 0022     		mov	r2, #0
 101 001e 1A70     		strb	r2, [r3]
 102              	.L3:
  99:.\Generated_Source\PSoC4/Opamp_2_PM.c ****     }
 100:.\Generated_Source\PSoC4/Opamp_2_PM.c **** #endif /* (Opamp_2_CHECK_DEEPSLEEP_SUPPORT) */
 101:.\Generated_Source\PSoC4/Opamp_2_PM.c **** }
 103              		.loc 1 101 0
 104 0020 BD46     		mov	sp, r7
 105              		@ sp needed
 106 0022 80BD     		pop	{r7, pc}
 107              	.L7:
 108              		.align	2
 109              	.L6:
 110 0024 08001040 		.word	1074790408
 111 0028 00000000 		.word	Opamp_2_backup
 112              		.cfi_endproc
 113              	.LFE2:
 114              		.size	Opamp_2_Sleep, .-Opamp_2_Sleep
 115              		.section	.text.Opamp_2_Wakeup,"ax",%progbits
 116              		.align	2
 117              		.global	Opamp_2_Wakeup
 118              		.code	16
 119              		.thumb_func
 120              		.type	Opamp_2_Wakeup, %function
 121              	Opamp_2_Wakeup:
 122              	.LFB3:
 102:.\Generated_Source\PSoC4/Opamp_2_PM.c **** 
 103:.\Generated_Source\PSoC4/Opamp_2_PM.c **** 
 104:.\Generated_Source\PSoC4/Opamp_2_PM.c **** /*******************************************************************************
 105:.\Generated_Source\PSoC4/Opamp_2_PM.c **** * Function Name: Opamp_2_Wakeup
 106:.\Generated_Source\PSoC4/Opamp_2_PM.c **** ********************************************************************************
ARM GAS  C:\Users\mitchell\AppData\Local\Temp\cc8LRJxb.s 			page 5


 107:.\Generated_Source\PSoC4/Opamp_2_PM.c **** *
 108:.\Generated_Source\PSoC4/Opamp_2_PM.c **** * Summary:
 109:.\Generated_Source\PSoC4/Opamp_2_PM.c **** *  This is the preferred API to restore the component to the state when Sleep() 
 110:.\Generated_Source\PSoC4/Opamp_2_PM.c **** *  is called. If the component has been enabled before the Sleep() function is 
 111:.\Generated_Source\PSoC4/Opamp_2_PM.c **** *  called, the Wakeup() function will also re-enable the component.
 112:.\Generated_Source\PSoC4/Opamp_2_PM.c **** *  The "Deep sleep operation" option has an influence on this function
 113:.\Generated_Source\PSoC4/Opamp_2_PM.c **** *  implementation.
 114:.\Generated_Source\PSoC4/Opamp_2_PM.c **** *
 115:.\Generated_Source\PSoC4/Opamp_2_PM.c **** * Parameters:
 116:.\Generated_Source\PSoC4/Opamp_2_PM.c **** *  None
 117:.\Generated_Source\PSoC4/Opamp_2_PM.c **** *
 118:.\Generated_Source\PSoC4/Opamp_2_PM.c **** * Return:
 119:.\Generated_Source\PSoC4/Opamp_2_PM.c **** *  None
 120:.\Generated_Source\PSoC4/Opamp_2_PM.c **** *
 121:.\Generated_Source\PSoC4/Opamp_2_PM.c **** * Global variables:
 122:.\Generated_Source\PSoC4/Opamp_2_PM.c **** *  Opamp_2_backup: The structure field 'enableState' is used to
 123:.\Generated_Source\PSoC4/Opamp_2_PM.c **** *  restore the enable state of block after wakeup from sleep mode.
 124:.\Generated_Source\PSoC4/Opamp_2_PM.c **** *
 125:.\Generated_Source\PSoC4/Opamp_2_PM.c **** *******************************************************************************/
 126:.\Generated_Source\PSoC4/Opamp_2_PM.c **** void Opamp_2_Wakeup(void)
 127:.\Generated_Source\PSoC4/Opamp_2_PM.c **** {
 123              		.loc 1 127 0
 124              		.cfi_startproc
 125 0000 80B5     		push	{r7, lr}
 126              		.cfi_def_cfa_offset 8
 127              		.cfi_offset 7, -8
 128              		.cfi_offset 14, -4
 129 0002 00AF     		add	r7, sp, #0
 130              		.cfi_def_cfa_register 7
 128:.\Generated_Source\PSoC4/Opamp_2_PM.c **** #if(!Opamp_2_CHECK_DEEPSLEEP_SUPPORT)
 129:.\Generated_Source\PSoC4/Opamp_2_PM.c ****     if(0u != Opamp_2_backup.enableState)
 131              		.loc 1 129 0
 132 0004 034B     		ldr	r3, .L10
 133 0006 1B78     		ldrb	r3, [r3]
 134 0008 002B     		cmp	r3, #0
 135 000a 01D0     		beq	.L8
 130:.\Generated_Source\PSoC4/Opamp_2_PM.c ****     {
 131:.\Generated_Source\PSoC4/Opamp_2_PM.c ****         /* Enable Opamp's operation */
 132:.\Generated_Source\PSoC4/Opamp_2_PM.c ****         Opamp_2_Enable();
 136              		.loc 1 132 0
 137 000c FFF7FEFF 		bl	Opamp_2_Enable
 138              	.L8:
 133:.\Generated_Source\PSoC4/Opamp_2_PM.c ****     } /* Do nothing if Opamp was disabled before */
 134:.\Generated_Source\PSoC4/Opamp_2_PM.c **** #endif /* (Opamp_2_CHECK_DEEPSLEEP_SUPPORT) */
 135:.\Generated_Source\PSoC4/Opamp_2_PM.c **** }
 139              		.loc 1 135 0
 140 0010 BD46     		mov	sp, r7
 141              		@ sp needed
 142 0012 80BD     		pop	{r7, pc}
 143              	.L11:
 144              		.align	2
 145              	.L10:
 146 0014 00000000 		.word	Opamp_2_backup
 147              		.cfi_endproc
 148              	.LFE3:
 149              		.size	Opamp_2_Wakeup, .-Opamp_2_Wakeup
 150              		.text
ARM GAS  C:\Users\mitchell\AppData\Local\Temp\cc8LRJxb.s 			page 6


 151              	.Letext0:
 152              		.file 2 ".\\Generated_Source\\PSoC4\\cytypes.h"
 153              		.file 3 ".\\Generated_Source\\PSoC4\\Opamp_2.h"