ARM GAS  C:\Users\mitchell\AppData\Local\Temp\ccJ23Swe.s 			page 1


   1              		.cpu cortex-m0
   2              		.fpu softvfp
   3              		.eabi_attribute 20, 1
   4              		.eabi_attribute 21, 1
   5              		.eabi_attribute 23, 3
   6              		.eabi_attribute 24, 1
   7              		.eabi_attribute 25, 1
   8              		.eabi_attribute 26, 1
   9              		.eabi_attribute 30, 6
  10              		.eabi_attribute 34, 0
  11              		.eabi_attribute 18, 4
  12              		.code	16
  13              		.file	"Opamp_1.c"
  14              		.text
  15              	.Ltext0:
  16              		.cfi_sections	.debug_frame
  17              		.global	Opamp_1_initVar
  18              		.bss
  19              		.type	Opamp_1_initVar, %object
  20              		.size	Opamp_1_initVar, 1
  21              	Opamp_1_initVar:
  22 0000 00       		.space	1
  23 0001 000000   		.align	2
  24              	Opamp_1_internalPower:
  25 0004 00000000 		.space	4
  26              		.section	.text.Opamp_1_Init,"ax",%progbits
  27              		.align	2
  28              		.global	Opamp_1_Init
  29              		.code	16
  30              		.thumb_func
  31              		.type	Opamp_1_Init, %function
  32              	Opamp_1_Init:
  33              	.LFB0:
  34              		.file 1 ".\\Generated_Source\\PSoC4\\Opamp_1.c"
   1:.\Generated_Source\PSoC4/Opamp_1.c **** /*******************************************************************************
   2:.\Generated_Source\PSoC4/Opamp_1.c **** * File Name: Opamp_1.c
   3:.\Generated_Source\PSoC4/Opamp_1.c **** * Version 1.10
   4:.\Generated_Source\PSoC4/Opamp_1.c **** *
   5:.\Generated_Source\PSoC4/Opamp_1.c **** * Description:
   6:.\Generated_Source\PSoC4/Opamp_1.c **** *  This file provides the source code to the API for the Opamp (Analog Buffer)
   7:.\Generated_Source\PSoC4/Opamp_1.c **** *  Component.
   8:.\Generated_Source\PSoC4/Opamp_1.c **** *
   9:.\Generated_Source\PSoC4/Opamp_1.c **** *
  10:.\Generated_Source\PSoC4/Opamp_1.c **** ********************************************************************************
  11:.\Generated_Source\PSoC4/Opamp_1.c **** * Copyright 2013-2014, Cypress Semiconductor Corporation.  All rights reserved.
  12:.\Generated_Source\PSoC4/Opamp_1.c **** * You may use this file only in accordance with the license, terms, conditions,
  13:.\Generated_Source\PSoC4/Opamp_1.c **** * disclaimers, and limitations in the end user license agreement accompanying
  14:.\Generated_Source\PSoC4/Opamp_1.c **** * the software package with which this file was provided.
  15:.\Generated_Source\PSoC4/Opamp_1.c **** *******************************************************************************/
  16:.\Generated_Source\PSoC4/Opamp_1.c **** 
  17:.\Generated_Source\PSoC4/Opamp_1.c **** #include "Opamp_1.h"
  18:.\Generated_Source\PSoC4/Opamp_1.c **** 
  19:.\Generated_Source\PSoC4/Opamp_1.c **** uint8 Opamp_1_initVar = 0u; /* Defines if component was initialized */
  20:.\Generated_Source\PSoC4/Opamp_1.c **** static uint32 Opamp_1_internalPower = 0u; /* Defines component Power value */
  21:.\Generated_Source\PSoC4/Opamp_1.c **** 
  22:.\Generated_Source\PSoC4/Opamp_1.c **** 
  23:.\Generated_Source\PSoC4/Opamp_1.c **** /*******************************************************************************
ARM GAS  C:\Users\mitchell\AppData\Local\Temp\ccJ23Swe.s 			page 2


  24:.\Generated_Source\PSoC4/Opamp_1.c **** * Function Name: Opamp_1_Init
  25:.\Generated_Source\PSoC4/Opamp_1.c **** ********************************************************************************
  26:.\Generated_Source\PSoC4/Opamp_1.c **** *
  27:.\Generated_Source\PSoC4/Opamp_1.c **** * Summary:
  28:.\Generated_Source\PSoC4/Opamp_1.c **** *  Initializes or restores the component according to the customizer Configure 
  29:.\Generated_Source\PSoC4/Opamp_1.c **** *  dialog settings. It is not necessary to call Init() because the Start() API 
  30:.\Generated_Source\PSoC4/Opamp_1.c **** *  calls this function and is the preferred method to begin the component operation.
  31:.\Generated_Source\PSoC4/Opamp_1.c **** *
  32:.\Generated_Source\PSoC4/Opamp_1.c **** * Parameters:
  33:.\Generated_Source\PSoC4/Opamp_1.c **** *  None
  34:.\Generated_Source\PSoC4/Opamp_1.c **** *
  35:.\Generated_Source\PSoC4/Opamp_1.c **** * Return:
  36:.\Generated_Source\PSoC4/Opamp_1.c **** *  None
  37:.\Generated_Source\PSoC4/Opamp_1.c **** *
  38:.\Generated_Source\PSoC4/Opamp_1.c **** *******************************************************************************/
  39:.\Generated_Source\PSoC4/Opamp_1.c **** void Opamp_1_Init(void)
  40:.\Generated_Source\PSoC4/Opamp_1.c **** {
  35              		.loc 1 40 0
  36              		.cfi_startproc
  37 0000 80B5     		push	{r7, lr}
  38              		.cfi_def_cfa_offset 8
  39              		.cfi_offset 7, -8
  40              		.cfi_offset 14, -4
  41 0002 00AF     		add	r7, sp, #0
  42              		.cfi_def_cfa_register 7
  41:.\Generated_Source\PSoC4/Opamp_1.c ****     Opamp_1_internalPower = Opamp_1_POWER;
  43              		.loc 1 41 0
  44 0004 074B     		ldr	r3, .L2
  45 0006 0322     		mov	r2, #3
  46 0008 1A60     		str	r2, [r3]
  42:.\Generated_Source\PSoC4/Opamp_1.c ****     Opamp_1_CTB_CTRL_REG = Opamp_1_DEFAULT_CTB_CTRL;
  47              		.loc 1 42 0
  48 000a 074B     		ldr	r3, .L2+4
  49 000c 8022     		mov	r2, #128
  50 000e 1206     		lsl	r2, r2, #24
  51 0010 1A60     		str	r2, [r3]
  43:.\Generated_Source\PSoC4/Opamp_1.c ****     Opamp_1_OA_RES_CTRL_REG = Opamp_1_DEFAULT_OA_RES_CTRL;
  52              		.loc 1 43 0
  53 0012 064B     		ldr	r3, .L2+8
  54 0014 0422     		mov	r2, #4
  55 0016 1A60     		str	r2, [r3]
  44:.\Generated_Source\PSoC4/Opamp_1.c ****     Opamp_1_OA_COMP_TRIM_REG = Opamp_1_DEFAULT_OA_COMP_TRIM_REG;
  56              		.loc 1 44 0
  57 0018 054B     		ldr	r3, .L2+12
  58 001a 0322     		mov	r2, #3
  59 001c 1A60     		str	r2, [r3]
  45:.\Generated_Source\PSoC4/Opamp_1.c **** }
  60              		.loc 1 45 0
  61 001e BD46     		mov	sp, r7
  62              		@ sp needed
  63 0020 80BD     		pop	{r7, pc}
  64              	.L3:
  65 0022 C046     		.align	2
  66              	.L2:
  67 0024 04000000 		.word	Opamp_1_internalPower
  68 0028 00001040 		.word	1074790400
  69 002c 04001040 		.word	1074790404
ARM GAS  C:\Users\mitchell\AppData\Local\Temp\ccJ23Swe.s 			page 3


  70 0030 080F1040 		.word	1074794248
  71              		.cfi_endproc
  72              	.LFE0:
  73              		.size	Opamp_1_Init, .-Opamp_1_Init
  74              		.section	.text.Opamp_1_Enable,"ax",%progbits
  75              		.align	2
  76              		.global	Opamp_1_Enable
  77              		.code	16
  78              		.thumb_func
  79              		.type	Opamp_1_Enable, %function
  80              	Opamp_1_Enable:
  81              	.LFB1:
  46:.\Generated_Source\PSoC4/Opamp_1.c **** 
  47:.\Generated_Source\PSoC4/Opamp_1.c **** 
  48:.\Generated_Source\PSoC4/Opamp_1.c **** /*******************************************************************************
  49:.\Generated_Source\PSoC4/Opamp_1.c **** * Function Name: Opamp_1_Enable
  50:.\Generated_Source\PSoC4/Opamp_1.c **** ********************************************************************************
  51:.\Generated_Source\PSoC4/Opamp_1.c **** *
  52:.\Generated_Source\PSoC4/Opamp_1.c **** * Summary:
  53:.\Generated_Source\PSoC4/Opamp_1.c **** *  Activates the hardware and begins the component operation. It is not necessary to 
  54:.\Generated_Source\PSoC4/Opamp_1.c **** *  call Enable() because the Start() API calls this function, which is the 
  55:.\Generated_Source\PSoC4/Opamp_1.c **** *  preferred method to begin the component operation.
  56:.\Generated_Source\PSoC4/Opamp_1.c **** *
  57:.\Generated_Source\PSoC4/Opamp_1.c **** * Parameters:
  58:.\Generated_Source\PSoC4/Opamp_1.c **** *  None
  59:.\Generated_Source\PSoC4/Opamp_1.c **** *
  60:.\Generated_Source\PSoC4/Opamp_1.c **** * Return:
  61:.\Generated_Source\PSoC4/Opamp_1.c **** *  None
  62:.\Generated_Source\PSoC4/Opamp_1.c **** *
  63:.\Generated_Source\PSoC4/Opamp_1.c **** *******************************************************************************/
  64:.\Generated_Source\PSoC4/Opamp_1.c **** void Opamp_1_Enable(void)
  65:.\Generated_Source\PSoC4/Opamp_1.c **** {
  82              		.loc 1 65 0
  83              		.cfi_startproc
  84 0000 80B5     		push	{r7, lr}
  85              		.cfi_def_cfa_offset 8
  86              		.cfi_offset 7, -8
  87              		.cfi_offset 14, -4
  88 0002 00AF     		add	r7, sp, #0
  89              		.cfi_def_cfa_register 7
  66:.\Generated_Source\PSoC4/Opamp_1.c ****     Opamp_1_OA_RES_CTRL_REG |= Opamp_1_internalPower | \
  90              		.loc 1 66 0
  91 0004 054B     		ldr	r3, .L5
  92 0006 054A     		ldr	r2, .L5
  93 0008 1168     		ldr	r1, [r2]
  94 000a 054A     		ldr	r2, .L5+4
  95 000c 1268     		ldr	r2, [r2]
  96 000e 0A43     		orr	r2, r1
  97 0010 8021     		mov	r1, #128
  98 0012 0901     		lsl	r1, r1, #4
  99 0014 0A43     		orr	r2, r1
 100 0016 1A60     		str	r2, [r3]
  67:.\Generated_Source\PSoC4/Opamp_1.c ****                                         Opamp_1_OA_PUMP_EN;
  68:.\Generated_Source\PSoC4/Opamp_1.c **** }
 101              		.loc 1 68 0
 102 0018 BD46     		mov	sp, r7
 103              		@ sp needed
ARM GAS  C:\Users\mitchell\AppData\Local\Temp\ccJ23Swe.s 			page 4


 104 001a 80BD     		pop	{r7, pc}
 105              	.L6:
 106              		.align	2
 107              	.L5:
 108 001c 04001040 		.word	1074790404
 109 0020 04000000 		.word	Opamp_1_internalPower
 110              		.cfi_endproc
 111              	.LFE1:
 112              		.size	Opamp_1_Enable, .-Opamp_1_Enable
 113              		.section	.text.Opamp_1_Start,"ax",%progbits
 114              		.align	2
 115              		.global	Opamp_1_Start
 116              		.code	16
 117              		.thumb_func
 118              		.type	Opamp_1_Start, %function
 119              	Opamp_1_Start:
 120              	.LFB2:
  69:.\Generated_Source\PSoC4/Opamp_1.c **** 
  70:.\Generated_Source\PSoC4/Opamp_1.c **** 
  71:.\Generated_Source\PSoC4/Opamp_1.c **** /*******************************************************************************
  72:.\Generated_Source\PSoC4/Opamp_1.c **** * Function Name: Opamp_1_Start
  73:.\Generated_Source\PSoC4/Opamp_1.c **** ********************************************************************************
  74:.\Generated_Source\PSoC4/Opamp_1.c **** *
  75:.\Generated_Source\PSoC4/Opamp_1.c **** * Summary:
  76:.\Generated_Source\PSoC4/Opamp_1.c **** *  Performs all of the required initialization for the component and enables power 
  77:.\Generated_Source\PSoC4/Opamp_1.c **** *  to the block. The first time the routine is executed, the Power level, Mode, 
  78:.\Generated_Source\PSoC4/Opamp_1.c **** *  and Output mode are set. When called to restart the Opamp following a Stop() call, 
  79:.\Generated_Source\PSoC4/Opamp_1.c **** *  the current component parameter settings are retained.
  80:.\Generated_Source\PSoC4/Opamp_1.c **** *
  81:.\Generated_Source\PSoC4/Opamp_1.c **** * Parameters:
  82:.\Generated_Source\PSoC4/Opamp_1.c **** *  None
  83:.\Generated_Source\PSoC4/Opamp_1.c **** *
  84:.\Generated_Source\PSoC4/Opamp_1.c **** * Return:
  85:.\Generated_Source\PSoC4/Opamp_1.c **** *  None
  86:.\Generated_Source\PSoC4/Opamp_1.c **** *
  87:.\Generated_Source\PSoC4/Opamp_1.c **** * Global variables:
  88:.\Generated_Source\PSoC4/Opamp_1.c **** *  Opamp_1_initVar: Used to check the initial configuration, modified
  89:.\Generated_Source\PSoC4/Opamp_1.c **** *  when this function is called for the first time.
  90:.\Generated_Source\PSoC4/Opamp_1.c **** *
  91:.\Generated_Source\PSoC4/Opamp_1.c **** *******************************************************************************/
  92:.\Generated_Source\PSoC4/Opamp_1.c **** void Opamp_1_Start(void)
  93:.\Generated_Source\PSoC4/Opamp_1.c **** {
 121              		.loc 1 93 0
 122              		.cfi_startproc
 123 0000 80B5     		push	{r7, lr}
 124              		.cfi_def_cfa_offset 8
 125              		.cfi_offset 7, -8
 126              		.cfi_offset 14, -4
 127 0002 00AF     		add	r7, sp, #0
 128              		.cfi_def_cfa_register 7
  94:.\Generated_Source\PSoC4/Opamp_1.c ****     if( 0u == Opamp_1_initVar)
 129              		.loc 1 94 0
 130 0004 064B     		ldr	r3, .L9
 131 0006 1B78     		ldrb	r3, [r3]
 132 0008 002B     		cmp	r3, #0
 133 000a 04D1     		bne	.L8
  95:.\Generated_Source\PSoC4/Opamp_1.c ****     {
ARM GAS  C:\Users\mitchell\AppData\Local\Temp\ccJ23Swe.s 			page 5


  96:.\Generated_Source\PSoC4/Opamp_1.c ****         Opamp_1_Init();
 134              		.loc 1 96 0
 135 000c FFF7FEFF 		bl	Opamp_1_Init
  97:.\Generated_Source\PSoC4/Opamp_1.c ****         Opamp_1_initVar = 1u;
 136              		.loc 1 97 0
 137 0010 034B     		ldr	r3, .L9
 138 0012 0122     		mov	r2, #1
 139 0014 1A70     		strb	r2, [r3]
 140              	.L8:
  98:.\Generated_Source\PSoC4/Opamp_1.c ****     }
  99:.\Generated_Source\PSoC4/Opamp_1.c ****     Opamp_1_Enable();
 141              		.loc 1 99 0
 142 0016 FFF7FEFF 		bl	Opamp_1_Enable
 100:.\Generated_Source\PSoC4/Opamp_1.c **** }
 143              		.loc 1 100 0
 144 001a BD46     		mov	sp, r7
 145              		@ sp needed
 146 001c 80BD     		pop	{r7, pc}
 147              	.L10:
 148 001e C046     		.align	2
 149              	.L9:
 150 0020 00000000 		.word	Opamp_1_initVar
 151              		.cfi_endproc
 152              	.LFE2:
 153              		.size	Opamp_1_Start, .-Opamp_1_Start
 154              		.section	.text.Opamp_1_Stop,"ax",%progbits
 155              		.align	2
 156              		.global	Opamp_1_Stop
 157              		.code	16
 158              		.thumb_func
 159              		.type	Opamp_1_Stop, %function
 160              	Opamp_1_Stop:
 161              	.LFB3:
 101:.\Generated_Source\PSoC4/Opamp_1.c **** 
 102:.\Generated_Source\PSoC4/Opamp_1.c **** 
 103:.\Generated_Source\PSoC4/Opamp_1.c **** /*******************************************************************************
 104:.\Generated_Source\PSoC4/Opamp_1.c **** * Function Name: Opamp_1_Stop
 105:.\Generated_Source\PSoC4/Opamp_1.c **** ********************************************************************************
 106:.\Generated_Source\PSoC4/Opamp_1.c **** *
 107:.\Generated_Source\PSoC4/Opamp_1.c **** * Summary:
 108:.\Generated_Source\PSoC4/Opamp_1.c **** *  Turn off the Opamp block.
 109:.\Generated_Source\PSoC4/Opamp_1.c **** *
 110:.\Generated_Source\PSoC4/Opamp_1.c **** * Parameters:
 111:.\Generated_Source\PSoC4/Opamp_1.c **** *  None
 112:.\Generated_Source\PSoC4/Opamp_1.c **** *
 113:.\Generated_Source\PSoC4/Opamp_1.c **** * Return:
 114:.\Generated_Source\PSoC4/Opamp_1.c **** *  None
 115:.\Generated_Source\PSoC4/Opamp_1.c **** *
 116:.\Generated_Source\PSoC4/Opamp_1.c **** *******************************************************************************/
 117:.\Generated_Source\PSoC4/Opamp_1.c **** void Opamp_1_Stop(void)
 118:.\Generated_Source\PSoC4/Opamp_1.c **** {
 162              		.loc 1 118 0
 163              		.cfi_startproc
 164 0000 80B5     		push	{r7, lr}
 165              		.cfi_def_cfa_offset 8
 166              		.cfi_offset 7, -8
 167              		.cfi_offset 14, -4
ARM GAS  C:\Users\mitchell\AppData\Local\Temp\ccJ23Swe.s 			page 6


 168 0002 00AF     		add	r7, sp, #0
 169              		.cfi_def_cfa_register 7
 119:.\Generated_Source\PSoC4/Opamp_1.c ****     Opamp_1_OA_RES_CTRL_REG &= ((uint32)~(Opamp_1_OA_PWR_MODE_MASK | \
 170              		.loc 1 119 0
 171 0004 034B     		ldr	r3, .L12
 172 0006 034A     		ldr	r2, .L12
 173 0008 1168     		ldr	r1, [r2]
 174 000a 034A     		ldr	r2, .L12+4
 175 000c 0A40     		and	r2, r1
 176 000e 1A60     		str	r2, [r3]
 120:.\Generated_Source\PSoC4/Opamp_1.c ****                                                    Opamp_1_OA_PUMP_EN));
 121:.\Generated_Source\PSoC4/Opamp_1.c **** }
 177              		.loc 1 121 0
 178 0010 BD46     		mov	sp, r7
 179              		@ sp needed
 180 0012 80BD     		pop	{r7, pc}
 181              	.L13:
 182              		.align	2
 183              	.L12:
 184 0014 04001040 		.word	1074790404
 185 0018 FCF7FFFF 		.word	-2052
 186              		.cfi_endproc
 187              	.LFE3:
 188              		.size	Opamp_1_Stop, .-Opamp_1_Stop
 189              		.section	.text.Opamp_1_SetPower,"ax",%progbits
 190              		.align	2
 191              		.global	Opamp_1_SetPower
 192              		.code	16
 193              		.thumb_func
 194              		.type	Opamp_1_SetPower, %function
 195              	Opamp_1_SetPower:
 196              	.LFB4:
 122:.\Generated_Source\PSoC4/Opamp_1.c **** 
 123:.\Generated_Source\PSoC4/Opamp_1.c **** 
 124:.\Generated_Source\PSoC4/Opamp_1.c **** /*******************************************************************************
 125:.\Generated_Source\PSoC4/Opamp_1.c **** * Function Name: Opamp_1_SetPower
 126:.\Generated_Source\PSoC4/Opamp_1.c **** ********************************************************************************
 127:.\Generated_Source\PSoC4/Opamp_1.c **** *
 128:.\Generated_Source\PSoC4/Opamp_1.c **** * Summary:
 129:.\Generated_Source\PSoC4/Opamp_1.c **** *  Sets the Opamp to one of the three power levels.
 130:.\Generated_Source\PSoC4/Opamp_1.c **** *
 131:.\Generated_Source\PSoC4/Opamp_1.c **** * Parameters:
 132:.\Generated_Source\PSoC4/Opamp_1.c **** *  power: power levels.
 133:.\Generated_Source\PSoC4/Opamp_1.c **** *   Opamp_1_LOW_POWER - Lowest active power
 134:.\Generated_Source\PSoC4/Opamp_1.c **** *   Opamp_1_MED_POWER - Medium power
 135:.\Generated_Source\PSoC4/Opamp_1.c **** *   Opamp_1_HIGH_POWER - Highest active power
 136:.\Generated_Source\PSoC4/Opamp_1.c **** *
 137:.\Generated_Source\PSoC4/Opamp_1.c **** * Return:
 138:.\Generated_Source\PSoC4/Opamp_1.c **** *  None
 139:.\Generated_Source\PSoC4/Opamp_1.c **** *
 140:.\Generated_Source\PSoC4/Opamp_1.c **** **********************************************************************************/
 141:.\Generated_Source\PSoC4/Opamp_1.c **** void Opamp_1_SetPower(uint32 power)
 142:.\Generated_Source\PSoC4/Opamp_1.c **** {
 197              		.loc 1 142 0
 198              		.cfi_startproc
 199 0000 80B5     		push	{r7, lr}
 200              		.cfi_def_cfa_offset 8
ARM GAS  C:\Users\mitchell\AppData\Local\Temp\ccJ23Swe.s 			page 7


 201              		.cfi_offset 7, -8
 202              		.cfi_offset 14, -4
 203 0002 84B0     		sub	sp, sp, #16
 204              		.cfi_def_cfa_offset 24
 205 0004 00AF     		add	r7, sp, #0
 206              		.cfi_def_cfa_register 7
 207 0006 7860     		str	r0, [r7, #4]
 143:.\Generated_Source\PSoC4/Opamp_1.c ****     uint32 tmp;
 144:.\Generated_Source\PSoC4/Opamp_1.c ****     
 145:.\Generated_Source\PSoC4/Opamp_1.c ****     Opamp_1_internalPower = Opamp_1_GET_OA_PWR_MODE(power);
 208              		.loc 1 145 0
 209 0008 7A68     		ldr	r2, [r7, #4]
 210 000a 0323     		mov	r3, #3
 211 000c 1A40     		and	r2, r3
 212 000e 084B     		ldr	r3, .L15
 213 0010 1A60     		str	r2, [r3]
 146:.\Generated_Source\PSoC4/Opamp_1.c ****     tmp = Opamp_1_OA_RES_CTRL_REG & \
 214              		.loc 1 146 0
 215 0012 084B     		ldr	r3, .L15+4
 216 0014 1B68     		ldr	r3, [r3]
 217 0016 0322     		mov	r2, #3
 218 0018 9343     		bic	r3, r2
 219 001a FB60     		str	r3, [r7, #12]
 147:.\Generated_Source\PSoC4/Opamp_1.c ****            (uint32)~Opamp_1_OA_PWR_MODE_MASK;
 148:.\Generated_Source\PSoC4/Opamp_1.c ****     Opamp_1_OA_RES_CTRL_REG = tmp | Opamp_1_internalPower;
 220              		.loc 1 148 0
 221 001c 054B     		ldr	r3, .L15+4
 222 001e 044A     		ldr	r2, .L15
 223 0020 1168     		ldr	r1, [r2]
 224 0022 FA68     		ldr	r2, [r7, #12]
 225 0024 0A43     		orr	r2, r1
 226 0026 1A60     		str	r2, [r3]
 149:.\Generated_Source\PSoC4/Opamp_1.c **** }
 227              		.loc 1 149 0
 228 0028 BD46     		mov	sp, r7
 229 002a 04B0     		add	sp, sp, #16
 230              		@ sp needed
 231 002c 80BD     		pop	{r7, pc}
 232              	.L16:
 233 002e C046     		.align	2
 234              	.L15:
 235 0030 04000000 		.word	Opamp_1_internalPower
 236 0034 04001040 		.word	1074790404
 237              		.cfi_endproc
 238              	.LFE4:
 239              		.size	Opamp_1_SetPower, .-Opamp_1_SetPower
 240              		.section	.text.Opamp_1_PumpControl,"ax",%progbits
 241              		.align	2
 242              		.global	Opamp_1_PumpControl
 243              		.code	16
 244              		.thumb_func
 245              		.type	Opamp_1_PumpControl, %function
 246              	Opamp_1_PumpControl:
 247              	.LFB5:
 150:.\Generated_Source\PSoC4/Opamp_1.c **** 
 151:.\Generated_Source\PSoC4/Opamp_1.c **** 
 152:.\Generated_Source\PSoC4/Opamp_1.c **** /*******************************************************************************
ARM GAS  C:\Users\mitchell\AppData\Local\Temp\ccJ23Swe.s 			page 8


 153:.\Generated_Source\PSoC4/Opamp_1.c **** * Function Name: Opamp_1_PumpControl
 154:.\Generated_Source\PSoC4/Opamp_1.c **** ********************************************************************************
 155:.\Generated_Source\PSoC4/Opamp_1.c **** *
 156:.\Generated_Source\PSoC4/Opamp_1.c **** * Summary:
 157:.\Generated_Source\PSoC4/Opamp_1.c **** *  Allows the user to turn the Opamp's boost pump on or off. By Default the Start() 
 158:.\Generated_Source\PSoC4/Opamp_1.c **** *  function turns on the pump. Use this API to turn it off. The boost must be 
 159:.\Generated_Source\PSoC4/Opamp_1.c **** *  turned on when the supply is less than 2.7 volts and off if the supply is more 
 160:.\Generated_Source\PSoC4/Opamp_1.c **** *  than 4 volts.
 161:.\Generated_Source\PSoC4/Opamp_1.c **** *
 162:.\Generated_Source\PSoC4/Opamp_1.c **** * Parameters:
 163:.\Generated_Source\PSoC4/Opamp_1.c **** *  onOff: Control the pump.
 164:.\Generated_Source\PSoC4/Opamp_1.c **** *   Opamp_1_PUMP_OFF - Turn off the pump
 165:.\Generated_Source\PSoC4/Opamp_1.c **** *   Opamp_1_PUMP_ON - Turn on the pump
 166:.\Generated_Source\PSoC4/Opamp_1.c **** *
 167:.\Generated_Source\PSoC4/Opamp_1.c **** * Return:
 168:.\Generated_Source\PSoC4/Opamp_1.c **** *  None
 169:.\Generated_Source\PSoC4/Opamp_1.c **** *
 170:.\Generated_Source\PSoC4/Opamp_1.c **** **********************************************************************************/
 171:.\Generated_Source\PSoC4/Opamp_1.c **** void Opamp_1_PumpControl(uint32 onOff)
 172:.\Generated_Source\PSoC4/Opamp_1.c **** {
 248              		.loc 1 172 0
 249              		.cfi_startproc
 250 0000 80B5     		push	{r7, lr}
 251              		.cfi_def_cfa_offset 8
 252              		.cfi_offset 7, -8
 253              		.cfi_offset 14, -4
 254 0002 82B0     		sub	sp, sp, #8
 255              		.cfi_def_cfa_offset 16
 256 0004 00AF     		add	r7, sp, #0
 257              		.cfi_def_cfa_register 7
 258 0006 7860     		str	r0, [r7, #4]
 173:.\Generated_Source\PSoC4/Opamp_1.c ****     
 174:.\Generated_Source\PSoC4/Opamp_1.c ****     if(0u != onOff)
 259              		.loc 1 174 0
 260 0008 7B68     		ldr	r3, [r7, #4]
 261 000a 002B     		cmp	r3, #0
 262 000c 07D0     		beq	.L18
 175:.\Generated_Source\PSoC4/Opamp_1.c ****     {
 176:.\Generated_Source\PSoC4/Opamp_1.c ****         Opamp_1_OA_RES_CTRL |= Opamp_1_OA_PUMP_EN;    
 263              		.loc 1 176 0
 264 000e 084B     		ldr	r3, .L20
 265 0010 074A     		ldr	r2, .L20
 266 0012 1268     		ldr	r2, [r2]
 267 0014 8021     		mov	r1, #128
 268 0016 0901     		lsl	r1, r1, #4
 269 0018 0A43     		orr	r2, r1
 270 001a 1A60     		str	r2, [r3]
 271 001c 05E0     		b	.L17
 272              	.L18:
 177:.\Generated_Source\PSoC4/Opamp_1.c ****     }
 178:.\Generated_Source\PSoC4/Opamp_1.c ****     else
 179:.\Generated_Source\PSoC4/Opamp_1.c ****     {
 180:.\Generated_Source\PSoC4/Opamp_1.c ****         Opamp_1_OA_RES_CTRL &= (uint32)~Opamp_1_OA_PUMP_EN;
 273              		.loc 1 180 0
 274 001e 044B     		ldr	r3, .L20
 275 0020 034A     		ldr	r2, .L20
 276 0022 1168     		ldr	r1, [r2]
ARM GAS  C:\Users\mitchell\AppData\Local\Temp\ccJ23Swe.s 			page 9


 277 0024 034A     		ldr	r2, .L20+4
 278 0026 0A40     		and	r2, r1
 279 0028 1A60     		str	r2, [r3]
 280              	.L17:
 181:.\Generated_Source\PSoC4/Opamp_1.c ****     }
 182:.\Generated_Source\PSoC4/Opamp_1.c **** }
 281              		.loc 1 182 0
 282 002a BD46     		mov	sp, r7
 283 002c 02B0     		add	sp, sp, #8
 284              		@ sp needed
 285 002e 80BD     		pop	{r7, pc}
 286              	.L21:
 287              		.align	2
 288              	.L20:
 289 0030 04001040 		.word	1074790404
 290 0034 FFF7FFFF 		.word	-2049
 291              		.cfi_endproc
 292              	.LFE5:
 293              		.size	Opamp_1_PumpControl, .-Opamp_1_PumpControl
 294              		.text
 295              	.Letext0:
 296              		.file 2 ".\\Generated_Source\\PSoC4\\cytypes.h"