ARM GAS  C:\Users\mitchell\AppData\Local\Temp\ccpqy6v3.s 			page 1


   1              		.syntax unified
   2              		.cpu cortex-m3
   3              		.fpu softvfp
   4              		.eabi_attribute 20, 1
   5              		.eabi_attribute 21, 1
   6              		.eabi_attribute 23, 3
   7              		.eabi_attribute 24, 1
   8              		.eabi_attribute 25, 1
   9              		.eabi_attribute 26, 1
  10              		.eabi_attribute 30, 1
  11              		.eabi_attribute 34, 1
  12              		.eabi_attribute 18, 4
  13              		.thumb
  14              		.file	"ADC_DelSig.c"
  15              		.text
  16              	.Ltext0:
  17              		.cfi_sections	.debug_frame
  18              		.section	.text.ADC_DelSig_GainCompensation,"ax",%progbits
  19              		.align	2
  20              		.thumb
  21              		.thumb_func
  22              		.type	ADC_DelSig_GainCompensation, %function
  23              	ADC_DelSig_GainCompensation:
  24              	.LFB21:
  25              		.file 1 ".\\Generated_Source\\PSoC5\\ADC_DelSig.c"
   1:.\Generated_Source\PSoC5/ADC_DelSig.c **** /*******************************************************************************
   2:.\Generated_Source\PSoC5/ADC_DelSig.c **** * File Name: ADC_DelSig.c
   3:.\Generated_Source\PSoC5/ADC_DelSig.c **** * Version 3.20
   4:.\Generated_Source\PSoC5/ADC_DelSig.c **** *
   5:.\Generated_Source\PSoC5/ADC_DelSig.c **** * Description:
   6:.\Generated_Source\PSoC5/ADC_DelSig.c **** *  This file provides the source code to the API for the Delta-Sigma ADC
   7:.\Generated_Source\PSoC5/ADC_DelSig.c **** *  Component.
   8:.\Generated_Source\PSoC5/ADC_DelSig.c **** *
   9:.\Generated_Source\PSoC5/ADC_DelSig.c **** * Note:
  10:.\Generated_Source\PSoC5/ADC_DelSig.c **** *
  11:.\Generated_Source\PSoC5/ADC_DelSig.c **** ********************************************************************************
  12:.\Generated_Source\PSoC5/ADC_DelSig.c **** * Copyright 2008-2015, Cypress Semiconductor Corporation.  All rights reserved.
  13:.\Generated_Source\PSoC5/ADC_DelSig.c **** * You may use this file only in accordance with the license, terms, conditions,
  14:.\Generated_Source\PSoC5/ADC_DelSig.c **** * disclaimers, and limitations in the end user license agreement accompanying
  15:.\Generated_Source\PSoC5/ADC_DelSig.c **** * the software package with which this file was provided.
  16:.\Generated_Source\PSoC5/ADC_DelSig.c **** *******************************************************************************/
  17:.\Generated_Source\PSoC5/ADC_DelSig.c **** 
  18:.\Generated_Source\PSoC5/ADC_DelSig.c **** #include "ADC_DelSig.h"
  19:.\Generated_Source\PSoC5/ADC_DelSig.c **** 
  20:.\Generated_Source\PSoC5/ADC_DelSig.c **** #if(ADC_DelSig_DEFAULT_INTERNAL_CLK)
  21:.\Generated_Source\PSoC5/ADC_DelSig.c ****     #include "ADC_DelSig_theACLK.h"
  22:.\Generated_Source\PSoC5/ADC_DelSig.c **** #endif /* ADC_DelSig_DEFAULT_INTERNAL_CLK */
  23:.\Generated_Source\PSoC5/ADC_DelSig.c **** 
  24:.\Generated_Source\PSoC5/ADC_DelSig.c **** #include "ADC_DelSig_Ext_CP_Clk.h"
  25:.\Generated_Source\PSoC5/ADC_DelSig.c **** 
  26:.\Generated_Source\PSoC5/ADC_DelSig.c **** #if(ADC_DelSig_DEFAULT_INPUT_MODE)
  27:.\Generated_Source\PSoC5/ADC_DelSig.c ****     #include "ADC_DelSig_AMux.h"
  28:.\Generated_Source\PSoC5/ADC_DelSig.c **** #endif /* ADC_DelSig_DEFAULT_INPUT_MODE */
  29:.\Generated_Source\PSoC5/ADC_DelSig.c **** 
  30:.\Generated_Source\PSoC5/ADC_DelSig.c **** 
  31:.\Generated_Source\PSoC5/ADC_DelSig.c **** /***************************************
  32:.\Generated_Source\PSoC5/ADC_DelSig.c **** * Global data allocation
ARM GAS  C:\Users\mitchell\AppData\Local\Temp\ccpqy6v3.s 			page 2


  33:.\Generated_Source\PSoC5/ADC_DelSig.c **** ***************************************/
  34:.\Generated_Source\PSoC5/ADC_DelSig.c **** 
  35:.\Generated_Source\PSoC5/ADC_DelSig.c **** /* Software flag for checking conversion completed or not */
  36:.\Generated_Source\PSoC5/ADC_DelSig.c **** volatile uint8 ADC_DelSig_convDone = 0u;
  37:.\Generated_Source\PSoC5/ADC_DelSig.c **** 
  38:.\Generated_Source\PSoC5/ADC_DelSig.c **** /* Software flag to stop conversion for single sample conversion mode
  39:.\Generated_Source\PSoC5/ADC_DelSig.c **** *   with resolution above 16 bits 
  40:.\Generated_Source\PSoC5/ADC_DelSig.c **** */
  41:.\Generated_Source\PSoC5/ADC_DelSig.c **** volatile uint8 ADC_DelSig_stopConversion = 0u;
  42:.\Generated_Source\PSoC5/ADC_DelSig.c **** 
  43:.\Generated_Source\PSoC5/ADC_DelSig.c **** /* To run the initialization block only at the start up */
  44:.\Generated_Source\PSoC5/ADC_DelSig.c **** uint8 ADC_DelSig_initVar = 0u;
  45:.\Generated_Source\PSoC5/ADC_DelSig.c **** 
  46:.\Generated_Source\PSoC5/ADC_DelSig.c **** /* To check whether ADC started or not before switching the configuration */
  47:.\Generated_Source\PSoC5/ADC_DelSig.c **** volatile uint8 ADC_DelSig_started = 0u;
  48:.\Generated_Source\PSoC5/ADC_DelSig.c **** 
  49:.\Generated_Source\PSoC5/ADC_DelSig.c **** /* Flag to hold ADC config number. By default active config is 1. */
  50:.\Generated_Source\PSoC5/ADC_DelSig.c **** volatile uint8 ADC_DelSig_Config = 1u;
  51:.\Generated_Source\PSoC5/ADC_DelSig.c **** 
  52:.\Generated_Source\PSoC5/ADC_DelSig.c **** volatile int32 ADC_DelSig_Offset;
  53:.\Generated_Source\PSoC5/ADC_DelSig.c **** volatile int32 ADC_DelSig_CountsPerVolt;
  54:.\Generated_Source\PSoC5/ADC_DelSig.c **** 
  55:.\Generated_Source\PSoC5/ADC_DelSig.c **** 
  56:.\Generated_Source\PSoC5/ADC_DelSig.c **** /***************************************
  57:.\Generated_Source\PSoC5/ADC_DelSig.c **** * Local data allocation
  58:.\Generated_Source\PSoC5/ADC_DelSig.c **** ***************************************/
  59:.\Generated_Source\PSoC5/ADC_DelSig.c **** 
  60:.\Generated_Source\PSoC5/ADC_DelSig.c **** /* The array with precalculated gain compensation coefficients */
  61:.\Generated_Source\PSoC5/ADC_DelSig.c **** static ADC_DelSig_GCOR_STRUCT ADC_DelSig_gcor[ADC_DelSig_DEFAULT_NUM_CONFIGS];
  62:.\Generated_Source\PSoC5/ADC_DelSig.c **** 
  63:.\Generated_Source\PSoC5/ADC_DelSig.c **** 
  64:.\Generated_Source\PSoC5/ADC_DelSig.c **** 
  65:.\Generated_Source\PSoC5/ADC_DelSig.c **** /***************************************
  66:.\Generated_Source\PSoC5/ADC_DelSig.c **** * Forward function references
  67:.\Generated_Source\PSoC5/ADC_DelSig.c **** ***************************************/
  68:.\Generated_Source\PSoC5/ADC_DelSig.c **** static void ADC_DelSig_InitConfig(uint8 config) ;
  69:.\Generated_Source\PSoC5/ADC_DelSig.c **** static void ADC_DelSig_GainCompensation(uint8 inputRange, uint16 idealDecGain, uint16 idealOddDecGa
  70:.\Generated_Source\PSoC5/ADC_DelSig.c ****                             uint8 resolution, uint8 config) ;
  71:.\Generated_Source\PSoC5/ADC_DelSig.c **** static void ADC_DelSig_SetDSMRef0Reg(uint8 value) ;
  72:.\Generated_Source\PSoC5/ADC_DelSig.c **** 
  73:.\Generated_Source\PSoC5/ADC_DelSig.c **** 
  74:.\Generated_Source\PSoC5/ADC_DelSig.c **** /******************************************************************************
  75:.\Generated_Source\PSoC5/ADC_DelSig.c **** * Function Name: ADC_DelSig_Init
  76:.\Generated_Source\PSoC5/ADC_DelSig.c **** *******************************************************************************
  77:.\Generated_Source\PSoC5/ADC_DelSig.c **** *
  78:.\Generated_Source\PSoC5/ADC_DelSig.c **** * Summary:
  79:.\Generated_Source\PSoC5/ADC_DelSig.c **** *  Initialize component's parameters to the parameters set by user in the
  80:.\Generated_Source\PSoC5/ADC_DelSig.c **** *  customizer of the component placed onto schematic. Usually called in
  81:.\Generated_Source\PSoC5/ADC_DelSig.c **** * ADC_DelSig_Start().
  82:.\Generated_Source\PSoC5/ADC_DelSig.c **** *
  83:.\Generated_Source\PSoC5/ADC_DelSig.c **** *
  84:.\Generated_Source\PSoC5/ADC_DelSig.c **** * Parameters:
  85:.\Generated_Source\PSoC5/ADC_DelSig.c **** *  None
  86:.\Generated_Source\PSoC5/ADC_DelSig.c **** *
  87:.\Generated_Source\PSoC5/ADC_DelSig.c **** * Return:
  88:.\Generated_Source\PSoC5/ADC_DelSig.c **** *  None
  89:.\Generated_Source\PSoC5/ADC_DelSig.c **** *
ARM GAS  C:\Users\mitchell\AppData\Local\Temp\ccpqy6v3.s 			page 3


  90:.\Generated_Source\PSoC5/ADC_DelSig.c **** *******************************************************************************/
  91:.\Generated_Source\PSoC5/ADC_DelSig.c **** void ADC_DelSig_Init(void) 
  92:.\Generated_Source\PSoC5/ADC_DelSig.c **** {
  93:.\Generated_Source\PSoC5/ADC_DelSig.c **** 
  94:.\Generated_Source\PSoC5/ADC_DelSig.c ****     ADC_DelSig_Config = 1u;
  95:.\Generated_Source\PSoC5/ADC_DelSig.c ****     ADC_DelSig_convDone = 0u;
  96:.\Generated_Source\PSoC5/ADC_DelSig.c **** 
  97:.\Generated_Source\PSoC5/ADC_DelSig.c ****     ADC_DelSig_Ext_CP_Clk_SetMode(CYCLK_DUTY);
  98:.\Generated_Source\PSoC5/ADC_DelSig.c **** 
  99:.\Generated_Source\PSoC5/ADC_DelSig.c ****     /* This is only valid if there is an internal clock */
 100:.\Generated_Source\PSoC5/ADC_DelSig.c ****     #if(ADC_DelSig_DEFAULT_INTERNAL_CLK)
 101:.\Generated_Source\PSoC5/ADC_DelSig.c ****         ADC_DelSig_theACLK_SetMode(CYCLK_DUTY);
 102:.\Generated_Source\PSoC5/ADC_DelSig.c ****     #endif /* ADC_DelSig_DEFAULT_INTERNAL_CLK */
 103:.\Generated_Source\PSoC5/ADC_DelSig.c **** 
 104:.\Generated_Source\PSoC5/ADC_DelSig.c ****     #if(ADC_DelSig_IRQ_REMOVE == 0u)
 105:.\Generated_Source\PSoC5/ADC_DelSig.c ****         /* Set interrupt priority */
 106:.\Generated_Source\PSoC5/ADC_DelSig.c ****         CyIntSetPriority(ADC_DelSig_INTC_NUMBER, ADC_DelSig_INTC_PRIOR_NUMBER);
 107:.\Generated_Source\PSoC5/ADC_DelSig.c ****     #endif   /* End ADC_DelSig_IRQ_REMOVE */
 108:.\Generated_Source\PSoC5/ADC_DelSig.c **** 
 109:.\Generated_Source\PSoC5/ADC_DelSig.c ****     /* Init static registers with common configuration */
 110:.\Generated_Source\PSoC5/ADC_DelSig.c ****     ADC_DelSig_DSM_DEM0_REG    = ADC_DelSig_CFG1_DSM_DEM0;
 111:.\Generated_Source\PSoC5/ADC_DelSig.c ****     ADC_DelSig_DSM_DEM1_REG    = ADC_DelSig_CFG1_DSM_DEM1;
 112:.\Generated_Source\PSoC5/ADC_DelSig.c ****     ADC_DelSig_DSM_MISC_REG    = ADC_DelSig_CFG1_DSM_MISC;
 113:.\Generated_Source\PSoC5/ADC_DelSig.c ****     ADC_DelSig_DSM_CLK_REG    |= ADC_DelSig_CFG1_DSM_CLK;
 114:.\Generated_Source\PSoC5/ADC_DelSig.c ****     ADC_DelSig_DSM_REF1_REG    = ADC_DelSig_CFG1_DSM_REF1;
 115:.\Generated_Source\PSoC5/ADC_DelSig.c **** 
 116:.\Generated_Source\PSoC5/ADC_DelSig.c ****     ADC_DelSig_DSM_OUT0_REG    = ADC_DelSig_CFG1_DSM_OUT0;
 117:.\Generated_Source\PSoC5/ADC_DelSig.c ****     ADC_DelSig_DSM_OUT1_REG    = ADC_DelSig_CFG1_DSM_OUT1;
 118:.\Generated_Source\PSoC5/ADC_DelSig.c **** 
 119:.\Generated_Source\PSoC5/ADC_DelSig.c ****     ADC_DelSig_DSM_CR0_REG     = ADC_DelSig_CFG1_DSM_CR0;
 120:.\Generated_Source\PSoC5/ADC_DelSig.c ****     ADC_DelSig_DSM_CR1_REG     = ADC_DelSig_CFG1_DSM_CR1;
 121:.\Generated_Source\PSoC5/ADC_DelSig.c **** #if(ADC_DelSig_MI_ENABLE != 0u) /* Enable Modulator Input */
 122:.\Generated_Source\PSoC5/ADC_DelSig.c ****     ADC_DelSig_DSM_CR3_REG     |= ADC_DelSig_DSM_MODBIT_EN;
 123:.\Generated_Source\PSoC5/ADC_DelSig.c **** #else
 124:.\Generated_Source\PSoC5/ADC_DelSig.c ****     ADC_DelSig_DSM_CR3_REG     = ADC_DelSig_CFG1_DSM_CR3;
 125:.\Generated_Source\PSoC5/ADC_DelSig.c **** #endif /* ADC_DelSig_MI_ENABLE != 0u*/    
 126:.\Generated_Source\PSoC5/ADC_DelSig.c ****     ADC_DelSig_DSM_CR8_REG     = ADC_DelSig_CFG1_DSM_CR8;
 127:.\Generated_Source\PSoC5/ADC_DelSig.c ****     ADC_DelSig_DSM_CR9_REG     = ADC_DelSig_CFG1_DSM_CR9;
 128:.\Generated_Source\PSoC5/ADC_DelSig.c ****     ADC_DelSig_DSM_CR13_REG    = ADC_DelSig_CFG1_DSM_CR13;
 129:.\Generated_Source\PSoC5/ADC_DelSig.c **** 
 130:.\Generated_Source\PSoC5/ADC_DelSig.c ****     ADC_DelSig_DEC_SR_REG      = ADC_DelSig_CFG1_DEC_SR;
 131:.\Generated_Source\PSoC5/ADC_DelSig.c **** 
 132:.\Generated_Source\PSoC5/ADC_DelSig.c ****     /* Calculate Gain compensation coefficients for all configurations */
 133:.\Generated_Source\PSoC5/ADC_DelSig.c ****     ADC_DelSig_GainCompensation(ADC_DelSig_CFG1_INPUT_RANGE,
 134:.\Generated_Source\PSoC5/ADC_DelSig.c ****                                       ADC_DelSig_CFG1_IDEAL_DEC_GAIN,
 135:.\Generated_Source\PSoC5/ADC_DelSig.c ****                                       ADC_DelSig_CFG1_IDEAL_ODDDEC_GAIN,
 136:.\Generated_Source\PSoC5/ADC_DelSig.c ****                                       ADC_DelSig_CFG1_RESOLUTION,
 137:.\Generated_Source\PSoC5/ADC_DelSig.c ****                                       ADC_DelSig_CFG1);
 138:.\Generated_Source\PSoC5/ADC_DelSig.c ****     #if(ADC_DelSig_DEFAULT_NUM_CONFIGS > 1)
 139:.\Generated_Source\PSoC5/ADC_DelSig.c ****         ADC_DelSig_GainCompensation(ADC_DelSig_CFG2_INPUT_RANGE,
 140:.\Generated_Source\PSoC5/ADC_DelSig.c ****                                           ADC_DelSig_CFG2_IDEAL_DEC_GAIN,
 141:.\Generated_Source\PSoC5/ADC_DelSig.c ****                                           ADC_DelSig_CFG2_IDEAL_ODDDEC_GAIN,
 142:.\Generated_Source\PSoC5/ADC_DelSig.c ****                                           ADC_DelSig_CFG2_RESOLUTION,
 143:.\Generated_Source\PSoC5/ADC_DelSig.c ****                                           ADC_DelSig_CFG2);
 144:.\Generated_Source\PSoC5/ADC_DelSig.c ****     #endif /* ADC_DelSig_DEFAULT_NUM_CONFIGS > 1 */
 145:.\Generated_Source\PSoC5/ADC_DelSig.c ****     #if(ADC_DelSig_DEFAULT_NUM_CONFIGS > 2)
 146:.\Generated_Source\PSoC5/ADC_DelSig.c ****         ADC_DelSig_GainCompensation(ADC_DelSig_CFG3_INPUT_RANGE,
ARM GAS  C:\Users\mitchell\AppData\Local\Temp\ccpqy6v3.s 			page 4


 147:.\Generated_Source\PSoC5/ADC_DelSig.c ****                                           ADC_DelSig_CFG3_IDEAL_DEC_GAIN,
 148:.\Generated_Source\PSoC5/ADC_DelSig.c ****                                           ADC_DelSig_CFG3_IDEAL_ODDDEC_GAIN,
 149:.\Generated_Source\PSoC5/ADC_DelSig.c ****                                           ADC_DelSig_CFG3_RESOLUTION,
 150:.\Generated_Source\PSoC5/ADC_DelSig.c ****                                           ADC_DelSig_CFG3);
 151:.\Generated_Source\PSoC5/ADC_DelSig.c ****     #endif /* ADC_DelSig_DEFAULT_NUM_CONFIGS > 2 */
 152:.\Generated_Source\PSoC5/ADC_DelSig.c ****     #if(ADC_DelSig_DEFAULT_NUM_CONFIGS > 3)
 153:.\Generated_Source\PSoC5/ADC_DelSig.c ****         ADC_DelSig_GainCompensation(ADC_DelSig_CFG4_INPUT_RANGE,
 154:.\Generated_Source\PSoC5/ADC_DelSig.c ****                                           ADC_DelSig_CFG4_IDEAL_DEC_GAIN,
 155:.\Generated_Source\PSoC5/ADC_DelSig.c ****                                           ADC_DelSig_CFG4_IDEAL_ODDDEC_GAIN,
 156:.\Generated_Source\PSoC5/ADC_DelSig.c ****                                           ADC_DelSig_CFG4_RESOLUTION,
 157:.\Generated_Source\PSoC5/ADC_DelSig.c ****                                           ADC_DelSig_CFG4);
 158:.\Generated_Source\PSoC5/ADC_DelSig.c ****     #endif /* ADC_DelSig_DEFAULT_NUM_CONFIGS > 3 */
 159:.\Generated_Source\PSoC5/ADC_DelSig.c **** 
 160:.\Generated_Source\PSoC5/ADC_DelSig.c ****     /* Set GCOR register for config1 */
 161:.\Generated_Source\PSoC5/ADC_DelSig.c ****     ADC_DelSig_DEC_GVAL_REG = ADC_DelSig_gcor[ADC_DelSig_Config - 1u].gval;
 162:.\Generated_Source\PSoC5/ADC_DelSig.c ****     CY_SET_REG16(ADC_DelSig_DEC_GCOR_16B_PTR, ADC_DelSig_gcor[ADC_DelSig_Config - 1u].gcor);
 163:.\Generated_Source\PSoC5/ADC_DelSig.c **** 
 164:.\Generated_Source\PSoC5/ADC_DelSig.c ****     /* Initialize the registers with default customizer settings for config1 */
 165:.\Generated_Source\PSoC5/ADC_DelSig.c ****     ADC_DelSig_InitConfig(ADC_DelSig_Config);
 166:.\Generated_Source\PSoC5/ADC_DelSig.c **** }
 167:.\Generated_Source\PSoC5/ADC_DelSig.c **** 
 168:.\Generated_Source\PSoC5/ADC_DelSig.c **** 
 169:.\Generated_Source\PSoC5/ADC_DelSig.c **** /******************************************************************************
 170:.\Generated_Source\PSoC5/ADC_DelSig.c **** * Function Name: ADC_DelSig_Enable
 171:.\Generated_Source\PSoC5/ADC_DelSig.c **** *******************************************************************************
 172:.\Generated_Source\PSoC5/ADC_DelSig.c **** *
 173:.\Generated_Source\PSoC5/ADC_DelSig.c **** * Summary:
 174:.\Generated_Source\PSoC5/ADC_DelSig.c **** *  Enables the ADC DelSig block operation.
 175:.\Generated_Source\PSoC5/ADC_DelSig.c **** *
 176:.\Generated_Source\PSoC5/ADC_DelSig.c **** *
 177:.\Generated_Source\PSoC5/ADC_DelSig.c **** * Parameters:
 178:.\Generated_Source\PSoC5/ADC_DelSig.c **** *  None
 179:.\Generated_Source\PSoC5/ADC_DelSig.c **** *
 180:.\Generated_Source\PSoC5/ADC_DelSig.c **** * Return:
 181:.\Generated_Source\PSoC5/ADC_DelSig.c **** *  None
 182:.\Generated_Source\PSoC5/ADC_DelSig.c **** *
 183:.\Generated_Source\PSoC5/ADC_DelSig.c **** *******************************************************************************/
 184:.\Generated_Source\PSoC5/ADC_DelSig.c **** void ADC_DelSig_Enable(void) 
 185:.\Generated_Source\PSoC5/ADC_DelSig.c **** {
 186:.\Generated_Source\PSoC5/ADC_DelSig.c **** 	uint8 config;
 187:.\Generated_Source\PSoC5/ADC_DelSig.c ****     uint8 enableInterrupts;
 188:.\Generated_Source\PSoC5/ADC_DelSig.c ****     enableInterrupts = CyEnterCriticalSection();
 189:.\Generated_Source\PSoC5/ADC_DelSig.c **** 
 190:.\Generated_Source\PSoC5/ADC_DelSig.c ****     /* Read volatile variable to the local variable */
 191:.\Generated_Source\PSoC5/ADC_DelSig.c ****     config = ADC_DelSig_Config;
 192:.\Generated_Source\PSoC5/ADC_DelSig.c ****     
 193:.\Generated_Source\PSoC5/ADC_DelSig.c ****     /* Enable active mode power for ADC */
 194:.\Generated_Source\PSoC5/ADC_DelSig.c ****     ADC_DelSig_PWRMGR_DEC_REG |= ADC_DelSig_ACT_PWR_DEC_EN;
 195:.\Generated_Source\PSoC5/ADC_DelSig.c ****     ADC_DelSig_PWRMGR_DSM_REG |= ADC_DelSig_ACT_PWR_DSM_EN;
 196:.\Generated_Source\PSoC5/ADC_DelSig.c **** 
 197:.\Generated_Source\PSoC5/ADC_DelSig.c ****      /* Enable alternative active mode power for ADC */
 198:.\Generated_Source\PSoC5/ADC_DelSig.c ****     ADC_DelSig_STBY_PWRMGR_DEC_REG |= ADC_DelSig_STBY_PWR_DEC_EN;
 199:.\Generated_Source\PSoC5/ADC_DelSig.c ****     ADC_DelSig_STBY_PWRMGR_DSM_REG |= ADC_DelSig_STBY_PWR_DSM_EN;
 200:.\Generated_Source\PSoC5/ADC_DelSig.c **** 
 201:.\Generated_Source\PSoC5/ADC_DelSig.c ****     /* Disable PRES, Enable power to VCMBUF0, REFBUF0 and REFBUF1, enable PRES */
 202:.\Generated_Source\PSoC5/ADC_DelSig.c ****     ADC_DelSig_RESET_CR4_REG |= ADC_DelSig_IGNORE_PRESA1;
 203:.\Generated_Source\PSoC5/ADC_DelSig.c ****     ADC_DelSig_RESET_CR5_REG |= ADC_DelSig_IGNORE_PRESA2;
ARM GAS  C:\Users\mitchell\AppData\Local\Temp\ccpqy6v3.s 			page 5


 204:.\Generated_Source\PSoC5/ADC_DelSig.c **** 
 205:.\Generated_Source\PSoC5/ADC_DelSig.c ****     ADC_DelSig_DSM_CR17_REG |= (ADC_DelSig_DSM_EN_BUF_VREF | ADC_DelSig_DSM_EN_BUF_VCM);
 206:.\Generated_Source\PSoC5/ADC_DelSig.c **** 
 207:.\Generated_Source\PSoC5/ADC_DelSig.c ****     /* Code to disable the REFBUF0 if reference chosen is External ref */
 208:.\Generated_Source\PSoC5/ADC_DelSig.c ****     #if (((ADC_DelSig_CFG1_REFERENCE == ADC_DelSig_EXT_REF_ON_P03) || \
 209:.\Generated_Source\PSoC5/ADC_DelSig.c ****           (ADC_DelSig_CFG1_REFERENCE == ADC_DelSig_EXT_REF_ON_P32)) || \
 210:.\Generated_Source\PSoC5/ADC_DelSig.c ****          ((ADC_DelSig_DEFAULT_NUM_CONFIGS > 1) && \
 211:.\Generated_Source\PSoC5/ADC_DelSig.c ****           ((ADC_DelSig_CFG2_REFERENCE == ADC_DelSig_EXT_REF_ON_P03) ||  \
 212:.\Generated_Source\PSoC5/ADC_DelSig.c ****            (ADC_DelSig_CFG2_REFERENCE == ADC_DelSig_EXT_REF_ON_P32))) || \
 213:.\Generated_Source\PSoC5/ADC_DelSig.c ****          ((ADC_DelSig_DEFAULT_NUM_CONFIGS > 2) && \
 214:.\Generated_Source\PSoC5/ADC_DelSig.c ****           ((ADC_DelSig_CFG3_REFERENCE == ADC_DelSig_EXT_REF_ON_P03) ||  \
 215:.\Generated_Source\PSoC5/ADC_DelSig.c ****            (ADC_DelSig_CFG3_REFERENCE == ADC_DelSig_EXT_REF_ON_P32))) || \
 216:.\Generated_Source\PSoC5/ADC_DelSig.c ****          ((ADC_DelSig_DEFAULT_NUM_CONFIGS > 3) && \
 217:.\Generated_Source\PSoC5/ADC_DelSig.c ****           ((ADC_DelSig_CFG4_REFERENCE == ADC_DelSig_EXT_REF_ON_P03) || \
 218:.\Generated_Source\PSoC5/ADC_DelSig.c ****            (ADC_DelSig_CFG4_REFERENCE == ADC_DelSig_EXT_REF_ON_P32))))
 219:.\Generated_Source\PSoC5/ADC_DelSig.c ****         if (((config == 1u) &&
 220:.\Generated_Source\PSoC5/ADC_DelSig.c ****             ((ADC_DelSig_CFG1_REFERENCE == ADC_DelSig_EXT_REF_ON_P03) ||
 221:.\Generated_Source\PSoC5/ADC_DelSig.c ****              (ADC_DelSig_CFG1_REFERENCE == ADC_DelSig_EXT_REF_ON_P32))) ||
 222:.\Generated_Source\PSoC5/ADC_DelSig.c ****             ((config == 2u) &&
 223:.\Generated_Source\PSoC5/ADC_DelSig.c ****             ((ADC_DelSig_CFG2_REFERENCE == ADC_DelSig_EXT_REF_ON_P03) ||
 224:.\Generated_Source\PSoC5/ADC_DelSig.c ****              (ADC_DelSig_CFG2_REFERENCE == ADC_DelSig_EXT_REF_ON_P32))) ||
 225:.\Generated_Source\PSoC5/ADC_DelSig.c ****             ((config == 3u) &&
 226:.\Generated_Source\PSoC5/ADC_DelSig.c ****             ((ADC_DelSig_CFG3_REFERENCE == ADC_DelSig_EXT_REF_ON_P03) ||
 227:.\Generated_Source\PSoC5/ADC_DelSig.c ****              (ADC_DelSig_CFG3_REFERENCE == ADC_DelSig_EXT_REF_ON_P32))) ||
 228:.\Generated_Source\PSoC5/ADC_DelSig.c ****             ((config == 4u) &&
 229:.\Generated_Source\PSoC5/ADC_DelSig.c ****             ((ADC_DelSig_CFG4_REFERENCE == ADC_DelSig_EXT_REF_ON_P03) ||
 230:.\Generated_Source\PSoC5/ADC_DelSig.c ****              (ADC_DelSig_CFG4_REFERENCE == ADC_DelSig_EXT_REF_ON_P32))))
 231:.\Generated_Source\PSoC5/ADC_DelSig.c ****         {
 232:.\Generated_Source\PSoC5/ADC_DelSig.c ****             /* Disable the REFBUF0 */
 233:.\Generated_Source\PSoC5/ADC_DelSig.c ****             ADC_DelSig_DSM_CR17_REG &= (uint8)~ADC_DelSig_DSM_EN_BUF_VREF;
 234:.\Generated_Source\PSoC5/ADC_DelSig.c ****         }
 235:.\Generated_Source\PSoC5/ADC_DelSig.c ****     #endif /* External ref */
 236:.\Generated_Source\PSoC5/ADC_DelSig.c **** 
 237:.\Generated_Source\PSoC5/ADC_DelSig.c ****     #if (((ADC_DelSig_CFG1_INPUT_RANGE == ADC_DelSig_IR_VSSA_TO_2VREF) || \
 238:.\Generated_Source\PSoC5/ADC_DelSig.c ****          ((ADC_DelSig_DEFAULT_NUM_CONFIGS > 1) && \
 239:.\Generated_Source\PSoC5/ADC_DelSig.c ****           (ADC_DelSig_CFG2_INPUT_RANGE == ADC_DelSig_IR_VSSA_TO_2VREF)) || \
 240:.\Generated_Source\PSoC5/ADC_DelSig.c ****          ((ADC_DelSig_DEFAULT_NUM_CONFIGS > 2) && \
 241:.\Generated_Source\PSoC5/ADC_DelSig.c ****           (ADC_DelSig_CFG3_INPUT_RANGE == ADC_DelSig_IR_VSSA_TO_2VREF)) || \
 242:.\Generated_Source\PSoC5/ADC_DelSig.c ****          ((ADC_DelSig_DEFAULT_NUM_CONFIGS > 3) && \
 243:.\Generated_Source\PSoC5/ADC_DelSig.c ****           (ADC_DelSig_CFG4_INPUT_RANGE == ADC_DelSig_IR_VSSA_TO_2VREF))))
 244:.\Generated_Source\PSoC5/ADC_DelSig.c ****         if(((config == 1u) &&
 245:.\Generated_Source\PSoC5/ADC_DelSig.c ****             (ADC_DelSig_CFG1_INPUT_RANGE == ADC_DelSig_IR_VSSA_TO_2VREF) &&
 246:.\Generated_Source\PSoC5/ADC_DelSig.c ****             ((ADC_DelSig_CFG1_REFERENCE != ADC_DelSig_EXT_REF_ON_P03) &&
 247:.\Generated_Source\PSoC5/ADC_DelSig.c ****              (ADC_DelSig_CFG1_REFERENCE != ADC_DelSig_EXT_REF_ON_P32))) ||
 248:.\Generated_Source\PSoC5/ADC_DelSig.c ****              ((config == 2u) &&
 249:.\Generated_Source\PSoC5/ADC_DelSig.c ****               (ADC_DelSig_CFG2_INPUT_RANGE == ADC_DelSig_IR_VSSA_TO_2VREF) &&
 250:.\Generated_Source\PSoC5/ADC_DelSig.c ****              ((ADC_DelSig_CFG2_REFERENCE != ADC_DelSig_EXT_REF_ON_P03) &&
 251:.\Generated_Source\PSoC5/ADC_DelSig.c ****              (ADC_DelSig_CFG2_REFERENCE != ADC_DelSig_EXT_REF_ON_P32))) ||
 252:.\Generated_Source\PSoC5/ADC_DelSig.c ****              ((config == 3u) &&
 253:.\Generated_Source\PSoC5/ADC_DelSig.c ****               (ADC_DelSig_CFG3_INPUT_RANGE == ADC_DelSig_IR_VSSA_TO_2VREF) &&
 254:.\Generated_Source\PSoC5/ADC_DelSig.c ****              ((ADC_DelSig_CFG3_REFERENCE != ADC_DelSig_EXT_REF_ON_P03) &&
 255:.\Generated_Source\PSoC5/ADC_DelSig.c ****              (ADC_DelSig_CFG3_REFERENCE != ADC_DelSig_EXT_REF_ON_P32))) ||
 256:.\Generated_Source\PSoC5/ADC_DelSig.c ****              ((config == 4u) &&
 257:.\Generated_Source\PSoC5/ADC_DelSig.c ****               (ADC_DelSig_CFG4_INPUT_RANGE == ADC_DelSig_IR_VSSA_TO_2VREF) &&
 258:.\Generated_Source\PSoC5/ADC_DelSig.c ****              ((ADC_DelSig_CFG4_REFERENCE != ADC_DelSig_EXT_REF_ON_P03) &&
 259:.\Generated_Source\PSoC5/ADC_DelSig.c ****              (ADC_DelSig_CFG4_REFERENCE != ADC_DelSig_EXT_REF_ON_P32))))
 260:.\Generated_Source\PSoC5/ADC_DelSig.c ****         {
ARM GAS  C:\Users\mitchell\AppData\Local\Temp\ccpqy6v3.s 			page 6


 261:.\Generated_Source\PSoC5/ADC_DelSig.c ****             /* Enable the REFBUF1 */
 262:.\Generated_Source\PSoC5/ADC_DelSig.c ****             ADC_DelSig_DSM_REF0_REG |= ADC_DelSig_DSM_EN_BUF_VREF_INN;
 263:.\Generated_Source\PSoC5/ADC_DelSig.c ****         }
 264:.\Generated_Source\PSoC5/ADC_DelSig.c ****     #endif /* VSSA_TO_2VREF */
 265:.\Generated_Source\PSoC5/ADC_DelSig.c ****     if(config != 0u)
 266:.\Generated_Source\PSoC5/ADC_DelSig.c ****     {
 267:.\Generated_Source\PSoC5/ADC_DelSig.c ****         /* Suppress compiler warning */
 268:.\Generated_Source\PSoC5/ADC_DelSig.c ****     }
 269:.\Generated_Source\PSoC5/ADC_DelSig.c **** 
 270:.\Generated_Source\PSoC5/ADC_DelSig.c ****     /* Wait for 3 microseconds */
 271:.\Generated_Source\PSoC5/ADC_DelSig.c ****     CyDelayUs(ADC_DelSig_PRES_DELAY_TIME);
 272:.\Generated_Source\PSoC5/ADC_DelSig.c **** 
 273:.\Generated_Source\PSoC5/ADC_DelSig.c ****     /* Enable the press circuit */
 274:.\Generated_Source\PSoC5/ADC_DelSig.c ****     ADC_DelSig_RESET_CR4_REG &= (uint8)~ADC_DelSig_IGNORE_PRESA1;
 275:.\Generated_Source\PSoC5/ADC_DelSig.c ****     ADC_DelSig_RESET_CR5_REG &= (uint8)~ADC_DelSig_IGNORE_PRESA2;
 276:.\Generated_Source\PSoC5/ADC_DelSig.c **** 
 277:.\Generated_Source\PSoC5/ADC_DelSig.c ****     /* Enable negative pumps for DSM  */
 278:.\Generated_Source\PSoC5/ADC_DelSig.c ****     ADC_DelSig_PUMP_CR1_REG  |= ( ADC_DelSig_PUMP_CR1_CLKSEL | ADC_DelSig_PUMP_CR1_FORCE );
 279:.\Generated_Source\PSoC5/ADC_DelSig.c **** 
 280:.\Generated_Source\PSoC5/ADC_DelSig.c ****     /* Enable Modulator Chopping if required */
 281:.\Generated_Source\PSoC5/ADC_DelSig.c ****     ADC_DelSig_DSM_CR2_REG = ADC_DelSig_CFG1_DSM_CR2;
 282:.\Generated_Source\PSoC5/ADC_DelSig.c **** 
 283:.\Generated_Source\PSoC5/ADC_DelSig.c ****     /* This is only valid if there is an internal clock */
 284:.\Generated_Source\PSoC5/ADC_DelSig.c ****     #if(ADC_DelSig_DEFAULT_INTERNAL_CLK)
 285:.\Generated_Source\PSoC5/ADC_DelSig.c ****         ADC_DelSig_PWRMGR_CLK_REG |= ADC_DelSig_ACT_PWR_CLK_EN;
 286:.\Generated_Source\PSoC5/ADC_DelSig.c ****         ADC_DelSig_STBY_PWRMGR_CLK_REG |= ADC_DelSig_STBY_PWR_CLK_EN;
 287:.\Generated_Source\PSoC5/ADC_DelSig.c ****     #endif /* ADC_DelSig_DEFAULT_INTERNAL_CLK */
 288:.\Generated_Source\PSoC5/ADC_DelSig.c **** 
 289:.\Generated_Source\PSoC5/ADC_DelSig.c ****     /* Enable the active and alternate active power for charge pump clock */
 290:.\Generated_Source\PSoC5/ADC_DelSig.c ****     ADC_DelSig_PWRMGR_CHARGE_PUMP_CLK_REG |= ADC_DelSig_ACT_PWR_CHARGE_PUMP_CLK_EN;
 291:.\Generated_Source\PSoC5/ADC_DelSig.c ****     ADC_DelSig_STBY_PWRMGR_CHARGE_PUMP_CLK_REG |= ADC_DelSig_STBY_PWR_CHARGE_PUMP_CLK_EN;
 292:.\Generated_Source\PSoC5/ADC_DelSig.c **** 
 293:.\Generated_Source\PSoC5/ADC_DelSig.c ****     #if(ADC_DelSig_IRQ_REMOVE == 0u)
 294:.\Generated_Source\PSoC5/ADC_DelSig.c ****         /* Clear a pending interrupt */
 295:.\Generated_Source\PSoC5/ADC_DelSig.c ****         CyIntClearPending(ADC_DelSig_INTC_NUMBER);
 296:.\Generated_Source\PSoC5/ADC_DelSig.c ****         /* Enable interrupt */
 297:.\Generated_Source\PSoC5/ADC_DelSig.c ****         CyIntEnable(ADC_DelSig_INTC_NUMBER);
 298:.\Generated_Source\PSoC5/ADC_DelSig.c ****     #endif   /* End ADC_DelSig_IRQ_REMOVE */
 299:.\Generated_Source\PSoC5/ADC_DelSig.c **** 
 300:.\Generated_Source\PSoC5/ADC_DelSig.c ****     CyExitCriticalSection(enableInterrupts);
 301:.\Generated_Source\PSoC5/ADC_DelSig.c **** 
 302:.\Generated_Source\PSoC5/ADC_DelSig.c **** }
 303:.\Generated_Source\PSoC5/ADC_DelSig.c **** 
 304:.\Generated_Source\PSoC5/ADC_DelSig.c **** 
 305:.\Generated_Source\PSoC5/ADC_DelSig.c **** /*******************************************************************************
 306:.\Generated_Source\PSoC5/ADC_DelSig.c **** * Function Name: ADC_DelSig_Start
 307:.\Generated_Source\PSoC5/ADC_DelSig.c **** ********************************************************************************
 308:.\Generated_Source\PSoC5/ADC_DelSig.c **** *
 309:.\Generated_Source\PSoC5/ADC_DelSig.c **** * Summary:
 310:.\Generated_Source\PSoC5/ADC_DelSig.c **** *  Performs all required initialization for this component and enables
 311:.\Generated_Source\PSoC5/ADC_DelSig.c **** *  the power. It configure all the register the first time it is called.
 312:.\Generated_Source\PSoC5/ADC_DelSig.c **** *  Subsequent calls of the Start function only enable the ADC and turn
 313:.\Generated_Source\PSoC5/ADC_DelSig.c **** *  on the power. If multiple configurations are selected, it will
 314:.\Generated_Source\PSoC5/ADC_DelSig.c **** *  configure the ADC for configuration 1 by default, unless the
 315:.\Generated_Source\PSoC5/ADC_DelSig.c **** *  ADC_DelSig_SelectConfiguration( ) function has been called to change
 316:.\Generated_Source\PSoC5/ADC_DelSig.c **** *  the default setting.
 317:.\Generated_Source\PSoC5/ADC_DelSig.c **** *
ARM GAS  C:\Users\mitchell\AppData\Local\Temp\ccpqy6v3.s 			page 7


 318:.\Generated_Source\PSoC5/ADC_DelSig.c **** * Parameters:
 319:.\Generated_Source\PSoC5/ADC_DelSig.c **** *  None
 320:.\Generated_Source\PSoC5/ADC_DelSig.c **** *
 321:.\Generated_Source\PSoC5/ADC_DelSig.c **** * Return:
 322:.\Generated_Source\PSoC5/ADC_DelSig.c **** *  None
 323:.\Generated_Source\PSoC5/ADC_DelSig.c **** *
 324:.\Generated_Source\PSoC5/ADC_DelSig.c **** * Global variables:
 325:.\Generated_Source\PSoC5/ADC_DelSig.c **** *  ADC_DelSig_initVar:  Used to check the initial configuration,
 326:.\Generated_Source\PSoC5/ADC_DelSig.c **** *  modified when this function is called for the first time.
 327:.\Generated_Source\PSoC5/ADC_DelSig.c **** *
 328:.\Generated_Source\PSoC5/ADC_DelSig.c **** *******************************************************************************/
 329:.\Generated_Source\PSoC5/ADC_DelSig.c **** void ADC_DelSig_Start(void) 
 330:.\Generated_Source\PSoC5/ADC_DelSig.c **** {
 331:.\Generated_Source\PSoC5/ADC_DelSig.c ****     if(ADC_DelSig_initVar == 0u)
 332:.\Generated_Source\PSoC5/ADC_DelSig.c ****     {
 333:.\Generated_Source\PSoC5/ADC_DelSig.c ****         if(ADC_DelSig_started == 0u)
 334:.\Generated_Source\PSoC5/ADC_DelSig.c ****         {
 335:.\Generated_Source\PSoC5/ADC_DelSig.c ****             ADC_DelSig_Init();
 336:.\Generated_Source\PSoC5/ADC_DelSig.c ****         }
 337:.\Generated_Source\PSoC5/ADC_DelSig.c ****         ADC_DelSig_initVar = 1u;
 338:.\Generated_Source\PSoC5/ADC_DelSig.c ****     }
 339:.\Generated_Source\PSoC5/ADC_DelSig.c **** 
 340:.\Generated_Source\PSoC5/ADC_DelSig.c ****     /* Enable the ADC */
 341:.\Generated_Source\PSoC5/ADC_DelSig.c ****     ADC_DelSig_Enable();
 342:.\Generated_Source\PSoC5/ADC_DelSig.c **** }
 343:.\Generated_Source\PSoC5/ADC_DelSig.c **** 
 344:.\Generated_Source\PSoC5/ADC_DelSig.c **** 
 345:.\Generated_Source\PSoC5/ADC_DelSig.c **** /*******************************************************************************
 346:.\Generated_Source\PSoC5/ADC_DelSig.c **** * Function Name: ADC_DelSig_Stop
 347:.\Generated_Source\PSoC5/ADC_DelSig.c **** ********************************************************************************
 348:.\Generated_Source\PSoC5/ADC_DelSig.c **** *
 349:.\Generated_Source\PSoC5/ADC_DelSig.c **** * Summary:
 350:.\Generated_Source\PSoC5/ADC_DelSig.c **** *  This function stops and powers down the ADC component and the internal
 351:.\Generated_Source\PSoC5/ADC_DelSig.c **** *  clock if the external clock is not selected. If an external clock is
 352:.\Generated_Source\PSoC5/ADC_DelSig.c **** *  used, it is up to the designer to power down the external clock it
 353:.\Generated_Source\PSoC5/ADC_DelSig.c **** *  required.
 354:.\Generated_Source\PSoC5/ADC_DelSig.c **** *
 355:.\Generated_Source\PSoC5/ADC_DelSig.c **** * Parameters:
 356:.\Generated_Source\PSoC5/ADC_DelSig.c **** *  None
 357:.\Generated_Source\PSoC5/ADC_DelSig.c **** *
 358:.\Generated_Source\PSoC5/ADC_DelSig.c **** * Return:
 359:.\Generated_Source\PSoC5/ADC_DelSig.c **** *  None
 360:.\Generated_Source\PSoC5/ADC_DelSig.c **** *
 361:.\Generated_Source\PSoC5/ADC_DelSig.c **** *******************************************************************************/
 362:.\Generated_Source\PSoC5/ADC_DelSig.c **** void ADC_DelSig_Stop(void) 
 363:.\Generated_Source\PSoC5/ADC_DelSig.c **** {
 364:.\Generated_Source\PSoC5/ADC_DelSig.c ****     uint8 enableInterrupts;
 365:.\Generated_Source\PSoC5/ADC_DelSig.c ****     enableInterrupts = CyEnterCriticalSection();
 366:.\Generated_Source\PSoC5/ADC_DelSig.c **** 
 367:.\Generated_Source\PSoC5/ADC_DelSig.c ****     /* Stop conversions */
 368:.\Generated_Source\PSoC5/ADC_DelSig.c ****     ADC_DelSig_DEC_CR_REG &= (uint8)~ADC_DelSig_DEC_START_CONV;
 369:.\Generated_Source\PSoC5/ADC_DelSig.c ****     ADC_DelSig_DEC_SR_REG |=  ADC_DelSig_DEC_INTR_CLEAR;
 370:.\Generated_Source\PSoC5/ADC_DelSig.c **** 
 371:.\Generated_Source\PSoC5/ADC_DelSig.c ****     /* Disable PRES, Disable power to VCMBUF0, REFBUF0 and REFBUF1,
 372:.\Generated_Source\PSoC5/ADC_DelSig.c ****        enable PRES */
 373:.\Generated_Source\PSoC5/ADC_DelSig.c ****     ADC_DelSig_RESET_CR4_REG |= ADC_DelSig_IGNORE_PRESA1;
 374:.\Generated_Source\PSoC5/ADC_DelSig.c ****     ADC_DelSig_RESET_CR5_REG |= ADC_DelSig_IGNORE_PRESA2;
ARM GAS  C:\Users\mitchell\AppData\Local\Temp\ccpqy6v3.s 			page 8


 375:.\Generated_Source\PSoC5/ADC_DelSig.c **** 
 376:.\Generated_Source\PSoC5/ADC_DelSig.c ****     ADC_DelSig_DSM_CR17_REG &= (uint8)~(ADC_DelSig_DSM_EN_BUF_VREF | ADC_DelSig_DSM_EN_BUF_VCM);
 377:.\Generated_Source\PSoC5/ADC_DelSig.c ****     ADC_DelSig_DSM_REF0_REG &= (uint8)~ADC_DelSig_DSM_EN_BUF_VREF_INN;
 378:.\Generated_Source\PSoC5/ADC_DelSig.c **** 
 379:.\Generated_Source\PSoC5/ADC_DelSig.c ****     /* Wait for 3 microseconds. */
 380:.\Generated_Source\PSoC5/ADC_DelSig.c ****     CyDelayUs(ADC_DelSig_PRES_DELAY_TIME);
 381:.\Generated_Source\PSoC5/ADC_DelSig.c **** 
 382:.\Generated_Source\PSoC5/ADC_DelSig.c ****     /* Enable the press circuit */
 383:.\Generated_Source\PSoC5/ADC_DelSig.c ****     ADC_DelSig_RESET_CR4_REG &= (uint8)~ADC_DelSig_IGNORE_PRESA1;
 384:.\Generated_Source\PSoC5/ADC_DelSig.c ****     ADC_DelSig_RESET_CR5_REG &= (uint8)~ADC_DelSig_IGNORE_PRESA2;
 385:.\Generated_Source\PSoC5/ADC_DelSig.c **** 
 386:.\Generated_Source\PSoC5/ADC_DelSig.c ****     /* Disable power to the ADC */
 387:.\Generated_Source\PSoC5/ADC_DelSig.c ****     ADC_DelSig_PWRMGR_DSM_REG &= (uint8)~ADC_DelSig_ACT_PWR_DSM_EN;
 388:.\Generated_Source\PSoC5/ADC_DelSig.c **** 
 389:.\Generated_Source\PSoC5/ADC_DelSig.c ****     /* Disable power to Decimator block */
 390:.\Generated_Source\PSoC5/ADC_DelSig.c ****     ADC_DelSig_PWRMGR_DEC_REG &= (uint8)~ADC_DelSig_ACT_PWR_DEC_EN;
 391:.\Generated_Source\PSoC5/ADC_DelSig.c **** 
 392:.\Generated_Source\PSoC5/ADC_DelSig.c ****     /* Disable alternative active power to the ADC */
 393:.\Generated_Source\PSoC5/ADC_DelSig.c ****     ADC_DelSig_STBY_PWRMGR_DEC_REG &= (uint8)~ADC_DelSig_STBY_PWR_DEC_EN;
 394:.\Generated_Source\PSoC5/ADC_DelSig.c ****     ADC_DelSig_STBY_PWRMGR_DSM_REG &= (uint8)~ADC_DelSig_STBY_PWR_DSM_EN;
 395:.\Generated_Source\PSoC5/ADC_DelSig.c **** 
 396:.\Generated_Source\PSoC5/ADC_DelSig.c ****    /* Disable negative pumps for DSM  */
 397:.\Generated_Source\PSoC5/ADC_DelSig.c ****     ADC_DelSig_PUMP_CR1_REG &= (uint8)~(ADC_DelSig_PUMP_CR1_CLKSEL | ADC_DelSig_PUMP_CR1_FORCE );
 398:.\Generated_Source\PSoC5/ADC_DelSig.c **** 
 399:.\Generated_Source\PSoC5/ADC_DelSig.c ****     /* This is only valid if there is an internal clock */
 400:.\Generated_Source\PSoC5/ADC_DelSig.c ****     #if(ADC_DelSig_DEFAULT_INTERNAL_CLK)
 401:.\Generated_Source\PSoC5/ADC_DelSig.c ****         ADC_DelSig_PWRMGR_CLK_REG &= (uint8)~ADC_DelSig_ACT_PWR_CLK_EN;
 402:.\Generated_Source\PSoC5/ADC_DelSig.c ****         ADC_DelSig_STBY_PWRMGR_CLK_REG &= (uint8)~ADC_DelSig_STBY_PWR_CLK_EN;
 403:.\Generated_Source\PSoC5/ADC_DelSig.c ****     #endif /* ADC_DelSig_DEFAULT_INTERNAL_CLK */
 404:.\Generated_Source\PSoC5/ADC_DelSig.c **** 
 405:.\Generated_Source\PSoC5/ADC_DelSig.c ****     /* Disable Modulator Chopping */
 406:.\Generated_Source\PSoC5/ADC_DelSig.c ****     ADC_DelSig_DSM_CR2_REG &= (uint8)~ADC_DelSig_DSM_MOD_CHOP_EN;
 407:.\Generated_Source\PSoC5/ADC_DelSig.c ****     /* Disable power to charge pump clock */
 408:.\Generated_Source\PSoC5/ADC_DelSig.c ****     ADC_DelSig_PWRMGR_CHARGE_PUMP_CLK_REG &= (uint8)~ADC_DelSig_ACT_PWR_CHARGE_PUMP_CLK_EN;
 409:.\Generated_Source\PSoC5/ADC_DelSig.c ****     ADC_DelSig_STBY_PWRMGR_CHARGE_PUMP_CLK_REG &= (uint8)~ADC_DelSig_STBY_PWR_CHARGE_PUMP_CLK_EN;
 410:.\Generated_Source\PSoC5/ADC_DelSig.c ****     
 411:.\Generated_Source\PSoC5/ADC_DelSig.c ****     CyExitCriticalSection(enableInterrupts);
 412:.\Generated_Source\PSoC5/ADC_DelSig.c **** }
 413:.\Generated_Source\PSoC5/ADC_DelSig.c **** 
 414:.\Generated_Source\PSoC5/ADC_DelSig.c **** 
 415:.\Generated_Source\PSoC5/ADC_DelSig.c **** /*******************************************************************************
 416:.\Generated_Source\PSoC5/ADC_DelSig.c **** * Function Name: ADC_DelSig_SetBufferGain
 417:.\Generated_Source\PSoC5/ADC_DelSig.c **** ********************************************************************************
 418:.\Generated_Source\PSoC5/ADC_DelSig.c **** *
 419:.\Generated_Source\PSoC5/ADC_DelSig.c **** * Summary:
 420:.\Generated_Source\PSoC5/ADC_DelSig.c **** *  Sets input buffer gain.
 421:.\Generated_Source\PSoC5/ADC_DelSig.c **** *
 422:.\Generated_Source\PSoC5/ADC_DelSig.c **** * Parameters:
 423:.\Generated_Source\PSoC5/ADC_DelSig.c **** *  gain:  Two bit value to select a gain of 1, 2, 4, or 8.
 424:.\Generated_Source\PSoC5/ADC_DelSig.c **** *
 425:.\Generated_Source\PSoC5/ADC_DelSig.c **** * Return:
 426:.\Generated_Source\PSoC5/ADC_DelSig.c **** *  None
 427:.\Generated_Source\PSoC5/ADC_DelSig.c **** *
 428:.\Generated_Source\PSoC5/ADC_DelSig.c **** *******************************************************************************/
 429:.\Generated_Source\PSoC5/ADC_DelSig.c **** void ADC_DelSig_SetBufferGain(uint8 gain) 
 430:.\Generated_Source\PSoC5/ADC_DelSig.c **** {
 431:.\Generated_Source\PSoC5/ADC_DelSig.c ****     uint8 tmpReg;
ARM GAS  C:\Users\mitchell\AppData\Local\Temp\ccpqy6v3.s 			page 9


 432:.\Generated_Source\PSoC5/ADC_DelSig.c ****     tmpReg = ADC_DelSig_DSM_BUF1_REG & (uint8)~ADC_DelSig_DSM_GAIN_MASK;
 433:.\Generated_Source\PSoC5/ADC_DelSig.c ****     tmpReg |= (uint8)(gain << ADC_DelSig_DSM_GAIN_SHIFT) & ADC_DelSig_DSM_GAIN_MASK;
 434:.\Generated_Source\PSoC5/ADC_DelSig.c ****     ADC_DelSig_DSM_BUF1_REG = tmpReg;
 435:.\Generated_Source\PSoC5/ADC_DelSig.c **** }
 436:.\Generated_Source\PSoC5/ADC_DelSig.c **** 
 437:.\Generated_Source\PSoC5/ADC_DelSig.c **** 
 438:.\Generated_Source\PSoC5/ADC_DelSig.c **** /*******************************************************************************
 439:.\Generated_Source\PSoC5/ADC_DelSig.c **** * Function Name: ADC_DelSig_SetCoherency
 440:.\Generated_Source\PSoC5/ADC_DelSig.c **** ********************************************************************************
 441:.\Generated_Source\PSoC5/ADC_DelSig.c **** *
 442:.\Generated_Source\PSoC5/ADC_DelSig.c **** * Summary:
 443:.\Generated_Source\PSoC5/ADC_DelSig.c **** *  This function allows the user to change which of the ADC's 3 word
 444:.\Generated_Source\PSoC5/ADC_DelSig.c **** *  result will trigger a coherency unlock. The ADC's result will not be
 445:.\Generated_Source\PSoC5/ADC_DelSig.c **** *  updated until the set byte is read either by the ADC or DMA. 
 446:.\Generated_Source\PSoC5/ADC_DelSig.c **** *  By default the LSB is the coherency byte for right alignment data format. 
 447:.\Generated_Source\PSoC5/ADC_DelSig.c **** *  The middle or high byte is set automatically depend on left alignment 
 448:.\Generated_Source\PSoC5/ADC_DelSig.c **** *  configuration for DMA data transfer.
 449:.\Generated_Source\PSoC5/ADC_DelSig.c **** *  If DMA or if a custom API requires different byte to be read the last,
 450:.\Generated_Source\PSoC5/ADC_DelSig.c **** *  this API should be used to set the last byte of the ADC result that is read. 
 451:.\Generated_Source\PSoC5/ADC_DelSig.c **** *  If a multibyte read is performed either by DMA or the ARM processor, the
 452:.\Generated_Source\PSoC5/ADC_DelSig.c **** *  coherency can be set to any byte in the last word read.
 453:.\Generated_Source\PSoC5/ADC_DelSig.c **** *
 454:.\Generated_Source\PSoC5/ADC_DelSig.c **** * Parameters:
 455:.\Generated_Source\PSoC5/ADC_DelSig.c **** *  coherency:  Two bit value to set the coherency bit.
 456:.\Generated_Source\PSoC5/ADC_DelSig.c **** *           00-Coherency checking off
 457:.\Generated_Source\PSoC5/ADC_DelSig.c **** *           01-low byte is key byte
 458:.\Generated_Source\PSoC5/ADC_DelSig.c **** *           02-middle byte is the key byte
 459:.\Generated_Source\PSoC5/ADC_DelSig.c **** *           03-high byte is the key byte
 460:.\Generated_Source\PSoC5/ADC_DelSig.c **** *
 461:.\Generated_Source\PSoC5/ADC_DelSig.c **** * Return:
 462:.\Generated_Source\PSoC5/ADC_DelSig.c **** *  None
 463:.\Generated_Source\PSoC5/ADC_DelSig.c **** *
 464:.\Generated_Source\PSoC5/ADC_DelSig.c **** *******************************************************************************/
 465:.\Generated_Source\PSoC5/ADC_DelSig.c **** void ADC_DelSig_SetCoherency(uint8 coherency) 
 466:.\Generated_Source\PSoC5/ADC_DelSig.c **** {
 467:.\Generated_Source\PSoC5/ADC_DelSig.c ****     uint8 tmpReg;
 468:.\Generated_Source\PSoC5/ADC_DelSig.c **** 
 469:.\Generated_Source\PSoC5/ADC_DelSig.c ****     tmpReg = ADC_DelSig_DEC_COHER_REG & (uint8)~ADC_DelSig_DEC_SAMP_KEY_MASK;
 470:.\Generated_Source\PSoC5/ADC_DelSig.c ****     tmpReg |= coherency & ADC_DelSig_DEC_SAMP_KEY_MASK;
 471:.\Generated_Source\PSoC5/ADC_DelSig.c ****     ADC_DelSig_DEC_COHER_REG = tmpReg;
 472:.\Generated_Source\PSoC5/ADC_DelSig.c **** }
 473:.\Generated_Source\PSoC5/ADC_DelSig.c **** 
 474:.\Generated_Source\PSoC5/ADC_DelSig.c **** 
 475:.\Generated_Source\PSoC5/ADC_DelSig.c **** /*******************************************************************************
 476:.\Generated_Source\PSoC5/ADC_DelSig.c **** * Function Name: ADC_DelSig_SetGCOR
 477:.\Generated_Source\PSoC5/ADC_DelSig.c **** ********************************************************************************
 478:.\Generated_Source\PSoC5/ADC_DelSig.c **** *
 479:.\Generated_Source\PSoC5/ADC_DelSig.c **** * Summary:
 480:.\Generated_Source\PSoC5/ADC_DelSig.c **** *  Calculates a new GCOR value and writes it into the GCOR register. 
 481:.\Generated_Source\PSoC5/ADC_DelSig.c **** *  The GCOR value is a 16-bit value that represents a gain of 0 to 2. 
 482:.\Generated_Source\PSoC5/ADC_DelSig.c **** *  The ADC result is multiplied by this value before it is placed in the ADC 
 483:.\Generated_Source\PSoC5/ADC_DelSig.c **** *  output registers. The numerical format for the GCOR value is:
 484:.\Generated_Source\PSoC5/ADC_DelSig.c **** *  0x0000 -> 0.000
 485:.\Generated_Source\PSoC5/ADC_DelSig.c **** *  0x8000 -> 1.000
 486:.\Generated_Source\PSoC5/ADC_DelSig.c **** *  0xFFFF -> 1.99997
 487:.\Generated_Source\PSoC5/ADC_DelSig.c **** *  When executing the function, the old GCOR value is multiplied by
 488:.\Generated_Source\PSoC5/ADC_DelSig.c **** *  gainAdjust and reloaded into the GCOR register.
ARM GAS  C:\Users\mitchell\AppData\Local\Temp\ccpqy6v3.s 			page 10


 489:.\Generated_Source\PSoC5/ADC_DelSig.c **** *
 490:.\Generated_Source\PSoC5/ADC_DelSig.c **** * Parameters:
 491:.\Generated_Source\PSoC5/ADC_DelSig.c **** *  gainAdjust:  floating point value to set GCOR registers.
 492:.\Generated_Source\PSoC5/ADC_DelSig.c **** *
 493:.\Generated_Source\PSoC5/ADC_DelSig.c **** * Return:
 494:.\Generated_Source\PSoC5/ADC_DelSig.c **** *  uint8: 0 - if GCOR value is within the expected range.
 495:.\Generated_Source\PSoC5/ADC_DelSig.c **** *         1 - the correction value is outside GCOR value range of
 496:.\Generated_Source\PSoC5/ADC_DelSig.c **** *             0.00 to 1.9999.
 497:.\Generated_Source\PSoC5/ADC_DelSig.c **** *
 498:.\Generated_Source\PSoC5/ADC_DelSig.c **** * Side Effects:  The GVAL register is set to the amount of valid bits in the
 499:.\Generated_Source\PSoC5/ADC_DelSig.c **** *                GCOR  register minus one. If GVAL is 15 (0x0F), all 16 bits
 500:.\Generated_Source\PSoC5/ADC_DelSig.c **** *                of the GCOR registers will be valid. If for example GVAL is
 501:.\Generated_Source\PSoC5/ADC_DelSig.c **** *                11 (0x0B) only 12 bits will be valid. The least 4 bits will
 502:.\Generated_Source\PSoC5/ADC_DelSig.c **** *                be lost when the GCOR value is shifted 4 places to the right.
 503:.\Generated_Source\PSoC5/ADC_DelSig.c **** *
 504:.\Generated_Source\PSoC5/ADC_DelSig.c **** ******************************************************************************/
 505:.\Generated_Source\PSoC5/ADC_DelSig.c **** uint8 ADC_DelSig_SetGCOR(float32 gainAdjust) 
 506:.\Generated_Source\PSoC5/ADC_DelSig.c **** {
 507:.\Generated_Source\PSoC5/ADC_DelSig.c ****     uint16 tmpReg;
 508:.\Generated_Source\PSoC5/ADC_DelSig.c ****     uint8 status;
 509:.\Generated_Source\PSoC5/ADC_DelSig.c ****     float32 tmpValue;
 510:.\Generated_Source\PSoC5/ADC_DelSig.c **** 
 511:.\Generated_Source\PSoC5/ADC_DelSig.c ****     tmpReg = ADC_DelSig_gcor[ADC_DelSig_Config - 1u].gcor;
 512:.\Generated_Source\PSoC5/ADC_DelSig.c ****     tmpValue = ((float32)tmpReg / (float32)ADC_DelSig_IDEAL_GAIN_CONST);
 513:.\Generated_Source\PSoC5/ADC_DelSig.c ****     tmpValue = tmpValue * gainAdjust;
 514:.\Generated_Source\PSoC5/ADC_DelSig.c **** 
 515:.\Generated_Source\PSoC5/ADC_DelSig.c ****     if (tmpValue > 1.9999)
 516:.\Generated_Source\PSoC5/ADC_DelSig.c ****     {
 517:.\Generated_Source\PSoC5/ADC_DelSig.c ****         status = 1u;
 518:.\Generated_Source\PSoC5/ADC_DelSig.c ****     }
 519:.\Generated_Source\PSoC5/ADC_DelSig.c ****     else
 520:.\Generated_Source\PSoC5/ADC_DelSig.c ****     {
 521:.\Generated_Source\PSoC5/ADC_DelSig.c ****         tmpValue *= (float32)ADC_DelSig_IDEAL_GAIN_CONST;
 522:.\Generated_Source\PSoC5/ADC_DelSig.c **** 		tmpReg = (uint16)tmpValue;
 523:.\Generated_Source\PSoC5/ADC_DelSig.c ****         CY_SET_REG16(ADC_DelSig_DEC_GCOR_16B_PTR, tmpReg);
 524:.\Generated_Source\PSoC5/ADC_DelSig.c ****         /* Update gain array to be used by SelectConfiguration() API */
 525:.\Generated_Source\PSoC5/ADC_DelSig.c ****        ADC_DelSig_gcor[ADC_DelSig_Config - 1u].gcor = tmpReg;
 526:.\Generated_Source\PSoC5/ADC_DelSig.c **** 
 527:.\Generated_Source\PSoC5/ADC_DelSig.c ****         status = 0u;
 528:.\Generated_Source\PSoC5/ADC_DelSig.c **** 
 529:.\Generated_Source\PSoC5/ADC_DelSig.c ****     }
 530:.\Generated_Source\PSoC5/ADC_DelSig.c ****     return(status);
 531:.\Generated_Source\PSoC5/ADC_DelSig.c **** }
 532:.\Generated_Source\PSoC5/ADC_DelSig.c **** 
 533:.\Generated_Source\PSoC5/ADC_DelSig.c **** 
 534:.\Generated_Source\PSoC5/ADC_DelSig.c **** /******************************************************************************
 535:.\Generated_Source\PSoC5/ADC_DelSig.c **** * Function Name: ADC_DelSig_ReadGCOR
 536:.\Generated_Source\PSoC5/ADC_DelSig.c **** *******************************************************************************
 537:.\Generated_Source\PSoC5/ADC_DelSig.c **** *
 538:.\Generated_Source\PSoC5/ADC_DelSig.c **** * Summary:
 539:.\Generated_Source\PSoC5/ADC_DelSig.c **** *  This API returns the current GCOR register value, normalized based on the
 540:.\Generated_Source\PSoC5/ADC_DelSig.c **** *  GVAL register settings.
 541:.\Generated_Source\PSoC5/ADC_DelSig.c **** *  For example, if the GCOR value is 0x0812 and the GVAL register is set to 
 542:.\Generated_Source\PSoC5/ADC_DelSig.c **** *  11 (0x0B) then the returned value will be shifted by for bits to the left.
 543:.\Generated_Source\PSoC5/ADC_DelSig.c **** *  (Actual GCOR value = 0x0812, returned value = 0x8120)
 544:.\Generated_Source\PSoC5/ADC_DelSig.c **** *
 545:.\Generated_Source\PSoC5/ADC_DelSig.c **** * Parameters:
ARM GAS  C:\Users\mitchell\AppData\Local\Temp\ccpqy6v3.s 			page 11


 546:.\Generated_Source\PSoC5/ADC_DelSig.c **** *  None
 547:.\Generated_Source\PSoC5/ADC_DelSig.c **** *
 548:.\Generated_Source\PSoC5/ADC_DelSig.c **** * Return:
 549:.\Generated_Source\PSoC5/ADC_DelSig.c **** *  uint16:  Normalized GCOR value.
 550:.\Generated_Source\PSoC5/ADC_DelSig.c **** *
 551:.\Generated_Source\PSoC5/ADC_DelSig.c **** *******************************************************************************/
 552:.\Generated_Source\PSoC5/ADC_DelSig.c **** uint16 ADC_DelSig_ReadGCOR(void) 
 553:.\Generated_Source\PSoC5/ADC_DelSig.c **** {
 554:.\Generated_Source\PSoC5/ADC_DelSig.c ****     uint8 gValue;
 555:.\Generated_Source\PSoC5/ADC_DelSig.c ****     uint16 gcorValue;
 556:.\Generated_Source\PSoC5/ADC_DelSig.c **** 
 557:.\Generated_Source\PSoC5/ADC_DelSig.c ****     gValue = ADC_DelSig_DEC_GVAL_REG;
 558:.\Generated_Source\PSoC5/ADC_DelSig.c ****     gcorValue = CY_GET_REG16(ADC_DelSig_DEC_GCOR_16B_PTR);
 559:.\Generated_Source\PSoC5/ADC_DelSig.c **** 
 560:.\Generated_Source\PSoC5/ADC_DelSig.c ****     if (gValue < ADC_DelSig_MAX_GVAL)
 561:.\Generated_Source\PSoC5/ADC_DelSig.c ****     {
 562:.\Generated_Source\PSoC5/ADC_DelSig.c ****         gcorValue <<= ADC_DelSig_MAX_GVAL - gValue;
 563:.\Generated_Source\PSoC5/ADC_DelSig.c ****     }
 564:.\Generated_Source\PSoC5/ADC_DelSig.c **** 
 565:.\Generated_Source\PSoC5/ADC_DelSig.c ****     return gcorValue;
 566:.\Generated_Source\PSoC5/ADC_DelSig.c **** }
 567:.\Generated_Source\PSoC5/ADC_DelSig.c **** 
 568:.\Generated_Source\PSoC5/ADC_DelSig.c **** 
 569:.\Generated_Source\PSoC5/ADC_DelSig.c **** /*******************************************************************************
 570:.\Generated_Source\PSoC5/ADC_DelSig.c **** * Function Name: ADC_DelSig_StartConvert
 571:.\Generated_Source\PSoC5/ADC_DelSig.c **** ********************************************************************************
 572:.\Generated_Source\PSoC5/ADC_DelSig.c **** *
 573:.\Generated_Source\PSoC5/ADC_DelSig.c **** * Summary:
 574:.\Generated_Source\PSoC5/ADC_DelSig.c **** *  Forces the ADC to initiate a conversion. If in the "Single Sample"
 575:.\Generated_Source\PSoC5/ADC_DelSig.c **** *  mode, one conversion will be performed then the ADC will halt. If in
 576:.\Generated_Source\PSoC5/ADC_DelSig.c **** *  one of the other three conversion modes, the ADC will run
 577:.\Generated_Source\PSoC5/ADC_DelSig.c **** *  continuously until the ADC_Stop() or ADC_StopConvert() is called.
 578:.\Generated_Source\PSoC5/ADC_DelSig.c **** *
 579:.\Generated_Source\PSoC5/ADC_DelSig.c **** * Parameters:
 580:.\Generated_Source\PSoC5/ADC_DelSig.c **** *  None
 581:.\Generated_Source\PSoC5/ADC_DelSig.c **** *
 582:.\Generated_Source\PSoC5/ADC_DelSig.c **** * Return:
 583:.\Generated_Source\PSoC5/ADC_DelSig.c **** *  None
 584:.\Generated_Source\PSoC5/ADC_DelSig.c **** *
 585:.\Generated_Source\PSoC5/ADC_DelSig.c **** *******************************************************************************/
 586:.\Generated_Source\PSoC5/ADC_DelSig.c **** void ADC_DelSig_StartConvert(void) 
 587:.\Generated_Source\PSoC5/ADC_DelSig.c **** {
 588:.\Generated_Source\PSoC5/ADC_DelSig.c ****     /* Start the conversion */
 589:.\Generated_Source\PSoC5/ADC_DelSig.c ****     ADC_DelSig_DEC_CR_REG |= ADC_DelSig_DEC_START_CONV;
 590:.\Generated_Source\PSoC5/ADC_DelSig.c **** }
 591:.\Generated_Source\PSoC5/ADC_DelSig.c **** 
 592:.\Generated_Source\PSoC5/ADC_DelSig.c **** 
 593:.\Generated_Source\PSoC5/ADC_DelSig.c **** /*******************************************************************************
 594:.\Generated_Source\PSoC5/ADC_DelSig.c **** * Function Name: ADC_DelSig_StopConvert
 595:.\Generated_Source\PSoC5/ADC_DelSig.c **** ********************************************************************************
 596:.\Generated_Source\PSoC5/ADC_DelSig.c **** *
 597:.\Generated_Source\PSoC5/ADC_DelSig.c **** * Summary:
 598:.\Generated_Source\PSoC5/ADC_DelSig.c **** *  Forces the ADC to stop all conversions. If the ADC is in the middle of a
 599:.\Generated_Source\PSoC5/ADC_DelSig.c **** *  conversion, the ADC will be reset and not provide a result for that partial
 600:.\Generated_Source\PSoC5/ADC_DelSig.c **** *  conversion.
 601:.\Generated_Source\PSoC5/ADC_DelSig.c **** *
 602:.\Generated_Source\PSoC5/ADC_DelSig.c **** * Parameters:
ARM GAS  C:\Users\mitchell\AppData\Local\Temp\ccpqy6v3.s 			page 12


 603:.\Generated_Source\PSoC5/ADC_DelSig.c **** *  None
 604:.\Generated_Source\PSoC5/ADC_DelSig.c **** *
 605:.\Generated_Source\PSoC5/ADC_DelSig.c **** * Return:
 606:.\Generated_Source\PSoC5/ADC_DelSig.c **** *  None
 607:.\Generated_Source\PSoC5/ADC_DelSig.c **** *
 608:.\Generated_Source\PSoC5/ADC_DelSig.c **** *******************************************************************************/
 609:.\Generated_Source\PSoC5/ADC_DelSig.c **** void ADC_DelSig_StopConvert(void) 
 610:.\Generated_Source\PSoC5/ADC_DelSig.c **** {
 611:.\Generated_Source\PSoC5/ADC_DelSig.c ****     /* Stop all conversions */
 612:.\Generated_Source\PSoC5/ADC_DelSig.c ****     ADC_DelSig_DEC_CR_REG &= (uint8)~ADC_DelSig_DEC_START_CONV;
 613:.\Generated_Source\PSoC5/ADC_DelSig.c **** }
 614:.\Generated_Source\PSoC5/ADC_DelSig.c **** 
 615:.\Generated_Source\PSoC5/ADC_DelSig.c **** 
 616:.\Generated_Source\PSoC5/ADC_DelSig.c **** /*******************************************************************************
 617:.\Generated_Source\PSoC5/ADC_DelSig.c **** * Function Name: ADC_DelSig_IsEndConversion
 618:.\Generated_Source\PSoC5/ADC_DelSig.c **** ********************************************************************************
 619:.\Generated_Source\PSoC5/ADC_DelSig.c **** *
 620:.\Generated_Source\PSoC5/ADC_DelSig.c **** * Summary:
 621:.\Generated_Source\PSoC5/ADC_DelSig.c **** *  Checks the status that the most recently started conversion has completed.
 622:.\Generated_Source\PSoC5/ADC_DelSig.c **** *  The status is cleared by any of ADC_GetResult8(), ADC_GetResult16() or 
 623:.\Generated_Source\PSoC5/ADC_DelSig.c **** *  ADC_GetResult32() API.
 624:.\Generated_Source\PSoC5/ADC_DelSig.c **** *  This function provides the programmer with two options. In one mode this 
 625:.\Generated_Source\PSoC5/ADC_DelSig.c **** *  function immediately returns with the conversion status. In the other mode,
 626:.\Generated_Source\PSoC5/ADC_DelSig.c **** *  the function does not return (blocking) until the conversion has completed.
 627:.\Generated_Source\PSoC5/ADC_DelSig.c **** *
 628:.\Generated_Source\PSoC5/ADC_DelSig.c **** * Parameters:
 629:.\Generated_Source\PSoC5/ADC_DelSig.c **** *  retMode: Check conversion return mode. See the following table for options.
 630:.\Generated_Source\PSoC5/ADC_DelSig.c **** *   ADC_DelSig_RETURN_STATUS -   Immediately returns conversion result
 631:.\Generated_Source\PSoC5/ADC_DelSig.c **** *                                      status.
 632:.\Generated_Source\PSoC5/ADC_DelSig.c **** *   ADC_DelSig_WAIT_FOR_RESULT - Does not return until ADC conversion
 633:.\Generated_Source\PSoC5/ADC_DelSig.c **** *                                      is complete.
 634:.\Generated_Source\PSoC5/ADC_DelSig.c **** *
 635:.\Generated_Source\PSoC5/ADC_DelSig.c **** * Return:
 636:.\Generated_Source\PSoC5/ADC_DelSig.c **** *  If a nonzero value is returned, the last conversion has completed.
 637:.\Generated_Source\PSoC5/ADC_DelSig.c **** *  If the returned value is zero, the ADC is still calculating the last result.
 638:.\Generated_Source\PSoC5/ADC_DelSig.c **** *
 639:.\Generated_Source\PSoC5/ADC_DelSig.c **** * Global variables:
 640:.\Generated_Source\PSoC5/ADC_DelSig.c **** *  ADC_DelSig_convDone:  Used to check whether conversion is complete
 641:.\Generated_Source\PSoC5/ADC_DelSig.c **** *  or not for single sample mode with resolution is above 16
 642:.\Generated_Source\PSoC5/ADC_DelSig.c **** *
 643:.\Generated_Source\PSoC5/ADC_DelSig.c **** *******************************************************************************/
 644:.\Generated_Source\PSoC5/ADC_DelSig.c **** uint8 ADC_DelSig_IsEndConversion(uint8 retMode) 
 645:.\Generated_Source\PSoC5/ADC_DelSig.c **** {
 646:.\Generated_Source\PSoC5/ADC_DelSig.c ****     uint8 status;
 647:.\Generated_Source\PSoC5/ADC_DelSig.c **** 
 648:.\Generated_Source\PSoC5/ADC_DelSig.c ****     do
 649:.\Generated_Source\PSoC5/ADC_DelSig.c ****     {
 650:.\Generated_Source\PSoC5/ADC_DelSig.c ****         /* Check for stop convert if conversion mode is Single Sample with
 651:.\Generated_Source\PSoC5/ADC_DelSig.c ****         *   resolution above 16 bit
 652:.\Generated_Source\PSoC5/ADC_DelSig.c ****         */
 653:.\Generated_Source\PSoC5/ADC_DelSig.c ****         if(ADC_DelSig_stopConversion != 0u)
 654:.\Generated_Source\PSoC5/ADC_DelSig.c ****         {
 655:.\Generated_Source\PSoC5/ADC_DelSig.c ****             status = ADC_DelSig_convDone;
 656:.\Generated_Source\PSoC5/ADC_DelSig.c ****         }
 657:.\Generated_Source\PSoC5/ADC_DelSig.c ****         else
 658:.\Generated_Source\PSoC5/ADC_DelSig.c ****         {
 659:.\Generated_Source\PSoC5/ADC_DelSig.c ****             status = ADC_DelSig_DEC_SR_REG & ADC_DelSig_DEC_CONV_DONE;
ARM GAS  C:\Users\mitchell\AppData\Local\Temp\ccpqy6v3.s 			page 13


 660:.\Generated_Source\PSoC5/ADC_DelSig.c ****         }
 661:.\Generated_Source\PSoC5/ADC_DelSig.c ****     }while((status != ADC_DelSig_DEC_CONV_DONE) && (retMode == ADC_DelSig_WAIT_FOR_RESULT));
 662:.\Generated_Source\PSoC5/ADC_DelSig.c **** 
 663:.\Generated_Source\PSoC5/ADC_DelSig.c ****     return(status);
 664:.\Generated_Source\PSoC5/ADC_DelSig.c **** }
 665:.\Generated_Source\PSoC5/ADC_DelSig.c **** 
 666:.\Generated_Source\PSoC5/ADC_DelSig.c **** 
 667:.\Generated_Source\PSoC5/ADC_DelSig.c **** /*******************************************************************************
 668:.\Generated_Source\PSoC5/ADC_DelSig.c **** * Function Name: ADC_DelSig_GetResult8
 669:.\Generated_Source\PSoC5/ADC_DelSig.c **** ********************************************************************************
 670:.\Generated_Source\PSoC5/ADC_DelSig.c **** *
 671:.\Generated_Source\PSoC5/ADC_DelSig.c **** * Summary:
 672:.\Generated_Source\PSoC5/ADC_DelSig.c **** *  This function returns the result of an 8-bit conversion. If the
 673:.\Generated_Source\PSoC5/ADC_DelSig.c **** *  resolution is set greater than 8-bits, the LSB of the result will be
 674:.\Generated_Source\PSoC5/ADC_DelSig.c **** *  returned. When the ADC is configured for 8-bit single ended mode,
 675:.\Generated_Source\PSoC5/ADC_DelSig.c **** *  the ADC_GetResult16() function should be used instead. This
 676:.\Generated_Source\PSoC5/ADC_DelSig.c **** *  function returns only signed 8-bit values. The maximum positive
 677:.\Generated_Source\PSoC5/ADC_DelSig.c **** *  signed 8-bit value is 127, but in singled ended 8-bit mode, the
 678:.\Generated_Source\PSoC5/ADC_DelSig.c **** *  maximum positive value is 255.
 679:.\Generated_Source\PSoC5/ADC_DelSig.c **** *
 680:.\Generated_Source\PSoC5/ADC_DelSig.c **** * Parameters:
 681:.\Generated_Source\PSoC5/ADC_DelSig.c **** *  None
 682:.\Generated_Source\PSoC5/ADC_DelSig.c **** *
 683:.\Generated_Source\PSoC5/ADC_DelSig.c **** * Return:
 684:.\Generated_Source\PSoC5/ADC_DelSig.c **** *  int8: The LSB of the last ADC conversion.
 685:.\Generated_Source\PSoC5/ADC_DelSig.c **** *
 686:.\Generated_Source\PSoC5/ADC_DelSig.c **** * Global variables:
 687:.\Generated_Source\PSoC5/ADC_DelSig.c **** *  ADC_DelSig_convDone:  Cleared in single sample mode with resolution
 688:.\Generated_Source\PSoC5/ADC_DelSig.c **** *                              above 16 bits
 689:.\Generated_Source\PSoC5/ADC_DelSig.c **** *
 690:.\Generated_Source\PSoC5/ADC_DelSig.c **** *******************************************************************************/
 691:.\Generated_Source\PSoC5/ADC_DelSig.c **** int8 ADC_DelSig_GetResult8( void ) 
 692:.\Generated_Source\PSoC5/ADC_DelSig.c **** {
 693:.\Generated_Source\PSoC5/ADC_DelSig.c ****     int8 result;
 694:.\Generated_Source\PSoC5/ADC_DelSig.c ****     uint8 coherency;
 695:.\Generated_Source\PSoC5/ADC_DelSig.c **** 
 696:.\Generated_Source\PSoC5/ADC_DelSig.c ****     /* Read active coherency configuration */
 697:.\Generated_Source\PSoC5/ADC_DelSig.c ****     coherency = ADC_DelSig_DEC_COHER_REG & ADC_DelSig_DEC_SAMP_KEY_MASK;
 698:.\Generated_Source\PSoC5/ADC_DelSig.c **** 
 699:.\Generated_Source\PSoC5/ADC_DelSig.c ****     result = (int8)ADC_DelSig_DEC_SAMP_REG;
 700:.\Generated_Source\PSoC5/ADC_DelSig.c **** 
 701:.\Generated_Source\PSoC5/ADC_DelSig.c ****     if(coherency == ADC_DelSig_DEC_SAMP_KEY_MID)
 702:.\Generated_Source\PSoC5/ADC_DelSig.c ****     {   /* Dummy read of the middle byte to unlock the coherency */
 703:.\Generated_Source\PSoC5/ADC_DelSig.c ****         (void)ADC_DelSig_DEC_SAMPM_REG;
 704:.\Generated_Source\PSoC5/ADC_DelSig.c ****     }
 705:.\Generated_Source\PSoC5/ADC_DelSig.c ****     else  if(coherency == ADC_DelSig_DEC_SAMP_KEY_HIGH)
 706:.\Generated_Source\PSoC5/ADC_DelSig.c ****     {   /* Dummy read of the MSB byte to unlock the coherency */
 707:.\Generated_Source\PSoC5/ADC_DelSig.c ****         (void)ADC_DelSig_DEC_SAMPH_REG;
 708:.\Generated_Source\PSoC5/ADC_DelSig.c ****     }
 709:.\Generated_Source\PSoC5/ADC_DelSig.c ****     else /*No action required for other coherency */
 710:.\Generated_Source\PSoC5/ADC_DelSig.c ****     {
 711:.\Generated_Source\PSoC5/ADC_DelSig.c ****     }
 712:.\Generated_Source\PSoC5/ADC_DelSig.c ****     /* Clear conversion complete status in Single Sample mode with resolution above 16 bit */
 713:.\Generated_Source\PSoC5/ADC_DelSig.c ****     if(ADC_DelSig_stopConversion != 0u)
 714:.\Generated_Source\PSoC5/ADC_DelSig.c ****     {
 715:.\Generated_Source\PSoC5/ADC_DelSig.c ****         ADC_DelSig_convDone = 0u;
 716:.\Generated_Source\PSoC5/ADC_DelSig.c ****     }
ARM GAS  C:\Users\mitchell\AppData\Local\Temp\ccpqy6v3.s 			page 14


 717:.\Generated_Source\PSoC5/ADC_DelSig.c ****     return (result);
 718:.\Generated_Source\PSoC5/ADC_DelSig.c **** }
 719:.\Generated_Source\PSoC5/ADC_DelSig.c **** 
 720:.\Generated_Source\PSoC5/ADC_DelSig.c **** 
 721:.\Generated_Source\PSoC5/ADC_DelSig.c **** /*******************************************************************************
 722:.\Generated_Source\PSoC5/ADC_DelSig.c **** * Function Name: ADC_DelSig_GetResult16
 723:.\Generated_Source\PSoC5/ADC_DelSig.c **** ********************************************************************************
 724:.\Generated_Source\PSoC5/ADC_DelSig.c **** *
 725:.\Generated_Source\PSoC5/ADC_DelSig.c **** * Summary:
 726:.\Generated_Source\PSoC5/ADC_DelSig.c **** *  Returns a 16-bit result for a conversion with a result that has a
 727:.\Generated_Source\PSoC5/ADC_DelSig.c **** *  resolution of 8 to 16 bits. If the resolution is set greater than 16-bits,
 728:.\Generated_Source\PSoC5/ADC_DelSig.c **** *  it will return the 16 least significant bits of the result. When the ADC
 729:.\Generated_Source\PSoC5/ADC_DelSig.c **** *  is configured for 16-bit single ended mode, the ADC_GetResult32()
 730:.\Generated_Source\PSoC5/ADC_DelSig.c **** *  function should be used instead. This function returns only signed
 731:.\Generated_Source\PSoC5/ADC_DelSig.c **** *  16-bit result, which allows a maximum positive value of 32767, not 65535.
 732:.\Generated_Source\PSoC5/ADC_DelSig.c **** *  This function supports different coherency settings.
 733:.\Generated_Source\PSoC5/ADC_DelSig.c **** *
 734:.\Generated_Source\PSoC5/ADC_DelSig.c **** * Parameters:
 735:.\Generated_Source\PSoC5/ADC_DelSig.c **** *   void
 736:.\Generated_Source\PSoC5/ADC_DelSig.c **** *
 737:.\Generated_Source\PSoC5/ADC_DelSig.c **** * Return:
 738:.\Generated_Source\PSoC5/ADC_DelSig.c **** *  int16:  ADC result.
 739:.\Generated_Source\PSoC5/ADC_DelSig.c **** *
 740:.\Generated_Source\PSoC5/ADC_DelSig.c **** * Global variables:
 741:.\Generated_Source\PSoC5/ADC_DelSig.c **** *  ADC_DelSig_convDone:  Cleared in single sample mode with resolution
 742:.\Generated_Source\PSoC5/ADC_DelSig.c **** *                              above 16 bits
 743:.\Generated_Source\PSoC5/ADC_DelSig.c **** *
 744:.\Generated_Source\PSoC5/ADC_DelSig.c **** *******************************************************************************/
 745:.\Generated_Source\PSoC5/ADC_DelSig.c **** int16 ADC_DelSig_GetResult16(void) 
 746:.\Generated_Source\PSoC5/ADC_DelSig.c **** {
 747:.\Generated_Source\PSoC5/ADC_DelSig.c ****     uint16 result;
 748:.\Generated_Source\PSoC5/ADC_DelSig.c ****     uint8 coherency;
 749:.\Generated_Source\PSoC5/ADC_DelSig.c **** 
 750:.\Generated_Source\PSoC5/ADC_DelSig.c ****     /* Read active coherency configuration */
 751:.\Generated_Source\PSoC5/ADC_DelSig.c ****     coherency = ADC_DelSig_DEC_COHER_REG & ADC_DelSig_DEC_SAMP_KEY_MASK;
 752:.\Generated_Source\PSoC5/ADC_DelSig.c **** 
 753:.\Generated_Source\PSoC5/ADC_DelSig.c ****     if(coherency <= ADC_DelSig_DEC_SAMP_KEY_LOW)
 754:.\Generated_Source\PSoC5/ADC_DelSig.c ****     {   /*  Use default method to read result registers i.e. LSB byte read at the end*/
 755:.\Generated_Source\PSoC5/ADC_DelSig.c ****         #if (CY_PSOC3)
 756:.\Generated_Source\PSoC5/ADC_DelSig.c ****             result = ADC_DelSig_DEC_SAMPM_REG;
 757:.\Generated_Source\PSoC5/ADC_DelSig.c ****             result = (result << 8u) | ADC_DelSig_DEC_SAMP_REG;
 758:.\Generated_Source\PSoC5/ADC_DelSig.c ****         #else
 759:.\Generated_Source\PSoC5/ADC_DelSig.c ****             result = (CY_GET_REG16(ADC_DelSig_DEC_SAMP_16B_PTR));
 760:.\Generated_Source\PSoC5/ADC_DelSig.c ****         #endif /* CY_PSOC3 */
 761:.\Generated_Source\PSoC5/ADC_DelSig.c ****     }
 762:.\Generated_Source\PSoC5/ADC_DelSig.c ****     else /* MID or HIGH */
 763:.\Generated_Source\PSoC5/ADC_DelSig.c ****     {   /* Read middle byte at the end */
 764:.\Generated_Source\PSoC5/ADC_DelSig.c ****         #if (CY_PSOC3)
 765:.\Generated_Source\PSoC5/ADC_DelSig.c ****             result = (CY_GET_REG16(ADC_DelSig_DEC_SAMP_16B_PTR));
 766:.\Generated_Source\PSoC5/ADC_DelSig.c ****         #else
 767:.\Generated_Source\PSoC5/ADC_DelSig.c ****             result = ADC_DelSig_DEC_SAMP_REG;
 768:.\Generated_Source\PSoC5/ADC_DelSig.c ****             result |=  (uint16)((uint16)ADC_DelSig_DEC_SAMPM_REG << 8u);
 769:.\Generated_Source\PSoC5/ADC_DelSig.c ****         #endif /* CY_PSOC3 */
 770:.\Generated_Source\PSoC5/ADC_DelSig.c ****         if(coherency == ADC_DelSig_DEC_SAMP_KEY_HIGH)
 771:.\Generated_Source\PSoC5/ADC_DelSig.c ****         {   /* Dummy read of the MSB byte to unlock the coherency */
 772:.\Generated_Source\PSoC5/ADC_DelSig.c ****             (void)ADC_DelSig_DEC_SAMPH_REG;
 773:.\Generated_Source\PSoC5/ADC_DelSig.c ****         }
ARM GAS  C:\Users\mitchell\AppData\Local\Temp\ccpqy6v3.s 			page 15


 774:.\Generated_Source\PSoC5/ADC_DelSig.c ****     }
 775:.\Generated_Source\PSoC5/ADC_DelSig.c ****     /* Clear conversion complete status in Single Sample mode with resolution above 16 bit */
 776:.\Generated_Source\PSoC5/ADC_DelSig.c ****     if(ADC_DelSig_stopConversion != 0u)
 777:.\Generated_Source\PSoC5/ADC_DelSig.c ****     {
 778:.\Generated_Source\PSoC5/ADC_DelSig.c ****         ADC_DelSig_convDone = 0u;
 779:.\Generated_Source\PSoC5/ADC_DelSig.c ****     }
 780:.\Generated_Source\PSoC5/ADC_DelSig.c **** 
 781:.\Generated_Source\PSoC5/ADC_DelSig.c ****     return ((int16)result);
 782:.\Generated_Source\PSoC5/ADC_DelSig.c **** }
 783:.\Generated_Source\PSoC5/ADC_DelSig.c **** 
 784:.\Generated_Source\PSoC5/ADC_DelSig.c **** 
 785:.\Generated_Source\PSoC5/ADC_DelSig.c **** /*******************************************************************************
 786:.\Generated_Source\PSoC5/ADC_DelSig.c **** * Function Name: ADC_DelSig_GetResult32
 787:.\Generated_Source\PSoC5/ADC_DelSig.c **** ********************************************************************************
 788:.\Generated_Source\PSoC5/ADC_DelSig.c **** *
 789:.\Generated_Source\PSoC5/ADC_DelSig.c **** * Summary:
 790:.\Generated_Source\PSoC5/ADC_DelSig.c **** *  Returns a 32-bit result for a conversion with a result that has a
 791:.\Generated_Source\PSoC5/ADC_DelSig.c **** *  resolution of 8 to 20 bits.
 792:.\Generated_Source\PSoC5/ADC_DelSig.c **** *  This function supports different coherency settings.
 793:.\Generated_Source\PSoC5/ADC_DelSig.c **** *
 794:.\Generated_Source\PSoC5/ADC_DelSig.c **** * Parameters:
 795:.\Generated_Source\PSoC5/ADC_DelSig.c **** *  None
 796:.\Generated_Source\PSoC5/ADC_DelSig.c **** *
 797:.\Generated_Source\PSoC5/ADC_DelSig.c **** * Return:
 798:.\Generated_Source\PSoC5/ADC_DelSig.c **** *  int32: Result of the last ADC conversion.
 799:.\Generated_Source\PSoC5/ADC_DelSig.c **** *
 800:.\Generated_Source\PSoC5/ADC_DelSig.c **** * Global variables:
 801:.\Generated_Source\PSoC5/ADC_DelSig.c **** *  ADC_DelSig_convDone:  Cleared in single sample mode with resolution
 802:.\Generated_Source\PSoC5/ADC_DelSig.c **** *                              above 16 bits
 803:.\Generated_Source\PSoC5/ADC_DelSig.c **** *
 804:.\Generated_Source\PSoC5/ADC_DelSig.c **** *******************************************************************************/
 805:.\Generated_Source\PSoC5/ADC_DelSig.c **** int32 ADC_DelSig_GetResult32(void) 
 806:.\Generated_Source\PSoC5/ADC_DelSig.c **** {
 807:.\Generated_Source\PSoC5/ADC_DelSig.c ****     uint32 result;
 808:.\Generated_Source\PSoC5/ADC_DelSig.c ****     uint8 coherency;
 809:.\Generated_Source\PSoC5/ADC_DelSig.c ****     #if (CY_PSOC3)
 810:.\Generated_Source\PSoC5/ADC_DelSig.c **** 	    uint16 tmp;
 811:.\Generated_Source\PSoC5/ADC_DelSig.c ****     #endif /* CY_PSOC3 */
 812:.\Generated_Source\PSoC5/ADC_DelSig.c **** 
 813:.\Generated_Source\PSoC5/ADC_DelSig.c ****     /* Read active coherency configuration */
 814:.\Generated_Source\PSoC5/ADC_DelSig.c ****     coherency = ADC_DelSig_DEC_COHER_REG & ADC_DelSig_DEC_SAMP_KEY_MASK;
 815:.\Generated_Source\PSoC5/ADC_DelSig.c **** 
 816:.\Generated_Source\PSoC5/ADC_DelSig.c ****     if(coherency <= ADC_DelSig_DEC_SAMP_KEY_LOW)
 817:.\Generated_Source\PSoC5/ADC_DelSig.c ****     {   /*  Use default method to read result registers i.e. LSB byte read at the end*/
 818:.\Generated_Source\PSoC5/ADC_DelSig.c ****         #if (CY_PSOC3)
 819:.\Generated_Source\PSoC5/ADC_DelSig.c ****             result = ADC_DelSig_DEC_SAMPH_REG;
 820:.\Generated_Source\PSoC5/ADC_DelSig.c ****             if((result & 0x80u) != 0u)
 821:.\Generated_Source\PSoC5/ADC_DelSig.c ****             {   /* Sign extend */
 822:.\Generated_Source\PSoC5/ADC_DelSig.c ****                 result |= 0xFF00u;
 823:.\Generated_Source\PSoC5/ADC_DelSig.c ****             }
 824:.\Generated_Source\PSoC5/ADC_DelSig.c ****             result = (result << 8u) | ADC_DelSig_DEC_SAMPM_REG;
 825:.\Generated_Source\PSoC5/ADC_DelSig.c ****             result = (result << 8u) | ADC_DelSig_DEC_SAMP_REG;
 826:.\Generated_Source\PSoC5/ADC_DelSig.c ****         #else
 827:.\Generated_Source\PSoC5/ADC_DelSig.c ****             result = CY_GET_REG16(ADC_DelSig_DEC_SAMPH_16B_PTR);
 828:.\Generated_Source\PSoC5/ADC_DelSig.c ****             result = (result << 16u) | (CY_GET_REG16(ADC_DelSig_DEC_SAMP_16B_PTR));
 829:.\Generated_Source\PSoC5/ADC_DelSig.c ****         #endif /* CY_PSOC3 */
 830:.\Generated_Source\PSoC5/ADC_DelSig.c ****     }
ARM GAS  C:\Users\mitchell\AppData\Local\Temp\ccpqy6v3.s 			page 16


 831:.\Generated_Source\PSoC5/ADC_DelSig.c ****     else if(coherency == ADC_DelSig_DEC_SAMP_KEY_MID)
 832:.\Generated_Source\PSoC5/ADC_DelSig.c ****     {   /* Read middle byte at the end */
 833:.\Generated_Source\PSoC5/ADC_DelSig.c ****         #if (CY_PSOC3)
 834:.\Generated_Source\PSoC5/ADC_DelSig.c ****             result = ADC_DelSig_DEC_SAMPH_REG;
 835:.\Generated_Source\PSoC5/ADC_DelSig.c ****             if((result & 0x80u) != 0u)
 836:.\Generated_Source\PSoC5/ADC_DelSig.c ****             {   /* Sign extend */
 837:.\Generated_Source\PSoC5/ADC_DelSig.c ****                 result |= 0xFF00u;
 838:.\Generated_Source\PSoC5/ADC_DelSig.c ****             }
 839:.\Generated_Source\PSoC5/ADC_DelSig.c ****             result = (result << 16u) | (CY_GET_REG16(ADC_DelSig_DEC_SAMP_16B_PTR));
 840:.\Generated_Source\PSoC5/ADC_DelSig.c ****         #else
 841:.\Generated_Source\PSoC5/ADC_DelSig.c ****             result = CY_GET_REG16(ADC_DelSig_DEC_SAMPH_16B_PTR);
 842:.\Generated_Source\PSoC5/ADC_DelSig.c ****             result = (result << 16u) | ADC_DelSig_DEC_SAMP_REG;
 843:.\Generated_Source\PSoC5/ADC_DelSig.c ****             result |=  (uint32)((uint32)ADC_DelSig_DEC_SAMPM_REG << 8u);
 844:.\Generated_Source\PSoC5/ADC_DelSig.c ****         #endif /* CY_PSOC3 */
 845:.\Generated_Source\PSoC5/ADC_DelSig.c ****     }
 846:.\Generated_Source\PSoC5/ADC_DelSig.c ****     else /*ADC_DelSig_DEC_SAMP_KEY_HIGH */
 847:.\Generated_Source\PSoC5/ADC_DelSig.c ****     {
 848:.\Generated_Source\PSoC5/ADC_DelSig.c ****         /* Read MSB byte at the end */
 849:.\Generated_Source\PSoC5/ADC_DelSig.c ****         #if (CY_PSOC3)
 850:.\Generated_Source\PSoC5/ADC_DelSig.c ****             result = CY_GET_REG16(ADC_DelSig_DEC_SAMP_16B_PTR);
 851:.\Generated_Source\PSoC5/ADC_DelSig.c **** 			tmp = ADC_DelSig_DEC_SAMPH_REG;
 852:.\Generated_Source\PSoC5/ADC_DelSig.c ****             if((tmp & 0x80u) != 0u)
 853:.\Generated_Source\PSoC5/ADC_DelSig.c ****             {   /* Sign extend */
 854:.\Generated_Source\PSoC5/ADC_DelSig.c ****                 tmp |= 0xFF00u;
 855:.\Generated_Source\PSoC5/ADC_DelSig.c ****             }
 856:.\Generated_Source\PSoC5/ADC_DelSig.c ****             result |= (uint32)tmp << 16u;
 857:.\Generated_Source\PSoC5/ADC_DelSig.c ****         #else
 858:.\Generated_Source\PSoC5/ADC_DelSig.c ****             result = CY_GET_REG16(ADC_DelSig_DEC_SAMP_16B_PTR);
 859:.\Generated_Source\PSoC5/ADC_DelSig.c ****             result |= (uint32)((uint32)CY_GET_REG16(ADC_DelSig_DEC_SAMPH_16B_PTR) << 16u);
 860:.\Generated_Source\PSoC5/ADC_DelSig.c ****         #endif /* CY_PSOC3 */
 861:.\Generated_Source\PSoC5/ADC_DelSig.c ****     }
 862:.\Generated_Source\PSoC5/ADC_DelSig.c ****     /* Clear conversion complete status in Single Sample mode with resolution above 16 bit */
 863:.\Generated_Source\PSoC5/ADC_DelSig.c ****     if(ADC_DelSig_stopConversion != 0u)
 864:.\Generated_Source\PSoC5/ADC_DelSig.c ****     {
 865:.\Generated_Source\PSoC5/ADC_DelSig.c ****         ADC_DelSig_convDone = 0u;
 866:.\Generated_Source\PSoC5/ADC_DelSig.c ****     }
 867:.\Generated_Source\PSoC5/ADC_DelSig.c **** 
 868:.\Generated_Source\PSoC5/ADC_DelSig.c ****     return ((int32)result);
 869:.\Generated_Source\PSoC5/ADC_DelSig.c **** }
 870:.\Generated_Source\PSoC5/ADC_DelSig.c **** 
 871:.\Generated_Source\PSoC5/ADC_DelSig.c **** 
 872:.\Generated_Source\PSoC5/ADC_DelSig.c **** /*******************************************************************************
 873:.\Generated_Source\PSoC5/ADC_DelSig.c **** * Function Name: ADC_DelSig_SetOffset
 874:.\Generated_Source\PSoC5/ADC_DelSig.c **** ********************************************************************************
 875:.\Generated_Source\PSoC5/ADC_DelSig.c **** *
 876:.\Generated_Source\PSoC5/ADC_DelSig.c **** * Summary:
 877:.\Generated_Source\PSoC5/ADC_DelSig.c **** *  Sets the ADC offset which is used by the functions ADC_CountsTo_uVolts, 
 878:.\Generated_Source\PSoC5/ADC_DelSig.c **** *  ADC_CountsTo_mVolts, and ADC_CountsTo_Volts to subtract the offset from the 
 879:.\Generated_Source\PSoC5/ADC_DelSig.c **** *  given reading before calculating the voltage conversion.
 880:.\Generated_Source\PSoC5/ADC_DelSig.c **** *
 881:.\Generated_Source\PSoC5/ADC_DelSig.c **** * Parameters:
 882:.\Generated_Source\PSoC5/ADC_DelSig.c **** *  int32:  This value is a measured value when the inputs are shorted or 
 883:.\Generated_Source\PSoC5/ADC_DelSig.c **** *          connected to the same input voltage.
 884:.\Generated_Source\PSoC5/ADC_DelSig.c **** *
 885:.\Generated_Source\PSoC5/ADC_DelSig.c **** * Return:
 886:.\Generated_Source\PSoC5/ADC_DelSig.c **** *  None
 887:.\Generated_Source\PSoC5/ADC_DelSig.c **** *
ARM GAS  C:\Users\mitchell\AppData\Local\Temp\ccpqy6v3.s 			page 17


 888:.\Generated_Source\PSoC5/ADC_DelSig.c **** * Global variables:
 889:.\Generated_Source\PSoC5/ADC_DelSig.c **** *  ADC_DelSig_Offset:  Modified to set the user provided offset. This
 890:.\Generated_Source\PSoC5/ADC_DelSig.c **** *  variable is used for offset calibration purpose.
 891:.\Generated_Source\PSoC5/ADC_DelSig.c **** *
 892:.\Generated_Source\PSoC5/ADC_DelSig.c **** * Side Effects:
 893:.\Generated_Source\PSoC5/ADC_DelSig.c **** *  Affects the ADC_DelSig_CountsTo_Volts,
 894:.\Generated_Source\PSoC5/ADC_DelSig.c **** *  ADC_DelSig_CountsTo_mVolts, ADC_DelSig_CountsTo_uVolts functions
 895:.\Generated_Source\PSoC5/ADC_DelSig.c **** *  by subtracting the given offset.
 896:.\Generated_Source\PSoC5/ADC_DelSig.c **** *
 897:.\Generated_Source\PSoC5/ADC_DelSig.c **** *******************************************************************************/
 898:.\Generated_Source\PSoC5/ADC_DelSig.c **** void ADC_DelSig_SetOffset(int32 offset) 
 899:.\Generated_Source\PSoC5/ADC_DelSig.c **** {
 900:.\Generated_Source\PSoC5/ADC_DelSig.c **** 
 901:.\Generated_Source\PSoC5/ADC_DelSig.c ****     ADC_DelSig_Offset = offset;
 902:.\Generated_Source\PSoC5/ADC_DelSig.c **** }
 903:.\Generated_Source\PSoC5/ADC_DelSig.c **** 
 904:.\Generated_Source\PSoC5/ADC_DelSig.c **** 
 905:.\Generated_Source\PSoC5/ADC_DelSig.c **** /*******************************************************************************
 906:.\Generated_Source\PSoC5/ADC_DelSig.c **** * Function Name: ADC_DelSig_SetGain
 907:.\Generated_Source\PSoC5/ADC_DelSig.c **** ********************************************************************************
 908:.\Generated_Source\PSoC5/ADC_DelSig.c **** *
 909:.\Generated_Source\PSoC5/ADC_DelSig.c **** * Summary:
 910:.\Generated_Source\PSoC5/ADC_DelSig.c **** *  Sets the ADC gain in counts per volt for the voltage conversion
 911:.\Generated_Source\PSoC5/ADC_DelSig.c **** *  functions below. This value is set by default by the reference and
 912:.\Generated_Source\PSoC5/ADC_DelSig.c **** *  input range settings. It should only be used to further calibrate the
 913:.\Generated_Source\PSoC5/ADC_DelSig.c **** *  ADC with a known input or if an external reference is used. This
 914:.\Generated_Source\PSoC5/ADC_DelSig.c **** *  function may also be used to calibrate an entire signal chain, not
 915:.\Generated_Source\PSoC5/ADC_DelSig.c **** *  just the ADC.
 916:.\Generated_Source\PSoC5/ADC_DelSig.c **** *
 917:.\Generated_Source\PSoC5/ADC_DelSig.c **** * Parameters:
 918:.\Generated_Source\PSoC5/ADC_DelSig.c **** *  int32: ADC gain in counts per volt.
 919:.\Generated_Source\PSoC5/ADC_DelSig.c **** *
 920:.\Generated_Source\PSoC5/ADC_DelSig.c **** * Return:
 921:.\Generated_Source\PSoC5/ADC_DelSig.c **** *  None
 922:.\Generated_Source\PSoC5/ADC_DelSig.c **** *
 923:.\Generated_Source\PSoC5/ADC_DelSig.c **** * Global variables:
 924:.\Generated_Source\PSoC5/ADC_DelSig.c **** *  ADC_DelSig_CountsPerVolt:  modified to set the ADC gain in counts
 925:.\Generated_Source\PSoC5/ADC_DelSig.c **** *   per volt.
 926:.\Generated_Source\PSoC5/ADC_DelSig.c **** *
 927:.\Generated_Source\PSoC5/ADC_DelSig.c **** * Side Effects:
 928:.\Generated_Source\PSoC5/ADC_DelSig.c **** *  Affects the ADC_DelSig_CountsTo_Volts,
 929:.\Generated_Source\PSoC5/ADC_DelSig.c **** *  ADC_DelSig_CountsTo_mVolts, ADC_DelSig_CountsTo_uVolts functions
 930:.\Generated_Source\PSoC5/ADC_DelSig.c **** *  supplying the correct conversion between ADC counts and voltage.
 931:.\Generated_Source\PSoC5/ADC_DelSig.c **** *
 932:.\Generated_Source\PSoC5/ADC_DelSig.c **** *******************************************************************************/
 933:.\Generated_Source\PSoC5/ADC_DelSig.c **** void ADC_DelSig_SetGain(int32 adcGain) 
 934:.\Generated_Source\PSoC5/ADC_DelSig.c **** {
 935:.\Generated_Source\PSoC5/ADC_DelSig.c ****     ADC_DelSig_CountsPerVolt = adcGain;
 936:.\Generated_Source\PSoC5/ADC_DelSig.c **** }
 937:.\Generated_Source\PSoC5/ADC_DelSig.c **** 
 938:.\Generated_Source\PSoC5/ADC_DelSig.c **** 
 939:.\Generated_Source\PSoC5/ADC_DelSig.c **** /*******************************************************************************
 940:.\Generated_Source\PSoC5/ADC_DelSig.c **** * Function Name: ADC_DelSig_CountsTo_mVolts
 941:.\Generated_Source\PSoC5/ADC_DelSig.c **** ********************************************************************************
 942:.\Generated_Source\PSoC5/ADC_DelSig.c **** *
 943:.\Generated_Source\PSoC5/ADC_DelSig.c **** * Summary:
 944:.\Generated_Source\PSoC5/ADC_DelSig.c **** *  Converts the ADC counts output to mVolts as a 16-bit integer. For
ARM GAS  C:\Users\mitchell\AppData\Local\Temp\ccpqy6v3.s 			page 18


 945:.\Generated_Source\PSoC5/ADC_DelSig.c **** *  example, if the ADC measured 0.534 volts, the return value would
 946:.\Generated_Source\PSoC5/ADC_DelSig.c **** *  be 534 mVolts.
 947:.\Generated_Source\PSoC5/ADC_DelSig.c **** *
 948:.\Generated_Source\PSoC5/ADC_DelSig.c **** * Parameters:
 949:.\Generated_Source\PSoC5/ADC_DelSig.c **** *  int32: adcCounts Result from the ADC conversion.
 950:.\Generated_Source\PSoC5/ADC_DelSig.c **** *
 951:.\Generated_Source\PSoC5/ADC_DelSig.c **** * Return:
 952:.\Generated_Source\PSoC5/ADC_DelSig.c **** *  int16:  Result in mVolts
 953:.\Generated_Source\PSoC5/ADC_DelSig.c **** *
 954:.\Generated_Source\PSoC5/ADC_DelSig.c **** * Global variables:
 955:.\Generated_Source\PSoC5/ADC_DelSig.c **** *  ADC_DelSig_CountsPerVolt:  used to convert ADC counts to mVolts.
 956:.\Generated_Source\PSoC5/ADC_DelSig.c **** *  ADC_DelSig_Offset:  Used as the offset while converting ADC counts
 957:.\Generated_Source\PSoC5/ADC_DelSig.c **** *   to mVolts.
 958:.\Generated_Source\PSoC5/ADC_DelSig.c **** *
 959:.\Generated_Source\PSoC5/ADC_DelSig.c **** *******************************************************************************/
 960:.\Generated_Source\PSoC5/ADC_DelSig.c **** int16 ADC_DelSig_CountsTo_mVolts(int32 adcCounts) 
 961:.\Generated_Source\PSoC5/ADC_DelSig.c **** {
 962:.\Generated_Source\PSoC5/ADC_DelSig.c **** 
 963:.\Generated_Source\PSoC5/ADC_DelSig.c ****     int16 mVolts;
 964:.\Generated_Source\PSoC5/ADC_DelSig.c **** 
 965:.\Generated_Source\PSoC5/ADC_DelSig.c ****     /* Convert adcCounts to the right align if left option selected */
 966:.\Generated_Source\PSoC5/ADC_DelSig.c ****     #if(ADC_DelSig_CFG1_DEC_DIV != 0)
 967:.\Generated_Source\PSoC5/ADC_DelSig.c ****         if(ADC_DelSig_Config == ADC_DelSig_CFG1)
 968:.\Generated_Source\PSoC5/ADC_DelSig.c ****         {
 969:.\Generated_Source\PSoC5/ADC_DelSig.c ****             adcCounts /= ADC_DelSig_CFG1_DEC_DIV;
 970:.\Generated_Source\PSoC5/ADC_DelSig.c ****         }
 971:.\Generated_Source\PSoC5/ADC_DelSig.c ****     #endif /* ADC_DelSig_CFG1_DEC_DIV */
 972:.\Generated_Source\PSoC5/ADC_DelSig.c ****     #if((ADC_DelSig_CFG2_DEC_DIV != 0) && (ADC_DelSig_DEFAULT_NUM_CONFIGS > 1))
 973:.\Generated_Source\PSoC5/ADC_DelSig.c ****         if(ADC_DelSig_Config == ADC_DelSig_CFG2)
 974:.\Generated_Source\PSoC5/ADC_DelSig.c ****         {
 975:.\Generated_Source\PSoC5/ADC_DelSig.c ****             adcCounts /= ADC_DelSig_CFG2_DEC_DIV;
 976:.\Generated_Source\PSoC5/ADC_DelSig.c ****         }
 977:.\Generated_Source\PSoC5/ADC_DelSig.c ****     #endif /* ADC_DelSig_CFG2_DEC_DIV */
 978:.\Generated_Source\PSoC5/ADC_DelSig.c ****     #if((ADC_DelSig_CFG3_DEC_DIV != 0) && (ADC_DelSig_DEFAULT_NUM_CONFIGS > 2))
 979:.\Generated_Source\PSoC5/ADC_DelSig.c ****         if(ADC_DelSig_Config == ADC_DelSig_CFG3)
 980:.\Generated_Source\PSoC5/ADC_DelSig.c ****         {
 981:.\Generated_Source\PSoC5/ADC_DelSig.c ****             adcCounts /= ADC_DelSig_CFG3_DEC_DIV;
 982:.\Generated_Source\PSoC5/ADC_DelSig.c ****         }
 983:.\Generated_Source\PSoC5/ADC_DelSig.c ****     #endif /* ADC_DelSig_CFG2_DEC_DIV */
 984:.\Generated_Source\PSoC5/ADC_DelSig.c ****     #if((ADC_DelSig_CFG4_DEC_DIV != 0) && (ADC_DelSig_DEFAULT_NUM_CONFIGS > 3))
 985:.\Generated_Source\PSoC5/ADC_DelSig.c ****         if(ADC_DelSig_Config == ADC_DelSig_CFG4)
 986:.\Generated_Source\PSoC5/ADC_DelSig.c ****         {
 987:.\Generated_Source\PSoC5/ADC_DelSig.c ****             adcCounts /= ADC_DelSig_CFG4_DEC_DIV;
 988:.\Generated_Source\PSoC5/ADC_DelSig.c ****         }
 989:.\Generated_Source\PSoC5/ADC_DelSig.c ****     #endif /* ADC_DelSig_CFG2_DEC_DIV */
 990:.\Generated_Source\PSoC5/ADC_DelSig.c **** 
 991:.\Generated_Source\PSoC5/ADC_DelSig.c ****     /* Subtract ADC offset */
 992:.\Generated_Source\PSoC5/ADC_DelSig.c ****     adcCounts -= ADC_DelSig_Offset;
 993:.\Generated_Source\PSoC5/ADC_DelSig.c **** 
 994:.\Generated_Source\PSoC5/ADC_DelSig.c ****     mVolts = (int16)(( adcCounts * ADC_DelSig_1MV_COUNTS ) / ADC_DelSig_CountsPerVolt) ;
 995:.\Generated_Source\PSoC5/ADC_DelSig.c **** 
 996:.\Generated_Source\PSoC5/ADC_DelSig.c ****     return(mVolts);
 997:.\Generated_Source\PSoC5/ADC_DelSig.c **** }
 998:.\Generated_Source\PSoC5/ADC_DelSig.c **** 
 999:.\Generated_Source\PSoC5/ADC_DelSig.c **** 
1000:.\Generated_Source\PSoC5/ADC_DelSig.c **** /*******************************************************************************
1001:.\Generated_Source\PSoC5/ADC_DelSig.c **** * Function Name: ADC_DelSig_CountsTo_Volts
ARM GAS  C:\Users\mitchell\AppData\Local\Temp\ccpqy6v3.s 			page 19


1002:.\Generated_Source\PSoC5/ADC_DelSig.c **** ********************************************************************************
1003:.\Generated_Source\PSoC5/ADC_DelSig.c **** *
1004:.\Generated_Source\PSoC5/ADC_DelSig.c **** * Summary:
1005:.\Generated_Source\PSoC5/ADC_DelSig.c **** *  Converts the ADC output to Volts as a floating point number. For
1006:.\Generated_Source\PSoC5/ADC_DelSig.c **** *  example, if the ADC measure a voltage of 1.2345 Volts, the
1007:.\Generated_Source\PSoC5/ADC_DelSig.c **** *  returned result would be +1.2345 Volts.
1008:.\Generated_Source\PSoC5/ADC_DelSig.c **** *
1009:.\Generated_Source\PSoC5/ADC_DelSig.c **** * Parameters:
1010:.\Generated_Source\PSoC5/ADC_DelSig.c **** *  int32 adcCounts:  Result from the ADC conversion.
1011:.\Generated_Source\PSoC5/ADC_DelSig.c **** *
1012:.\Generated_Source\PSoC5/ADC_DelSig.c **** * Return:
1013:.\Generated_Source\PSoC5/ADC_DelSig.c **** *  float32: Result in Volts
1014:.\Generated_Source\PSoC5/ADC_DelSig.c **** *
1015:.\Generated_Source\PSoC5/ADC_DelSig.c **** * Global variables:
1016:.\Generated_Source\PSoC5/ADC_DelSig.c **** *  ADC_DelSig_CountsPerVolt:  used to convert to Volts.
1017:.\Generated_Source\PSoC5/ADC_DelSig.c **** *  ADC_DelSig_Offset:  Used as the offset while converting ADC counts
1018:.\Generated_Source\PSoC5/ADC_DelSig.c **** *   to Volts.
1019:.\Generated_Source\PSoC5/ADC_DelSig.c **** *
1020:.\Generated_Source\PSoC5/ADC_DelSig.c **** *******************************************************************************/
1021:.\Generated_Source\PSoC5/ADC_DelSig.c **** float32 ADC_DelSig_CountsTo_Volts(int32 adcCounts) 
1022:.\Generated_Source\PSoC5/ADC_DelSig.c **** {
1023:.\Generated_Source\PSoC5/ADC_DelSig.c **** 
1024:.\Generated_Source\PSoC5/ADC_DelSig.c ****     float32 Volts;
1025:.\Generated_Source\PSoC5/ADC_DelSig.c **** 
1026:.\Generated_Source\PSoC5/ADC_DelSig.c ****     /* Convert adcCounts to the right align if left option selected */
1027:.\Generated_Source\PSoC5/ADC_DelSig.c ****     #if(ADC_DelSig_CFG1_DEC_DIV != 0)
1028:.\Generated_Source\PSoC5/ADC_DelSig.c ****         if(ADC_DelSig_Config == ADC_DelSig_CFG1)
1029:.\Generated_Source\PSoC5/ADC_DelSig.c ****         {
1030:.\Generated_Source\PSoC5/ADC_DelSig.c ****             adcCounts /= ADC_DelSig_CFG1_DEC_DIV;
1031:.\Generated_Source\PSoC5/ADC_DelSig.c ****         }
1032:.\Generated_Source\PSoC5/ADC_DelSig.c ****     #endif /* ADC_DelSig_CFG1_DEC_DIV */
1033:.\Generated_Source\PSoC5/ADC_DelSig.c ****     #if((ADC_DelSig_CFG2_DEC_DIV != 0) && (ADC_DelSig_DEFAULT_NUM_CONFIGS > 1))
1034:.\Generated_Source\PSoC5/ADC_DelSig.c ****         if(ADC_DelSig_Config == ADC_DelSig_CFG2)
1035:.\Generated_Source\PSoC5/ADC_DelSig.c ****         {
1036:.\Generated_Source\PSoC5/ADC_DelSig.c ****             adcCounts /= ADC_DelSig_CFG2_DEC_DIV;
1037:.\Generated_Source\PSoC5/ADC_DelSig.c ****         }
1038:.\Generated_Source\PSoC5/ADC_DelSig.c ****     #endif /* ADC_DelSig_CFG2_DEC_DIV */
1039:.\Generated_Source\PSoC5/ADC_DelSig.c ****     #if((ADC_DelSig_CFG3_DEC_DIV != 0) && (ADC_DelSig_DEFAULT_NUM_CONFIGS > 2))
1040:.\Generated_Source\PSoC5/ADC_DelSig.c ****         if(ADC_DelSig_Config == ADC_DelSig_CFG3)
1041:.\Generated_Source\PSoC5/ADC_DelSig.c ****         {
1042:.\Generated_Source\PSoC5/ADC_DelSig.c ****             adcCounts /= ADC_DelSig_CFG3_DEC_DIV;
1043:.\Generated_Source\PSoC5/ADC_DelSig.c ****         }
1044:.\Generated_Source\PSoC5/ADC_DelSig.c ****     #endif /* ADC_DelSig_CFG2_DEC_DIV */
1045:.\Generated_Source\PSoC5/ADC_DelSig.c ****     #if((ADC_DelSig_CFG4_DEC_DIV != 0) && (ADC_DelSig_DEFAULT_NUM_CONFIGS > 3))
1046:.\Generated_Source\PSoC5/ADC_DelSig.c ****         if(ADC_DelSig_Config == ADC_DelSig_CFG4)
1047:.\Generated_Source\PSoC5/ADC_DelSig.c ****         {
1048:.\Generated_Source\PSoC5/ADC_DelSig.c ****             adcCounts /= ADC_DelSig_CFG4_DEC_DIV;
1049:.\Generated_Source\PSoC5/ADC_DelSig.c ****         }
1050:.\Generated_Source\PSoC5/ADC_DelSig.c ****     #endif /* ADC_DelSig_CFG2_DEC_DIV */
1051:.\Generated_Source\PSoC5/ADC_DelSig.c **** 
1052:.\Generated_Source\PSoC5/ADC_DelSig.c ****     /* Subtract ADC offset */
1053:.\Generated_Source\PSoC5/ADC_DelSig.c ****     adcCounts -= ADC_DelSig_Offset;
1054:.\Generated_Source\PSoC5/ADC_DelSig.c **** 
1055:.\Generated_Source\PSoC5/ADC_DelSig.c ****     Volts = (float32)adcCounts / (float32)ADC_DelSig_CountsPerVolt;
1056:.\Generated_Source\PSoC5/ADC_DelSig.c **** 
1057:.\Generated_Source\PSoC5/ADC_DelSig.c ****     return( Volts );
1058:.\Generated_Source\PSoC5/ADC_DelSig.c **** }
ARM GAS  C:\Users\mitchell\AppData\Local\Temp\ccpqy6v3.s 			page 20


1059:.\Generated_Source\PSoC5/ADC_DelSig.c **** 
1060:.\Generated_Source\PSoC5/ADC_DelSig.c **** 
1061:.\Generated_Source\PSoC5/ADC_DelSig.c **** /*******************************************************************************
1062:.\Generated_Source\PSoC5/ADC_DelSig.c **** * Function Name: ADC_DelSig_CountsTo_uVolts
1063:.\Generated_Source\PSoC5/ADC_DelSig.c **** ********************************************************************************
1064:.\Generated_Source\PSoC5/ADC_DelSig.c **** *
1065:.\Generated_Source\PSoC5/ADC_DelSig.c **** * Summary:
1066:.\Generated_Source\PSoC5/ADC_DelSig.c **** *  Converts the ADC output to uVolts as a 32-bit integer. For example,
1067:.\Generated_Source\PSoC5/ADC_DelSig.c **** *  if the ADC measured -0.02345 Volts, the return value would be -23450 uVolts.
1068:.\Generated_Source\PSoC5/ADC_DelSig.c **** *
1069:.\Generated_Source\PSoC5/ADC_DelSig.c **** * Parameters:
1070:.\Generated_Source\PSoC5/ADC_DelSig.c **** *  int32 adcCounts: Result from the ADC conversion.
1071:.\Generated_Source\PSoC5/ADC_DelSig.c **** *
1072:.\Generated_Source\PSoC5/ADC_DelSig.c **** * Return:
1073:.\Generated_Source\PSoC5/ADC_DelSig.c **** *  int32:  Result in uVolts
1074:.\Generated_Source\PSoC5/ADC_DelSig.c **** *
1075:.\Generated_Source\PSoC5/ADC_DelSig.c **** * Global variables:
1076:.\Generated_Source\PSoC5/ADC_DelSig.c **** *  ADC_DelSig_CountsPerVolt:  used to convert ADC counts to mVolts.
1077:.\Generated_Source\PSoC5/ADC_DelSig.c **** *  ADC_DelSig_Offset:  Used as the offset while converting ADC counts
1078:.\Generated_Source\PSoC5/ADC_DelSig.c **** *   to mVolts.
1079:.\Generated_Source\PSoC5/ADC_DelSig.c **** *
1080:.\Generated_Source\PSoC5/ADC_DelSig.c **** * Theory:
1081:.\Generated_Source\PSoC5/ADC_DelSig.c **** *  Care must be taken to not exceed the maximum value for a 31 bit signed
1082:.\Generated_Source\PSoC5/ADC_DelSig.c **** *  number in the conversion to uVolts and at the same time not lose resolution.
1083:.\Generated_Source\PSoC5/ADC_DelSig.c **** *
1084:.\Generated_Source\PSoC5/ADC_DelSig.c **** *  uVolts = ((A * adcCounts) / ((int32)ADC_DelSig_CountsPerVolt / B));
1085:.\Generated_Source\PSoC5/ADC_DelSig.c **** *
1086:.\Generated_Source\PSoC5/ADC_DelSig.c **** *******************************************************************************/
1087:.\Generated_Source\PSoC5/ADC_DelSig.c **** int32 ADC_DelSig_CountsTo_uVolts(int32 adcCounts) 
1088:.\Generated_Source\PSoC5/ADC_DelSig.c **** {
1089:.\Generated_Source\PSoC5/ADC_DelSig.c **** 
1090:.\Generated_Source\PSoC5/ADC_DelSig.c ****     int32 uVolts;
1091:.\Generated_Source\PSoC5/ADC_DelSig.c ****     int32 coefA;
1092:.\Generated_Source\PSoC5/ADC_DelSig.c ****     int32 coefB;
1093:.\Generated_Source\PSoC5/ADC_DelSig.c ****     uint8 resolution;
1094:.\Generated_Source\PSoC5/ADC_DelSig.c **** 
1095:.\Generated_Source\PSoC5/ADC_DelSig.c ****     /* Set the resolution based on the configuration */
1096:.\Generated_Source\PSoC5/ADC_DelSig.c ****     /* Convert adcCounts to the right align if left option selected */
1097:.\Generated_Source\PSoC5/ADC_DelSig.c ****     if (ADC_DelSig_Config == ADC_DelSig_CFG1)
1098:.\Generated_Source\PSoC5/ADC_DelSig.c ****     {
1099:.\Generated_Source\PSoC5/ADC_DelSig.c ****         resolution = ADC_DelSig_CFG1_RESOLUTION;
1100:.\Generated_Source\PSoC5/ADC_DelSig.c ****         #if(ADC_DelSig_CFG1_DEC_DIV != 0)
1101:.\Generated_Source\PSoC5/ADC_DelSig.c ****             adcCounts /= ADC_DelSig_CFG1_DEC_DIV;
1102:.\Generated_Source\PSoC5/ADC_DelSig.c ****         #endif /* ADC_DelSig_CFG1_DEC_DIV */
1103:.\Generated_Source\PSoC5/ADC_DelSig.c ****     }
1104:.\Generated_Source\PSoC5/ADC_DelSig.c ****     else if (ADC_DelSig_Config == ADC_DelSig_CFG2)
1105:.\Generated_Source\PSoC5/ADC_DelSig.c ****     {
1106:.\Generated_Source\PSoC5/ADC_DelSig.c ****         resolution = ADC_DelSig_CFG2_RESOLUTION;
1107:.\Generated_Source\PSoC5/ADC_DelSig.c ****         #if(ADC_DelSig_CFG2_DEC_DIV != 0)
1108:.\Generated_Source\PSoC5/ADC_DelSig.c ****             adcCounts /= ADC_DelSig_CFG2_DEC_DIV;
1109:.\Generated_Source\PSoC5/ADC_DelSig.c ****         #endif /* ADC_DelSig_CFG2_DEC_DIV */
1110:.\Generated_Source\PSoC5/ADC_DelSig.c ****     }
1111:.\Generated_Source\PSoC5/ADC_DelSig.c ****     else if (ADC_DelSig_Config == ADC_DelSig_CFG3)
1112:.\Generated_Source\PSoC5/ADC_DelSig.c ****     {
1113:.\Generated_Source\PSoC5/ADC_DelSig.c ****         resolution = ADC_DelSig_CFG3_RESOLUTION;
1114:.\Generated_Source\PSoC5/ADC_DelSig.c ****         #if(ADC_DelSig_CFG3_DEC_DIV != 0)
1115:.\Generated_Source\PSoC5/ADC_DelSig.c ****             adcCounts /= ADC_DelSig_CFG3_DEC_DIV;
ARM GAS  C:\Users\mitchell\AppData\Local\Temp\ccpqy6v3.s 			page 21


1116:.\Generated_Source\PSoC5/ADC_DelSig.c ****         #endif /* ADC_DelSig_CFG3_DEC_DIV */
1117:.\Generated_Source\PSoC5/ADC_DelSig.c ****     }
1118:.\Generated_Source\PSoC5/ADC_DelSig.c ****     else
1119:.\Generated_Source\PSoC5/ADC_DelSig.c ****     {
1120:.\Generated_Source\PSoC5/ADC_DelSig.c ****         resolution = ADC_DelSig_CFG4_RESOLUTION;
1121:.\Generated_Source\PSoC5/ADC_DelSig.c ****         #if(ADC_DelSig_CFG4_DEC_DIV != 0)
1122:.\Generated_Source\PSoC5/ADC_DelSig.c ****             adcCounts /= ADC_DelSig_CFG4_DEC_DIV;
1123:.\Generated_Source\PSoC5/ADC_DelSig.c ****         #endif /* ADC_DelSig_CFG4_DEC_DIV */
1124:.\Generated_Source\PSoC5/ADC_DelSig.c ****     }
1125:.\Generated_Source\PSoC5/ADC_DelSig.c **** 
1126:.\Generated_Source\PSoC5/ADC_DelSig.c ****     switch (resolution)
1127:.\Generated_Source\PSoC5/ADC_DelSig.c ****     {
1128:.\Generated_Source\PSoC5/ADC_DelSig.c ****         #if( (ADC_DelSig_CFG1_RESOLUTION == ADC_DelSig__BITS_12) || \
1129:.\Generated_Source\PSoC5/ADC_DelSig.c ****              (ADC_DelSig_CFG2_RESOLUTION == ADC_DelSig__BITS_12) || \
1130:.\Generated_Source\PSoC5/ADC_DelSig.c ****              (ADC_DelSig_CFG3_RESOLUTION == ADC_DelSig__BITS_12) || \
1131:.\Generated_Source\PSoC5/ADC_DelSig.c ****              (ADC_DelSig_CFG4_RESOLUTION == ADC_DelSig__BITS_12) )
1132:.\Generated_Source\PSoC5/ADC_DelSig.c ****             case (uint8)ADC_DelSig__BITS_12:
1133:.\Generated_Source\PSoC5/ADC_DelSig.c ****                 coefA = ADC_DelSig_1UV_COUNTS / ADC_DelSig_DIVISOR_2;
1134:.\Generated_Source\PSoC5/ADC_DelSig.c ****                 coefB = ADC_DelSig_DIVISOR_2;
1135:.\Generated_Source\PSoC5/ADC_DelSig.c ****                 break;
1136:.\Generated_Source\PSoC5/ADC_DelSig.c ****         #endif /* ADC_DelSig__BITS_12 */    
1137:.\Generated_Source\PSoC5/ADC_DelSig.c ****         #if( (ADC_DelSig_CFG1_RESOLUTION == ADC_DelSig__BITS_13) || \
1138:.\Generated_Source\PSoC5/ADC_DelSig.c ****              (ADC_DelSig_CFG2_RESOLUTION == ADC_DelSig__BITS_13) || \
1139:.\Generated_Source\PSoC5/ADC_DelSig.c ****              (ADC_DelSig_CFG3_RESOLUTION == ADC_DelSig__BITS_13) || \
1140:.\Generated_Source\PSoC5/ADC_DelSig.c ****              (ADC_DelSig_CFG4_RESOLUTION == ADC_DelSig__BITS_13) )
1141:.\Generated_Source\PSoC5/ADC_DelSig.c ****             case (uint8)ADC_DelSig__BITS_13:
1142:.\Generated_Source\PSoC5/ADC_DelSig.c ****                 coefA = ADC_DelSig_1UV_COUNTS / ADC_DelSig_DIVISOR_4;
1143:.\Generated_Source\PSoC5/ADC_DelSig.c ****                 coefB = ADC_DelSig_DIVISOR_4;
1144:.\Generated_Source\PSoC5/ADC_DelSig.c ****                 break;
1145:.\Generated_Source\PSoC5/ADC_DelSig.c ****         #endif /* ADC_DelSig__BITS_13 */    
1146:.\Generated_Source\PSoC5/ADC_DelSig.c ****         #if( (ADC_DelSig_CFG1_RESOLUTION == ADC_DelSig__BITS_14) || \
1147:.\Generated_Source\PSoC5/ADC_DelSig.c ****              (ADC_DelSig_CFG2_RESOLUTION == ADC_DelSig__BITS_14) || \
1148:.\Generated_Source\PSoC5/ADC_DelSig.c ****              (ADC_DelSig_CFG3_RESOLUTION == ADC_DelSig__BITS_14) || \
1149:.\Generated_Source\PSoC5/ADC_DelSig.c ****              (ADC_DelSig_CFG4_RESOLUTION == ADC_DelSig__BITS_14) )
1150:.\Generated_Source\PSoC5/ADC_DelSig.c ****             case (uint8)ADC_DelSig__BITS_14:
1151:.\Generated_Source\PSoC5/ADC_DelSig.c ****                 coefA = ADC_DelSig_1UV_COUNTS / ADC_DelSig_DIVISOR_8;
1152:.\Generated_Source\PSoC5/ADC_DelSig.c ****                 coefB = ADC_DelSig_DIVISOR_8;
1153:.\Generated_Source\PSoC5/ADC_DelSig.c ****                 break;
1154:.\Generated_Source\PSoC5/ADC_DelSig.c ****         #endif /* ADC_DelSig__BITS_14 */    
1155:.\Generated_Source\PSoC5/ADC_DelSig.c ****         #if( (ADC_DelSig_CFG1_RESOLUTION == ADC_DelSig__BITS_15) || \
1156:.\Generated_Source\PSoC5/ADC_DelSig.c ****              (ADC_DelSig_CFG2_RESOLUTION == ADC_DelSig__BITS_15) || \
1157:.\Generated_Source\PSoC5/ADC_DelSig.c ****              (ADC_DelSig_CFG3_RESOLUTION == ADC_DelSig__BITS_15) || \
1158:.\Generated_Source\PSoC5/ADC_DelSig.c ****              (ADC_DelSig_CFG4_RESOLUTION == ADC_DelSig__BITS_15) )
1159:.\Generated_Source\PSoC5/ADC_DelSig.c ****             case (uint8)ADC_DelSig__BITS_15:
1160:.\Generated_Source\PSoC5/ADC_DelSig.c ****                 coefA = ADC_DelSig_1UV_COUNTS / ADC_DelSig_DIVISOR_16;
1161:.\Generated_Source\PSoC5/ADC_DelSig.c ****                 coefB = ADC_DelSig_DIVISOR_16;
1162:.\Generated_Source\PSoC5/ADC_DelSig.c ****                 break;
1163:.\Generated_Source\PSoC5/ADC_DelSig.c ****         #endif /* ADC_DelSig__BITS_15 */    
1164:.\Generated_Source\PSoC5/ADC_DelSig.c ****         #if( (ADC_DelSig_CFG1_RESOLUTION == ADC_DelSig__BITS_16) || \
1165:.\Generated_Source\PSoC5/ADC_DelSig.c ****              (ADC_DelSig_CFG2_RESOLUTION == ADC_DelSig__BITS_16) || \
1166:.\Generated_Source\PSoC5/ADC_DelSig.c ****              (ADC_DelSig_CFG3_RESOLUTION == ADC_DelSig__BITS_16) || \
1167:.\Generated_Source\PSoC5/ADC_DelSig.c ****              (ADC_DelSig_CFG4_RESOLUTION == ADC_DelSig__BITS_16) )
1168:.\Generated_Source\PSoC5/ADC_DelSig.c ****             case (uint8)ADC_DelSig__BITS_16:
1169:.\Generated_Source\PSoC5/ADC_DelSig.c ****                 coefA = ADC_DelSig_1UV_COUNTS / ADC_DelSig_DIVISOR_32;
1170:.\Generated_Source\PSoC5/ADC_DelSig.c ****                 coefB = ADC_DelSig_DIVISOR_32;
1171:.\Generated_Source\PSoC5/ADC_DelSig.c ****                 break;
1172:.\Generated_Source\PSoC5/ADC_DelSig.c ****         #endif /* ADC_DelSig__BITS_16 */    
ARM GAS  C:\Users\mitchell\AppData\Local\Temp\ccpqy6v3.s 			page 22


1173:.\Generated_Source\PSoC5/ADC_DelSig.c ****         #if( (ADC_DelSig_CFG1_RESOLUTION == ADC_DelSig__BITS_17) || \
1174:.\Generated_Source\PSoC5/ADC_DelSig.c ****              (ADC_DelSig_CFG2_RESOLUTION == ADC_DelSig__BITS_17) || \
1175:.\Generated_Source\PSoC5/ADC_DelSig.c ****              (ADC_DelSig_CFG3_RESOLUTION == ADC_DelSig__BITS_17) || \
1176:.\Generated_Source\PSoC5/ADC_DelSig.c ****              (ADC_DelSig_CFG4_RESOLUTION == ADC_DelSig__BITS_17) )
1177:.\Generated_Source\PSoC5/ADC_DelSig.c ****             case (uint8)ADC_DelSig__BITS_17:
1178:.\Generated_Source\PSoC5/ADC_DelSig.c ****                 coefA = ADC_DelSig_1UV_COUNTS / ADC_DelSig_DIVISOR_64;
1179:.\Generated_Source\PSoC5/ADC_DelSig.c ****                 coefB = ADC_DelSig_DIVISOR_64;
1180:.\Generated_Source\PSoC5/ADC_DelSig.c ****                 break;
1181:.\Generated_Source\PSoC5/ADC_DelSig.c ****         #endif /* ADC_DelSig__BITS_17 */    
1182:.\Generated_Source\PSoC5/ADC_DelSig.c ****         #if( (ADC_DelSig_CFG1_RESOLUTION == ADC_DelSig__BITS_18) || \
1183:.\Generated_Source\PSoC5/ADC_DelSig.c ****              (ADC_DelSig_CFG2_RESOLUTION == ADC_DelSig__BITS_18) || \
1184:.\Generated_Source\PSoC5/ADC_DelSig.c ****              (ADC_DelSig_CFG3_RESOLUTION == ADC_DelSig__BITS_18) || \
1185:.\Generated_Source\PSoC5/ADC_DelSig.c ****              (ADC_DelSig_CFG4_RESOLUTION == ADC_DelSig__BITS_18) )
1186:.\Generated_Source\PSoC5/ADC_DelSig.c ****             case (uint8)ADC_DelSig__BITS_18:
1187:.\Generated_Source\PSoC5/ADC_DelSig.c ****                 coefA = ADC_DelSig_1UV_COUNTS / ADC_DelSig_DIVISOR_125;
1188:.\Generated_Source\PSoC5/ADC_DelSig.c ****                 coefB = ADC_DelSig_DIVISOR_125;
1189:.\Generated_Source\PSoC5/ADC_DelSig.c ****                 break;
1190:.\Generated_Source\PSoC5/ADC_DelSig.c ****         #endif /* ADC_DelSig__BITS_18 */    
1191:.\Generated_Source\PSoC5/ADC_DelSig.c ****         #if( (ADC_DelSig_CFG1_RESOLUTION == ADC_DelSig__BITS_19) || \
1192:.\Generated_Source\PSoC5/ADC_DelSig.c ****              (ADC_DelSig_CFG2_RESOLUTION == ADC_DelSig__BITS_19) || \
1193:.\Generated_Source\PSoC5/ADC_DelSig.c ****              (ADC_DelSig_CFG3_RESOLUTION == ADC_DelSig__BITS_19) || \
1194:.\Generated_Source\PSoC5/ADC_DelSig.c ****              (ADC_DelSig_CFG4_RESOLUTION == ADC_DelSig__BITS_19) )
1195:.\Generated_Source\PSoC5/ADC_DelSig.c ****             case (uint8)ADC_DelSig__BITS_19:
1196:.\Generated_Source\PSoC5/ADC_DelSig.c ****                 coefA = ADC_DelSig_1UV_COUNTS / ADC_DelSig_DIVISOR_250;
1197:.\Generated_Source\PSoC5/ADC_DelSig.c ****                 coefB = ADC_DelSig_DIVISOR_250;
1198:.\Generated_Source\PSoC5/ADC_DelSig.c ****                 break;
1199:.\Generated_Source\PSoC5/ADC_DelSig.c ****         #endif /* ADC_DelSig__BITS_19 */    
1200:.\Generated_Source\PSoC5/ADC_DelSig.c ****         #if( (ADC_DelSig_CFG1_RESOLUTION == ADC_DelSig__BITS_20) || \
1201:.\Generated_Source\PSoC5/ADC_DelSig.c ****              (ADC_DelSig_CFG2_RESOLUTION == ADC_DelSig__BITS_20) || \
1202:.\Generated_Source\PSoC5/ADC_DelSig.c ****              (ADC_DelSig_CFG3_RESOLUTION == ADC_DelSig__BITS_20) || \
1203:.\Generated_Source\PSoC5/ADC_DelSig.c ****              (ADC_DelSig_CFG4_RESOLUTION == ADC_DelSig__BITS_20) )
1204:.\Generated_Source\PSoC5/ADC_DelSig.c ****             case (uint8)ADC_DelSig__BITS_20:
1205:.\Generated_Source\PSoC5/ADC_DelSig.c ****                 coefA = ADC_DelSig_1UV_COUNTS / ADC_DelSig_DIVISOR_500;
1206:.\Generated_Source\PSoC5/ADC_DelSig.c ****                 coefB = ADC_DelSig_DIVISOR_500;
1207:.\Generated_Source\PSoC5/ADC_DelSig.c ****                 break;
1208:.\Generated_Source\PSoC5/ADC_DelSig.c ****         #endif /* ADC_DelSig__BITS_20 */    
1209:.\Generated_Source\PSoC5/ADC_DelSig.c ****         default:    /* resolution < 12 */
1210:.\Generated_Source\PSoC5/ADC_DelSig.c ****             /* 11 bits ADC + 2^20(1048576) = 31 bits */
1211:.\Generated_Source\PSoC5/ADC_DelSig.c ****             coefA = ADC_DelSig_1UV_COUNTS;
1212:.\Generated_Source\PSoC5/ADC_DelSig.c ****             coefB = ADC_DelSig_DIVISOR_1;
1213:.\Generated_Source\PSoC5/ADC_DelSig.c ****             break;
1214:.\Generated_Source\PSoC5/ADC_DelSig.c ****     }
1215:.\Generated_Source\PSoC5/ADC_DelSig.c ****     coefB = ADC_DelSig_CountsPerVolt / coefB;
1216:.\Generated_Source\PSoC5/ADC_DelSig.c ****     uVolts = ((coefA * adcCounts) / coefB) - ((coefA * ADC_DelSig_Offset) / coefB);
1217:.\Generated_Source\PSoC5/ADC_DelSig.c **** 
1218:.\Generated_Source\PSoC5/ADC_DelSig.c ****     return( uVolts );
1219:.\Generated_Source\PSoC5/ADC_DelSig.c **** }
1220:.\Generated_Source\PSoC5/ADC_DelSig.c **** 
1221:.\Generated_Source\PSoC5/ADC_DelSig.c **** 
1222:.\Generated_Source\PSoC5/ADC_DelSig.c **** /*******************************************************************************
1223:.\Generated_Source\PSoC5/ADC_DelSig.c **** * Function Name: ADC_DelSig_InitConfig(uint8 config)
1224:.\Generated_Source\PSoC5/ADC_DelSig.c **** ********************************************************************************
1225:.\Generated_Source\PSoC5/ADC_DelSig.c **** *
1226:.\Generated_Source\PSoC5/ADC_DelSig.c **** * Summary:
1227:.\Generated_Source\PSoC5/ADC_DelSig.c **** *  Initializes all registers based on customizer settings
1228:.\Generated_Source\PSoC5/ADC_DelSig.c **** *
1229:.\Generated_Source\PSoC5/ADC_DelSig.c **** * Parameters:
ARM GAS  C:\Users\mitchell\AppData\Local\Temp\ccpqy6v3.s 			page 23


1230:.\Generated_Source\PSoC5/ADC_DelSig.c **** *   void
1231:.\Generated_Source\PSoC5/ADC_DelSig.c **** *
1232:.\Generated_Source\PSoC5/ADC_DelSig.c **** * Return:
1233:.\Generated_Source\PSoC5/ADC_DelSig.c **** *  None
1234:.\Generated_Source\PSoC5/ADC_DelSig.c **** *
1235:.\Generated_Source\PSoC5/ADC_DelSig.c **** * Global variables:
1236:.\Generated_Source\PSoC5/ADC_DelSig.c **** *  ADC_DelSig_CountsPerVolt:  Used to set the default counts per volt.
1237:.\Generated_Source\PSoC5/ADC_DelSig.c **** *
1238:.\Generated_Source\PSoC5/ADC_DelSig.c **** * Side Effects: Rewrites the coherency set by ADC_DelSig_SetCoherency()
1239:.\Generated_Source\PSoC5/ADC_DelSig.c **** *   API to the default value.
1240:.\Generated_Source\PSoC5/ADC_DelSig.c **** *
1241:.\Generated_Source\PSoC5/ADC_DelSig.c **** *******************************************************************************/
1242:.\Generated_Source\PSoC5/ADC_DelSig.c **** static void ADC_DelSig_InitConfig(uint8 config) 
1243:.\Generated_Source\PSoC5/ADC_DelSig.c **** {
1244:.\Generated_Source\PSoC5/ADC_DelSig.c ****     ADC_DelSig_stopConversion = 0u;
1245:.\Generated_Source\PSoC5/ADC_DelSig.c **** 
1246:.\Generated_Source\PSoC5/ADC_DelSig.c ****     if (config == 1u)
1247:.\Generated_Source\PSoC5/ADC_DelSig.c ****     {
1248:.\Generated_Source\PSoC5/ADC_DelSig.c ****         /* Default Config */
1249:.\Generated_Source\PSoC5/ADC_DelSig.c ****         ADC_DelSig_DEC_CR_REG      = ADC_DelSig_CFG1_DEC_CR;
1250:.\Generated_Source\PSoC5/ADC_DelSig.c ****         ADC_DelSig_DEC_SHIFT1_REG  = ADC_DelSig_CFG1_DEC_SHIFT1;
1251:.\Generated_Source\PSoC5/ADC_DelSig.c ****         ADC_DelSig_DEC_SHIFT2_REG  = ADC_DelSig_CFG1_DEC_SHIFT2;
1252:.\Generated_Source\PSoC5/ADC_DelSig.c ****         ADC_DelSig_DEC_DR2_REG     = ADC_DelSig_CFG1_DEC_DR2;
1253:.\Generated_Source\PSoC5/ADC_DelSig.c ****         ADC_DelSig_DEC_DR2H_REG    = ADC_DelSig_CFG1_DEC_DR2H;
1254:.\Generated_Source\PSoC5/ADC_DelSig.c ****         ADC_DelSig_DEC_DR1_REG     = ADC_DelSig_CFG1_DEC_DR1;
1255:.\Generated_Source\PSoC5/ADC_DelSig.c ****         ADC_DelSig_DEC_OCOR_REG    = ADC_DelSig_CFG1_DEC_OCOR;
1256:.\Generated_Source\PSoC5/ADC_DelSig.c ****         ADC_DelSig_DEC_OCORM_REG   = ADC_DelSig_CFG1_DEC_OCORM;
1257:.\Generated_Source\PSoC5/ADC_DelSig.c ****         ADC_DelSig_DEC_OCORH_REG   = ADC_DelSig_CFG1_DEC_OCORH;
1258:.\Generated_Source\PSoC5/ADC_DelSig.c ****         ADC_DelSig_DEC_COHER_REG   = ADC_DelSig_CFG1_DEC_COHER;
1259:.\Generated_Source\PSoC5/ADC_DelSig.c **** 
1260:.\Generated_Source\PSoC5/ADC_DelSig.c ****         ADC_DelSig_DSM_CR4_REG     = ADC_DelSig_CFG1_DSM_CR4;
1261:.\Generated_Source\PSoC5/ADC_DelSig.c ****         ADC_DelSig_DSM_CR5_REG     = ADC_DelSig_CFG1_DSM_CR5;
1262:.\Generated_Source\PSoC5/ADC_DelSig.c ****         ADC_DelSig_DSM_CR6_REG     = ADC_DelSig_CFG1_DSM_CR6;
1263:.\Generated_Source\PSoC5/ADC_DelSig.c ****         ADC_DelSig_DSM_CR7_REG     = ADC_DelSig_CFG1_DSM_CR7;
1264:.\Generated_Source\PSoC5/ADC_DelSig.c ****         ADC_DelSig_DSM_CR10_REG    = ADC_DelSig_CFG1_DSM_CR10;
1265:.\Generated_Source\PSoC5/ADC_DelSig.c ****         ADC_DelSig_DSM_CR11_REG    = ADC_DelSig_CFG1_DSM_CR11;
1266:.\Generated_Source\PSoC5/ADC_DelSig.c ****         ADC_DelSig_DSM_CR12_REG    = ADC_DelSig_CFG1_DSM_CR12;
1267:.\Generated_Source\PSoC5/ADC_DelSig.c ****         ADC_DelSig_DSM_CR14_REG    = ADC_DelSig_CFG1_DSM_CR14;
1268:.\Generated_Source\PSoC5/ADC_DelSig.c ****         ADC_DelSig_DSM_CR15_REG    = ADC_DelSig_CFG1_DSM_CR15;
1269:.\Generated_Source\PSoC5/ADC_DelSig.c ****         ADC_DelSig_DSM_CR16_REG    = ADC_DelSig_CFG1_DSM_CR16;
1270:.\Generated_Source\PSoC5/ADC_DelSig.c ****         ADC_DelSig_DSM_CR17_REG    = ADC_DelSig_CFG1_DSM_CR17;
1271:.\Generated_Source\PSoC5/ADC_DelSig.c ****         /* Set DSM_REF0_REG by disabling and enabling the PRESS circuit */
1272:.\Generated_Source\PSoC5/ADC_DelSig.c ****         ADC_DelSig_SetDSMRef0Reg(ADC_DelSig_CFG1_DSM_REF0);
1273:.\Generated_Source\PSoC5/ADC_DelSig.c ****         ADC_DelSig_DSM_REF2_REG    = ADC_DelSig_CFG1_DSM_REF2;
1274:.\Generated_Source\PSoC5/ADC_DelSig.c ****         ADC_DelSig_DSM_REF3_REG    = ADC_DelSig_CFG1_DSM_REF3;
1275:.\Generated_Source\PSoC5/ADC_DelSig.c **** 
1276:.\Generated_Source\PSoC5/ADC_DelSig.c ****         ADC_DelSig_DSM_BUF0_REG    = ADC_DelSig_CFG1_DSM_BUF0;
1277:.\Generated_Source\PSoC5/ADC_DelSig.c ****         ADC_DelSig_DSM_BUF1_REG    = ADC_DelSig_CFG1_DSM_BUF1;
1278:.\Generated_Source\PSoC5/ADC_DelSig.c ****         ADC_DelSig_DSM_BUF2_REG    = ADC_DelSig_CFG1_DSM_BUF2;
1279:.\Generated_Source\PSoC5/ADC_DelSig.c ****         ADC_DelSig_DSM_BUF3_REG    = ADC_DelSig_CFG1_DSM_BUF3;
1280:.\Generated_Source\PSoC5/ADC_DelSig.c **** 
1281:.\Generated_Source\PSoC5/ADC_DelSig.c ****         /* To select either Vssa or Vref to -ve input of DSM depending on
1282:.\Generated_Source\PSoC5/ADC_DelSig.c ****         *  the input  range selected.
1283:.\Generated_Source\PSoC5/ADC_DelSig.c ****         */
1284:.\Generated_Source\PSoC5/ADC_DelSig.c ****         #if(ADC_DelSig_DEFAULT_INPUT_MODE)
1285:.\Generated_Source\PSoC5/ADC_DelSig.c ****             #if (ADC_DelSig_CFG1_INPUT_RANGE == ADC_DelSig_IR_VSSA_TO_2VREF)
1286:.\Generated_Source\PSoC5/ADC_DelSig.c ****                 ADC_DelSig_AMux_Select(1u);
ARM GAS  C:\Users\mitchell\AppData\Local\Temp\ccpqy6v3.s 			page 24


1287:.\Generated_Source\PSoC5/ADC_DelSig.c ****             #else
1288:.\Generated_Source\PSoC5/ADC_DelSig.c ****                 ADC_DelSig_AMux_Select(0u);
1289:.\Generated_Source\PSoC5/ADC_DelSig.c ****             #endif /* ADC_DelSig_IR_VSSA_TO_2VREF) */
1290:.\Generated_Source\PSoC5/ADC_DelSig.c ****         #endif /* ADC_DelSig_DEFAULT_INPUT_MODE */
1291:.\Generated_Source\PSoC5/ADC_DelSig.c **** 
1292:.\Generated_Source\PSoC5/ADC_DelSig.c ****         /* Set the Conversion stop if resolution is above 16 bit and conversion
1293:.\Generated_Source\PSoC5/ADC_DelSig.c ****         *   mode is Single sample
1294:.\Generated_Source\PSoC5/ADC_DelSig.c ****         */
1295:.\Generated_Source\PSoC5/ADC_DelSig.c ****         #if(ADC_DelSig_CFG1_RESOLUTION > 16 && \
1296:.\Generated_Source\PSoC5/ADC_DelSig.c ****             ADC_DelSig_CFG1_CONV_MODE == ADC_DelSig_MODE_SINGLE_SAMPLE)
1297:.\Generated_Source\PSoC5/ADC_DelSig.c ****             ADC_DelSig_stopConversion = 1u;
1298:.\Generated_Source\PSoC5/ADC_DelSig.c ****         #endif /* Single sample with resolution above 16 bits. */
1299:.\Generated_Source\PSoC5/ADC_DelSig.c **** 
1300:.\Generated_Source\PSoC5/ADC_DelSig.c ****         ADC_DelSig_CountsPerVolt = (int32)ADC_DelSig_CFG1_COUNTS_PER_VOLT;
1301:.\Generated_Source\PSoC5/ADC_DelSig.c **** 
1302:.\Generated_Source\PSoC5/ADC_DelSig.c ****         ADC_DelSig_Ext_CP_Clk_SetDividerRegister(ADC_DelSig_CFG1_CP_CLK_DIVIDER, 1u);
1303:.\Generated_Source\PSoC5/ADC_DelSig.c **** 
1304:.\Generated_Source\PSoC5/ADC_DelSig.c ****         /* This is only valid if there is an internal clock */
1305:.\Generated_Source\PSoC5/ADC_DelSig.c ****         #if(ADC_DelSig_DEFAULT_INTERNAL_CLK)
1306:.\Generated_Source\PSoC5/ADC_DelSig.c ****             ADC_DelSig_theACLK_SetDividerRegister(ADC_DelSig_CFG1_ADC_CLK_DIVIDER, 1u);
1307:.\Generated_Source\PSoC5/ADC_DelSig.c ****         #endif /* ADC_DelSig_DEFAULT_INTERNAL_CLK */
1308:.\Generated_Source\PSoC5/ADC_DelSig.c **** 
1309:.\Generated_Source\PSoC5/ADC_DelSig.c ****         #if(ADC_DelSig_IRQ_REMOVE == 0u)
1310:.\Generated_Source\PSoC5/ADC_DelSig.c ****             /* Set interrupt vector */
1311:.\Generated_Source\PSoC5/ADC_DelSig.c ****             (void)CyIntSetVector(ADC_DelSig_INTC_NUMBER, &ADC_DelSig_ISR1);
1312:.\Generated_Source\PSoC5/ADC_DelSig.c ****         #endif   /* End ADC_DelSig_IRQ_REMOVE */
1313:.\Generated_Source\PSoC5/ADC_DelSig.c ****     }
1314:.\Generated_Source\PSoC5/ADC_DelSig.c **** 
1315:.\Generated_Source\PSoC5/ADC_DelSig.c ****     #if(ADC_DelSig_DEFAULT_NUM_CONFIGS > 1)
1316:.\Generated_Source\PSoC5/ADC_DelSig.c ****         if(config == 2u)
1317:.\Generated_Source\PSoC5/ADC_DelSig.c ****         {
1318:.\Generated_Source\PSoC5/ADC_DelSig.c ****             /* Second Config */
1319:.\Generated_Source\PSoC5/ADC_DelSig.c ****             ADC_DelSig_DEC_CR_REG      = ADC_DelSig_CFG2_DEC_CR;
1320:.\Generated_Source\PSoC5/ADC_DelSig.c ****             ADC_DelSig_DEC_SHIFT1_REG  = ADC_DelSig_CFG2_DEC_SHIFT1;
1321:.\Generated_Source\PSoC5/ADC_DelSig.c ****             ADC_DelSig_DEC_SHIFT2_REG  = ADC_DelSig_CFG2_DEC_SHIFT2;
1322:.\Generated_Source\PSoC5/ADC_DelSig.c ****             ADC_DelSig_DEC_DR2_REG     = ADC_DelSig_CFG2_DEC_DR2;
1323:.\Generated_Source\PSoC5/ADC_DelSig.c ****             ADC_DelSig_DEC_DR2H_REG    = ADC_DelSig_CFG2_DEC_DR2H;
1324:.\Generated_Source\PSoC5/ADC_DelSig.c ****             ADC_DelSig_DEC_DR1_REG     = ADC_DelSig_CFG2_DEC_DR1;
1325:.\Generated_Source\PSoC5/ADC_DelSig.c ****             ADC_DelSig_DEC_OCOR_REG    = ADC_DelSig_CFG2_DEC_OCOR;
1326:.\Generated_Source\PSoC5/ADC_DelSig.c ****             ADC_DelSig_DEC_OCORM_REG   = ADC_DelSig_CFG2_DEC_OCORM;
1327:.\Generated_Source\PSoC5/ADC_DelSig.c ****             ADC_DelSig_DEC_OCORH_REG   = ADC_DelSig_CFG2_DEC_OCORH;
1328:.\Generated_Source\PSoC5/ADC_DelSig.c ****             ADC_DelSig_DEC_COHER_REG   = ADC_DelSig_CFG2_DEC_COHER;
1329:.\Generated_Source\PSoC5/ADC_DelSig.c **** 
1330:.\Generated_Source\PSoC5/ADC_DelSig.c ****             ADC_DelSig_DSM_CR4_REG     = ADC_DelSig_CFG2_DSM_CR4;
1331:.\Generated_Source\PSoC5/ADC_DelSig.c ****             ADC_DelSig_DSM_CR5_REG     = ADC_DelSig_CFG2_DSM_CR5;
1332:.\Generated_Source\PSoC5/ADC_DelSig.c ****             ADC_DelSig_DSM_CR6_REG     = ADC_DelSig_CFG2_DSM_CR6;
1333:.\Generated_Source\PSoC5/ADC_DelSig.c ****             ADC_DelSig_DSM_CR7_REG     = ADC_DelSig_CFG2_DSM_CR7;
1334:.\Generated_Source\PSoC5/ADC_DelSig.c ****             ADC_DelSig_DSM_CR10_REG    = ADC_DelSig_CFG2_DSM_CR10;
1335:.\Generated_Source\PSoC5/ADC_DelSig.c ****             ADC_DelSig_DSM_CR11_REG    = ADC_DelSig_CFG2_DSM_CR11;
1336:.\Generated_Source\PSoC5/ADC_DelSig.c ****             ADC_DelSig_DSM_CR12_REG    = ADC_DelSig_CFG2_DSM_CR12;
1337:.\Generated_Source\PSoC5/ADC_DelSig.c ****             ADC_DelSig_DSM_CR14_REG    = ADC_DelSig_CFG2_DSM_CR14;
1338:.\Generated_Source\PSoC5/ADC_DelSig.c ****             ADC_DelSig_DSM_CR15_REG    = ADC_DelSig_CFG2_DSM_CR15;
1339:.\Generated_Source\PSoC5/ADC_DelSig.c ****             ADC_DelSig_DSM_CR16_REG    = ADC_DelSig_CFG2_DSM_CR16;
1340:.\Generated_Source\PSoC5/ADC_DelSig.c ****             ADC_DelSig_DSM_CR17_REG    = ADC_DelSig_CFG2_DSM_CR17;
1341:.\Generated_Source\PSoC5/ADC_DelSig.c ****             /* Set DSM_REF0_REG by disabling and enabling the PRESS cirucit */
1342:.\Generated_Source\PSoC5/ADC_DelSig.c ****             ADC_DelSig_SetDSMRef0Reg(ADC_DelSig_CFG2_DSM_REF0);
1343:.\Generated_Source\PSoC5/ADC_DelSig.c ****             ADC_DelSig_DSM_REF2_REG    = ADC_DelSig_CFG2_DSM_REF2;
ARM GAS  C:\Users\mitchell\AppData\Local\Temp\ccpqy6v3.s 			page 25


1344:.\Generated_Source\PSoC5/ADC_DelSig.c ****             ADC_DelSig_DSM_REF3_REG    = ADC_DelSig_CFG2_DSM_REF3;
1345:.\Generated_Source\PSoC5/ADC_DelSig.c **** 
1346:.\Generated_Source\PSoC5/ADC_DelSig.c ****             ADC_DelSig_DSM_BUF0_REG    = ADC_DelSig_CFG2_DSM_BUF0;
1347:.\Generated_Source\PSoC5/ADC_DelSig.c ****             ADC_DelSig_DSM_BUF1_REG    = ADC_DelSig_CFG2_DSM_BUF1;
1348:.\Generated_Source\PSoC5/ADC_DelSig.c ****             ADC_DelSig_DSM_BUF2_REG    = ADC_DelSig_CFG2_DSM_BUF2;
1349:.\Generated_Source\PSoC5/ADC_DelSig.c ****             ADC_DelSig_DSM_BUF3_REG    = ADC_DelSig_CFG2_DSM_BUF3;
1350:.\Generated_Source\PSoC5/ADC_DelSig.c **** 
1351:.\Generated_Source\PSoC5/ADC_DelSig.c ****             /* To select either Vssa or Vref to -ve input of DSM depending on
1352:.\Generated_Source\PSoC5/ADC_DelSig.c ****             *  the input range selected.
1353:.\Generated_Source\PSoC5/ADC_DelSig.c ****             */
1354:.\Generated_Source\PSoC5/ADC_DelSig.c **** 
1355:.\Generated_Source\PSoC5/ADC_DelSig.c ****             #if(ADC_DelSig_DEFAULT_INPUT_MODE)
1356:.\Generated_Source\PSoC5/ADC_DelSig.c ****                 #if (ADC_DelSig_CFG2_INPUT_RANGE == ADC_DelSig_IR_VSSA_TO_2VREF)
1357:.\Generated_Source\PSoC5/ADC_DelSig.c ****                     ADC_DelSig_AMux_Select(1u);
1358:.\Generated_Source\PSoC5/ADC_DelSig.c ****                 #else
1359:.\Generated_Source\PSoC5/ADC_DelSig.c ****                     ADC_DelSig_AMux_Select(0u);
1360:.\Generated_Source\PSoC5/ADC_DelSig.c ****                 #endif /* ADC_DelSig_IR_VSSA_TO_2VREF) */
1361:.\Generated_Source\PSoC5/ADC_DelSig.c ****             #endif /* ADC_DelSig_DEFAULT_INPUT_MODE */
1362:.\Generated_Source\PSoC5/ADC_DelSig.c **** 
1363:.\Generated_Source\PSoC5/ADC_DelSig.c ****             /* Set the Conversion stop if resolution is above 16 bit and
1364:.\Generated_Source\PSoC5/ADC_DelSig.c ****             *   conversion mode is Single sample
1365:.\Generated_Source\PSoC5/ADC_DelSig.c ****             */
1366:.\Generated_Source\PSoC5/ADC_DelSig.c ****             #if(ADC_DelSig_CFG2_RESOLUTION > 16 && \
1367:.\Generated_Source\PSoC5/ADC_DelSig.c ****                 ADC_DelSig_CFG2_CONV_MODE == ADC_DelSig_MODE_SINGLE_SAMPLE)
1368:.\Generated_Source\PSoC5/ADC_DelSig.c ****                 ADC_DelSig_stopConversion = 1u;
1369:.\Generated_Source\PSoC5/ADC_DelSig.c ****             #endif /* Single sample with resolution above 16 bits. */
1370:.\Generated_Source\PSoC5/ADC_DelSig.c **** 
1371:.\Generated_Source\PSoC5/ADC_DelSig.c ****             ADC_DelSig_CountsPerVolt = (int32)ADC_DelSig_CFG2_COUNTS_PER_VOLT;
1372:.\Generated_Source\PSoC5/ADC_DelSig.c **** 
1373:.\Generated_Source\PSoC5/ADC_DelSig.c ****             ADC_DelSig_Ext_CP_Clk_SetDividerRegister(ADC_DelSig_CFG2_CP_CLK_DIVIDER, 1u);
1374:.\Generated_Source\PSoC5/ADC_DelSig.c **** 
1375:.\Generated_Source\PSoC5/ADC_DelSig.c ****             /* This is only valid if there is an internal clock */
1376:.\Generated_Source\PSoC5/ADC_DelSig.c ****             #if(ADC_DelSig_DEFAULT_INTERNAL_CLK)
1377:.\Generated_Source\PSoC5/ADC_DelSig.c ****                 ADC_DelSig_theACLK_SetDividerRegister(ADC_DelSig_CFG2_ADC_CLK_DIVIDER, 1u);
1378:.\Generated_Source\PSoC5/ADC_DelSig.c ****             #endif /* ADC_DelSig_DEFAULT_INTERNAL_CLK */
1379:.\Generated_Source\PSoC5/ADC_DelSig.c **** 
1380:.\Generated_Source\PSoC5/ADC_DelSig.c ****             #if(ADC_DelSig_IRQ_REMOVE == 0u)
1381:.\Generated_Source\PSoC5/ADC_DelSig.c ****                 /* Set interrupt vector */
1382:.\Generated_Source\PSoC5/ADC_DelSig.c ****                 (void)CyIntSetVector(ADC_DelSig_INTC_NUMBER, &ADC_DelSig_ISR2);
1383:.\Generated_Source\PSoC5/ADC_DelSig.c ****             #endif   /* End ADC_DelSig_IRQ_REMOVE */
1384:.\Generated_Source\PSoC5/ADC_DelSig.c ****         }
1385:.\Generated_Source\PSoC5/ADC_DelSig.c ****     #endif /* ADC_DelSig_DEFAULT_NUM_CONFIGS > 1 */
1386:.\Generated_Source\PSoC5/ADC_DelSig.c **** 
1387:.\Generated_Source\PSoC5/ADC_DelSig.c ****     #if(ADC_DelSig_DEFAULT_NUM_CONFIGS > 2)
1388:.\Generated_Source\PSoC5/ADC_DelSig.c ****         if(config == 3u)
1389:.\Generated_Source\PSoC5/ADC_DelSig.c ****         {
1390:.\Generated_Source\PSoC5/ADC_DelSig.c ****             /* Third Config */
1391:.\Generated_Source\PSoC5/ADC_DelSig.c ****             ADC_DelSig_DEC_CR_REG      = ADC_DelSig_CFG3_DEC_CR;
1392:.\Generated_Source\PSoC5/ADC_DelSig.c ****             ADC_DelSig_DEC_SHIFT1_REG  = ADC_DelSig_CFG3_DEC_SHIFT1;
1393:.\Generated_Source\PSoC5/ADC_DelSig.c ****             ADC_DelSig_DEC_SHIFT2_REG  = ADC_DelSig_CFG3_DEC_SHIFT2;
1394:.\Generated_Source\PSoC5/ADC_DelSig.c ****             ADC_DelSig_DEC_DR2_REG     = ADC_DelSig_CFG3_DEC_DR2;
1395:.\Generated_Source\PSoC5/ADC_DelSig.c ****             ADC_DelSig_DEC_DR2H_REG    = ADC_DelSig_CFG3_DEC_DR2H;
1396:.\Generated_Source\PSoC5/ADC_DelSig.c ****             ADC_DelSig_DEC_DR1_REG     = ADC_DelSig_CFG3_DEC_DR1;
1397:.\Generated_Source\PSoC5/ADC_DelSig.c ****             ADC_DelSig_DEC_OCOR_REG    = ADC_DelSig_CFG3_DEC_OCOR;
1398:.\Generated_Source\PSoC5/ADC_DelSig.c ****             ADC_DelSig_DEC_OCORM_REG   = ADC_DelSig_CFG3_DEC_OCORM;
1399:.\Generated_Source\PSoC5/ADC_DelSig.c ****             ADC_DelSig_DEC_OCORH_REG   = ADC_DelSig_CFG3_DEC_OCORH;
1400:.\Generated_Source\PSoC5/ADC_DelSig.c ****             ADC_DelSig_DEC_COHER_REG   = ADC_DelSig_CFG3_DEC_COHER;
ARM GAS  C:\Users\mitchell\AppData\Local\Temp\ccpqy6v3.s 			page 26


1401:.\Generated_Source\PSoC5/ADC_DelSig.c **** 
1402:.\Generated_Source\PSoC5/ADC_DelSig.c ****             ADC_DelSig_DSM_CR4_REG     = ADC_DelSig_CFG3_DSM_CR4;
1403:.\Generated_Source\PSoC5/ADC_DelSig.c ****             ADC_DelSig_DSM_CR5_REG     = ADC_DelSig_CFG3_DSM_CR5;
1404:.\Generated_Source\PSoC5/ADC_DelSig.c ****             ADC_DelSig_DSM_CR6_REG     = ADC_DelSig_CFG3_DSM_CR6;
1405:.\Generated_Source\PSoC5/ADC_DelSig.c ****             ADC_DelSig_DSM_CR7_REG     = ADC_DelSig_CFG3_DSM_CR7;
1406:.\Generated_Source\PSoC5/ADC_DelSig.c ****             ADC_DelSig_DSM_CR10_REG    = ADC_DelSig_CFG3_DSM_CR10;
1407:.\Generated_Source\PSoC5/ADC_DelSig.c ****             ADC_DelSig_DSM_CR11_REG    = ADC_DelSig_CFG3_DSM_CR11;
1408:.\Generated_Source\PSoC5/ADC_DelSig.c ****             ADC_DelSig_DSM_CR12_REG    = ADC_DelSig_CFG3_DSM_CR12;
1409:.\Generated_Source\PSoC5/ADC_DelSig.c ****             ADC_DelSig_DSM_CR14_REG    = ADC_DelSig_CFG3_DSM_CR14;
1410:.\Generated_Source\PSoC5/ADC_DelSig.c ****             ADC_DelSig_DSM_CR15_REG    = ADC_DelSig_CFG3_DSM_CR15;
1411:.\Generated_Source\PSoC5/ADC_DelSig.c ****             ADC_DelSig_DSM_CR16_REG    = ADC_DelSig_CFG3_DSM_CR16;
1412:.\Generated_Source\PSoC5/ADC_DelSig.c ****             ADC_DelSig_DSM_CR17_REG    = ADC_DelSig_CFG3_DSM_CR17;
1413:.\Generated_Source\PSoC5/ADC_DelSig.c ****             /* Set DSM_REF0_REG by disabling and enabling the PRESS circuit */
1414:.\Generated_Source\PSoC5/ADC_DelSig.c ****             ADC_DelSig_SetDSMRef0Reg(ADC_DelSig_CFG3_DSM_REF0);
1415:.\Generated_Source\PSoC5/ADC_DelSig.c ****             ADC_DelSig_DSM_REF2_REG    = ADC_DelSig_CFG3_DSM_REF2;
1416:.\Generated_Source\PSoC5/ADC_DelSig.c ****             ADC_DelSig_DSM_REF3_REG    = ADC_DelSig_CFG3_DSM_REF3;
1417:.\Generated_Source\PSoC5/ADC_DelSig.c **** 
1418:.\Generated_Source\PSoC5/ADC_DelSig.c ****             ADC_DelSig_DSM_BUF0_REG    = ADC_DelSig_CFG3_DSM_BUF0;
1419:.\Generated_Source\PSoC5/ADC_DelSig.c ****             ADC_DelSig_DSM_BUF1_REG    = ADC_DelSig_CFG3_DSM_BUF1;
1420:.\Generated_Source\PSoC5/ADC_DelSig.c ****             ADC_DelSig_DSM_BUF2_REG    = ADC_DelSig_CFG3_DSM_BUF2;
1421:.\Generated_Source\PSoC5/ADC_DelSig.c ****             ADC_DelSig_DSM_BUF3_REG    = ADC_DelSig_CFG3_DSM_BUF3;
1422:.\Generated_Source\PSoC5/ADC_DelSig.c **** 
1423:.\Generated_Source\PSoC5/ADC_DelSig.c ****             /* To select either Vssa or Vref to -ve input of DSM depending on
1424:.\Generated_Source\PSoC5/ADC_DelSig.c ****             *  the input range selected.
1425:.\Generated_Source\PSoC5/ADC_DelSig.c ****             */
1426:.\Generated_Source\PSoC5/ADC_DelSig.c ****             #if(ADC_DelSig_DEFAULT_INPUT_MODE)
1427:.\Generated_Source\PSoC5/ADC_DelSig.c ****                 #if (ADC_DelSig_CFG3_INPUT_RANGE == ADC_DelSig_IR_VSSA_TO_2VREF)
1428:.\Generated_Source\PSoC5/ADC_DelSig.c ****                     ADC_DelSig_AMux_Select(1u);
1429:.\Generated_Source\PSoC5/ADC_DelSig.c ****                 #else
1430:.\Generated_Source\PSoC5/ADC_DelSig.c ****                     ADC_DelSig_AMux_Select(0u);
1431:.\Generated_Source\PSoC5/ADC_DelSig.c ****                 #endif /* ADC_DelSig_IR_VSSA_TO_2VREF) */
1432:.\Generated_Source\PSoC5/ADC_DelSig.c ****             #endif /* ADC_DelSig_DEFAULT_INPUT_MODE */
1433:.\Generated_Source\PSoC5/ADC_DelSig.c **** 
1434:.\Generated_Source\PSoC5/ADC_DelSig.c ****             /* Set the Conversion stop if resolution is above 16 bit and
1435:.\Generated_Source\PSoC5/ADC_DelSig.c ****                conversion  mode is Single sample */
1436:.\Generated_Source\PSoC5/ADC_DelSig.c ****             #if(ADC_DelSig_CFG3_RESOLUTION > 16 && \
1437:.\Generated_Source\PSoC5/ADC_DelSig.c ****                 ADC_DelSig_CFG3_CONV_MODE == ADC_DelSig_MODE_SINGLE_SAMPLE)
1438:.\Generated_Source\PSoC5/ADC_DelSig.c ****                 ADC_DelSig_stopConversion = 1u;
1439:.\Generated_Source\PSoC5/ADC_DelSig.c ****             #endif /* Single sample with resolution above 16 bits */
1440:.\Generated_Source\PSoC5/ADC_DelSig.c **** 
1441:.\Generated_Source\PSoC5/ADC_DelSig.c ****             ADC_DelSig_CountsPerVolt = (int32)ADC_DelSig_CFG3_COUNTS_PER_VOLT;
1442:.\Generated_Source\PSoC5/ADC_DelSig.c **** 
1443:.\Generated_Source\PSoC5/ADC_DelSig.c ****             ADC_DelSig_Ext_CP_Clk_SetDividerRegister(ADC_DelSig_CFG3_CP_CLK_DIVIDER, 1u);
1444:.\Generated_Source\PSoC5/ADC_DelSig.c **** 
1445:.\Generated_Source\PSoC5/ADC_DelSig.c ****             /* This is only valid if there is an internal clock */
1446:.\Generated_Source\PSoC5/ADC_DelSig.c ****             #if(ADC_DelSig_DEFAULT_INTERNAL_CLK)
1447:.\Generated_Source\PSoC5/ADC_DelSig.c ****                 ADC_DelSig_theACLK_SetDividerRegister(ADC_DelSig_CFG3_ADC_CLK_DIVIDER, 1u);
1448:.\Generated_Source\PSoC5/ADC_DelSig.c ****             #endif /* ADC_DelSig_DEFAULT_INTERNAL_CLK */
1449:.\Generated_Source\PSoC5/ADC_DelSig.c **** 
1450:.\Generated_Source\PSoC5/ADC_DelSig.c ****             #if(ADC_DelSig_IRQ_REMOVE == 0u)
1451:.\Generated_Source\PSoC5/ADC_DelSig.c ****                 /* Set interrupt vector */
1452:.\Generated_Source\PSoC5/ADC_DelSig.c ****                 (void)CyIntSetVector(ADC_DelSig_INTC_NUMBER, &ADC_DelSig_ISR3);
1453:.\Generated_Source\PSoC5/ADC_DelSig.c ****             #endif   /* End ADC_DelSig_IRQ_REMOVE */
1454:.\Generated_Source\PSoC5/ADC_DelSig.c ****         }
1455:.\Generated_Source\PSoC5/ADC_DelSig.c ****     #endif /* ADC_DelSig_DEFAULT_NUM_CONFIGS > 2 */
1456:.\Generated_Source\PSoC5/ADC_DelSig.c **** 
1457:.\Generated_Source\PSoC5/ADC_DelSig.c ****     #if(ADC_DelSig_DEFAULT_NUM_CONFIGS > 3)
ARM GAS  C:\Users\mitchell\AppData\Local\Temp\ccpqy6v3.s 			page 27


1458:.\Generated_Source\PSoC5/ADC_DelSig.c ****         if (config == 4u)
1459:.\Generated_Source\PSoC5/ADC_DelSig.c ****         {
1460:.\Generated_Source\PSoC5/ADC_DelSig.c ****             /* Fourth Config */
1461:.\Generated_Source\PSoC5/ADC_DelSig.c ****             ADC_DelSig_DEC_CR_REG      = ADC_DelSig_CFG4_DEC_CR;
1462:.\Generated_Source\PSoC5/ADC_DelSig.c ****             ADC_DelSig_DEC_SHIFT1_REG  = ADC_DelSig_CFG4_DEC_SHIFT1;
1463:.\Generated_Source\PSoC5/ADC_DelSig.c ****             ADC_DelSig_DEC_SHIFT2_REG  = ADC_DelSig_CFG4_DEC_SHIFT2;
1464:.\Generated_Source\PSoC5/ADC_DelSig.c ****             ADC_DelSig_DEC_DR2_REG     = ADC_DelSig_CFG4_DEC_DR2;
1465:.\Generated_Source\PSoC5/ADC_DelSig.c ****             ADC_DelSig_DEC_DR2H_REG    = ADC_DelSig_CFG4_DEC_DR2H;
1466:.\Generated_Source\PSoC5/ADC_DelSig.c ****             ADC_DelSig_DEC_DR1_REG     = ADC_DelSig_CFG4_DEC_DR1;
1467:.\Generated_Source\PSoC5/ADC_DelSig.c ****             ADC_DelSig_DEC_OCOR_REG    = ADC_DelSig_CFG4_DEC_OCOR;
1468:.\Generated_Source\PSoC5/ADC_DelSig.c ****             ADC_DelSig_DEC_OCORM_REG   = ADC_DelSig_CFG4_DEC_OCORM;
1469:.\Generated_Source\PSoC5/ADC_DelSig.c ****             ADC_DelSig_DEC_OCORH_REG   = ADC_DelSig_CFG4_DEC_OCORH;
1470:.\Generated_Source\PSoC5/ADC_DelSig.c ****             ADC_DelSig_DEC_COHER_REG   = ADC_DelSig_CFG4_DEC_COHER;
1471:.\Generated_Source\PSoC5/ADC_DelSig.c **** 
1472:.\Generated_Source\PSoC5/ADC_DelSig.c ****             ADC_DelSig_DSM_CR4_REG     = ADC_DelSig_CFG4_DSM_CR4;
1473:.\Generated_Source\PSoC5/ADC_DelSig.c ****             ADC_DelSig_DSM_CR5_REG     = ADC_DelSig_CFG4_DSM_CR5;
1474:.\Generated_Source\PSoC5/ADC_DelSig.c ****             ADC_DelSig_DSM_CR6_REG     = ADC_DelSig_CFG4_DSM_CR6;
1475:.\Generated_Source\PSoC5/ADC_DelSig.c ****             ADC_DelSig_DSM_CR7_REG     = ADC_DelSig_CFG4_DSM_CR7;
1476:.\Generated_Source\PSoC5/ADC_DelSig.c ****             ADC_DelSig_DSM_CR10_REG    = ADC_DelSig_CFG4_DSM_CR10;
1477:.\Generated_Source\PSoC5/ADC_DelSig.c ****             ADC_DelSig_DSM_CR11_REG    = ADC_DelSig_CFG4_DSM_CR11;
1478:.\Generated_Source\PSoC5/ADC_DelSig.c ****             ADC_DelSig_DSM_CR12_REG    = ADC_DelSig_CFG4_DSM_CR12;
1479:.\Generated_Source\PSoC5/ADC_DelSig.c ****             ADC_DelSig_DSM_CR14_REG    = ADC_DelSig_CFG4_DSM_CR14;
1480:.\Generated_Source\PSoC5/ADC_DelSig.c ****             ADC_DelSig_DSM_CR15_REG    = ADC_DelSig_CFG4_DSM_CR15;
1481:.\Generated_Source\PSoC5/ADC_DelSig.c ****             ADC_DelSig_DSM_CR16_REG    = ADC_DelSig_CFG4_DSM_CR16;
1482:.\Generated_Source\PSoC5/ADC_DelSig.c ****             ADC_DelSig_DSM_CR17_REG    = ADC_DelSig_CFG4_DSM_CR17;
1483:.\Generated_Source\PSoC5/ADC_DelSig.c ****             /* Set DSM_REF0_REG by disabling and enabling the PRESS circuit */
1484:.\Generated_Source\PSoC5/ADC_DelSig.c ****             ADC_DelSig_SetDSMRef0Reg(ADC_DelSig_CFG4_DSM_REF0);
1485:.\Generated_Source\PSoC5/ADC_DelSig.c ****             ADC_DelSig_DSM_REF2_REG    = ADC_DelSig_CFG4_DSM_REF2;
1486:.\Generated_Source\PSoC5/ADC_DelSig.c ****             ADC_DelSig_DSM_REF3_REG    = ADC_DelSig_CFG4_DSM_REF3;
1487:.\Generated_Source\PSoC5/ADC_DelSig.c **** 
1488:.\Generated_Source\PSoC5/ADC_DelSig.c ****             ADC_DelSig_DSM_BUF0_REG    = ADC_DelSig_CFG4_DSM_BUF0;
1489:.\Generated_Source\PSoC5/ADC_DelSig.c ****             ADC_DelSig_DSM_BUF1_REG    = ADC_DelSig_CFG4_DSM_BUF1;
1490:.\Generated_Source\PSoC5/ADC_DelSig.c ****             ADC_DelSig_DSM_BUF2_REG    = ADC_DelSig_CFG4_DSM_BUF2;
1491:.\Generated_Source\PSoC5/ADC_DelSig.c ****             ADC_DelSig_DSM_BUF3_REG    = ADC_DelSig_CFG4_DSM_BUF3;
1492:.\Generated_Source\PSoC5/ADC_DelSig.c **** 
1493:.\Generated_Source\PSoC5/ADC_DelSig.c ****             /* To select either Vssa or Vref to -ve input of DSM depending on
1494:.\Generated_Source\PSoC5/ADC_DelSig.c ****             *  the input range selected.
1495:.\Generated_Source\PSoC5/ADC_DelSig.c ****             */
1496:.\Generated_Source\PSoC5/ADC_DelSig.c ****             #if(ADC_DelSig_DEFAULT_INPUT_MODE)
1497:.\Generated_Source\PSoC5/ADC_DelSig.c ****                 #if (ADC_DelSig_CFG4_INPUT_RANGE == ADC_DelSig_IR_VSSA_TO_2VREF)
1498:.\Generated_Source\PSoC5/ADC_DelSig.c ****                     ADC_DelSig_AMux_Select(1u);
1499:.\Generated_Source\PSoC5/ADC_DelSig.c ****                 #else
1500:.\Generated_Source\PSoC5/ADC_DelSig.c ****                     ADC_DelSig_AMux_Select(0u);
1501:.\Generated_Source\PSoC5/ADC_DelSig.c ****                 #endif /* ADC_DelSig_IR_VSSA_TO_2VREF) */
1502:.\Generated_Source\PSoC5/ADC_DelSig.c ****             #endif /* ADC_DelSig_DEFAULT_INPUT_MODE */
1503:.\Generated_Source\PSoC5/ADC_DelSig.c **** 
1504:.\Generated_Source\PSoC5/ADC_DelSig.c ****             /* Set the Conversion stop if resolution is above 16 bit and
1505:.\Generated_Source\PSoC5/ADC_DelSig.c ****                conversion mode is Single sample */
1506:.\Generated_Source\PSoC5/ADC_DelSig.c ****             #if(ADC_DelSig_CFG4_RESOLUTION > 16 && \
1507:.\Generated_Source\PSoC5/ADC_DelSig.c ****                 ADC_DelSig_CFG4_CONV_MODE == ADC_DelSig_MODE_SINGLE_SAMPLE)
1508:.\Generated_Source\PSoC5/ADC_DelSig.c ****                 ADC_DelSig_stopConversion = 1u;
1509:.\Generated_Source\PSoC5/ADC_DelSig.c ****             #endif /* Single sample with resolution above 16 bits */
1510:.\Generated_Source\PSoC5/ADC_DelSig.c **** 
1511:.\Generated_Source\PSoC5/ADC_DelSig.c ****             ADC_DelSig_CountsPerVolt = (int32)ADC_DelSig_CFG4_COUNTS_PER_VOLT;
1512:.\Generated_Source\PSoC5/ADC_DelSig.c **** 
1513:.\Generated_Source\PSoC5/ADC_DelSig.c ****             ADC_DelSig_Ext_CP_Clk_SetDividerRegister(ADC_DelSig_CFG4_CP_CLK_DIVIDER, 1u);
1514:.\Generated_Source\PSoC5/ADC_DelSig.c **** 
ARM GAS  C:\Users\mitchell\AppData\Local\Temp\ccpqy6v3.s 			page 28


1515:.\Generated_Source\PSoC5/ADC_DelSig.c ****             /* This is only valid if there is an internal clock */
1516:.\Generated_Source\PSoC5/ADC_DelSig.c ****             #if(ADC_DelSig_DEFAULT_INTERNAL_CLK)
1517:.\Generated_Source\PSoC5/ADC_DelSig.c ****                 ADC_DelSig_theACLK_SetDividerRegister(ADC_DelSig_CFG4_ADC_CLK_DIVIDER, 1u);
1518:.\Generated_Source\PSoC5/ADC_DelSig.c ****             #endif /* ADC_DelSig_DEFAULT_INTERNAL_CLK */
1519:.\Generated_Source\PSoC5/ADC_DelSig.c **** 
1520:.\Generated_Source\PSoC5/ADC_DelSig.c ****             #if(ADC_DelSig_IRQ_REMOVE == 0u)
1521:.\Generated_Source\PSoC5/ADC_DelSig.c ****                 /* Set interrupt vector */
1522:.\Generated_Source\PSoC5/ADC_DelSig.c ****                 (void)CyIntSetVector(ADC_DelSig_INTC_NUMBER, &ADC_DelSig_ISR4);
1523:.\Generated_Source\PSoC5/ADC_DelSig.c ****             #endif   /* End ADC_DelSig_IRQ_REMOVE */
1524:.\Generated_Source\PSoC5/ADC_DelSig.c ****         }
1525:.\Generated_Source\PSoC5/ADC_DelSig.c ****     #endif /* ADC_DelSig_DEFAULT_NUM_CONFIGS > 3 */
1526:.\Generated_Source\PSoC5/ADC_DelSig.c **** }
1527:.\Generated_Source\PSoC5/ADC_DelSig.c **** 
1528:.\Generated_Source\PSoC5/ADC_DelSig.c **** 
1529:.\Generated_Source\PSoC5/ADC_DelSig.c **** /*******************************************************************************
1530:.\Generated_Source\PSoC5/ADC_DelSig.c **** * Function Name: ADC_DelSig_SelectCofiguration
1531:.\Generated_Source\PSoC5/ADC_DelSig.c **** ********************************************************************************
1532:.\Generated_Source\PSoC5/ADC_DelSig.c **** *
1533:.\Generated_Source\PSoC5/ADC_DelSig.c **** * Summary:
1534:.\Generated_Source\PSoC5/ADC_DelSig.c **** *  Sets one of up to four ADC configurations. Before setting the new
1535:.\Generated_Source\PSoC5/ADC_DelSig.c **** *  configuration, the ADC is stopped and powered down. After setting
1536:.\Generated_Source\PSoC5/ADC_DelSig.c **** *  the new configuration, the ADC can be powered and conversion
1537:.\Generated_Source\PSoC5/ADC_DelSig.c **** *  can be restarted depending up on the value of second parameter
1538:.\Generated_Source\PSoC5/ADC_DelSig.c **** *  restart. If the value of this parameter is 1, then ADC will be
1539:.\Generated_Source\PSoC5/ADC_DelSig.c **** *  restarted. If this value is zero, then user must call ADC_DelSig_Start
1540:.\Generated_Source\PSoC5/ADC_DelSig.c **** *  and ADC_DelSig_StartConvert() to restart the conversion.
1541:.\Generated_Source\PSoC5/ADC_DelSig.c **** *
1542:.\Generated_Source\PSoC5/ADC_DelSig.c **** * Parameters:
1543:.\Generated_Source\PSoC5/ADC_DelSig.c **** *  config:  configuration user wants to select.
1544:.\Generated_Source\PSoC5/ADC_DelSig.c **** *           Valid range: 1..4
1545:.\Generated_Source\PSoC5/ADC_DelSig.c **** *  restart:  Restart option. 1 means start the ADC and restart the conversion.
1546:.\Generated_Source\PSoC5/ADC_DelSig.c **** *                            0 means do not start the ADC and conversion.
1547:.\Generated_Source\PSoC5/ADC_DelSig.c **** *
1548:.\Generated_Source\PSoC5/ADC_DelSig.c **** * Return:
1549:.\Generated_Source\PSoC5/ADC_DelSig.c **** *  None
1550:.\Generated_Source\PSoC5/ADC_DelSig.c **** *
1551:.\Generated_Source\PSoC5/ADC_DelSig.c **** *******************************************************************************/
1552:.\Generated_Source\PSoC5/ADC_DelSig.c **** void ADC_DelSig_SelectConfiguration(uint8 config, uint8 restart)
1553:.\Generated_Source\PSoC5/ADC_DelSig.c ****                                               
1554:.\Generated_Source\PSoC5/ADC_DelSig.c **** {
1555:.\Generated_Source\PSoC5/ADC_DelSig.c ****     /* Check whether the configuration number is valid or not */
1556:.\Generated_Source\PSoC5/ADC_DelSig.c ****     if((config > 0u) && (config <= ADC_DelSig_DEFAULT_NUM_CONFIGS))
1557:.\Generated_Source\PSoC5/ADC_DelSig.c ****     {
1558:.\Generated_Source\PSoC5/ADC_DelSig.c ****         /* Set the flag to ensure Start() API doesn't override the 
1559:.\Generated_Source\PSoC5/ADC_DelSig.c **** 		*  selected configuration
1560:.\Generated_Source\PSoC5/ADC_DelSig.c **** 		*/
1561:.\Generated_Source\PSoC5/ADC_DelSig.c ****         if(ADC_DelSig_initVar == 0u)
1562:.\Generated_Source\PSoC5/ADC_DelSig.c ****         {
1563:.\Generated_Source\PSoC5/ADC_DelSig.c ****             ADC_DelSig_started = 1u;
1564:.\Generated_Source\PSoC5/ADC_DelSig.c ****         }
1565:.\Generated_Source\PSoC5/ADC_DelSig.c **** 
1566:.\Generated_Source\PSoC5/ADC_DelSig.c ****         /* Update the config flag */
1567:.\Generated_Source\PSoC5/ADC_DelSig.c ****         ADC_DelSig_Config = config;
1568:.\Generated_Source\PSoC5/ADC_DelSig.c **** 
1569:.\Generated_Source\PSoC5/ADC_DelSig.c ****         /* Stop the ADC  */
1570:.\Generated_Source\PSoC5/ADC_DelSig.c ****         ADC_DelSig_Stop();
1571:.\Generated_Source\PSoC5/ADC_DelSig.c **** 
ARM GAS  C:\Users\mitchell\AppData\Local\Temp\ccpqy6v3.s 			page 29


1572:.\Generated_Source\PSoC5/ADC_DelSig.c ****         /* Set the  ADC registers based on the configuration */
1573:.\Generated_Source\PSoC5/ADC_DelSig.c ****         ADC_DelSig_InitConfig(config);
1574:.\Generated_Source\PSoC5/ADC_DelSig.c **** 
1575:.\Generated_Source\PSoC5/ADC_DelSig.c ****         /* Compensate the gain */
1576:.\Generated_Source\PSoC5/ADC_DelSig.c ****         ADC_DelSig_DEC_GVAL_REG = ADC_DelSig_gcor[config - 1u].gval;
1577:.\Generated_Source\PSoC5/ADC_DelSig.c ****         CY_SET_REG16(ADC_DelSig_DEC_GCOR_16B_PTR, ADC_DelSig_gcor[config - 1u].gcor);
1578:.\Generated_Source\PSoC5/ADC_DelSig.c **** 
1579:.\Generated_Source\PSoC5/ADC_DelSig.c ****         if(restart == 1u)
1580:.\Generated_Source\PSoC5/ADC_DelSig.c ****         {
1581:.\Generated_Source\PSoC5/ADC_DelSig.c ****             /* Restart the ADC */
1582:.\Generated_Source\PSoC5/ADC_DelSig.c ****             ADC_DelSig_Start();
1583:.\Generated_Source\PSoC5/ADC_DelSig.c **** 
1584:.\Generated_Source\PSoC5/ADC_DelSig.c ****             /* Restart the ADC conversion */
1585:.\Generated_Source\PSoC5/ADC_DelSig.c ****             ADC_DelSig_StartConvert();
1586:.\Generated_Source\PSoC5/ADC_DelSig.c ****         }
1587:.\Generated_Source\PSoC5/ADC_DelSig.c ****     }
1588:.\Generated_Source\PSoC5/ADC_DelSig.c ****     else
1589:.\Generated_Source\PSoC5/ADC_DelSig.c ****     {
1590:.\Generated_Source\PSoC5/ADC_DelSig.c ****         /* Halt CPU in debug mode if config is out of valid range */
1591:.\Generated_Source\PSoC5/ADC_DelSig.c ****         CYASSERT(0u != 0u);
1592:.\Generated_Source\PSoC5/ADC_DelSig.c ****     }
1593:.\Generated_Source\PSoC5/ADC_DelSig.c **** }
1594:.\Generated_Source\PSoC5/ADC_DelSig.c **** 
1595:.\Generated_Source\PSoC5/ADC_DelSig.c **** 
1596:.\Generated_Source\PSoC5/ADC_DelSig.c **** /*******************************************************************************
1597:.\Generated_Source\PSoC5/ADC_DelSig.c **** * Function Name: ADC_DelSig_GainCompensation
1598:.\Generated_Source\PSoC5/ADC_DelSig.c **** ********************************************************************************
1599:.\Generated_Source\PSoC5/ADC_DelSig.c **** *
1600:.\Generated_Source\PSoC5/ADC_DelSig.c **** * Summary:
1601:.\Generated_Source\PSoC5/ADC_DelSig.c **** *  This API calculates the trim value and then store this to gcor structure.
1602:.\Generated_Source\PSoC5/ADC_DelSig.c **** *
1603:.\Generated_Source\PSoC5/ADC_DelSig.c **** * Parameters:
1604:.\Generated_Source\PSoC5/ADC_DelSig.c **** *  inputRange:  input range for which trim value is to be calculated.
1605:.\Generated_Source\PSoC5/ADC_DelSig.c **** *  IdealDecGain:  Ideal Decimator gain for the selected resolution and
1606:.\Generated_Source\PSoC5/ADC_DelSig.c **** *                 conversion  mode.
1607:.\Generated_Source\PSoC5/ADC_DelSig.c **** *  IdealOddDecGain:  Ideal odd decimation gain for the selected resolution and
1608:.\Generated_Source\PSoC5/ADC_DelSig.c ****                      conversion mode.
1609:.\Generated_Source\PSoC5/ADC_DelSig.c **** *  resolution:  Resolution to select the proper flash location for trim value.
1610:.\Generated_Source\PSoC5/ADC_DelSig.c **** *  config:      Specifies the configuration number
1611:.\Generated_Source\PSoC5/ADC_DelSig.c **** *               Valid range: 1..4
1612:.\Generated_Source\PSoC5/ADC_DelSig.c **** *
1613:.\Generated_Source\PSoC5/ADC_DelSig.c **** * Return:
1614:.\Generated_Source\PSoC5/ADC_DelSig.c **** *  None
1615:.\Generated_Source\PSoC5/ADC_DelSig.c **** *
1616:.\Generated_Source\PSoC5/ADC_DelSig.c **** *******************************************************************************/
1617:.\Generated_Source\PSoC5/ADC_DelSig.c **** static void ADC_DelSig_GainCompensation(uint8 inputRange, uint16 idealDecGain, uint16 idealOddDecGa
1618:.\Generated_Source\PSoC5/ADC_DelSig.c ****                               uint8 resolution, uint8 config) 
1619:.\Generated_Source\PSoC5/ADC_DelSig.c **** {
  26              		.loc 1 1619 0
  27              		.cfi_startproc
  28              		@ args = 4, pretend = 0, frame = 0
  29              		@ frame_needed = 0, uses_anonymous_args = 0
  30              	.LVL0:
  31 0000 38B5     		push	{r3, r4, r5, lr}
  32              		.cfi_def_cfa_offset 16
  33              		.cfi_offset 3, -16
  34              		.cfi_offset 4, -12
ARM GAS  C:\Users\mitchell\AppData\Local\Temp\ccpqy6v3.s 			page 30


  35              		.cfi_offset 5, -8
  36              		.cfi_offset 14, -4
  37 0002 9DF81040 		ldrb	r4, [sp, #16]	@ zero_extendqisi2
1620:.\Generated_Source\PSoC5/ADC_DelSig.c ****     int8 flash;
1621:.\Generated_Source\PSoC5/ADC_DelSig.c **** 	int32 normalised;
1622:.\Generated_Source\PSoC5/ADC_DelSig.c **** 	uint16 gcorValue;
1623:.\Generated_Source\PSoC5/ADC_DelSig.c ****     uint32 gcorTmp;
1624:.\Generated_Source\PSoC5/ADC_DelSig.c **** 
1625:.\Generated_Source\PSoC5/ADC_DelSig.c ****     if((config > 0u) && (config <= ADC_DelSig_DEFAULT_NUM_CONFIGS))
  38              		.loc 1 1625 0
  39 0006 012C     		cmp	r4, #1
  40 0008 49D1     		bne	.L2
1626:.\Generated_Source\PSoC5/ADC_DelSig.c ****     {
1627:.\Generated_Source\PSoC5/ADC_DelSig.c ****         switch(inputRange)
  41              		.loc 1 1627 0
  42 000a 0138     		subs	r0, r0, #1
  43              	.LVL1:
  44 000c 0928     		cmp	r0, #9
  45 000e 26D8     		bhi	.L16
  46 0010 DFE800F0 		tbb	[pc, r0]
  47              	.L5:
  48 0014 05       		.byte	(.L4-.L5)/2
  49 0015 25       		.byte	(.L16-.L5)/2
  50 0016 25       		.byte	(.L16-.L5)/2
  51 0017 05       		.byte	(.L4-.L5)/2
  52 0018 25       		.byte	(.L16-.L5)/2
  53 0019 25       		.byte	(.L16-.L5)/2
  54 001a 0D       		.byte	(.L6-.L5)/2
  55 001b 15       		.byte	(.L7-.L5)/2
  56 001c 25       		.byte	(.L16-.L5)/2
  57 001d 1D       		.byte	(.L8-.L5)/2
  58              		.p2align 1
  59              	.L4:
1628:.\Generated_Source\PSoC5/ADC_DelSig.c ****         {
1629:.\Generated_Source\PSoC5/ADC_DelSig.c ****             case ADC_DelSig_IR_VNEG_VREF_DIFF:
1630:.\Generated_Source\PSoC5/ADC_DelSig.c ****             case ADC_DelSig_IR_VSSA_TO_2VREF:
1631:.\Generated_Source\PSoC5/ADC_DelSig.c ****                 /* Normalize the flash Value */
1632:.\Generated_Source\PSoC5/ADC_DelSig.c ****                 if(resolution > 15u)
  60              		.loc 1 1632 0
  61 001e 0F2B     		cmp	r3, #15
  62 0020 02D9     		bls	.L9
1633:.\Generated_Source\PSoC5/ADC_DelSig.c ****                 {
1634:.\Generated_Source\PSoC5/ADC_DelSig.c ****                     flash = ADC_DelSig_DEC_TRIM_VREF_DIFF_16_20;
  63              		.loc 1 1634 0
  64 0022 2148     		ldr	r0, .L17
  65 0024 0078     		ldrb	r0, [r0]	@ zero_extendqisi2
  66              	.LVL2:
  67 0026 1BE0     		b	.L3
  68              	.LVL3:
  69              	.L9:
1635:.\Generated_Source\PSoC5/ADC_DelSig.c ****                 }
1636:.\Generated_Source\PSoC5/ADC_DelSig.c ****                 else
1637:.\Generated_Source\PSoC5/ADC_DelSig.c ****                 {
1638:.\Generated_Source\PSoC5/ADC_DelSig.c ****                     flash = ADC_DelSig_DEC_TRIM_VREF_DIFF_8_15;
  70              		.loc 1 1638 0
  71 0028 2048     		ldr	r0, .L17+4
  72 002a 0078     		ldrb	r0, [r0]	@ zero_extendqisi2
ARM GAS  C:\Users\mitchell\AppData\Local\Temp\ccpqy6v3.s 			page 31


  73              	.LVL4:
  74 002c 18E0     		b	.L3
  75              	.LVL5:
  76              	.L6:
1639:.\Generated_Source\PSoC5/ADC_DelSig.c ****                 }
1640:.\Generated_Source\PSoC5/ADC_DelSig.c ****                 break;
1641:.\Generated_Source\PSoC5/ADC_DelSig.c **** 
1642:.\Generated_Source\PSoC5/ADC_DelSig.c ****             case ADC_DelSig_IR_VNEG_VREF_2_DIFF:
1643:.\Generated_Source\PSoC5/ADC_DelSig.c ****                 /* Normalize the flash Value */
1644:.\Generated_Source\PSoC5/ADC_DelSig.c ****                 if(resolution > 15u)
  77              		.loc 1 1644 0
  78 002e 0F2B     		cmp	r3, #15
  79 0030 02D9     		bls	.L10
1645:.\Generated_Source\PSoC5/ADC_DelSig.c ****                 {
1646:.\Generated_Source\PSoC5/ADC_DelSig.c ****                     flash = ADC_DelSig_DEC_TRIM_VREF_2_DIFF_16_20;
  80              		.loc 1 1646 0
  81 0032 1F48     		ldr	r0, .L17+8
  82 0034 0078     		ldrb	r0, [r0]	@ zero_extendqisi2
  83              	.LVL6:
  84 0036 13E0     		b	.L3
  85              	.LVL7:
  86              	.L10:
1647:.\Generated_Source\PSoC5/ADC_DelSig.c ****                 }
1648:.\Generated_Source\PSoC5/ADC_DelSig.c ****                 else
1649:.\Generated_Source\PSoC5/ADC_DelSig.c ****                 {
1650:.\Generated_Source\PSoC5/ADC_DelSig.c ****                     flash = ADC_DelSig_DEC_TRIM_VREF_2_DIFF_8_15;
  87              		.loc 1 1650 0
  88 0038 1E48     		ldr	r0, .L17+12
  89 003a 0078     		ldrb	r0, [r0]	@ zero_extendqisi2
  90              	.LVL8:
  91 003c 10E0     		b	.L3
  92              	.LVL9:
  93              	.L7:
1651:.\Generated_Source\PSoC5/ADC_DelSig.c ****                 }
1652:.\Generated_Source\PSoC5/ADC_DelSig.c ****                 break;
1653:.\Generated_Source\PSoC5/ADC_DelSig.c **** 
1654:.\Generated_Source\PSoC5/ADC_DelSig.c ****             case ADC_DelSig_IR_VNEG_VREF_4_DIFF:
1655:.\Generated_Source\PSoC5/ADC_DelSig.c ****                 /* Normalize the flash Value */
1656:.\Generated_Source\PSoC5/ADC_DelSig.c ****                 if(resolution > 15u)
  94              		.loc 1 1656 0
  95 003e 0F2B     		cmp	r3, #15
  96 0040 02D9     		bls	.L11
1657:.\Generated_Source\PSoC5/ADC_DelSig.c ****                 {
1658:.\Generated_Source\PSoC5/ADC_DelSig.c ****                     flash = ADC_DelSig_DEC_TRIM_VREF_4_DIFF_16_20;
  97              		.loc 1 1658 0
  98 0042 1D48     		ldr	r0, .L17+16
  99 0044 0078     		ldrb	r0, [r0]	@ zero_extendqisi2
 100              	.LVL10:
 101 0046 0BE0     		b	.L3
 102              	.LVL11:
 103              	.L11:
1659:.\Generated_Source\PSoC5/ADC_DelSig.c ****                 }
1660:.\Generated_Source\PSoC5/ADC_DelSig.c ****                 else
1661:.\Generated_Source\PSoC5/ADC_DelSig.c ****                 {
1662:.\Generated_Source\PSoC5/ADC_DelSig.c ****                     flash = ADC_DelSig_DEC_TRIM_VREF_4_DIFF_8_15;
 104              		.loc 1 1662 0
 105 0048 1C48     		ldr	r0, .L17+20
ARM GAS  C:\Users\mitchell\AppData\Local\Temp\ccpqy6v3.s 			page 32


 106 004a 0078     		ldrb	r0, [r0]	@ zero_extendqisi2
 107              	.LVL12:
 108 004c 08E0     		b	.L3
 109              	.LVL13:
 110              	.L8:
1663:.\Generated_Source\PSoC5/ADC_DelSig.c ****                 }
1664:.\Generated_Source\PSoC5/ADC_DelSig.c ****                 break;
1665:.\Generated_Source\PSoC5/ADC_DelSig.c **** 
1666:.\Generated_Source\PSoC5/ADC_DelSig.c ****             case ADC_DelSig_IR_VNEG_VREF_16_DIFF:
1667:.\Generated_Source\PSoC5/ADC_DelSig.c ****                 /* Normalize the flash Value */
1668:.\Generated_Source\PSoC5/ADC_DelSig.c ****                 if(resolution > 15u)
 111              		.loc 1 1668 0
 112 004e 0F2B     		cmp	r3, #15
 113 0050 02D9     		bls	.L12
1669:.\Generated_Source\PSoC5/ADC_DelSig.c ****                 {
1670:.\Generated_Source\PSoC5/ADC_DelSig.c ****                     flash = ADC_DelSig_DEC_TRIM_VREF_16_DIFF_16_20;
 114              		.loc 1 1670 0
 115 0052 1B48     		ldr	r0, .L17+24
 116 0054 0078     		ldrb	r0, [r0]	@ zero_extendqisi2
 117              	.LVL14:
 118 0056 03E0     		b	.L3
 119              	.LVL15:
 120              	.L12:
1671:.\Generated_Source\PSoC5/ADC_DelSig.c ****                 }
1672:.\Generated_Source\PSoC5/ADC_DelSig.c ****                 else
1673:.\Generated_Source\PSoC5/ADC_DelSig.c ****                 {
1674:.\Generated_Source\PSoC5/ADC_DelSig.c ****                     flash = ADC_DelSig_DEC_TRIM_VREF_16_DIFF_8_15;
 121              		.loc 1 1674 0
 122 0058 1A48     		ldr	r0, .L17+28
 123 005a 0078     		ldrb	r0, [r0]	@ zero_extendqisi2
 124              	.LVL16:
 125 005c 00E0     		b	.L3
 126              	.LVL17:
 127              	.L16:
1675:.\Generated_Source\PSoC5/ADC_DelSig.c ****                 }
1676:.\Generated_Source\PSoC5/ADC_DelSig.c ****                 break;
1677:.\Generated_Source\PSoC5/ADC_DelSig.c **** 
1678:.\Generated_Source\PSoC5/ADC_DelSig.c ****             default:
1679:.\Generated_Source\PSoC5/ADC_DelSig.c ****                 flash = 0;
 128              		.loc 1 1679 0
 129 005e 0020     		movs	r0, #0
 130              	.L3:
 131              	.LVL18:
1680:.\Generated_Source\PSoC5/ADC_DelSig.c ****                 break;
1681:.\Generated_Source\PSoC5/ADC_DelSig.c ****         }
1682:.\Generated_Source\PSoC5/ADC_DelSig.c **** 
1683:.\Generated_Source\PSoC5/ADC_DelSig.c ****         /* Add two values */
1684:.\Generated_Source\PSoC5/ADC_DelSig.c **** 		normalised = (int32)idealDecGain + ((int32)flash * 32);
 132              		.loc 1 1684 0
 133 0060 40B2     		sxtb	r0, r0
 134              	.LVL19:
 135 0062 01EB4011 		add	r1, r1, r0, lsl #5
 136              	.LVL20:
1685:.\Generated_Source\PSoC5/ADC_DelSig.c ****         gcorTmp = (uint32)normalised * (uint32)idealOddDecGain;
 137              		.loc 1 1685 0
 138 0066 01FB02F2 		mul	r2, r1, r2
 139              	.LVL21:
ARM GAS  C:\Users\mitchell\AppData\Local\Temp\ccpqy6v3.s 			page 33


1686:.\Generated_Source\PSoC5/ADC_DelSig.c ****         gcorValue = (uint16)(gcorTmp / ADC_DelSig_IDEAL_GAIN_CONST);
 140              		.loc 1 1686 0
 141 006a D20B     		lsrs	r2, r2, #15
 142              	.LVL22:
 143 006c 90B2     		uxth	r0, r2
 144              	.LVL23:
1687:.\Generated_Source\PSoC5/ADC_DelSig.c **** 
1688:.\Generated_Source\PSoC5/ADC_DelSig.c ****         if (resolution < (ADC_DelSig_MAX_GVAL - 1u))
 145              		.loc 1 1688 0
 146 006e 0D2B     		cmp	r3, #13
 147 0070 0AD8     		bhi	.L13
1689:.\Generated_Source\PSoC5/ADC_DelSig.c ****         {
1690:.\Generated_Source\PSoC5/ADC_DelSig.c ****             gcorValue = (gcorValue >> (ADC_DelSig_MAX_GVAL - (resolution + 1u)));
 148              		.loc 1 1690 0
 149 0072 C3F10E01 		rsb	r1, r3, #14
 150              	.LVL24:
 151 0076 0841     		asrs	r0, r0, r1
 152 0078 80B2     		uxth	r0, r0
 153              	.LVL25:
1691:.\Generated_Source\PSoC5/ADC_DelSig.c ****             ADC_DelSig_gcor[config - 1u].gval = (resolution + 1u);
 154              		.loc 1 1691 0
 155 007a 134A     		ldr	r2, .L17+32
 156 007c 02EB8402 		add	r2, r2, r4, lsl #2
 157 0080 0133     		adds	r3, r3, #1
 158              	.LVL26:
 159 0082 02F8023C 		strb	r3, [r2, #-2]
 160 0086 05E0     		b	.L14
 161              	.LVL27:
 162              	.L13:
1692:.\Generated_Source\PSoC5/ADC_DelSig.c ****         }
1693:.\Generated_Source\PSoC5/ADC_DelSig.c ****         else
1694:.\Generated_Source\PSoC5/ADC_DelSig.c ****         {
1695:.\Generated_Source\PSoC5/ADC_DelSig.c ****             /* Use all 16 bits */
1696:.\Generated_Source\PSoC5/ADC_DelSig.c ****             ADC_DelSig_gcor[config - 1u].gval = ADC_DelSig_MAX_GVAL;
 163              		.loc 1 1696 0
 164 0088 0F4B     		ldr	r3, .L17+32
 165              	.LVL28:
 166 008a 03EB8403 		add	r3, r3, r4, lsl #2
 167 008e 0F22     		movs	r2, #15
 168              	.LVL29:
 169 0090 03F8022C 		strb	r2, [r3, #-2]
 170              	.LVL30:
 171              	.L14:
1697:.\Generated_Source\PSoC5/ADC_DelSig.c ****         }
1698:.\Generated_Source\PSoC5/ADC_DelSig.c **** 
1699:.\Generated_Source\PSoC5/ADC_DelSig.c ****         /* Save the gain correction register value */
1700:.\Generated_Source\PSoC5/ADC_DelSig.c ****         ADC_DelSig_gcor[config - 1u].gcor = gcorValue;
 172              		.loc 1 1700 0 discriminator 1
 173 0094 013C     		subs	r4, r4, #1
 174 0096 0C4B     		ldr	r3, .L17+32
 175 0098 23F82400 		strh	r0, [r3, r4, lsl #2]	@ movhi
 176 009c 38BD     		pop	{r3, r4, r5, pc}
 177              	.LVL31:
 178              	.L2:
1701:.\Generated_Source\PSoC5/ADC_DelSig.c ****     }
1702:.\Generated_Source\PSoC5/ADC_DelSig.c ****     else
1703:.\Generated_Source\PSoC5/ADC_DelSig.c ****     {
ARM GAS  C:\Users\mitchell\AppData\Local\Temp\ccpqy6v3.s 			page 34


1704:.\Generated_Source\PSoC5/ADC_DelSig.c ****         /* Halt CPU in debug mode if config is out of valid range */
1705:.\Generated_Source\PSoC5/ADC_DelSig.c ****         CYASSERT(0u != 0u);
 179              		.loc 1 1705 0 discriminator 1
 180 009e 0020     		movs	r0, #0
 181              	.LVL32:
 182 00a0 FFF7FEFF 		bl	CyHalt
 183              	.LVL33:
 184 00a4 38BD     		pop	{r3, r4, r5, pc}
 185              	.LVL34:
 186              	.L18:
 187 00a6 00BF     		.align	2
 188              	.L17:
 189 00a8 18010049 		.word	1224737048
 190 00ac 1C010049 		.word	1224737052
 191 00b0 19010049 		.word	1224737049
 192 00b4 1D010049 		.word	1224737053
 193 00b8 1A010049 		.word	1224737050
 194 00bc 1E010049 		.word	1224737054
 195 00c0 1B010049 		.word	1224737051
 196 00c4 1F010049 		.word	1224737055
 197 00c8 00000000 		.word	.LANCHOR0
 198              		.cfi_endproc
 199              	.LFE21:
 200              		.size	ADC_DelSig_GainCompensation, .-ADC_DelSig_GainCompensation
 201              		.section	.text.ADC_DelSig_SetDSMRef0Reg,"ax",%progbits
 202              		.align	2
 203              		.thumb
 204              		.thumb_func
 205              		.type	ADC_DelSig_SetDSMRef0Reg, %function
 206              	ADC_DelSig_SetDSMRef0Reg:
 207              	.LFB22:
1706:.\Generated_Source\PSoC5/ADC_DelSig.c ****     }
1707:.\Generated_Source\PSoC5/ADC_DelSig.c **** }
1708:.\Generated_Source\PSoC5/ADC_DelSig.c **** 
1709:.\Generated_Source\PSoC5/ADC_DelSig.c **** 
1710:.\Generated_Source\PSoC5/ADC_DelSig.c **** /******************************************************************************
1711:.\Generated_Source\PSoC5/ADC_DelSig.c **** * Function Name: ADC_DelSig_SetDSMRef0Reg(uint8)
1712:.\Generated_Source\PSoC5/ADC_DelSig.c **** ******************************************************************************
1713:.\Generated_Source\PSoC5/ADC_DelSig.c **** *
1714:.\Generated_Source\PSoC5/ADC_DelSig.c **** * Summary:
1715:.\Generated_Source\PSoC5/ADC_DelSig.c **** *  This API sets the DSM_REF0 register. This is written for internal use.
1716:.\Generated_Source\PSoC5/ADC_DelSig.c **** *
1717:.\Generated_Source\PSoC5/ADC_DelSig.c **** * Parameters:
1718:.\Generated_Source\PSoC5/ADC_DelSig.c **** *  value:  Value to be written to DSM_REF0 register.
1719:.\Generated_Source\PSoC5/ADC_DelSig.c **** *
1720:.\Generated_Source\PSoC5/ADC_DelSig.c **** * Return:
1721:.\Generated_Source\PSoC5/ADC_DelSig.c **** *  None
1722:.\Generated_Source\PSoC5/ADC_DelSig.c **** *
1723:.\Generated_Source\PSoC5/ADC_DelSig.c **** ******************************************************************************/
1724:.\Generated_Source\PSoC5/ADC_DelSig.c **** static void ADC_DelSig_SetDSMRef0Reg(uint8 value) 
1725:.\Generated_Source\PSoC5/ADC_DelSig.c **** {
 208              		.loc 1 1725 0
 209              		.cfi_startproc
 210              		@ args = 0, pretend = 0, frame = 0
 211              		@ frame_needed = 0, uses_anonymous_args = 0
 212              	.LVL35:
 213 0000 F8B5     		push	{r3, r4, r5, r6, r7, lr}
ARM GAS  C:\Users\mitchell\AppData\Local\Temp\ccpqy6v3.s 			page 35


 214              		.cfi_def_cfa_offset 24
 215              		.cfi_offset 3, -24
 216              		.cfi_offset 4, -20
 217              		.cfi_offset 5, -16
 218              		.cfi_offset 6, -12
 219              		.cfi_offset 7, -8
 220              		.cfi_offset 14, -4
 221 0002 0746     		mov	r7, r0
1726:.\Generated_Source\PSoC5/ADC_DelSig.c ****     uint8 enableInterrupts;
1727:.\Generated_Source\PSoC5/ADC_DelSig.c ****     enableInterrupts = CyEnterCriticalSection();
 222              		.loc 1 1727 0
 223 0004 FFF7FEFF 		bl	CyEnterCriticalSection
 224              	.LVL36:
 225 0008 0646     		mov	r6, r0
 226              	.LVL37:
1728:.\Generated_Source\PSoC5/ADC_DelSig.c **** 
1729:.\Generated_Source\PSoC5/ADC_DelSig.c ****     /* Disable PRES, Enable power to VCMBUF0, REFBUF0 and REFBUF1, enable PRES */
1730:.\Generated_Source\PSoC5/ADC_DelSig.c ****     ADC_DelSig_RESET_CR4_REG |= (ADC_DelSig_IGNORE_PRESA1 | ADC_DelSig_IGNORE_PRESD1);
 227              		.loc 1 1730 0
 228 000a 0D4D     		ldr	r5, .L20
 229 000c 2B78     		ldrb	r3, [r5]	@ zero_extendqisi2
 230 000e 43F00303 		orr	r3, r3, #3
 231 0012 2B70     		strb	r3, [r5]
1731:.\Generated_Source\PSoC5/ADC_DelSig.c ****     ADC_DelSig_RESET_CR5_REG |= (ADC_DelSig_IGNORE_PRESA2 | ADC_DelSig_IGNORE_PRESD2);
 232              		.loc 1 1731 0
 233 0014 0B4C     		ldr	r4, .L20+4
 234 0016 2378     		ldrb	r3, [r4]	@ zero_extendqisi2
 235 0018 43F00303 		orr	r3, r3, #3
 236 001c 2370     		strb	r3, [r4]
1732:.\Generated_Source\PSoC5/ADC_DelSig.c ****     ADC_DelSig_DSM_REF0_REG = value;
 237              		.loc 1 1732 0
 238 001e 0A4B     		ldr	r3, .L20+8
 239 0020 1F70     		strb	r7, [r3]
1733:.\Generated_Source\PSoC5/ADC_DelSig.c **** 
1734:.\Generated_Source\PSoC5/ADC_DelSig.c ****     /* Wait for 3 microseconds */
1735:.\Generated_Source\PSoC5/ADC_DelSig.c ****     CyDelayUs(ADC_DelSig_PRES_DELAY_TIME);
 240              		.loc 1 1735 0
 241 0022 0320     		movs	r0, #3
 242              	.LVL38:
 243 0024 FFF7FEFF 		bl	CyDelayUs
 244              	.LVL39:
1736:.\Generated_Source\PSoC5/ADC_DelSig.c ****     /* Enable the press circuit */
1737:.\Generated_Source\PSoC5/ADC_DelSig.c ****     ADC_DelSig_RESET_CR4_REG &= (uint8)~(ADC_DelSig_IGNORE_PRESA1 | ADC_DelSig_IGNORE_PRESD1);
 245              		.loc 1 1737 0
 246 0028 2B78     		ldrb	r3, [r5]	@ zero_extendqisi2
 247 002a 03F0FC03 		and	r3, r3, #252
 248 002e 2B70     		strb	r3, [r5]
1738:.\Generated_Source\PSoC5/ADC_DelSig.c ****     ADC_DelSig_RESET_CR5_REG &= (uint8)~(ADC_DelSig_IGNORE_PRESA2 | ADC_DelSig_IGNORE_PRESD2);
 249              		.loc 1 1738 0
 250 0030 2378     		ldrb	r3, [r4]	@ zero_extendqisi2
 251 0032 03F0FC03 		and	r3, r3, #252
 252 0036 2370     		strb	r3, [r4]
1739:.\Generated_Source\PSoC5/ADC_DelSig.c **** 
1740:.\Generated_Source\PSoC5/ADC_DelSig.c ****     CyExitCriticalSection(enableInterrupts);
 253              		.loc 1 1740 0
 254 0038 3046     		mov	r0, r6
 255 003a FFF7FEFF 		bl	CyExitCriticalSection
ARM GAS  C:\Users\mitchell\AppData\Local\Temp\ccpqy6v3.s 			page 36


 256              	.LVL40:
 257 003e F8BD     		pop	{r3, r4, r5, r6, r7, pc}
 258              	.LVL41:
 259              	.L21:
 260              		.align	2
 261              	.L20:
 262 0040 F8460040 		.word	1073759992
 263 0044 F9460040 		.word	1073759993
 264 0048 92580040 		.word	1073764498
 265              		.cfi_endproc
 266              	.LFE22:
 267              		.size	ADC_DelSig_SetDSMRef0Reg, .-ADC_DelSig_SetDSMRef0Reg
 268              		.section	.text.ADC_DelSig_InitConfig,"ax",%progbits
 269              		.align	2
 270              		.thumb
 271              		.thumb_func
 272              		.type	ADC_DelSig_InitConfig, %function
 273              	ADC_DelSig_InitConfig:
 274              	.LFB19:
1243:.\Generated_Source\PSoC5/ADC_DelSig.c **** {
 275              		.loc 1 1243 0
 276              		.cfi_startproc
 277              		@ args = 0, pretend = 0, frame = 0
 278              		@ frame_needed = 0, uses_anonymous_args = 0
 279              	.LVL42:
 280 0000 F8B5     		push	{r3, r4, r5, r6, r7, lr}
 281              		.cfi_def_cfa_offset 24
 282              		.cfi_offset 3, -24
 283              		.cfi_offset 4, -20
 284              		.cfi_offset 5, -16
 285              		.cfi_offset 6, -12
 286              		.cfi_offset 7, -8
 287              		.cfi_offset 14, -4
1244:.\Generated_Source\PSoC5/ADC_DelSig.c ****     ADC_DelSig_stopConversion = 0u;
 288              		.loc 1 1244 0
 289 0002 0022     		movs	r2, #0
 290 0004 304B     		ldr	r3, .L24
 291 0006 1A71     		strb	r2, [r3, #4]
1246:.\Generated_Source\PSoC5/ADC_DelSig.c ****     if (config == 1u)
 292              		.loc 1 1246 0
 293 0008 0128     		cmp	r0, #1
 294 000a 5BD1     		bne	.L22
1249:.\Generated_Source\PSoC5/ADC_DelSig.c ****         ADC_DelSig_DEC_CR_REG      = ADC_DelSig_CFG1_DEC_CR;
 295              		.loc 1 1249 0
 296 000c 3022     		movs	r2, #48
 297 000e 2F4B     		ldr	r3, .L24+4
 298 0010 1A70     		strb	r2, [r3]
1250:.\Generated_Source\PSoC5/ADC_DelSig.c ****         ADC_DelSig_DEC_SHIFT1_REG  = ADC_DelSig_CFG1_DEC_SHIFT1;
 299              		.loc 1 1250 0
 300 0012 0527     		movs	r7, #5
 301 0014 0233     		adds	r3, r3, #2
 302 0016 1F70     		strb	r7, [r3]
1251:.\Generated_Source\PSoC5/ADC_DelSig.c ****         ADC_DelSig_DEC_SHIFT2_REG  = ADC_DelSig_CFG1_DEC_SHIFT2;
 303              		.loc 1 1251 0
 304 0018 0722     		movs	r2, #7
 305 001a 0133     		adds	r3, r3, #1
 306 001c 1A70     		strb	r2, [r3]
ARM GAS  C:\Users\mitchell\AppData\Local\Temp\ccpqy6v3.s 			page 37


1252:.\Generated_Source\PSoC5/ADC_DelSig.c ****         ADC_DelSig_DEC_DR2_REG     = ADC_DelSig_CFG1_DEC_DR2;
 307              		.loc 1 1252 0
 308 001e 0024     		movs	r4, #0
 309 0020 0133     		adds	r3, r3, #1
 310 0022 1C70     		strb	r4, [r3]
1253:.\Generated_Source\PSoC5/ADC_DelSig.c ****         ADC_DelSig_DEC_DR2H_REG    = ADC_DelSig_CFG1_DEC_DR2H;
 311              		.loc 1 1253 0
 312 0024 0133     		adds	r3, r3, #1
 313 0026 1C70     		strb	r4, [r3]
1254:.\Generated_Source\PSoC5/ADC_DelSig.c ****         ADC_DelSig_DEC_DR1_REG     = ADC_DelSig_CFG1_DEC_DR1;
 314              		.loc 1 1254 0
 315 0028 2D22     		movs	r2, #45
 316 002a 0133     		adds	r3, r3, #1
 317 002c 1A70     		strb	r2, [r3]
1255:.\Generated_Source\PSoC5/ADC_DelSig.c ****         ADC_DelSig_DEC_OCOR_REG    = ADC_DelSig_CFG1_DEC_OCOR;
 318              		.loc 1 1255 0
 319 002e 0233     		adds	r3, r3, #2
 320 0030 1C70     		strb	r4, [r3]
1256:.\Generated_Source\PSoC5/ADC_DelSig.c ****         ADC_DelSig_DEC_OCORM_REG   = ADC_DelSig_CFG1_DEC_OCORM;
 321              		.loc 1 1256 0
 322 0032 0133     		adds	r3, r3, #1
 323 0034 1C70     		strb	r4, [r3]
1257:.\Generated_Source\PSoC5/ADC_DelSig.c ****         ADC_DelSig_DEC_OCORH_REG   = ADC_DelSig_CFG1_DEC_OCORH;
 324              		.loc 1 1257 0
 325 0036 0133     		adds	r3, r3, #1
 326 0038 1C70     		strb	r4, [r3]
1258:.\Generated_Source\PSoC5/ADC_DelSig.c ****         ADC_DelSig_DEC_COHER_REG   = ADC_DelSig_CFG1_DEC_COHER;
 327              		.loc 1 1258 0
 328 003a 0125     		movs	r5, #1
 329 003c 0A33     		adds	r3, r3, #10
 330 003e 1D70     		strb	r5, [r3]
1260:.\Generated_Source\PSoC5/ADC_DelSig.c ****         ADC_DelSig_DSM_CR4_REG     = ADC_DelSig_CFG1_DSM_CR4;
 331              		.loc 1 1260 0
 332 0040 1422     		movs	r2, #20
 333 0042 03F52763 		add	r3, r3, #2672
 334 0046 1A70     		strb	r2, [r3]
1261:.\Generated_Source\PSoC5/ADC_DelSig.c ****         ADC_DelSig_DSM_CR5_REG     = ADC_DelSig_CFG1_DSM_CR5;
 335              		.loc 1 1261 0
 336 0048 0133     		adds	r3, r3, #1
 337 004a 1F70     		strb	r7, [r3]
1262:.\Generated_Source\PSoC5/ADC_DelSig.c ****         ADC_DelSig_DSM_CR6_REG     = ADC_DelSig_CFG1_DSM_CR6;
 338              		.loc 1 1262 0
 339 004c 1622     		movs	r2, #22
 340 004e 0133     		adds	r3, r3, #1
 341 0050 1A70     		strb	r2, [r3]
1263:.\Generated_Source\PSoC5/ADC_DelSig.c ****         ADC_DelSig_DSM_CR7_REG     = ADC_DelSig_CFG1_DSM_CR7;
 342              		.loc 1 1263 0
 343 0052 0133     		adds	r3, r3, #1
 344 0054 1C70     		strb	r4, [r3]
1264:.\Generated_Source\PSoC5/ADC_DelSig.c ****         ADC_DelSig_DSM_CR10_REG    = ADC_DelSig_CFG1_DSM_CR10;
 345              		.loc 1 1264 0
 346 0056 4422     		movs	r2, #68
 347 0058 0333     		adds	r3, r3, #3
 348 005a 1A70     		strb	r2, [r3]
1265:.\Generated_Source\PSoC5/ADC_DelSig.c ****         ADC_DelSig_DSM_CR11_REG    = ADC_DelSig_CFG1_DSM_CR11;
 349              		.loc 1 1265 0
 350 005c 4822     		movs	r2, #72
ARM GAS  C:\Users\mitchell\AppData\Local\Temp\ccpqy6v3.s 			page 38


 351 005e 0133     		adds	r3, r3, #1
 352 0060 1A70     		strb	r2, [r3]
1266:.\Generated_Source\PSoC5/ADC_DelSig.c ****         ADC_DelSig_DSM_CR12_REG    = ADC_DelSig_CFG1_DSM_CR12;
 353              		.loc 1 1266 0
 354 0062 0133     		adds	r3, r3, #1
 355 0064 1D70     		strb	r5, [r3]
1267:.\Generated_Source\PSoC5/ADC_DelSig.c ****         ADC_DelSig_DSM_CR14_REG    = ADC_DelSig_CFG1_DSM_CR14;
 356              		.loc 1 1267 0
 357 0066 0226     		movs	r6, #2
 358 0068 0233     		adds	r3, r3, #2
 359 006a 1E70     		strb	r6, [r3]
1268:.\Generated_Source\PSoC5/ADC_DelSig.c ****         ADC_DelSig_DSM_CR15_REG    = ADC_DelSig_CFG1_DSM_CR15;
 360              		.loc 1 1268 0
 361 006c 2222     		movs	r2, #34
 362 006e 0133     		adds	r3, r3, #1
 363 0070 1A70     		strb	r2, [r3]
1269:.\Generated_Source\PSoC5/ADC_DelSig.c ****         ADC_DelSig_DSM_CR16_REG    = ADC_DelSig_CFG1_DSM_CR16;
 364              		.loc 1 1269 0
 365 0072 2822     		movs	r2, #40
 366 0074 0133     		adds	r3, r3, #1
 367 0076 1A70     		strb	r2, [r3]
1270:.\Generated_Source\PSoC5/ADC_DelSig.c ****         ADC_DelSig_DSM_CR17_REG    = ADC_DelSig_CFG1_DSM_CR17;
 368              		.loc 1 1270 0
 369 0078 EB22     		movs	r2, #235
 370 007a 0133     		adds	r3, r3, #1
 371 007c 1A70     		strb	r2, [r3]
1272:.\Generated_Source\PSoC5/ADC_DelSig.c ****         ADC_DelSig_SetDSMRef0Reg(ADC_DelSig_CFG1_DSM_REF0);
 372              		.loc 1 1272 0
 373 007e 5220     		movs	r0, #82
 374              	.LVL43:
 375 0080 FFF7FEFF 		bl	ADC_DelSig_SetDSMRef0Reg
 376              	.LVL44:
1273:.\Generated_Source\PSoC5/ADC_DelSig.c ****         ADC_DelSig_DSM_REF2_REG    = ADC_DelSig_CFG1_DSM_REF2;
 377              		.loc 1 1273 0
 378 0084 5822     		movs	r2, #88
 379 0086 124B     		ldr	r3, .L24+8
 380 0088 1A70     		strb	r2, [r3]
1274:.\Generated_Source\PSoC5/ADC_DelSig.c ****         ADC_DelSig_DSM_REF3_REG    = ADC_DelSig_CFG1_DSM_REF3;
 381              		.loc 1 1274 0
 382 008a 0133     		adds	r3, r3, #1
 383 008c 1C70     		strb	r4, [r3]
1276:.\Generated_Source\PSoC5/ADC_DelSig.c ****         ADC_DelSig_DSM_BUF0_REG    = ADC_DelSig_CFG1_DSM_BUF0;
 384              		.loc 1 1276 0
 385 008e 0533     		adds	r3, r3, #5
 386 0090 1F70     		strb	r7, [r3]
1277:.\Generated_Source\PSoC5/ADC_DelSig.c ****         ADC_DelSig_DSM_BUF1_REG    = ADC_DelSig_CFG1_DSM_BUF1;
 387              		.loc 1 1277 0
 388 0092 0133     		adds	r3, r3, #1
 389 0094 1E70     		strb	r6, [r3]
1278:.\Generated_Source\PSoC5/ADC_DelSig.c ****         ADC_DelSig_DSM_BUF2_REG    = ADC_DelSig_CFG1_DSM_BUF2;
 390              		.loc 1 1278 0
 391 0096 0133     		adds	r3, r3, #1
 392 0098 1C70     		strb	r4, [r3]
1279:.\Generated_Source\PSoC5/ADC_DelSig.c ****         ADC_DelSig_DSM_BUF3_REG    = ADC_DelSig_CFG1_DSM_BUF3;
 393              		.loc 1 1279 0
 394 009a 0133     		adds	r3, r3, #1
 395 009c 1C70     		strb	r4, [r3]
ARM GAS  C:\Users\mitchell\AppData\Local\Temp\ccpqy6v3.s 			page 39


1288:.\Generated_Source\PSoC5/ADC_DelSig.c ****                 ADC_DelSig_AMux_Select(0u);
 396              		.loc 1 1288 0
 397 009e 2046     		mov	r0, r4
 398 00a0 FFF7FEFF 		bl	ADC_DelSig_AMux_Select
 399              	.LVL45:
1300:.\Generated_Source\PSoC5/ADC_DelSig.c ****         ADC_DelSig_CountsPerVolt = (int32)ADC_DelSig_CFG1_COUNTS_PER_VOLT;
 400              		.loc 1 1300 0
 401 00a4 40F6CD42 		movw	r2, #3277
 402 00a8 0A4B     		ldr	r3, .L24+12
 403 00aa 1A60     		str	r2, [r3]
1302:.\Generated_Source\PSoC5/ADC_DelSig.c ****         ADC_DelSig_Ext_CP_Clk_SetDividerRegister(ADC_DelSig_CFG1_CP_CLK_DIVIDER, 1u);
 404              		.loc 1 1302 0
 405 00ac 3046     		mov	r0, r6
 406 00ae 2946     		mov	r1, r5
 407 00b0 FFF7FEFF 		bl	ADC_DelSig_Ext_CP_Clk_SetDividerRegister
 408              	.LVL46:
1306:.\Generated_Source\PSoC5/ADC_DelSig.c ****             ADC_DelSig_theACLK_SetDividerRegister(ADC_DelSig_CFG1_ADC_CLK_DIVIDER, 1u);
 409              		.loc 1 1306 0
 410 00b4 0C20     		movs	r0, #12
 411 00b6 2946     		mov	r1, r5
 412 00b8 FFF7FEFF 		bl	ADC_DelSig_theACLK_SetDividerRegister
 413              	.LVL47:
1311:.\Generated_Source\PSoC5/ADC_DelSig.c ****             (void)CyIntSetVector(ADC_DelSig_INTC_NUMBER, &ADC_DelSig_ISR1);
 414              		.loc 1 1311 0
 415 00bc 1D20     		movs	r0, #29
 416 00be 0649     		ldr	r1, .L24+16
 417 00c0 FFF7FEFF 		bl	CyIntSetVector
 418              	.LVL48:
 419              	.L22:
 420 00c4 F8BD     		pop	{r3, r4, r5, r6, r7, pc}
 421              	.L25:
 422 00c6 00BF     		.align	2
 423              	.L24:
 424 00c8 00000000 		.word	.LANCHOR0
 425 00cc 004E0040 		.word	1073761792
 426 00d0 94580040 		.word	1073764500
 427 00d4 00000000 		.word	ADC_DelSig_CountsPerVolt
 428 00d8 00000000 		.word	ADC_DelSig_ISR1
 429              		.cfi_endproc
 430              	.LFE19:
 431              		.size	ADC_DelSig_InitConfig, .-ADC_DelSig_InitConfig
 432              		.section	.text.ADC_DelSig_Init,"ax",%progbits
 433              		.align	2
 434              		.global	ADC_DelSig_Init
 435              		.thumb
 436              		.thumb_func
 437              		.type	ADC_DelSig_Init, %function
 438              	ADC_DelSig_Init:
 439              	.LFB0:
  92:.\Generated_Source\PSoC5/ADC_DelSig.c **** {
 440              		.loc 1 92 0
 441              		.cfi_startproc
 442              		@ args = 0, pretend = 0, frame = 0
 443              		@ frame_needed = 0, uses_anonymous_args = 0
 444 0000 F0B5     		push	{r4, r5, r6, r7, lr}
 445              		.cfi_def_cfa_offset 20
 446              		.cfi_offset 4, -20
ARM GAS  C:\Users\mitchell\AppData\Local\Temp\ccpqy6v3.s 			page 40


 447              		.cfi_offset 5, -16
 448              		.cfi_offset 6, -12
 449              		.cfi_offset 7, -8
 450              		.cfi_offset 14, -4
 451 0002 83B0     		sub	sp, sp, #12
 452              		.cfi_def_cfa_offset 32
  94:.\Generated_Source\PSoC5/ADC_DelSig.c ****     ADC_DelSig_Config = 1u;
 453              		.loc 1 94 0
 454 0004 294D     		ldr	r5, .L27
 455 0006 0127     		movs	r7, #1
 456 0008 2F70     		strb	r7, [r5]
  95:.\Generated_Source\PSoC5/ADC_DelSig.c ****     ADC_DelSig_convDone = 0u;
 457              		.loc 1 95 0
 458 000a 294E     		ldr	r6, .L27+4
 459 000c 0024     		movs	r4, #0
 460 000e 7471     		strb	r4, [r6, #5]
  97:.\Generated_Source\PSoC5/ADC_DelSig.c ****     ADC_DelSig_Ext_CP_Clk_SetMode(CYCLK_DUTY);
 461              		.loc 1 97 0
 462 0010 1020     		movs	r0, #16
 463 0012 FFF7FEFF 		bl	ADC_DelSig_Ext_CP_Clk_SetModeRegister
 464              	.LVL49:
 101:.\Generated_Source\PSoC5/ADC_DelSig.c ****         ADC_DelSig_theACLK_SetMode(CYCLK_DUTY);
 465              		.loc 1 101 0
 466 0016 1020     		movs	r0, #16
 467 0018 FFF7FEFF 		bl	ADC_DelSig_theACLK_SetModeRegister
 468              	.LVL50:
 106:.\Generated_Source\PSoC5/ADC_DelSig.c ****         CyIntSetPriority(ADC_DelSig_INTC_NUMBER, ADC_DelSig_INTC_PRIOR_NUMBER);
 469              		.loc 1 106 0
 470 001c 1D20     		movs	r0, #29
 471 001e 0721     		movs	r1, #7
 472 0020 FFF7FEFF 		bl	CyIntSetPriority
 473              	.LVL51:
 110:.\Generated_Source\PSoC5/ADC_DelSig.c ****     ADC_DelSig_DSM_DEM0_REG    = ADC_DelSig_CFG1_DSM_DEM0;
 474              		.loc 1 110 0
 475 0024 0422     		movs	r2, #4
 476 0026 234B     		ldr	r3, .L27+8
 477 0028 1A70     		strb	r2, [r3]
 111:.\Generated_Source\PSoC5/ADC_DelSig.c ****     ADC_DelSig_DSM_DEM1_REG    = ADC_DelSig_CFG1_DSM_DEM1;
 478              		.loc 1 111 0
 479 002a 0133     		adds	r3, r3, #1
 480 002c 1C70     		strb	r4, [r3]
 112:.\Generated_Source\PSoC5/ADC_DelSig.c ****     ADC_DelSig_DSM_MISC_REG    = ADC_DelSig_CFG1_DSM_MISC;
 481              		.loc 1 112 0
 482 002e 0733     		adds	r3, r3, #7
 483 0030 1C70     		strb	r4, [r3]
 113:.\Generated_Source\PSoC5/ADC_DelSig.c ****     ADC_DelSig_DSM_CLK_REG    |= ADC_DelSig_CFG1_DSM_CLK;
 484              		.loc 1 113 0
 485 0032 03F26923 		addw	r3, r3, #617
 486 0036 1A78     		ldrb	r2, [r3]	@ zero_extendqisi2
 487 0038 42F01802 		orr	r2, r2, #24
 488 003c 1A70     		strb	r2, [r3]
 114:.\Generated_Source\PSoC5/ADC_DelSig.c ****     ADC_DelSig_DSM_REF1_REG    = ADC_DelSig_CFG1_DSM_REF1;
 489              		.loc 1 114 0
 490 003e A3F51D73 		sub	r3, r3, #628
 491 0042 1C70     		strb	r4, [r3]
 116:.\Generated_Source\PSoC5/ADC_DelSig.c ****     ADC_DelSig_DSM_OUT0_REG    = ADC_DelSig_CFG1_DSM_OUT0;
 492              		.loc 1 116 0
ARM GAS  C:\Users\mitchell\AppData\Local\Temp\ccpqy6v3.s 			page 41


 493 0044 03F2F523 		addw	r3, r3, #757
 494 0048 1C70     		strb	r4, [r3]
 117:.\Generated_Source\PSoC5/ADC_DelSig.c ****     ADC_DelSig_DSM_OUT1_REG    = ADC_DelSig_CFG1_DSM_OUT1;
 495              		.loc 1 117 0
 496 004a 0133     		adds	r3, r3, #1
 497 004c 1C70     		strb	r4, [r3]
 119:.\Generated_Source\PSoC5/ADC_DelSig.c ****     ADC_DelSig_DSM_CR0_REG     = ADC_DelSig_CFG1_DSM_CR0;
 498              		.loc 1 119 0
 499 004e 0A22     		movs	r2, #10
 500 0050 A3F20933 		subw	r3, r3, #777
 501 0054 1A70     		strb	r2, [r3]
 120:.\Generated_Source\PSoC5/ADC_DelSig.c ****     ADC_DelSig_DSM_CR1_REG     = ADC_DelSig_CFG1_DSM_CR1;
 502              		.loc 1 120 0
 503 0056 0133     		adds	r3, r3, #1
 504 0058 1C70     		strb	r4, [r3]
 124:.\Generated_Source\PSoC5/ADC_DelSig.c ****     ADC_DelSig_DSM_CR3_REG     = ADC_DelSig_CFG1_DSM_CR3;
 505              		.loc 1 124 0
 506 005a 0233     		adds	r3, r3, #2
 507 005c 1C70     		strb	r4, [r3]
 126:.\Generated_Source\PSoC5/ADC_DelSig.c ****     ADC_DelSig_DSM_CR8_REG     = ADC_DelSig_CFG1_DSM_CR8;
 508              		.loc 1 126 0
 509 005e 1222     		movs	r2, #18
 510 0060 0533     		adds	r3, r3, #5
 511 0062 1A70     		strb	r2, [r3]
 127:.\Generated_Source\PSoC5/ADC_DelSig.c ****     ADC_DelSig_DSM_CR9_REG     = ADC_DelSig_CFG1_DSM_CR9;
 512              		.loc 1 127 0
 513 0064 1322     		movs	r2, #19
 514 0066 0133     		adds	r3, r3, #1
 515 0068 1A70     		strb	r2, [r3]
 128:.\Generated_Source\PSoC5/ADC_DelSig.c ****     ADC_DelSig_DSM_CR13_REG    = ADC_DelSig_CFG1_DSM_CR13;
 516              		.loc 1 128 0
 517 006a 0433     		adds	r3, r3, #4
 518 006c 1C70     		strb	r4, [r3]
 130:.\Generated_Source\PSoC5/ADC_DelSig.c ****     ADC_DelSig_DEC_SR_REG      = ADC_DelSig_CFG1_DEC_SR;
 519              		.loc 1 130 0
 520 006e 1422     		movs	r2, #20
 521 0070 A3F68C23 		subw	r3, r3, #2700
 522 0074 1A70     		strb	r2, [r3]
 133:.\Generated_Source\PSoC5/ADC_DelSig.c ****     ADC_DelSig_GainCompensation(ADC_DelSig_CFG1_INPUT_RANGE,
 523              		.loc 1 133 0
 524 0076 0097     		str	r7, [sp]
 525 0078 0220     		movs	r0, #2
 526 007a 48F66B51 		movw	r1, #36203
 527 007e 47F2E972 		movw	r2, #30697
 528 0082 0E23     		movs	r3, #14
 529 0084 FFF7FEFF 		bl	ADC_DelSig_GainCompensation
 530              	.LVL52:
 161:.\Generated_Source\PSoC5/ADC_DelSig.c ****     ADC_DelSig_DEC_GVAL_REG = ADC_DelSig_gcor[ADC_DelSig_Config - 1u].gval;
 531              		.loc 1 161 0
 532 0088 2B78     		ldrb	r3, [r5]	@ zero_extendqisi2
 533 008a 06EB8303 		add	r3, r6, r3, lsl #2
 534 008e 13F8022C 		ldrb	r2, [r3, #-2]	@ zero_extendqisi2
 535 0092 094B     		ldr	r3, .L27+12
 536 0094 1A70     		strb	r2, [r3]
 162:.\Generated_Source\PSoC5/ADC_DelSig.c ****     CY_SET_REG16(ADC_DelSig_DEC_GCOR_16B_PTR, ADC_DelSig_gcor[ADC_DelSig_Config - 1u].gcor);
 537              		.loc 1 162 0
 538 0096 2B78     		ldrb	r3, [r5]	@ zero_extendqisi2
ARM GAS  C:\Users\mitchell\AppData\Local\Temp\ccpqy6v3.s 			page 42


 539 0098 013B     		subs	r3, r3, #1
 540 009a 36F82320 		ldrh	r2, [r6, r3, lsl #2]
 541 009e 074B     		ldr	r3, .L27+16
 542 00a0 1A80     		strh	r2, [r3]	@ movhi
 165:.\Generated_Source\PSoC5/ADC_DelSig.c ****     ADC_DelSig_InitConfig(ADC_DelSig_Config);
 543              		.loc 1 165 0
 544 00a2 2878     		ldrb	r0, [r5]	@ zero_extendqisi2
 545 00a4 FFF7FEFF 		bl	ADC_DelSig_InitConfig
 546              	.LVL53:
 166:.\Generated_Source\PSoC5/ADC_DelSig.c **** }
 547              		.loc 1 166 0
 548 00a8 03B0     		add	sp, sp, #12
 549              		@ sp needed
 550 00aa F0BD     		pop	{r4, r5, r6, r7, pc}
 551              	.L28:
 552              		.align	2
 553              	.L27:
 554 00ac 00000000 		.word	.LANCHOR1
 555 00b0 00000000 		.word	.LANCHOR0
 556 00b4 96580040 		.word	1073764502
 557 00b8 0E4E0040 		.word	1073761806
 558 00bc 0C4E0040 		.word	1073761804
 559              		.cfi_endproc
 560              	.LFE0:
 561              		.size	ADC_DelSig_Init, .-ADC_DelSig_Init
 562              		.section	.text.ADC_DelSig_Enable,"ax",%progbits
 563              		.align	2
 564              		.global	ADC_DelSig_Enable
 565              		.thumb
 566              		.thumb_func
 567              		.type	ADC_DelSig_Enable, %function
 568              	ADC_DelSig_Enable:
 569              	.LFB1:
 185:.\Generated_Source\PSoC5/ADC_DelSig.c **** {
 570              		.loc 1 185 0
 571              		.cfi_startproc
 572              		@ args = 0, pretend = 0, frame = 0
 573              		@ frame_needed = 0, uses_anonymous_args = 0
 574 0000 70B5     		push	{r4, r5, r6, lr}
 575              		.cfi_def_cfa_offset 16
 576              		.cfi_offset 4, -16
 577              		.cfi_offset 5, -12
 578              		.cfi_offset 6, -8
 579              		.cfi_offset 14, -4
 188:.\Generated_Source\PSoC5/ADC_DelSig.c ****     enableInterrupts = CyEnterCriticalSection();
 580              		.loc 1 188 0
 581 0002 FFF7FEFF 		bl	CyEnterCriticalSection
 582              	.LVL54:
 583 0006 0646     		mov	r6, r0
 584              	.LVL55:
 191:.\Generated_Source\PSoC5/ADC_DelSig.c ****     config = ADC_DelSig_Config;
 585              		.loc 1 191 0
 586 0008 2B4B     		ldr	r3, .L30
 587 000a 1B78     		ldrb	r3, [r3]	@ zero_extendqisi2
 588              	.LVL56:
 194:.\Generated_Source\PSoC5/ADC_DelSig.c ****     ADC_DelSig_PWRMGR_DEC_REG |= ADC_DelSig_ACT_PWR_DEC_EN;
 589              		.loc 1 194 0
ARM GAS  C:\Users\mitchell\AppData\Local\Temp\ccpqy6v3.s 			page 43


 590 000c 2B4B     		ldr	r3, .L30+4
 591 000e 1A78     		ldrb	r2, [r3]	@ zero_extendqisi2
 592 0010 42F00102 		orr	r2, r2, #1
 593 0014 1A70     		strb	r2, [r3]
 195:.\Generated_Source\PSoC5/ADC_DelSig.c ****     ADC_DelSig_PWRMGR_DSM_REG |= ADC_DelSig_ACT_PWR_DSM_EN;
 594              		.loc 1 195 0
 595 0016 1A78     		ldrb	r2, [r3]	@ zero_extendqisi2
 596 0018 42F01002 		orr	r2, r2, #16
 597 001c 1A70     		strb	r2, [r3]
 198:.\Generated_Source\PSoC5/ADC_DelSig.c ****     ADC_DelSig_STBY_PWRMGR_DEC_REG |= ADC_DelSig_STBY_PWR_DEC_EN;
 598              		.loc 1 198 0
 599 001e 1033     		adds	r3, r3, #16
 600 0020 1A78     		ldrb	r2, [r3]	@ zero_extendqisi2
 601 0022 42F00102 		orr	r2, r2, #1
 602 0026 1A70     		strb	r2, [r3]
 199:.\Generated_Source\PSoC5/ADC_DelSig.c ****     ADC_DelSig_STBY_PWRMGR_DSM_REG |= ADC_DelSig_STBY_PWR_DSM_EN;
 603              		.loc 1 199 0
 604 0028 1A78     		ldrb	r2, [r3]	@ zero_extendqisi2
 605 002a 42F01002 		orr	r2, r2, #16
 606 002e 1A70     		strb	r2, [r3]
 202:.\Generated_Source\PSoC5/ADC_DelSig.c ****     ADC_DelSig_RESET_CR4_REG |= ADC_DelSig_IGNORE_PRESA1;
 607              		.loc 1 202 0
 608 0030 234D     		ldr	r5, .L30+8
 609 0032 2B78     		ldrb	r3, [r5]	@ zero_extendqisi2
 610 0034 43F00203 		orr	r3, r3, #2
 611 0038 2B70     		strb	r3, [r5]
 203:.\Generated_Source\PSoC5/ADC_DelSig.c ****     ADC_DelSig_RESET_CR5_REG |= ADC_DelSig_IGNORE_PRESA2;
 612              		.loc 1 203 0
 613 003a 224C     		ldr	r4, .L30+12
 614 003c 2378     		ldrb	r3, [r4]	@ zero_extendqisi2
 615 003e 43F00203 		orr	r3, r3, #2
 616 0042 2370     		strb	r3, [r4]
 205:.\Generated_Source\PSoC5/ADC_DelSig.c ****     ADC_DelSig_DSM_CR17_REG |= (ADC_DelSig_DSM_EN_BUF_VREF | ADC_DelSig_DSM_EN_BUF_VCM);
 617              		.loc 1 205 0
 618 0044 204B     		ldr	r3, .L30+16
 619 0046 1A78     		ldrb	r2, [r3]	@ zero_extendqisi2
 620 0048 42F00302 		orr	r2, r2, #3
 621 004c 1A70     		strb	r2, [r3]
 271:.\Generated_Source\PSoC5/ADC_DelSig.c ****     CyDelayUs(ADC_DelSig_PRES_DELAY_TIME);
 622              		.loc 1 271 0
 623 004e 0320     		movs	r0, #3
 624              	.LVL57:
 625 0050 FFF7FEFF 		bl	CyDelayUs
 626              	.LVL58:
 274:.\Generated_Source\PSoC5/ADC_DelSig.c ****     ADC_DelSig_RESET_CR4_REG &= (uint8)~ADC_DelSig_IGNORE_PRESA1;
 627              		.loc 1 274 0
 628 0054 2B78     		ldrb	r3, [r5]	@ zero_extendqisi2
 629 0056 03F0FD03 		and	r3, r3, #253
 630 005a 2B70     		strb	r3, [r5]
 275:.\Generated_Source\PSoC5/ADC_DelSig.c ****     ADC_DelSig_RESET_CR5_REG &= (uint8)~ADC_DelSig_IGNORE_PRESA2;
 631              		.loc 1 275 0
 632 005c 2378     		ldrb	r3, [r4]	@ zero_extendqisi2
 633 005e 03F0FD03 		and	r3, r3, #253
 634 0062 2370     		strb	r3, [r4]
 278:.\Generated_Source\PSoC5/ADC_DelSig.c ****     ADC_DelSig_PUMP_CR1_REG  |= ( ADC_DelSig_PUMP_CR1_CLKSEL | ADC_DelSig_PUMP_CR1_FORCE );
 635              		.loc 1 278 0
 636 0064 194B     		ldr	r3, .L30+20
ARM GAS  C:\Users\mitchell\AppData\Local\Temp\ccpqy6v3.s 			page 44


 637 0066 1A78     		ldrb	r2, [r3]	@ zero_extendqisi2
 638 0068 42F00602 		orr	r2, r2, #6
 639 006c 1A70     		strb	r2, [r3]
 281:.\Generated_Source\PSoC5/ADC_DelSig.c ****     ADC_DelSig_DSM_CR2_REG = ADC_DelSig_CFG1_DSM_CR2;
 640              		.loc 1 281 0
 641 006e 7A22     		movs	r2, #122
 642 0070 0B33     		adds	r3, r3, #11
 643 0072 1A70     		strb	r2, [r3]
 285:.\Generated_Source\PSoC5/ADC_DelSig.c ****         ADC_DelSig_PWRMGR_CLK_REG |= ADC_DelSig_ACT_PWR_CLK_EN;
 644              		.loc 1 285 0
 645 0074 A3F5A753 		sub	r3, r3, #5344
 646 0078 013B     		subs	r3, r3, #1
 647 007a 1A78     		ldrb	r2, [r3]	@ zero_extendqisi2
 648 007c 42F00102 		orr	r2, r2, #1
 649 0080 1A70     		strb	r2, [r3]
 286:.\Generated_Source\PSoC5/ADC_DelSig.c ****         ADC_DelSig_STBY_PWRMGR_CLK_REG |= ADC_DelSig_STBY_PWR_CLK_EN;
 650              		.loc 1 286 0
 651 0082 1033     		adds	r3, r3, #16
 652 0084 1A78     		ldrb	r2, [r3]	@ zero_extendqisi2
 653 0086 42F00102 		orr	r2, r2, #1
 654 008a 1A70     		strb	r2, [r3]
 290:.\Generated_Source\PSoC5/ADC_DelSig.c ****     ADC_DelSig_PWRMGR_CHARGE_PUMP_CLK_REG |= ADC_DelSig_ACT_PWR_CHARGE_PUMP_CLK_EN;
 655              		.loc 1 290 0
 656 008c 0F3B     		subs	r3, r3, #15
 657 008e 1A78     		ldrb	r2, [r3]	@ zero_extendqisi2
 658 0090 42F00102 		orr	r2, r2, #1
 659 0094 1A70     		strb	r2, [r3]
 291:.\Generated_Source\PSoC5/ADC_DelSig.c ****     ADC_DelSig_STBY_PWRMGR_CHARGE_PUMP_CLK_REG |= ADC_DelSig_STBY_PWR_CHARGE_PUMP_CLK_EN;
 660              		.loc 1 291 0
 661 0096 1033     		adds	r3, r3, #16
 662 0098 1A78     		ldrb	r2, [r3]	@ zero_extendqisi2
 663 009a 42F00102 		orr	r2, r2, #1
 664 009e 1A70     		strb	r2, [r3]
 295:.\Generated_Source\PSoC5/ADC_DelSig.c ****         CyIntClearPending(ADC_DelSig_INTC_NUMBER);
 665              		.loc 1 295 0
 666 00a0 4FF00053 		mov	r3, #536870912
 667 00a4 0A4A     		ldr	r2, .L30+24
 668 00a6 1360     		str	r3, [r2]
 297:.\Generated_Source\PSoC5/ADC_DelSig.c ****         CyIntEnable(ADC_DelSig_INTC_NUMBER);
 669              		.loc 1 297 0
 670 00a8 A2F5C072 		sub	r2, r2, #384
 671 00ac 1360     		str	r3, [r2]
 300:.\Generated_Source\PSoC5/ADC_DelSig.c ****     CyExitCriticalSection(enableInterrupts);
 672              		.loc 1 300 0
 673 00ae 3046     		mov	r0, r6
 674 00b0 FFF7FEFF 		bl	CyExitCriticalSection
 675              	.LVL59:
 676 00b4 70BD     		pop	{r4, r5, r6, pc}
 677              	.LVL60:
 678              	.L31:
 679 00b6 00BF     		.align	2
 680              	.L30:
 681 00b8 00000000 		.word	.LANCHOR1
 682 00bc AA430040 		.word	1073759146
 683 00c0 F8460040 		.word	1073759992
 684 00c4 F9460040 		.word	1073759993
 685 00c8 91580040 		.word	1073764497
ARM GAS  C:\Users\mitchell\AppData\Local\Temp\ccpqy6v3.s 			page 45


 686 00cc 77580040 		.word	1073764471
 687 00d0 80E200E0 		.word	-536812928
 688              		.cfi_endproc
 689              	.LFE1:
 690              		.size	ADC_DelSig_Enable, .-ADC_DelSig_Enable
 691              		.section	.text.ADC_DelSig_Start,"ax",%progbits
 692              		.align	2
 693              		.global	ADC_DelSig_Start
 694              		.thumb
 695              		.thumb_func
 696              		.type	ADC_DelSig_Start, %function
 697              	ADC_DelSig_Start:
 698              	.LFB2:
 330:.\Generated_Source\PSoC5/ADC_DelSig.c **** {
 699              		.loc 1 330 0
 700              		.cfi_startproc
 701              		@ args = 0, pretend = 0, frame = 0
 702              		@ frame_needed = 0, uses_anonymous_args = 0
 703 0000 08B5     		push	{r3, lr}
 704              		.cfi_def_cfa_offset 8
 705              		.cfi_offset 3, -8
 706              		.cfi_offset 14, -4
 331:.\Generated_Source\PSoC5/ADC_DelSig.c ****     if(ADC_DelSig_initVar == 0u)
 707              		.loc 1 331 0
 708 0002 084B     		ldr	r3, .L35
 709 0004 9B79     		ldrb	r3, [r3, #6]	@ zero_extendqisi2
 710 0006 4BB9     		cbnz	r3, .L33
 333:.\Generated_Source\PSoC5/ADC_DelSig.c ****         if(ADC_DelSig_started == 0u)
 711              		.loc 1 333 0
 712 0008 064B     		ldr	r3, .L35
 713 000a DB79     		ldrb	r3, [r3, #7]	@ zero_extendqisi2
 714 000c 13F0FF0F 		tst	r3, #255
 715 0010 01D1     		bne	.L34
 335:.\Generated_Source\PSoC5/ADC_DelSig.c ****             ADC_DelSig_Init();
 716              		.loc 1 335 0
 717 0012 FFF7FEFF 		bl	ADC_DelSig_Init
 718              	.LVL61:
 719              	.L34:
 337:.\Generated_Source\PSoC5/ADC_DelSig.c ****         ADC_DelSig_initVar = 1u;
 720              		.loc 1 337 0
 721 0016 0122     		movs	r2, #1
 722 0018 024B     		ldr	r3, .L35
 723 001a 9A71     		strb	r2, [r3, #6]
 724              	.L33:
 341:.\Generated_Source\PSoC5/ADC_DelSig.c ****     ADC_DelSig_Enable();
 725              		.loc 1 341 0
 726 001c FFF7FEFF 		bl	ADC_DelSig_Enable
 727              	.LVL62:
 728 0020 08BD     		pop	{r3, pc}
 729              	.L36:
 730 0022 00BF     		.align	2
 731              	.L35:
 732 0024 00000000 		.word	.LANCHOR0
 733              		.cfi_endproc
 734              	.LFE2:
 735              		.size	ADC_DelSig_Start, .-ADC_DelSig_Start
 736              		.section	.text.ADC_DelSig_Stop,"ax",%progbits
ARM GAS  C:\Users\mitchell\AppData\Local\Temp\ccpqy6v3.s 			page 46


 737              		.align	2
 738              		.global	ADC_DelSig_Stop
 739              		.thumb
 740              		.thumb_func
 741              		.type	ADC_DelSig_Stop, %function
 742              	ADC_DelSig_Stop:
 743              	.LFB3:
 363:.\Generated_Source\PSoC5/ADC_DelSig.c **** {
 744              		.loc 1 363 0
 745              		.cfi_startproc
 746              		@ args = 0, pretend = 0, frame = 0
 747              		@ frame_needed = 0, uses_anonymous_args = 0
 748 0000 70B5     		push	{r4, r5, r6, lr}
 749              		.cfi_def_cfa_offset 16
 750              		.cfi_offset 4, -16
 751              		.cfi_offset 5, -12
 752              		.cfi_offset 6, -8
 753              		.cfi_offset 14, -4
 365:.\Generated_Source\PSoC5/ADC_DelSig.c ****     enableInterrupts = CyEnterCriticalSection();
 754              		.loc 1 365 0
 755 0002 FFF7FEFF 		bl	CyEnterCriticalSection
 756              	.LVL63:
 757 0006 0646     		mov	r6, r0
 758              	.LVL64:
 368:.\Generated_Source\PSoC5/ADC_DelSig.c ****     ADC_DelSig_DEC_CR_REG &= (uint8)~ADC_DelSig_DEC_START_CONV;
 759              		.loc 1 368 0
 760 0008 314B     		ldr	r3, .L38
 761 000a 1A78     		ldrb	r2, [r3]	@ zero_extendqisi2
 762 000c 02F0FE02 		and	r2, r2, #254
 763 0010 1A70     		strb	r2, [r3]
 369:.\Generated_Source\PSoC5/ADC_DelSig.c ****     ADC_DelSig_DEC_SR_REG |=  ADC_DelSig_DEC_INTR_CLEAR;
 764              		.loc 1 369 0
 765 0012 0133     		adds	r3, r3, #1
 766 0014 1A78     		ldrb	r2, [r3]	@ zero_extendqisi2
 767 0016 42F00402 		orr	r2, r2, #4
 768 001a 1A70     		strb	r2, [r3]
 373:.\Generated_Source\PSoC5/ADC_DelSig.c ****     ADC_DelSig_RESET_CR4_REG |= ADC_DelSig_IGNORE_PRESA1;
 769              		.loc 1 373 0
 770 001c 2D4D     		ldr	r5, .L38+4
 771 001e 2B78     		ldrb	r3, [r5]	@ zero_extendqisi2
 772 0020 43F00203 		orr	r3, r3, #2
 773 0024 2B70     		strb	r3, [r5]
 374:.\Generated_Source\PSoC5/ADC_DelSig.c ****     ADC_DelSig_RESET_CR5_REG |= ADC_DelSig_IGNORE_PRESA2;
 774              		.loc 1 374 0
 775 0026 2C4C     		ldr	r4, .L38+8
 776 0028 2378     		ldrb	r3, [r4]	@ zero_extendqisi2
 777 002a 43F00203 		orr	r3, r3, #2
 778 002e 2370     		strb	r3, [r4]
 376:.\Generated_Source\PSoC5/ADC_DelSig.c ****     ADC_DelSig_DSM_CR17_REG &= (uint8)~(ADC_DelSig_DSM_EN_BUF_VREF | ADC_DelSig_DSM_EN_BUF_VCM);
 779              		.loc 1 376 0
 780 0030 2A4B     		ldr	r3, .L38+12
 781 0032 1A78     		ldrb	r2, [r3]	@ zero_extendqisi2
 782 0034 02F0FC02 		and	r2, r2, #252
 783 0038 1A70     		strb	r2, [r3]
 377:.\Generated_Source\PSoC5/ADC_DelSig.c ****     ADC_DelSig_DSM_REF0_REG &= (uint8)~ADC_DelSig_DSM_EN_BUF_VREF_INN;
 784              		.loc 1 377 0
 785 003a 0133     		adds	r3, r3, #1
ARM GAS  C:\Users\mitchell\AppData\Local\Temp\ccpqy6v3.s 			page 47


 786 003c 1A78     		ldrb	r2, [r3]	@ zero_extendqisi2
 787 003e 02F0F702 		and	r2, r2, #247
 788 0042 1A70     		strb	r2, [r3]
 380:.\Generated_Source\PSoC5/ADC_DelSig.c ****     CyDelayUs(ADC_DelSig_PRES_DELAY_TIME);
 789              		.loc 1 380 0
 790 0044 0320     		movs	r0, #3
 791              	.LVL65:
 792 0046 FFF7FEFF 		bl	CyDelayUs
 793              	.LVL66:
 383:.\Generated_Source\PSoC5/ADC_DelSig.c ****     ADC_DelSig_RESET_CR4_REG &= (uint8)~ADC_DelSig_IGNORE_PRESA1;
 794              		.loc 1 383 0
 795 004a 2B78     		ldrb	r3, [r5]	@ zero_extendqisi2
 796 004c 03F0FD03 		and	r3, r3, #253
 797 0050 2B70     		strb	r3, [r5]
 384:.\Generated_Source\PSoC5/ADC_DelSig.c ****     ADC_DelSig_RESET_CR5_REG &= (uint8)~ADC_DelSig_IGNORE_PRESA2;
 798              		.loc 1 384 0
 799 0052 2378     		ldrb	r3, [r4]	@ zero_extendqisi2
 800 0054 03F0FD03 		and	r3, r3, #253
 801 0058 2370     		strb	r3, [r4]
 387:.\Generated_Source\PSoC5/ADC_DelSig.c ****     ADC_DelSig_PWRMGR_DSM_REG &= (uint8)~ADC_DelSig_ACT_PWR_DSM_EN;
 802              		.loc 1 387 0
 803 005a 214B     		ldr	r3, .L38+16
 804 005c 1A78     		ldrb	r2, [r3]	@ zero_extendqisi2
 805 005e 02F0EF02 		and	r2, r2, #239
 806 0062 1A70     		strb	r2, [r3]
 390:.\Generated_Source\PSoC5/ADC_DelSig.c ****     ADC_DelSig_PWRMGR_DEC_REG &= (uint8)~ADC_DelSig_ACT_PWR_DEC_EN;
 807              		.loc 1 390 0
 808 0064 1A78     		ldrb	r2, [r3]	@ zero_extendqisi2
 809 0066 02F0FE02 		and	r2, r2, #254
 810 006a 1A70     		strb	r2, [r3]
 393:.\Generated_Source\PSoC5/ADC_DelSig.c ****     ADC_DelSig_STBY_PWRMGR_DEC_REG &= (uint8)~ADC_DelSig_STBY_PWR_DEC_EN;
 811              		.loc 1 393 0
 812 006c 1033     		adds	r3, r3, #16
 813 006e 1A78     		ldrb	r2, [r3]	@ zero_extendqisi2
 814 0070 02F0FE02 		and	r2, r2, #254
 815 0074 1A70     		strb	r2, [r3]
 394:.\Generated_Source\PSoC5/ADC_DelSig.c ****     ADC_DelSig_STBY_PWRMGR_DSM_REG &= (uint8)~ADC_DelSig_STBY_PWR_DSM_EN;
 816              		.loc 1 394 0
 817 0076 1A78     		ldrb	r2, [r3]	@ zero_extendqisi2
 818 0078 02F0EF02 		and	r2, r2, #239
 819 007c 1A70     		strb	r2, [r3]
 397:.\Generated_Source\PSoC5/ADC_DelSig.c ****     ADC_DelSig_PUMP_CR1_REG &= (uint8)~(ADC_DelSig_PUMP_CR1_CLKSEL | ADC_DelSig_PUMP_CR1_FORCE );
 820              		.loc 1 397 0
 821 007e 03F5A553 		add	r3, r3, #5280
 822 0082 1D33     		adds	r3, r3, #29
 823 0084 1A78     		ldrb	r2, [r3]	@ zero_extendqisi2
 824 0086 02F0F902 		and	r2, r2, #249
 825 008a 1A70     		strb	r2, [r3]
 401:.\Generated_Source\PSoC5/ADC_DelSig.c ****         ADC_DelSig_PWRMGR_CLK_REG &= (uint8)~ADC_DelSig_ACT_PWR_CLK_EN;
 826              		.loc 1 401 0
 827 008c A3F5A653 		sub	r3, r3, #5312
 828 0090 163B     		subs	r3, r3, #22
 829 0092 1A78     		ldrb	r2, [r3]	@ zero_extendqisi2
 830 0094 02F0FE02 		and	r2, r2, #254
 831 0098 1A70     		strb	r2, [r3]
 402:.\Generated_Source\PSoC5/ADC_DelSig.c ****         ADC_DelSig_STBY_PWRMGR_CLK_REG &= (uint8)~ADC_DelSig_STBY_PWR_CLK_EN;
 832              		.loc 1 402 0
ARM GAS  C:\Users\mitchell\AppData\Local\Temp\ccpqy6v3.s 			page 48


 833 009a 1033     		adds	r3, r3, #16
 834 009c 1A78     		ldrb	r2, [r3]	@ zero_extendqisi2
 835 009e 02F0FE02 		and	r2, r2, #254
 836 00a2 1A70     		strb	r2, [r3]
 406:.\Generated_Source\PSoC5/ADC_DelSig.c ****     ADC_DelSig_DSM_CR2_REG &= (uint8)~ADC_DelSig_DSM_MOD_CHOP_EN;
 837              		.loc 1 406 0
 838 00a4 03F5A653 		add	r3, r3, #5312
 839 00a8 1133     		adds	r3, r3, #17
 840 00aa 1A78     		ldrb	r2, [r3]	@ zero_extendqisi2
 841 00ac 02F0F702 		and	r2, r2, #247
 842 00b0 1A70     		strb	r2, [r3]
 408:.\Generated_Source\PSoC5/ADC_DelSig.c ****     ADC_DelSig_PWRMGR_CHARGE_PUMP_CLK_REG &= (uint8)~ADC_DelSig_ACT_PWR_CHARGE_PUMP_CLK_EN;
 843              		.loc 1 408 0
 844 00b2 A3F5A753 		sub	r3, r3, #5344
 845 00b6 1A78     		ldrb	r2, [r3]	@ zero_extendqisi2
 846 00b8 02F0FE02 		and	r2, r2, #254
 847 00bc 1A70     		strb	r2, [r3]
 409:.\Generated_Source\PSoC5/ADC_DelSig.c ****     ADC_DelSig_STBY_PWRMGR_CHARGE_PUMP_CLK_REG &= (uint8)~ADC_DelSig_STBY_PWR_CHARGE_PUMP_CLK_EN;
 848              		.loc 1 409 0
 849 00be 1033     		adds	r3, r3, #16
 850 00c0 1A78     		ldrb	r2, [r3]	@ zero_extendqisi2
 851 00c2 02F0FE02 		and	r2, r2, #254
 852 00c6 1A70     		strb	r2, [r3]
 411:.\Generated_Source\PSoC5/ADC_DelSig.c ****     CyExitCriticalSection(enableInterrupts);
 853              		.loc 1 411 0
 854 00c8 3046     		mov	r0, r6
 855 00ca FFF7FEFF 		bl	CyExitCriticalSection
 856              	.LVL67:
 857 00ce 70BD     		pop	{r4, r5, r6, pc}
 858              	.LVL68:
 859              	.L39:
 860              		.align	2
 861              	.L38:
 862 00d0 004E0040 		.word	1073761792
 863 00d4 F8460040 		.word	1073759992
 864 00d8 F9460040 		.word	1073759993
 865 00dc 91580040 		.word	1073764497
 866 00e0 AA430040 		.word	1073759146
 867              		.cfi_endproc
 868              	.LFE3:
 869              		.size	ADC_DelSig_Stop, .-ADC_DelSig_Stop
 870              		.section	.text.ADC_DelSig_SetBufferGain,"ax",%progbits
 871              		.align	2
 872              		.global	ADC_DelSig_SetBufferGain
 873              		.thumb
 874              		.thumb_func
 875              		.type	ADC_DelSig_SetBufferGain, %function
 876              	ADC_DelSig_SetBufferGain:
 877              	.LFB4:
 430:.\Generated_Source\PSoC5/ADC_DelSig.c **** {
 878              		.loc 1 430 0
 879              		.cfi_startproc
 880              		@ args = 0, pretend = 0, frame = 0
 881              		@ frame_needed = 0, uses_anonymous_args = 0
 882              		@ link register save eliminated.
 883              	.LVL69:
 432:.\Generated_Source\PSoC5/ADC_DelSig.c ****     tmpReg = ADC_DelSig_DSM_BUF1_REG & (uint8)~ADC_DelSig_DSM_GAIN_MASK;
ARM GAS  C:\Users\mitchell\AppData\Local\Temp\ccpqy6v3.s 			page 49


 884              		.loc 1 432 0
 885 0000 044B     		ldr	r3, .L41
 886 0002 1A78     		ldrb	r2, [r3]	@ zero_extendqisi2
 887 0004 02F0F302 		and	r2, r2, #243
 888              	.LVL70:
 433:.\Generated_Source\PSoC5/ADC_DelSig.c ****     tmpReg |= (uint8)(gain << ADC_DelSig_DSM_GAIN_SHIFT) & ADC_DelSig_DSM_GAIN_MASK;
 889              		.loc 1 433 0
 890 0008 8000     		lsls	r0, r0, #2
 891              	.LVL71:
 892 000a 00F00C00 		and	r0, r0, #12
 893 000e 0243     		orrs	r2, r2, r0
 894              	.LVL72:
 434:.\Generated_Source\PSoC5/ADC_DelSig.c ****     ADC_DelSig_DSM_BUF1_REG = tmpReg;
 895              		.loc 1 434 0
 896 0010 1A70     		strb	r2, [r3]
 897 0012 7047     		bx	lr
 898              	.L42:
 899              		.align	2
 900              	.L41:
 901 0014 9B580040 		.word	1073764507
 902              		.cfi_endproc
 903              	.LFE4:
 904              		.size	ADC_DelSig_SetBufferGain, .-ADC_DelSig_SetBufferGain
 905              		.section	.text.ADC_DelSig_SetCoherency,"ax",%progbits
 906              		.align	2
 907              		.global	ADC_DelSig_SetCoherency
 908              		.thumb
 909              		.thumb_func
 910              		.type	ADC_DelSig_SetCoherency, %function
 911              	ADC_DelSig_SetCoherency:
 912              	.LFB5:
 466:.\Generated_Source\PSoC5/ADC_DelSig.c **** {
 913              		.loc 1 466 0
 914              		.cfi_startproc
 915              		@ args = 0, pretend = 0, frame = 0
 916              		@ frame_needed = 0, uses_anonymous_args = 0
 917              		@ link register save eliminated.
 918              	.LVL73:
 469:.\Generated_Source\PSoC5/ADC_DelSig.c ****     tmpReg = ADC_DelSig_DEC_COHER_REG & (uint8)~ADC_DelSig_DEC_SAMP_KEY_MASK;
 919              		.loc 1 469 0
 920 0000 044B     		ldr	r3, .L44
 921 0002 1A78     		ldrb	r2, [r3]	@ zero_extendqisi2
 922 0004 02F0FC02 		and	r2, r2, #252
 923              	.LVL74:
 470:.\Generated_Source\PSoC5/ADC_DelSig.c ****     tmpReg |= coherency & ADC_DelSig_DEC_SAMP_KEY_MASK;
 924              		.loc 1 470 0
 925 0008 00F00300 		and	r0, r0, #3
 926              	.LVL75:
 927 000c 0243     		orrs	r2, r2, r0
 928              	.LVL76:
 471:.\Generated_Source\PSoC5/ADC_DelSig.c ****     ADC_DelSig_DEC_COHER_REG = tmpReg;
 929              		.loc 1 471 0
 930 000e 1A70     		strb	r2, [r3]
 931 0010 7047     		bx	lr
 932              	.L45:
 933 0012 00BF     		.align	2
 934              	.L44:
ARM GAS  C:\Users\mitchell\AppData\Local\Temp\ccpqy6v3.s 			page 50


 935 0014 144E0040 		.word	1073761812
 936              		.cfi_endproc
 937              	.LFE5:
 938              		.size	ADC_DelSig_SetCoherency, .-ADC_DelSig_SetCoherency
 939              		.global	__aeabi_ui2f
 940              		.global	__aeabi_fmul
 941              		.global	__aeabi_f2d
 942              		.global	__aeabi_dcmpgt
 943              		.global	__aeabi_f2uiz
 944              		.section	.text.ADC_DelSig_SetGCOR,"ax",%progbits
 945              		.align	2
 946              		.global	ADC_DelSig_SetGCOR
 947              		.thumb
 948              		.thumb_func
 949              		.type	ADC_DelSig_SetGCOR, %function
 950              	ADC_DelSig_SetGCOR:
 951              	.LFB6:
 506:.\Generated_Source\PSoC5/ADC_DelSig.c **** {
 952              		.loc 1 506 0
 953              		.cfi_startproc
 954              		@ args = 0, pretend = 0, frame = 0
 955              		@ frame_needed = 0, uses_anonymous_args = 0
 956              	.LVL77:
 957 0000 10B5     		push	{r4, lr}
 958              		.cfi_def_cfa_offset 8
 959              		.cfi_offset 4, -8
 960              		.cfi_offset 14, -4
 961 0002 0446     		mov	r4, r0
 511:.\Generated_Source\PSoC5/ADC_DelSig.c ****     tmpReg = ADC_DelSig_gcor[ADC_DelSig_Config - 1u].gcor;
 962              		.loc 1 511 0
 963 0004 184B     		ldr	r3, .L49+8
 964 0006 1A78     		ldrb	r2, [r3]	@ zero_extendqisi2
 965 0008 013A     		subs	r2, r2, #1
 966              	.LVL78:
 512:.\Generated_Source\PSoC5/ADC_DelSig.c ****     tmpValue = ((float32)tmpReg / (float32)ADC_DelSig_IDEAL_GAIN_CONST);
 967              		.loc 1 512 0
 968 000a 184B     		ldr	r3, .L49+12
 969 000c 33F82200 		ldrh	r0, [r3, r2, lsl #2]
 970              	.LVL79:
 971 0010 FFF7FEFF 		bl	__aeabi_ui2f
 972              	.LVL80:
 973 0014 4FF06051 		mov	r1, #939524096
 974 0018 FFF7FEFF 		bl	__aeabi_fmul
 975              	.LVL81:
 513:.\Generated_Source\PSoC5/ADC_DelSig.c ****     tmpValue = tmpValue * gainAdjust;
 976              		.loc 1 513 0
 977 001c 2146     		mov	r1, r4
 978 001e FFF7FEFF 		bl	__aeabi_fmul
 979              	.LVL82:
 980 0022 0446     		mov	r4, r0
 981              	.LVL83:
 515:.\Generated_Source\PSoC5/ADC_DelSig.c ****     if (tmpValue > 1.9999)
 982              		.loc 1 515 0
 983 0024 FFF7FEFF 		bl	__aeabi_f2d
 984              	.LVL84:
 985 0028 0DA3     		adr	r3, .L49
 986 002a D3E90023 		ldrd	r2, [r3]
ARM GAS  C:\Users\mitchell\AppData\Local\Temp\ccpqy6v3.s 			page 51


 987 002e FFF7FEFF 		bl	__aeabi_dcmpgt
 988              	.LVL85:
 989 0032 88B9     		cbnz	r0, .L48
 521:.\Generated_Source\PSoC5/ADC_DelSig.c ****         tmpValue *= (float32)ADC_DelSig_IDEAL_GAIN_CONST;
 990              		.loc 1 521 0
 991 0034 2046     		mov	r0, r4
 992 0036 4FF08E41 		mov	r1, #1191182336
 993 003a FFF7FEFF 		bl	__aeabi_fmul
 994              	.LVL86:
 522:.\Generated_Source\PSoC5/ADC_DelSig.c **** 		tmpReg = (uint16)tmpValue;
 995              		.loc 1 522 0
 996 003e FFF7FEFF 		bl	__aeabi_f2uiz
 997              	.LVL87:
 998 0042 80B2     		uxth	r0, r0
 999              	.LVL88:
 523:.\Generated_Source\PSoC5/ADC_DelSig.c ****         CY_SET_REG16(ADC_DelSig_DEC_GCOR_16B_PTR, tmpReg);
 1000              		.loc 1 523 0
 1001 0044 0A4B     		ldr	r3, .L49+16
 1002 0046 1880     		strh	r0, [r3]	@ movhi
 525:.\Generated_Source\PSoC5/ADC_DelSig.c ****        ADC_DelSig_gcor[ADC_DelSig_Config - 1u].gcor = tmpReg;
 1003              		.loc 1 525 0
 1004 0048 074B     		ldr	r3, .L49+8
 1005 004a 1A78     		ldrb	r2, [r3]	@ zero_extendqisi2
 1006 004c 013A     		subs	r2, r2, #1
 1007 004e 074B     		ldr	r3, .L49+12
 1008 0050 23F82200 		strh	r0, [r3, r2, lsl #2]	@ movhi
 1009              	.LVL89:
 527:.\Generated_Source\PSoC5/ADC_DelSig.c ****         status = 0u;
 1010              		.loc 1 527 0
 1011 0054 0020     		movs	r0, #0
 1012              	.LVL90:
 1013 0056 10BD     		pop	{r4, pc}
 1014              	.LVL91:
 1015              	.L48:
 517:.\Generated_Source\PSoC5/ADC_DelSig.c ****         status = 1u;
 1016              		.loc 1 517 0
 1017 0058 0120     		movs	r0, #1
 1018              	.LVL92:
 531:.\Generated_Source\PSoC5/ADC_DelSig.c **** }
 1019              		.loc 1 531 0
 1020 005a 10BD     		pop	{r4, pc}
 1021              	.LVL93:
 1022              	.L50:
 1023 005c AFF30080 		.align	3
 1024              	.L49:
 1025 0060 8F537424 		.word	611603343
 1026 0064 97FFFF3F 		.word	1073741719
 1027 0068 00000000 		.word	.LANCHOR1
 1028 006c 00000000 		.word	.LANCHOR0
 1029 0070 0C4E0040 		.word	1073761804
 1030              		.cfi_endproc
 1031              	.LFE6:
 1032              		.size	ADC_DelSig_SetGCOR, .-ADC_DelSig_SetGCOR
 1033 0074 AFF30080 		.section	.text.ADC_DelSig_ReadGCOR,"ax",%progbits
 1034              		.align	2
 1035              		.global	ADC_DelSig_ReadGCOR
 1036              		.thumb
ARM GAS  C:\Users\mitchell\AppData\Local\Temp\ccpqy6v3.s 			page 52


 1037              		.thumb_func
 1038              		.type	ADC_DelSig_ReadGCOR, %function
 1039              	ADC_DelSig_ReadGCOR:
 1040              	.LFB7:
 553:.\Generated_Source\PSoC5/ADC_DelSig.c **** {
 1041              		.loc 1 553 0
 1042              		.cfi_startproc
 1043              		@ args = 0, pretend = 0, frame = 0
 1044              		@ frame_needed = 0, uses_anonymous_args = 0
 1045              		@ link register save eliminated.
 557:.\Generated_Source\PSoC5/ADC_DelSig.c ****     gValue = ADC_DelSig_DEC_GVAL_REG;
 1046              		.loc 1 557 0
 1047 0000 064B     		ldr	r3, .L53
 1048 0002 1B78     		ldrb	r3, [r3]	@ zero_extendqisi2
 1049 0004 DBB2     		uxtb	r3, r3
 1050              	.LVL94:
 558:.\Generated_Source\PSoC5/ADC_DelSig.c ****     gcorValue = CY_GET_REG16(ADC_DelSig_DEC_GCOR_16B_PTR);
 1051              		.loc 1 558 0
 1052 0006 064A     		ldr	r2, .L53+4
 1053 0008 1088     		ldrh	r0, [r2]
 1054 000a 80B2     		uxth	r0, r0
 1055              	.LVL95:
 560:.\Generated_Source\PSoC5/ADC_DelSig.c ****     if (gValue < ADC_DelSig_MAX_GVAL)
 1056              		.loc 1 560 0
 1057 000c 0E2B     		cmp	r3, #14
 1058 000e 03D8     		bhi	.L52
 562:.\Generated_Source\PSoC5/ADC_DelSig.c ****         gcorValue <<= ADC_DelSig_MAX_GVAL - gValue;
 1059              		.loc 1 562 0
 1060 0010 C3F10F03 		rsb	r3, r3, #15
 1061              	.LVL96:
 1062 0014 9840     		lsls	r0, r0, r3
 1063              	.LVL97:
 1064 0016 80B2     		uxth	r0, r0
 1065              	.LVL98:
 1066              	.L52:
 566:.\Generated_Source\PSoC5/ADC_DelSig.c **** }
 1067              		.loc 1 566 0
 1068 0018 7047     		bx	lr
 1069              	.L54:
 1070 001a 00BF     		.align	2
 1071              	.L53:
 1072 001c 0E4E0040 		.word	1073761806
 1073 0020 0C4E0040 		.word	1073761804
 1074              		.cfi_endproc
 1075              	.LFE7:
 1076              		.size	ADC_DelSig_ReadGCOR, .-ADC_DelSig_ReadGCOR
 1077              		.section	.text.ADC_DelSig_StartConvert,"ax",%progbits
 1078              		.align	2
 1079              		.global	ADC_DelSig_StartConvert
 1080              		.thumb
 1081              		.thumb_func
 1082              		.type	ADC_DelSig_StartConvert, %function
 1083              	ADC_DelSig_StartConvert:
 1084              	.LFB8:
 587:.\Generated_Source\PSoC5/ADC_DelSig.c **** {
 1085              		.loc 1 587 0
 1086              		.cfi_startproc
ARM GAS  C:\Users\mitchell\AppData\Local\Temp\ccpqy6v3.s 			page 53


 1087              		@ args = 0, pretend = 0, frame = 0
 1088              		@ frame_needed = 0, uses_anonymous_args = 0
 1089              		@ link register save eliminated.
 589:.\Generated_Source\PSoC5/ADC_DelSig.c ****     ADC_DelSig_DEC_CR_REG |= ADC_DelSig_DEC_START_CONV;
 1090              		.loc 1 589 0
 1091 0000 024B     		ldr	r3, .L56
 1092 0002 1A78     		ldrb	r2, [r3]	@ zero_extendqisi2
 1093 0004 42F00102 		orr	r2, r2, #1
 1094 0008 1A70     		strb	r2, [r3]
 1095 000a 7047     		bx	lr
 1096              	.L57:
 1097              		.align	2
 1098              	.L56:
 1099 000c 004E0040 		.word	1073761792
 1100              		.cfi_endproc
 1101              	.LFE8:
 1102              		.size	ADC_DelSig_StartConvert, .-ADC_DelSig_StartConvert
 1103              		.section	.text.ADC_DelSig_StopConvert,"ax",%progbits
 1104              		.align	2
 1105              		.global	ADC_DelSig_StopConvert
 1106              		.thumb
 1107              		.thumb_func
 1108              		.type	ADC_DelSig_StopConvert, %function
 1109              	ADC_DelSig_StopConvert:
 1110              	.LFB9:
 610:.\Generated_Source\PSoC5/ADC_DelSig.c **** {
 1111              		.loc 1 610 0
 1112              		.cfi_startproc
 1113              		@ args = 0, pretend = 0, frame = 0
 1114              		@ frame_needed = 0, uses_anonymous_args = 0
 1115              		@ link register save eliminated.
 612:.\Generated_Source\PSoC5/ADC_DelSig.c ****     ADC_DelSig_DEC_CR_REG &= (uint8)~ADC_DelSig_DEC_START_CONV;
 1116              		.loc 1 612 0
 1117 0000 024B     		ldr	r3, .L59
 1118 0002 1A78     		ldrb	r2, [r3]	@ zero_extendqisi2
 1119 0004 02F0FE02 		and	r2, r2, #254
 1120 0008 1A70     		strb	r2, [r3]
 1121 000a 7047     		bx	lr
 1122              	.L60:
 1123              		.align	2
 1124              	.L59:
 1125 000c 004E0040 		.word	1073761792
 1126              		.cfi_endproc
 1127              	.LFE9:
 1128              		.size	ADC_DelSig_StopConvert, .-ADC_DelSig_StopConvert
 1129              		.section	.text.ADC_DelSig_IsEndConversion,"ax",%progbits
 1130              		.align	2
 1131              		.global	ADC_DelSig_IsEndConversion
 1132              		.thumb
 1133              		.thumb_func
 1134              		.type	ADC_DelSig_IsEndConversion, %function
 1135              	ADC_DelSig_IsEndConversion:
 1136              	.LFB10:
 645:.\Generated_Source\PSoC5/ADC_DelSig.c **** {
 1137              		.loc 1 645 0
 1138              		.cfi_startproc
 1139              		@ args = 0, pretend = 0, frame = 0
ARM GAS  C:\Users\mitchell\AppData\Local\Temp\ccpqy6v3.s 			page 54


 1140              		@ frame_needed = 0, uses_anonymous_args = 0
 1141              		@ link register save eliminated.
 1142              	.LVL99:
 653:.\Generated_Source\PSoC5/ADC_DelSig.c ****         if(ADC_DelSig_stopConversion != 0u)
 1143              		.loc 1 653 0
 1144 0000 084A     		ldr	r2, .L67
 659:.\Generated_Source\PSoC5/ADC_DelSig.c ****             status = ADC_DelSig_DEC_SR_REG & ADC_DelSig_DEC_CONV_DONE;
 1145              		.loc 1 659 0
 1146 0002 0949     		ldr	r1, .L67+4
 1147              	.L65:
 653:.\Generated_Source\PSoC5/ADC_DelSig.c ****         if(ADC_DelSig_stopConversion != 0u)
 1148              		.loc 1 653 0
 1149 0004 1379     		ldrb	r3, [r2, #4]	@ zero_extendqisi2
 1150 0006 13F0FF0F 		tst	r3, #255
 1151 000a 02D0     		beq	.L62
 655:.\Generated_Source\PSoC5/ADC_DelSig.c ****             status = ADC_DelSig_convDone;
 1152              		.loc 1 655 0
 1153 000c 5379     		ldrb	r3, [r2, #5]	@ zero_extendqisi2
 1154 000e DBB2     		uxtb	r3, r3
 1155              	.LVL100:
 1156 0010 02E0     		b	.L63
 1157              	.LVL101:
 1158              	.L62:
 659:.\Generated_Source\PSoC5/ADC_DelSig.c ****             status = ADC_DelSig_DEC_SR_REG & ADC_DelSig_DEC_CONV_DONE;
 1159              		.loc 1 659 0
 1160 0012 0B78     		ldrb	r3, [r1]	@ zero_extendqisi2
 1161 0014 03F00103 		and	r3, r3, #1
 1162              	.LVL102:
 1163              	.L63:
 661:.\Generated_Source\PSoC5/ADC_DelSig.c ****     }while((status != ADC_DelSig_DEC_CONV_DONE) && (retMode == ADC_DelSig_WAIT_FOR_RESULT));
 1164              		.loc 1 661 0
 1165 0018 012B     		cmp	r3, #1
 1166 001a 01D0     		beq	.L64
 661:.\Generated_Source\PSoC5/ADC_DelSig.c ****     }while((status != ADC_DelSig_DEC_CONV_DONE) && (retMode == ADC_DelSig_WAIT_FOR_RESULT));
 1167              		.loc 1 661 0 is_stmt 0 discriminator 1
 1168 001c 0028     		cmp	r0, #0
 1169 001e F1D0     		beq	.L65
 1170              	.L64:
 664:.\Generated_Source\PSoC5/ADC_DelSig.c **** }
 1171              		.loc 1 664 0 is_stmt 1
 1172 0020 1846     		mov	r0, r3
 1173              	.LVL103:
 1174 0022 7047     		bx	lr
 1175              	.L68:
 1176              		.align	2
 1177              	.L67:
 1178 0024 00000000 		.word	.LANCHOR0
 1179 0028 014E0040 		.word	1073761793
 1180              		.cfi_endproc
 1181              	.LFE10:
 1182              		.size	ADC_DelSig_IsEndConversion, .-ADC_DelSig_IsEndConversion
 1183              		.section	.text.ADC_DelSig_GetResult8,"ax",%progbits
 1184              		.align	2
 1185              		.global	ADC_DelSig_GetResult8
 1186              		.thumb
 1187              		.thumb_func
 1188              		.type	ADC_DelSig_GetResult8, %function
ARM GAS  C:\Users\mitchell\AppData\Local\Temp\ccpqy6v3.s 			page 55


 1189              	ADC_DelSig_GetResult8:
 1190              	.LFB11:
 692:.\Generated_Source\PSoC5/ADC_DelSig.c **** {
 1191              		.loc 1 692 0
 1192              		.cfi_startproc
 1193              		@ args = 0, pretend = 0, frame = 0
 1194              		@ frame_needed = 0, uses_anonymous_args = 0
 1195              		@ link register save eliminated.
 697:.\Generated_Source\PSoC5/ADC_DelSig.c ****     coherency = ADC_DelSig_DEC_COHER_REG & ADC_DelSig_DEC_SAMP_KEY_MASK;
 1196              		.loc 1 697 0
 1197 0000 0C4B     		ldr	r3, .L73
 1198 0002 1B78     		ldrb	r3, [r3]	@ zero_extendqisi2
 1199 0004 03F00303 		and	r3, r3, #3
 1200              	.LVL104:
 699:.\Generated_Source\PSoC5/ADC_DelSig.c ****     result = (int8)ADC_DelSig_DEC_SAMP_REG;
 1201              		.loc 1 699 0
 1202 0008 0B4A     		ldr	r2, .L73+4
 1203 000a 1078     		ldrb	r0, [r2]	@ zero_extendqisi2
 1204              	.LVL105:
 701:.\Generated_Source\PSoC5/ADC_DelSig.c ****     if(coherency == ADC_DelSig_DEC_SAMP_KEY_MID)
 1205              		.loc 1 701 0
 1206 000c 022B     		cmp	r3, #2
 1207 000e 02D1     		bne	.L70
 703:.\Generated_Source\PSoC5/ADC_DelSig.c ****         (void)ADC_DelSig_DEC_SAMPM_REG;
 1208              		.loc 1 703 0
 1209 0010 0A4B     		ldr	r3, .L73+8
 1210              	.LVL106:
 1211 0012 1B78     		ldrb	r3, [r3]	@ zero_extendqisi2
 1212 0014 03E0     		b	.L71
 1213              	.LVL107:
 1214              	.L70:
 705:.\Generated_Source\PSoC5/ADC_DelSig.c ****     else  if(coherency == ADC_DelSig_DEC_SAMP_KEY_HIGH)
 1215              		.loc 1 705 0
 1216 0016 032B     		cmp	r3, #3
 1217 0018 01D1     		bne	.L71
 707:.\Generated_Source\PSoC5/ADC_DelSig.c ****         (void)ADC_DelSig_DEC_SAMPH_REG;
 1218              		.loc 1 707 0
 1219 001a 094B     		ldr	r3, .L73+12
 1220              	.LVL108:
 1221 001c 1B78     		ldrb	r3, [r3]	@ zero_extendqisi2
 1222              	.L71:
 713:.\Generated_Source\PSoC5/ADC_DelSig.c ****     if(ADC_DelSig_stopConversion != 0u)
 1223              		.loc 1 713 0
 1224 001e 094B     		ldr	r3, .L73+16
 1225 0020 1B79     		ldrb	r3, [r3, #4]	@ zero_extendqisi2
 1226 0022 13F0FF0F 		tst	r3, #255
 1227 0026 02D0     		beq	.L72
 715:.\Generated_Source\PSoC5/ADC_DelSig.c ****         ADC_DelSig_convDone = 0u;
 1228              		.loc 1 715 0
 1229 0028 0022     		movs	r2, #0
 1230 002a 064B     		ldr	r3, .L73+16
 1231 002c 5A71     		strb	r2, [r3, #5]
 1232              	.L72:
 718:.\Generated_Source\PSoC5/ADC_DelSig.c **** }
 1233              		.loc 1 718 0
 1234 002e 40B2     		sxtb	r0, r0
 1235              	.LVL109:
ARM GAS  C:\Users\mitchell\AppData\Local\Temp\ccpqy6v3.s 			page 56


 1236 0030 7047     		bx	lr
 1237              	.L74:
 1238 0032 00BF     		.align	2
 1239              	.L73:
 1240 0034 144E0040 		.word	1073761812
 1241 0038 104E0040 		.word	1073761808
 1242 003c 114E0040 		.word	1073761809
 1243 0040 124E0040 		.word	1073761810
 1244 0044 00000000 		.word	.LANCHOR0
 1245              		.cfi_endproc
 1246              	.LFE11:
 1247              		.size	ADC_DelSig_GetResult8, .-ADC_DelSig_GetResult8
 1248              		.section	.text.ADC_DelSig_GetResult16,"ax",%progbits
 1249              		.align	2
 1250              		.global	ADC_DelSig_GetResult16
 1251              		.thumb
 1252              		.thumb_func
 1253              		.type	ADC_DelSig_GetResult16, %function
 1254              	ADC_DelSig_GetResult16:
 1255              	.LFB12:
 746:.\Generated_Source\PSoC5/ADC_DelSig.c **** {
 1256              		.loc 1 746 0
 1257              		.cfi_startproc
 1258              		@ args = 0, pretend = 0, frame = 0
 1259              		@ frame_needed = 0, uses_anonymous_args = 0
 1260              		@ link register save eliminated.
 751:.\Generated_Source\PSoC5/ADC_DelSig.c ****     coherency = ADC_DelSig_DEC_COHER_REG & ADC_DelSig_DEC_SAMP_KEY_MASK;
 1261              		.loc 1 751 0
 1262 0000 0E4B     		ldr	r3, .L79
 1263 0002 1B78     		ldrb	r3, [r3]	@ zero_extendqisi2
 1264 0004 03F00303 		and	r3, r3, #3
 1265              	.LVL110:
 753:.\Generated_Source\PSoC5/ADC_DelSig.c ****     if(coherency <= ADC_DelSig_DEC_SAMP_KEY_LOW)
 1266              		.loc 1 753 0
 1267 0008 012B     		cmp	r3, #1
 1268 000a 03D8     		bhi	.L76
 759:.\Generated_Source\PSoC5/ADC_DelSig.c ****             result = (CY_GET_REG16(ADC_DelSig_DEC_SAMP_16B_PTR));
 1269              		.loc 1 759 0
 1270 000c 0C4B     		ldr	r3, .L79+4
 1271              	.LVL111:
 1272 000e 1888     		ldrh	r0, [r3]
 1273 0010 80B2     		uxth	r0, r0
 1274              	.LVL112:
 1275 0012 09E0     		b	.L77
 1276              	.LVL113:
 1277              	.L76:
 767:.\Generated_Source\PSoC5/ADC_DelSig.c ****             result = ADC_DelSig_DEC_SAMP_REG;
 1278              		.loc 1 767 0
 1279 0014 0A4A     		ldr	r2, .L79+4
 1280 0016 1278     		ldrb	r2, [r2]	@ zero_extendqisi2
 1281              	.LVL114:
 768:.\Generated_Source\PSoC5/ADC_DelSig.c ****             result |=  (uint16)((uint16)ADC_DelSig_DEC_SAMPM_REG << 8u);
 1282              		.loc 1 768 0
 1283 0018 0A49     		ldr	r1, .L79+8
 1284 001a 0878     		ldrb	r0, [r1]	@ zero_extendqisi2
 1285 001c 42EA0020 		orr	r0, r2, r0, lsl #8
 1286              	.LVL115:
ARM GAS  C:\Users\mitchell\AppData\Local\Temp\ccpqy6v3.s 			page 57


 770:.\Generated_Source\PSoC5/ADC_DelSig.c ****         if(coherency == ADC_DelSig_DEC_SAMP_KEY_HIGH)
 1287              		.loc 1 770 0
 1288 0020 032B     		cmp	r3, #3
 1289 0022 01D1     		bne	.L77
 772:.\Generated_Source\PSoC5/ADC_DelSig.c ****             (void)ADC_DelSig_DEC_SAMPH_REG;
 1290              		.loc 1 772 0
 1291 0024 084B     		ldr	r3, .L79+12
 1292              	.LVL116:
 1293 0026 1B78     		ldrb	r3, [r3]	@ zero_extendqisi2
 1294              	.LVL117:
 1295              	.L77:
 776:.\Generated_Source\PSoC5/ADC_DelSig.c ****     if(ADC_DelSig_stopConversion != 0u)
 1296              		.loc 1 776 0
 1297 0028 084B     		ldr	r3, .L79+16
 1298 002a 1B79     		ldrb	r3, [r3, #4]	@ zero_extendqisi2
 1299 002c 13F0FF0F 		tst	r3, #255
 1300 0030 02D0     		beq	.L78
 778:.\Generated_Source\PSoC5/ADC_DelSig.c ****         ADC_DelSig_convDone = 0u;
 1301              		.loc 1 778 0
 1302 0032 0022     		movs	r2, #0
 1303 0034 054B     		ldr	r3, .L79+16
 1304 0036 5A71     		strb	r2, [r3, #5]
 1305              	.L78:
 782:.\Generated_Source\PSoC5/ADC_DelSig.c **** }
 1306              		.loc 1 782 0
 1307 0038 00B2     		sxth	r0, r0
 1308              	.LVL118:
 1309 003a 7047     		bx	lr
 1310              	.L80:
 1311              		.align	2
 1312              	.L79:
 1313 003c 144E0040 		.word	1073761812
 1314 0040 104E0040 		.word	1073761808
 1315 0044 114E0040 		.word	1073761809
 1316 0048 124E0040 		.word	1073761810
 1317 004c 00000000 		.word	.LANCHOR0
 1318              		.cfi_endproc
 1319              	.LFE12:
 1320              		.size	ADC_DelSig_GetResult16, .-ADC_DelSig_GetResult16
 1321              		.section	.text.ADC_DelSig_GetResult32,"ax",%progbits
 1322              		.align	2
 1323              		.global	ADC_DelSig_GetResult32
 1324              		.thumb
 1325              		.thumb_func
 1326              		.type	ADC_DelSig_GetResult32, %function
 1327              	ADC_DelSig_GetResult32:
 1328              	.LFB13:
 806:.\Generated_Source\PSoC5/ADC_DelSig.c **** {
 1329              		.loc 1 806 0
 1330              		.cfi_startproc
 1331              		@ args = 0, pretend = 0, frame = 0
 1332              		@ frame_needed = 0, uses_anonymous_args = 0
 1333              		@ link register save eliminated.
 814:.\Generated_Source\PSoC5/ADC_DelSig.c ****     coherency = ADC_DelSig_DEC_COHER_REG & ADC_DelSig_DEC_SAMP_KEY_MASK;
 1334              		.loc 1 814 0
 1335 0000 154B     		ldr	r3, .L86
 1336 0002 1B78     		ldrb	r3, [r3]	@ zero_extendqisi2
ARM GAS  C:\Users\mitchell\AppData\Local\Temp\ccpqy6v3.s 			page 58


 1337 0004 03F00303 		and	r3, r3, #3
 1338              	.LVL119:
 816:.\Generated_Source\PSoC5/ADC_DelSig.c ****     if(coherency <= ADC_DelSig_DEC_SAMP_KEY_LOW)
 1339              		.loc 1 816 0
 1340 0008 012B     		cmp	r3, #1
 1341 000a 07D8     		bhi	.L82
 827:.\Generated_Source\PSoC5/ADC_DelSig.c ****             result = CY_GET_REG16(ADC_DelSig_DEC_SAMPH_16B_PTR);
 1342              		.loc 1 827 0
 1343 000c 134B     		ldr	r3, .L86+4
 1344              	.LVL120:
 1345 000e 1B88     		ldrh	r3, [r3]
 1346              	.LVL121:
 828:.\Generated_Source\PSoC5/ADC_DelSig.c ****             result = (result << 16u) | (CY_GET_REG16(ADC_DelSig_DEC_SAMP_16B_PTR));
 1347              		.loc 1 828 0
 1348 0010 134A     		ldr	r2, .L86+8
 1349 0012 1088     		ldrh	r0, [r2]
 1350 0014 80B2     		uxth	r0, r0
 1351 0016 40EA0340 		orr	r0, r0, r3, lsl #16
 1352              	.LVL122:
 1353 001a 13E0     		b	.L83
 1354              	.LVL123:
 1355              	.L82:
 831:.\Generated_Source\PSoC5/ADC_DelSig.c ****     else if(coherency == ADC_DelSig_DEC_SAMP_KEY_MID)
 1356              		.loc 1 831 0
 1357 001c 022B     		cmp	r3, #2
 1358 001e 0AD1     		bne	.L84
 841:.\Generated_Source\PSoC5/ADC_DelSig.c ****             result = CY_GET_REG16(ADC_DelSig_DEC_SAMPH_16B_PTR);
 1359              		.loc 1 841 0
 1360 0020 0E4B     		ldr	r3, .L86+4
 1361              	.LVL124:
 1362 0022 1888     		ldrh	r0, [r3]
 1363              	.LVL125:
 842:.\Generated_Source\PSoC5/ADC_DelSig.c ****             result = (result << 16u) | ADC_DelSig_DEC_SAMP_REG;
 1364              		.loc 1 842 0
 1365 0024 023B     		subs	r3, r3, #2
 1366 0026 1B78     		ldrb	r3, [r3]	@ zero_extendqisi2
 1367 0028 43EA0040 		orr	r0, r3, r0, lsl #16
 1368              	.LVL126:
 843:.\Generated_Source\PSoC5/ADC_DelSig.c ****             result |=  (uint32)((uint32)ADC_DelSig_DEC_SAMPM_REG << 8u);
 1369              		.loc 1 843 0
 1370 002c 0D4B     		ldr	r3, .L86+12
 1371 002e 1B78     		ldrb	r3, [r3]	@ zero_extendqisi2
 1372 0030 40EA0320 		orr	r0, r0, r3, lsl #8
 1373              	.LVL127:
 1374 0034 06E0     		b	.L83
 1375              	.LVL128:
 1376              	.L84:
 858:.\Generated_Source\PSoC5/ADC_DelSig.c ****             result = CY_GET_REG16(ADC_DelSig_DEC_SAMP_16B_PTR);
 1377              		.loc 1 858 0
 1378 0036 0A4B     		ldr	r3, .L86+8
 1379              	.LVL129:
 1380 0038 1888     		ldrh	r0, [r3]
 1381 003a 80B2     		uxth	r0, r0
 1382              	.LVL130:
 859:.\Generated_Source\PSoC5/ADC_DelSig.c ****             result |= (uint32)((uint32)CY_GET_REG16(ADC_DelSig_DEC_SAMPH_16B_PTR) << 16u);
 1383              		.loc 1 859 0
 1384 003c 0233     		adds	r3, r3, #2
ARM GAS  C:\Users\mitchell\AppData\Local\Temp\ccpqy6v3.s 			page 59


 1385 003e 1B88     		ldrh	r3, [r3]
 1386 0040 40EA0340 		orr	r0, r0, r3, lsl #16
 1387              	.LVL131:
 1388              	.L83:
 863:.\Generated_Source\PSoC5/ADC_DelSig.c ****     if(ADC_DelSig_stopConversion != 0u)
 1389              		.loc 1 863 0
 1390 0044 084B     		ldr	r3, .L86+16
 1391 0046 1B79     		ldrb	r3, [r3, #4]	@ zero_extendqisi2
 1392 0048 13F0FF0F 		tst	r3, #255
 1393 004c 02D0     		beq	.L85
 865:.\Generated_Source\PSoC5/ADC_DelSig.c ****         ADC_DelSig_convDone = 0u;
 1394              		.loc 1 865 0
 1395 004e 0022     		movs	r2, #0
 1396 0050 054B     		ldr	r3, .L86+16
 1397 0052 5A71     		strb	r2, [r3, #5]
 1398              	.L85:
 869:.\Generated_Source\PSoC5/ADC_DelSig.c **** }
 1399              		.loc 1 869 0
 1400 0054 7047     		bx	lr
 1401              	.L87:
 1402 0056 00BF     		.align	2
 1403              	.L86:
 1404 0058 144E0040 		.word	1073761812
 1405 005c 124E0040 		.word	1073761810
 1406 0060 104E0040 		.word	1073761808
 1407 0064 114E0040 		.word	1073761809
 1408 0068 00000000 		.word	.LANCHOR0
 1409              		.cfi_endproc
 1410              	.LFE13:
 1411              		.size	ADC_DelSig_GetResult32, .-ADC_DelSig_GetResult32
 1412              		.section	.text.ADC_DelSig_SetOffset,"ax",%progbits
 1413              		.align	2
 1414              		.global	ADC_DelSig_SetOffset
 1415              		.thumb
 1416              		.thumb_func
 1417              		.type	ADC_DelSig_SetOffset, %function
 1418              	ADC_DelSig_SetOffset:
 1419              	.LFB14:
 899:.\Generated_Source\PSoC5/ADC_DelSig.c **** {
 1420              		.loc 1 899 0
 1421              		.cfi_startproc
 1422              		@ args = 0, pretend = 0, frame = 0
 1423              		@ frame_needed = 0, uses_anonymous_args = 0
 1424              		@ link register save eliminated.
 1425              	.LVL132:
 901:.\Generated_Source\PSoC5/ADC_DelSig.c ****     ADC_DelSig_Offset = offset;
 1426              		.loc 1 901 0
 1427 0000 014B     		ldr	r3, .L89
 1428 0002 1860     		str	r0, [r3]
 1429 0004 7047     		bx	lr
 1430              	.L90:
 1431 0006 00BF     		.align	2
 1432              	.L89:
 1433 0008 00000000 		.word	ADC_DelSig_Offset
 1434              		.cfi_endproc
 1435              	.LFE14:
 1436              		.size	ADC_DelSig_SetOffset, .-ADC_DelSig_SetOffset
ARM GAS  C:\Users\mitchell\AppData\Local\Temp\ccpqy6v3.s 			page 60


 1437              		.section	.text.ADC_DelSig_SetGain,"ax",%progbits
 1438              		.align	2
 1439              		.global	ADC_DelSig_SetGain
 1440              		.thumb
 1441              		.thumb_func
 1442              		.type	ADC_DelSig_SetGain, %function
 1443              	ADC_DelSig_SetGain:
 1444              	.LFB15:
 934:.\Generated_Source\PSoC5/ADC_DelSig.c **** {
 1445              		.loc 1 934 0
 1446              		.cfi_startproc
 1447              		@ args = 0, pretend = 0, frame = 0
 1448              		@ frame_needed = 0, uses_anonymous_args = 0
 1449              		@ link register save eliminated.
 1450              	.LVL133:
 935:.\Generated_Source\PSoC5/ADC_DelSig.c ****     ADC_DelSig_CountsPerVolt = adcGain;
 1451              		.loc 1 935 0
 1452 0000 014B     		ldr	r3, .L92
 1453 0002 1860     		str	r0, [r3]
 1454 0004 7047     		bx	lr
 1455              	.L93:
 1456 0006 00BF     		.align	2
 1457              	.L92:
 1458 0008 00000000 		.word	ADC_DelSig_CountsPerVolt
 1459              		.cfi_endproc
 1460              	.LFE15:
 1461              		.size	ADC_DelSig_SetGain, .-ADC_DelSig_SetGain
 1462              		.section	.text.ADC_DelSig_CountsTo_mVolts,"ax",%progbits
 1463              		.align	2
 1464              		.global	ADC_DelSig_CountsTo_mVolts
 1465              		.thumb
 1466              		.thumb_func
 1467              		.type	ADC_DelSig_CountsTo_mVolts, %function
 1468              	ADC_DelSig_CountsTo_mVolts:
 1469              	.LFB16:
 961:.\Generated_Source\PSoC5/ADC_DelSig.c **** {
 1470              		.loc 1 961 0
 1471              		.cfi_startproc
 1472              		@ args = 0, pretend = 0, frame = 0
 1473              		@ frame_needed = 0, uses_anonymous_args = 0
 1474              		@ link register save eliminated.
 1475              	.LVL134:
 992:.\Generated_Source\PSoC5/ADC_DelSig.c ****     adcCounts -= ADC_DelSig_Offset;
 1476              		.loc 1 992 0
 1477 0000 064B     		ldr	r3, .L95
 1478 0002 1B68     		ldr	r3, [r3]
 1479 0004 C31A     		subs	r3, r0, r3
 1480              	.LVL135:
 994:.\Generated_Source\PSoC5/ADC_DelSig.c ****     mVolts = (int16)(( adcCounts * ADC_DelSig_1MV_COUNTS ) / ADC_DelSig_CountsPerVolt) ;
 1481              		.loc 1 994 0
 1482 0006 4FF47A70 		mov	r0, #1000
 1483 000a 00FB03F0 		mul	r0, r0, r3
 1484 000e 044B     		ldr	r3, .L95+4
 1485              	.LVL136:
 1486 0010 1A68     		ldr	r2, [r3]
 1487 0012 90FBF2F0 		sdiv	r0, r0, r2
 1488              	.LVL137:
ARM GAS  C:\Users\mitchell\AppData\Local\Temp\ccpqy6v3.s 			page 61


 997:.\Generated_Source\PSoC5/ADC_DelSig.c **** }
 1489              		.loc 1 997 0
 1490 0016 00B2     		sxth	r0, r0
 1491              	.LVL138:
 1492 0018 7047     		bx	lr
 1493              	.L96:
 1494 001a 00BF     		.align	2
 1495              	.L95:
 1496 001c 00000000 		.word	ADC_DelSig_Offset
 1497 0020 00000000 		.word	ADC_DelSig_CountsPerVolt
 1498              		.cfi_endproc
 1499              	.LFE16:
 1500              		.size	ADC_DelSig_CountsTo_mVolts, .-ADC_DelSig_CountsTo_mVolts
 1501              		.global	__aeabi_i2f
 1502              		.global	__aeabi_fdiv
 1503              		.section	.text.ADC_DelSig_CountsTo_Volts,"ax",%progbits
 1504              		.align	2
 1505              		.global	ADC_DelSig_CountsTo_Volts
 1506              		.thumb
 1507              		.thumb_func
 1508              		.type	ADC_DelSig_CountsTo_Volts, %function
 1509              	ADC_DelSig_CountsTo_Volts:
 1510              	.LFB17:
1022:.\Generated_Source\PSoC5/ADC_DelSig.c **** {
 1511              		.loc 1 1022 0
 1512              		.cfi_startproc
 1513              		@ args = 0, pretend = 0, frame = 0
 1514              		@ frame_needed = 0, uses_anonymous_args = 0
 1515              	.LVL139:
 1516 0000 10B5     		push	{r4, lr}
 1517              		.cfi_def_cfa_offset 8
 1518              		.cfi_offset 4, -8
 1519              		.cfi_offset 14, -4
1053:.\Generated_Source\PSoC5/ADC_DelSig.c ****     adcCounts -= ADC_DelSig_Offset;
 1520              		.loc 1 1053 0
 1521 0002 074B     		ldr	r3, .L98
 1522 0004 1B68     		ldr	r3, [r3]
 1523              	.LVL140:
1055:.\Generated_Source\PSoC5/ADC_DelSig.c ****     Volts = (float32)adcCounts / (float32)ADC_DelSig_CountsPerVolt;
 1524              		.loc 1 1055 0
 1525 0006 C01A     		subs	r0, r0, r3
 1526              	.LVL141:
 1527 0008 FFF7FEFF 		bl	__aeabi_i2f
 1528              	.LVL142:
 1529 000c 0446     		mov	r4, r0
 1530 000e 054B     		ldr	r3, .L98+4
 1531 0010 1868     		ldr	r0, [r3]
 1532 0012 FFF7FEFF 		bl	__aeabi_i2f
 1533              	.LVL143:
 1534 0016 0146     		mov	r1, r0
 1535 0018 2046     		mov	r0, r4
 1536 001a FFF7FEFF 		bl	__aeabi_fdiv
 1537              	.LVL144:
1058:.\Generated_Source\PSoC5/ADC_DelSig.c **** }
 1538              		.loc 1 1058 0
 1539 001e 10BD     		pop	{r4, pc}
 1540              	.L99:
ARM GAS  C:\Users\mitchell\AppData\Local\Temp\ccpqy6v3.s 			page 62


 1541              		.align	2
 1542              	.L98:
 1543 0020 00000000 		.word	ADC_DelSig_Offset
 1544 0024 00000000 		.word	ADC_DelSig_CountsPerVolt
 1545              		.cfi_endproc
 1546              	.LFE17:
 1547              		.size	ADC_DelSig_CountsTo_Volts, .-ADC_DelSig_CountsTo_Volts
 1548              		.section	.text.ADC_DelSig_CountsTo_uVolts,"ax",%progbits
 1549              		.align	2
 1550              		.global	ADC_DelSig_CountsTo_uVolts
 1551              		.thumb
 1552              		.thumb_func
 1553              		.type	ADC_DelSig_CountsTo_uVolts, %function
 1554              	ADC_DelSig_CountsTo_uVolts:
 1555              	.LFB18:
1088:.\Generated_Source\PSoC5/ADC_DelSig.c **** {
 1556              		.loc 1 1088 0
 1557              		.cfi_startproc
 1558              		@ args = 0, pretend = 0, frame = 0
 1559              		@ frame_needed = 0, uses_anonymous_args = 0
 1560              		@ link register save eliminated.
 1561              	.LVL145:
1097:.\Generated_Source\PSoC5/ADC_DelSig.c ****     if (ADC_DelSig_Config == ADC_DelSig_CFG1)
 1562              		.loc 1 1097 0
 1563 0000 174B     		ldr	r3, .L109
 1564 0002 1B78     		ldrb	r3, [r3]	@ zero_extendqisi2
 1565 0004 DBB2     		uxtb	r3, r3
 1566 0006 012B     		cmp	r3, #1
 1567 0008 08D0     		beq	.L105
1104:.\Generated_Source\PSoC5/ADC_DelSig.c ****     else if (ADC_DelSig_Config == ADC_DelSig_CFG2)
 1568              		.loc 1 1104 0
 1569 000a 154B     		ldr	r3, .L109
 1570 000c 1B78     		ldrb	r3, [r3]	@ zero_extendqisi2
 1571 000e DBB2     		uxtb	r3, r3
 1572 0010 022B     		cmp	r3, #2
 1573 0012 05D0     		beq	.L106
1111:.\Generated_Source\PSoC5/ADC_DelSig.c ****     else if (ADC_DelSig_Config == ADC_DelSig_CFG3)
 1574              		.loc 1 1111 0
 1575 0014 124B     		ldr	r3, .L109
 1576 0016 1B78     		ldrb	r3, [r3]	@ zero_extendqisi2
1113:.\Generated_Source\PSoC5/ADC_DelSig.c ****         resolution = ADC_DelSig_CFG3_RESOLUTION;
 1577              		.loc 1 1113 0
 1578 0018 1023     		movs	r3, #16
 1579 001a 02E0     		b	.L101
 1580              	.L105:
1099:.\Generated_Source\PSoC5/ADC_DelSig.c ****         resolution = ADC_DelSig_CFG1_RESOLUTION;
 1581              		.loc 1 1099 0
 1582 001c 0E23     		movs	r3, #14
 1583 001e 00E0     		b	.L101
 1584              	.L106:
1106:.\Generated_Source\PSoC5/ADC_DelSig.c ****         resolution = ADC_DelSig_CFG2_RESOLUTION;
 1585              		.loc 1 1106 0
 1586 0020 1023     		movs	r3, #16
 1587              	.L101:
 1588              	.LVL146:
1126:.\Generated_Source\PSoC5/ADC_DelSig.c ****     switch (resolution)
 1589              		.loc 1 1126 0
ARM GAS  C:\Users\mitchell\AppData\Local\Temp\ccpqy6v3.s 			page 63


 1590 0022 0E2B     		cmp	r3, #14
 1591 0024 02D0     		beq	.L103
 1592 0026 102B     		cmp	r3, #16
 1593 0028 06D0     		beq	.L107
 1594 002a 02E0     		b	.L108
 1595              	.L103:
1152:.\Generated_Source\PSoC5/ADC_DelSig.c ****                 coefB = ADC_DelSig_DIVISOR_8;
 1596              		.loc 1 1152 0
 1597 002c 0823     		movs	r3, #8
 1598              	.LVL147:
1151:.\Generated_Source\PSoC5/ADC_DelSig.c ****                 coefA = ADC_DelSig_1UV_COUNTS / ADC_DelSig_DIVISOR_8;
 1599              		.loc 1 1151 0
 1600 002e 0D4A     		ldr	r2, .L109+4
 1601 0030 05E0     		b	.L104
 1602              	.LVL148:
 1603              	.L108:
1212:.\Generated_Source\PSoC5/ADC_DelSig.c ****             coefB = ADC_DelSig_DIVISOR_1;
 1604              		.loc 1 1212 0
 1605 0032 0123     		movs	r3, #1
 1606              	.LVL149:
1211:.\Generated_Source\PSoC5/ADC_DelSig.c ****             coefA = ADC_DelSig_1UV_COUNTS;
 1607              		.loc 1 1211 0
 1608 0034 0C4A     		ldr	r2, .L109+8
1213:.\Generated_Source\PSoC5/ADC_DelSig.c ****             break;
 1609              		.loc 1 1213 0
 1610 0036 02E0     		b	.L104
 1611              	.LVL150:
 1612              	.L107:
1170:.\Generated_Source\PSoC5/ADC_DelSig.c ****                 coefB = ADC_DelSig_DIVISOR_32;
 1613              		.loc 1 1170 0
 1614 0038 2023     		movs	r3, #32
 1615              	.LVL151:
1169:.\Generated_Source\PSoC5/ADC_DelSig.c ****                 coefA = ADC_DelSig_1UV_COUNTS / ADC_DelSig_DIVISOR_32;
 1616              		.loc 1 1169 0
 1617 003a 47F61222 		movw	r2, #31250
 1618              	.L104:
 1619              	.LVL152:
1215:.\Generated_Source\PSoC5/ADC_DelSig.c ****     coefB = ADC_DelSig_CountsPerVolt / coefB;
 1620              		.loc 1 1215 0
 1621 003e 0B49     		ldr	r1, .L109+12
 1622 0040 0968     		ldr	r1, [r1]
 1623 0042 91FBF3F3 		sdiv	r3, r1, r3
 1624              	.LVL153:
1216:.\Generated_Source\PSoC5/ADC_DelSig.c ****     uVolts = ((coefA * adcCounts) / coefB) - ((coefA * ADC_DelSig_Offset) / coefB);
 1625              		.loc 1 1216 0
 1626 0046 00FB02F0 		mul	r0, r0, r2
 1627              	.LVL154:
 1628 004a 90FBF3F0 		sdiv	r0, r0, r3
 1629 004e 0849     		ldr	r1, .L109+16
 1630 0050 0968     		ldr	r1, [r1]
 1631 0052 01FB02F2 		mul	r2, r1, r2
 1632              	.LVL155:
 1633 0056 92FBF3F3 		sdiv	r3, r2, r3
 1634              	.LVL156:
1219:.\Generated_Source\PSoC5/ADC_DelSig.c **** }
 1635              		.loc 1 1219 0
 1636 005a C01A     		subs	r0, r0, r3
ARM GAS  C:\Users\mitchell\AppData\Local\Temp\ccpqy6v3.s 			page 64


 1637              	.LVL157:
 1638 005c 7047     		bx	lr
 1639              	.L110:
 1640 005e 00BF     		.align	2
 1641              	.L109:
 1642 0060 00000000 		.word	.LANCHOR1
 1643 0064 48E80100 		.word	125000
 1644 0068 40420F00 		.word	1000000
 1645 006c 00000000 		.word	ADC_DelSig_CountsPerVolt
 1646 0070 00000000 		.word	ADC_DelSig_Offset
 1647              		.cfi_endproc
 1648              	.LFE18:
 1649              		.size	ADC_DelSig_CountsTo_uVolts, .-ADC_DelSig_CountsTo_uVolts
 1650              		.section	.text.ADC_DelSig_SelectConfiguration,"ax",%progbits
 1651              		.align	2
 1652              		.global	ADC_DelSig_SelectConfiguration
 1653              		.thumb
 1654              		.thumb_func
 1655              		.type	ADC_DelSig_SelectConfiguration, %function
 1656              	ADC_DelSig_SelectConfiguration:
 1657              	.LFB20:
1554:.\Generated_Source\PSoC5/ADC_DelSig.c **** {
 1658              		.loc 1 1554 0
 1659              		.cfi_startproc
 1660              		@ args = 0, pretend = 0, frame = 0
 1661              		@ frame_needed = 0, uses_anonymous_args = 0
 1662              	.LVL158:
 1663 0000 38B5     		push	{r3, r4, r5, lr}
 1664              		.cfi_def_cfa_offset 16
 1665              		.cfi_offset 3, -16
 1666              		.cfi_offset 4, -12
 1667              		.cfi_offset 5, -8
 1668              		.cfi_offset 14, -4
 1669 0002 0446     		mov	r4, r0
 1670 0004 0D46     		mov	r5, r1
1556:.\Generated_Source\PSoC5/ADC_DelSig.c ****     if((config > 0u) && (config <= ADC_DelSig_DEFAULT_NUM_CONFIGS))
 1671              		.loc 1 1556 0
 1672 0006 0128     		cmp	r0, #1
 1673 0008 1ED1     		bne	.L112
1561:.\Generated_Source\PSoC5/ADC_DelSig.c ****         if(ADC_DelSig_initVar == 0u)
 1674              		.loc 1 1561 0
 1675 000a 114B     		ldr	r3, .L115
 1676 000c 9B79     		ldrb	r3, [r3, #6]	@ zero_extendqisi2
 1677 000e 13B9     		cbnz	r3, .L113
1563:.\Generated_Source\PSoC5/ADC_DelSig.c ****             ADC_DelSig_started = 1u;
 1678              		.loc 1 1563 0
 1679 0010 0122     		movs	r2, #1
 1680 0012 0F4B     		ldr	r3, .L115
 1681 0014 DA71     		strb	r2, [r3, #7]
 1682              	.L113:
1567:.\Generated_Source\PSoC5/ADC_DelSig.c ****         ADC_DelSig_Config = config;
 1683              		.loc 1 1567 0
 1684 0016 0F4B     		ldr	r3, .L115+4
 1685 0018 1C70     		strb	r4, [r3]
1570:.\Generated_Source\PSoC5/ADC_DelSig.c ****         ADC_DelSig_Stop();
 1686              		.loc 1 1570 0
 1687 001a FFF7FEFF 		bl	ADC_DelSig_Stop
ARM GAS  C:\Users\mitchell\AppData\Local\Temp\ccpqy6v3.s 			page 65


 1688              	.LVL159:
1573:.\Generated_Source\PSoC5/ADC_DelSig.c ****         ADC_DelSig_InitConfig(config);
 1689              		.loc 1 1573 0
 1690 001e 2046     		mov	r0, r4
 1691 0020 FFF7FEFF 		bl	ADC_DelSig_InitConfig
 1692              	.LVL160:
1576:.\Generated_Source\PSoC5/ADC_DelSig.c ****         ADC_DelSig_DEC_GVAL_REG = ADC_DelSig_gcor[config - 1u].gval;
 1693              		.loc 1 1576 0
 1694 0024 013C     		subs	r4, r4, #1
 1695 0026 0A4B     		ldr	r3, .L115
 1696 0028 03EB8402 		add	r2, r3, r4, lsl #2
 1697 002c 9178     		ldrb	r1, [r2, #2]	@ zero_extendqisi2
 1698 002e 0A4A     		ldr	r2, .L115+8
 1699 0030 1170     		strb	r1, [r2]
1577:.\Generated_Source\PSoC5/ADC_DelSig.c ****         CY_SET_REG16(ADC_DelSig_DEC_GCOR_16B_PTR, ADC_DelSig_gcor[config - 1u].gcor);
 1700              		.loc 1 1577 0
 1701 0032 33F82420 		ldrh	r2, [r3, r4, lsl #2]
 1702 0036 094B     		ldr	r3, .L115+12
 1703 0038 1A80     		strh	r2, [r3]	@ movhi
1579:.\Generated_Source\PSoC5/ADC_DelSig.c ****         if(restart == 1u)
 1704              		.loc 1 1579 0
 1705 003a 012D     		cmp	r5, #1
 1706 003c 07D1     		bne	.L111
1582:.\Generated_Source\PSoC5/ADC_DelSig.c ****             ADC_DelSig_Start();
 1707              		.loc 1 1582 0
 1708 003e FFF7FEFF 		bl	ADC_DelSig_Start
 1709              	.LVL161:
1585:.\Generated_Source\PSoC5/ADC_DelSig.c ****             ADC_DelSig_StartConvert();
 1710              		.loc 1 1585 0
 1711 0042 FFF7FEFF 		bl	ADC_DelSig_StartConvert
 1712              	.LVL162:
 1713 0046 38BD     		pop	{r3, r4, r5, pc}
 1714              	.LVL163:
 1715              	.L112:
1591:.\Generated_Source\PSoC5/ADC_DelSig.c ****         CYASSERT(0u != 0u);
 1716              		.loc 1 1591 0 discriminator 1
 1717 0048 0020     		movs	r0, #0
 1718              	.LVL164:
 1719 004a FFF7FEFF 		bl	CyHalt
 1720              	.LVL165:
 1721              	.L111:
 1722 004e 38BD     		pop	{r3, r4, r5, pc}
 1723              	.L116:
 1724              		.align	2
 1725              	.L115:
 1726 0050 00000000 		.word	.LANCHOR0
 1727 0054 00000000 		.word	.LANCHOR1
 1728 0058 0E4E0040 		.word	1073761806
 1729 005c 0C4E0040 		.word	1073761804
 1730              		.cfi_endproc
 1731              	.LFE20:
 1732              		.size	ADC_DelSig_SelectConfiguration, .-ADC_DelSig_SelectConfiguration
 1733              		.section	.text.ADC_DelSig_Read8,"ax",%progbits
 1734              		.align	2
 1735              		.global	ADC_DelSig_Read8
 1736              		.thumb
 1737              		.thumb_func
ARM GAS  C:\Users\mitchell\AppData\Local\Temp\ccpqy6v3.s 			page 66


 1738              		.type	ADC_DelSig_Read8, %function
 1739              	ADC_DelSig_Read8:
 1740              	.LFB23:
1741:.\Generated_Source\PSoC5/ADC_DelSig.c **** }
1742:.\Generated_Source\PSoC5/ADC_DelSig.c **** 
1743:.\Generated_Source\PSoC5/ADC_DelSig.c **** 
1744:.\Generated_Source\PSoC5/ADC_DelSig.c **** /*******************************************************************************
1745:.\Generated_Source\PSoC5/ADC_DelSig.c **** * Function Name: ADC_DelSig_Read8
1746:.\Generated_Source\PSoC5/ADC_DelSig.c **** ********************************************************************************
1747:.\Generated_Source\PSoC5/ADC_DelSig.c **** *
1748:.\Generated_Source\PSoC5/ADC_DelSig.c **** * Summary:
1749:.\Generated_Source\PSoC5/ADC_DelSig.c **** *  This function simplifies getting results from the ADC when only a
1750:.\Generated_Source\PSoC5/ADC_DelSig.c **** *  single reading is required. When called, it will start ADC
1751:.\Generated_Source\PSoC5/ADC_DelSig.c **** *  conversions, wait for the conversion to be complete, stop ADC
1752:.\Generated_Source\PSoC5/ADC_DelSig.c **** *  conversion and return the result. This is a blocking function and will
1753:.\Generated_Source\PSoC5/ADC_DelSig.c **** *  not return until the result is ready.
1754:.\Generated_Source\PSoC5/ADC_DelSig.c **** *
1755:.\Generated_Source\PSoC5/ADC_DelSig.c **** * Parameters:
1756:.\Generated_Source\PSoC5/ADC_DelSig.c **** *  None
1757:.\Generated_Source\PSoC5/ADC_DelSig.c **** *
1758:.\Generated_Source\PSoC5/ADC_DelSig.c **** * Return:
1759:.\Generated_Source\PSoC5/ADC_DelSig.c **** *  int8:  ADC result.
1760:.\Generated_Source\PSoC5/ADC_DelSig.c **** *
1761:.\Generated_Source\PSoC5/ADC_DelSig.c **** *******************************************************************************/
1762:.\Generated_Source\PSoC5/ADC_DelSig.c **** int8 ADC_DelSig_Read8(void) 
1763:.\Generated_Source\PSoC5/ADC_DelSig.c **** {
 1741              		.loc 1 1763 0
 1742              		.cfi_startproc
 1743              		@ args = 0, pretend = 0, frame = 0
 1744              		@ frame_needed = 0, uses_anonymous_args = 0
 1745 0000 10B5     		push	{r4, lr}
 1746              		.cfi_def_cfa_offset 8
 1747              		.cfi_offset 4, -8
 1748              		.cfi_offset 14, -4
1764:.\Generated_Source\PSoC5/ADC_DelSig.c ****     int8 result;
1765:.\Generated_Source\PSoC5/ADC_DelSig.c **** 
1766:.\Generated_Source\PSoC5/ADC_DelSig.c ****     /* Clear pending conversion done status */
1767:.\Generated_Source\PSoC5/ADC_DelSig.c ****     ADC_DelSig_DEC_SR_REG |= ADC_DelSig_DEC_INTR_CLEAR;
 1749              		.loc 1 1767 0
 1750 0002 084B     		ldr	r3, .L118
 1751 0004 1A78     		ldrb	r2, [r3]	@ zero_extendqisi2
 1752 0006 42F00402 		orr	r2, r2, #4
 1753 000a 1A70     		strb	r2, [r3]
1768:.\Generated_Source\PSoC5/ADC_DelSig.c ****     ADC_DelSig_StartConvert();
 1754              		.loc 1 1768 0
 1755 000c FFF7FEFF 		bl	ADC_DelSig_StartConvert
 1756              	.LVL166:
1769:.\Generated_Source\PSoC5/ADC_DelSig.c ****     (void)ADC_DelSig_IsEndConversion(ADC_DelSig_WAIT_FOR_RESULT);
 1757              		.loc 1 1769 0
 1758 0010 0020     		movs	r0, #0
 1759 0012 FFF7FEFF 		bl	ADC_DelSig_IsEndConversion
 1760              	.LVL167:
1770:.\Generated_Source\PSoC5/ADC_DelSig.c ****      result = ADC_DelSig_GetResult8();
 1761              		.loc 1 1770 0
 1762 0016 FFF7FEFF 		bl	ADC_DelSig_GetResult8
 1763              	.LVL168:
 1764 001a 0446     		mov	r4, r0
ARM GAS  C:\Users\mitchell\AppData\Local\Temp\ccpqy6v3.s 			page 67


 1765              	.LVL169:
1771:.\Generated_Source\PSoC5/ADC_DelSig.c ****     ADC_DelSig_StopConvert();
 1766              		.loc 1 1771 0
 1767 001c FFF7FEFF 		bl	ADC_DelSig_StopConvert
 1768              	.LVL170:
1772:.\Generated_Source\PSoC5/ADC_DelSig.c ****     
1773:.\Generated_Source\PSoC5/ADC_DelSig.c ****      return(result);
1774:.\Generated_Source\PSoC5/ADC_DelSig.c **** }
 1769              		.loc 1 1774 0
 1770 0020 2046     		mov	r0, r4
 1771 0022 10BD     		pop	{r4, pc}
 1772              	.LVL171:
 1773              	.L119:
 1774              		.align	2
 1775              	.L118:
 1776 0024 014E0040 		.word	1073761793
 1777              		.cfi_endproc
 1778              	.LFE23:
 1779              		.size	ADC_DelSig_Read8, .-ADC_DelSig_Read8
 1780              		.section	.text.ADC_DelSig_Read16,"ax",%progbits
 1781              		.align	2
 1782              		.global	ADC_DelSig_Read16
 1783              		.thumb
 1784              		.thumb_func
 1785              		.type	ADC_DelSig_Read16, %function
 1786              	ADC_DelSig_Read16:
 1787              	.LFB24:
1775:.\Generated_Source\PSoC5/ADC_DelSig.c **** 
1776:.\Generated_Source\PSoC5/ADC_DelSig.c **** 
1777:.\Generated_Source\PSoC5/ADC_DelSig.c **** /*******************************************************************************
1778:.\Generated_Source\PSoC5/ADC_DelSig.c **** * Function Name: ADC_DelSig_Read16
1779:.\Generated_Source\PSoC5/ADC_DelSig.c **** ********************************************************************************
1780:.\Generated_Source\PSoC5/ADC_DelSig.c **** *
1781:.\Generated_Source\PSoC5/ADC_DelSig.c **** * Summary:
1782:.\Generated_Source\PSoC5/ADC_DelSig.c **** *  This function simplifies getting results from the ADC when only a
1783:.\Generated_Source\PSoC5/ADC_DelSig.c **** *  single reading is required. When called, it will start ADC
1784:.\Generated_Source\PSoC5/ADC_DelSig.c **** *  conversions, wait for the conversion to be complete, stop ADC
1785:.\Generated_Source\PSoC5/ADC_DelSig.c **** *  conversion and return the result. This is a blocking function and will
1786:.\Generated_Source\PSoC5/ADC_DelSig.c **** *  not return until the result is ready.
1787:.\Generated_Source\PSoC5/ADC_DelSig.c **** *
1788:.\Generated_Source\PSoC5/ADC_DelSig.c **** * Parameters:
1789:.\Generated_Source\PSoC5/ADC_DelSig.c **** *   void
1790:.\Generated_Source\PSoC5/ADC_DelSig.c **** *
1791:.\Generated_Source\PSoC5/ADC_DelSig.c **** * Return:
1792:.\Generated_Source\PSoC5/ADC_DelSig.c **** *  int16:  ADC result.
1793:.\Generated_Source\PSoC5/ADC_DelSig.c **** *
1794:.\Generated_Source\PSoC5/ADC_DelSig.c **** *******************************************************************************/
1795:.\Generated_Source\PSoC5/ADC_DelSig.c **** int16 ADC_DelSig_Read16(void) 
1796:.\Generated_Source\PSoC5/ADC_DelSig.c **** {
 1788              		.loc 1 1796 0
 1789              		.cfi_startproc
 1790              		@ args = 0, pretend = 0, frame = 0
 1791              		@ frame_needed = 0, uses_anonymous_args = 0
 1792 0000 10B5     		push	{r4, lr}
 1793              		.cfi_def_cfa_offset 8
 1794              		.cfi_offset 4, -8
 1795              		.cfi_offset 14, -4
ARM GAS  C:\Users\mitchell\AppData\Local\Temp\ccpqy6v3.s 			page 68


1797:.\Generated_Source\PSoC5/ADC_DelSig.c ****     int16 result;
1798:.\Generated_Source\PSoC5/ADC_DelSig.c **** 
1799:.\Generated_Source\PSoC5/ADC_DelSig.c ****     /* Clear pending conversion done status */
1800:.\Generated_Source\PSoC5/ADC_DelSig.c ****     ADC_DelSig_DEC_SR_REG |= ADC_DelSig_DEC_INTR_CLEAR;
 1796              		.loc 1 1800 0
 1797 0002 084B     		ldr	r3, .L121
 1798 0004 1A78     		ldrb	r2, [r3]	@ zero_extendqisi2
 1799 0006 42F00402 		orr	r2, r2, #4
 1800 000a 1A70     		strb	r2, [r3]
1801:.\Generated_Source\PSoC5/ADC_DelSig.c ****     ADC_DelSig_StartConvert();
 1801              		.loc 1 1801 0
 1802 000c FFF7FEFF 		bl	ADC_DelSig_StartConvert
 1803              	.LVL172:
1802:.\Generated_Source\PSoC5/ADC_DelSig.c ****     (void)ADC_DelSig_IsEndConversion(ADC_DelSig_WAIT_FOR_RESULT);
 1804              		.loc 1 1802 0
 1805 0010 0020     		movs	r0, #0
 1806 0012 FFF7FEFF 		bl	ADC_DelSig_IsEndConversion
 1807              	.LVL173:
1803:.\Generated_Source\PSoC5/ADC_DelSig.c ****      result = ADC_DelSig_GetResult16();
 1808              		.loc 1 1803 0
 1809 0016 FFF7FEFF 		bl	ADC_DelSig_GetResult16
 1810              	.LVL174:
 1811 001a 0446     		mov	r4, r0
 1812              	.LVL175:
1804:.\Generated_Source\PSoC5/ADC_DelSig.c ****     ADC_DelSig_StopConvert();
 1813              		.loc 1 1804 0
 1814 001c FFF7FEFF 		bl	ADC_DelSig_StopConvert
 1815              	.LVL176:
1805:.\Generated_Source\PSoC5/ADC_DelSig.c ****     
1806:.\Generated_Source\PSoC5/ADC_DelSig.c ****      return(result);
1807:.\Generated_Source\PSoC5/ADC_DelSig.c **** }
 1816              		.loc 1 1807 0
 1817 0020 2046     		mov	r0, r4
 1818 0022 10BD     		pop	{r4, pc}
 1819              	.LVL177:
 1820              	.L122:
 1821              		.align	2
 1822              	.L121:
 1823 0024 014E0040 		.word	1073761793
 1824              		.cfi_endproc
 1825              	.LFE24:
 1826              		.size	ADC_DelSig_Read16, .-ADC_DelSig_Read16
 1827              		.section	.text.ADC_DelSig_Read32,"ax",%progbits
 1828              		.align	2
 1829              		.global	ADC_DelSig_Read32
 1830              		.thumb
 1831              		.thumb_func
 1832              		.type	ADC_DelSig_Read32, %function
 1833              	ADC_DelSig_Read32:
 1834              	.LFB25:
1808:.\Generated_Source\PSoC5/ADC_DelSig.c **** 
1809:.\Generated_Source\PSoC5/ADC_DelSig.c **** 
1810:.\Generated_Source\PSoC5/ADC_DelSig.c **** /*******************************************************************************
1811:.\Generated_Source\PSoC5/ADC_DelSig.c **** * Function Name: ADC_DelSig_Read32
1812:.\Generated_Source\PSoC5/ADC_DelSig.c **** ********************************************************************************
1813:.\Generated_Source\PSoC5/ADC_DelSig.c **** *
1814:.\Generated_Source\PSoC5/ADC_DelSig.c **** * Summary:
ARM GAS  C:\Users\mitchell\AppData\Local\Temp\ccpqy6v3.s 			page 69


1815:.\Generated_Source\PSoC5/ADC_DelSig.c **** *  This function simplifies getting results from the ADC when only a
1816:.\Generated_Source\PSoC5/ADC_DelSig.c **** *  single reading is required. When called, it will start ADC
1817:.\Generated_Source\PSoC5/ADC_DelSig.c **** *  conversions, wait for the conversion to be complete, stop ADC
1818:.\Generated_Source\PSoC5/ADC_DelSig.c **** *  conversion and return the result. This is a blocking function and will
1819:.\Generated_Source\PSoC5/ADC_DelSig.c **** *  not return until the result is ready.
1820:.\Generated_Source\PSoC5/ADC_DelSig.c **** *
1821:.\Generated_Source\PSoC5/ADC_DelSig.c **** * Parameters:
1822:.\Generated_Source\PSoC5/ADC_DelSig.c **** *  None
1823:.\Generated_Source\PSoC5/ADC_DelSig.c **** *
1824:.\Generated_Source\PSoC5/ADC_DelSig.c **** * Return:
1825:.\Generated_Source\PSoC5/ADC_DelSig.c **** *  int32: ADC result.
1826:.\Generated_Source\PSoC5/ADC_DelSig.c **** *
1827:.\Generated_Source\PSoC5/ADC_DelSig.c **** *******************************************************************************/
1828:.\Generated_Source\PSoC5/ADC_DelSig.c **** int32 ADC_DelSig_Read32(void) 
1829:.\Generated_Source\PSoC5/ADC_DelSig.c **** {
 1835              		.loc 1 1829 0
 1836              		.cfi_startproc
 1837              		@ args = 0, pretend = 0, frame = 0
 1838              		@ frame_needed = 0, uses_anonymous_args = 0
 1839 0000 10B5     		push	{r4, lr}
 1840              		.cfi_def_cfa_offset 8
 1841              		.cfi_offset 4, -8
 1842              		.cfi_offset 14, -4
1830:.\Generated_Source\PSoC5/ADC_DelSig.c ****     int32 result;
1831:.\Generated_Source\PSoC5/ADC_DelSig.c ****     
1832:.\Generated_Source\PSoC5/ADC_DelSig.c ****     /* Clear pending conversion done status */
1833:.\Generated_Source\PSoC5/ADC_DelSig.c ****     ADC_DelSig_DEC_SR_REG |= ADC_DelSig_DEC_INTR_CLEAR;
 1843              		.loc 1 1833 0
 1844 0002 084B     		ldr	r3, .L124
 1845 0004 1A78     		ldrb	r2, [r3]	@ zero_extendqisi2
 1846 0006 42F00402 		orr	r2, r2, #4
 1847 000a 1A70     		strb	r2, [r3]
1834:.\Generated_Source\PSoC5/ADC_DelSig.c ****     ADC_DelSig_StartConvert();
 1848              		.loc 1 1834 0
 1849 000c FFF7FEFF 		bl	ADC_DelSig_StartConvert
 1850              	.LVL178:
1835:.\Generated_Source\PSoC5/ADC_DelSig.c ****     (void)ADC_DelSig_IsEndConversion(ADC_DelSig_WAIT_FOR_RESULT);
 1851              		.loc 1 1835 0
 1852 0010 0020     		movs	r0, #0
 1853 0012 FFF7FEFF 		bl	ADC_DelSig_IsEndConversion
 1854              	.LVL179:
1836:.\Generated_Source\PSoC5/ADC_DelSig.c ****      result = ADC_DelSig_GetResult32();
 1855              		.loc 1 1836 0
 1856 0016 FFF7FEFF 		bl	ADC_DelSig_GetResult32
 1857              	.LVL180:
 1858 001a 0446     		mov	r4, r0
 1859              	.LVL181:
1837:.\Generated_Source\PSoC5/ADC_DelSig.c ****     ADC_DelSig_StopConvert();
 1860              		.loc 1 1837 0
 1861 001c FFF7FEFF 		bl	ADC_DelSig_StopConvert
 1862              	.LVL182:
1838:.\Generated_Source\PSoC5/ADC_DelSig.c ****     
1839:.\Generated_Source\PSoC5/ADC_DelSig.c ****      return(result);
1840:.\Generated_Source\PSoC5/ADC_DelSig.c **** }
 1863              		.loc 1 1840 0
 1864 0020 2046     		mov	r0, r4
 1865 0022 10BD     		pop	{r4, pc}
ARM GAS  C:\Users\mitchell\AppData\Local\Temp\ccpqy6v3.s 			page 70


 1866              	.LVL183:
 1867              	.L125:
 1868              		.align	2
 1869              	.L124:
 1870 0024 014E0040 		.word	1073761793
 1871              		.cfi_endproc
 1872              	.LFE25:
 1873              		.size	ADC_DelSig_Read32, .-ADC_DelSig_Read32
 1874              		.comm	ADC_DelSig_CountsPerVolt,4,4
 1875              		.comm	ADC_DelSig_Offset,4,4
 1876              		.global	ADC_DelSig_Config
 1877              		.global	ADC_DelSig_started
 1878              		.global	ADC_DelSig_initVar
 1879              		.global	ADC_DelSig_stopConversion
 1880              		.global	ADC_DelSig_convDone
 1881              		.data
 1882              		.set	.LANCHOR1,. + 0
 1883              		.type	ADC_DelSig_Config, %object
 1884              		.size	ADC_DelSig_Config, 1
 1885              	ADC_DelSig_Config:
 1886 0000 01       		.byte	1
 1887              		.bss
 1888              		.align	2
 1889              		.set	.LANCHOR0,. + 0
 1890              		.type	ADC_DelSig_gcor, %object
 1891              		.size	ADC_DelSig_gcor, 4
 1892              	ADC_DelSig_gcor:
 1893 0000 00000000 		.space	4
 1894              		.type	ADC_DelSig_stopConversion, %object
 1895              		.size	ADC_DelSig_stopConversion, 1
 1896              	ADC_DelSig_stopConversion:
 1897 0004 00       		.space	1
 1898              		.type	ADC_DelSig_convDone, %object
 1899              		.size	ADC_DelSig_convDone, 1
 1900              	ADC_DelSig_convDone:
 1901 0005 00       		.space	1
 1902              		.type	ADC_DelSig_initVar, %object
 1903              		.size	ADC_DelSig_initVar, 1
 1904              	ADC_DelSig_initVar:
 1905 0006 00       		.space	1
 1906              		.type	ADC_DelSig_started, %object
 1907              		.size	ADC_DelSig_started, 1
 1908              	ADC_DelSig_started:
 1909 0007 00       		.space	1
 1910              		.text
 1911              	.Letext0:
 1912              		.file 2 ".\\Generated_Source\\PSoC5\\cytypes.h"
 1913              		.file 3 ".\\Generated_Source\\PSoC5\\ADC_DelSig.h"
 1914              		.file 4 ".\\Generated_Source\\PSoC5\\CyLib.h"
 1915              		.file 5 ".\\Generated_Source\\PSoC5\\ADC_DelSig_AMux.h"
 1916              		.file 6 ".\\Generated_Source\\PSoC5\\ADC_DelSig_Ext_CP_Clk.h"
 1917              		.file 7 ".\\Generated_Source\\PSoC5\\ADC_DelSig_theACLK.h"
 1918              		.section	.debug_info,"",%progbits
 1919              	.Ldebug_info0:
 1920 0000 6E0A0000 		.4byte	0xa6e
 1921 0004 0400     		.2byte	0x4
 1922 0006 00000000 		.4byte	.Ldebug_abbrev0
ARM GAS  C:\Users\mitchell\AppData\Local\Temp\ccpqy6v3.s 			page 71


 1923 000a 04       		.byte	0x4
 1924 000b 01       		.uleb128 0x1
 1925 000c 61000000 		.4byte	.LASF98
 1926 0010 01       		.byte	0x1
 1927 0011 BE030000 		.4byte	.LASF99
 1928 0015 49030000 		.4byte	.LASF100
 1929 0019 00000000 		.4byte	.Ldebug_ranges0+0
 1930 001d 00000000 		.4byte	0
 1931 0021 00000000 		.4byte	.Ldebug_line0
 1932 0025 02       		.uleb128 0x2
 1933 0026 04       		.byte	0x4
 1934 0027 04       		.byte	0x4
 1935 0028 E1040000 		.4byte	.LASF0
 1936 002c 02       		.uleb128 0x2
 1937 002d 01       		.byte	0x1
 1938 002e 06       		.byte	0x6
 1939 002f 48020000 		.4byte	.LASF1
 1940 0033 02       		.uleb128 0x2
 1941 0034 01       		.byte	0x1
 1942 0035 08       		.byte	0x8
 1943 0036 1B050000 		.4byte	.LASF2
 1944 003a 02       		.uleb128 0x2
 1945 003b 02       		.byte	0x2
 1946 003c 05       		.byte	0x5
 1947 003d 29050000 		.4byte	.LASF3
 1948 0041 02       		.uleb128 0x2
 1949 0042 02       		.byte	0x2
 1950 0043 07       		.byte	0x7
 1951 0044 AB030000 		.4byte	.LASF4
 1952 0048 02       		.uleb128 0x2
 1953 0049 04       		.byte	0x4
 1954 004a 05       		.byte	0x5
 1955 004b 5A020000 		.4byte	.LASF5
 1956 004f 02       		.uleb128 0x2
 1957 0050 04       		.byte	0x4
 1958 0051 07       		.byte	0x7
 1959 0052 37030000 		.4byte	.LASF6
 1960 0056 02       		.uleb128 0x2
 1961 0057 08       		.byte	0x8
 1962 0058 05       		.byte	0x5
 1963 0059 3A020000 		.4byte	.LASF7
 1964 005d 02       		.uleb128 0x2
 1965 005e 08       		.byte	0x8
 1966 005f 07       		.byte	0x7
 1967 0060 86010000 		.4byte	.LASF8
 1968 0064 03       		.uleb128 0x3
 1969 0065 04       		.byte	0x4
 1970 0066 05       		.byte	0x5
 1971 0067 696E7400 		.ascii	"int\000"
 1972 006b 02       		.uleb128 0x2
 1973 006c 04       		.byte	0x4
 1974 006d 07       		.byte	0x7
 1975 006e 23030000 		.4byte	.LASF9
 1976 0072 04       		.uleb128 0x4
 1977 0073 69020000 		.4byte	.LASF10
 1978 0077 02       		.byte	0x2
 1979 0078 B4       		.byte	0xb4
ARM GAS  C:\Users\mitchell\AppData\Local\Temp\ccpqy6v3.s 			page 72


 1980 0079 33000000 		.4byte	0x33
 1981 007d 04       		.uleb128 0x4
 1982 007e 2A000000 		.4byte	.LASF11
 1983 0082 02       		.byte	0x2
 1984 0083 B5       		.byte	0xb5
 1985 0084 41000000 		.4byte	0x41
 1986 0088 04       		.uleb128 0x4
 1987 0089 99020000 		.4byte	.LASF12
 1988 008d 02       		.byte	0x2
 1989 008e B6       		.byte	0xb6
 1990 008f 4F000000 		.4byte	0x4f
 1991 0093 04       		.uleb128 0x4
 1992 0094 FE030000 		.4byte	.LASF13
 1993 0098 02       		.byte	0x2
 1994 0099 B7       		.byte	0xb7
 1995 009a 2C000000 		.4byte	0x2c
 1996 009e 04       		.uleb128 0x4
 1997 009f A0060000 		.4byte	.LASF14
 1998 00a3 02       		.byte	0x2
 1999 00a4 B8       		.byte	0xb8
 2000 00a5 3A000000 		.4byte	0x3a
 2001 00a9 04       		.uleb128 0x4
 2002 00aa 54020000 		.4byte	.LASF15
 2003 00ae 02       		.byte	0x2
 2004 00af B9       		.byte	0xb9
 2005 00b0 48000000 		.4byte	0x48
 2006 00b4 04       		.uleb128 0x4
 2007 00b5 9D040000 		.4byte	.LASF16
 2008 00b9 02       		.byte	0x2
 2009 00ba BA       		.byte	0xba
 2010 00bb 25000000 		.4byte	0x25
 2011 00bf 02       		.uleb128 0x2
 2012 00c0 08       		.byte	0x8
 2013 00c1 04       		.byte	0x4
 2014 00c2 79020000 		.4byte	.LASF17
 2015 00c6 02       		.uleb128 0x2
 2016 00c7 01       		.byte	0x1
 2017 00c8 08       		.byte	0x8
 2018 00c9 9D050000 		.4byte	.LASF18
 2019 00cd 05       		.uleb128 0x5
 2020 00ce F7040000 		.4byte	.LASF19
 2021 00d2 02       		.byte	0x2
 2022 00d3 5E01     		.2byte	0x15e
 2023 00d5 D9000000 		.4byte	0xd9
 2024 00d9 06       		.uleb128 0x6
 2025 00da 72000000 		.4byte	0x72
 2026 00de 05       		.uleb128 0x5
 2027 00df 63020000 		.4byte	.LASF20
 2028 00e3 02       		.byte	0x2
 2029 00e4 5F01     		.2byte	0x15f
 2030 00e6 EA000000 		.4byte	0xea
 2031 00ea 06       		.uleb128 0x6
 2032 00eb 7D000000 		.4byte	0x7d
 2033 00ef 05       		.uleb128 0x5
 2034 00f0 65040000 		.4byte	.LASF21
 2035 00f4 02       		.byte	0x2
 2036 00f5 6001     		.2byte	0x160
ARM GAS  C:\Users\mitchell\AppData\Local\Temp\ccpqy6v3.s 			page 73


 2037 00f7 FB000000 		.4byte	0xfb
 2038 00fb 06       		.uleb128 0x6
 2039 00fc 88000000 		.4byte	0x88
 2040 0100 05       		.uleb128 0x5
 2041 0101 A9050000 		.4byte	.LASF22
 2042 0105 02       		.byte	0x2
 2043 0106 7001     		.2byte	0x170
 2044 0108 0C010000 		.4byte	0x10c
 2045 010c 07       		.uleb128 0x7
 2046 010d 04       		.byte	0x4
 2047 010e 12010000 		.4byte	0x112
 2048 0112 08       		.uleb128 0x8
 2049 0113 02       		.uleb128 0x2
 2050 0114 04       		.byte	0x4
 2051 0115 07       		.byte	0x7
 2052 0116 A5040000 		.4byte	.LASF23
 2053 011a 09       		.uleb128 0x9
 2054 011b 04       		.byte	0x4
 2055 011c 03       		.byte	0x3
 2056 011d 2F       		.byte	0x2f
 2057 011e 3B010000 		.4byte	0x13b
 2058 0122 0A       		.uleb128 0xa
 2059 0123 2B010000 		.4byte	.LASF24
 2060 0127 03       		.byte	0x3
 2061 0128 31       		.byte	0x31
 2062 0129 7D000000 		.4byte	0x7d
 2063 012d 00       		.byte	0
 2064 012e 0A       		.uleb128 0xa
 2065 012f BD050000 		.4byte	.LASF25
 2066 0133 03       		.byte	0x3
 2067 0134 32       		.byte	0x32
 2068 0135 72000000 		.4byte	0x72
 2069 0139 02       		.byte	0x2
 2070 013a 00       		.byte	0
 2071 013b 04       		.uleb128 0x4
 2072 013c CE010000 		.4byte	.LASF26
 2073 0140 03       		.byte	0x3
 2074 0141 33       		.byte	0x33
 2075 0142 1A010000 		.4byte	0x11a
 2076 0146 0B       		.uleb128 0xb
 2077 0147 25040000 		.4byte	.LASF36
 2078 014b 01       		.byte	0x1
 2079 014c 5106     		.2byte	0x651
 2080 014e 00000000 		.4byte	.LFB21
 2081 0152 CC000000 		.4byte	.LFE21-.LFB21
 2082 0156 01       		.uleb128 0x1
 2083 0157 9C       		.byte	0x9c
 2084 0158 FC010000 		.4byte	0x1fc
 2085 015c 0C       		.uleb128 0xc
 2086 015d DD000000 		.4byte	.LASF27
 2087 0161 01       		.byte	0x1
 2088 0162 5106     		.2byte	0x651
 2089 0164 72000000 		.4byte	0x72
 2090 0168 00000000 		.4byte	.LLST0
 2091 016c 0C       		.uleb128 0xc
 2092 016d FC040000 		.4byte	.LASF28
 2093 0171 01       		.byte	0x1
ARM GAS  C:\Users\mitchell\AppData\Local\Temp\ccpqy6v3.s 			page 74


 2094 0172 5106     		.2byte	0x651
 2095 0174 7D000000 		.4byte	0x7d
 2096 0178 3A000000 		.4byte	.LLST1
 2097 017c 0C       		.uleb128 0xc
 2098 017d E5010000 		.4byte	.LASF29
 2099 0181 01       		.byte	0x1
 2100 0182 5106     		.2byte	0x651
 2101 0184 7D000000 		.4byte	0x7d
 2102 0188 74000000 		.4byte	.LLST2
 2103 018c 0C       		.uleb128 0xc
 2104 018d 76050000 		.4byte	.LASF30
 2105 0191 01       		.byte	0x1
 2106 0192 5206     		.2byte	0x652
 2107 0194 72000000 		.4byte	0x72
 2108 0198 AE000000 		.4byte	.LLST3
 2109 019c 0C       		.uleb128 0xc
 2110 019d B6050000 		.4byte	.LASF31
 2111 01a1 01       		.byte	0x1
 2112 01a2 5206     		.2byte	0x652
 2113 01a4 72000000 		.4byte	0x72
 2114 01a8 01010000 		.4byte	.LLST4
 2115 01ac 0D       		.uleb128 0xd
 2116 01ad 5F040000 		.4byte	.LASF32
 2117 01b1 01       		.byte	0x1
 2118 01b2 5406     		.2byte	0x654
 2119 01b4 93000000 		.4byte	0x93
 2120 01b8 2D010000 		.4byte	.LLST5
 2121 01bc 0D       		.uleb128 0xd
 2122 01bd 09050000 		.4byte	.LASF33
 2123 01c1 01       		.byte	0x1
 2124 01c2 5506     		.2byte	0x655
 2125 01c4 A9000000 		.4byte	0xa9
 2126 01c8 98010000 		.4byte	.LLST6
 2127 01cc 0D       		.uleb128 0xd
 2128 01cd 03040000 		.4byte	.LASF34
 2129 01d1 01       		.byte	0x1
 2130 01d2 5606     		.2byte	0x656
 2131 01d4 7D000000 		.4byte	0x7d
 2132 01d8 B6010000 		.4byte	.LLST7
 2133 01dc 0D       		.uleb128 0xd
 2134 01dd 33050000 		.4byte	.LASF35
 2135 01e1 01       		.byte	0x1
 2136 01e2 5706     		.2byte	0x657
 2137 01e4 88000000 		.4byte	0x88
 2138 01e8 EA010000 		.4byte	.LLST8
 2139 01ec 0E       		.uleb128 0xe
 2140 01ed A4000000 		.4byte	.LVL33
 2141 01f1 A8090000 		.4byte	0x9a8
 2142 01f5 0F       		.uleb128 0xf
 2143 01f6 01       		.uleb128 0x1
 2144 01f7 50       		.byte	0x50
 2145 01f8 01       		.uleb128 0x1
 2146 01f9 30       		.byte	0x30
 2147 01fa 00       		.byte	0
 2148 01fb 00       		.byte	0
 2149 01fc 0B       		.uleb128 0xb
 2150 01fd 4A060000 		.4byte	.LASF37
ARM GAS  C:\Users\mitchell\AppData\Local\Temp\ccpqy6v3.s 			page 75


 2151 0201 01       		.byte	0x1
 2152 0202 BC06     		.2byte	0x6bc
 2153 0204 00000000 		.4byte	.LFB22
 2154 0208 4C000000 		.4byte	.LFE22-.LFB22
 2155 020c 01       		.uleb128 0x1
 2156 020d 9C       		.byte	0x9c
 2157 020e 5F020000 		.4byte	0x25f
 2158 0212 0C       		.uleb128 0xc
 2159 0213 15030000 		.4byte	.LASF38
 2160 0217 01       		.byte	0x1
 2161 0218 BC06     		.2byte	0x6bc
 2162 021a 72000000 		.4byte	0x72
 2163 021e FD010000 		.4byte	.LLST9
 2164 0222 0D       		.uleb128 0xd
 2165 0223 63060000 		.4byte	.LASF39
 2166 0227 01       		.byte	0x1
 2167 0228 BE06     		.2byte	0x6be
 2168 022a 72000000 		.4byte	0x72
 2169 022e 1E020000 		.4byte	.LLST10
 2170 0232 10       		.uleb128 0x10
 2171 0233 08000000 		.4byte	.LVL36
 2172 0237 B9090000 		.4byte	0x9b9
 2173 023b 11       		.uleb128 0x11
 2174 023c 28000000 		.4byte	.LVL39
 2175 0240 C4090000 		.4byte	0x9c4
 2176 0244 4E020000 		.4byte	0x24e
 2177 0248 0F       		.uleb128 0xf
 2178 0249 01       		.uleb128 0x1
 2179 024a 50       		.byte	0x50
 2180 024b 01       		.uleb128 0x1
 2181 024c 33       		.byte	0x33
 2182 024d 00       		.byte	0
 2183 024e 0E       		.uleb128 0xe
 2184 024f 3E000000 		.4byte	.LVL40
 2185 0253 D5090000 		.4byte	0x9d5
 2186 0257 0F       		.uleb128 0xf
 2187 0258 01       		.uleb128 0x1
 2188 0259 50       		.byte	0x50
 2189 025a 02       		.uleb128 0x2
 2190 025b 76       		.byte	0x76
 2191 025c 00       		.sleb128 0
 2192 025d 00       		.byte	0
 2193 025e 00       		.byte	0
 2194 025f 0B       		.uleb128 0xb
 2195 0260 30010000 		.4byte	.LASF40
 2196 0264 01       		.byte	0x1
 2197 0265 DA04     		.2byte	0x4da
 2198 0267 00000000 		.4byte	.LFB19
 2199 026b DC000000 		.4byte	.LFE19-.LFB19
 2200 026f 01       		.uleb128 0x1
 2201 0270 9C       		.byte	0x9c
 2202 0271 F0020000 		.4byte	0x2f0
 2203 0275 0C       		.uleb128 0xc
 2204 0276 B6050000 		.4byte	.LASF31
 2205 027a 01       		.byte	0x1
 2206 027b DA04     		.2byte	0x4da
 2207 027d 72000000 		.4byte	0x72
ARM GAS  C:\Users\mitchell\AppData\Local\Temp\ccpqy6v3.s 			page 76


 2208 0281 3C020000 		.4byte	.LLST11
 2209 0285 11       		.uleb128 0x11
 2210 0286 84000000 		.4byte	.LVL44
 2211 028a FC010000 		.4byte	0x1fc
 2212 028e 99020000 		.4byte	0x299
 2213 0292 0F       		.uleb128 0xf
 2214 0293 01       		.uleb128 0x1
 2215 0294 50       		.byte	0x50
 2216 0295 02       		.uleb128 0x2
 2217 0296 08       		.byte	0x8
 2218 0297 52       		.byte	0x52
 2219 0298 00       		.byte	0
 2220 0299 11       		.uleb128 0x11
 2221 029a A4000000 		.4byte	.LVL45
 2222 029e E6090000 		.4byte	0x9e6
 2223 02a2 AD020000 		.4byte	0x2ad
 2224 02a6 0F       		.uleb128 0xf
 2225 02a7 01       		.uleb128 0x1
 2226 02a8 50       		.byte	0x50
 2227 02a9 02       		.uleb128 0x2
 2228 02aa 74       		.byte	0x74
 2229 02ab 00       		.sleb128 0
 2230 02ac 00       		.byte	0
 2231 02ad 11       		.uleb128 0x11
 2232 02ae B4000000 		.4byte	.LVL46
 2233 02b2 F7090000 		.4byte	0x9f7
 2234 02b6 C7020000 		.4byte	0x2c7
 2235 02ba 0F       		.uleb128 0xf
 2236 02bb 01       		.uleb128 0x1
 2237 02bc 51       		.byte	0x51
 2238 02bd 02       		.uleb128 0x2
 2239 02be 75       		.byte	0x75
 2240 02bf 00       		.sleb128 0
 2241 02c0 0F       		.uleb128 0xf
 2242 02c1 01       		.uleb128 0x1
 2243 02c2 50       		.byte	0x50
 2244 02c3 02       		.uleb128 0x2
 2245 02c4 76       		.byte	0x76
 2246 02c5 00       		.sleb128 0
 2247 02c6 00       		.byte	0
 2248 02c7 11       		.uleb128 0x11
 2249 02c8 BC000000 		.4byte	.LVL47
 2250 02cc 0D0A0000 		.4byte	0xa0d
 2251 02d0 E0020000 		.4byte	0x2e0
 2252 02d4 0F       		.uleb128 0xf
 2253 02d5 01       		.uleb128 0x1
 2254 02d6 51       		.byte	0x51
 2255 02d7 02       		.uleb128 0x2
 2256 02d8 75       		.byte	0x75
 2257 02d9 00       		.sleb128 0
 2258 02da 0F       		.uleb128 0xf
 2259 02db 01       		.uleb128 0x1
 2260 02dc 50       		.byte	0x50
 2261 02dd 01       		.uleb128 0x1
 2262 02de 3C       		.byte	0x3c
 2263 02df 00       		.byte	0
 2264 02e0 0E       		.uleb128 0xe
ARM GAS  C:\Users\mitchell\AppData\Local\Temp\ccpqy6v3.s 			page 77


 2265 02e1 C4000000 		.4byte	.LVL48
 2266 02e5 230A0000 		.4byte	0xa23
 2267 02e9 0F       		.uleb128 0xf
 2268 02ea 01       		.uleb128 0x1
 2269 02eb 50       		.byte	0x50
 2270 02ec 01       		.uleb128 0x1
 2271 02ed 4D       		.byte	0x4d
 2272 02ee 00       		.byte	0
 2273 02ef 00       		.byte	0
 2274 02f0 12       		.uleb128 0x12
 2275 02f1 F5010000 		.4byte	.LASF41
 2276 02f5 01       		.byte	0x1
 2277 02f6 5B       		.byte	0x5b
 2278 02f7 00000000 		.4byte	.LFB0
 2279 02fb C0000000 		.4byte	.LFE0-.LFB0
 2280 02ff 01       		.uleb128 0x1
 2281 0300 9C       		.byte	0x9c
 2282 0301 7A030000 		.4byte	0x37a
 2283 0305 11       		.uleb128 0x11
 2284 0306 16000000 		.4byte	.LVL49
 2285 030a 3D0A0000 		.4byte	0xa3d
 2286 030e 18030000 		.4byte	0x318
 2287 0312 0F       		.uleb128 0xf
 2288 0313 01       		.uleb128 0x1
 2289 0314 50       		.byte	0x50
 2290 0315 01       		.uleb128 0x1
 2291 0316 40       		.byte	0x40
 2292 0317 00       		.byte	0
 2293 0318 11       		.uleb128 0x11
 2294 0319 1C000000 		.4byte	.LVL50
 2295 031d 4E0A0000 		.4byte	0xa4e
 2296 0321 2B030000 		.4byte	0x32b
 2297 0325 0F       		.uleb128 0xf
 2298 0326 01       		.uleb128 0x1
 2299 0327 50       		.byte	0x50
 2300 0328 01       		.uleb128 0x1
 2301 0329 40       		.byte	0x40
 2302 032a 00       		.byte	0
 2303 032b 11       		.uleb128 0x11
 2304 032c 24000000 		.4byte	.LVL51
 2305 0330 5F0A0000 		.4byte	0xa5f
 2306 0334 43030000 		.4byte	0x343
 2307 0338 0F       		.uleb128 0xf
 2308 0339 01       		.uleb128 0x1
 2309 033a 51       		.byte	0x51
 2310 033b 01       		.uleb128 0x1
 2311 033c 37       		.byte	0x37
 2312 033d 0F       		.uleb128 0xf
 2313 033e 01       		.uleb128 0x1
 2314 033f 50       		.byte	0x50
 2315 0340 01       		.uleb128 0x1
 2316 0341 4D       		.byte	0x4d
 2317 0342 00       		.byte	0
 2318 0343 11       		.uleb128 0x11
 2319 0344 88000000 		.4byte	.LVL52
 2320 0348 46010000 		.4byte	0x146
 2321 034c 70030000 		.4byte	0x370
ARM GAS  C:\Users\mitchell\AppData\Local\Temp\ccpqy6v3.s 			page 78


 2322 0350 0F       		.uleb128 0xf
 2323 0351 01       		.uleb128 0x1
 2324 0352 53       		.byte	0x53
 2325 0353 01       		.uleb128 0x1
 2326 0354 3E       		.byte	0x3e
 2327 0355 0F       		.uleb128 0xf
 2328 0356 01       		.uleb128 0x1
 2329 0357 52       		.byte	0x52
 2330 0358 03       		.uleb128 0x3
 2331 0359 0A       		.byte	0xa
 2332 035a E977     		.2byte	0x77e9
 2333 035c 0F       		.uleb128 0xf
 2334 035d 01       		.uleb128 0x1
 2335 035e 51       		.byte	0x51
 2336 035f 03       		.uleb128 0x3
 2337 0360 0B       		.byte	0xb
 2338 0361 6B8D     		.2byte	0x8d6b
 2339 0363 0F       		.uleb128 0xf
 2340 0364 01       		.uleb128 0x1
 2341 0365 50       		.byte	0x50
 2342 0366 01       		.uleb128 0x1
 2343 0367 32       		.byte	0x32
 2344 0368 0F       		.uleb128 0xf
 2345 0369 02       		.uleb128 0x2
 2346 036a 7D       		.byte	0x7d
 2347 036b 00       		.sleb128 0
 2348 036c 02       		.uleb128 0x2
 2349 036d 77       		.byte	0x77
 2350 036e 00       		.sleb128 0
 2351 036f 00       		.byte	0
 2352 0370 10       		.uleb128 0x10
 2353 0371 A8000000 		.4byte	.LVL53
 2354 0375 5F020000 		.4byte	0x25f
 2355 0379 00       		.byte	0
 2356 037a 12       		.uleb128 0x12
 2357 037b 9D010000 		.4byte	.LASF42
 2358 037f 01       		.byte	0x1
 2359 0380 B8       		.byte	0xb8
 2360 0381 00000000 		.4byte	.LFB1
 2361 0385 D4000000 		.4byte	.LFE1-.LFB1
 2362 0389 01       		.uleb128 0x1
 2363 038a 9C       		.byte	0x9c
 2364 038b D6030000 		.4byte	0x3d6
 2365 038f 13       		.uleb128 0x13
 2366 0390 B6050000 		.4byte	.LASF31
 2367 0394 01       		.byte	0x1
 2368 0395 BA       		.byte	0xba
 2369 0396 72000000 		.4byte	0x72
 2370 039a 14       		.uleb128 0x14
 2371 039b 63060000 		.4byte	.LASF39
 2372 039f 01       		.byte	0x1
 2373 03a0 BB       		.byte	0xbb
 2374 03a1 72000000 		.4byte	0x72
 2375 03a5 5D020000 		.4byte	.LLST12
 2376 03a9 10       		.uleb128 0x10
 2377 03aa 06000000 		.4byte	.LVL54
 2378 03ae B9090000 		.4byte	0x9b9
ARM GAS  C:\Users\mitchell\AppData\Local\Temp\ccpqy6v3.s 			page 79


 2379 03b2 11       		.uleb128 0x11
 2380 03b3 54000000 		.4byte	.LVL58
 2381 03b7 C4090000 		.4byte	0x9c4
 2382 03bb C5030000 		.4byte	0x3c5
 2383 03bf 0F       		.uleb128 0xf
 2384 03c0 01       		.uleb128 0x1
 2385 03c1 50       		.byte	0x50
 2386 03c2 01       		.uleb128 0x1
 2387 03c3 33       		.byte	0x33
 2388 03c4 00       		.byte	0
 2389 03c5 0E       		.uleb128 0xe
 2390 03c6 B4000000 		.4byte	.LVL59
 2391 03ca D5090000 		.4byte	0x9d5
 2392 03ce 0F       		.uleb128 0xf
 2393 03cf 01       		.uleb128 0x1
 2394 03d0 50       		.byte	0x50
 2395 03d1 02       		.uleb128 0x2
 2396 03d2 76       		.byte	0x76
 2397 03d3 00       		.sleb128 0
 2398 03d4 00       		.byte	0
 2399 03d5 00       		.byte	0
 2400 03d6 15       		.uleb128 0x15
 2401 03d7 E8000000 		.4byte	.LASF43
 2402 03db 01       		.byte	0x1
 2403 03dc 4901     		.2byte	0x149
 2404 03de 00000000 		.4byte	.LFB2
 2405 03e2 28000000 		.4byte	.LFE2-.LFB2
 2406 03e6 01       		.uleb128 0x1
 2407 03e7 9C       		.byte	0x9c
 2408 03e8 FF030000 		.4byte	0x3ff
 2409 03ec 10       		.uleb128 0x10
 2410 03ed 16000000 		.4byte	.LVL61
 2411 03f1 F0020000 		.4byte	0x2f0
 2412 03f5 10       		.uleb128 0x10
 2413 03f6 20000000 		.4byte	.LVL62
 2414 03fa 7A030000 		.4byte	0x37a
 2415 03fe 00       		.byte	0
 2416 03ff 15       		.uleb128 0x15
 2417 0400 81050000 		.4byte	.LASF44
 2418 0404 01       		.byte	0x1
 2419 0405 6A01     		.2byte	0x16a
 2420 0407 00000000 		.4byte	.LFB3
 2421 040b E4000000 		.4byte	.LFE3-.LFB3
 2422 040f 01       		.uleb128 0x1
 2423 0410 9C       		.byte	0x9c
 2424 0411 52040000 		.4byte	0x452
 2425 0415 0D       		.uleb128 0xd
 2426 0416 63060000 		.4byte	.LASF39
 2427 041a 01       		.byte	0x1
 2428 041b 6C01     		.2byte	0x16c
 2429 041d 72000000 		.4byte	0x72
 2430 0421 7B020000 		.4byte	.LLST13
 2431 0425 10       		.uleb128 0x10
 2432 0426 06000000 		.4byte	.LVL63
 2433 042a B9090000 		.4byte	0x9b9
 2434 042e 11       		.uleb128 0x11
 2435 042f 4A000000 		.4byte	.LVL66
ARM GAS  C:\Users\mitchell\AppData\Local\Temp\ccpqy6v3.s 			page 80


 2436 0433 C4090000 		.4byte	0x9c4
 2437 0437 41040000 		.4byte	0x441
 2438 043b 0F       		.uleb128 0xf
 2439 043c 01       		.uleb128 0x1
 2440 043d 50       		.byte	0x50
 2441 043e 01       		.uleb128 0x1
 2442 043f 33       		.byte	0x33
 2443 0440 00       		.byte	0
 2444 0441 0E       		.uleb128 0xe
 2445 0442 CE000000 		.4byte	.LVL67
 2446 0446 D5090000 		.4byte	0x9d5
 2447 044a 0F       		.uleb128 0xf
 2448 044b 01       		.uleb128 0x1
 2449 044c 50       		.byte	0x50
 2450 044d 02       		.uleb128 0x2
 2451 044e 76       		.byte	0x76
 2452 044f 00       		.sleb128 0
 2453 0450 00       		.byte	0
 2454 0451 00       		.byte	0
 2455 0452 15       		.uleb128 0x15
 2456 0453 00000000 		.4byte	.LASF45
 2457 0457 01       		.byte	0x1
 2458 0458 AD01     		.2byte	0x1ad
 2459 045a 00000000 		.4byte	.LFB4
 2460 045e 18000000 		.4byte	.LFE4-.LFB4
 2461 0462 01       		.uleb128 0x1
 2462 0463 9C       		.byte	0x9c
 2463 0464 87040000 		.4byte	0x487
 2464 0468 0C       		.uleb128 0xc
 2465 0469 DC040000 		.4byte	.LASF46
 2466 046d 01       		.byte	0x1
 2467 046e AD01     		.2byte	0x1ad
 2468 0470 72000000 		.4byte	0x72
 2469 0474 99020000 		.4byte	.LLST14
 2470 0478 16       		.uleb128 0x16
 2471 0479 D3060000 		.4byte	.LASF47
 2472 047d 01       		.byte	0x1
 2473 047e AF01     		.2byte	0x1af
 2474 0480 72000000 		.4byte	0x72
 2475 0484 01       		.uleb128 0x1
 2476 0485 52       		.byte	0x52
 2477 0486 00       		.byte	0
 2478 0487 15       		.uleb128 0x15
 2479 0488 0D040000 		.4byte	.LASF48
 2480 048c 01       		.byte	0x1
 2481 048d D101     		.2byte	0x1d1
 2482 048f 00000000 		.4byte	.LFB5
 2483 0493 18000000 		.4byte	.LFE5-.LFB5
 2484 0497 01       		.uleb128 0x1
 2485 0498 9C       		.byte	0x9c
 2486 0499 BC040000 		.4byte	0x4bc
 2487 049d 0C       		.uleb128 0xc
 2488 049e C1040000 		.4byte	.LASF49
 2489 04a2 01       		.byte	0x1
 2490 04a3 D101     		.2byte	0x1d1
 2491 04a5 72000000 		.4byte	0x72
 2492 04a9 BA020000 		.4byte	.LLST15
ARM GAS  C:\Users\mitchell\AppData\Local\Temp\ccpqy6v3.s 			page 81


 2493 04ad 16       		.uleb128 0x16
 2494 04ae D3060000 		.4byte	.LASF47
 2495 04b2 01       		.byte	0x1
 2496 04b3 D301     		.2byte	0x1d3
 2497 04b5 72000000 		.4byte	0x72
 2498 04b9 01       		.uleb128 0x1
 2499 04ba 52       		.byte	0x52
 2500 04bb 00       		.byte	0
 2501 04bc 17       		.uleb128 0x17
 2502 04bd FC050000 		.4byte	.LASF53
 2503 04c1 01       		.byte	0x1
 2504 04c2 F901     		.2byte	0x1f9
 2505 04c4 72000000 		.4byte	0x72
 2506 04c8 00000000 		.4byte	.LFB6
 2507 04cc 74000000 		.4byte	.LFE6-.LFB6
 2508 04d0 01       		.uleb128 0x1
 2509 04d1 9C       		.byte	0x9c
 2510 04d2 17050000 		.4byte	0x517
 2511 04d6 0C       		.uleb128 0xc
 2512 04d7 7B060000 		.4byte	.LASF50
 2513 04db 01       		.byte	0x1
 2514 04dc F901     		.2byte	0x1f9
 2515 04de B4000000 		.4byte	0xb4
 2516 04e2 DB020000 		.4byte	.LLST16
 2517 04e6 0D       		.uleb128 0xd
 2518 04e7 D3060000 		.4byte	.LASF47
 2519 04eb 01       		.byte	0x1
 2520 04ec FB01     		.2byte	0x1fb
 2521 04ee 7D000000 		.4byte	0x7d
 2522 04f2 09030000 		.4byte	.LLST17
 2523 04f6 0D       		.uleb128 0xd
 2524 04f7 74060000 		.4byte	.LASF51
 2525 04fb 01       		.byte	0x1
 2526 04fc FC01     		.2byte	0x1fc
 2527 04fe 72000000 		.4byte	0x72
 2528 0502 30030000 		.4byte	.LLST18
 2529 0506 0D       		.uleb128 0xd
 2530 0507 17060000 		.4byte	.LASF52
 2531 050b 01       		.byte	0x1
 2532 050c FD01     		.2byte	0x1fd
 2533 050e B4000000 		.4byte	0xb4
 2534 0512 4F030000 		.4byte	.LLST19
 2535 0516 00       		.byte	0
 2536 0517 18       		.uleb128 0x18
 2537 0518 E8050000 		.4byte	.LASF54
 2538 051c 01       		.byte	0x1
 2539 051d 2802     		.2byte	0x228
 2540 051f 7D000000 		.4byte	0x7d
 2541 0523 00000000 		.4byte	.LFB7
 2542 0527 24000000 		.4byte	.LFE7-.LFB7
 2543 052b 01       		.uleb128 0x1
 2544 052c 9C       		.byte	0x9c
 2545 052d 52050000 		.4byte	0x552
 2546 0531 0D       		.uleb128 0xd
 2547 0532 A2050000 		.4byte	.LASF55
 2548 0536 01       		.byte	0x1
 2549 0537 2A02     		.2byte	0x22a
ARM GAS  C:\Users\mitchell\AppData\Local\Temp\ccpqy6v3.s 			page 82


 2550 0539 72000000 		.4byte	0x72
 2551 053d 8E030000 		.4byte	.LLST20
 2552 0541 0D       		.uleb128 0xd
 2553 0542 03040000 		.4byte	.LASF34
 2554 0546 01       		.byte	0x1
 2555 0547 2B02     		.2byte	0x22b
 2556 0549 7D000000 		.4byte	0x7d
 2557 054d A1030000 		.4byte	.LLST21
 2558 0551 00       		.byte	0
 2559 0552 19       		.uleb128 0x19
 2560 0553 93030000 		.4byte	.LASF56
 2561 0557 01       		.byte	0x1
 2562 0558 4A02     		.2byte	0x24a
 2563 055a 00000000 		.4byte	.LFB8
 2564 055e 10000000 		.4byte	.LFE8-.LFB8
 2565 0562 01       		.uleb128 0x1
 2566 0563 9C       		.byte	0x9c
 2567 0564 19       		.uleb128 0x19
 2568 0565 6F010000 		.4byte	.LASF57
 2569 0569 01       		.byte	0x1
 2570 056a 6102     		.2byte	0x261
 2571 056c 00000000 		.4byte	.LFB9
 2572 0570 10000000 		.4byte	.LFE9-.LFB9
 2573 0574 01       		.uleb128 0x1
 2574 0575 9C       		.byte	0x9c
 2575 0576 18       		.uleb128 0x18
 2576 0577 B8060000 		.4byte	.LASF58
 2577 057b 01       		.byte	0x1
 2578 057c 8402     		.2byte	0x284
 2579 057e 72000000 		.4byte	0x72
 2580 0582 00000000 		.4byte	.LFB10
 2581 0586 2C000000 		.4byte	.LFE10-.LFB10
 2582 058a 01       		.uleb128 0x1
 2583 058b 9C       		.byte	0x9c
 2584 058c B1050000 		.4byte	0x5b1
 2585 0590 0C       		.uleb128 0xc
 2586 0591 1B030000 		.4byte	.LASF59
 2587 0595 01       		.byte	0x1
 2588 0596 8402     		.2byte	0x284
 2589 0598 72000000 		.4byte	0x72
 2590 059c BF030000 		.4byte	.LLST22
 2591 05a0 0D       		.uleb128 0xd
 2592 05a1 74060000 		.4byte	.LASF51
 2593 05a5 01       		.byte	0x1
 2594 05a6 8602     		.2byte	0x286
 2595 05a8 72000000 		.4byte	0x72
 2596 05ac E0030000 		.4byte	.LLST23
 2597 05b0 00       		.byte	0
 2598 05b1 18       		.uleb128 0x18
 2599 05b2 46010000 		.4byte	.LASF60
 2600 05b6 01       		.byte	0x1
 2601 05b7 B302     		.2byte	0x2b3
 2602 05b9 93000000 		.4byte	0x93
 2603 05bd 00000000 		.4byte	.LFB11
 2604 05c1 48000000 		.4byte	.LFE11-.LFB11
 2605 05c5 01       		.uleb128 0x1
 2606 05c6 9C       		.byte	0x9c
ARM GAS  C:\Users\mitchell\AppData\Local\Temp\ccpqy6v3.s 			page 83


 2607 05c7 EC050000 		.4byte	0x5ec
 2608 05cb 0D       		.uleb128 0xd
 2609 05cc DA060000 		.4byte	.LASF61
 2610 05d0 01       		.byte	0x1
 2611 05d1 B502     		.2byte	0x2b5
 2612 05d3 93000000 		.4byte	0x93
 2613 05d7 FE030000 		.4byte	.LLST24
 2614 05db 0D       		.uleb128 0xd
 2615 05dc C1040000 		.4byte	.LASF49
 2616 05e0 01       		.byte	0x1
 2617 05e1 B602     		.2byte	0x2b6
 2618 05e3 72000000 		.4byte	0x72
 2619 05e7 11040000 		.4byte	.LLST25
 2620 05eb 00       		.byte	0
 2621 05ec 18       		.uleb128 0x18
 2622 05ed F9000000 		.4byte	.LASF62
 2623 05f1 01       		.byte	0x1
 2624 05f2 E902     		.2byte	0x2e9
 2625 05f4 9E000000 		.4byte	0x9e
 2626 05f8 00000000 		.4byte	.LFB12
 2627 05fc 50000000 		.4byte	.LFE12-.LFB12
 2628 0600 01       		.uleb128 0x1
 2629 0601 9C       		.byte	0x9c
 2630 0602 27060000 		.4byte	0x627
 2631 0606 0D       		.uleb128 0xd
 2632 0607 DA060000 		.4byte	.LASF61
 2633 060b 01       		.byte	0x1
 2634 060c EB02     		.2byte	0x2eb
 2635 060e 7D000000 		.4byte	0x7d
 2636 0612 2F040000 		.4byte	.LLST26
 2637 0616 0D       		.uleb128 0xd
 2638 0617 C1040000 		.4byte	.LASF49
 2639 061b 01       		.byte	0x1
 2640 061c EC02     		.2byte	0x2ec
 2641 061e 72000000 		.4byte	0x72
 2642 0622 5D040000 		.4byte	.LLST27
 2643 0626 00       		.byte	0
 2644 0627 18       		.uleb128 0x18
 2645 0628 B2020000 		.4byte	.LASF63
 2646 062c 01       		.byte	0x1
 2647 062d 2503     		.2byte	0x325
 2648 062f A9000000 		.4byte	0xa9
 2649 0633 00000000 		.4byte	.LFB13
 2650 0637 6C000000 		.4byte	.LFE13-.LFB13
 2651 063b 01       		.uleb128 0x1
 2652 063c 9C       		.byte	0x9c
 2653 063d 62060000 		.4byte	0x662
 2654 0641 0D       		.uleb128 0xd
 2655 0642 DA060000 		.4byte	.LASF61
 2656 0646 01       		.byte	0x1
 2657 0647 2703     		.2byte	0x327
 2658 0649 88000000 		.4byte	0x88
 2659 064d 7B040000 		.4byte	.LLST28
 2660 0651 0D       		.uleb128 0xd
 2661 0652 C1040000 		.4byte	.LASF49
 2662 0656 01       		.byte	0x1
 2663 0657 2803     		.2byte	0x328
ARM GAS  C:\Users\mitchell\AppData\Local\Temp\ccpqy6v3.s 			page 84


 2664 0659 72000000 		.4byte	0x72
 2665 065d C6040000 		.4byte	.LLST29
 2666 0661 00       		.byte	0
 2667 0662 15       		.uleb128 0x15
 2668 0663 EC020000 		.4byte	.LASF64
 2669 0667 01       		.byte	0x1
 2670 0668 8203     		.2byte	0x382
 2671 066a 00000000 		.4byte	.LFB14
 2672 066e 0C000000 		.4byte	.LFE14-.LFB14
 2673 0672 01       		.uleb128 0x1
 2674 0673 9C       		.byte	0x9c
 2675 0674 87060000 		.4byte	0x687
 2676 0678 1A       		.uleb128 0x1a
 2677 0679 39060000 		.4byte	.LASF65
 2678 067d 01       		.byte	0x1
 2679 067e 8203     		.2byte	0x382
 2680 0680 A9000000 		.4byte	0xa9
 2681 0684 01       		.uleb128 0x1
 2682 0685 50       		.byte	0x50
 2683 0686 00       		.byte	0
 2684 0687 15       		.uleb128 0x15
 2685 0688 86020000 		.4byte	.LASF66
 2686 068c 01       		.byte	0x1
 2687 068d A503     		.2byte	0x3a5
 2688 068f 00000000 		.4byte	.LFB15
 2689 0693 0C000000 		.4byte	.LFE15-.LFB15
 2690 0697 01       		.uleb128 0x1
 2691 0698 9C       		.byte	0x9c
 2692 0699 AC060000 		.4byte	0x6ac
 2693 069d 1A       		.uleb128 0x1a
 2694 069e 43000000 		.4byte	.LASF67
 2695 06a2 01       		.byte	0x1
 2696 06a3 A503     		.2byte	0x3a5
 2697 06a5 A9000000 		.4byte	0xa9
 2698 06a9 01       		.uleb128 0x1
 2699 06aa 50       		.byte	0x50
 2700 06ab 00       		.byte	0
 2701 06ac 18       		.uleb128 0x18
 2702 06ad 6B040000 		.4byte	.LASF68
 2703 06b1 01       		.byte	0x1
 2704 06b2 C003     		.2byte	0x3c0
 2705 06b4 9E000000 		.4byte	0x9e
 2706 06b8 00000000 		.4byte	.LFB16
 2707 06bc 24000000 		.4byte	.LFE16-.LFB16
 2708 06c0 01       		.uleb128 0x1
 2709 06c1 9C       		.byte	0x9c
 2710 06c2 E7060000 		.4byte	0x6e7
 2711 06c6 0C       		.uleb128 0xc
 2712 06c7 40060000 		.4byte	.LASF69
 2713 06cb 01       		.byte	0x1
 2714 06cc C003     		.2byte	0x3c0
 2715 06ce A9000000 		.4byte	0xa9
 2716 06d2 EF040000 		.4byte	.LLST30
 2717 06d6 0D       		.uleb128 0xd
 2718 06d7 58040000 		.4byte	.LASF70
 2719 06db 01       		.byte	0x1
 2720 06dc C303     		.2byte	0x3c3
ARM GAS  C:\Users\mitchell\AppData\Local\Temp\ccpqy6v3.s 			page 85


 2721 06de 9E000000 		.4byte	0x9e
 2722 06e2 0D050000 		.4byte	.LLST31
 2723 06e6 00       		.byte	0
 2724 06e7 17       		.uleb128 0x17
 2725 06e8 E4030000 		.4byte	.LASF71
 2726 06ec 01       		.byte	0x1
 2727 06ed FD03     		.2byte	0x3fd
 2728 06ef B4000000 		.4byte	0xb4
 2729 06f3 00000000 		.4byte	.LFB17
 2730 06f7 28000000 		.4byte	.LFE17-.LFB17
 2731 06fb 01       		.uleb128 0x1
 2732 06fc 9C       		.byte	0x9c
 2733 06fd 20070000 		.4byte	0x720
 2734 0701 0C       		.uleb128 0xc
 2735 0702 40060000 		.4byte	.LASF69
 2736 0706 01       		.byte	0x1
 2737 0707 FD03     		.2byte	0x3fd
 2738 0709 A9000000 		.4byte	0xa9
 2739 070d 20050000 		.4byte	.LLST32
 2740 0711 16       		.uleb128 0x16
 2741 0712 80020000 		.4byte	.LASF72
 2742 0716 01       		.byte	0x1
 2743 0717 0004     		.2byte	0x400
 2744 0719 B4000000 		.4byte	0xb4
 2745 071d 01       		.uleb128 0x1
 2746 071e 50       		.byte	0x50
 2747 071f 00       		.byte	0
 2748 0720 18       		.uleb128 0x18
 2749 0721 10010000 		.4byte	.LASF73
 2750 0725 01       		.byte	0x1
 2751 0726 3F04     		.2byte	0x43f
 2752 0728 A9000000 		.4byte	0xa9
 2753 072c 00000000 		.4byte	.LFB18
 2754 0730 74000000 		.4byte	.LFE18-.LFB18
 2755 0734 01       		.uleb128 0x1
 2756 0735 9C       		.byte	0x9c
 2757 0736 8B070000 		.4byte	0x78b
 2758 073a 0C       		.uleb128 0xc
 2759 073b 40060000 		.4byte	.LASF69
 2760 073f 01       		.byte	0x1
 2761 0740 3F04     		.2byte	0x43f
 2762 0742 A9000000 		.4byte	0xa9
 2763 0746 4E050000 		.4byte	.LLST33
 2764 074a 0D       		.uleb128 0xd
 2765 074b 30030000 		.4byte	.LASF74
 2766 074f 01       		.byte	0x1
 2767 0750 4204     		.2byte	0x442
 2768 0752 A9000000 		.4byte	0xa9
 2769 0756 6F050000 		.4byte	.LLST34
 2770 075a 0D       		.uleb128 0xd
 2771 075b 91050000 		.4byte	.LASF75
 2772 075f 01       		.byte	0x1
 2773 0760 4304     		.2byte	0x443
 2774 0762 A9000000 		.4byte	0xa9
 2775 0766 92050000 		.4byte	.LLST35
 2776 076a 0D       		.uleb128 0xd
 2777 076b 97050000 		.4byte	.LASF76
ARM GAS  C:\Users\mitchell\AppData\Local\Temp\ccpqy6v3.s 			page 86


 2778 076f 01       		.byte	0x1
 2779 0770 4404     		.2byte	0x444
 2780 0772 A9000000 		.4byte	0xa9
 2781 0776 B5050000 		.4byte	.LLST36
 2782 077a 0D       		.uleb128 0xd
 2783 077b 76050000 		.4byte	.LASF30
 2784 077f 01       		.byte	0x1
 2785 0780 4504     		.2byte	0x445
 2786 0782 72000000 		.4byte	0x72
 2787 0786 D4050000 		.4byte	.LLST37
 2788 078a 00       		.byte	0
 2789 078b 15       		.uleb128 0x15
 2790 078c AF010000 		.4byte	.LASF77
 2791 0790 01       		.byte	0x1
 2792 0791 1006     		.2byte	0x610
 2793 0793 00000000 		.4byte	.LFB20
 2794 0797 60000000 		.4byte	.LFE20-.LFB20
 2795 079b 01       		.uleb128 0x1
 2796 079c 9C       		.byte	0x9c
 2797 079d 00080000 		.4byte	0x800
 2798 07a1 0C       		.uleb128 0xc
 2799 07a2 B6050000 		.4byte	.LASF31
 2800 07a6 01       		.byte	0x1
 2801 07a7 1006     		.2byte	0x610
 2802 07a9 72000000 		.4byte	0x72
 2803 07ad FD050000 		.4byte	.LLST38
 2804 07b1 0C       		.uleb128 0xc
 2805 07b2 0F060000 		.4byte	.LASF78
 2806 07b6 01       		.byte	0x1
 2807 07b7 1006     		.2byte	0x610
 2808 07b9 72000000 		.4byte	0x72
 2809 07bd 37060000 		.4byte	.LLST39
 2810 07c1 10       		.uleb128 0x10
 2811 07c2 1E000000 		.4byte	.LVL159
 2812 07c6 FF030000 		.4byte	0x3ff
 2813 07ca 11       		.uleb128 0x11
 2814 07cb 24000000 		.4byte	.LVL160
 2815 07cf 5F020000 		.4byte	0x25f
 2816 07d3 DE070000 		.4byte	0x7de
 2817 07d7 0F       		.uleb128 0xf
 2818 07d8 01       		.uleb128 0x1
 2819 07d9 50       		.byte	0x50
 2820 07da 02       		.uleb128 0x2
 2821 07db 74       		.byte	0x74
 2822 07dc 00       		.sleb128 0
 2823 07dd 00       		.byte	0
 2824 07de 10       		.uleb128 0x10
 2825 07df 42000000 		.4byte	.LVL161
 2826 07e3 D6030000 		.4byte	0x3d6
 2827 07e7 10       		.uleb128 0x10
 2828 07e8 46000000 		.4byte	.LVL162
 2829 07ec 52050000 		.4byte	0x552
 2830 07f0 0E       		.uleb128 0xe
 2831 07f1 4E000000 		.4byte	.LVL165
 2832 07f5 A8090000 		.4byte	0x9a8
 2833 07f9 0F       		.uleb128 0xf
 2834 07fa 01       		.uleb128 0x1
ARM GAS  C:\Users\mitchell\AppData\Local\Temp\ccpqy6v3.s 			page 87


 2835 07fb 50       		.byte	0x50
 2836 07fc 01       		.uleb128 0x1
 2837 07fd 30       		.byte	0x30
 2838 07fe 00       		.byte	0
 2839 07ff 00       		.byte	0
 2840 0800 18       		.uleb128 0x18
 2841 0801 19000000 		.4byte	.LASF79
 2842 0805 01       		.byte	0x1
 2843 0806 E206     		.2byte	0x6e2
 2844 0808 93000000 		.4byte	0x93
 2845 080c 00000000 		.4byte	.LFB23
 2846 0810 28000000 		.4byte	.LFE23-.LFB23
 2847 0814 01       		.uleb128 0x1
 2848 0815 9C       		.byte	0x9c
 2849 0816 59080000 		.4byte	0x859
 2850 081a 0D       		.uleb128 0xd
 2851 081b DA060000 		.4byte	.LASF61
 2852 081f 01       		.byte	0x1
 2853 0820 E406     		.2byte	0x6e4
 2854 0822 93000000 		.4byte	0x93
 2855 0826 71060000 		.4byte	.LLST40
 2856 082a 10       		.uleb128 0x10
 2857 082b 10000000 		.4byte	.LVL166
 2858 082f 52050000 		.4byte	0x552
 2859 0833 11       		.uleb128 0x11
 2860 0834 16000000 		.4byte	.LVL167
 2861 0838 76050000 		.4byte	0x576
 2862 083c 46080000 		.4byte	0x846
 2863 0840 0F       		.uleb128 0xf
 2864 0841 01       		.uleb128 0x1
 2865 0842 50       		.byte	0x50
 2866 0843 01       		.uleb128 0x1
 2867 0844 30       		.byte	0x30
 2868 0845 00       		.byte	0
 2869 0846 10       		.uleb128 0x10
 2870 0847 1A000000 		.4byte	.LVL168
 2871 084b B1050000 		.4byte	0x5b1
 2872 084f 10       		.uleb128 0x10
 2873 0850 20000000 		.4byte	.LVL170
 2874 0854 64050000 		.4byte	0x564
 2875 0858 00       		.byte	0
 2876 0859 18       		.uleb128 0x18
 2877 085a 31000000 		.4byte	.LASF80
 2878 085e 01       		.byte	0x1
 2879 085f 0307     		.2byte	0x703
 2880 0861 9E000000 		.4byte	0x9e
 2881 0865 00000000 		.4byte	.LFB24
 2882 0869 28000000 		.4byte	.LFE24-.LFB24
 2883 086d 01       		.uleb128 0x1
 2884 086e 9C       		.byte	0x9c
 2885 086f B2080000 		.4byte	0x8b2
 2886 0873 0D       		.uleb128 0xd
 2887 0874 DA060000 		.4byte	.LASF61
 2888 0878 01       		.byte	0x1
 2889 0879 0507     		.2byte	0x705
 2890 087b 9E000000 		.4byte	0x9e
 2891 087f 9A060000 		.4byte	.LLST41
ARM GAS  C:\Users\mitchell\AppData\Local\Temp\ccpqy6v3.s 			page 88


 2892 0883 10       		.uleb128 0x10
 2893 0884 10000000 		.4byte	.LVL172
 2894 0888 52050000 		.4byte	0x552
 2895 088c 11       		.uleb128 0x11
 2896 088d 16000000 		.4byte	.LVL173
 2897 0891 76050000 		.4byte	0x576
 2898 0895 9F080000 		.4byte	0x89f
 2899 0899 0F       		.uleb128 0xf
 2900 089a 01       		.uleb128 0x1
 2901 089b 50       		.byte	0x50
 2902 089c 01       		.uleb128 0x1
 2903 089d 30       		.byte	0x30
 2904 089e 00       		.byte	0
 2905 089f 10       		.uleb128 0x10
 2906 08a0 1A000000 		.4byte	.LVL174
 2907 08a4 EC050000 		.4byte	0x5ec
 2908 08a8 10       		.uleb128 0x10
 2909 08a9 20000000 		.4byte	.LVL176
 2910 08ad 64050000 		.4byte	0x564
 2911 08b1 00       		.byte	0
 2912 08b2 18       		.uleb128 0x18
 2913 08b3 A0020000 		.4byte	.LASF81
 2914 08b7 01       		.byte	0x1
 2915 08b8 2407     		.2byte	0x724
 2916 08ba A9000000 		.4byte	0xa9
 2917 08be 00000000 		.4byte	.LFB25
 2918 08c2 28000000 		.4byte	.LFE25-.LFB25
 2919 08c6 01       		.uleb128 0x1
 2920 08c7 9C       		.byte	0x9c
 2921 08c8 0B090000 		.4byte	0x90b
 2922 08cc 0D       		.uleb128 0xd
 2923 08cd DA060000 		.4byte	.LASF61
 2924 08d1 01       		.byte	0x1
 2925 08d2 2607     		.2byte	0x726
 2926 08d4 A9000000 		.4byte	0xa9
 2927 08d8 C3060000 		.4byte	.LLST42
 2928 08dc 10       		.uleb128 0x10
 2929 08dd 10000000 		.4byte	.LVL178
 2930 08e1 52050000 		.4byte	0x552
 2931 08e5 11       		.uleb128 0x11
 2932 08e6 16000000 		.4byte	.LVL179
 2933 08ea 76050000 		.4byte	0x576
 2934 08ee F8080000 		.4byte	0x8f8
 2935 08f2 0F       		.uleb128 0xf
 2936 08f3 01       		.uleb128 0x1
 2937 08f4 50       		.byte	0x50
 2938 08f5 01       		.uleb128 0x1
 2939 08f6 30       		.byte	0x30
 2940 08f7 00       		.byte	0
 2941 08f8 10       		.uleb128 0x10
 2942 08f9 1A000000 		.4byte	.LVL180
 2943 08fd 27060000 		.4byte	0x627
 2944 0901 10       		.uleb128 0x10
 2945 0902 20000000 		.4byte	.LVL182
 2946 0906 64050000 		.4byte	0x564
 2947 090a 00       		.byte	0
 2948 090b 1B       		.uleb128 0x1b
ARM GAS  C:\Users\mitchell\AppData\Local\Temp\ccpqy6v3.s 			page 89


 2949 090c 3B010000 		.4byte	0x13b
 2950 0910 1B090000 		.4byte	0x91b
 2951 0914 1C       		.uleb128 0x1c
 2952 0915 13010000 		.4byte	0x113
 2953 0919 00       		.byte	0
 2954 091a 00       		.byte	0
 2955 091b 1D       		.uleb128 0x1d
 2956 091c E7040000 		.4byte	.LASF82
 2957 0920 01       		.byte	0x1
 2958 0921 3D       		.byte	0x3d
 2959 0922 0B090000 		.4byte	0x90b
 2960 0926 05       		.uleb128 0x5
 2961 0927 03       		.byte	0x3
 2962 0928 00000000 		.4byte	ADC_DelSig_gcor
 2963 092c 1E       		.uleb128 0x1e
 2964 092d AE040000 		.4byte	.LASF83
 2965 0931 01       		.byte	0x1
 2966 0932 2C       		.byte	0x2c
 2967 0933 72000000 		.4byte	0x72
 2968 0937 05       		.uleb128 0x5
 2969 0938 03       		.byte	0x3
 2970 0939 00000000 		.4byte	ADC_DelSig_initVar
 2971 093d 1E       		.uleb128 0x1e
 2972 093e 01030000 		.4byte	.LASF84
 2973 0942 01       		.byte	0x1
 2974 0943 24       		.byte	0x24
 2975 0944 D9000000 		.4byte	0xd9
 2976 0948 05       		.uleb128 0x5
 2977 0949 03       		.byte	0x3
 2978 094a 00000000 		.4byte	ADC_DelSig_convDone
 2979 094e 1E       		.uleb128 0x1e
 2980 094f 86060000 		.4byte	.LASF85
 2981 0953 01       		.byte	0x1
 2982 0954 29       		.byte	0x29
 2983 0955 D9000000 		.4byte	0xd9
 2984 0959 05       		.uleb128 0x5
 2985 095a 03       		.byte	0x3
 2986 095b 00000000 		.4byte	ADC_DelSig_stopConversion
 2987 095f 1E       		.uleb128 0x1e
 2988 0960 5C010000 		.4byte	.LASF86
 2989 0964 01       		.byte	0x1
 2990 0965 2F       		.byte	0x2f
 2991 0966 D9000000 		.4byte	0xd9
 2992 096a 05       		.uleb128 0x5
 2993 096b 03       		.byte	0x3
 2994 096c 00000000 		.4byte	ADC_DelSig_started
 2995 0970 1E       		.uleb128 0x1e
 2996 0971 A6060000 		.4byte	.LASF87
 2997 0975 01       		.byte	0x1
 2998 0976 32       		.byte	0x32
 2999 0977 D9000000 		.4byte	0xd9
 3000 097b 05       		.uleb128 0x5
 3001 097c 03       		.byte	0x3
 3002 097d 00000000 		.4byte	ADC_DelSig_Config
 3003 0981 1E       		.uleb128 0x1e
 3004 0982 3B050000 		.4byte	.LASF88
 3005 0986 01       		.byte	0x1
ARM GAS  C:\Users\mitchell\AppData\Local\Temp\ccpqy6v3.s 			page 90


 3006 0987 34       		.byte	0x34
 3007 0988 92090000 		.4byte	0x992
 3008 098c 05       		.uleb128 0x5
 3009 098d 03       		.byte	0x3
 3010 098e 00000000 		.4byte	ADC_DelSig_Offset
 3011 0992 06       		.uleb128 0x6
 3012 0993 A9000000 		.4byte	0xa9
 3013 0997 1E       		.uleb128 0x1e
 3014 0998 20060000 		.4byte	.LASF89
 3015 099c 01       		.byte	0x1
 3016 099d 35       		.byte	0x35
 3017 099e 92090000 		.4byte	0x992
 3018 09a2 05       		.uleb128 0x5
 3019 09a3 03       		.byte	0x3
 3020 09a4 00000000 		.4byte	ADC_DelSig_CountsPerVolt
 3021 09a8 1F       		.uleb128 0x1f
 3022 09a9 14050000 		.4byte	.LASF90
 3023 09ad 04       		.byte	0x4
 3024 09ae 80       		.byte	0x80
 3025 09af B9090000 		.4byte	0x9b9
 3026 09b3 20       		.uleb128 0x20
 3027 09b4 72000000 		.4byte	0x72
 3028 09b8 00       		.byte	0
 3029 09b9 21       		.uleb128 0x21
 3030 09ba 86040000 		.4byte	.LASF101
 3031 09be 04       		.byte	0x4
 3032 09bf 7E       		.byte	0x7e
 3033 09c0 72000000 		.4byte	0x72
 3034 09c4 1F       		.uleb128 0x1f
 3035 09c5 6F020000 		.4byte	.LASF91
 3036 09c9 04       		.byte	0x4
 3037 09ca 78       		.byte	0x78
 3038 09cb D5090000 		.4byte	0x9d5
 3039 09cf 20       		.uleb128 0x20
 3040 09d0 7D000000 		.4byte	0x7d
 3041 09d4 00       		.byte	0
 3042 09d5 1F       		.uleb128 0x1f
 3043 09d6 4B000000 		.4byte	.LASF92
 3044 09da 04       		.byte	0x4
 3045 09db 7F       		.byte	0x7f
 3046 09dc E6090000 		.4byte	0x9e6
 3047 09e0 20       		.uleb128 0x20
 3048 09e1 72000000 		.4byte	0x72
 3049 09e5 00       		.byte	0
 3050 09e6 1F       		.uleb128 0x1f
 3051 09e7 41040000 		.4byte	.LASF93
 3052 09eb 05       		.byte	0x5
 3053 09ec 50       		.byte	0x50
 3054 09ed F7090000 		.4byte	0x9f7
 3055 09f1 20       		.uleb128 0x20
 3056 09f2 72000000 		.4byte	0x72
 3057 09f6 00       		.byte	0
 3058 09f7 1F       		.uleb128 0x1f
 3059 09f8 4D050000 		.4byte	.LASF94
 3060 09fc 06       		.byte	0x6
 3061 09fd 2F       		.byte	0x2f
 3062 09fe 0D0A0000 		.4byte	0xa0d
ARM GAS  C:\Users\mitchell\AppData\Local\Temp\ccpqy6v3.s 			page 91


 3063 0a02 20       		.uleb128 0x20
 3064 0a03 7D000000 		.4byte	0x7d
 3065 0a07 20       		.uleb128 0x20
 3066 0a08 72000000 		.4byte	0x72
 3067 0a0c 00       		.byte	0
 3068 0a0d 1F       		.uleb128 0x1f
 3069 0a0e C2050000 		.4byte	.LASF95
 3070 0a12 07       		.byte	0x7
 3071 0a13 2F       		.byte	0x2f
 3072 0a14 230A0000 		.4byte	0xa23
 3073 0a18 20       		.uleb128 0x20
 3074 0a19 7D000000 		.4byte	0x7d
 3075 0a1d 20       		.uleb128 0x20
 3076 0a1e 72000000 		.4byte	0x72
 3077 0a22 00       		.byte	0
 3078 0a23 22       		.uleb128 0x22
 3079 0a24 05020000 		.4byte	.LASF102
 3080 0a28 04       		.byte	0x4
 3081 0a29 89       		.byte	0x89
 3082 0a2a 00010000 		.4byte	0x100
 3083 0a2e 3D0A0000 		.4byte	0xa3d
 3084 0a32 20       		.uleb128 0x20
 3085 0a33 72000000 		.4byte	0x72
 3086 0a37 20       		.uleb128 0x20
 3087 0a38 00010000 		.4byte	0x100
 3088 0a3c 00       		.byte	0
 3089 0a3d 1F       		.uleb128 0x1f
 3090 0a3e 14020000 		.4byte	.LASF96
 3091 0a42 06       		.byte	0x6
 3092 0a43 32       		.byte	0x32
 3093 0a44 4E0A0000 		.4byte	0xa4e
 3094 0a48 20       		.uleb128 0x20
 3095 0a49 72000000 		.4byte	0x72
 3096 0a4d 00       		.byte	0
 3097 0a4e 1F       		.uleb128 0x1f
 3098 0a4f C9020000 		.4byte	.LASF97
 3099 0a53 07       		.byte	0x7
 3100 0a54 32       		.byte	0x32
 3101 0a55 5F0A0000 		.4byte	0xa5f
 3102 0a59 20       		.uleb128 0x20
 3103 0a5a 72000000 		.4byte	0x72
 3104 0a5e 00       		.byte	0
 3105 0a5f 23       		.uleb128 0x23
 3106 0a60 CB040000 		.4byte	.LASF103
 3107 0a64 04       		.byte	0x4
 3108 0a65 8C       		.byte	0x8c
 3109 0a66 20       		.uleb128 0x20
 3110 0a67 72000000 		.4byte	0x72
 3111 0a6b 20       		.uleb128 0x20
 3112 0a6c 72000000 		.4byte	0x72
 3113 0a70 00       		.byte	0
 3114 0a71 00       		.byte	0
 3115              		.section	.debug_abbrev,"",%progbits
 3116              	.Ldebug_abbrev0:
 3117 0000 01       		.uleb128 0x1
 3118 0001 11       		.uleb128 0x11
 3119 0002 01       		.byte	0x1
ARM GAS  C:\Users\mitchell\AppData\Local\Temp\ccpqy6v3.s 			page 92


 3120 0003 25       		.uleb128 0x25
 3121 0004 0E       		.uleb128 0xe
 3122 0005 13       		.uleb128 0x13
 3123 0006 0B       		.uleb128 0xb
 3124 0007 03       		.uleb128 0x3
 3125 0008 0E       		.uleb128 0xe
 3126 0009 1B       		.uleb128 0x1b
 3127 000a 0E       		.uleb128 0xe
 3128 000b 55       		.uleb128 0x55
 3129 000c 17       		.uleb128 0x17
 3130 000d 11       		.uleb128 0x11
 3131 000e 01       		.uleb128 0x1
 3132 000f 10       		.uleb128 0x10
 3133 0010 17       		.uleb128 0x17
 3134 0011 00       		.byte	0
 3135 0012 00       		.byte	0
 3136 0013 02       		.uleb128 0x2
 3137 0014 24       		.uleb128 0x24
 3138 0015 00       		.byte	0
 3139 0016 0B       		.uleb128 0xb
 3140 0017 0B       		.uleb128 0xb
 3141 0018 3E       		.uleb128 0x3e
 3142 0019 0B       		.uleb128 0xb
 3143 001a 03       		.uleb128 0x3
 3144 001b 0E       		.uleb128 0xe
 3145 001c 00       		.byte	0
 3146 001d 00       		.byte	0
 3147 001e 03       		.uleb128 0x3
 3148 001f 24       		.uleb128 0x24
 3149 0020 00       		.byte	0
 3150 0021 0B       		.uleb128 0xb
 3151 0022 0B       		.uleb128 0xb
 3152 0023 3E       		.uleb128 0x3e
 3153 0024 0B       		.uleb128 0xb
 3154 0025 03       		.uleb128 0x3
 3155 0026 08       		.uleb128 0x8
 3156 0027 00       		.byte	0
 3157 0028 00       		.byte	0
 3158 0029 04       		.uleb128 0x4
 3159 002a 16       		.uleb128 0x16
 3160 002b 00       		.byte	0
 3161 002c 03       		.uleb128 0x3
 3162 002d 0E       		.uleb128 0xe
 3163 002e 3A       		.uleb128 0x3a
 3164 002f 0B       		.uleb128 0xb
 3165 0030 3B       		.uleb128 0x3b
 3166 0031 0B       		.uleb128 0xb
 3167 0032 49       		.uleb128 0x49
 3168 0033 13       		.uleb128 0x13
 3169 0034 00       		.byte	0
 3170 0035 00       		.byte	0
 3171 0036 05       		.uleb128 0x5
 3172 0037 16       		.uleb128 0x16
 3173 0038 00       		.byte	0
 3174 0039 03       		.uleb128 0x3
 3175 003a 0E       		.uleb128 0xe
 3176 003b 3A       		.uleb128 0x3a
ARM GAS  C:\Users\mitchell\AppData\Local\Temp\ccpqy6v3.s 			page 93


 3177 003c 0B       		.uleb128 0xb
 3178 003d 3B       		.uleb128 0x3b
 3179 003e 05       		.uleb128 0x5
 3180 003f 49       		.uleb128 0x49
 3181 0040 13       		.uleb128 0x13
 3182 0041 00       		.byte	0
 3183 0042 00       		.byte	0
 3184 0043 06       		.uleb128 0x6
 3185 0044 35       		.uleb128 0x35
 3186 0045 00       		.byte	0
 3187 0046 49       		.uleb128 0x49
 3188 0047 13       		.uleb128 0x13
 3189 0048 00       		.byte	0
 3190 0049 00       		.byte	0
 3191 004a 07       		.uleb128 0x7
 3192 004b 0F       		.uleb128 0xf
 3193 004c 00       		.byte	0
 3194 004d 0B       		.uleb128 0xb
 3195 004e 0B       		.uleb128 0xb
 3196 004f 49       		.uleb128 0x49
 3197 0050 13       		.uleb128 0x13
 3198 0051 00       		.byte	0
 3199 0052 00       		.byte	0
 3200 0053 08       		.uleb128 0x8
 3201 0054 15       		.uleb128 0x15
 3202 0055 00       		.byte	0
 3203 0056 27       		.uleb128 0x27
 3204 0057 19       		.uleb128 0x19
 3205 0058 00       		.byte	0
 3206 0059 00       		.byte	0
 3207 005a 09       		.uleb128 0x9
 3208 005b 13       		.uleb128 0x13
 3209 005c 01       		.byte	0x1
 3210 005d 0B       		.uleb128 0xb
 3211 005e 0B       		.uleb128 0xb
 3212 005f 3A       		.uleb128 0x3a
 3213 0060 0B       		.uleb128 0xb
 3214 0061 3B       		.uleb128 0x3b
 3215 0062 0B       		.uleb128 0xb
 3216 0063 01       		.uleb128 0x1
 3217 0064 13       		.uleb128 0x13
 3218 0065 00       		.byte	0
 3219 0066 00       		.byte	0
 3220 0067 0A       		.uleb128 0xa
 3221 0068 0D       		.uleb128 0xd
 3222 0069 00       		.byte	0
 3223 006a 03       		.uleb128 0x3
 3224 006b 0E       		.uleb128 0xe
 3225 006c 3A       		.uleb128 0x3a
 3226 006d 0B       		.uleb128 0xb
 3227 006e 3B       		.uleb128 0x3b
 3228 006f 0B       		.uleb128 0xb
 3229 0070 49       		.uleb128 0x49
 3230 0071 13       		.uleb128 0x13
 3231 0072 38       		.uleb128 0x38
 3232 0073 0B       		.uleb128 0xb
 3233 0074 00       		.byte	0
ARM GAS  C:\Users\mitchell\AppData\Local\Temp\ccpqy6v3.s 			page 94


 3234 0075 00       		.byte	0
 3235 0076 0B       		.uleb128 0xb
 3236 0077 2E       		.uleb128 0x2e
 3237 0078 01       		.byte	0x1
 3238 0079 03       		.uleb128 0x3
 3239 007a 0E       		.uleb128 0xe
 3240 007b 3A       		.uleb128 0x3a
 3241 007c 0B       		.uleb128 0xb
 3242 007d 3B       		.uleb128 0x3b
 3243 007e 05       		.uleb128 0x5
 3244 007f 27       		.uleb128 0x27
 3245 0080 19       		.uleb128 0x19
 3246 0081 11       		.uleb128 0x11
 3247 0082 01       		.uleb128 0x1
 3248 0083 12       		.uleb128 0x12
 3249 0084 06       		.uleb128 0x6
 3250 0085 40       		.uleb128 0x40
 3251 0086 18       		.uleb128 0x18
 3252 0087 9742     		.uleb128 0x2117
 3253 0089 19       		.uleb128 0x19
 3254 008a 01       		.uleb128 0x1
 3255 008b 13       		.uleb128 0x13
 3256 008c 00       		.byte	0
 3257 008d 00       		.byte	0
 3258 008e 0C       		.uleb128 0xc
 3259 008f 05       		.uleb128 0x5
 3260 0090 00       		.byte	0
 3261 0091 03       		.uleb128 0x3
 3262 0092 0E       		.uleb128 0xe
 3263 0093 3A       		.uleb128 0x3a
 3264 0094 0B       		.uleb128 0xb
 3265 0095 3B       		.uleb128 0x3b
 3266 0096 05       		.uleb128 0x5
 3267 0097 49       		.uleb128 0x49
 3268 0098 13       		.uleb128 0x13
 3269 0099 02       		.uleb128 0x2
 3270 009a 17       		.uleb128 0x17
 3271 009b 00       		.byte	0
 3272 009c 00       		.byte	0
 3273 009d 0D       		.uleb128 0xd
 3274 009e 34       		.uleb128 0x34
 3275 009f 00       		.byte	0
 3276 00a0 03       		.uleb128 0x3
 3277 00a1 0E       		.uleb128 0xe
 3278 00a2 3A       		.uleb128 0x3a
 3279 00a3 0B       		.uleb128 0xb
 3280 00a4 3B       		.uleb128 0x3b
 3281 00a5 05       		.uleb128 0x5
 3282 00a6 49       		.uleb128 0x49
 3283 00a7 13       		.uleb128 0x13
 3284 00a8 02       		.uleb128 0x2
 3285 00a9 17       		.uleb128 0x17
 3286 00aa 00       		.byte	0
 3287 00ab 00       		.byte	0
 3288 00ac 0E       		.uleb128 0xe
 3289 00ad 898201   		.uleb128 0x4109
 3290 00b0 01       		.byte	0x1
ARM GAS  C:\Users\mitchell\AppData\Local\Temp\ccpqy6v3.s 			page 95


 3291 00b1 11       		.uleb128 0x11
 3292 00b2 01       		.uleb128 0x1
 3293 00b3 31       		.uleb128 0x31
 3294 00b4 13       		.uleb128 0x13
 3295 00b5 00       		.byte	0
 3296 00b6 00       		.byte	0
 3297 00b7 0F       		.uleb128 0xf
 3298 00b8 8A8201   		.uleb128 0x410a
 3299 00bb 00       		.byte	0
 3300 00bc 02       		.uleb128 0x2
 3301 00bd 18       		.uleb128 0x18
 3302 00be 9142     		.uleb128 0x2111
 3303 00c0 18       		.uleb128 0x18
 3304 00c1 00       		.byte	0
 3305 00c2 00       		.byte	0
 3306 00c3 10       		.uleb128 0x10
 3307 00c4 898201   		.uleb128 0x4109
 3308 00c7 00       		.byte	0
 3309 00c8 11       		.uleb128 0x11
 3310 00c9 01       		.uleb128 0x1
 3311 00ca 31       		.uleb128 0x31
 3312 00cb 13       		.uleb128 0x13
 3313 00cc 00       		.byte	0
 3314 00cd 00       		.byte	0
 3315 00ce 11       		.uleb128 0x11
 3316 00cf 898201   		.uleb128 0x4109
 3317 00d2 01       		.byte	0x1
 3318 00d3 11       		.uleb128 0x11
 3319 00d4 01       		.uleb128 0x1
 3320 00d5 31       		.uleb128 0x31
 3321 00d6 13       		.uleb128 0x13
 3322 00d7 01       		.uleb128 0x1
 3323 00d8 13       		.uleb128 0x13
 3324 00d9 00       		.byte	0
 3325 00da 00       		.byte	0
 3326 00db 12       		.uleb128 0x12
 3327 00dc 2E       		.uleb128 0x2e
 3328 00dd 01       		.byte	0x1
 3329 00de 3F       		.uleb128 0x3f
 3330 00df 19       		.uleb128 0x19
 3331 00e0 03       		.uleb128 0x3
 3332 00e1 0E       		.uleb128 0xe
 3333 00e2 3A       		.uleb128 0x3a
 3334 00e3 0B       		.uleb128 0xb
 3335 00e4 3B       		.uleb128 0x3b
 3336 00e5 0B       		.uleb128 0xb
 3337 00e6 27       		.uleb128 0x27
 3338 00e7 19       		.uleb128 0x19
 3339 00e8 11       		.uleb128 0x11
 3340 00e9 01       		.uleb128 0x1
 3341 00ea 12       		.uleb128 0x12
 3342 00eb 06       		.uleb128 0x6
 3343 00ec 40       		.uleb128 0x40
 3344 00ed 18       		.uleb128 0x18
 3345 00ee 9742     		.uleb128 0x2117
 3346 00f0 19       		.uleb128 0x19
 3347 00f1 01       		.uleb128 0x1
ARM GAS  C:\Users\mitchell\AppData\Local\Temp\ccpqy6v3.s 			page 96


 3348 00f2 13       		.uleb128 0x13
 3349 00f3 00       		.byte	0
 3350 00f4 00       		.byte	0
 3351 00f5 13       		.uleb128 0x13
 3352 00f6 34       		.uleb128 0x34
 3353 00f7 00       		.byte	0
 3354 00f8 03       		.uleb128 0x3
 3355 00f9 0E       		.uleb128 0xe
 3356 00fa 3A       		.uleb128 0x3a
 3357 00fb 0B       		.uleb128 0xb
 3358 00fc 3B       		.uleb128 0x3b
 3359 00fd 0B       		.uleb128 0xb
 3360 00fe 49       		.uleb128 0x49
 3361 00ff 13       		.uleb128 0x13
 3362 0100 00       		.byte	0
 3363 0101 00       		.byte	0
 3364 0102 14       		.uleb128 0x14
 3365 0103 34       		.uleb128 0x34
 3366 0104 00       		.byte	0
 3367 0105 03       		.uleb128 0x3
 3368 0106 0E       		.uleb128 0xe
 3369 0107 3A       		.uleb128 0x3a
 3370 0108 0B       		.uleb128 0xb
 3371 0109 3B       		.uleb128 0x3b
 3372 010a 0B       		.uleb128 0xb
 3373 010b 49       		.uleb128 0x49
 3374 010c 13       		.uleb128 0x13
 3375 010d 02       		.uleb128 0x2
 3376 010e 17       		.uleb128 0x17
 3377 010f 00       		.byte	0
 3378 0110 00       		.byte	0
 3379 0111 15       		.uleb128 0x15
 3380 0112 2E       		.uleb128 0x2e
 3381 0113 01       		.byte	0x1
 3382 0114 3F       		.uleb128 0x3f
 3383 0115 19       		.uleb128 0x19
 3384 0116 03       		.uleb128 0x3
 3385 0117 0E       		.uleb128 0xe
 3386 0118 3A       		.uleb128 0x3a
 3387 0119 0B       		.uleb128 0xb
 3388 011a 3B       		.uleb128 0x3b
 3389 011b 05       		.uleb128 0x5
 3390 011c 27       		.uleb128 0x27
 3391 011d 19       		.uleb128 0x19
 3392 011e 11       		.uleb128 0x11
 3393 011f 01       		.uleb128 0x1
 3394 0120 12       		.uleb128 0x12
 3395 0121 06       		.uleb128 0x6
 3396 0122 40       		.uleb128 0x40
 3397 0123 18       		.uleb128 0x18
 3398 0124 9742     		.uleb128 0x2117
 3399 0126 19       		.uleb128 0x19
 3400 0127 01       		.uleb128 0x1
 3401 0128 13       		.uleb128 0x13
 3402 0129 00       		.byte	0
 3403 012a 00       		.byte	0
 3404 012b 16       		.uleb128 0x16
ARM GAS  C:\Users\mitchell\AppData\Local\Temp\ccpqy6v3.s 			page 97


 3405 012c 34       		.uleb128 0x34
 3406 012d 00       		.byte	0
 3407 012e 03       		.uleb128 0x3
 3408 012f 0E       		.uleb128 0xe
 3409 0130 3A       		.uleb128 0x3a
 3410 0131 0B       		.uleb128 0xb
 3411 0132 3B       		.uleb128 0x3b
 3412 0133 05       		.uleb128 0x5
 3413 0134 49       		.uleb128 0x49
 3414 0135 13       		.uleb128 0x13
 3415 0136 02       		.uleb128 0x2
 3416 0137 18       		.uleb128 0x18
 3417 0138 00       		.byte	0
 3418 0139 00       		.byte	0
 3419 013a 17       		.uleb128 0x17
 3420 013b 2E       		.uleb128 0x2e
 3421 013c 01       		.byte	0x1
 3422 013d 3F       		.uleb128 0x3f
 3423 013e 19       		.uleb128 0x19
 3424 013f 03       		.uleb128 0x3
 3425 0140 0E       		.uleb128 0xe
 3426 0141 3A       		.uleb128 0x3a
 3427 0142 0B       		.uleb128 0xb
 3428 0143 3B       		.uleb128 0x3b
 3429 0144 05       		.uleb128 0x5
 3430 0145 27       		.uleb128 0x27
 3431 0146 19       		.uleb128 0x19
 3432 0147 49       		.uleb128 0x49
 3433 0148 13       		.uleb128 0x13
 3434 0149 11       		.uleb128 0x11
 3435 014a 01       		.uleb128 0x1
 3436 014b 12       		.uleb128 0x12
 3437 014c 06       		.uleb128 0x6
 3438 014d 40       		.uleb128 0x40
 3439 014e 18       		.uleb128 0x18
 3440 014f 9642     		.uleb128 0x2116
 3441 0151 19       		.uleb128 0x19
 3442 0152 01       		.uleb128 0x1
 3443 0153 13       		.uleb128 0x13
 3444 0154 00       		.byte	0
 3445 0155 00       		.byte	0
 3446 0156 18       		.uleb128 0x18
 3447 0157 2E       		.uleb128 0x2e
 3448 0158 01       		.byte	0x1
 3449 0159 3F       		.uleb128 0x3f
 3450 015a 19       		.uleb128 0x19
 3451 015b 03       		.uleb128 0x3
 3452 015c 0E       		.uleb128 0xe
 3453 015d 3A       		.uleb128 0x3a
 3454 015e 0B       		.uleb128 0xb
 3455 015f 3B       		.uleb128 0x3b
 3456 0160 05       		.uleb128 0x5
 3457 0161 27       		.uleb128 0x27
 3458 0162 19       		.uleb128 0x19
 3459 0163 49       		.uleb128 0x49
 3460 0164 13       		.uleb128 0x13
 3461 0165 11       		.uleb128 0x11
ARM GAS  C:\Users\mitchell\AppData\Local\Temp\ccpqy6v3.s 			page 98


 3462 0166 01       		.uleb128 0x1
 3463 0167 12       		.uleb128 0x12
 3464 0168 06       		.uleb128 0x6
 3465 0169 40       		.uleb128 0x40
 3466 016a 18       		.uleb128 0x18
 3467 016b 9742     		.uleb128 0x2117
 3468 016d 19       		.uleb128 0x19
 3469 016e 01       		.uleb128 0x1
 3470 016f 13       		.uleb128 0x13
 3471 0170 00       		.byte	0
 3472 0171 00       		.byte	0
 3473 0172 19       		.uleb128 0x19
 3474 0173 2E       		.uleb128 0x2e
 3475 0174 00       		.byte	0
 3476 0175 3F       		.uleb128 0x3f
 3477 0176 19       		.uleb128 0x19
 3478 0177 03       		.uleb128 0x3
 3479 0178 0E       		.uleb128 0xe
 3480 0179 3A       		.uleb128 0x3a
 3481 017a 0B       		.uleb128 0xb
 3482 017b 3B       		.uleb128 0x3b
 3483 017c 05       		.uleb128 0x5
 3484 017d 27       		.uleb128 0x27
 3485 017e 19       		.uleb128 0x19
 3486 017f 11       		.uleb128 0x11
 3487 0180 01       		.uleb128 0x1
 3488 0181 12       		.uleb128 0x12
 3489 0182 06       		.uleb128 0x6
 3490 0183 40       		.uleb128 0x40
 3491 0184 18       		.uleb128 0x18
 3492 0185 9742     		.uleb128 0x2117
 3493 0187 19       		.uleb128 0x19
 3494 0188 00       		.byte	0
 3495 0189 00       		.byte	0
 3496 018a 1A       		.uleb128 0x1a
 3497 018b 05       		.uleb128 0x5
 3498 018c 00       		.byte	0
 3499 018d 03       		.uleb128 0x3
 3500 018e 0E       		.uleb128 0xe
 3501 018f 3A       		.uleb128 0x3a
 3502 0190 0B       		.uleb128 0xb
 3503 0191 3B       		.uleb128 0x3b
 3504 0192 05       		.uleb128 0x5
 3505 0193 49       		.uleb128 0x49
 3506 0194 13       		.uleb128 0x13
 3507 0195 02       		.uleb128 0x2
 3508 0196 18       		.uleb128 0x18
 3509 0197 00       		.byte	0
 3510 0198 00       		.byte	0
 3511 0199 1B       		.uleb128 0x1b
 3512 019a 01       		.uleb128 0x1
 3513 019b 01       		.byte	0x1
 3514 019c 49       		.uleb128 0x49
 3515 019d 13       		.uleb128 0x13
 3516 019e 01       		.uleb128 0x1
 3517 019f 13       		.uleb128 0x13
 3518 01a0 00       		.byte	0
ARM GAS  C:\Users\mitchell\AppData\Local\Temp\ccpqy6v3.s 			page 99


 3519 01a1 00       		.byte	0
 3520 01a2 1C       		.uleb128 0x1c
 3521 01a3 21       		.uleb128 0x21
 3522 01a4 00       		.byte	0
 3523 01a5 49       		.uleb128 0x49
 3524 01a6 13       		.uleb128 0x13
 3525 01a7 2F       		.uleb128 0x2f
 3526 01a8 0B       		.uleb128 0xb
 3527 01a9 00       		.byte	0
 3528 01aa 00       		.byte	0
 3529 01ab 1D       		.uleb128 0x1d
 3530 01ac 34       		.uleb128 0x34
 3531 01ad 00       		.byte	0
 3532 01ae 03       		.uleb128 0x3
 3533 01af 0E       		.uleb128 0xe
 3534 01b0 3A       		.uleb128 0x3a
 3535 01b1 0B       		.uleb128 0xb
 3536 01b2 3B       		.uleb128 0x3b
 3537 01b3 0B       		.uleb128 0xb
 3538 01b4 49       		.uleb128 0x49
 3539 01b5 13       		.uleb128 0x13
 3540 01b6 02       		.uleb128 0x2
 3541 01b7 18       		.uleb128 0x18
 3542 01b8 00       		.byte	0
 3543 01b9 00       		.byte	0
 3544 01ba 1E       		.uleb128 0x1e
 3545 01bb 34       		.uleb128 0x34
 3546 01bc 00       		.byte	0
 3547 01bd 03       		.uleb128 0x3
 3548 01be 0E       		.uleb128 0xe
 3549 01bf 3A       		.uleb128 0x3a
 3550 01c0 0B       		.uleb128 0xb
 3551 01c1 3B       		.uleb128 0x3b
 3552 01c2 0B       		.uleb128 0xb
 3553 01c3 49       		.uleb128 0x49
 3554 01c4 13       		.uleb128 0x13
 3555 01c5 3F       		.uleb128 0x3f
 3556 01c6 19       		.uleb128 0x19
 3557 01c7 02       		.uleb128 0x2
 3558 01c8 18       		.uleb128 0x18
 3559 01c9 00       		.byte	0
 3560 01ca 00       		.byte	0
 3561 01cb 1F       		.uleb128 0x1f
 3562 01cc 2E       		.uleb128 0x2e
 3563 01cd 01       		.byte	0x1
 3564 01ce 3F       		.uleb128 0x3f
 3565 01cf 19       		.uleb128 0x19
 3566 01d0 03       		.uleb128 0x3
 3567 01d1 0E       		.uleb128 0xe
 3568 01d2 3A       		.uleb128 0x3a
 3569 01d3 0B       		.uleb128 0xb
 3570 01d4 3B       		.uleb128 0x3b
 3571 01d5 0B       		.uleb128 0xb
 3572 01d6 27       		.uleb128 0x27
 3573 01d7 19       		.uleb128 0x19
 3574 01d8 3C       		.uleb128 0x3c
 3575 01d9 19       		.uleb128 0x19
ARM GAS  C:\Users\mitchell\AppData\Local\Temp\ccpqy6v3.s 			page 100


 3576 01da 01       		.uleb128 0x1
 3577 01db 13       		.uleb128 0x13
 3578 01dc 00       		.byte	0
 3579 01dd 00       		.byte	0
 3580 01de 20       		.uleb128 0x20
 3581 01df 05       		.uleb128 0x5
 3582 01e0 00       		.byte	0
 3583 01e1 49       		.uleb128 0x49
 3584 01e2 13       		.uleb128 0x13
 3585 01e3 00       		.byte	0
 3586 01e4 00       		.byte	0
 3587 01e5 21       		.uleb128 0x21
 3588 01e6 2E       		.uleb128 0x2e
 3589 01e7 00       		.byte	0
 3590 01e8 3F       		.uleb128 0x3f
 3591 01e9 19       		.uleb128 0x19
 3592 01ea 03       		.uleb128 0x3
 3593 01eb 0E       		.uleb128 0xe
 3594 01ec 3A       		.uleb128 0x3a
 3595 01ed 0B       		.uleb128 0xb
 3596 01ee 3B       		.uleb128 0x3b
 3597 01ef 0B       		.uleb128 0xb
 3598 01f0 27       		.uleb128 0x27
 3599 01f1 19       		.uleb128 0x19
 3600 01f2 49       		.uleb128 0x49
 3601 01f3 13       		.uleb128 0x13
 3602 01f4 3C       		.uleb128 0x3c
 3603 01f5 19       		.uleb128 0x19
 3604 01f6 00       		.byte	0
 3605 01f7 00       		.byte	0
 3606 01f8 22       		.uleb128 0x22
 3607 01f9 2E       		.uleb128 0x2e
 3608 01fa 01       		.byte	0x1
 3609 01fb 3F       		.uleb128 0x3f
 3610 01fc 19       		.uleb128 0x19
 3611 01fd 03       		.uleb128 0x3
 3612 01fe 0E       		.uleb128 0xe
 3613 01ff 3A       		.uleb128 0x3a
 3614 0200 0B       		.uleb128 0xb
 3615 0201 3B       		.uleb128 0x3b
 3616 0202 0B       		.uleb128 0xb
 3617 0203 27       		.uleb128 0x27
 3618 0204 19       		.uleb128 0x19
 3619 0205 49       		.uleb128 0x49
 3620 0206 13       		.uleb128 0x13
 3621 0207 3C       		.uleb128 0x3c
 3622 0208 19       		.uleb128 0x19
 3623 0209 01       		.uleb128 0x1
 3624 020a 13       		.uleb128 0x13
 3625 020b 00       		.byte	0
 3626 020c 00       		.byte	0
 3627 020d 23       		.uleb128 0x23
 3628 020e 2E       		.uleb128 0x2e
 3629 020f 01       		.byte	0x1
 3630 0210 3F       		.uleb128 0x3f
 3631 0211 19       		.uleb128 0x19
 3632 0212 03       		.uleb128 0x3
ARM GAS  C:\Users\mitchell\AppData\Local\Temp\ccpqy6v3.s 			page 101


 3633 0213 0E       		.uleb128 0xe
 3634 0214 3A       		.uleb128 0x3a
 3635 0215 0B       		.uleb128 0xb
 3636 0216 3B       		.uleb128 0x3b
 3637 0217 0B       		.uleb128 0xb
 3638 0218 27       		.uleb128 0x27
 3639 0219 19       		.uleb128 0x19
 3640 021a 3C       		.uleb128 0x3c
 3641 021b 19       		.uleb128 0x19
 3642 021c 00       		.byte	0
 3643 021d 00       		.byte	0
 3644 021e 00       		.byte	0
 3645              		.section	.debug_loc,"",%progbits
 3646              	.Ldebug_loc0:
 3647              	.LLST0:
 3648 0000 00000000 		.4byte	.LVL0
 3649 0004 0C000000 		.4byte	.LVL1
 3650 0008 0100     		.2byte	0x1
 3651 000a 50       		.byte	0x50
 3652 000b 0C000000 		.4byte	.LVL1
 3653 000f 9E000000 		.4byte	.LVL31
 3654 0013 0400     		.2byte	0x4
 3655 0015 F3       		.byte	0xf3
 3656 0016 01       		.uleb128 0x1
 3657 0017 50       		.byte	0x50
 3658 0018 9F       		.byte	0x9f
 3659 0019 9E000000 		.4byte	.LVL31
 3660 001d A0000000 		.4byte	.LVL32
 3661 0021 0100     		.2byte	0x1
 3662 0023 50       		.byte	0x50
 3663 0024 A0000000 		.4byte	.LVL32
 3664 0028 CC000000 		.4byte	.LFE21
 3665 002c 0400     		.2byte	0x4
 3666 002e F3       		.byte	0xf3
 3667 002f 01       		.uleb128 0x1
 3668 0030 50       		.byte	0x50
 3669 0031 9F       		.byte	0x9f
 3670 0032 00000000 		.4byte	0
 3671 0036 00000000 		.4byte	0
 3672              	.LLST1:
 3673 003a 00000000 		.4byte	.LVL0
 3674 003e 66000000 		.4byte	.LVL20
 3675 0042 0100     		.2byte	0x1
 3676 0044 51       		.byte	0x51
 3677 0045 66000000 		.4byte	.LVL20
 3678 0049 9E000000 		.4byte	.LVL31
 3679 004d 0400     		.2byte	0x4
 3680 004f F3       		.byte	0xf3
 3681 0050 01       		.uleb128 0x1
 3682 0051 51       		.byte	0x51
 3683 0052 9F       		.byte	0x9f
 3684 0053 9E000000 		.4byte	.LVL31
 3685 0057 A3000000 		.4byte	.LVL33-1
 3686 005b 0100     		.2byte	0x1
 3687 005d 51       		.byte	0x51
 3688 005e A3000000 		.4byte	.LVL33-1
 3689 0062 CC000000 		.4byte	.LFE21
ARM GAS  C:\Users\mitchell\AppData\Local\Temp\ccpqy6v3.s 			page 102


 3690 0066 0400     		.2byte	0x4
 3691 0068 F3       		.byte	0xf3
 3692 0069 01       		.uleb128 0x1
 3693 006a 51       		.byte	0x51
 3694 006b 9F       		.byte	0x9f
 3695 006c 00000000 		.4byte	0
 3696 0070 00000000 		.4byte	0
 3697              	.LLST2:
 3698 0074 00000000 		.4byte	.LVL0
 3699 0078 6A000000 		.4byte	.LVL21
 3700 007c 0100     		.2byte	0x1
 3701 007e 52       		.byte	0x52
 3702 007f 6A000000 		.4byte	.LVL21
 3703 0083 9E000000 		.4byte	.LVL31
 3704 0087 0400     		.2byte	0x4
 3705 0089 F3       		.byte	0xf3
 3706 008a 01       		.uleb128 0x1
 3707 008b 52       		.byte	0x52
 3708 008c 9F       		.byte	0x9f
 3709 008d 9E000000 		.4byte	.LVL31
 3710 0091 A3000000 		.4byte	.LVL33-1
 3711 0095 0100     		.2byte	0x1
 3712 0097 52       		.byte	0x52
 3713 0098 A3000000 		.4byte	.LVL33-1
 3714 009c CC000000 		.4byte	.LFE21
 3715 00a0 0400     		.2byte	0x4
 3716 00a2 F3       		.byte	0xf3
 3717 00a3 01       		.uleb128 0x1
 3718 00a4 52       		.byte	0x52
 3719 00a5 9F       		.byte	0x9f
 3720 00a6 00000000 		.4byte	0
 3721 00aa 00000000 		.4byte	0
 3722              	.LLST3:
 3723 00ae 00000000 		.4byte	.LVL0
 3724 00b2 82000000 		.4byte	.LVL26
 3725 00b6 0100     		.2byte	0x1
 3726 00b8 53       		.byte	0x53
 3727 00b9 82000000 		.4byte	.LVL26
 3728 00bd 88000000 		.4byte	.LVL27
 3729 00c1 0400     		.2byte	0x4
 3730 00c3 F3       		.byte	0xf3
 3731 00c4 01       		.uleb128 0x1
 3732 00c5 53       		.byte	0x53
 3733 00c6 9F       		.byte	0x9f
 3734 00c7 88000000 		.4byte	.LVL27
 3735 00cb 8A000000 		.4byte	.LVL28
 3736 00cf 0100     		.2byte	0x1
 3737 00d1 53       		.byte	0x53
 3738 00d2 8A000000 		.4byte	.LVL28
 3739 00d6 9E000000 		.4byte	.LVL31
 3740 00da 0400     		.2byte	0x4
 3741 00dc F3       		.byte	0xf3
 3742 00dd 01       		.uleb128 0x1
 3743 00de 53       		.byte	0x53
 3744 00df 9F       		.byte	0x9f
 3745 00e0 9E000000 		.4byte	.LVL31
 3746 00e4 A3000000 		.4byte	.LVL33-1
ARM GAS  C:\Users\mitchell\AppData\Local\Temp\ccpqy6v3.s 			page 103


 3747 00e8 0100     		.2byte	0x1
 3748 00ea 53       		.byte	0x53
 3749 00eb A3000000 		.4byte	.LVL33-1
 3750 00ef CC000000 		.4byte	.LFE21
 3751 00f3 0400     		.2byte	0x4
 3752 00f5 F3       		.byte	0xf3
 3753 00f6 01       		.uleb128 0x1
 3754 00f7 53       		.byte	0x53
 3755 00f8 9F       		.byte	0x9f
 3756 00f9 00000000 		.4byte	0
 3757 00fd 00000000 		.4byte	0
 3758              	.LLST4:
 3759 0101 00000000 		.4byte	.LVL0
 3760 0105 9E000000 		.4byte	.LVL31
 3761 0109 0200     		.2byte	0x2
 3762 010b 91       		.byte	0x91
 3763 010c 00       		.sleb128 0
 3764 010d 9E000000 		.4byte	.LVL31
 3765 0111 A6000000 		.4byte	.LVL34
 3766 0115 0200     		.2byte	0x2
 3767 0117 7D       		.byte	0x7d
 3768 0118 10       		.sleb128 16
 3769 0119 A6000000 		.4byte	.LVL34
 3770 011d CC000000 		.4byte	.LFE21
 3771 0121 0200     		.2byte	0x2
 3772 0123 7D       		.byte	0x7d
 3773 0124 00       		.sleb128 0
 3774 0125 00000000 		.4byte	0
 3775 0129 00000000 		.4byte	0
 3776              	.LLST5:
 3777 012d 26000000 		.4byte	.LVL2
 3778 0131 28000000 		.4byte	.LVL3
 3779 0135 0100     		.2byte	0x1
 3780 0137 50       		.byte	0x50
 3781 0138 2C000000 		.4byte	.LVL4
 3782 013c 2E000000 		.4byte	.LVL5
 3783 0140 0100     		.2byte	0x1
 3784 0142 50       		.byte	0x50
 3785 0143 36000000 		.4byte	.LVL6
 3786 0147 38000000 		.4byte	.LVL7
 3787 014b 0100     		.2byte	0x1
 3788 014d 50       		.byte	0x50
 3789 014e 3C000000 		.4byte	.LVL8
 3790 0152 3E000000 		.4byte	.LVL9
 3791 0156 0100     		.2byte	0x1
 3792 0158 50       		.byte	0x50
 3793 0159 46000000 		.4byte	.LVL10
 3794 015d 48000000 		.4byte	.LVL11
 3795 0161 0100     		.2byte	0x1
 3796 0163 50       		.byte	0x50
 3797 0164 4C000000 		.4byte	.LVL12
 3798 0168 4E000000 		.4byte	.LVL13
 3799 016c 0100     		.2byte	0x1
 3800 016e 50       		.byte	0x50
 3801 016f 56000000 		.4byte	.LVL14
 3802 0173 58000000 		.4byte	.LVL15
 3803 0177 0100     		.2byte	0x1
ARM GAS  C:\Users\mitchell\AppData\Local\Temp\ccpqy6v3.s 			page 104


 3804 0179 50       		.byte	0x50
 3805 017a 5C000000 		.4byte	.LVL16
 3806 017e 5E000000 		.4byte	.LVL17
 3807 0182 0100     		.2byte	0x1
 3808 0184 50       		.byte	0x50
 3809 0185 60000000 		.4byte	.LVL18
 3810 0189 62000000 		.4byte	.LVL19
 3811 018d 0100     		.2byte	0x1
 3812 018f 50       		.byte	0x50
 3813 0190 00000000 		.4byte	0
 3814 0194 00000000 		.4byte	0
 3815              	.LLST6:
 3816 0198 66000000 		.4byte	.LVL20
 3817 019c 76000000 		.4byte	.LVL24
 3818 01a0 0100     		.2byte	0x1
 3819 01a2 51       		.byte	0x51
 3820 01a3 88000000 		.4byte	.LVL27
 3821 01a7 94000000 		.4byte	.LVL30
 3822 01ab 0100     		.2byte	0x1
 3823 01ad 51       		.byte	0x51
 3824 01ae 00000000 		.4byte	0
 3825 01b2 00000000 		.4byte	0
 3826              	.LLST7:
 3827 01b6 6E000000 		.4byte	.LVL23
 3828 01ba 7A000000 		.4byte	.LVL25
 3829 01be 0100     		.2byte	0x1
 3830 01c0 52       		.byte	0x52
 3831 01c1 7A000000 		.4byte	.LVL25
 3832 01c5 88000000 		.4byte	.LVL27
 3833 01c9 0100     		.2byte	0x1
 3834 01cb 50       		.byte	0x50
 3835 01cc 88000000 		.4byte	.LVL27
 3836 01d0 90000000 		.4byte	.LVL29
 3837 01d4 0100     		.2byte	0x1
 3838 01d6 52       		.byte	0x52
 3839 01d7 90000000 		.4byte	.LVL29
 3840 01db 9E000000 		.4byte	.LVL31
 3841 01df 0100     		.2byte	0x1
 3842 01e1 50       		.byte	0x50
 3843 01e2 00000000 		.4byte	0
 3844 01e6 00000000 		.4byte	0
 3845              	.LLST8:
 3846 01ea 6A000000 		.4byte	.LVL21
 3847 01ee 6C000000 		.4byte	.LVL22
 3848 01f2 0100     		.2byte	0x1
 3849 01f4 52       		.byte	0x52
 3850 01f5 00000000 		.4byte	0
 3851 01f9 00000000 		.4byte	0
 3852              	.LLST9:
 3853 01fd 00000000 		.4byte	.LVL35
 3854 0201 07000000 		.4byte	.LVL36-1
 3855 0205 0100     		.2byte	0x1
 3856 0207 50       		.byte	0x50
 3857 0208 07000000 		.4byte	.LVL36-1
 3858 020c 4C000000 		.4byte	.LFE22
 3859 0210 0400     		.2byte	0x4
 3860 0212 F3       		.byte	0xf3
ARM GAS  C:\Users\mitchell\AppData\Local\Temp\ccpqy6v3.s 			page 105


 3861 0213 01       		.uleb128 0x1
 3862 0214 50       		.byte	0x50
 3863 0215 9F       		.byte	0x9f
 3864 0216 00000000 		.4byte	0
 3865 021a 00000000 		.4byte	0
 3866              	.LLST10:
 3867 021e 0A000000 		.4byte	.LVL37
 3868 0222 24000000 		.4byte	.LVL38
 3869 0226 0100     		.2byte	0x1
 3870 0228 50       		.byte	0x50
 3871 0229 24000000 		.4byte	.LVL38
 3872 022d 40000000 		.4byte	.LVL41
 3873 0231 0100     		.2byte	0x1
 3874 0233 56       		.byte	0x56
 3875 0234 00000000 		.4byte	0
 3876 0238 00000000 		.4byte	0
 3877              	.LLST11:
 3878 023c 00000000 		.4byte	.LVL42
 3879 0240 80000000 		.4byte	.LVL43
 3880 0244 0100     		.2byte	0x1
 3881 0246 50       		.byte	0x50
 3882 0247 80000000 		.4byte	.LVL43
 3883 024b DC000000 		.4byte	.LFE19
 3884 024f 0400     		.2byte	0x4
 3885 0251 F3       		.byte	0xf3
 3886 0252 01       		.uleb128 0x1
 3887 0253 50       		.byte	0x50
 3888 0254 9F       		.byte	0x9f
 3889 0255 00000000 		.4byte	0
 3890 0259 00000000 		.4byte	0
 3891              	.LLST12:
 3892 025d 08000000 		.4byte	.LVL55
 3893 0261 50000000 		.4byte	.LVL57
 3894 0265 0100     		.2byte	0x1
 3895 0267 50       		.byte	0x50
 3896 0268 50000000 		.4byte	.LVL57
 3897 026c B6000000 		.4byte	.LVL60
 3898 0270 0100     		.2byte	0x1
 3899 0272 56       		.byte	0x56
 3900 0273 00000000 		.4byte	0
 3901 0277 00000000 		.4byte	0
 3902              	.LLST13:
 3903 027b 08000000 		.4byte	.LVL64
 3904 027f 46000000 		.4byte	.LVL65
 3905 0283 0100     		.2byte	0x1
 3906 0285 50       		.byte	0x50
 3907 0286 46000000 		.4byte	.LVL65
 3908 028a D0000000 		.4byte	.LVL68
 3909 028e 0100     		.2byte	0x1
 3910 0290 56       		.byte	0x56
 3911 0291 00000000 		.4byte	0
 3912 0295 00000000 		.4byte	0
 3913              	.LLST14:
 3914 0299 00000000 		.4byte	.LVL69
 3915 029d 0A000000 		.4byte	.LVL71
 3916 02a1 0100     		.2byte	0x1
 3917 02a3 50       		.byte	0x50
ARM GAS  C:\Users\mitchell\AppData\Local\Temp\ccpqy6v3.s 			page 106


 3918 02a4 0A000000 		.4byte	.LVL71
 3919 02a8 18000000 		.4byte	.LFE4
 3920 02ac 0400     		.2byte	0x4
 3921 02ae F3       		.byte	0xf3
 3922 02af 01       		.uleb128 0x1
 3923 02b0 50       		.byte	0x50
 3924 02b1 9F       		.byte	0x9f
 3925 02b2 00000000 		.4byte	0
 3926 02b6 00000000 		.4byte	0
 3927              	.LLST15:
 3928 02ba 00000000 		.4byte	.LVL73
 3929 02be 0C000000 		.4byte	.LVL75
 3930 02c2 0100     		.2byte	0x1
 3931 02c4 50       		.byte	0x50
 3932 02c5 0C000000 		.4byte	.LVL75
 3933 02c9 18000000 		.4byte	.LFE5
 3934 02cd 0400     		.2byte	0x4
 3935 02cf F3       		.byte	0xf3
 3936 02d0 01       		.uleb128 0x1
 3937 02d1 50       		.byte	0x50
 3938 02d2 9F       		.byte	0x9f
 3939 02d3 00000000 		.4byte	0
 3940 02d7 00000000 		.4byte	0
 3941              	.LLST16:
 3942 02db 00000000 		.4byte	.LVL77
 3943 02df 10000000 		.4byte	.LVL79
 3944 02e3 0100     		.2byte	0x1
 3945 02e5 50       		.byte	0x50
 3946 02e6 10000000 		.4byte	.LVL79
 3947 02ea 24000000 		.4byte	.LVL83
 3948 02ee 0100     		.2byte	0x1
 3949 02f0 54       		.byte	0x54
 3950 02f1 24000000 		.4byte	.LVL83
 3951 02f5 74000000 		.4byte	.LFE6
 3952 02f9 0600     		.2byte	0x6
 3953 02fb F3       		.byte	0xf3
 3954 02fc 03       		.uleb128 0x3
 3955 02fd F5       		.byte	0xf5
 3956 02fe 00       		.uleb128 0
 3957 02ff 25       		.uleb128 0x25
 3958 0300 9F       		.byte	0x9f
 3959 0301 00000000 		.4byte	0
 3960 0305 00000000 		.4byte	0
 3961              	.LLST17:
 3962 0309 0A000000 		.4byte	.LVL78
 3963 030d 13000000 		.4byte	.LVL80-1
 3964 0311 0A00     		.2byte	0xa
 3965 0313 72       		.byte	0x72
 3966 0314 00       		.sleb128 0
 3967 0315 32       		.byte	0x32
 3968 0316 24       		.byte	0x24
 3969 0317 03       		.byte	0x3
 3970 0318 00000000 		.4byte	.LANCHOR0
 3971 031c 22       		.byte	0x22
 3972 031d 44000000 		.4byte	.LVL88
 3973 0321 56000000 		.4byte	.LVL90
 3974 0325 0100     		.2byte	0x1
ARM GAS  C:\Users\mitchell\AppData\Local\Temp\ccpqy6v3.s 			page 107


 3975 0327 50       		.byte	0x50
 3976 0328 00000000 		.4byte	0
 3977 032c 00000000 		.4byte	0
 3978              	.LLST18:
 3979 0330 54000000 		.4byte	.LVL89
 3980 0334 58000000 		.4byte	.LVL91
 3981 0338 0200     		.2byte	0x2
 3982 033a 30       		.byte	0x30
 3983 033b 9F       		.byte	0x9f
 3984 033c 5A000000 		.4byte	.LVL92
 3985 0340 74000000 		.4byte	.LFE6
 3986 0344 0100     		.2byte	0x1
 3987 0346 50       		.byte	0x50
 3988 0347 00000000 		.4byte	0
 3989 034b 00000000 		.4byte	0
 3990              	.LLST19:
 3991 034f 1C000000 		.4byte	.LVL81
 3992 0353 21000000 		.4byte	.LVL82-1
 3993 0357 0100     		.2byte	0x1
 3994 0359 50       		.byte	0x50
 3995 035a 24000000 		.4byte	.LVL83
 3996 035e 27000000 		.4byte	.LVL84-1
 3997 0362 0100     		.2byte	0x1
 3998 0364 50       		.byte	0x50
 3999 0365 27000000 		.4byte	.LVL84-1
 4000 0369 3E000000 		.4byte	.LVL86
 4001 036d 0100     		.2byte	0x1
 4002 036f 54       		.byte	0x54
 4003 0370 3E000000 		.4byte	.LVL86
 4004 0374 41000000 		.4byte	.LVL87-1
 4005 0378 0100     		.2byte	0x1
 4006 037a 50       		.byte	0x50
 4007 037b 58000000 		.4byte	.LVL91
 4008 037f 5C000000 		.4byte	.LVL93
 4009 0383 0100     		.2byte	0x1
 4010 0385 54       		.byte	0x54
 4011 0386 00000000 		.4byte	0
 4012 038a 00000000 		.4byte	0
 4013              	.LLST20:
 4014 038e 06000000 		.4byte	.LVL94
 4015 0392 14000000 		.4byte	.LVL96
 4016 0396 0100     		.2byte	0x1
 4017 0398 53       		.byte	0x53
 4018 0399 00000000 		.4byte	0
 4019 039d 00000000 		.4byte	0
 4020              	.LLST21:
 4021 03a1 0C000000 		.4byte	.LVL95
 4022 03a5 16000000 		.4byte	.LVL97
 4023 03a9 0100     		.2byte	0x1
 4024 03ab 50       		.byte	0x50
 4025 03ac 18000000 		.4byte	.LVL98
 4026 03b0 24000000 		.4byte	.LFE7
 4027 03b4 0100     		.2byte	0x1
 4028 03b6 50       		.byte	0x50
 4029 03b7 00000000 		.4byte	0
 4030 03bb 00000000 		.4byte	0
 4031              	.LLST22:
ARM GAS  C:\Users\mitchell\AppData\Local\Temp\ccpqy6v3.s 			page 108


 4032 03bf 00000000 		.4byte	.LVL99
 4033 03c3 22000000 		.4byte	.LVL103
 4034 03c7 0100     		.2byte	0x1
 4035 03c9 50       		.byte	0x50
 4036 03ca 22000000 		.4byte	.LVL103
 4037 03ce 2C000000 		.4byte	.LFE10
 4038 03d2 0400     		.2byte	0x4
 4039 03d4 F3       		.byte	0xf3
 4040 03d5 01       		.uleb128 0x1
 4041 03d6 50       		.byte	0x50
 4042 03d7 9F       		.byte	0x9f
 4043 03d8 00000000 		.4byte	0
 4044 03dc 00000000 		.4byte	0
 4045              	.LLST23:
 4046 03e0 10000000 		.4byte	.LVL100
 4047 03e4 12000000 		.4byte	.LVL101
 4048 03e8 0100     		.2byte	0x1
 4049 03ea 53       		.byte	0x53
 4050 03eb 18000000 		.4byte	.LVL102
 4051 03ef 2C000000 		.4byte	.LFE10
 4052 03f3 0100     		.2byte	0x1
 4053 03f5 53       		.byte	0x53
 4054 03f6 00000000 		.4byte	0
 4055 03fa 00000000 		.4byte	0
 4056              	.LLST24:
 4057 03fe 0C000000 		.4byte	.LVL105
 4058 0402 30000000 		.4byte	.LVL109
 4059 0406 0100     		.2byte	0x1
 4060 0408 50       		.byte	0x50
 4061 0409 00000000 		.4byte	0
 4062 040d 00000000 		.4byte	0
 4063              	.LLST25:
 4064 0411 08000000 		.4byte	.LVL104
 4065 0415 12000000 		.4byte	.LVL106
 4066 0419 0100     		.2byte	0x1
 4067 041b 53       		.byte	0x53
 4068 041c 16000000 		.4byte	.LVL107
 4069 0420 1C000000 		.4byte	.LVL108
 4070 0424 0100     		.2byte	0x1
 4071 0426 53       		.byte	0x53
 4072 0427 00000000 		.4byte	0
 4073 042b 00000000 		.4byte	0
 4074              	.LLST26:
 4075 042f 12000000 		.4byte	.LVL112
 4076 0433 14000000 		.4byte	.LVL113
 4077 0437 0100     		.2byte	0x1
 4078 0439 50       		.byte	0x50
 4079 043a 18000000 		.4byte	.LVL114
 4080 043e 20000000 		.4byte	.LVL115
 4081 0442 0600     		.2byte	0x6
 4082 0444 72       		.byte	0x72
 4083 0445 00       		.sleb128 0
 4084 0446 08       		.byte	0x8
 4085 0447 FF       		.byte	0xff
 4086 0448 1A       		.byte	0x1a
 4087 0449 9F       		.byte	0x9f
 4088 044a 20000000 		.4byte	.LVL115
ARM GAS  C:\Users\mitchell\AppData\Local\Temp\ccpqy6v3.s 			page 109


 4089 044e 3A000000 		.4byte	.LVL118
 4090 0452 0100     		.2byte	0x1
 4091 0454 50       		.byte	0x50
 4092 0455 00000000 		.4byte	0
 4093 0459 00000000 		.4byte	0
 4094              	.LLST27:
 4095 045d 08000000 		.4byte	.LVL110
 4096 0461 0E000000 		.4byte	.LVL111
 4097 0465 0100     		.2byte	0x1
 4098 0467 53       		.byte	0x53
 4099 0468 14000000 		.4byte	.LVL113
 4100 046c 26000000 		.4byte	.LVL116
 4101 0470 0100     		.2byte	0x1
 4102 0472 53       		.byte	0x53
 4103 0473 00000000 		.4byte	0
 4104 0477 00000000 		.4byte	0
 4105              	.LLST28:
 4106 047b 10000000 		.4byte	.LVL121
 4107 047f 1A000000 		.4byte	.LVL122
 4108 0483 0700     		.2byte	0x7
 4109 0485 73       		.byte	0x73
 4110 0486 00       		.sleb128 0
 4111 0487 0A       		.byte	0xa
 4112 0488 FFFF     		.2byte	0xffff
 4113 048a 1A       		.byte	0x1a
 4114 048b 9F       		.byte	0x9f
 4115 048c 1A000000 		.4byte	.LVL122
 4116 0490 1C000000 		.4byte	.LVL123
 4117 0494 0100     		.2byte	0x1
 4118 0496 50       		.byte	0x50
 4119 0497 24000000 		.4byte	.LVL125
 4120 049b 2C000000 		.4byte	.LVL126
 4121 049f 0700     		.2byte	0x7
 4122 04a1 70       		.byte	0x70
 4123 04a2 00       		.sleb128 0
 4124 04a3 0A       		.byte	0xa
 4125 04a4 FFFF     		.2byte	0xffff
 4126 04a6 1A       		.byte	0x1a
 4127 04a7 9F       		.byte	0x9f
 4128 04a8 2C000000 		.4byte	.LVL126
 4129 04ac 36000000 		.4byte	.LVL128
 4130 04b0 0100     		.2byte	0x1
 4131 04b2 50       		.byte	0x50
 4132 04b3 3C000000 		.4byte	.LVL130
 4133 04b7 6C000000 		.4byte	.LFE13
 4134 04bb 0100     		.2byte	0x1
 4135 04bd 50       		.byte	0x50
 4136 04be 00000000 		.4byte	0
 4137 04c2 00000000 		.4byte	0
 4138              	.LLST29:
 4139 04c6 08000000 		.4byte	.LVL119
 4140 04ca 0E000000 		.4byte	.LVL120
 4141 04ce 0100     		.2byte	0x1
 4142 04d0 53       		.byte	0x53
 4143 04d1 1C000000 		.4byte	.LVL123
 4144 04d5 22000000 		.4byte	.LVL124
 4145 04d9 0100     		.2byte	0x1
ARM GAS  C:\Users\mitchell\AppData\Local\Temp\ccpqy6v3.s 			page 110


 4146 04db 53       		.byte	0x53
 4147 04dc 36000000 		.4byte	.LVL128
 4148 04e0 38000000 		.4byte	.LVL129
 4149 04e4 0100     		.2byte	0x1
 4150 04e6 53       		.byte	0x53
 4151 04e7 00000000 		.4byte	0
 4152 04eb 00000000 		.4byte	0
 4153              	.LLST30:
 4154 04ef 00000000 		.4byte	.LVL134
 4155 04f3 06000000 		.4byte	.LVL135
 4156 04f7 0100     		.2byte	0x1
 4157 04f9 50       		.byte	0x50
 4158 04fa 06000000 		.4byte	.LVL135
 4159 04fe 10000000 		.4byte	.LVL136
 4160 0502 0100     		.2byte	0x1
 4161 0504 53       		.byte	0x53
 4162 0505 00000000 		.4byte	0
 4163 0509 00000000 		.4byte	0
 4164              	.LLST31:
 4165 050d 16000000 		.4byte	.LVL137
 4166 0511 18000000 		.4byte	.LVL138
 4167 0515 0100     		.2byte	0x1
 4168 0517 50       		.byte	0x50
 4169 0518 00000000 		.4byte	0
 4170 051c 00000000 		.4byte	0
 4171              	.LLST32:
 4172 0520 00000000 		.4byte	.LVL139
 4173 0524 06000000 		.4byte	.LVL140
 4174 0528 0100     		.2byte	0x1
 4175 052a 50       		.byte	0x50
 4176 052b 06000000 		.4byte	.LVL140
 4177 052f 08000000 		.4byte	.LVL141
 4178 0533 0600     		.2byte	0x6
 4179 0535 70       		.byte	0x70
 4180 0536 00       		.sleb128 0
 4181 0537 73       		.byte	0x73
 4182 0538 00       		.sleb128 0
 4183 0539 1C       		.byte	0x1c
 4184 053a 9F       		.byte	0x9f
 4185 053b 08000000 		.4byte	.LVL141
 4186 053f 0B000000 		.4byte	.LVL142-1
 4187 0543 0100     		.2byte	0x1
 4188 0545 50       		.byte	0x50
 4189 0546 00000000 		.4byte	0
 4190 054a 00000000 		.4byte	0
 4191              	.LLST33:
 4192 054e 00000000 		.4byte	.LVL145
 4193 0552 4A000000 		.4byte	.LVL154
 4194 0556 0100     		.2byte	0x1
 4195 0558 50       		.byte	0x50
 4196 0559 4A000000 		.4byte	.LVL154
 4197 055d 74000000 		.4byte	.LFE18
 4198 0561 0400     		.2byte	0x4
 4199 0563 F3       		.byte	0xf3
 4200 0564 01       		.uleb128 0x1
 4201 0565 50       		.byte	0x50
 4202 0566 9F       		.byte	0x9f
ARM GAS  C:\Users\mitchell\AppData\Local\Temp\ccpqy6v3.s 			page 111


 4203 0567 00000000 		.4byte	0
 4204 056b 00000000 		.4byte	0
 4205              	.LLST34:
 4206 056f 5A000000 		.4byte	.LVL156
 4207 0573 5C000000 		.4byte	.LVL157
 4208 0577 0600     		.2byte	0x6
 4209 0579 70       		.byte	0x70
 4210 057a 00       		.sleb128 0
 4211 057b 73       		.byte	0x73
 4212 057c 00       		.sleb128 0
 4213 057d 1C       		.byte	0x1c
 4214 057e 9F       		.byte	0x9f
 4215 057f 5C000000 		.4byte	.LVL157
 4216 0583 74000000 		.4byte	.LFE18
 4217 0587 0100     		.2byte	0x1
 4218 0589 50       		.byte	0x50
 4219 058a 00000000 		.4byte	0
 4220 058e 00000000 		.4byte	0
 4221              	.LLST35:
 4222 0592 32000000 		.4byte	.LVL148
 4223 0596 38000000 		.4byte	.LVL150
 4224 059a 0600     		.2byte	0x6
 4225 059c 0C       		.byte	0xc
 4226 059d 40420F00 		.4byte	0xf4240
 4227 05a1 9F       		.byte	0x9f
 4228 05a2 3E000000 		.4byte	.LVL152
 4229 05a6 56000000 		.4byte	.LVL155
 4230 05aa 0100     		.2byte	0x1
 4231 05ac 52       		.byte	0x52
 4232 05ad 00000000 		.4byte	0
 4233 05b1 00000000 		.4byte	0
 4234              	.LLST36:
 4235 05b5 32000000 		.4byte	.LVL148
 4236 05b9 38000000 		.4byte	.LVL150
 4237 05bd 0200     		.2byte	0x2
 4238 05bf 31       		.byte	0x31
 4239 05c0 9F       		.byte	0x9f
 4240 05c1 3E000000 		.4byte	.LVL152
 4241 05c5 5A000000 		.4byte	.LVL156
 4242 05c9 0100     		.2byte	0x1
 4243 05cb 53       		.byte	0x53
 4244 05cc 00000000 		.4byte	0
 4245 05d0 00000000 		.4byte	0
 4246              	.LLST37:
 4247 05d4 22000000 		.4byte	.LVL146
 4248 05d8 2E000000 		.4byte	.LVL147
 4249 05dc 0100     		.2byte	0x1
 4250 05de 53       		.byte	0x53
 4251 05df 32000000 		.4byte	.LVL148
 4252 05e3 34000000 		.4byte	.LVL149
 4253 05e7 0100     		.2byte	0x1
 4254 05e9 53       		.byte	0x53
 4255 05ea 38000000 		.4byte	.LVL150
 4256 05ee 3A000000 		.4byte	.LVL151
 4257 05f2 0100     		.2byte	0x1
 4258 05f4 53       		.byte	0x53
 4259 05f5 00000000 		.4byte	0
ARM GAS  C:\Users\mitchell\AppData\Local\Temp\ccpqy6v3.s 			page 112


 4260 05f9 00000000 		.4byte	0
 4261              	.LLST38:
 4262 05fd 00000000 		.4byte	.LVL158
 4263 0601 1D000000 		.4byte	.LVL159-1
 4264 0605 0100     		.2byte	0x1
 4265 0607 50       		.byte	0x50
 4266 0608 1D000000 		.4byte	.LVL159-1
 4267 060c 48000000 		.4byte	.LVL163
 4268 0610 0400     		.2byte	0x4
 4269 0612 F3       		.byte	0xf3
 4270 0613 01       		.uleb128 0x1
 4271 0614 50       		.byte	0x50
 4272 0615 9F       		.byte	0x9f
 4273 0616 48000000 		.4byte	.LVL163
 4274 061a 4A000000 		.4byte	.LVL164
 4275 061e 0100     		.2byte	0x1
 4276 0620 50       		.byte	0x50
 4277 0621 4A000000 		.4byte	.LVL164
 4278 0625 60000000 		.4byte	.LFE20
 4279 0629 0400     		.2byte	0x4
 4280 062b F3       		.byte	0xf3
 4281 062c 01       		.uleb128 0x1
 4282 062d 50       		.byte	0x50
 4283 062e 9F       		.byte	0x9f
 4284 062f 00000000 		.4byte	0
 4285 0633 00000000 		.4byte	0
 4286              	.LLST39:
 4287 0637 00000000 		.4byte	.LVL158
 4288 063b 1D000000 		.4byte	.LVL159-1
 4289 063f 0100     		.2byte	0x1
 4290 0641 51       		.byte	0x51
 4291 0642 1D000000 		.4byte	.LVL159-1
 4292 0646 48000000 		.4byte	.LVL163
 4293 064a 0400     		.2byte	0x4
 4294 064c F3       		.byte	0xf3
 4295 064d 01       		.uleb128 0x1
 4296 064e 51       		.byte	0x51
 4297 064f 9F       		.byte	0x9f
 4298 0650 48000000 		.4byte	.LVL163
 4299 0654 4D000000 		.4byte	.LVL165-1
 4300 0658 0100     		.2byte	0x1
 4301 065a 51       		.byte	0x51
 4302 065b 4D000000 		.4byte	.LVL165-1
 4303 065f 60000000 		.4byte	.LFE20
 4304 0663 0400     		.2byte	0x4
 4305 0665 F3       		.byte	0xf3
 4306 0666 01       		.uleb128 0x1
 4307 0667 51       		.byte	0x51
 4308 0668 9F       		.byte	0x9f
 4309 0669 00000000 		.4byte	0
 4310 066d 00000000 		.4byte	0
 4311              	.LLST40:
 4312 0671 1C000000 		.4byte	.LVL169
 4313 0675 1F000000 		.4byte	.LVL170-1
 4314 0679 0100     		.2byte	0x1
 4315 067b 50       		.byte	0x50
 4316 067c 1F000000 		.4byte	.LVL170-1
ARM GAS  C:\Users\mitchell\AppData\Local\Temp\ccpqy6v3.s 			page 113


 4317 0680 24000000 		.4byte	.LVL171
 4318 0684 0100     		.2byte	0x1
 4319 0686 54       		.byte	0x54
 4320 0687 24000000 		.4byte	.LVL171
 4321 068b 28000000 		.4byte	.LFE23
 4322 068f 0100     		.2byte	0x1
 4323 0691 50       		.byte	0x50
 4324 0692 00000000 		.4byte	0
 4325 0696 00000000 		.4byte	0
 4326              	.LLST41:
 4327 069a 1C000000 		.4byte	.LVL175
 4328 069e 1F000000 		.4byte	.LVL176-1
 4329 06a2 0100     		.2byte	0x1
 4330 06a4 50       		.byte	0x50
 4331 06a5 1F000000 		.4byte	.LVL176-1
 4332 06a9 24000000 		.4byte	.LVL177
 4333 06ad 0100     		.2byte	0x1
 4334 06af 54       		.byte	0x54
 4335 06b0 24000000 		.4byte	.LVL177
 4336 06b4 28000000 		.4byte	.LFE24
 4337 06b8 0100     		.2byte	0x1
 4338 06ba 50       		.byte	0x50
 4339 06bb 00000000 		.4byte	0
 4340 06bf 00000000 		.4byte	0
 4341              	.LLST42:
 4342 06c3 1C000000 		.4byte	.LVL181
 4343 06c7 1F000000 		.4byte	.LVL182-1
 4344 06cb 0100     		.2byte	0x1
 4345 06cd 50       		.byte	0x50
 4346 06ce 1F000000 		.4byte	.LVL182-1
 4347 06d2 24000000 		.4byte	.LVL183
 4348 06d6 0100     		.2byte	0x1
 4349 06d8 54       		.byte	0x54
 4350 06d9 24000000 		.4byte	.LVL183
 4351 06dd 28000000 		.4byte	.LFE25
 4352 06e1 0100     		.2byte	0x1
 4353 06e3 50       		.byte	0x50
 4354 06e4 00000000 		.4byte	0
 4355 06e8 00000000 		.4byte	0
 4356              		.section	.debug_aranges,"",%progbits
 4357 0000 E4000000 		.4byte	0xe4
 4358 0004 0200     		.2byte	0x2
 4359 0006 00000000 		.4byte	.Ldebug_info0
 4360 000a 04       		.byte	0x4
 4361 000b 00       		.byte	0
 4362 000c 0000     		.2byte	0
 4363 000e 0000     		.2byte	0
 4364 0010 00000000 		.4byte	.LFB21
 4365 0014 CC000000 		.4byte	.LFE21-.LFB21
 4366 0018 00000000 		.4byte	.LFB22
 4367 001c 4C000000 		.4byte	.LFE22-.LFB22
 4368 0020 00000000 		.4byte	.LFB19
 4369 0024 DC000000 		.4byte	.LFE19-.LFB19
 4370 0028 00000000 		.4byte	.LFB0
 4371 002c C0000000 		.4byte	.LFE0-.LFB0
 4372 0030 00000000 		.4byte	.LFB1
 4373 0034 D4000000 		.4byte	.LFE1-.LFB1
ARM GAS  C:\Users\mitchell\AppData\Local\Temp\ccpqy6v3.s 			page 114


 4374 0038 00000000 		.4byte	.LFB2
 4375 003c 28000000 		.4byte	.LFE2-.LFB2
 4376 0040 00000000 		.4byte	.LFB3
 4377 0044 E4000000 		.4byte	.LFE3-.LFB3
 4378 0048 00000000 		.4byte	.LFB4
 4379 004c 18000000 		.4byte	.LFE4-.LFB4
 4380 0050 00000000 		.4byte	.LFB5
 4381 0054 18000000 		.4byte	.LFE5-.LFB5
 4382 0058 00000000 		.4byte	.LFB6
 4383 005c 74000000 		.4byte	.LFE6-.LFB6
 4384 0060 00000000 		.4byte	.LFB7
 4385 0064 24000000 		.4byte	.LFE7-.LFB7
 4386 0068 00000000 		.4byte	.LFB8
 4387 006c 10000000 		.4byte	.LFE8-.LFB8
 4388 0070 00000000 		.4byte	.LFB9
 4389 0074 10000000 		.4byte	.LFE9-.LFB9
 4390 0078 00000000 		.4byte	.LFB10
 4391 007c 2C000000 		.4byte	.LFE10-.LFB10
 4392 0080 00000000 		.4byte	.LFB11
 4393 0084 48000000 		.4byte	.LFE11-.LFB11
 4394 0088 00000000 		.4byte	.LFB12
 4395 008c 50000000 		.4byte	.LFE12-.LFB12
 4396 0090 00000000 		.4byte	.LFB13
 4397 0094 6C000000 		.4byte	.LFE13-.LFB13
 4398 0098 00000000 		.4byte	.LFB14
 4399 009c 0C000000 		.4byte	.LFE14-.LFB14
 4400 00a0 00000000 		.4byte	.LFB15
 4401 00a4 0C000000 		.4byte	.LFE15-.LFB15
 4402 00a8 00000000 		.4byte	.LFB16
 4403 00ac 24000000 		.4byte	.LFE16-.LFB16
 4404 00b0 00000000 		.4byte	.LFB17
 4405 00b4 28000000 		.4byte	.LFE17-.LFB17
 4406 00b8 00000000 		.4byte	.LFB18
 4407 00bc 74000000 		.4byte	.LFE18-.LFB18
 4408 00c0 00000000 		.4byte	.LFB20
 4409 00c4 60000000 		.4byte	.LFE20-.LFB20
 4410 00c8 00000000 		.4byte	.LFB23
 4411 00cc 28000000 		.4byte	.LFE23-.LFB23
 4412 00d0 00000000 		.4byte	.LFB24
 4413 00d4 28000000 		.4byte	.LFE24-.LFB24
 4414 00d8 00000000 		.4byte	.LFB25
 4415 00dc 28000000 		.4byte	.LFE25-.LFB25
 4416 00e0 00000000 		.4byte	0
 4417 00e4 00000000 		.4byte	0
 4418              		.section	.debug_ranges,"",%progbits
 4419              	.Ldebug_ranges0:
 4420 0000 00000000 		.4byte	.LFB21
 4421 0004 CC000000 		.4byte	.LFE21
 4422 0008 00000000 		.4byte	.LFB22
 4423 000c 4C000000 		.4byte	.LFE22
 4424 0010 00000000 		.4byte	.LFB19
 4425 0014 DC000000 		.4byte	.LFE19
 4426 0018 00000000 		.4byte	.LFB0
 4427 001c C0000000 		.4byte	.LFE0
 4428 0020 00000000 		.4byte	.LFB1
 4429 0024 D4000000 		.4byte	.LFE1
 4430 0028 00000000 		.4byte	.LFB2
ARM GAS  C:\Users\mitchell\AppData\Local\Temp\ccpqy6v3.s 			page 115


 4431 002c 28000000 		.4byte	.LFE2
 4432 0030 00000000 		.4byte	.LFB3
 4433 0034 E4000000 		.4byte	.LFE3
 4434 0038 00000000 		.4byte	.LFB4
 4435 003c 18000000 		.4byte	.LFE4
 4436 0040 00000000 		.4byte	.LFB5
 4437 0044 18000000 		.4byte	.LFE5
 4438 0048 00000000 		.4byte	.LFB6
 4439 004c 74000000 		.4byte	.LFE6
 4440 0050 00000000 		.4byte	.LFB7
 4441 0054 24000000 		.4byte	.LFE7
 4442 0058 00000000 		.4byte	.LFB8
 4443 005c 10000000 		.4byte	.LFE8
 4444 0060 00000000 		.4byte	.LFB9
 4445 0064 10000000 		.4byte	.LFE9
 4446 0068 00000000 		.4byte	.LFB10
 4447 006c 2C000000 		.4byte	.LFE10
 4448 0070 00000000 		.4byte	.LFB11
 4449 0074 48000000 		.4byte	.LFE11
 4450 0078 00000000 		.4byte	.LFB12
 4451 007c 50000000 		.4byte	.LFE12
 4452 0080 00000000 		.4byte	.LFB13
 4453 0084 6C000000 		.4byte	.LFE13
 4454 0088 00000000 		.4byte	.LFB14
 4455 008c 0C000000 		.4byte	.LFE14
 4456 0090 00000000 		.4byte	.LFB15
 4457 0094 0C000000 		.4byte	.LFE15
 4458 0098 00000000 		.4byte	.LFB16
 4459 009c 24000000 		.4byte	.LFE16
 4460 00a0 00000000 		.4byte	.LFB17
 4461 00a4 28000000 		.4byte	.LFE17
 4462 00a8 00000000 		.4byte	.LFB18
 4463 00ac 74000000 		.4byte	.LFE18
 4464 00b0 00000000 		.4byte	.LFB20
 4465 00b4 60000000 		.4byte	.LFE20
 4466 00b8 00000000 		.4byte	.LFB23
 4467 00bc 28000000 		.4byte	.LFE23
 4468 00c0 00000000 		.4byte	.LFB24
 4469 00c4 28000000 		.4byte	.LFE24
 4470 00c8 00000000 		.4byte	.LFB25
 4471 00cc 28000000 		.4byte	.LFE25
 4472 00d0 00000000 		.4byte	0
 4473 00d4 00000000 		.4byte	0
 4474              		.section	.debug_line,"",%progbits
 4475              	.Ldebug_line0:
 4476 0000 8C030000 		.section	.debug_str,"MS",%progbits,1
 4476      0200AC00 
 4476      00000201 
 4476      FB0E0D00 
 4476      01010101 
 4477              	.LASF45:
 4478 0000 4144435F 		.ascii	"ADC_DelSig_SetBufferGain\000"
 4478      44656C53 
 4478      69675F53 
 4478      65744275 
 4478      66666572 
 4479              	.LASF79:
ARM GAS  C:\Users\mitchell\AppData\Local\Temp\ccpqy6v3.s 			page 116


 4480 0019 4144435F 		.ascii	"ADC_DelSig_Read8\000"
 4480      44656C53 
 4480      69675F52 
 4480      65616438 
 4480      00
 4481              	.LASF11:
 4482 002a 75696E74 		.ascii	"uint16\000"
 4482      313600
 4483              	.LASF80:
 4484 0031 4144435F 		.ascii	"ADC_DelSig_Read16\000"
 4484      44656C53 
 4484      69675F52 
 4484      65616431 
 4484      3600
 4485              	.LASF67:
 4486 0043 61646347 		.ascii	"adcGain\000"
 4486      61696E00 
 4487              	.LASF92:
 4488 004b 43794578 		.ascii	"CyExitCriticalSection\000"
 4488      69744372 
 4488      69746963 
 4488      616C5365 
 4488      6374696F 
 4489              	.LASF98:
 4490 0061 474E5520 		.ascii	"GNU C 4.8.4 20140526 (release) [ARM/embedded-4_8-br"
 4490      4320342E 
 4490      382E3420 
 4490      32303134 
 4490      30353236 
 4491 0094 616E6368 		.ascii	"anch revision 211358] -mcpu=cortex-m3 -mthumb -g -O"
 4491      20726576 
 4491      6973696F 
 4491      6E203231 
 4491      31333538 
 4492 00c7 67202D66 		.ascii	"g -ffunction-sections\000"
 4492      66756E63 
 4492      74696F6E 
 4492      2D736563 
 4492      74696F6E 
 4493              	.LASF27:
 4494 00dd 696E7075 		.ascii	"inputRange\000"
 4494      7452616E 
 4494      676500
 4495              	.LASF43:
 4496 00e8 4144435F 		.ascii	"ADC_DelSig_Start\000"
 4496      44656C53 
 4496      69675F53 
 4496      74617274 
 4496      00
 4497              	.LASF62:
 4498 00f9 4144435F 		.ascii	"ADC_DelSig_GetResult16\000"
 4498      44656C53 
 4498      69675F47 
 4498      65745265 
 4498      73756C74 
 4499              	.LASF73:
 4500 0110 4144435F 		.ascii	"ADC_DelSig_CountsTo_uVolts\000"
ARM GAS  C:\Users\mitchell\AppData\Local\Temp\ccpqy6v3.s 			page 117


 4500      44656C53 
 4500      69675F43 
 4500      6F756E74 
 4500      73546F5F 
 4501              	.LASF24:
 4502 012b 67636F72 		.ascii	"gcor\000"
 4502      00
 4503              	.LASF40:
 4504 0130 4144435F 		.ascii	"ADC_DelSig_InitConfig\000"
 4504      44656C53 
 4504      69675F49 
 4504      6E697443 
 4504      6F6E6669 
 4505              	.LASF60:
 4506 0146 4144435F 		.ascii	"ADC_DelSig_GetResult8\000"
 4506      44656C53 
 4506      69675F47 
 4506      65745265 
 4506      73756C74 
 4507              	.LASF86:
 4508 015c 4144435F 		.ascii	"ADC_DelSig_started\000"
 4508      44656C53 
 4508      69675F73 
 4508      74617274 
 4508      656400
 4509              	.LASF57:
 4510 016f 4144435F 		.ascii	"ADC_DelSig_StopConvert\000"
 4510      44656C53 
 4510      69675F53 
 4510      746F7043 
 4510      6F6E7665 
 4511              	.LASF8:
 4512 0186 6C6F6E67 		.ascii	"long long unsigned int\000"
 4512      206C6F6E 
 4512      6720756E 
 4512      7369676E 
 4512      65642069 
 4513              	.LASF42:
 4514 019d 4144435F 		.ascii	"ADC_DelSig_Enable\000"
 4514      44656C53 
 4514      69675F45 
 4514      6E61626C 
 4514      6500
 4515              	.LASF77:
 4516 01af 4144435F 		.ascii	"ADC_DelSig_SelectConfiguration\000"
 4516      44656C53 
 4516      69675F53 
 4516      656C6563 
 4516      74436F6E 
 4517              	.LASF26:
 4518 01ce 4144435F 		.ascii	"ADC_DelSig_GCOR_STRUCT\000"
 4518      44656C53 
 4518      69675F47 
 4518      434F525F 
 4518      53545255 
 4519              	.LASF29:
 4520 01e5 69646561 		.ascii	"idealOddDecGain\000"
ARM GAS  C:\Users\mitchell\AppData\Local\Temp\ccpqy6v3.s 			page 118


 4520      6C4F6464 
 4520      44656347 
 4520      61696E00 
 4521              	.LASF41:
 4522 01f5 4144435F 		.ascii	"ADC_DelSig_Init\000"
 4522      44656C53 
 4522      69675F49 
 4522      6E697400 
 4523              	.LASF102:
 4524 0205 4379496E 		.ascii	"CyIntSetVector\000"
 4524      74536574 
 4524      56656374 
 4524      6F7200
 4525              	.LASF96:
 4526 0214 4144435F 		.ascii	"ADC_DelSig_Ext_CP_Clk_SetModeRegister\000"
 4526      44656C53 
 4526      69675F45 
 4526      78745F43 
 4526      505F436C 
 4527              	.LASF7:
 4528 023a 6C6F6E67 		.ascii	"long long int\000"
 4528      206C6F6E 
 4528      6720696E 
 4528      7400
 4529              	.LASF1:
 4530 0248 7369676E 		.ascii	"signed char\000"
 4530      65642063 
 4530      68617200 
 4531              	.LASF15:
 4532 0254 696E7433 		.ascii	"int32\000"
 4532      3200
 4533              	.LASF5:
 4534 025a 6C6F6E67 		.ascii	"long int\000"
 4534      20696E74 
 4534      00
 4535              	.LASF20:
 4536 0263 72656731 		.ascii	"reg16\000"
 4536      3600
 4537              	.LASF10:
 4538 0269 75696E74 		.ascii	"uint8\000"
 4538      3800
 4539              	.LASF91:
 4540 026f 43794465 		.ascii	"CyDelayUs\000"
 4540      6C617955 
 4540      7300
 4541              	.LASF17:
 4542 0279 646F7562 		.ascii	"double\000"
 4542      6C6500
 4543              	.LASF72:
 4544 0280 566F6C74 		.ascii	"Volts\000"
 4544      7300
 4545              	.LASF66:
 4546 0286 4144435F 		.ascii	"ADC_DelSig_SetGain\000"
 4546      44656C53 
 4546      69675F53 
 4546      65744761 
 4546      696E00
ARM GAS  C:\Users\mitchell\AppData\Local\Temp\ccpqy6v3.s 			page 119


 4547              	.LASF12:
 4548 0299 75696E74 		.ascii	"uint32\000"
 4548      333200
 4549              	.LASF81:
 4550 02a0 4144435F 		.ascii	"ADC_DelSig_Read32\000"
 4550      44656C53 
 4550      69675F52 
 4550      65616433 
 4550      3200
 4551              	.LASF63:
 4552 02b2 4144435F 		.ascii	"ADC_DelSig_GetResult32\000"
 4552      44656C53 
 4552      69675F47 
 4552      65745265 
 4552      73756C74 
 4553              	.LASF97:
 4554 02c9 4144435F 		.ascii	"ADC_DelSig_theACLK_SetModeRegister\000"
 4554      44656C53 
 4554      69675F74 
 4554      68654143 
 4554      4C4B5F53 
 4555              	.LASF64:
 4556 02ec 4144435F 		.ascii	"ADC_DelSig_SetOffset\000"
 4556      44656C53 
 4556      69675F53 
 4556      65744F66 
 4556      66736574 
 4557              	.LASF84:
 4558 0301 4144435F 		.ascii	"ADC_DelSig_convDone\000"
 4558      44656C53 
 4558      69675F63 
 4558      6F6E7644 
 4558      6F6E6500 
 4559              	.LASF38:
 4560 0315 76616C75 		.ascii	"value\000"
 4560      6500
 4561              	.LASF59:
 4562 031b 7265744D 		.ascii	"retMode\000"
 4562      6F646500 
 4563              	.LASF9:
 4564 0323 756E7369 		.ascii	"unsigned int\000"
 4564      676E6564 
 4564      20696E74 
 4564      00
 4565              	.LASF74:
 4566 0330 75566F6C 		.ascii	"uVolts\000"
 4566      747300
 4567              	.LASF6:
 4568 0337 6C6F6E67 		.ascii	"long unsigned int\000"
 4568      20756E73 
 4568      69676E65 
 4568      6420696E 
 4568      7400
 4569              	.LASF100:
 4570 0349 433A5C55 		.ascii	"C:\\Users\\mitchell\\Documents\\fsae\\E-Throttle\\E"
 4570      73657273 
 4570      5C6D6974 
ARM GAS  C:\Users\mitchell\AppData\Local\Temp\ccpqy6v3.s 			page 120


 4570      6368656C 
 4570      6C5C446F 
 4571 0376 2D546872 		.ascii	"-Throttle\\Test-Project.cydsn\000"
 4571      6F74746C 
 4571      655C5465 
 4571      73742D50 
 4571      726F6A65 
 4572              	.LASF56:
 4573 0393 4144435F 		.ascii	"ADC_DelSig_StartConvert\000"
 4573      44656C53 
 4573      69675F53 
 4573      74617274 
 4573      436F6E76 
 4574              	.LASF4:
 4575 03ab 73686F72 		.ascii	"short unsigned int\000"
 4575      7420756E 
 4575      7369676E 
 4575      65642069 
 4575      6E7400
 4576              	.LASF99:
 4577 03be 2E5C4765 		.ascii	".\\Generated_Source\\PSoC5\\ADC_DelSig.c\000"
 4577      6E657261 
 4577      7465645F 
 4577      536F7572 
 4577      63655C50 
 4578              	.LASF71:
 4579 03e4 4144435F 		.ascii	"ADC_DelSig_CountsTo_Volts\000"
 4579      44656C53 
 4579      69675F43 
 4579      6F756E74 
 4579      73546F5F 
 4580              	.LASF13:
 4581 03fe 696E7438 		.ascii	"int8\000"
 4581      00
 4582              	.LASF34:
 4583 0403 67636F72 		.ascii	"gcorValue\000"
 4583      56616C75 
 4583      6500
 4584              	.LASF48:
 4585 040d 4144435F 		.ascii	"ADC_DelSig_SetCoherency\000"
 4585      44656C53 
 4585      69675F53 
 4585      6574436F 
 4585      68657265 
 4586              	.LASF36:
 4587 0425 4144435F 		.ascii	"ADC_DelSig_GainCompensation\000"
 4587      44656C53 
 4587      69675F47 
 4587      61696E43 
 4587      6F6D7065 
 4588              	.LASF93:
 4589 0441 4144435F 		.ascii	"ADC_DelSig_AMux_Select\000"
 4589      44656C53 
 4589      69675F41 
 4589      4D75785F 
 4589      53656C65 
 4590              	.LASF70:
ARM GAS  C:\Users\mitchell\AppData\Local\Temp\ccpqy6v3.s 			page 121


 4591 0458 6D566F6C 		.ascii	"mVolts\000"
 4591      747300
 4592              	.LASF32:
 4593 045f 666C6173 		.ascii	"flash\000"
 4593      6800
 4594              	.LASF21:
 4595 0465 72656733 		.ascii	"reg32\000"
 4595      3200
 4596              	.LASF68:
 4597 046b 4144435F 		.ascii	"ADC_DelSig_CountsTo_mVolts\000"
 4597      44656C53 
 4597      69675F43 
 4597      6F756E74 
 4597      73546F5F 
 4598              	.LASF101:
 4599 0486 4379456E 		.ascii	"CyEnterCriticalSection\000"
 4599      74657243 
 4599      72697469 
 4599      63616C53 
 4599      65637469 
 4600              	.LASF16:
 4601 049d 666C6F61 		.ascii	"float32\000"
 4601      74333200 
 4602              	.LASF23:
 4603 04a5 73697A65 		.ascii	"sizetype\000"
 4603      74797065 
 4603      00
 4604              	.LASF83:
 4605 04ae 4144435F 		.ascii	"ADC_DelSig_initVar\000"
 4605      44656C53 
 4605      69675F69 
 4605      6E697456 
 4605      617200
 4606              	.LASF49:
 4607 04c1 636F6865 		.ascii	"coherency\000"
 4607      72656E63 
 4607      7900
 4608              	.LASF103:
 4609 04cb 4379496E 		.ascii	"CyIntSetPriority\000"
 4609      74536574 
 4609      5072696F 
 4609      72697479 
 4609      00
 4610              	.LASF46:
 4611 04dc 6761696E 		.ascii	"gain\000"
 4611      00
 4612              	.LASF0:
 4613 04e1 666C6F61 		.ascii	"float\000"
 4613      7400
 4614              	.LASF82:
 4615 04e7 4144435F 		.ascii	"ADC_DelSig_gcor\000"
 4615      44656C53 
 4615      69675F67 
 4615      636F7200 
 4616              	.LASF19:
 4617 04f7 72656738 		.ascii	"reg8\000"
 4617      00
ARM GAS  C:\Users\mitchell\AppData\Local\Temp\ccpqy6v3.s 			page 122


 4618              	.LASF28:
 4619 04fc 69646561 		.ascii	"idealDecGain\000"
 4619      6C446563 
 4619      4761696E 
 4619      00
 4620              	.LASF33:
 4621 0509 6E6F726D 		.ascii	"normalised\000"
 4621      616C6973 
 4621      656400
 4622              	.LASF90:
 4623 0514 43794861 		.ascii	"CyHalt\000"
 4623      6C7400
 4624              	.LASF2:
 4625 051b 756E7369 		.ascii	"unsigned char\000"
 4625      676E6564 
 4625      20636861 
 4625      7200
 4626              	.LASF3:
 4627 0529 73686F72 		.ascii	"short int\000"
 4627      7420696E 
 4627      7400
 4628              	.LASF35:
 4629 0533 67636F72 		.ascii	"gcorTmp\000"
 4629      546D7000 
 4630              	.LASF88:
 4631 053b 4144435F 		.ascii	"ADC_DelSig_Offset\000"
 4631      44656C53 
 4631      69675F4F 
 4631      66667365 
 4631      7400
 4632              	.LASF94:
 4633 054d 4144435F 		.ascii	"ADC_DelSig_Ext_CP_Clk_SetDividerRegister\000"
 4633      44656C53 
 4633      69675F45 
 4633      78745F43 
 4633      505F436C 
 4634              	.LASF30:
 4635 0576 7265736F 		.ascii	"resolution\000"
 4635      6C757469 
 4635      6F6E00
 4636              	.LASF44:
 4637 0581 4144435F 		.ascii	"ADC_DelSig_Stop\000"
 4637      44656C53 
 4637      69675F53 
 4637      746F7000 
 4638              	.LASF75:
 4639 0591 636F6566 		.ascii	"coefA\000"
 4639      4100
 4640              	.LASF76:
 4641 0597 636F6566 		.ascii	"coefB\000"
 4641      4200
 4642              	.LASF18:
 4643 059d 63686172 		.ascii	"char\000"
 4643      00
 4644              	.LASF55:
 4645 05a2 6756616C 		.ascii	"gValue\000"
 4645      756500
ARM GAS  C:\Users\mitchell\AppData\Local\Temp\ccpqy6v3.s 			page 123


 4646              	.LASF22:
 4647 05a9 63796973 		.ascii	"cyisraddress\000"
 4647      72616464 
 4647      72657373 
 4647      00
 4648              	.LASF31:
 4649 05b6 636F6E66 		.ascii	"config\000"
 4649      696700
 4650              	.LASF25:
 4651 05bd 6776616C 		.ascii	"gval\000"
 4651      00
 4652              	.LASF95:
 4653 05c2 4144435F 		.ascii	"ADC_DelSig_theACLK_SetDividerRegister\000"
 4653      44656C53 
 4653      69675F74 
 4653      68654143 
 4653      4C4B5F53 
 4654              	.LASF54:
 4655 05e8 4144435F 		.ascii	"ADC_DelSig_ReadGCOR\000"
 4655      44656C53 
 4655      69675F52 
 4655      65616447 
 4655      434F5200 
 4656              	.LASF53:
 4657 05fc 4144435F 		.ascii	"ADC_DelSig_SetGCOR\000"
 4657      44656C53 
 4657      69675F53 
 4657      65744743 
 4657      4F5200
 4658              	.LASF78:
 4659 060f 72657374 		.ascii	"restart\000"
 4659      61727400 
 4660              	.LASF52:
 4661 0617 746D7056 		.ascii	"tmpValue\000"
 4661      616C7565 
 4661      00
 4662              	.LASF89:
 4663 0620 4144435F 		.ascii	"ADC_DelSig_CountsPerVolt\000"
 4663      44656C53 
 4663      69675F43 
 4663      6F756E74 
 4663      73506572 
 4664              	.LASF65:
 4665 0639 6F666673 		.ascii	"offset\000"
 4665      657400
 4666              	.LASF69:
 4667 0640 61646343 		.ascii	"adcCounts\000"
 4667      6F756E74 
 4667      7300
 4668              	.LASF37:
 4669 064a 4144435F 		.ascii	"ADC_DelSig_SetDSMRef0Reg\000"
 4669      44656C53 
 4669      69675F53 
 4669      65744453 
 4669      4D526566 
 4670              	.LASF39:
 4671 0663 656E6162 		.ascii	"enableInterrupts\000"
ARM GAS  C:\Users\mitchell\AppData\Local\Temp\ccpqy6v3.s 			page 124


 4671      6C65496E 
 4671      74657272 
 4671      75707473 
 4671      00
 4672              	.LASF51:
 4673 0674 73746174 		.ascii	"status\000"
 4673      757300
 4674              	.LASF50:
 4675 067b 6761696E 		.ascii	"gainAdjust\000"
 4675      41646A75 
 4675      737400
 4676              	.LASF85:
 4677 0686 4144435F 		.ascii	"ADC_DelSig_stopConversion\000"
 4677      44656C53 
 4677      69675F73 
 4677      746F7043 
 4677      6F6E7665 
 4678              	.LASF14:
 4679 06a0 696E7431 		.ascii	"int16\000"
 4679      3600
 4680              	.LASF87:
 4681 06a6 4144435F 		.ascii	"ADC_DelSig_Config\000"
 4681      44656C53 
 4681      69675F43 
 4681      6F6E6669 
 4681      6700
 4682              	.LASF58:
 4683 06b8 4144435F 		.ascii	"ADC_DelSig_IsEndConversion\000"
 4683      44656C53 
 4683      69675F49 
 4683      73456E64 
 4683      436F6E76 
 4684              	.LASF47:
 4685 06d3 746D7052 		.ascii	"tmpReg\000"
 4685      656700
 4686              	.LASF61:
 4687 06da 72657375 		.ascii	"result\000"
 4687      6C7400
 4688              		.ident	"GCC: (GNU Tools for ARM Embedded Processors) 4.8.4 20140526 (release) [ARM/embedded-4_8-br
