ARM GAS  C:\Users\mitchell\AppData\Local\Temp\ccmiv4HZ.s 			page 1


   1              		.syntax unified
   2              		.cpu cortex-m3
   3              		.fpu softvfp
   4              		.eabi_attribute 20, 1
   5              		.eabi_attribute 21, 1
   6              		.eabi_attribute 23, 3
   7              		.eabi_attribute 24, 1
   8              		.eabi_attribute 25, 1
   9              		.eabi_attribute 26, 1
  10              		.eabi_attribute 30, 1
  11              		.eabi_attribute 34, 1
  12              		.eabi_attribute 18, 4
  13              		.thumb
  14              		.file	"CyDmac.c"
  15              		.text
  16              	.Ltext0:
  17              		.cfi_sections	.debug_frame
  18              		.section	.text.CyDmacConfigure,"ax",%progbits
  19              		.align	2
  20              		.global	CyDmacConfigure
  21              		.thumb
  22              		.thumb_func
  23              		.type	CyDmacConfigure, %function
  24              	CyDmacConfigure:
  25              	.LFB0:
  26              		.file 1 ".\\Generated_Source\\PSoC5\\CyDmac.c"
   1:.\Generated_Source\PSoC5/CyDmac.c **** /*******************************************************************************
   2:.\Generated_Source\PSoC5/CyDmac.c **** * File Name: CyDmac.c
   3:.\Generated_Source\PSoC5/CyDmac.c **** * Version 5.10
   4:.\Generated_Source\PSoC5/CyDmac.c **** *
   5:.\Generated_Source\PSoC5/CyDmac.c **** * Description:
   6:.\Generated_Source\PSoC5/CyDmac.c **** *  Provides an API for the DMAC component. The API includes functions for the
   7:.\Generated_Source\PSoC5/CyDmac.c **** *  DMA controller, DMA channels and Transfer Descriptors.
   8:.\Generated_Source\PSoC5/CyDmac.c **** *
   9:.\Generated_Source\PSoC5/CyDmac.c **** *  This API is the library version not the auto generated code that gets
  10:.\Generated_Source\PSoC5/CyDmac.c **** *  generated when the user places a DMA component on the schematic.
  11:.\Generated_Source\PSoC5/CyDmac.c **** *
  12:.\Generated_Source\PSoC5/CyDmac.c **** *  The auto generated code would use the APi's in this module.
  13:.\Generated_Source\PSoC5/CyDmac.c **** *
  14:.\Generated_Source\PSoC5/CyDmac.c **** * Note:
  15:.\Generated_Source\PSoC5/CyDmac.c **** *  This code is endian agnostic.
  16:.\Generated_Source\PSoC5/CyDmac.c **** *
  17:.\Generated_Source\PSoC5/CyDmac.c **** *  The Transfer Descriptor memory can be used as regular memory if the TD's are
  18:.\Generated_Source\PSoC5/CyDmac.c **** *  not being used.
  19:.\Generated_Source\PSoC5/CyDmac.c **** *
  20:.\Generated_Source\PSoC5/CyDmac.c **** *  This code uses the first byte of each TD to manage the free list of TD's.
  21:.\Generated_Source\PSoC5/CyDmac.c **** *  The user can overwrite this once the TD is allocated.
  22:.\Generated_Source\PSoC5/CyDmac.c **** *
  23:.\Generated_Source\PSoC5/CyDmac.c **** ********************************************************************************
  24:.\Generated_Source\PSoC5/CyDmac.c **** * Copyright 2008-2015, Cypress Semiconductor Corporation.  All rights reserved.
  25:.\Generated_Source\PSoC5/CyDmac.c **** * You may use this file only in accordance with the license, terms, conditions,
  26:.\Generated_Source\PSoC5/CyDmac.c **** * disclaimers, and limitations in the end user license agreement accompanying
  27:.\Generated_Source\PSoC5/CyDmac.c **** * the software package with which this file was provided.
  28:.\Generated_Source\PSoC5/CyDmac.c **** *******************************************************************************/
  29:.\Generated_Source\PSoC5/CyDmac.c **** 
  30:.\Generated_Source\PSoC5/CyDmac.c **** #include "CyDmac.h"
  31:.\Generated_Source\PSoC5/CyDmac.c **** 
ARM GAS  C:\Users\mitchell\AppData\Local\Temp\ccmiv4HZ.s 			page 2


  32:.\Generated_Source\PSoC5/CyDmac.c **** 
  33:.\Generated_Source\PSoC5/CyDmac.c **** /*******************************************************************************
  34:.\Generated_Source\PSoC5/CyDmac.c **** * The following variables are initialized from CyDmacConfigure() function that
  35:.\Generated_Source\PSoC5/CyDmac.c **** * is executed from initialize_psoc() at the early initialization stage.
  36:.\Generated_Source\PSoC5/CyDmac.c **** * In case of IAR EW IDE, initialize_psoc() is executed before the data sections
  37:.\Generated_Source\PSoC5/CyDmac.c **** * are initialized. To avoid zeroing, these variables should be initialized
  38:.\Generated_Source\PSoC5/CyDmac.c **** * properly during segments initialization as well.
  39:.\Generated_Source\PSoC5/CyDmac.c **** *******************************************************************************/
  40:.\Generated_Source\PSoC5/CyDmac.c **** static uint8  CyDmaTdCurrentNumber = CY_DMA_NUMBEROF_TDS;           /* Current Number of free eleme
  41:.\Generated_Source\PSoC5/CyDmac.c **** static uint8  CyDmaTdFreeIndex = (uint8)(CY_DMA_NUMBEROF_TDS - 1u); /* Index of first available TD 
  42:.\Generated_Source\PSoC5/CyDmac.c **** static uint32 CyDmaChannels = DMA_CHANNELS_USED__MASK0;              /* Bit map of DMA channel owne
  43:.\Generated_Source\PSoC5/CyDmac.c **** 
  44:.\Generated_Source\PSoC5/CyDmac.c **** 
  45:.\Generated_Source\PSoC5/CyDmac.c **** /*******************************************************************************
  46:.\Generated_Source\PSoC5/CyDmac.c **** * Function Name: CyDmacConfigure
  47:.\Generated_Source\PSoC5/CyDmac.c **** ********************************************************************************
  48:.\Generated_Source\PSoC5/CyDmac.c **** *
  49:.\Generated_Source\PSoC5/CyDmac.c **** * Summary:
  50:.\Generated_Source\PSoC5/CyDmac.c **** *  Creates a linked list of all the TDs to be allocated. This function is called
  51:.\Generated_Source\PSoC5/CyDmac.c **** *  by the startup code; you do not normally need to call it. You can call this
  52:.\Generated_Source\PSoC5/CyDmac.c **** *  function if all of the DMA channels are inactive.
  53:.\Generated_Source\PSoC5/CyDmac.c **** *
  54:.\Generated_Source\PSoC5/CyDmac.c **** * Parameters:
  55:.\Generated_Source\PSoC5/CyDmac.c **** *  None
  56:.\Generated_Source\PSoC5/CyDmac.c **** *
  57:.\Generated_Source\PSoC5/CyDmac.c **** * Return:
  58:.\Generated_Source\PSoC5/CyDmac.c **** *  None
  59:.\Generated_Source\PSoC5/CyDmac.c **** *
  60:.\Generated_Source\PSoC5/CyDmac.c **** *******************************************************************************/
  61:.\Generated_Source\PSoC5/CyDmac.c **** void CyDmacConfigure(void) 
  62:.\Generated_Source\PSoC5/CyDmac.c **** {
  27              		.loc 1 62 0
  28              		.cfi_startproc
  29              		@ args = 0, pretend = 0, frame = 0
  30              		@ frame_needed = 0, uses_anonymous_args = 0
  31              		@ link register save eliminated.
  63:.\Generated_Source\PSoC5/CyDmac.c ****     uint8 dmaIndex;
  64:.\Generated_Source\PSoC5/CyDmac.c **** 
  65:.\Generated_Source\PSoC5/CyDmac.c ****     /* Set TD list variables. */
  66:.\Generated_Source\PSoC5/CyDmac.c ****     CyDmaTdFreeIndex     = (uint8)(CY_DMA_NUMBEROF_TDS - 1u);
  32              		.loc 1 66 0
  33 0000 0B4A     		ldr	r2, .L4
  34 0002 7F23     		movs	r3, #127
  35 0004 1370     		strb	r3, [r2]
  67:.\Generated_Source\PSoC5/CyDmac.c ****     CyDmaTdCurrentNumber = CY_DMA_NUMBEROF_TDS;
  36              		.loc 1 67 0
  37 0006 8021     		movs	r1, #128
  38 0008 5170     		strb	r1, [r2, #1]
  39              	.LVL0:
  68:.\Generated_Source\PSoC5/CyDmac.c **** 
  69:.\Generated_Source\PSoC5/CyDmac.c ****     /* Make TD free list. */
  70:.\Generated_Source\PSoC5/CyDmac.c ****     for(dmaIndex = (uint8)(CY_DMA_NUMBEROF_TDS - 1u); dmaIndex != 0u; dmaIndex--)
  40              		.loc 1 70 0
  41 000a 07E0     		b	.L2
  42              	.LVL1:
  43              	.L3:
  71:.\Generated_Source\PSoC5/CyDmac.c ****     {
ARM GAS  C:\Users\mitchell\AppData\Local\Temp\ccmiv4HZ.s 			page 3


  72:.\Generated_Source\PSoC5/CyDmac.c ****         CY_DMA_TDMEM_STRUCT_PTR[dmaIndex].TD0[0u] = (uint8)(dmaIndex - 1u);
  44              		.loc 1 72 0 discriminator 2
  45 000c DA00     		lsls	r2, r3, #3
  46 000e 02F18042 		add	r2, r2, #1073741824
  47 0012 02F5F042 		add	r2, r2, #30720
  48 0016 013B     		subs	r3, r3, #1
  49              	.LVL2:
  50 0018 DBB2     		uxtb	r3, r3
  51              	.LVL3:
  52 001a 1370     		strb	r3, [r2]
  53              	.LVL4:
  54              	.L2:
  70:.\Generated_Source\PSoC5/CyDmac.c ****     for(dmaIndex = (uint8)(CY_DMA_NUMBEROF_TDS - 1u); dmaIndex != 0u; dmaIndex--)
  55              		.loc 1 70 0 discriminator 1
  56 001c 002B     		cmp	r3, #0
  57 001e F5D1     		bne	.L3
  73:.\Generated_Source\PSoC5/CyDmac.c ****     }
  74:.\Generated_Source\PSoC5/CyDmac.c **** 
  75:.\Generated_Source\PSoC5/CyDmac.c ****     /* Make last one point to zero. */
  76:.\Generated_Source\PSoC5/CyDmac.c ****     CY_DMA_TDMEM_STRUCT_PTR[dmaIndex].TD0[0u] = 0u;
  58              		.loc 1 76 0
  59 0020 DB00     		lsls	r3, r3, #3
  60              	.LVL5:
  61 0022 03F18043 		add	r3, r3, #1073741824
  62 0026 03F5F043 		add	r3, r3, #30720
  63 002a 0022     		movs	r2, #0
  64 002c 1A70     		strb	r2, [r3]
  65 002e 7047     		bx	lr
  66              	.L5:
  67              		.align	2
  68              	.L4:
  69 0030 00000000 		.word	.LANCHOR0
  70              		.cfi_endproc
  71              	.LFE0:
  72              		.size	CyDmacConfigure, .-CyDmacConfigure
  73              		.section	.text.CyDmacError,"ax",%progbits
  74              		.align	2
  75              		.global	CyDmacError
  76              		.thumb
  77              		.thumb_func
  78              		.type	CyDmacError, %function
  79              	CyDmacError:
  80              	.LFB1:
  77:.\Generated_Source\PSoC5/CyDmac.c **** }
  78:.\Generated_Source\PSoC5/CyDmac.c **** 
  79:.\Generated_Source\PSoC5/CyDmac.c **** 
  80:.\Generated_Source\PSoC5/CyDmac.c **** /*******************************************************************************
  81:.\Generated_Source\PSoC5/CyDmac.c **** * Function Name: CyDmacError
  82:.\Generated_Source\PSoC5/CyDmac.c **** ********************************************************************************
  83:.\Generated_Source\PSoC5/CyDmac.c **** *
  84:.\Generated_Source\PSoC5/CyDmac.c **** * Summary:
  85:.\Generated_Source\PSoC5/CyDmac.c **** *  Returns errors of the last failed DMA transaction.
  86:.\Generated_Source\PSoC5/CyDmac.c **** *
  87:.\Generated_Source\PSoC5/CyDmac.c **** * Parameters:
  88:.\Generated_Source\PSoC5/CyDmac.c **** *  None
  89:.\Generated_Source\PSoC5/CyDmac.c **** *
  90:.\Generated_Source\PSoC5/CyDmac.c **** * Return:
ARM GAS  C:\Users\mitchell\AppData\Local\Temp\ccmiv4HZ.s 			page 4


  91:.\Generated_Source\PSoC5/CyDmac.c **** *  Errors of the last failed DMA transaction.
  92:.\Generated_Source\PSoC5/CyDmac.c **** *
  93:.\Generated_Source\PSoC5/CyDmac.c **** *  DMAC_PERIPH_ERR:
  94:.\Generated_Source\PSoC5/CyDmac.c **** *   Set to 1 when a peripheral responds to a bus transaction with an error
  95:.\Generated_Source\PSoC5/CyDmac.c **** *   response.
  96:.\Generated_Source\PSoC5/CyDmac.c **** *
  97:.\Generated_Source\PSoC5/CyDmac.c **** *  DMAC_UNPOP_ACC:
  98:.\Generated_Source\PSoC5/CyDmac.c **** *   Set to 1 when an access is attempted to an invalid address.
  99:.\Generated_Source\PSoC5/CyDmac.c **** *
 100:.\Generated_Source\PSoC5/CyDmac.c **** *  DMAC_BUS_TIMEOUT:
 101:.\Generated_Source\PSoC5/CyDmac.c **** *   Set to 1 when a bus timeout occurs. Cleared by writing a 1. Timeout values
 102:.\Generated_Source\PSoC5/CyDmac.c **** *   are determined by the BUS_TIMEOUT field in the PHUBCFG register.
 103:.\Generated_Source\PSoC5/CyDmac.c **** *
 104:.\Generated_Source\PSoC5/CyDmac.c **** * Theory:
 105:.\Generated_Source\PSoC5/CyDmac.c **** *  Once an error occurs the error bits are sticky and are only cleared by
 106:.\Generated_Source\PSoC5/CyDmac.c **** *  writing 1 to the error register.
 107:.\Generated_Source\PSoC5/CyDmac.c **** *
 108:.\Generated_Source\PSoC5/CyDmac.c **** *******************************************************************************/
 109:.\Generated_Source\PSoC5/CyDmac.c **** uint8 CyDmacError(void) 
 110:.\Generated_Source\PSoC5/CyDmac.c **** {
  81              		.loc 1 110 0
  82              		.cfi_startproc
  83              		@ args = 0, pretend = 0, frame = 0
  84              		@ frame_needed = 0, uses_anonymous_args = 0
  85              		@ link register save eliminated.
 111:.\Generated_Source\PSoC5/CyDmac.c ****     return((uint8)(((uint32) 0x0Eu) & *CY_DMA_ERR_PTR));
  86              		.loc 1 111 0
  87 0000 024B     		ldr	r3, .L7
  88 0002 1868     		ldr	r0, [r3]
 112:.\Generated_Source\PSoC5/CyDmac.c **** }
  89              		.loc 1 112 0
  90 0004 00F00E00 		and	r0, r0, #14
  91 0008 7047     		bx	lr
  92              	.L8:
  93 000a 00BF     		.align	2
  94              	.L7:
  95 000c 04700040 		.word	1073770500
  96              		.cfi_endproc
  97              	.LFE1:
  98              		.size	CyDmacError, .-CyDmacError
  99              		.section	.text.CyDmacClearError,"ax",%progbits
 100              		.align	2
 101              		.global	CyDmacClearError
 102              		.thumb
 103              		.thumb_func
 104              		.type	CyDmacClearError, %function
 105              	CyDmacClearError:
 106              	.LFB2:
 113:.\Generated_Source\PSoC5/CyDmac.c **** 
 114:.\Generated_Source\PSoC5/CyDmac.c **** 
 115:.\Generated_Source\PSoC5/CyDmac.c **** /*******************************************************************************
 116:.\Generated_Source\PSoC5/CyDmac.c **** * Function Name: CyDmacClearError
 117:.\Generated_Source\PSoC5/CyDmac.c **** ********************************************************************************
 118:.\Generated_Source\PSoC5/CyDmac.c **** *
 119:.\Generated_Source\PSoC5/CyDmac.c **** * Summary:
 120:.\Generated_Source\PSoC5/CyDmac.c **** *  Clears the error bits in the error register of the DMAC.
 121:.\Generated_Source\PSoC5/CyDmac.c **** *
ARM GAS  C:\Users\mitchell\AppData\Local\Temp\ccmiv4HZ.s 			page 5


 122:.\Generated_Source\PSoC5/CyDmac.c **** * Parameters:
 123:.\Generated_Source\PSoC5/CyDmac.c **** * error:
 124:.\Generated_Source\PSoC5/CyDmac.c **** *   Clears the error bits in the DMAC error register.
 125:.\Generated_Source\PSoC5/CyDmac.c **** *
 126:.\Generated_Source\PSoC5/CyDmac.c **** *  DMAC_PERIPH_ERR:
 127:.\Generated_Source\PSoC5/CyDmac.c **** *   Set to 1 when a peripheral responds to a bus transaction with an error
 128:.\Generated_Source\PSoC5/CyDmac.c **** *   response.
 129:.\Generated_Source\PSoC5/CyDmac.c **** *
 130:.\Generated_Source\PSoC5/CyDmac.c **** *  DMAC_UNPOP_ACC:
 131:.\Generated_Source\PSoC5/CyDmac.c **** *   Set to 1 when an access is attempted to an invalid address.
 132:.\Generated_Source\PSoC5/CyDmac.c **** *
 133:.\Generated_Source\PSoC5/CyDmac.c **** *  DMAC_BUS_TIMEOUT:
 134:.\Generated_Source\PSoC5/CyDmac.c **** *   Set to 1 when a bus timeout occurs. Cleared by writing 1. Timeout values
 135:.\Generated_Source\PSoC5/CyDmac.c **** *   are determined by the BUS_TIMEOUT field in the PHUBCFG register.
 136:.\Generated_Source\PSoC5/CyDmac.c **** *
 137:.\Generated_Source\PSoC5/CyDmac.c **** * Return:
 138:.\Generated_Source\PSoC5/CyDmac.c **** *  None
 139:.\Generated_Source\PSoC5/CyDmac.c **** *
 140:.\Generated_Source\PSoC5/CyDmac.c **** * Theory:
 141:.\Generated_Source\PSoC5/CyDmac.c **** *  Once an error occurs the error bits are sticky and are only cleared by
 142:.\Generated_Source\PSoC5/CyDmac.c **** *  writing 1 to the error register.
 143:.\Generated_Source\PSoC5/CyDmac.c **** *
 144:.\Generated_Source\PSoC5/CyDmac.c **** *******************************************************************************/
 145:.\Generated_Source\PSoC5/CyDmac.c **** void CyDmacClearError(uint8 error) 
 146:.\Generated_Source\PSoC5/CyDmac.c **** {
 107              		.loc 1 146 0
 108              		.cfi_startproc
 109              		@ args = 0, pretend = 0, frame = 0
 110              		@ frame_needed = 0, uses_anonymous_args = 0
 111              		@ link register save eliminated.
 112              	.LVL6:
 147:.\Generated_Source\PSoC5/CyDmac.c ****     *CY_DMA_ERR_PTR = (((uint32)0x0Fu) & ((uint32)error));
 113              		.loc 1 147 0
 114 0000 00F00F00 		and	r0, r0, #15
 115              	.LVL7:
 116 0004 014B     		ldr	r3, .L10
 117 0006 1860     		str	r0, [r3]
 118 0008 7047     		bx	lr
 119              	.L11:
 120 000a 00BF     		.align	2
 121              	.L10:
 122 000c 04700040 		.word	1073770500
 123              		.cfi_endproc
 124              	.LFE2:
 125              		.size	CyDmacClearError, .-CyDmacClearError
 126              		.section	.text.CyDmacErrorAddress,"ax",%progbits
 127              		.align	2
 128              		.global	CyDmacErrorAddress
 129              		.thumb
 130              		.thumb_func
 131              		.type	CyDmacErrorAddress, %function
 132              	CyDmacErrorAddress:
 133              	.LFB3:
 148:.\Generated_Source\PSoC5/CyDmac.c **** }
 149:.\Generated_Source\PSoC5/CyDmac.c **** 
 150:.\Generated_Source\PSoC5/CyDmac.c **** 
 151:.\Generated_Source\PSoC5/CyDmac.c **** /*******************************************************************************
ARM GAS  C:\Users\mitchell\AppData\Local\Temp\ccmiv4HZ.s 			page 6


 152:.\Generated_Source\PSoC5/CyDmac.c **** * Function Name: CyDmacErrorAddress
 153:.\Generated_Source\PSoC5/CyDmac.c **** ********************************************************************************
 154:.\Generated_Source\PSoC5/CyDmac.c **** *
 155:.\Generated_Source\PSoC5/CyDmac.c **** * Summary:
 156:.\Generated_Source\PSoC5/CyDmac.c **** *  When DMAC_BUS_TIMEOUT, DMAC_UNPOP_ACC, and DMAC_PERIPH_ERR occur the
 157:.\Generated_Source\PSoC5/CyDmac.c **** *  address of the error is written to the error address register and can be read
 158:.\Generated_Source\PSoC5/CyDmac.c **** *  with this function.
 159:.\Generated_Source\PSoC5/CyDmac.c **** *
 160:.\Generated_Source\PSoC5/CyDmac.c **** *  If there are multiple errors, only the address of the first is saved.
 161:.\Generated_Source\PSoC5/CyDmac.c **** *
 162:.\Generated_Source\PSoC5/CyDmac.c **** * Parameters:
 163:.\Generated_Source\PSoC5/CyDmac.c **** *  None
 164:.\Generated_Source\PSoC5/CyDmac.c **** *
 165:.\Generated_Source\PSoC5/CyDmac.c **** * Return:
 166:.\Generated_Source\PSoC5/CyDmac.c **** *  The address that caused the error.
 167:.\Generated_Source\PSoC5/CyDmac.c **** *
 168:.\Generated_Source\PSoC5/CyDmac.c **** *******************************************************************************/
 169:.\Generated_Source\PSoC5/CyDmac.c **** uint32 CyDmacErrorAddress(void) 
 170:.\Generated_Source\PSoC5/CyDmac.c **** {
 134              		.loc 1 170 0
 135              		.cfi_startproc
 136              		@ args = 0, pretend = 0, frame = 0
 137              		@ frame_needed = 0, uses_anonymous_args = 0
 138              		@ link register save eliminated.
 171:.\Generated_Source\PSoC5/CyDmac.c ****     return(CY_GET_REG32(CY_DMA_ERR_ADR_PTR));
 139              		.loc 1 171 0
 140 0000 014B     		ldr	r3, .L13
 141 0002 1868     		ldr	r0, [r3]
 172:.\Generated_Source\PSoC5/CyDmac.c **** }
 142              		.loc 1 172 0
 143 0004 7047     		bx	lr
 144              	.L14:
 145 0006 00BF     		.align	2
 146              	.L13:
 147 0008 08700040 		.word	1073770504
 148              		.cfi_endproc
 149              	.LFE3:
 150              		.size	CyDmacErrorAddress, .-CyDmacErrorAddress
 151              		.section	.text.CyDmaChAlloc,"ax",%progbits
 152              		.align	2
 153              		.global	CyDmaChAlloc
 154              		.thumb
 155              		.thumb_func
 156              		.type	CyDmaChAlloc, %function
 157              	CyDmaChAlloc:
 158              	.LFB4:
 173:.\Generated_Source\PSoC5/CyDmac.c **** 
 174:.\Generated_Source\PSoC5/CyDmac.c **** 
 175:.\Generated_Source\PSoC5/CyDmac.c **** /*******************************************************************************
 176:.\Generated_Source\PSoC5/CyDmac.c **** * Function Name: CyDmaChAlloc
 177:.\Generated_Source\PSoC5/CyDmac.c **** ********************************************************************************
 178:.\Generated_Source\PSoC5/CyDmac.c **** *
 179:.\Generated_Source\PSoC5/CyDmac.c **** * Summary:
 180:.\Generated_Source\PSoC5/CyDmac.c **** *  Allocates a channel from the DMAC to be used in all functions that require a
 181:.\Generated_Source\PSoC5/CyDmac.c **** *  channel handle.
 182:.\Generated_Source\PSoC5/CyDmac.c **** *
 183:.\Generated_Source\PSoC5/CyDmac.c **** * Parameters:
ARM GAS  C:\Users\mitchell\AppData\Local\Temp\ccmiv4HZ.s 			page 7


 184:.\Generated_Source\PSoC5/CyDmac.c **** *  None
 185:.\Generated_Source\PSoC5/CyDmac.c **** *
 186:.\Generated_Source\PSoC5/CyDmac.c **** * Return:
 187:.\Generated_Source\PSoC5/CyDmac.c **** *  The allocated channel number. Zero is a valid channel number.
 188:.\Generated_Source\PSoC5/CyDmac.c **** *  DMA_INVALID_CHANNEL is returned if there are no channels available.
 189:.\Generated_Source\PSoC5/CyDmac.c **** *
 190:.\Generated_Source\PSoC5/CyDmac.c **** *******************************************************************************/
 191:.\Generated_Source\PSoC5/CyDmac.c **** uint8 CyDmaChAlloc(void) 
 192:.\Generated_Source\PSoC5/CyDmac.c **** {
 159              		.loc 1 192 0
 160              		.cfi_startproc
 161              		@ args = 0, pretend = 0, frame = 0
 162              		@ frame_needed = 0, uses_anonymous_args = 0
 163 0000 10B5     		push	{r4, lr}
 164              		.cfi_def_cfa_offset 8
 165              		.cfi_offset 4, -8
 166              		.cfi_offset 14, -4
 167              	.LVL8:
 193:.\Generated_Source\PSoC5/CyDmac.c ****     uint8 interruptState;
 194:.\Generated_Source\PSoC5/CyDmac.c ****     uint8 dmaIndex;
 195:.\Generated_Source\PSoC5/CyDmac.c ****     uint32 channel = 1u;
 196:.\Generated_Source\PSoC5/CyDmac.c **** 
 197:.\Generated_Source\PSoC5/CyDmac.c **** 
 198:.\Generated_Source\PSoC5/CyDmac.c ****     /* Enter critical section! */
 199:.\Generated_Source\PSoC5/CyDmac.c ****     interruptState = CyEnterCriticalSection();
 168              		.loc 1 199 0
 169 0002 FFF7FEFF 		bl	CyEnterCriticalSection
 170              	.LVL9:
 195:.\Generated_Source\PSoC5/CyDmac.c ****     uint32 channel = 1u;
 171              		.loc 1 195 0
 172 0006 0123     		movs	r3, #1
 200:.\Generated_Source\PSoC5/CyDmac.c **** 
 201:.\Generated_Source\PSoC5/CyDmac.c ****     /* Look for free channel. */
 202:.\Generated_Source\PSoC5/CyDmac.c ****     for(dmaIndex = 0u; dmaIndex < CY_DMA_NUMBEROF_CHANNELS; dmaIndex++)
 173              		.loc 1 202 0
 174 0008 0024     		movs	r4, #0
 203:.\Generated_Source\PSoC5/CyDmac.c ****     {
 204:.\Generated_Source\PSoC5/CyDmac.c ****         if(0uL == (CyDmaChannels & channel))
 175              		.loc 1 204 0
 176 000a 0A49     		ldr	r1, .L22
 202:.\Generated_Source\PSoC5/CyDmac.c ****     for(dmaIndex = 0u; dmaIndex < CY_DMA_NUMBEROF_CHANNELS; dmaIndex++)
 177              		.loc 1 202 0
 178 000c 09E0     		b	.L16
 179              	.LVL10:
 180              	.L19:
 181              		.loc 1 204 0
 182 000e 0A68     		ldr	r2, [r1]
 183 0010 1A42     		tst	r2, r3
 184 0012 03D1     		bne	.L17
 205:.\Generated_Source\PSoC5/CyDmac.c ****         {
 206:.\Generated_Source\PSoC5/CyDmac.c ****             /* Mark channel as used. */
 207:.\Generated_Source\PSoC5/CyDmac.c ****             CyDmaChannels |= channel;
 185              		.loc 1 207 0
 186 0014 1343     		orrs	r3, r3, r2
 187              	.LVL11:
 188 0016 0749     		ldr	r1, .L22
 189 0018 0B60     		str	r3, [r1]
ARM GAS  C:\Users\mitchell\AppData\Local\Temp\ccmiv4HZ.s 			page 8


 208:.\Generated_Source\PSoC5/CyDmac.c ****             break;
 190              		.loc 1 208 0
 191 001a 04E0     		b	.L18
 192              	.LVL12:
 193              	.L17:
 209:.\Generated_Source\PSoC5/CyDmac.c ****         }
 210:.\Generated_Source\PSoC5/CyDmac.c **** 
 211:.\Generated_Source\PSoC5/CyDmac.c ****         channel <<= 1u;
 194              		.loc 1 211 0
 195 001c 5B00     		lsls	r3, r3, #1
 196              	.LVL13:
 202:.\Generated_Source\PSoC5/CyDmac.c ****     for(dmaIndex = 0u; dmaIndex < CY_DMA_NUMBEROF_CHANNELS; dmaIndex++)
 197              		.loc 1 202 0
 198 001e 0134     		adds	r4, r4, #1
 199              	.LVL14:
 200 0020 E4B2     		uxtb	r4, r4
 201              	.LVL15:
 202              	.L16:
 202:.\Generated_Source\PSoC5/CyDmac.c ****     for(dmaIndex = 0u; dmaIndex < CY_DMA_NUMBEROF_CHANNELS; dmaIndex++)
 203              		.loc 1 202 0 is_stmt 0 discriminator 1
 204 0022 172C     		cmp	r4, #23
 205 0024 F3D9     		bls	.L19
 206              	.LVL16:
 207              	.L18:
 212:.\Generated_Source\PSoC5/CyDmac.c ****     }
 213:.\Generated_Source\PSoC5/CyDmac.c **** 
 214:.\Generated_Source\PSoC5/CyDmac.c ****     if(dmaIndex >= CY_DMA_NUMBEROF_CHANNELS)
 208              		.loc 1 214 0 is_stmt 1
 209 0026 172C     		cmp	r4, #23
 210 0028 00D9     		bls	.L20
 215:.\Generated_Source\PSoC5/CyDmac.c ****     {
 216:.\Generated_Source\PSoC5/CyDmac.c ****         dmaIndex = CY_DMA_INVALID_CHANNEL;
 211              		.loc 1 216 0
 212 002a FF24     		movs	r4, #255
 213              	.LVL17:
 214              	.L20:
 217:.\Generated_Source\PSoC5/CyDmac.c ****     }
 218:.\Generated_Source\PSoC5/CyDmac.c **** 
 219:.\Generated_Source\PSoC5/CyDmac.c ****     /* Exit critical section! */
 220:.\Generated_Source\PSoC5/CyDmac.c ****     CyExitCriticalSection(interruptState);
 215              		.loc 1 220 0
 216 002c FFF7FEFF 		bl	CyExitCriticalSection
 217              	.LVL18:
 221:.\Generated_Source\PSoC5/CyDmac.c **** 
 222:.\Generated_Source\PSoC5/CyDmac.c ****     return(dmaIndex);
 223:.\Generated_Source\PSoC5/CyDmac.c **** }
 218              		.loc 1 223 0
 219 0030 2046     		mov	r0, r4
 220 0032 10BD     		pop	{r4, pc}
 221              	.LVL19:
 222              	.L23:
 223              		.align	2
 224              	.L22:
 225 0034 00000000 		.word	.LANCHOR1
 226              		.cfi_endproc
 227              	.LFE4:
 228              		.size	CyDmaChAlloc, .-CyDmaChAlloc
ARM GAS  C:\Users\mitchell\AppData\Local\Temp\ccmiv4HZ.s 			page 9


 229              		.section	.text.CyDmaChFree,"ax",%progbits
 230              		.align	2
 231              		.global	CyDmaChFree
 232              		.thumb
 233              		.thumb_func
 234              		.type	CyDmaChFree, %function
 235              	CyDmaChFree:
 236              	.LFB5:
 224:.\Generated_Source\PSoC5/CyDmac.c **** 
 225:.\Generated_Source\PSoC5/CyDmac.c **** 
 226:.\Generated_Source\PSoC5/CyDmac.c **** /*******************************************************************************
 227:.\Generated_Source\PSoC5/CyDmac.c **** * Function Name: CyDmaChFree
 228:.\Generated_Source\PSoC5/CyDmac.c **** ********************************************************************************
 229:.\Generated_Source\PSoC5/CyDmac.c **** *
 230:.\Generated_Source\PSoC5/CyDmac.c **** * Summary:
 231:.\Generated_Source\PSoC5/CyDmac.c **** *  Frees a channel allocated by DmaChAlloc().
 232:.\Generated_Source\PSoC5/CyDmac.c **** *
 233:.\Generated_Source\PSoC5/CyDmac.c **** * Parameters:
 234:.\Generated_Source\PSoC5/CyDmac.c **** *  uint8 chHandle:
 235:.\Generated_Source\PSoC5/CyDmac.c **** *   The handle previously returned by CyDmaChAlloc() or DMA_DmaInitalize().
 236:.\Generated_Source\PSoC5/CyDmac.c **** *
 237:.\Generated_Source\PSoC5/CyDmac.c **** * Return:
 238:.\Generated_Source\PSoC5/CyDmac.c **** *  CYRET_SUCCESS if successful.
 239:.\Generated_Source\PSoC5/CyDmac.c **** *  CYRET_BAD_PARAM if chHandle is invalid.
 240:.\Generated_Source\PSoC5/CyDmac.c **** *
 241:.\Generated_Source\PSoC5/CyDmac.c **** *******************************************************************************/
 242:.\Generated_Source\PSoC5/CyDmac.c **** cystatus CyDmaChFree(uint8 chHandle) 
 243:.\Generated_Source\PSoC5/CyDmac.c **** {
 237              		.loc 1 243 0
 238              		.cfi_startproc
 239              		@ args = 0, pretend = 0, frame = 0
 240              		@ frame_needed = 0, uses_anonymous_args = 0
 241              	.LVL20:
 242 0000 10B5     		push	{r4, lr}
 243              		.cfi_def_cfa_offset 8
 244              		.cfi_offset 4, -8
 245              		.cfi_offset 14, -4
 246 0002 0446     		mov	r4, r0
 247              	.LVL21:
 244:.\Generated_Source\PSoC5/CyDmac.c ****     cystatus status = CYRET_BAD_PARAM;
 245:.\Generated_Source\PSoC5/CyDmac.c ****     uint8 interruptState;
 246:.\Generated_Source\PSoC5/CyDmac.c **** 
 247:.\Generated_Source\PSoC5/CyDmac.c ****     if(chHandle < CY_DMA_NUMBEROF_CHANNELS)
 248              		.loc 1 247 0
 249 0004 1728     		cmp	r0, #23
 250 0006 0DD8     		bhi	.L26
 248:.\Generated_Source\PSoC5/CyDmac.c ****     {
 249:.\Generated_Source\PSoC5/CyDmac.c ****         /* Enter critical section */
 250:.\Generated_Source\PSoC5/CyDmac.c ****         interruptState = CyEnterCriticalSection();
 251              		.loc 1 250 0
 252 0008 FFF7FEFF 		bl	CyEnterCriticalSection
 253              	.LVL22:
 251:.\Generated_Source\PSoC5/CyDmac.c **** 
 252:.\Generated_Source\PSoC5/CyDmac.c ****         /* Clear bit mask that keeps track of ownership. */
 253:.\Generated_Source\PSoC5/CyDmac.c ****         CyDmaChannels &= ~(((uint32) 1u) << chHandle);
 254              		.loc 1 253 0
 255 000c 0122     		movs	r2, #1
ARM GAS  C:\Users\mitchell\AppData\Local\Temp\ccmiv4HZ.s 			page 10


 256 000e 02FA04F4 		lsl	r4, r2, r4
 257 0012 054B     		ldr	r3, .L27
 258 0014 1A68     		ldr	r2, [r3]
 259 0016 22EA0402 		bic	r2, r2, r4
 260 001a 1A60     		str	r2, [r3]
 254:.\Generated_Source\PSoC5/CyDmac.c **** 
 255:.\Generated_Source\PSoC5/CyDmac.c ****         /* Exit critical section */
 256:.\Generated_Source\PSoC5/CyDmac.c ****         CyExitCriticalSection(interruptState);
 261              		.loc 1 256 0
 262 001c FFF7FEFF 		bl	CyExitCriticalSection
 263              	.LVL23:
 257:.\Generated_Source\PSoC5/CyDmac.c ****         status = CYRET_SUCCESS;
 264              		.loc 1 257 0
 265 0020 0020     		movs	r0, #0
 266 0022 10BD     		pop	{r4, pc}
 267              	.LVL24:
 268              	.L26:
 244:.\Generated_Source\PSoC5/CyDmac.c ****     cystatus status = CYRET_BAD_PARAM;
 269              		.loc 1 244 0
 270 0024 0120     		movs	r0, #1
 271              	.LVL25:
 258:.\Generated_Source\PSoC5/CyDmac.c ****     }
 259:.\Generated_Source\PSoC5/CyDmac.c **** 
 260:.\Generated_Source\PSoC5/CyDmac.c ****     return(status);
 261:.\Generated_Source\PSoC5/CyDmac.c **** }
 272              		.loc 1 261 0
 273 0026 10BD     		pop	{r4, pc}
 274              	.L28:
 275              		.align	2
 276              	.L27:
 277 0028 00000000 		.word	.LANCHOR1
 278              		.cfi_endproc
 279              	.LFE5:
 280              		.size	CyDmaChFree, .-CyDmaChFree
 281              		.section	.text.CyDmaChEnable,"ax",%progbits
 282              		.align	2
 283              		.global	CyDmaChEnable
 284              		.thumb
 285              		.thumb_func
 286              		.type	CyDmaChEnable, %function
 287              	CyDmaChEnable:
 288              	.LFB6:
 262:.\Generated_Source\PSoC5/CyDmac.c **** 
 263:.\Generated_Source\PSoC5/CyDmac.c **** 
 264:.\Generated_Source\PSoC5/CyDmac.c **** /*******************************************************************************
 265:.\Generated_Source\PSoC5/CyDmac.c **** * Function Name: CyDmaChEnable
 266:.\Generated_Source\PSoC5/CyDmac.c **** ********************************************************************************
 267:.\Generated_Source\PSoC5/CyDmac.c **** *
 268:.\Generated_Source\PSoC5/CyDmac.c **** * Summary:
 269:.\Generated_Source\PSoC5/CyDmac.c **** *  Enables the DMA channel. A software or hardware request still must happen
 270:.\Generated_Source\PSoC5/CyDmac.c **** *  before the channel is executed.
 271:.\Generated_Source\PSoC5/CyDmac.c **** *
 272:.\Generated_Source\PSoC5/CyDmac.c **** * Parameters:
 273:.\Generated_Source\PSoC5/CyDmac.c **** *  uint8 chHandle:
 274:.\Generated_Source\PSoC5/CyDmac.c **** *   A handle previously returned by CyDmaChAlloc() or DMA_DmaInitalize().
 275:.\Generated_Source\PSoC5/CyDmac.c **** *
 276:.\Generated_Source\PSoC5/CyDmac.c **** *  uint8 preserveTds:
ARM GAS  C:\Users\mitchell\AppData\Local\Temp\ccmiv4HZ.s 			page 11


 277:.\Generated_Source\PSoC5/CyDmac.c **** *   Preserves the original TD state when the TD has completed. This parameter
 278:.\Generated_Source\PSoC5/CyDmac.c **** *   applies to all TDs in the channel.
 279:.\Generated_Source\PSoC5/CyDmac.c **** *
 280:.\Generated_Source\PSoC5/CyDmac.c **** *   0 - When TD is completed, the DMAC leaves the TD configuration values in
 281:.\Generated_Source\PSoC5/CyDmac.c **** *   their current state, and does not restore them to their original state.
 282:.\Generated_Source\PSoC5/CyDmac.c **** *
 283:.\Generated_Source\PSoC5/CyDmac.c **** *   1 - When TD is completed, the DMAC restores the original configuration
 284:.\Generated_Source\PSoC5/CyDmac.c **** *   values of the TD.
 285:.\Generated_Source\PSoC5/CyDmac.c **** *
 286:.\Generated_Source\PSoC5/CyDmac.c **** *  When preserveTds is set, the TD slot that equals the channel number becomes
 287:.\Generated_Source\PSoC5/CyDmac.c **** *  RESERVED and that becomes where the working registers exist. So, for example,
 288:.\Generated_Source\PSoC5/CyDmac.c **** *  if you are using CH06 and preserveTds is set, you are not allowed to use TD
 289:.\Generated_Source\PSoC5/CyDmac.c **** *  slot 6. That is reclaimed by the DMA engine for its private use.
 290:.\Generated_Source\PSoC5/CyDmac.c **** *
 291:.\Generated_Source\PSoC5/CyDmac.c **** *  Note Do not chain back to a completed TD if the preserveTds for the channel
 292:.\Generated_Source\PSoC5/CyDmac.c **** *  is set to 0. When a TD has completed preserveTds for the channel set to 0,
 293:.\Generated_Source\PSoC5/CyDmac.c **** *  the transfer count will be at 0. If a TD with a transfer count of 0 is
 294:.\Generated_Source\PSoC5/CyDmac.c **** *  started, the TD will transfer an indefinite amount of data.
 295:.\Generated_Source\PSoC5/CyDmac.c **** *
 296:.\Generated_Source\PSoC5/CyDmac.c **** *  Take extra precautions when using the hardware request (DRQ) option when the
 297:.\Generated_Source\PSoC5/CyDmac.c **** *  preserveTds is set to 0, as you might be requesting the wrong data.
 298:.\Generated_Source\PSoC5/CyDmac.c **** *
 299:.\Generated_Source\PSoC5/CyDmac.c **** * Return:
 300:.\Generated_Source\PSoC5/CyDmac.c **** *  CYRET_SUCCESS if successful.
 301:.\Generated_Source\PSoC5/CyDmac.c **** *  CYRET_BAD_PARAM if chHandle is invalid.
 302:.\Generated_Source\PSoC5/CyDmac.c **** *
 303:.\Generated_Source\PSoC5/CyDmac.c **** *******************************************************************************/
 304:.\Generated_Source\PSoC5/CyDmac.c **** cystatus CyDmaChEnable(uint8 chHandle, uint8 preserveTds) 
 305:.\Generated_Source\PSoC5/CyDmac.c **** {
 289              		.loc 1 305 0
 290              		.cfi_startproc
 291              		@ args = 0, pretend = 0, frame = 0
 292              		@ frame_needed = 0, uses_anonymous_args = 0
 293              		@ link register save eliminated.
 294              	.LVL26:
 306:.\Generated_Source\PSoC5/CyDmac.c ****     cystatus status = CYRET_BAD_PARAM;
 307:.\Generated_Source\PSoC5/CyDmac.c **** 
 308:.\Generated_Source\PSoC5/CyDmac.c ****     if(chHandle < CY_DMA_NUMBEROF_CHANNELS)
 295              		.loc 1 308 0
 296 0000 1728     		cmp	r0, #23
 297 0002 15D8     		bhi	.L33
 309:.\Generated_Source\PSoC5/CyDmac.c ****     {
 310:.\Generated_Source\PSoC5/CyDmac.c ****         if (0u != preserveTds)
 298              		.loc 1 310 0
 299 0004 31B1     		cbz	r1, .L31
 311:.\Generated_Source\PSoC5/CyDmac.c ****         {
 312:.\Generated_Source\PSoC5/CyDmac.c ****             /* Store intermediate TD states separately in CHn_SEP_TD0/1 to
 313:.\Generated_Source\PSoC5/CyDmac.c ****             *  preserve original TD chain
 314:.\Generated_Source\PSoC5/CyDmac.c ****             */
 315:.\Generated_Source\PSoC5/CyDmac.c ****             CY_DMA_CH_STRUCT_PTR[chHandle].basic_cfg[0u] |= CY_DMA_CH_BASIC_CFG_WORK_SEP;
 300              		.loc 1 315 0
 301 0006 0201     		lsls	r2, r0, #4
 302 0008 0A4B     		ldr	r3, .L34
 303 000a D15C     		ldrb	r1, [r2, r3]	@ zero_extendqisi2
 304              	.LVL27:
 305 000c 41F02001 		orr	r1, r1, #32
 306 0010 D154     		strb	r1, [r2, r3]
ARM GAS  C:\Users\mitchell\AppData\Local\Temp\ccmiv4HZ.s 			page 12


 307 0012 05E0     		b	.L32
 308              	.LVL28:
 309              	.L31:
 316:.\Generated_Source\PSoC5/CyDmac.c ****         }
 317:.\Generated_Source\PSoC5/CyDmac.c ****         else
 318:.\Generated_Source\PSoC5/CyDmac.c ****         {
 319:.\Generated_Source\PSoC5/CyDmac.c ****             /* Store intermediate and final TD states on top of original TD chain */
 320:.\Generated_Source\PSoC5/CyDmac.c ****             CY_DMA_CH_STRUCT_PTR[chHandle].basic_cfg[0u] &= (uint8)(~CY_DMA_CH_BASIC_CFG_WORK_SEP);
 310              		.loc 1 320 0
 311 0014 0201     		lsls	r2, r0, #4
 312 0016 074B     		ldr	r3, .L34
 313 0018 D15C     		ldrb	r1, [r2, r3]	@ zero_extendqisi2
 314              	.LVL29:
 315 001a 01F0DF01 		and	r1, r1, #223
 316 001e D154     		strb	r1, [r2, r3]
 317              	.L32:
 321:.\Generated_Source\PSoC5/CyDmac.c ****         }
 322:.\Generated_Source\PSoC5/CyDmac.c **** 
 323:.\Generated_Source\PSoC5/CyDmac.c ****         /* Enable channel */
 324:.\Generated_Source\PSoC5/CyDmac.c ****         CY_DMA_CH_STRUCT_PTR[chHandle].basic_cfg[0u] |= CY_DMA_CH_BASIC_CFG_EN;
 318              		.loc 1 324 0
 319 0020 0001     		lsls	r0, r0, #4
 320              	.LVL30:
 321 0022 044B     		ldr	r3, .L34
 322 0024 C25C     		ldrb	r2, [r0, r3]	@ zero_extendqisi2
 323 0026 42F00102 		orr	r2, r2, #1
 324 002a C254     		strb	r2, [r0, r3]
 325              	.LVL31:
 325:.\Generated_Source\PSoC5/CyDmac.c **** 
 326:.\Generated_Source\PSoC5/CyDmac.c ****         status = CYRET_SUCCESS;
 326              		.loc 1 326 0
 327 002c 0020     		movs	r0, #0
 328 002e 7047     		bx	lr
 329              	.LVL32:
 330              	.L33:
 306:.\Generated_Source\PSoC5/CyDmac.c ****     cystatus status = CYRET_BAD_PARAM;
 331              		.loc 1 306 0
 332 0030 0120     		movs	r0, #1
 333              	.LVL33:
 327:.\Generated_Source\PSoC5/CyDmac.c ****     }
 328:.\Generated_Source\PSoC5/CyDmac.c **** 
 329:.\Generated_Source\PSoC5/CyDmac.c ****     return(status);
 330:.\Generated_Source\PSoC5/CyDmac.c **** }
 334              		.loc 1 330 0
 335 0032 7047     		bx	lr
 336              	.L35:
 337              		.align	2
 338              	.L34:
 339 0034 10700040 		.word	1073770512
 340              		.cfi_endproc
 341              	.LFE6:
 342              		.size	CyDmaChEnable, .-CyDmaChEnable
 343              		.section	.text.CyDmaChDisable,"ax",%progbits
 344              		.align	2
 345              		.global	CyDmaChDisable
 346              		.thumb
 347              		.thumb_func
ARM GAS  C:\Users\mitchell\AppData\Local\Temp\ccmiv4HZ.s 			page 13


 348              		.type	CyDmaChDisable, %function
 349              	CyDmaChDisable:
 350              	.LFB7:
 331:.\Generated_Source\PSoC5/CyDmac.c **** 
 332:.\Generated_Source\PSoC5/CyDmac.c **** 
 333:.\Generated_Source\PSoC5/CyDmac.c **** /*******************************************************************************
 334:.\Generated_Source\PSoC5/CyDmac.c **** * Function Name: CyDmaChDisable
 335:.\Generated_Source\PSoC5/CyDmac.c **** ********************************************************************************
 336:.\Generated_Source\PSoC5/CyDmac.c **** *
 337:.\Generated_Source\PSoC5/CyDmac.c **** * Summary:
 338:.\Generated_Source\PSoC5/CyDmac.c **** *  Disables the DMA channel. Once this function is called, CyDmaChStatus() may
 339:.\Generated_Source\PSoC5/CyDmac.c **** *  be called to determine when the channel is disabled and which TDs were being
 340:.\Generated_Source\PSoC5/CyDmac.c **** *  executed.
 341:.\Generated_Source\PSoC5/CyDmac.c **** *
 342:.\Generated_Source\PSoC5/CyDmac.c **** *  If it is currently executing it will allow the current burst to finish
 343:.\Generated_Source\PSoC5/CyDmac.c **** *  naturally.
 344:.\Generated_Source\PSoC5/CyDmac.c **** *
 345:.\Generated_Source\PSoC5/CyDmac.c **** * Parameters:
 346:.\Generated_Source\PSoC5/CyDmac.c **** *  uint8 chHandle:
 347:.\Generated_Source\PSoC5/CyDmac.c **** *   A handle previously returned by CyDmaChAlloc() or DMA_DmaInitalize().
 348:.\Generated_Source\PSoC5/CyDmac.c **** *
 349:.\Generated_Source\PSoC5/CyDmac.c **** * Return:
 350:.\Generated_Source\PSoC5/CyDmac.c **** *  CYRET_SUCCESS if successful.
 351:.\Generated_Source\PSoC5/CyDmac.c **** *  CYRET_BAD_PARAM if chHandle is invalid.
 352:.\Generated_Source\PSoC5/CyDmac.c **** *
 353:.\Generated_Source\PSoC5/CyDmac.c **** *******************************************************************************/
 354:.\Generated_Source\PSoC5/CyDmac.c **** cystatus CyDmaChDisable(uint8 chHandle) 
 355:.\Generated_Source\PSoC5/CyDmac.c **** {
 351              		.loc 1 355 0
 352              		.cfi_startproc
 353              		@ args = 0, pretend = 0, frame = 0
 354              		@ frame_needed = 0, uses_anonymous_args = 0
 355              		@ link register save eliminated.
 356              	.LVL34:
 356:.\Generated_Source\PSoC5/CyDmac.c ****     cystatus status = CYRET_BAD_PARAM;
 357:.\Generated_Source\PSoC5/CyDmac.c **** 
 358:.\Generated_Source\PSoC5/CyDmac.c ****     if(chHandle < CY_DMA_NUMBEROF_CHANNELS)
 357              		.loc 1 358 0
 358 0000 1728     		cmp	r0, #23
 359 0002 0BD8     		bhi	.L38
 359:.\Generated_Source\PSoC5/CyDmac.c ****     {
 360:.\Generated_Source\PSoC5/CyDmac.c ****         /***********************************************************************
 361:.\Generated_Source\PSoC5/CyDmac.c ****         * Should not change configuration information of a DMA channel when it
 362:.\Generated_Source\PSoC5/CyDmac.c ****         * is active (or vulnerable to becoming active).
 363:.\Generated_Source\PSoC5/CyDmac.c ****         ***********************************************************************/
 364:.\Generated_Source\PSoC5/CyDmac.c **** 
 365:.\Generated_Source\PSoC5/CyDmac.c ****         /* Disable channel */
 366:.\Generated_Source\PSoC5/CyDmac.c ****         CY_DMA_CH_STRUCT_PTR[chHandle].basic_cfg[0] &= ((uint8) (~CY_DMA_CH_BASIC_CFG_EN));
 360              		.loc 1 366 0
 361 0004 0001     		lsls	r0, r0, #4
 362              	.LVL35:
 363 0006 064B     		ldr	r3, .L39
 364 0008 C25C     		ldrb	r2, [r0, r3]	@ zero_extendqisi2
 365 000a 02F0FE02 		and	r2, r2, #254
 366 000e C254     		strb	r2, [r0, r3]
 367:.\Generated_Source\PSoC5/CyDmac.c **** 
 368:.\Generated_Source\PSoC5/CyDmac.c ****         /* Store intermediate and final TD states on top of original TD chain */
ARM GAS  C:\Users\mitchell\AppData\Local\Temp\ccmiv4HZ.s 			page 14


 369:.\Generated_Source\PSoC5/CyDmac.c ****         CY_DMA_CH_STRUCT_PTR[chHandle].basic_cfg[0] &= ((uint8) (~CY_DMA_CH_BASIC_CFG_WORK_SEP));
 367              		.loc 1 369 0
 368 0010 C25C     		ldrb	r2, [r0, r3]	@ zero_extendqisi2
 369 0012 02F0DF02 		and	r2, r2, #223
 370 0016 C254     		strb	r2, [r0, r3]
 371              	.LVL36:
 370:.\Generated_Source\PSoC5/CyDmac.c ****         status = CYRET_SUCCESS;
 372              		.loc 1 370 0
 373 0018 0020     		movs	r0, #0
 374 001a 7047     		bx	lr
 375              	.LVL37:
 376              	.L38:
 356:.\Generated_Source\PSoC5/CyDmac.c ****     cystatus status = CYRET_BAD_PARAM;
 377              		.loc 1 356 0
 378 001c 0120     		movs	r0, #1
 379              	.LVL38:
 371:.\Generated_Source\PSoC5/CyDmac.c ****     }
 372:.\Generated_Source\PSoC5/CyDmac.c **** 
 373:.\Generated_Source\PSoC5/CyDmac.c ****     return(status);
 374:.\Generated_Source\PSoC5/CyDmac.c **** }
 380              		.loc 1 374 0
 381 001e 7047     		bx	lr
 382              	.L40:
 383              		.align	2
 384              	.L39:
 385 0020 10700040 		.word	1073770512
 386              		.cfi_endproc
 387              	.LFE7:
 388              		.size	CyDmaChDisable, .-CyDmaChDisable
 389              		.section	.text.CyDmaClearPendingDrq,"ax",%progbits
 390              		.align	2
 391              		.global	CyDmaClearPendingDrq
 392              		.thumb
 393              		.thumb_func
 394              		.type	CyDmaClearPendingDrq, %function
 395              	CyDmaClearPendingDrq:
 396              	.LFB8:
 375:.\Generated_Source\PSoC5/CyDmac.c **** 
 376:.\Generated_Source\PSoC5/CyDmac.c **** 
 377:.\Generated_Source\PSoC5/CyDmac.c **** /*******************************************************************************
 378:.\Generated_Source\PSoC5/CyDmac.c **** * Function Name: CyDmaClearPendingDrq
 379:.\Generated_Source\PSoC5/CyDmac.c **** ********************************************************************************
 380:.\Generated_Source\PSoC5/CyDmac.c **** *
 381:.\Generated_Source\PSoC5/CyDmac.c **** * Summary:
 382:.\Generated_Source\PSoC5/CyDmac.c **** *  Clears pending the DMA data request.
 383:.\Generated_Source\PSoC5/CyDmac.c **** *
 384:.\Generated_Source\PSoC5/CyDmac.c **** * Parameters:
 385:.\Generated_Source\PSoC5/CyDmac.c **** *  uint8 chHandle:
 386:.\Generated_Source\PSoC5/CyDmac.c **** *   Handle to the dma channel.
 387:.\Generated_Source\PSoC5/CyDmac.c **** *
 388:.\Generated_Source\PSoC5/CyDmac.c **** * Return:
 389:.\Generated_Source\PSoC5/CyDmac.c **** *  CYRET_SUCCESS if successful.
 390:.\Generated_Source\PSoC5/CyDmac.c **** *  CYRET_BAD_PARAM if chHandle is invalid.
 391:.\Generated_Source\PSoC5/CyDmac.c **** *
 392:.\Generated_Source\PSoC5/CyDmac.c **** *******************************************************************************/
 393:.\Generated_Source\PSoC5/CyDmac.c **** cystatus CyDmaClearPendingDrq(uint8 chHandle) 
 394:.\Generated_Source\PSoC5/CyDmac.c **** {
ARM GAS  C:\Users\mitchell\AppData\Local\Temp\ccmiv4HZ.s 			page 15


 397              		.loc 1 394 0
 398              		.cfi_startproc
 399              		@ args = 0, pretend = 0, frame = 0
 400              		@ frame_needed = 0, uses_anonymous_args = 0
 401              		@ link register save eliminated.
 402              	.LVL39:
 395:.\Generated_Source\PSoC5/CyDmac.c ****     cystatus status = CYRET_BAD_PARAM;
 396:.\Generated_Source\PSoC5/CyDmac.c **** 
 397:.\Generated_Source\PSoC5/CyDmac.c ****     if(chHandle < CY_DMA_NUMBEROF_CHANNELS)
 403              		.loc 1 397 0
 404 0000 1728     		cmp	r0, #23
 405 0002 0CD8     		bhi	.L43
 398:.\Generated_Source\PSoC5/CyDmac.c ****     {
 399:.\Generated_Source\PSoC5/CyDmac.c ****         CY_DMA_CH_STRUCT_PTR[chHandle].action[0] |= CY_DMA_CPU_TERM_CHAIN;
 406              		.loc 1 399 0
 407 0004 0001     		lsls	r0, r0, #4
 408              	.LVL40:
 409 0006 074B     		ldr	r3, .L44
 410 0008 C218     		adds	r2, r0, r3
 411 000a 1179     		ldrb	r1, [r2, #4]	@ zero_extendqisi2
 412 000c 41F00401 		orr	r1, r1, #4
 413 0010 1171     		strb	r1, [r2, #4]
 400:.\Generated_Source\PSoC5/CyDmac.c ****         CY_DMA_CH_STRUCT_PTR[chHandle].basic_cfg[0] |= 0x01u;
 414              		.loc 1 400 0
 415 0012 C25C     		ldrb	r2, [r0, r3]	@ zero_extendqisi2
 416 0014 42F00102 		orr	r2, r2, #1
 417 0018 C254     		strb	r2, [r0, r3]
 418              	.LVL41:
 401:.\Generated_Source\PSoC5/CyDmac.c ****         status = CYRET_SUCCESS;
 419              		.loc 1 401 0
 420 001a 0020     		movs	r0, #0
 421 001c 7047     		bx	lr
 422              	.LVL42:
 423              	.L43:
 395:.\Generated_Source\PSoC5/CyDmac.c ****     cystatus status = CYRET_BAD_PARAM;
 424              		.loc 1 395 0
 425 001e 0120     		movs	r0, #1
 426              	.LVL43:
 402:.\Generated_Source\PSoC5/CyDmac.c ****     }
 403:.\Generated_Source\PSoC5/CyDmac.c **** 
 404:.\Generated_Source\PSoC5/CyDmac.c ****     return(status);
 405:.\Generated_Source\PSoC5/CyDmac.c **** }
 427              		.loc 1 405 0
 428 0020 7047     		bx	lr
 429              	.L45:
 430 0022 00BF     		.align	2
 431              	.L44:
 432 0024 10700040 		.word	1073770512
 433              		.cfi_endproc
 434              	.LFE8:
 435              		.size	CyDmaClearPendingDrq, .-CyDmaClearPendingDrq
 436              		.section	.text.CyDmaChPriority,"ax",%progbits
 437              		.align	2
 438              		.global	CyDmaChPriority
 439              		.thumb
 440              		.thumb_func
 441              		.type	CyDmaChPriority, %function
ARM GAS  C:\Users\mitchell\AppData\Local\Temp\ccmiv4HZ.s 			page 16


 442              	CyDmaChPriority:
 443              	.LFB9:
 406:.\Generated_Source\PSoC5/CyDmac.c **** 
 407:.\Generated_Source\PSoC5/CyDmac.c **** 
 408:.\Generated_Source\PSoC5/CyDmac.c **** /*******************************************************************************
 409:.\Generated_Source\PSoC5/CyDmac.c **** * Function Name: CyDmaChPriority
 410:.\Generated_Source\PSoC5/CyDmac.c **** ********************************************************************************
 411:.\Generated_Source\PSoC5/CyDmac.c **** *
 412:.\Generated_Source\PSoC5/CyDmac.c **** * Summary:
 413:.\Generated_Source\PSoC5/CyDmac.c **** *  Sets the priority of a DMA channel. You can use this function when you want
 414:.\Generated_Source\PSoC5/CyDmac.c **** *  to change the priority at run time. If the priority remains the same for a
 415:.\Generated_Source\PSoC5/CyDmac.c **** *  DMA channel, then you can configure the priority in the .cydwr file.
 416:.\Generated_Source\PSoC5/CyDmac.c **** *
 417:.\Generated_Source\PSoC5/CyDmac.c **** * Parameters:
 418:.\Generated_Source\PSoC5/CyDmac.c **** *  uint8 chHandle:
 419:.\Generated_Source\PSoC5/CyDmac.c **** *   A handle previously returned by CyDmaChAlloc() or DMA_DmaInitalize().
 420:.\Generated_Source\PSoC5/CyDmac.c **** *
 421:.\Generated_Source\PSoC5/CyDmac.c **** *  uint8 priority:
 422:.\Generated_Source\PSoC5/CyDmac.c **** *   Priority to set the channel to, 0 - 7.
 423:.\Generated_Source\PSoC5/CyDmac.c **** *
 424:.\Generated_Source\PSoC5/CyDmac.c **** * Return:
 425:.\Generated_Source\PSoC5/CyDmac.c **** *  CYRET_SUCCESS if successful.
 426:.\Generated_Source\PSoC5/CyDmac.c **** *  CYRET_BAD_PARAM if chHandle is invalid.
 427:.\Generated_Source\PSoC5/CyDmac.c **** *
 428:.\Generated_Source\PSoC5/CyDmac.c **** *******************************************************************************/
 429:.\Generated_Source\PSoC5/CyDmac.c **** cystatus CyDmaChPriority(uint8 chHandle, uint8 priority) 
 430:.\Generated_Source\PSoC5/CyDmac.c **** {
 444              		.loc 1 430 0
 445              		.cfi_startproc
 446              		@ args = 0, pretend = 0, frame = 0
 447              		@ frame_needed = 0, uses_anonymous_args = 0
 448              		@ link register save eliminated.
 449              	.LVL44:
 431:.\Generated_Source\PSoC5/CyDmac.c ****     uint8 value;
 432:.\Generated_Source\PSoC5/CyDmac.c ****     cystatus status = CYRET_BAD_PARAM;
 433:.\Generated_Source\PSoC5/CyDmac.c **** 
 434:.\Generated_Source\PSoC5/CyDmac.c ****     if(chHandle < CY_DMA_NUMBEROF_CHANNELS)
 450              		.loc 1 434 0
 451 0000 1728     		cmp	r0, #23
 452 0002 0BD8     		bhi	.L48
 435:.\Generated_Source\PSoC5/CyDmac.c ****     {
 436:.\Generated_Source\PSoC5/CyDmac.c ****         value = CY_DMA_CH_STRUCT_PTR[chHandle].basic_cfg[0u] & ((uint8)(~(0x0Eu)));
 453              		.loc 1 436 0
 454 0004 0001     		lsls	r0, r0, #4
 455              	.LVL45:
 456 0006 064B     		ldr	r3, .L49
 457 0008 C25C     		ldrb	r2, [r0, r3]	@ zero_extendqisi2
 458 000a 02F0F102 		and	r2, r2, #241
 459              	.LVL46:
 437:.\Generated_Source\PSoC5/CyDmac.c **** 
 438:.\Generated_Source\PSoC5/CyDmac.c ****         CY_DMA_CH_STRUCT_PTR[chHandle].basic_cfg[0u] = value | ((uint8) ((priority & 0x7u) << 0x01u
 460              		.loc 1 438 0
 461 000e 01F00701 		and	r1, r1, #7
 462              	.LVL47:
 463 0012 42EA4101 		orr	r1, r2, r1, lsl #1
 464 0016 C154     		strb	r1, [r0, r3]
 465              	.LVL48:
ARM GAS  C:\Users\mitchell\AppData\Local\Temp\ccmiv4HZ.s 			page 17


 439:.\Generated_Source\PSoC5/CyDmac.c **** 
 440:.\Generated_Source\PSoC5/CyDmac.c ****         status = CYRET_SUCCESS;
 466              		.loc 1 440 0
 467 0018 0020     		movs	r0, #0
 468 001a 7047     		bx	lr
 469              	.LVL49:
 470              	.L48:
 432:.\Generated_Source\PSoC5/CyDmac.c ****     cystatus status = CYRET_BAD_PARAM;
 471              		.loc 1 432 0
 472 001c 0120     		movs	r0, #1
 473              	.LVL50:
 441:.\Generated_Source\PSoC5/CyDmac.c ****     }
 442:.\Generated_Source\PSoC5/CyDmac.c **** 
 443:.\Generated_Source\PSoC5/CyDmac.c ****     return(status);
 444:.\Generated_Source\PSoC5/CyDmac.c **** }
 474              		.loc 1 444 0
 475 001e 7047     		bx	lr
 476              	.L50:
 477              		.align	2
 478              	.L49:
 479 0020 10700040 		.word	1073770512
 480              		.cfi_endproc
 481              	.LFE9:
 482              		.size	CyDmaChPriority, .-CyDmaChPriority
 483              		.section	.text.CyDmaChSetExtendedAddress,"ax",%progbits
 484              		.align	2
 485              		.global	CyDmaChSetExtendedAddress
 486              		.thumb
 487              		.thumb_func
 488              		.type	CyDmaChSetExtendedAddress, %function
 489              	CyDmaChSetExtendedAddress:
 490              	.LFB10:
 445:.\Generated_Source\PSoC5/CyDmac.c **** 
 446:.\Generated_Source\PSoC5/CyDmac.c **** 
 447:.\Generated_Source\PSoC5/CyDmac.c **** /*******************************************************************************
 448:.\Generated_Source\PSoC5/CyDmac.c **** * Function Name: CyDmaChSetExtendedAddress
 449:.\Generated_Source\PSoC5/CyDmac.c **** ********************************************************************************
 450:.\Generated_Source\PSoC5/CyDmac.c **** *
 451:.\Generated_Source\PSoC5/CyDmac.c **** * Summary:
 452:.\Generated_Source\PSoC5/CyDmac.c **** *  Sets the high 16 bits of the source and destination addresses for the DMA
 453:.\Generated_Source\PSoC5/CyDmac.c **** *  channel (valid for all TDs in the chain).
 454:.\Generated_Source\PSoC5/CyDmac.c **** *
 455:.\Generated_Source\PSoC5/CyDmac.c **** * Parameters:
 456:.\Generated_Source\PSoC5/CyDmac.c **** *  uint8 chHandle:
 457:.\Generated_Source\PSoC5/CyDmac.c **** *   A handle previously returned by CyDmaChAlloc() or DMA_DmaInitalize().
 458:.\Generated_Source\PSoC5/CyDmac.c **** *
 459:.\Generated_Source\PSoC5/CyDmac.c **** *  uint16 source:
 460:.\Generated_Source\PSoC5/CyDmac.c **** *   Upper 16 bit address of the DMA transfer source.
 461:.\Generated_Source\PSoC5/CyDmac.c **** *
 462:.\Generated_Source\PSoC5/CyDmac.c **** *  uint16 destination:
 463:.\Generated_Source\PSoC5/CyDmac.c **** *   Upper 16 bit address of the DMA transfer destination.
 464:.\Generated_Source\PSoC5/CyDmac.c **** *
 465:.\Generated_Source\PSoC5/CyDmac.c **** * Return:
 466:.\Generated_Source\PSoC5/CyDmac.c **** *  CYRET_SUCCESS if successful.
 467:.\Generated_Source\PSoC5/CyDmac.c **** *  CYRET_BAD_PARAM if chHandle is invalid.
 468:.\Generated_Source\PSoC5/CyDmac.c **** *
 469:.\Generated_Source\PSoC5/CyDmac.c **** *******************************************************************************/
ARM GAS  C:\Users\mitchell\AppData\Local\Temp\ccmiv4HZ.s 			page 18


 470:.\Generated_Source\PSoC5/CyDmac.c **** cystatus CyDmaChSetExtendedAddress(uint8 chHandle, uint16 source, uint16 destination) \
 471:.\Generated_Source\PSoC5/CyDmac.c ****     
 472:.\Generated_Source\PSoC5/CyDmac.c **** {
 491              		.loc 1 472 0
 492              		.cfi_startproc
 493              		@ args = 0, pretend = 0, frame = 0
 494              		@ frame_needed = 0, uses_anonymous_args = 0
 495              		@ link register save eliminated.
 496              	.LVL51:
 473:.\Generated_Source\PSoC5/CyDmac.c ****     cystatus status = CYRET_BAD_PARAM;
 474:.\Generated_Source\PSoC5/CyDmac.c ****     reg16 *convert;
 475:.\Generated_Source\PSoC5/CyDmac.c **** 
 476:.\Generated_Source\PSoC5/CyDmac.c ****     #if(CY_PSOC5)
 477:.\Generated_Source\PSoC5/CyDmac.c **** 
 478:.\Generated_Source\PSoC5/CyDmac.c ****         /* 0x1FFF8000-0x1FFFFFFF needs to use alias at 0x20008000-0x2000FFFF */
 479:.\Generated_Source\PSoC5/CyDmac.c ****         if(source == 0x1FFFu)
 497              		.loc 1 479 0
 498 0000 41F6FF73 		movw	r3, #8191
 499 0004 9942     		cmp	r1, r3
 500 0006 01D1     		bne	.L52
 480:.\Generated_Source\PSoC5/CyDmac.c ****         {
 481:.\Generated_Source\PSoC5/CyDmac.c ****             source = 0x2000u;
 501              		.loc 1 481 0
 502 0008 4FF40051 		mov	r1, #8192
 503              	.LVL52:
 504              	.L52:
 482:.\Generated_Source\PSoC5/CyDmac.c ****         }
 483:.\Generated_Source\PSoC5/CyDmac.c **** 
 484:.\Generated_Source\PSoC5/CyDmac.c ****         if(destination == 0x1FFFu)
 505              		.loc 1 484 0
 506 000c 41F6FF73 		movw	r3, #8191
 507 0010 9A42     		cmp	r2, r3
 508 0012 01D1     		bne	.L53
 485:.\Generated_Source\PSoC5/CyDmac.c ****         {
 486:.\Generated_Source\PSoC5/CyDmac.c ****             destination = 0x2000u;
 509              		.loc 1 486 0
 510 0014 4FF40052 		mov	r2, #8192
 511              	.LVL53:
 512              	.L53:
 487:.\Generated_Source\PSoC5/CyDmac.c ****         }
 488:.\Generated_Source\PSoC5/CyDmac.c **** 
 489:.\Generated_Source\PSoC5/CyDmac.c ****     #endif  /* (CY_PSOC5) */
 490:.\Generated_Source\PSoC5/CyDmac.c **** 
 491:.\Generated_Source\PSoC5/CyDmac.c **** 
 492:.\Generated_Source\PSoC5/CyDmac.c ****     if(chHandle < CY_DMA_NUMBEROF_CHANNELS)
 513              		.loc 1 492 0
 514 0018 1728     		cmp	r0, #23
 515 001a 08D8     		bhi	.L57
 493:.\Generated_Source\PSoC5/CyDmac.c ****     {
 494:.\Generated_Source\PSoC5/CyDmac.c ****         /* Set source address */
 495:.\Generated_Source\PSoC5/CyDmac.c ****         convert = (reg16 *) &CY_DMA_CFGMEM_STRUCT_PTR[chHandle].CFG1[0];
 516              		.loc 1 495 0
 517 001c C000     		lsls	r0, r0, #3
 518              	.LVL54:
 519 001e 00F18040 		add	r0, r0, #1073741824
 520 0022 00F5EC40 		add	r0, r0, #30208
 521              	.LVL55:
ARM GAS  C:\Users\mitchell\AppData\Local\Temp\ccmiv4HZ.s 			page 19


 496:.\Generated_Source\PSoC5/CyDmac.c ****         CY_SET_REG16(convert, source);
 522              		.loc 1 496 0
 523 0026 8180     		strh	r1, [r0, #4]	@ movhi
 524              	.LVL56:
 497:.\Generated_Source\PSoC5/CyDmac.c **** 
 498:.\Generated_Source\PSoC5/CyDmac.c ****         /* Set destination address */
 499:.\Generated_Source\PSoC5/CyDmac.c ****         convert = (reg16 *) &CY_DMA_CFGMEM_STRUCT_PTR[chHandle].CFG1[2u];
 500:.\Generated_Source\PSoC5/CyDmac.c ****         CY_SET_REG16(convert, destination);
 525              		.loc 1 500 0
 526 0028 C280     		strh	r2, [r0, #6]	@ movhi
 527              	.LVL57:
 501:.\Generated_Source\PSoC5/CyDmac.c ****         status = CYRET_SUCCESS;
 528              		.loc 1 501 0
 529 002a 0020     		movs	r0, #0
 530              	.LVL58:
 531 002c 7047     		bx	lr
 532              	.LVL59:
 533              	.L57:
 473:.\Generated_Source\PSoC5/CyDmac.c ****     cystatus status = CYRET_BAD_PARAM;
 534              		.loc 1 473 0
 535 002e 0120     		movs	r0, #1
 536              	.LVL60:
 502:.\Generated_Source\PSoC5/CyDmac.c ****     }
 503:.\Generated_Source\PSoC5/CyDmac.c **** 
 504:.\Generated_Source\PSoC5/CyDmac.c ****     return(status);
 505:.\Generated_Source\PSoC5/CyDmac.c **** }
 537              		.loc 1 505 0
 538 0030 7047     		bx	lr
 539              		.cfi_endproc
 540              	.LFE10:
 541              		.size	CyDmaChSetExtendedAddress, .-CyDmaChSetExtendedAddress
 542 0032 00BF     		.section	.text.CyDmaChSetInitialTd,"ax",%progbits
 543              		.align	2
 544              		.global	CyDmaChSetInitialTd
 545              		.thumb
 546              		.thumb_func
 547              		.type	CyDmaChSetInitialTd, %function
 548              	CyDmaChSetInitialTd:
 549              	.LFB11:
 506:.\Generated_Source\PSoC5/CyDmac.c **** 
 507:.\Generated_Source\PSoC5/CyDmac.c **** 
 508:.\Generated_Source\PSoC5/CyDmac.c **** /*******************************************************************************
 509:.\Generated_Source\PSoC5/CyDmac.c **** * Function Name: CyDmaChSetInitialTd
 510:.\Generated_Source\PSoC5/CyDmac.c **** ********************************************************************************
 511:.\Generated_Source\PSoC5/CyDmac.c **** *
 512:.\Generated_Source\PSoC5/CyDmac.c **** * Summary:
 513:.\Generated_Source\PSoC5/CyDmac.c **** *  Sets the initial TD to be executed for the channel when the CyDmaChEnable()
 514:.\Generated_Source\PSoC5/CyDmac.c **** *  function is called.
 515:.\Generated_Source\PSoC5/CyDmac.c **** *
 516:.\Generated_Source\PSoC5/CyDmac.c **** * Parameters:
 517:.\Generated_Source\PSoC5/CyDmac.c **** *  uint8 chHandle:
 518:.\Generated_Source\PSoC5/CyDmac.c **** *   A handle previously returned by CyDmaChAlloc() or DMA_DmaInitialize().
 519:.\Generated_Source\PSoC5/CyDmac.c **** *
 520:.\Generated_Source\PSoC5/CyDmac.c **** *  uint8 startTd:
 521:.\Generated_Source\PSoC5/CyDmac.c **** *   Set the TD index as the first TD associated with the channel. Zero is
 522:.\Generated_Source\PSoC5/CyDmac.c **** *   a valid TD index.
 523:.\Generated_Source\PSoC5/CyDmac.c **** *
ARM GAS  C:\Users\mitchell\AppData\Local\Temp\ccmiv4HZ.s 			page 20


 524:.\Generated_Source\PSoC5/CyDmac.c **** * Return:
 525:.\Generated_Source\PSoC5/CyDmac.c **** *  CYRET_SUCCESS if successful.
 526:.\Generated_Source\PSoC5/CyDmac.c **** *  CYRET_BAD_PARAM if chHandle is invalid.
 527:.\Generated_Source\PSoC5/CyDmac.c **** *
 528:.\Generated_Source\PSoC5/CyDmac.c **** *******************************************************************************/
 529:.\Generated_Source\PSoC5/CyDmac.c **** cystatus CyDmaChSetInitialTd(uint8 chHandle, uint8 startTd) 
 530:.\Generated_Source\PSoC5/CyDmac.c **** {
 550              		.loc 1 530 0
 551              		.cfi_startproc
 552              		@ args = 0, pretend = 0, frame = 0
 553              		@ frame_needed = 0, uses_anonymous_args = 0
 554              		@ link register save eliminated.
 555              	.LVL61:
 531:.\Generated_Source\PSoC5/CyDmac.c ****     cystatus status = CYRET_BAD_PARAM;
 532:.\Generated_Source\PSoC5/CyDmac.c **** 
 533:.\Generated_Source\PSoC5/CyDmac.c ****     if(chHandle < CY_DMA_NUMBEROF_CHANNELS)
 556              		.loc 1 533 0
 557 0000 1728     		cmp	r0, #23
 558 0002 05D8     		bhi	.L60
 534:.\Generated_Source\PSoC5/CyDmac.c ****     {
 535:.\Generated_Source\PSoC5/CyDmac.c ****         CY_DMA_CH_STRUCT_PTR[chHandle].basic_status[1u] = startTd;
 559              		.loc 1 535 0
 560 0004 034B     		ldr	r3, .L61
 561 0006 03EB0010 		add	r0, r3, r0, lsl #4
 562              	.LVL62:
 563 000a 4172     		strb	r1, [r0, #9]
 564              	.LVL63:
 536:.\Generated_Source\PSoC5/CyDmac.c ****         status = CYRET_SUCCESS;
 565              		.loc 1 536 0
 566 000c 0020     		movs	r0, #0
 567 000e 7047     		bx	lr
 568              	.LVL64:
 569              	.L60:
 531:.\Generated_Source\PSoC5/CyDmac.c ****     cystatus status = CYRET_BAD_PARAM;
 570              		.loc 1 531 0
 571 0010 0120     		movs	r0, #1
 572              	.LVL65:
 537:.\Generated_Source\PSoC5/CyDmac.c ****     }
 538:.\Generated_Source\PSoC5/CyDmac.c **** 
 539:.\Generated_Source\PSoC5/CyDmac.c ****     return(status);
 540:.\Generated_Source\PSoC5/CyDmac.c **** }
 573              		.loc 1 540 0
 574 0012 7047     		bx	lr
 575              	.L62:
 576              		.align	2
 577              	.L61:
 578 0014 10700040 		.word	1073770512
 579              		.cfi_endproc
 580              	.LFE11:
 581              		.size	CyDmaChSetInitialTd, .-CyDmaChSetInitialTd
 582              		.section	.text.CyDmaChSetRequest,"ax",%progbits
 583              		.align	2
 584              		.global	CyDmaChSetRequest
 585              		.thumb
 586              		.thumb_func
 587              		.type	CyDmaChSetRequest, %function
 588              	CyDmaChSetRequest:
ARM GAS  C:\Users\mitchell\AppData\Local\Temp\ccmiv4HZ.s 			page 21


 589              	.LFB12:
 541:.\Generated_Source\PSoC5/CyDmac.c **** 
 542:.\Generated_Source\PSoC5/CyDmac.c **** 
 543:.\Generated_Source\PSoC5/CyDmac.c **** /*******************************************************************************
 544:.\Generated_Source\PSoC5/CyDmac.c **** * Function Name: CyDmaChSetRequest
 545:.\Generated_Source\PSoC5/CyDmac.c **** ********************************************************************************
 546:.\Generated_Source\PSoC5/CyDmac.c **** *
 547:.\Generated_Source\PSoC5/CyDmac.c **** * Summary:
 548:.\Generated_Source\PSoC5/CyDmac.c **** *  Allows the caller to terminate a chain of TDs, terminate one TD, or create a
 549:.\Generated_Source\PSoC5/CyDmac.c **** *  direct request to start the DMA channel.
 550:.\Generated_Source\PSoC5/CyDmac.c **** *
 551:.\Generated_Source\PSoC5/CyDmac.c **** * Parameters:
 552:.\Generated_Source\PSoC5/CyDmac.c **** *  uint8 chHandle:
 553:.\Generated_Source\PSoC5/CyDmac.c **** *   A handle previously returned by CyDmaChAlloc() or DMA_DmaInitalize().
 554:.\Generated_Source\PSoC5/CyDmac.c **** *
 555:.\Generated_Source\PSoC5/CyDmac.c **** *  uint8 request:
 556:.\Generated_Source\PSoC5/CyDmac.c **** *   One of the following constants. Each of the constants is a three-bit value.
 557:.\Generated_Source\PSoC5/CyDmac.c **** *
 558:.\Generated_Source\PSoC5/CyDmac.c **** *   CPU_REQ         - Create a direct request to start the DMA channel
 559:.\Generated_Source\PSoC5/CyDmac.c **** *   CPU_TERM_TD     - Terminate one TD
 560:.\Generated_Source\PSoC5/CyDmac.c **** *   CPU_TERM_CHAIN  - Terminate a chain of TDs
 561:.\Generated_Source\PSoC5/CyDmac.c **** *
 562:.\Generated_Source\PSoC5/CyDmac.c **** * Return:
 563:.\Generated_Source\PSoC5/CyDmac.c **** *  CYRET_SUCCESS if successful.
 564:.\Generated_Source\PSoC5/CyDmac.c **** *  CYRET_BAD_PARAM if chHandle is invalid.
 565:.\Generated_Source\PSoC5/CyDmac.c **** *
 566:.\Generated_Source\PSoC5/CyDmac.c **** *******************************************************************************/
 567:.\Generated_Source\PSoC5/CyDmac.c **** cystatus CyDmaChSetRequest(uint8 chHandle, uint8 request) 
 568:.\Generated_Source\PSoC5/CyDmac.c **** {
 590              		.loc 1 568 0
 591              		.cfi_startproc
 592              		@ args = 0, pretend = 0, frame = 0
 593              		@ frame_needed = 0, uses_anonymous_args = 0
 594              		@ link register save eliminated.
 595              	.LVL66:
 569:.\Generated_Source\PSoC5/CyDmac.c ****     cystatus status = CYRET_BAD_PARAM;
 570:.\Generated_Source\PSoC5/CyDmac.c **** 
 571:.\Generated_Source\PSoC5/CyDmac.c ****     if(chHandle < CY_DMA_NUMBEROF_CHANNELS)
 596              		.loc 1 571 0
 597 0000 1728     		cmp	r0, #23
 598 0002 09D8     		bhi	.L65
 572:.\Generated_Source\PSoC5/CyDmac.c ****     {
 573:.\Generated_Source\PSoC5/CyDmac.c ****         CY_DMA_CH_STRUCT_PTR[chHandle].action[0u] |= (request & (CPU_REQ | CPU_TERM_TD | CPU_TERM_C
 599              		.loc 1 573 0
 600 0004 054B     		ldr	r3, .L66
 601 0006 03EB0010 		add	r0, r3, r0, lsl #4
 602              	.LVL67:
 603 000a 0379     		ldrb	r3, [r0, #4]	@ zero_extendqisi2
 604 000c 01F00701 		and	r1, r1, #7
 605              	.LVL68:
 606 0010 1943     		orrs	r1, r1, r3
 607 0012 0171     		strb	r1, [r0, #4]
 608              	.LVL69:
 574:.\Generated_Source\PSoC5/CyDmac.c ****         status = CYRET_SUCCESS;
 609              		.loc 1 574 0
 610 0014 0020     		movs	r0, #0
 611 0016 7047     		bx	lr
ARM GAS  C:\Users\mitchell\AppData\Local\Temp\ccmiv4HZ.s 			page 22


 612              	.LVL70:
 613              	.L65:
 569:.\Generated_Source\PSoC5/CyDmac.c ****     cystatus status = CYRET_BAD_PARAM;
 614              		.loc 1 569 0
 615 0018 0120     		movs	r0, #1
 616              	.LVL71:
 575:.\Generated_Source\PSoC5/CyDmac.c ****     }
 576:.\Generated_Source\PSoC5/CyDmac.c **** 
 577:.\Generated_Source\PSoC5/CyDmac.c ****     return(status);
 578:.\Generated_Source\PSoC5/CyDmac.c **** }
 617              		.loc 1 578 0
 618 001a 7047     		bx	lr
 619              	.L67:
 620              		.align	2
 621              	.L66:
 622 001c 10700040 		.word	1073770512
 623              		.cfi_endproc
 624              	.LFE12:
 625              		.size	CyDmaChSetRequest, .-CyDmaChSetRequest
 626              		.section	.text.CyDmaChGetRequest,"ax",%progbits
 627              		.align	2
 628              		.global	CyDmaChGetRequest
 629              		.thumb
 630              		.thumb_func
 631              		.type	CyDmaChGetRequest, %function
 632              	CyDmaChGetRequest:
 633              	.LFB13:
 579:.\Generated_Source\PSoC5/CyDmac.c **** 
 580:.\Generated_Source\PSoC5/CyDmac.c **** 
 581:.\Generated_Source\PSoC5/CyDmac.c **** /*******************************************************************************
 582:.\Generated_Source\PSoC5/CyDmac.c **** * Function Name: CyDmaChGetRequest
 583:.\Generated_Source\PSoC5/CyDmac.c **** ********************************************************************************
 584:.\Generated_Source\PSoC5/CyDmac.c **** *
 585:.\Generated_Source\PSoC5/CyDmac.c **** * Summary:
 586:.\Generated_Source\PSoC5/CyDmac.c **** *  This function allows the caller of CyDmaChSetRequest() to determine if the
 587:.\Generated_Source\PSoC5/CyDmac.c **** *  request was completed.
 588:.\Generated_Source\PSoC5/CyDmac.c **** *
 589:.\Generated_Source\PSoC5/CyDmac.c **** * Parameters:
 590:.\Generated_Source\PSoC5/CyDmac.c **** *  uint8 chHandle:
 591:.\Generated_Source\PSoC5/CyDmac.c **** *   A handle previously returned by CyDmaChAlloc() or DMA_DmaInitalize().
 592:.\Generated_Source\PSoC5/CyDmac.c **** *
 593:.\Generated_Source\PSoC5/CyDmac.c **** * Return:
 594:.\Generated_Source\PSoC5/CyDmac.c **** *  Returns a three-bit field, corresponding to the three bits of the request,
 595:.\Generated_Source\PSoC5/CyDmac.c **** *  which describes the state of the previously posted request. If the value is
 596:.\Generated_Source\PSoC5/CyDmac.c **** *  zero, the request was completed. CY_DMA_INVALID_CHANNEL if the handle is
 597:.\Generated_Source\PSoC5/CyDmac.c **** *  invalid.
 598:.\Generated_Source\PSoC5/CyDmac.c **** *
 599:.\Generated_Source\PSoC5/CyDmac.c **** *******************************************************************************/
 600:.\Generated_Source\PSoC5/CyDmac.c **** cystatus CyDmaChGetRequest(uint8 chHandle) 
 601:.\Generated_Source\PSoC5/CyDmac.c **** {
 634              		.loc 1 601 0
 635              		.cfi_startproc
 636              		@ args = 0, pretend = 0, frame = 0
 637              		@ frame_needed = 0, uses_anonymous_args = 0
 638              		@ link register save eliminated.
 639              	.LVL72:
 602:.\Generated_Source\PSoC5/CyDmac.c ****     cystatus status = CY_DMA_INVALID_CHANNEL;
ARM GAS  C:\Users\mitchell\AppData\Local\Temp\ccmiv4HZ.s 			page 23


 603:.\Generated_Source\PSoC5/CyDmac.c **** 
 604:.\Generated_Source\PSoC5/CyDmac.c ****     if(chHandle < CY_DMA_NUMBEROF_CHANNELS)
 640              		.loc 1 604 0
 641 0000 1728     		cmp	r0, #23
 642 0002 06D8     		bhi	.L70
 605:.\Generated_Source\PSoC5/CyDmac.c ****     {
 606:.\Generated_Source\PSoC5/CyDmac.c ****         status = (cystatus) ((uint32)CY_DMA_CH_STRUCT_PTR[chHandle].action[0u] &
 643              		.loc 1 606 0
 644 0004 044B     		ldr	r3, .L71
 645 0006 03EB0010 		add	r0, r3, r0, lsl #4
 646              	.LVL73:
 647 000a 0079     		ldrb	r0, [r0, #4]	@ zero_extendqisi2
 648 000c 00F00700 		and	r0, r0, #7
 649              	.LVL74:
 650 0010 7047     		bx	lr
 651              	.LVL75:
 652              	.L70:
 602:.\Generated_Source\PSoC5/CyDmac.c ****     cystatus status = CY_DMA_INVALID_CHANNEL;
 653              		.loc 1 602 0
 654 0012 FF20     		movs	r0, #255
 655              	.LVL76:
 607:.\Generated_Source\PSoC5/CyDmac.c ****                             (uint32)(CY_DMA_CPU_REQ | CY_DMA_CPU_TERM_TD | CY_DMA_CPU_TERM_CHAIN));
 608:.\Generated_Source\PSoC5/CyDmac.c ****     }
 609:.\Generated_Source\PSoC5/CyDmac.c **** 
 610:.\Generated_Source\PSoC5/CyDmac.c ****     return(status);
 611:.\Generated_Source\PSoC5/CyDmac.c **** }
 656              		.loc 1 611 0
 657 0014 7047     		bx	lr
 658              	.L72:
 659 0016 00BF     		.align	2
 660              	.L71:
 661 0018 10700040 		.word	1073770512
 662              		.cfi_endproc
 663              	.LFE13:
 664              		.size	CyDmaChGetRequest, .-CyDmaChGetRequest
 665              		.section	.text.CyDmaChStatus,"ax",%progbits
 666              		.align	2
 667              		.global	CyDmaChStatus
 668              		.thumb
 669              		.thumb_func
 670              		.type	CyDmaChStatus, %function
 671              	CyDmaChStatus:
 672              	.LFB14:
 612:.\Generated_Source\PSoC5/CyDmac.c **** 
 613:.\Generated_Source\PSoC5/CyDmac.c **** 
 614:.\Generated_Source\PSoC5/CyDmac.c **** /*******************************************************************************
 615:.\Generated_Source\PSoC5/CyDmac.c **** * Function Name: CyDmaChStatus
 616:.\Generated_Source\PSoC5/CyDmac.c **** ********************************************************************************
 617:.\Generated_Source\PSoC5/CyDmac.c **** *
 618:.\Generated_Source\PSoC5/CyDmac.c **** * Summary:
 619:.\Generated_Source\PSoC5/CyDmac.c **** *  Determines the status of the DMA channel.
 620:.\Generated_Source\PSoC5/CyDmac.c **** *
 621:.\Generated_Source\PSoC5/CyDmac.c **** * Parameters:
 622:.\Generated_Source\PSoC5/CyDmac.c **** *  uint8 chHandle:
 623:.\Generated_Source\PSoC5/CyDmac.c **** *   A handle previously returned by CyDmaChAlloc() or DMA_DmaInitalize().
 624:.\Generated_Source\PSoC5/CyDmac.c **** *
 625:.\Generated_Source\PSoC5/CyDmac.c **** *  uint8 * currentTd:
ARM GAS  C:\Users\mitchell\AppData\Local\Temp\ccmiv4HZ.s 			page 24


 626:.\Generated_Source\PSoC5/CyDmac.c **** *   The address to store the index of the current TD. Can be NULL if the value
 627:.\Generated_Source\PSoC5/CyDmac.c **** *   is not needed.
 628:.\Generated_Source\PSoC5/CyDmac.c **** *
 629:.\Generated_Source\PSoC5/CyDmac.c **** *  uint8 * state:
 630:.\Generated_Source\PSoC5/CyDmac.c **** *   The address to store the state of the channel. Can be NULL if the value is
 631:.\Generated_Source\PSoC5/CyDmac.c **** *   not needed.
 632:.\Generated_Source\PSoC5/CyDmac.c **** *
 633:.\Generated_Source\PSoC5/CyDmac.c **** *   STATUS_TD_ACTIVE
 634:.\Generated_Source\PSoC5/CyDmac.c **** *    0: Channel is not currently being serviced by DMAC
 635:.\Generated_Source\PSoC5/CyDmac.c **** *    1: Channel is currently being serviced by DMAC
 636:.\Generated_Source\PSoC5/CyDmac.c **** *
 637:.\Generated_Source\PSoC5/CyDmac.c **** *   STATUS_CHAIN_ACTIVE
 638:.\Generated_Source\PSoC5/CyDmac.c **** *    0: TD chain is inactive; either no DMA requests have triggered a new chain
 639:.\Generated_Source\PSoC5/CyDmac.c **** *       or the previous chain has completed.
 640:.\Generated_Source\PSoC5/CyDmac.c **** *    1: TD chain has been triggered by a DMA request
 641:.\Generated_Source\PSoC5/CyDmac.c **** *
 642:.\Generated_Source\PSoC5/CyDmac.c **** * Return:
 643:.\Generated_Source\PSoC5/CyDmac.c **** *  CYRET_SUCCESS if successful.
 644:.\Generated_Source\PSoC5/CyDmac.c **** *  CYRET_BAD_PARAM if chHandle is invalid.
 645:.\Generated_Source\PSoC5/CyDmac.c **** *
 646:.\Generated_Source\PSoC5/CyDmac.c **** * Theory:
 647:.\Generated_Source\PSoC5/CyDmac.c **** *   The caller can check on the activity of the Current TD and the Chain.
 648:.\Generated_Source\PSoC5/CyDmac.c **** *
 649:.\Generated_Source\PSoC5/CyDmac.c **** *******************************************************************************/
 650:.\Generated_Source\PSoC5/CyDmac.c **** cystatus CyDmaChStatus(uint8 chHandle, uint8 * currentTd, uint8 * state) 
 651:.\Generated_Source\PSoC5/CyDmac.c **** {
 673              		.loc 1 651 0
 674              		.cfi_startproc
 675              		@ args = 0, pretend = 0, frame = 0
 676              		@ frame_needed = 0, uses_anonymous_args = 0
 677              		@ link register save eliminated.
 678              	.LVL77:
 652:.\Generated_Source\PSoC5/CyDmac.c ****     cystatus status = CYRET_BAD_PARAM;
 653:.\Generated_Source\PSoC5/CyDmac.c **** 
 654:.\Generated_Source\PSoC5/CyDmac.c ****     if(chHandle < CY_DMA_NUMBEROF_CHANNELS)
 679              		.loc 1 654 0
 680 0000 1728     		cmp	r0, #23
 681 0002 0FD8     		bhi	.L76
 655:.\Generated_Source\PSoC5/CyDmac.c ****     {
 656:.\Generated_Source\PSoC5/CyDmac.c ****         if(NULL != currentTd)
 682              		.loc 1 656 0
 683 0004 31B1     		cbz	r1, .L75
 657:.\Generated_Source\PSoC5/CyDmac.c ****         {
 658:.\Generated_Source\PSoC5/CyDmac.c ****             *currentTd = CY_DMA_CH_STRUCT_PTR[chHandle].basic_status[1] & 0x7Fu;
 684              		.loc 1 658 0
 685 0006 094B     		ldr	r3, .L78
 686 0008 03EB0013 		add	r3, r3, r0, lsl #4
 687 000c 5B7A     		ldrb	r3, [r3, #9]	@ zero_extendqisi2
 688 000e 03F07F03 		and	r3, r3, #127
 689 0012 0B70     		strb	r3, [r1]
 690              	.L75:
 659:.\Generated_Source\PSoC5/CyDmac.c ****         }
 660:.\Generated_Source\PSoC5/CyDmac.c **** 
 661:.\Generated_Source\PSoC5/CyDmac.c ****         if(NULL != state)
 691              		.loc 1 661 0
 692 0014 42B1     		cbz	r2, .L77
 662:.\Generated_Source\PSoC5/CyDmac.c ****         {
ARM GAS  C:\Users\mitchell\AppData\Local\Temp\ccmiv4HZ.s 			page 25


 663:.\Generated_Source\PSoC5/CyDmac.c ****             *state= CY_DMA_CH_STRUCT_PTR[chHandle].basic_status[0];
 693              		.loc 1 663 0
 694 0016 054B     		ldr	r3, .L78
 695 0018 03EB0010 		add	r0, r3, r0, lsl #4
 696              	.LVL78:
 697 001c 037A     		ldrb	r3, [r0, #8]	@ zero_extendqisi2
 698 001e 1370     		strb	r3, [r2]
 664:.\Generated_Source\PSoC5/CyDmac.c ****         }
 665:.\Generated_Source\PSoC5/CyDmac.c **** 
 666:.\Generated_Source\PSoC5/CyDmac.c ****         status = CYRET_SUCCESS;
 699              		.loc 1 666 0
 700 0020 0020     		movs	r0, #0
 701 0022 7047     		bx	lr
 702              	.LVL79:
 703              	.L76:
 652:.\Generated_Source\PSoC5/CyDmac.c ****     cystatus status = CYRET_BAD_PARAM;
 704              		.loc 1 652 0
 705 0024 0120     		movs	r0, #1
 706              	.LVL80:
 707 0026 7047     		bx	lr
 708              	.LVL81:
 709              	.L77:
 710              		.loc 1 666 0
 711 0028 0020     		movs	r0, #0
 712              	.LVL82:
 667:.\Generated_Source\PSoC5/CyDmac.c ****     }
 668:.\Generated_Source\PSoC5/CyDmac.c **** 
 669:.\Generated_Source\PSoC5/CyDmac.c ****     return (status);
 670:.\Generated_Source\PSoC5/CyDmac.c **** }
 713              		.loc 1 670 0
 714 002a 7047     		bx	lr
 715              	.L79:
 716              		.align	2
 717              	.L78:
 718 002c 10700040 		.word	1073770512
 719              		.cfi_endproc
 720              	.LFE14:
 721              		.size	CyDmaChStatus, .-CyDmaChStatus
 722              		.section	.text.CyDmaChSetConfiguration,"ax",%progbits
 723              		.align	2
 724              		.global	CyDmaChSetConfiguration
 725              		.thumb
 726              		.thumb_func
 727              		.type	CyDmaChSetConfiguration, %function
 728              	CyDmaChSetConfiguration:
 729              	.LFB15:
 671:.\Generated_Source\PSoC5/CyDmac.c **** 
 672:.\Generated_Source\PSoC5/CyDmac.c **** 
 673:.\Generated_Source\PSoC5/CyDmac.c **** /*******************************************************************************
 674:.\Generated_Source\PSoC5/CyDmac.c **** * Function Name: CyDmaChSetConfiguration
 675:.\Generated_Source\PSoC5/CyDmac.c **** ********************************************************************************
 676:.\Generated_Source\PSoC5/CyDmac.c **** *
 677:.\Generated_Source\PSoC5/CyDmac.c **** * Summary:
 678:.\Generated_Source\PSoC5/CyDmac.c **** * Sets configuration information of the channel.
 679:.\Generated_Source\PSoC5/CyDmac.c **** *
 680:.\Generated_Source\PSoC5/CyDmac.c **** * Parameters:
 681:.\Generated_Source\PSoC5/CyDmac.c **** *  uint8 chHandle:
ARM GAS  C:\Users\mitchell\AppData\Local\Temp\ccmiv4HZ.s 			page 26


 682:.\Generated_Source\PSoC5/CyDmac.c **** *   A handle previously returned by CyDmaChAlloc() or DMA_DmaInitialize().
 683:.\Generated_Source\PSoC5/CyDmac.c **** *
 684:.\Generated_Source\PSoC5/CyDmac.c **** *  uint8 burstCount:
 685:.\Generated_Source\PSoC5/CyDmac.c **** *   Specifies the size of bursts (1 to 127) the data transfer should be divided
 686:.\Generated_Source\PSoC5/CyDmac.c **** *   into. If this value is zero then the whole transfer is done in one burst.
 687:.\Generated_Source\PSoC5/CyDmac.c **** *
 688:.\Generated_Source\PSoC5/CyDmac.c **** *  uint8 requestPerBurst:
 689:.\Generated_Source\PSoC5/CyDmac.c **** *   The whole of the data can be split into multiple bursts, if this is
 690:.\Generated_Source\PSoC5/CyDmac.c **** *   required to complete the transaction:
 691:.\Generated_Source\PSoC5/CyDmac.c **** *    0: All subsequent bursts after the first burst will be automatically
 692:.\Generated_Source\PSoC5/CyDmac.c **** *       requested and carried out
 693:.\Generated_Source\PSoC5/CyDmac.c **** *    1: All subsequent bursts after the first burst must also be individually
 694:.\Generated_Source\PSoC5/CyDmac.c **** *       requested.
 695:.\Generated_Source\PSoC5/CyDmac.c **** *
 696:.\Generated_Source\PSoC5/CyDmac.c **** *  uint8 tdDone0:
 697:.\Generated_Source\PSoC5/CyDmac.c **** *   Selects one of the TERMOUT0 interrupt lines to signal completion. The line
 698:.\Generated_Source\PSoC5/CyDmac.c **** *   connected to the nrq terminal will determine the TERMOUT0_SEL definition and
 699:.\Generated_Source\PSoC5/CyDmac.c **** *   should be used as supplied by cyfitter.h
 700:.\Generated_Source\PSoC5/CyDmac.c **** *
 701:.\Generated_Source\PSoC5/CyDmac.c **** *  uint8 tdDone1:
 702:.\Generated_Source\PSoC5/CyDmac.c **** *   Selects one of the TERMOUT1 interrupt lines to signal completion. The line
 703:.\Generated_Source\PSoC5/CyDmac.c **** *   connected to the nrq terminal will determine the TERMOUT1_SEL definition and
 704:.\Generated_Source\PSoC5/CyDmac.c **** *   should be used as supplied by cyfitter.h
 705:.\Generated_Source\PSoC5/CyDmac.c **** *
 706:.\Generated_Source\PSoC5/CyDmac.c **** *  uint8 tdStop:
 707:.\Generated_Source\PSoC5/CyDmac.c **** *   Selects one of the TERMIN interrupt lines to signal to the DMAC that the TD
 708:.\Generated_Source\PSoC5/CyDmac.c **** *   should terminate. The signal connected to the trq terminal will determine
 709:.\Generated_Source\PSoC5/CyDmac.c **** *   which TERMIN (termination request) is used.
 710:.\Generated_Source\PSoC5/CyDmac.c **** *
 711:.\Generated_Source\PSoC5/CyDmac.c **** * Return:
 712:.\Generated_Source\PSoC5/CyDmac.c **** *  CYRET_SUCCESS if successful.
 713:.\Generated_Source\PSoC5/CyDmac.c **** *  CYRET_BAD_PARAM if chHandle is invalid.
 714:.\Generated_Source\PSoC5/CyDmac.c **** *
 715:.\Generated_Source\PSoC5/CyDmac.c **** *******************************************************************************/
 716:.\Generated_Source\PSoC5/CyDmac.c **** cystatus CyDmaChSetConfiguration(uint8 chHandle, uint8 burstCount, uint8 requestPerBurst,
 717:.\Generated_Source\PSoC5/CyDmac.c ****                                  uint8 tdDone0, uint8 tdDone1, uint8 tdStop) 
 718:.\Generated_Source\PSoC5/CyDmac.c **** {
 730              		.loc 1 718 0
 731              		.cfi_startproc
 732              		@ args = 8, pretend = 0, frame = 0
 733              		@ frame_needed = 0, uses_anonymous_args = 0
 734              		@ link register save eliminated.
 735              	.LVL83:
 736 0000 10B4     		push	{r4}
 737              		.cfi_def_cfa_offset 4
 738              		.cfi_offset 4, -4
 739              	.LVL84:
 719:.\Generated_Source\PSoC5/CyDmac.c ****     cystatus status = CYRET_BAD_PARAM;
 720:.\Generated_Source\PSoC5/CyDmac.c **** 
 721:.\Generated_Source\PSoC5/CyDmac.c ****     if(chHandle < CY_DMA_NUMBEROF_CHANNELS)
 740              		.loc 1 721 0
 741 0002 1728     		cmp	r0, #23
 742 0004 1AD8     		bhi	.L82
 722:.\Generated_Source\PSoC5/CyDmac.c ****     {
 723:.\Generated_Source\PSoC5/CyDmac.c ****         CY_DMA_CFGMEM_STRUCT_PTR[chHandle].CFG0[0] = (burstCount & 0x7Fu) | ((uint8)((requestPerBur
 743              		.loc 1 723 0
 744 0006 C400     		lsls	r4, r0, #3
ARM GAS  C:\Users\mitchell\AppData\Local\Temp\ccmiv4HZ.s 			page 27


 745 0008 04F18044 		add	r4, r4, #1073741824
 746 000c 04F5EC44 		add	r4, r4, #30208
 747 0010 D201     		lsls	r2, r2, #7
 748              	.LVL85:
 749 0012 D2B2     		uxtb	r2, r2
 750 0014 01F07F01 		and	r1, r1, #127
 751              	.LVL86:
 752 0018 1143     		orrs	r1, r1, r2
 753 001a 2170     		strb	r1, [r4]
 724:.\Generated_Source\PSoC5/CyDmac.c ****         CY_DMA_CFGMEM_STRUCT_PTR[chHandle].CFG0[1] = ((uint8)((tdDone1 & 0xFu) << 4u)) | (tdDone0 &
 754              		.loc 1 724 0
 755 001c 9DF80420 		ldrb	r2, [sp, #4]	@ zero_extendqisi2
 756 0020 1201     		lsls	r2, r2, #4
 757 0022 D2B2     		uxtb	r2, r2
 758 0024 03F00F03 		and	r3, r3, #15
 759              	.LVL87:
 760 0028 1343     		orrs	r3, r3, r2
 761 002a 6370     		strb	r3, [r4, #1]
 725:.\Generated_Source\PSoC5/CyDmac.c ****         CY_DMA_CFGMEM_STRUCT_PTR[chHandle].CFG0[2] = 0x0Fu & tdStop;
 762              		.loc 1 725 0
 763 002c 9DF80830 		ldrb	r3, [sp, #8]	@ zero_extendqisi2
 764 0030 03F00F03 		and	r3, r3, #15
 765 0034 A370     		strb	r3, [r4, #2]
 726:.\Generated_Source\PSoC5/CyDmac.c ****         CY_DMA_CFGMEM_STRUCT_PTR[chHandle].CFG0[3] = 0u; /* burstcount_remain. */
 766              		.loc 1 726 0
 767 0036 0020     		movs	r0, #0
 768              	.LVL88:
 769 0038 E070     		strb	r0, [r4, #3]
 770              	.LVL89:
 771 003a 00E0     		b	.L81
 772              	.LVL90:
 773              	.L82:
 719:.\Generated_Source\PSoC5/CyDmac.c ****     cystatus status = CYRET_BAD_PARAM;
 774              		.loc 1 719 0
 775 003c 0120     		movs	r0, #1
 776              	.LVL91:
 777              	.L81:
 727:.\Generated_Source\PSoC5/CyDmac.c **** 
 728:.\Generated_Source\PSoC5/CyDmac.c ****         status = CYRET_SUCCESS;
 729:.\Generated_Source\PSoC5/CyDmac.c ****     }
 730:.\Generated_Source\PSoC5/CyDmac.c **** 
 731:.\Generated_Source\PSoC5/CyDmac.c ****     return (status);
 732:.\Generated_Source\PSoC5/CyDmac.c **** }
 778              		.loc 1 732 0
 779 003e 5DF8044B 		ldr	r4, [sp], #4
 780 0042 7047     		bx	lr
 781              		.cfi_endproc
 782              	.LFE15:
 783              		.size	CyDmaChSetConfiguration, .-CyDmaChSetConfiguration
 784              		.section	.text.CyDmaTdAllocate,"ax",%progbits
 785              		.align	2
 786              		.global	CyDmaTdAllocate
 787              		.thumb
 788              		.thumb_func
 789              		.type	CyDmaTdAllocate, %function
 790              	CyDmaTdAllocate:
 791              	.LFB16:
ARM GAS  C:\Users\mitchell\AppData\Local\Temp\ccmiv4HZ.s 			page 28


 733:.\Generated_Source\PSoC5/CyDmac.c **** 
 734:.\Generated_Source\PSoC5/CyDmac.c **** 
 735:.\Generated_Source\PSoC5/CyDmac.c **** /*******************************************************************************
 736:.\Generated_Source\PSoC5/CyDmac.c **** * Function Name: CyDmaTdAllocate
 737:.\Generated_Source\PSoC5/CyDmac.c **** ********************************************************************************
 738:.\Generated_Source\PSoC5/CyDmac.c **** *
 739:.\Generated_Source\PSoC5/CyDmac.c **** * Summary:
 740:.\Generated_Source\PSoC5/CyDmac.c **** *  Allocates a TD for use with an allocated DMA channel.
 741:.\Generated_Source\PSoC5/CyDmac.c **** *
 742:.\Generated_Source\PSoC5/CyDmac.c **** * Parameters:
 743:.\Generated_Source\PSoC5/CyDmac.c **** *  None
 744:.\Generated_Source\PSoC5/CyDmac.c **** *
 745:.\Generated_Source\PSoC5/CyDmac.c **** * Return:
 746:.\Generated_Source\PSoC5/CyDmac.c **** *  Zero-based index of the TD to be used by the caller. Since there are 128 TDs
 747:.\Generated_Source\PSoC5/CyDmac.c **** *  minus the reserved TDs (0 to 23), the value returned would range from 24 to
 748:.\Generated_Source\PSoC5/CyDmac.c **** *  127 not 24 to 128. DMA_INVALID_TD is returned if there are no free TDs
 749:.\Generated_Source\PSoC5/CyDmac.c **** *  available.
 750:.\Generated_Source\PSoC5/CyDmac.c **** *
 751:.\Generated_Source\PSoC5/CyDmac.c **** *******************************************************************************/
 752:.\Generated_Source\PSoC5/CyDmac.c **** uint8 CyDmaTdAllocate(void) 
 753:.\Generated_Source\PSoC5/CyDmac.c **** {
 792              		.loc 1 753 0
 793              		.cfi_startproc
 794              		@ args = 0, pretend = 0, frame = 0
 795              		@ frame_needed = 0, uses_anonymous_args = 0
 796 0000 10B5     		push	{r4, lr}
 797              		.cfi_def_cfa_offset 8
 798              		.cfi_offset 4, -8
 799              		.cfi_offset 14, -4
 800              	.LVL92:
 754:.\Generated_Source\PSoC5/CyDmac.c ****     uint8 interruptState;
 755:.\Generated_Source\PSoC5/CyDmac.c ****     uint8 element = CY_DMA_INVALID_TD;
 756:.\Generated_Source\PSoC5/CyDmac.c **** 
 757:.\Generated_Source\PSoC5/CyDmac.c ****     /* Enter critical section! */
 758:.\Generated_Source\PSoC5/CyDmac.c ****     interruptState = CyEnterCriticalSection();
 801              		.loc 1 758 0
 802 0002 FFF7FEFF 		bl	CyEnterCriticalSection
 803              	.LVL93:
 759:.\Generated_Source\PSoC5/CyDmac.c **** 
 760:.\Generated_Source\PSoC5/CyDmac.c ****     if(CyDmaTdCurrentNumber > NUMBEROF_CHANNELS)
 804              		.loc 1 760 0
 805 0006 0A4B     		ldr	r3, .L86
 806 0008 5B78     		ldrb	r3, [r3, #1]	@ zero_extendqisi2
 807 000a 182B     		cmp	r3, #24
 808 000c 0BD9     		bls	.L85
 761:.\Generated_Source\PSoC5/CyDmac.c ****     {
 762:.\Generated_Source\PSoC5/CyDmac.c ****         /* Get pointer to Next available. */
 763:.\Generated_Source\PSoC5/CyDmac.c ****         element = CyDmaTdFreeIndex;
 809              		.loc 1 763 0
 810 000e 084A     		ldr	r2, .L86
 811 0010 1478     		ldrb	r4, [r2]	@ zero_extendqisi2
 812              	.LVL94:
 764:.\Generated_Source\PSoC5/CyDmac.c **** 
 765:.\Generated_Source\PSoC5/CyDmac.c ****         /* Decrement the count. */
 766:.\Generated_Source\PSoC5/CyDmac.c ****         CyDmaTdCurrentNumber--;
 813              		.loc 1 766 0
 814 0012 013B     		subs	r3, r3, #1
ARM GAS  C:\Users\mitchell\AppData\Local\Temp\ccmiv4HZ.s 			page 29


 815 0014 5370     		strb	r3, [r2, #1]
 767:.\Generated_Source\PSoC5/CyDmac.c **** 
 768:.\Generated_Source\PSoC5/CyDmac.c ****         /* Update next available pointer. */
 769:.\Generated_Source\PSoC5/CyDmac.c ****         CyDmaTdFreeIndex = CY_DMA_TDMEM_STRUCT_PTR[element].TD0[0];
 816              		.loc 1 769 0
 817 0016 E300     		lsls	r3, r4, #3
 818 0018 03F18043 		add	r3, r3, #1073741824
 819 001c 03F5F043 		add	r3, r3, #30720
 820 0020 1B78     		ldrb	r3, [r3]	@ zero_extendqisi2
 821 0022 1370     		strb	r3, [r2]
 822 0024 00E0     		b	.L84
 823              	.LVL95:
 824              	.L85:
 755:.\Generated_Source\PSoC5/CyDmac.c ****     uint8 element = CY_DMA_INVALID_TD;
 825              		.loc 1 755 0
 826 0026 FF24     		movs	r4, #255
 827              	.LVL96:
 828              	.L84:
 770:.\Generated_Source\PSoC5/CyDmac.c ****     }
 771:.\Generated_Source\PSoC5/CyDmac.c **** 
 772:.\Generated_Source\PSoC5/CyDmac.c ****     /* Exit critical section! */
 773:.\Generated_Source\PSoC5/CyDmac.c ****     CyExitCriticalSection(interruptState);
 829              		.loc 1 773 0
 830 0028 FFF7FEFF 		bl	CyExitCriticalSection
 831              	.LVL97:
 774:.\Generated_Source\PSoC5/CyDmac.c **** 
 775:.\Generated_Source\PSoC5/CyDmac.c ****     return(element);
 776:.\Generated_Source\PSoC5/CyDmac.c **** }
 832              		.loc 1 776 0
 833 002c 2046     		mov	r0, r4
 834 002e 10BD     		pop	{r4, pc}
 835              	.LVL98:
 836              	.L87:
 837              		.align	2
 838              	.L86:
 839 0030 00000000 		.word	.LANCHOR0
 840              		.cfi_endproc
 841              	.LFE16:
 842              		.size	CyDmaTdAllocate, .-CyDmaTdAllocate
 843              		.section	.text.CyDmaTdFree,"ax",%progbits
 844              		.align	2
 845              		.global	CyDmaTdFree
 846              		.thumb
 847              		.thumb_func
 848              		.type	CyDmaTdFree, %function
 849              	CyDmaTdFree:
 850              	.LFB17:
 777:.\Generated_Source\PSoC5/CyDmac.c **** 
 778:.\Generated_Source\PSoC5/CyDmac.c **** 
 779:.\Generated_Source\PSoC5/CyDmac.c **** /*******************************************************************************
 780:.\Generated_Source\PSoC5/CyDmac.c **** * Function Name: CyDmaTdFree
 781:.\Generated_Source\PSoC5/CyDmac.c **** ********************************************************************************
 782:.\Generated_Source\PSoC5/CyDmac.c **** *
 783:.\Generated_Source\PSoC5/CyDmac.c **** * Summary:
 784:.\Generated_Source\PSoC5/CyDmac.c **** *  Returns a TD to the free list.
 785:.\Generated_Source\PSoC5/CyDmac.c **** *
 786:.\Generated_Source\PSoC5/CyDmac.c **** * Parameters:
ARM GAS  C:\Users\mitchell\AppData\Local\Temp\ccmiv4HZ.s 			page 30


 787:.\Generated_Source\PSoC5/CyDmac.c **** *  uint8 tdHandle:
 788:.\Generated_Source\PSoC5/CyDmac.c **** *   The TD handle returned by the CyDmaTdAllocate().
 789:.\Generated_Source\PSoC5/CyDmac.c **** *
 790:.\Generated_Source\PSoC5/CyDmac.c **** * Return:
 791:.\Generated_Source\PSoC5/CyDmac.c **** *  None
 792:.\Generated_Source\PSoC5/CyDmac.c **** *
 793:.\Generated_Source\PSoC5/CyDmac.c **** *******************************************************************************/
 794:.\Generated_Source\PSoC5/CyDmac.c **** void CyDmaTdFree(uint8 tdHandle) 
 795:.\Generated_Source\PSoC5/CyDmac.c **** {
 851              		.loc 1 795 0
 852              		.cfi_startproc
 853              		@ args = 0, pretend = 0, frame = 0
 854              		@ frame_needed = 0, uses_anonymous_args = 0
 855              	.LVL99:
 856 0000 10B5     		push	{r4, lr}
 857              		.cfi_def_cfa_offset 8
 858              		.cfi_offset 4, -8
 859              		.cfi_offset 14, -4
 860 0002 0446     		mov	r4, r0
 796:.\Generated_Source\PSoC5/CyDmac.c ****     if(tdHandle < CY_DMA_NUMBEROF_TDS)
 861              		.loc 1 796 0
 862 0004 10F0800F 		tst	r0, #128
 863 0008 0FD1     		bne	.L88
 864              	.LBB2:
 797:.\Generated_Source\PSoC5/CyDmac.c ****     {
 798:.\Generated_Source\PSoC5/CyDmac.c ****         /* Enter critical section! */
 799:.\Generated_Source\PSoC5/CyDmac.c ****         uint8 interruptState = CyEnterCriticalSection();
 865              		.loc 1 799 0
 866 000a FFF7FEFF 		bl	CyEnterCriticalSection
 867              	.LVL100:
 800:.\Generated_Source\PSoC5/CyDmac.c **** 
 801:.\Generated_Source\PSoC5/CyDmac.c ****         /* Get pointer to Next available. */
 802:.\Generated_Source\PSoC5/CyDmac.c ****         CY_DMA_TDMEM_STRUCT_PTR[tdHandle].TD0[0u] = CyDmaTdFreeIndex;
 868              		.loc 1 802 0
 869 000e E200     		lsls	r2, r4, #3
 870 0010 02F18042 		add	r2, r2, #1073741824
 871 0014 02F5F042 		add	r2, r2, #30720
 872 0018 044B     		ldr	r3, .L90
 873 001a 1978     		ldrb	r1, [r3]	@ zero_extendqisi2
 874 001c 1170     		strb	r1, [r2]
 803:.\Generated_Source\PSoC5/CyDmac.c **** 
 804:.\Generated_Source\PSoC5/CyDmac.c ****         /* Set new Next Available. */
 805:.\Generated_Source\PSoC5/CyDmac.c ****         CyDmaTdFreeIndex = tdHandle;
 875              		.loc 1 805 0
 876 001e 1C70     		strb	r4, [r3]
 806:.\Generated_Source\PSoC5/CyDmac.c **** 
 807:.\Generated_Source\PSoC5/CyDmac.c ****         /* Keep track of how many left. */
 808:.\Generated_Source\PSoC5/CyDmac.c ****         CyDmaTdCurrentNumber++;
 877              		.loc 1 808 0
 878 0020 5A78     		ldrb	r2, [r3, #1]	@ zero_extendqisi2
 879 0022 0132     		adds	r2, r2, #1
 880 0024 5A70     		strb	r2, [r3, #1]
 809:.\Generated_Source\PSoC5/CyDmac.c **** 
 810:.\Generated_Source\PSoC5/CyDmac.c ****         /* Exit critical section! */
 811:.\Generated_Source\PSoC5/CyDmac.c ****         CyExitCriticalSection(interruptState);
 881              		.loc 1 811 0
 882 0026 FFF7FEFF 		bl	CyExitCriticalSection
ARM GAS  C:\Users\mitchell\AppData\Local\Temp\ccmiv4HZ.s 			page 31


 883              	.LVL101:
 884              	.L88:
 885 002a 10BD     		pop	{r4, pc}
 886              	.L91:
 887              		.align	2
 888              	.L90:
 889 002c 00000000 		.word	.LANCHOR0
 890              	.LBE2:
 891              		.cfi_endproc
 892              	.LFE17:
 893              		.size	CyDmaTdFree, .-CyDmaTdFree
 894              		.section	.text.CyDmaTdFreeCount,"ax",%progbits
 895              		.align	2
 896              		.global	CyDmaTdFreeCount
 897              		.thumb
 898              		.thumb_func
 899              		.type	CyDmaTdFreeCount, %function
 900              	CyDmaTdFreeCount:
 901              	.LFB18:
 812:.\Generated_Source\PSoC5/CyDmac.c ****     }
 813:.\Generated_Source\PSoC5/CyDmac.c **** }
 814:.\Generated_Source\PSoC5/CyDmac.c **** 
 815:.\Generated_Source\PSoC5/CyDmac.c **** 
 816:.\Generated_Source\PSoC5/CyDmac.c **** /*******************************************************************************
 817:.\Generated_Source\PSoC5/CyDmac.c **** * Function Name: CyDmaTdFreeCount
 818:.\Generated_Source\PSoC5/CyDmac.c **** ********************************************************************************
 819:.\Generated_Source\PSoC5/CyDmac.c **** *
 820:.\Generated_Source\PSoC5/CyDmac.c **** * Summary:
 821:.\Generated_Source\PSoC5/CyDmac.c **** *  Returns the number of free TDs available to be allocated.
 822:.\Generated_Source\PSoC5/CyDmac.c **** *
 823:.\Generated_Source\PSoC5/CyDmac.c **** * Parameters:
 824:.\Generated_Source\PSoC5/CyDmac.c **** *  None
 825:.\Generated_Source\PSoC5/CyDmac.c **** *
 826:.\Generated_Source\PSoC5/CyDmac.c **** * Return:
 827:.\Generated_Source\PSoC5/CyDmac.c **** *  The number of free TDs.
 828:.\Generated_Source\PSoC5/CyDmac.c **** *
 829:.\Generated_Source\PSoC5/CyDmac.c **** *******************************************************************************/
 830:.\Generated_Source\PSoC5/CyDmac.c **** uint8 CyDmaTdFreeCount(void) 
 831:.\Generated_Source\PSoC5/CyDmac.c **** {
 902              		.loc 1 831 0
 903              		.cfi_startproc
 904              		@ args = 0, pretend = 0, frame = 0
 905              		@ frame_needed = 0, uses_anonymous_args = 0
 906              		@ link register save eliminated.
 832:.\Generated_Source\PSoC5/CyDmac.c ****     return(CyDmaTdCurrentNumber - CY_DMA_NUMBEROF_CHANNELS);
 907              		.loc 1 832 0
 908 0000 024B     		ldr	r3, .L93
 909 0002 5878     		ldrb	r0, [r3, #1]	@ zero_extendqisi2
 910 0004 1838     		subs	r0, r0, #24
 833:.\Generated_Source\PSoC5/CyDmac.c **** }
 911              		.loc 1 833 0
 912 0006 C0B2     		uxtb	r0, r0
 913 0008 7047     		bx	lr
 914              	.L94:
 915 000a 00BF     		.align	2
 916              	.L93:
 917 000c 00000000 		.word	.LANCHOR0
ARM GAS  C:\Users\mitchell\AppData\Local\Temp\ccmiv4HZ.s 			page 32


 918              		.cfi_endproc
 919              	.LFE18:
 920              		.size	CyDmaTdFreeCount, .-CyDmaTdFreeCount
 921              		.section	.text.CyDmaTdSetConfiguration,"ax",%progbits
 922              		.align	2
 923              		.global	CyDmaTdSetConfiguration
 924              		.thumb
 925              		.thumb_func
 926              		.type	CyDmaTdSetConfiguration, %function
 927              	CyDmaTdSetConfiguration:
 928              	.LFB19:
 834:.\Generated_Source\PSoC5/CyDmac.c **** 
 835:.\Generated_Source\PSoC5/CyDmac.c **** 
 836:.\Generated_Source\PSoC5/CyDmac.c **** /*******************************************************************************
 837:.\Generated_Source\PSoC5/CyDmac.c **** * Function Name: CyDmaTdSetConfiguration
 838:.\Generated_Source\PSoC5/CyDmac.c **** ********************************************************************************
 839:.\Generated_Source\PSoC5/CyDmac.c **** *
 840:.\Generated_Source\PSoC5/CyDmac.c **** * Summary:
 841:.\Generated_Source\PSoC5/CyDmac.c **** *  Configures the TD.
 842:.\Generated_Source\PSoC5/CyDmac.c **** *
 843:.\Generated_Source\PSoC5/CyDmac.c **** * Parameters:
 844:.\Generated_Source\PSoC5/CyDmac.c **** *  uint8 tdHandle:
 845:.\Generated_Source\PSoC5/CyDmac.c **** *   A handle previously returned by CyDmaTdAlloc().
 846:.\Generated_Source\PSoC5/CyDmac.c **** *
 847:.\Generated_Source\PSoC5/CyDmac.c **** *  uint16 transferCount:
 848:.\Generated_Source\PSoC5/CyDmac.c **** *   The size of the data transfer (in bytes) for this TD. A size of zero will
 849:.\Generated_Source\PSoC5/CyDmac.c **** *   cause the transfer to continue indefinitely. This parameter is limited to
 850:.\Generated_Source\PSoC5/CyDmac.c **** *   4095 bytes; the TD is not initialized at all when a higher value is passed.
 851:.\Generated_Source\PSoC5/CyDmac.c **** *
 852:.\Generated_Source\PSoC5/CyDmac.c **** *  uint8 nextTd:
 853:.\Generated_Source\PSoC5/CyDmac.c **** *   Zero based index of the next Transfer Descriptor in the TD chain. Zero is a
 854:.\Generated_Source\PSoC5/CyDmac.c **** *   valid pointer to the next TD; DMA_END_CHAIN_TD is the end of the chain.
 855:.\Generated_Source\PSoC5/CyDmac.c **** *   DMA_DISABLE_TD indicates an end to the chain and the DMA is disabled. No
 856:.\Generated_Source\PSoC5/CyDmac.c **** *   further TDs are fetched. DMA_DISABLE_TD is only supported on PSoC3 and
 857:.\Generated_Source\PSoC5/CyDmac.c **** *   PSoC 5LP silicons.
 858:.\Generated_Source\PSoC5/CyDmac.c **** *
 859:.\Generated_Source\PSoC5/CyDmac.c **** *  uint8 configuration:
 860:.\Generated_Source\PSoC5/CyDmac.c **** *   Stores the Bit field of configuration bits.
 861:.\Generated_Source\PSoC5/CyDmac.c **** *
 862:.\Generated_Source\PSoC5/CyDmac.c **** *   CY_DMA_TD_SWAP_EN        - Perform endian swap
 863:.\Generated_Source\PSoC5/CyDmac.c **** *
 864:.\Generated_Source\PSoC5/CyDmac.c **** *   CY_DMA_TD_SWAP_SIZE4     - Swap size = 4 bytes
 865:.\Generated_Source\PSoC5/CyDmac.c **** *
 866:.\Generated_Source\PSoC5/CyDmac.c **** *   CY_DMA_TD_AUTO_EXEC_NEXT - The next TD in the chain will trigger
 867:.\Generated_Source\PSoC5/CyDmac.c **** *                              automatically when the current TD completes.
 868:.\Generated_Source\PSoC5/CyDmac.c **** *
 869:.\Generated_Source\PSoC5/CyDmac.c **** *   CY_DMA_TD_TERMIN_EN      - Terminate this TD if a positive edge on the trq
 870:.\Generated_Source\PSoC5/CyDmac.c **** *                              input line occurs. The positive edge must occur
 871:.\Generated_Source\PSoC5/CyDmac.c **** *                              during a burst. That is the only time the DMAC
 872:.\Generated_Source\PSoC5/CyDmac.c **** *                              will listen for it.
 873:.\Generated_Source\PSoC5/CyDmac.c **** *
 874:.\Generated_Source\PSoC5/CyDmac.c **** *   DMA__TD_TERMOUT_EN       - When this TD completes, the TERMOUT signal will
 875:.\Generated_Source\PSoC5/CyDmac.c **** *                              generate a pulse. Note that this option is
 876:.\Generated_Source\PSoC5/CyDmac.c **** *                              instance specific with the instance name followed
 877:.\Generated_Source\PSoC5/CyDmac.c **** *                              by two underscores. In this example, the instance
 878:.\Generated_Source\PSoC5/CyDmac.c **** *                              name is DMA.
 879:.\Generated_Source\PSoC5/CyDmac.c **** *
ARM GAS  C:\Users\mitchell\AppData\Local\Temp\ccmiv4HZ.s 			page 33


 880:.\Generated_Source\PSoC5/CyDmac.c **** *   CY_DMA_TD_INC_DST_ADR    - Increment DST_ADR according to the size of each
 881:.\Generated_Source\PSoC5/CyDmac.c **** *                              data transaction in the burst.
 882:.\Generated_Source\PSoC5/CyDmac.c **** *
 883:.\Generated_Source\PSoC5/CyDmac.c **** *   CY_DMA_TD_INC_SRC_ADR    - Increment SRC_ADR according to the size of each
 884:.\Generated_Source\PSoC5/CyDmac.c **** *                              data transaction in the burst.
 885:.\Generated_Source\PSoC5/CyDmac.c **** *
 886:.\Generated_Source\PSoC5/CyDmac.c **** * Return:
 887:.\Generated_Source\PSoC5/CyDmac.c **** *  CYRET_SUCCESS if successful.
 888:.\Generated_Source\PSoC5/CyDmac.c **** *  CYRET_BAD_PARAM if tdHandle or transferCount is invalid.
 889:.\Generated_Source\PSoC5/CyDmac.c **** *
 890:.\Generated_Source\PSoC5/CyDmac.c **** *******************************************************************************/
 891:.\Generated_Source\PSoC5/CyDmac.c **** cystatus CyDmaTdSetConfiguration(uint8 tdHandle, uint16 transferCount, uint8 nextTd, uint8 configur
 892:.\Generated_Source\PSoC5/CyDmac.c ****     
 893:.\Generated_Source\PSoC5/CyDmac.c **** {
 929              		.loc 1 893 0
 930              		.cfi_startproc
 931              		@ args = 0, pretend = 0, frame = 0
 932              		@ frame_needed = 0, uses_anonymous_args = 0
 933              		@ link register save eliminated.
 934              	.LVL102:
 894:.\Generated_Source\PSoC5/CyDmac.c ****     cystatus status = CYRET_BAD_PARAM;
 895:.\Generated_Source\PSoC5/CyDmac.c **** 
 896:.\Generated_Source\PSoC5/CyDmac.c ****     if((tdHandle < CY_DMA_NUMBEROF_TDS) && (0u == (0xF000u & transferCount)))
 935              		.loc 1 896 0
 936 0000 10F0800F 		tst	r0, #128
 937 0004 0CD1     		bne	.L97
 938              		.loc 1 896 0 is_stmt 0 discriminator 1
 939 0006 11F4704F 		tst	r1, #61440
 940 000a 0BD1     		bne	.L98
 941              	.LBB3:
 897:.\Generated_Source\PSoC5/CyDmac.c ****     {
 898:.\Generated_Source\PSoC5/CyDmac.c ****         /* Set 12 bits transfer count. */
 899:.\Generated_Source\PSoC5/CyDmac.c ****         reg16 *convert = (reg16 *) &CY_DMA_TDMEM_STRUCT_PTR[tdHandle].TD0[0u];
 942              		.loc 1 899 0 is_stmt 1
 943 000c C000     		lsls	r0, r0, #3
 944              	.LVL103:
 945 000e 00F18040 		add	r0, r0, #1073741824
 946 0012 00F5F040 		add	r0, r0, #30720
 947              	.LVL104:
 900:.\Generated_Source\PSoC5/CyDmac.c ****         CY_SET_REG16(convert, transferCount);
 948              		.loc 1 900 0
 949 0016 0180     		strh	r1, [r0]	@ movhi
 901:.\Generated_Source\PSoC5/CyDmac.c **** 
 902:.\Generated_Source\PSoC5/CyDmac.c ****         /* Set Next TD pointer. */
 903:.\Generated_Source\PSoC5/CyDmac.c ****         CY_DMA_TDMEM_STRUCT_PTR[tdHandle].TD0[2u] = nextTd;
 950              		.loc 1 903 0
 951 0018 8270     		strb	r2, [r0, #2]
 904:.\Generated_Source\PSoC5/CyDmac.c **** 
 905:.\Generated_Source\PSoC5/CyDmac.c ****         /* Configure the TD */
 906:.\Generated_Source\PSoC5/CyDmac.c ****         CY_DMA_TDMEM_STRUCT_PTR[tdHandle].TD0[3u] = configuration;
 952              		.loc 1 906 0
 953 001a C370     		strb	r3, [r0, #3]
 954              	.LVL105:
 907:.\Generated_Source\PSoC5/CyDmac.c **** 
 908:.\Generated_Source\PSoC5/CyDmac.c ****         status = CYRET_SUCCESS;
 955              		.loc 1 908 0
 956 001c 0020     		movs	r0, #0
ARM GAS  C:\Users\mitchell\AppData\Local\Temp\ccmiv4HZ.s 			page 34


 957              	.LVL106:
 958 001e 7047     		bx	lr
 959              	.LVL107:
 960              	.L97:
 961              	.LBE3:
 894:.\Generated_Source\PSoC5/CyDmac.c ****     cystatus status = CYRET_BAD_PARAM;
 962              		.loc 1 894 0
 963 0020 0120     		movs	r0, #1
 964              	.LVL108:
 965 0022 7047     		bx	lr
 966              	.LVL109:
 967              	.L98:
 968 0024 0120     		movs	r0, #1
 969              	.LVL110:
 909:.\Generated_Source\PSoC5/CyDmac.c ****     }
 910:.\Generated_Source\PSoC5/CyDmac.c **** 
 911:.\Generated_Source\PSoC5/CyDmac.c ****     return(status);
 912:.\Generated_Source\PSoC5/CyDmac.c **** }
 970              		.loc 1 912 0
 971 0026 7047     		bx	lr
 972              		.cfi_endproc
 973              	.LFE19:
 974              		.size	CyDmaTdSetConfiguration, .-CyDmaTdSetConfiguration
 975              		.section	.text.CyDmaTdGetConfiguration,"ax",%progbits
 976              		.align	2
 977              		.global	CyDmaTdGetConfiguration
 978              		.thumb
 979              		.thumb_func
 980              		.type	CyDmaTdGetConfiguration, %function
 981              	CyDmaTdGetConfiguration:
 982              	.LFB20:
 913:.\Generated_Source\PSoC5/CyDmac.c **** 
 914:.\Generated_Source\PSoC5/CyDmac.c **** 
 915:.\Generated_Source\PSoC5/CyDmac.c **** /*******************************************************************************
 916:.\Generated_Source\PSoC5/CyDmac.c **** * Function Name: CyDmaTdGetConfiguration
 917:.\Generated_Source\PSoC5/CyDmac.c **** ********************************************************************************
 918:.\Generated_Source\PSoC5/CyDmac.c **** *
 919:.\Generated_Source\PSoC5/CyDmac.c **** * Summary:
 920:.\Generated_Source\PSoC5/CyDmac.c **** *  Retrieves the configuration of the TD. If a NULL pointer is passed as a
 921:.\Generated_Source\PSoC5/CyDmac.c **** *  parameter, that parameter is skipped. You may request only the values you are
 922:.\Generated_Source\PSoC5/CyDmac.c **** *  interested in.
 923:.\Generated_Source\PSoC5/CyDmac.c **** *
 924:.\Generated_Source\PSoC5/CyDmac.c **** * Parameters:
 925:.\Generated_Source\PSoC5/CyDmac.c **** *  uint8 tdHandle:
 926:.\Generated_Source\PSoC5/CyDmac.c **** *   A handle previously returned by CyDmaTdAlloc().
 927:.\Generated_Source\PSoC5/CyDmac.c **** *
 928:.\Generated_Source\PSoC5/CyDmac.c **** *  uint16 * transferCount:
 929:.\Generated_Source\PSoC5/CyDmac.c **** *   The address to store the size of the data transfer (in bytes) for this TD.
 930:.\Generated_Source\PSoC5/CyDmac.c **** *   A size of zero could indicate that the TD has completed its transfer, or
 931:.\Generated_Source\PSoC5/CyDmac.c **** *   that the TD is doing an indefinite transfer.
 932:.\Generated_Source\PSoC5/CyDmac.c **** *
 933:.\Generated_Source\PSoC5/CyDmac.c **** *  uint8 * nextTd:
 934:.\Generated_Source\PSoC5/CyDmac.c **** *   The address to store the index of the next TD in the TD chain.
 935:.\Generated_Source\PSoC5/CyDmac.c **** *
 936:.\Generated_Source\PSoC5/CyDmac.c **** *  uint8 * configuration:
 937:.\Generated_Source\PSoC5/CyDmac.c **** *   The address to store the Bit field of configuration bits.
 938:.\Generated_Source\PSoC5/CyDmac.c **** *   See CyDmaTdSetConfiguration() function description.
ARM GAS  C:\Users\mitchell\AppData\Local\Temp\ccmiv4HZ.s 			page 35


 939:.\Generated_Source\PSoC5/CyDmac.c **** *
 940:.\Generated_Source\PSoC5/CyDmac.c **** * Return:
 941:.\Generated_Source\PSoC5/CyDmac.c **** *  CYRET_SUCCESS if successful.
 942:.\Generated_Source\PSoC5/CyDmac.c **** *  CYRET_BAD_PARAM if tdHandle is invalid.
 943:.\Generated_Source\PSoC5/CyDmac.c **** *
 944:.\Generated_Source\PSoC5/CyDmac.c **** * Side Effects:
 945:.\Generated_Source\PSoC5/CyDmac.c **** *  If TD has a transfer count of N and is executed, the transfer count becomes
 946:.\Generated_Source\PSoC5/CyDmac.c **** *  0. If it is reexecuted, the Transfer count of zero will be interpreted as a
 947:.\Generated_Source\PSoC5/CyDmac.c **** *  request for indefinite transfer. Be careful when requesting TD with a
 948:.\Generated_Source\PSoC5/CyDmac.c **** *  transfer count of zero.
 949:.\Generated_Source\PSoC5/CyDmac.c **** *
 950:.\Generated_Source\PSoC5/CyDmac.c **** *******************************************************************************/
 951:.\Generated_Source\PSoC5/CyDmac.c **** cystatus CyDmaTdGetConfiguration(uint8 tdHandle, uint16 * transferCount, uint8 * nextTd, uint8 * co
 952:.\Generated_Source\PSoC5/CyDmac.c ****     
 953:.\Generated_Source\PSoC5/CyDmac.c **** {
 983              		.loc 1 953 0
 984              		.cfi_startproc
 985              		@ args = 0, pretend = 0, frame = 0
 986              		@ frame_needed = 0, uses_anonymous_args = 0
 987              		@ link register save eliminated.
 988              	.LVL111:
 989 0000 10B4     		push	{r4}
 990              		.cfi_def_cfa_offset 4
 991              		.cfi_offset 4, -4
 992              	.LVL112:
 954:.\Generated_Source\PSoC5/CyDmac.c ****     cystatus status = CYRET_BAD_PARAM;
 955:.\Generated_Source\PSoC5/CyDmac.c **** 
 956:.\Generated_Source\PSoC5/CyDmac.c ****     if(tdHandle < CY_DMA_NUMBEROF_TDS)
 993              		.loc 1 956 0
 994 0002 10F0800F 		tst	r0, #128
 995 0006 1BD1     		bne	.L103
 957:.\Generated_Source\PSoC5/CyDmac.c ****     {
 958:.\Generated_Source\PSoC5/CyDmac.c ****         /* If we have pointer */
 959:.\Generated_Source\PSoC5/CyDmac.c ****         if(NULL != transferCount)
 996              		.loc 1 959 0
 997 0008 41B1     		cbz	r1, .L101
 998              	.LBB4:
 960:.\Generated_Source\PSoC5/CyDmac.c ****         {
 961:.\Generated_Source\PSoC5/CyDmac.c ****             /* Get 12 bits of transfer count */
 962:.\Generated_Source\PSoC5/CyDmac.c ****             reg16 *convert = (reg16 *) &CY_DMA_TDMEM_STRUCT_PTR[tdHandle].TD0[0];
 999              		.loc 1 962 0
 1000 000a C400     		lsls	r4, r0, #3
 1001 000c 04F18044 		add	r4, r4, #1073741824
 1002 0010 04F5F044 		add	r4, r4, #30720
 1003              	.LVL113:
 963:.\Generated_Source\PSoC5/CyDmac.c ****             *transferCount = 0x0FFFu & CY_GET_REG16(convert);
 1004              		.loc 1 963 0
 1005 0014 2488     		ldrh	r4, [r4]
 1006              	.LVL114:
 1007 0016 C4F30B04 		ubfx	r4, r4, #0, #12
 1008 001a 0C80     		strh	r4, [r1]	@ movhi
 1009              	.LVL115:
 1010              	.L101:
 1011              	.LBE4:
 964:.\Generated_Source\PSoC5/CyDmac.c ****         }
 965:.\Generated_Source\PSoC5/CyDmac.c **** 
 966:.\Generated_Source\PSoC5/CyDmac.c ****         /* If we have pointer */
ARM GAS  C:\Users\mitchell\AppData\Local\Temp\ccmiv4HZ.s 			page 36


 967:.\Generated_Source\PSoC5/CyDmac.c ****         if(NULL != nextTd)
 1012              		.loc 1 967 0
 1013 001c 32B1     		cbz	r2, .L102
 968:.\Generated_Source\PSoC5/CyDmac.c ****         {
 969:.\Generated_Source\PSoC5/CyDmac.c ****             /* Get Next TD pointer */
 970:.\Generated_Source\PSoC5/CyDmac.c ****             *nextTd = CY_DMA_TDMEM_STRUCT_PTR[tdHandle].TD0[2u];
 1014              		.loc 1 970 0
 1015 001e C100     		lsls	r1, r0, #3
 1016              	.LVL116:
 1017 0020 01F18041 		add	r1, r1, #1073741824
 1018 0024 01F5F041 		add	r1, r1, #30720
 1019 0028 8978     		ldrb	r1, [r1, #2]	@ zero_extendqisi2
 1020 002a 1170     		strb	r1, [r2]
 1021              	.L102:
 971:.\Generated_Source\PSoC5/CyDmac.c ****         }
 972:.\Generated_Source\PSoC5/CyDmac.c **** 
 973:.\Generated_Source\PSoC5/CyDmac.c ****         /* If we have pointer */
 974:.\Generated_Source\PSoC5/CyDmac.c ****         if(NULL != configuration)
 1022              		.loc 1 974 0
 1023 002c 53B1     		cbz	r3, .L104
 975:.\Generated_Source\PSoC5/CyDmac.c ****         {
 976:.\Generated_Source\PSoC5/CyDmac.c ****             /* Get configuration TD */
 977:.\Generated_Source\PSoC5/CyDmac.c ****             *configuration = CY_DMA_TDMEM_STRUCT_PTR[tdHandle].TD0[3u];
 1024              		.loc 1 977 0
 1025 002e C000     		lsls	r0, r0, #3
 1026              	.LVL117:
 1027 0030 00F18040 		add	r0, r0, #1073741824
 1028 0034 00F5F040 		add	r0, r0, #30720
 1029 0038 C278     		ldrb	r2, [r0, #3]	@ zero_extendqisi2
 1030              	.LVL118:
 1031 003a 1A70     		strb	r2, [r3]
 978:.\Generated_Source\PSoC5/CyDmac.c ****         }
 979:.\Generated_Source\PSoC5/CyDmac.c **** 
 980:.\Generated_Source\PSoC5/CyDmac.c ****         status = CYRET_SUCCESS;
 1032              		.loc 1 980 0
 1033 003c 0020     		movs	r0, #0
 1034 003e 02E0     		b	.L100
 1035              	.LVL119:
 1036              	.L103:
 954:.\Generated_Source\PSoC5/CyDmac.c ****     cystatus status = CYRET_BAD_PARAM;
 1037              		.loc 1 954 0
 1038 0040 0120     		movs	r0, #1
 1039              	.LVL120:
 1040 0042 00E0     		b	.L100
 1041              	.LVL121:
 1042              	.L104:
 1043              		.loc 1 980 0
 1044 0044 0020     		movs	r0, #0
 1045              	.LVL122:
 1046              	.L100:
 981:.\Generated_Source\PSoC5/CyDmac.c ****     }
 982:.\Generated_Source\PSoC5/CyDmac.c **** 
 983:.\Generated_Source\PSoC5/CyDmac.c ****     return(status);
 984:.\Generated_Source\PSoC5/CyDmac.c **** }
 1047              		.loc 1 984 0
 1048 0046 5DF8044B 		ldr	r4, [sp], #4
 1049 004a 7047     		bx	lr
ARM GAS  C:\Users\mitchell\AppData\Local\Temp\ccmiv4HZ.s 			page 37


 1050              		.cfi_endproc
 1051              	.LFE20:
 1052              		.size	CyDmaTdGetConfiguration, .-CyDmaTdGetConfiguration
 1053              		.section	.text.CyDmaTdSetAddress,"ax",%progbits
 1054              		.align	2
 1055              		.global	CyDmaTdSetAddress
 1056              		.thumb
 1057              		.thumb_func
 1058              		.type	CyDmaTdSetAddress, %function
 1059              	CyDmaTdSetAddress:
 1060              	.LFB21:
 985:.\Generated_Source\PSoC5/CyDmac.c **** 
 986:.\Generated_Source\PSoC5/CyDmac.c **** 
 987:.\Generated_Source\PSoC5/CyDmac.c **** /*******************************************************************************
 988:.\Generated_Source\PSoC5/CyDmac.c **** * Function Name: CyDmaTdSetAddress
 989:.\Generated_Source\PSoC5/CyDmac.c **** ********************************************************************************
 990:.\Generated_Source\PSoC5/CyDmac.c **** *
 991:.\Generated_Source\PSoC5/CyDmac.c **** * Summary:
 992:.\Generated_Source\PSoC5/CyDmac.c **** *  Sets the lower 16 bits of the source and destination addresses for this TD
 993:.\Generated_Source\PSoC5/CyDmac.c **** *  only.
 994:.\Generated_Source\PSoC5/CyDmac.c **** *
 995:.\Generated_Source\PSoC5/CyDmac.c **** * Parameters:
 996:.\Generated_Source\PSoC5/CyDmac.c **** *  uint8 tdHandle:
 997:.\Generated_Source\PSoC5/CyDmac.c **** *   A handle previously returned by CyDmaTdAlloc().
 998:.\Generated_Source\PSoC5/CyDmac.c **** *
 999:.\Generated_Source\PSoC5/CyDmac.c **** *  uint16 source:
1000:.\Generated_Source\PSoC5/CyDmac.c **** *   The lower 16 address bits of the source of the data transfer.
1001:.\Generated_Source\PSoC5/CyDmac.c **** *
1002:.\Generated_Source\PSoC5/CyDmac.c **** *  uint16 destination:
1003:.\Generated_Source\PSoC5/CyDmac.c **** *   The lower 16 address bits of the destination of the data transfer.
1004:.\Generated_Source\PSoC5/CyDmac.c **** *
1005:.\Generated_Source\PSoC5/CyDmac.c **** * Return:
1006:.\Generated_Source\PSoC5/CyDmac.c **** *  CYRET_SUCCESS if successful.
1007:.\Generated_Source\PSoC5/CyDmac.c **** *  CYRET_BAD_PARAM if tdHandle is invalid.
1008:.\Generated_Source\PSoC5/CyDmac.c **** *
1009:.\Generated_Source\PSoC5/CyDmac.c **** *******************************************************************************/
1010:.\Generated_Source\PSoC5/CyDmac.c **** cystatus CyDmaTdSetAddress(uint8 tdHandle, uint16 source, uint16 destination) 
1011:.\Generated_Source\PSoC5/CyDmac.c **** {
 1061              		.loc 1 1011 0
 1062              		.cfi_startproc
 1063              		@ args = 0, pretend = 0, frame = 0
 1064              		@ frame_needed = 0, uses_anonymous_args = 0
 1065              		@ link register save eliminated.
 1066              	.LVL123:
1012:.\Generated_Source\PSoC5/CyDmac.c ****     cystatus status = CYRET_BAD_PARAM;
1013:.\Generated_Source\PSoC5/CyDmac.c ****     reg16 *convert;
1014:.\Generated_Source\PSoC5/CyDmac.c **** 
1015:.\Generated_Source\PSoC5/CyDmac.c ****     if(tdHandle < CY_DMA_NUMBEROF_TDS)
 1067              		.loc 1 1015 0
 1068 0000 10F0800F 		tst	r0, #128
 1069 0004 08D1     		bne	.L107
1016:.\Generated_Source\PSoC5/CyDmac.c ****     {
1017:.\Generated_Source\PSoC5/CyDmac.c ****         /* Set source address */
1018:.\Generated_Source\PSoC5/CyDmac.c ****         convert = (reg16 *) &CY_DMA_TDMEM_STRUCT_PTR[tdHandle].TD1[0u];
 1070              		.loc 1 1018 0
 1071 0006 C000     		lsls	r0, r0, #3
 1072              	.LVL124:
ARM GAS  C:\Users\mitchell\AppData\Local\Temp\ccmiv4HZ.s 			page 38


 1073 0008 00F18040 		add	r0, r0, #1073741824
 1074 000c 00F5F040 		add	r0, r0, #30720
 1075              	.LVL125:
1019:.\Generated_Source\PSoC5/CyDmac.c ****         CY_SET_REG16(convert, source);
 1076              		.loc 1 1019 0
 1077 0010 8180     		strh	r1, [r0, #4]	@ movhi
 1078              	.LVL126:
1020:.\Generated_Source\PSoC5/CyDmac.c **** 
1021:.\Generated_Source\PSoC5/CyDmac.c ****         /* Set destination address */
1022:.\Generated_Source\PSoC5/CyDmac.c ****         convert = (reg16 *) &CY_DMA_TDMEM_STRUCT_PTR[tdHandle].TD1[2u];
1023:.\Generated_Source\PSoC5/CyDmac.c ****         CY_SET_REG16(convert, destination);
 1079              		.loc 1 1023 0
 1080 0012 C280     		strh	r2, [r0, #6]	@ movhi
 1081              	.LVL127:
1024:.\Generated_Source\PSoC5/CyDmac.c **** 
1025:.\Generated_Source\PSoC5/CyDmac.c ****         status = CYRET_SUCCESS;
 1082              		.loc 1 1025 0
 1083 0014 0020     		movs	r0, #0
 1084              	.LVL128:
 1085 0016 7047     		bx	lr
 1086              	.LVL129:
 1087              	.L107:
1012:.\Generated_Source\PSoC5/CyDmac.c ****     cystatus status = CYRET_BAD_PARAM;
 1088              		.loc 1 1012 0
 1089 0018 0120     		movs	r0, #1
 1090              	.LVL130:
1026:.\Generated_Source\PSoC5/CyDmac.c ****     }
1027:.\Generated_Source\PSoC5/CyDmac.c **** 
1028:.\Generated_Source\PSoC5/CyDmac.c ****     return(status);
1029:.\Generated_Source\PSoC5/CyDmac.c **** }
 1091              		.loc 1 1029 0
 1092 001a 7047     		bx	lr
 1093              		.cfi_endproc
 1094              	.LFE21:
 1095              		.size	CyDmaTdSetAddress, .-CyDmaTdSetAddress
 1096              		.section	.text.CyDmaTdGetAddress,"ax",%progbits
 1097              		.align	2
 1098              		.global	CyDmaTdGetAddress
 1099              		.thumb
 1100              		.thumb_func
 1101              		.type	CyDmaTdGetAddress, %function
 1102              	CyDmaTdGetAddress:
 1103              	.LFB22:
1030:.\Generated_Source\PSoC5/CyDmac.c **** 
1031:.\Generated_Source\PSoC5/CyDmac.c **** 
1032:.\Generated_Source\PSoC5/CyDmac.c **** /*******************************************************************************
1033:.\Generated_Source\PSoC5/CyDmac.c **** * Function Name: CyDmaTdGetAddress
1034:.\Generated_Source\PSoC5/CyDmac.c **** ********************************************************************************
1035:.\Generated_Source\PSoC5/CyDmac.c **** *
1036:.\Generated_Source\PSoC5/CyDmac.c **** * Summary:
1037:.\Generated_Source\PSoC5/CyDmac.c **** *  Retrieves the lower 16 bits of the source and/or destination addresses for
1038:.\Generated_Source\PSoC5/CyDmac.c **** *  this TD only. If NULL is passed for a pointer parameter, that value is
1039:.\Generated_Source\PSoC5/CyDmac.c **** *  skipped. You may request only the values of interest.
1040:.\Generated_Source\PSoC5/CyDmac.c **** *
1041:.\Generated_Source\PSoC5/CyDmac.c **** * Parameters:
1042:.\Generated_Source\PSoC5/CyDmac.c **** *  uint8 tdHandle:
1043:.\Generated_Source\PSoC5/CyDmac.c **** *   A handle previously returned by CyDmaTdAlloc().
ARM GAS  C:\Users\mitchell\AppData\Local\Temp\ccmiv4HZ.s 			page 39


1044:.\Generated_Source\PSoC5/CyDmac.c **** *
1045:.\Generated_Source\PSoC5/CyDmac.c **** *  uint16 * source:
1046:.\Generated_Source\PSoC5/CyDmac.c **** *   The address to store the lower 16 address bits of the source of the data
1047:.\Generated_Source\PSoC5/CyDmac.c **** *   transfer.
1048:.\Generated_Source\PSoC5/CyDmac.c **** *
1049:.\Generated_Source\PSoC5/CyDmac.c **** *  uint16 * destination:
1050:.\Generated_Source\PSoC5/CyDmac.c **** *   The address to store the lower 16 address bits of the destination of the
1051:.\Generated_Source\PSoC5/CyDmac.c **** *   data transfer.
1052:.\Generated_Source\PSoC5/CyDmac.c **** *
1053:.\Generated_Source\PSoC5/CyDmac.c **** * Return:
1054:.\Generated_Source\PSoC5/CyDmac.c **** *  CYRET_SUCCESS if successful.
1055:.\Generated_Source\PSoC5/CyDmac.c **** *  CYRET_BAD_PARAM if tdHandle is invalid.
1056:.\Generated_Source\PSoC5/CyDmac.c **** *
1057:.\Generated_Source\PSoC5/CyDmac.c **** *******************************************************************************/
1058:.\Generated_Source\PSoC5/CyDmac.c **** cystatus CyDmaTdGetAddress(uint8 tdHandle, uint16 * source, uint16 * destination) 
1059:.\Generated_Source\PSoC5/CyDmac.c **** {
 1104              		.loc 1 1059 0
 1105              		.cfi_startproc
 1106              		@ args = 0, pretend = 0, frame = 0
 1107              		@ frame_needed = 0, uses_anonymous_args = 0
 1108              		@ link register save eliminated.
 1109              	.LVL131:
1060:.\Generated_Source\PSoC5/CyDmac.c ****     cystatus status = CYRET_BAD_PARAM;
1061:.\Generated_Source\PSoC5/CyDmac.c ****     reg16 *convert;
1062:.\Generated_Source\PSoC5/CyDmac.c **** 
1063:.\Generated_Source\PSoC5/CyDmac.c ****     if(tdHandle < CY_DMA_NUMBEROF_TDS)
 1110              		.loc 1 1063 0
 1111 0000 10F0800F 		tst	r0, #128
 1112 0004 11D1     		bne	.L111
1064:.\Generated_Source\PSoC5/CyDmac.c ****     {
1065:.\Generated_Source\PSoC5/CyDmac.c ****         /* If we have a pointer. */
1066:.\Generated_Source\PSoC5/CyDmac.c ****         if(NULL != source)
 1113              		.loc 1 1066 0
 1114 0006 31B1     		cbz	r1, .L110
1067:.\Generated_Source\PSoC5/CyDmac.c ****         {
1068:.\Generated_Source\PSoC5/CyDmac.c ****             /* Get source address */
1069:.\Generated_Source\PSoC5/CyDmac.c ****             convert = (reg16 *) &CY_DMA_TDMEM_STRUCT_PTR[tdHandle].TD1[0u];
 1115              		.loc 1 1069 0
 1116 0008 C300     		lsls	r3, r0, #3
 1117 000a 03F18043 		add	r3, r3, #1073741824
 1118 000e 03F5F043 		add	r3, r3, #30720
 1119              	.LVL132:
1070:.\Generated_Source\PSoC5/CyDmac.c ****             *source = CY_GET_REG16(convert);
 1120              		.loc 1 1070 0
 1121 0012 9B88     		ldrh	r3, [r3, #4]
 1122              	.LVL133:
 1123 0014 0B80     		strh	r3, [r1]	@ movhi
 1124              	.LVL134:
 1125              	.L110:
1071:.\Generated_Source\PSoC5/CyDmac.c ****         }
1072:.\Generated_Source\PSoC5/CyDmac.c **** 
1073:.\Generated_Source\PSoC5/CyDmac.c ****         /* If we have a pointer. */
1074:.\Generated_Source\PSoC5/CyDmac.c ****         if(NULL != destination)
 1126              		.loc 1 1074 0
 1127 0016 52B1     		cbz	r2, .L112
1075:.\Generated_Source\PSoC5/CyDmac.c ****         {
1076:.\Generated_Source\PSoC5/CyDmac.c ****             /* Get Destination address. */
ARM GAS  C:\Users\mitchell\AppData\Local\Temp\ccmiv4HZ.s 			page 40


1077:.\Generated_Source\PSoC5/CyDmac.c ****             convert = (reg16 *) &CY_DMA_TDMEM_STRUCT_PTR[tdHandle].TD1[2u];
 1128              		.loc 1 1077 0
 1129 0018 C000     		lsls	r0, r0, #3
 1130              	.LVL135:
 1131 001a 00F18040 		add	r0, r0, #1073741824
 1132 001e 00F5F040 		add	r0, r0, #30720
 1133              	.LVL136:
1078:.\Generated_Source\PSoC5/CyDmac.c ****             *destination = CY_GET_REG16(convert);
 1134              		.loc 1 1078 0
 1135 0022 C388     		ldrh	r3, [r0, #6]
 1136 0024 1380     		strh	r3, [r2]	@ movhi
1079:.\Generated_Source\PSoC5/CyDmac.c ****         }
1080:.\Generated_Source\PSoC5/CyDmac.c **** 
1081:.\Generated_Source\PSoC5/CyDmac.c ****         status = CYRET_SUCCESS;
 1137              		.loc 1 1081 0
 1138 0026 0020     		movs	r0, #0
 1139              	.LVL137:
 1140 0028 7047     		bx	lr
 1141              	.LVL138:
 1142              	.L111:
1060:.\Generated_Source\PSoC5/CyDmac.c ****     cystatus status = CYRET_BAD_PARAM;
 1143              		.loc 1 1060 0
 1144 002a 0120     		movs	r0, #1
 1145              	.LVL139:
 1146 002c 7047     		bx	lr
 1147              	.LVL140:
 1148              	.L112:
 1149              		.loc 1 1081 0
 1150 002e 0020     		movs	r0, #0
 1151              	.LVL141:
1082:.\Generated_Source\PSoC5/CyDmac.c ****     }
1083:.\Generated_Source\PSoC5/CyDmac.c **** 
1084:.\Generated_Source\PSoC5/CyDmac.c ****     return(status);
1085:.\Generated_Source\PSoC5/CyDmac.c **** }
 1152              		.loc 1 1085 0
 1153 0030 7047     		bx	lr
 1154              		.cfi_endproc
 1155              	.LFE22:
 1156              		.size	CyDmaTdGetAddress, .-CyDmaTdGetAddress
 1157 0032 00BF     		.section	.text.CyDmaChRoundRobin,"ax",%progbits
 1158              		.align	2
 1159              		.global	CyDmaChRoundRobin
 1160              		.thumb
 1161              		.thumb_func
 1162              		.type	CyDmaChRoundRobin, %function
 1163              	CyDmaChRoundRobin:
 1164              	.LFB23:
1086:.\Generated_Source\PSoC5/CyDmac.c **** 
1087:.\Generated_Source\PSoC5/CyDmac.c **** 
1088:.\Generated_Source\PSoC5/CyDmac.c **** /*******************************************************************************
1089:.\Generated_Source\PSoC5/CyDmac.c **** * Function Name: CyDmaChRoundRobin
1090:.\Generated_Source\PSoC5/CyDmac.c **** ********************************************************************************
1091:.\Generated_Source\PSoC5/CyDmac.c **** *
1092:.\Generated_Source\PSoC5/CyDmac.c **** * Summary:
1093:.\Generated_Source\PSoC5/CyDmac.c **** *  Either enables or disables the Round-Robin scheduling enforcement algorithm.
1094:.\Generated_Source\PSoC5/CyDmac.c **** *  Within a priority level a Round-Robin fairness algorithm is enforced.
1095:.\Generated_Source\PSoC5/CyDmac.c **** *
ARM GAS  C:\Users\mitchell\AppData\Local\Temp\ccmiv4HZ.s 			page 41


1096:.\Generated_Source\PSoC5/CyDmac.c **** * Parameters:
1097:.\Generated_Source\PSoC5/CyDmac.c **** *  uint8 chHandle:
1098:.\Generated_Source\PSoC5/CyDmac.c **** *   A handle previously returned by CyDmaChAlloc() or Dma_DmaInitialize().
1099:.\Generated_Source\PSoC5/CyDmac.c **** *
1100:.\Generated_Source\PSoC5/CyDmac.c **** *  uint8 enableRR:
1101:.\Generated_Source\PSoC5/CyDmac.c **** *   0: Disable Round-Robin fairness algorithm
1102:.\Generated_Source\PSoC5/CyDmac.c **** *   1: Enable Round-Robin fairness algorithm
1103:.\Generated_Source\PSoC5/CyDmac.c **** *
1104:.\Generated_Source\PSoC5/CyDmac.c **** * Return:
1105:.\Generated_Source\PSoC5/CyDmac.c **** *  CYRET_SUCCESS if successful.
1106:.\Generated_Source\PSoC5/CyDmac.c **** *  CYRET_BAD_PARAM if chHandle is invalid.
1107:.\Generated_Source\PSoC5/CyDmac.c **** *
1108:.\Generated_Source\PSoC5/CyDmac.c **** *******************************************************************************/
1109:.\Generated_Source\PSoC5/CyDmac.c **** cystatus CyDmaChRoundRobin(uint8 chHandle, uint8 enableRR) 
1110:.\Generated_Source\PSoC5/CyDmac.c **** {
 1165              		.loc 1 1110 0
 1166              		.cfi_startproc
 1167              		@ args = 0, pretend = 0, frame = 0
 1168              		@ frame_needed = 0, uses_anonymous_args = 0
 1169              		@ link register save eliminated.
 1170              	.LVL142:
1111:.\Generated_Source\PSoC5/CyDmac.c ****     cystatus status = CYRET_BAD_PARAM;
1112:.\Generated_Source\PSoC5/CyDmac.c **** 
1113:.\Generated_Source\PSoC5/CyDmac.c ****     if(chHandle < CY_DMA_NUMBEROF_CHANNELS)
 1171              		.loc 1 1113 0
 1172 0000 1728     		cmp	r0, #23
 1173 0002 10D8     		bhi	.L116
1114:.\Generated_Source\PSoC5/CyDmac.c ****     {
1115:.\Generated_Source\PSoC5/CyDmac.c ****         if (0u != enableRR)
 1174              		.loc 1 1115 0
 1175 0004 39B1     		cbz	r1, .L115
1116:.\Generated_Source\PSoC5/CyDmac.c ****         {
1117:.\Generated_Source\PSoC5/CyDmac.c ****             CY_DMA_CH_STRUCT_PTR[chHandle].basic_cfg[0u] |= (uint8)CY_DMA_ROUND_ROBIN_ENABLE;
 1176              		.loc 1 1117 0
 1177 0006 0001     		lsls	r0, r0, #4
 1178              	.LVL143:
 1179 0008 084B     		ldr	r3, .L117
 1180 000a C25C     		ldrb	r2, [r0, r3]	@ zero_extendqisi2
 1181 000c 42F01002 		orr	r2, r2, #16
 1182 0010 C254     		strb	r2, [r0, r3]
1118:.\Generated_Source\PSoC5/CyDmac.c ****         }
1119:.\Generated_Source\PSoC5/CyDmac.c ****         else
1120:.\Generated_Source\PSoC5/CyDmac.c ****         {
1121:.\Generated_Source\PSoC5/CyDmac.c ****             CY_DMA_CH_STRUCT_PTR[chHandle].basic_cfg[0u] &= (uint8)(~CY_DMA_ROUND_ROBIN_ENABLE);
1122:.\Generated_Source\PSoC5/CyDmac.c ****         }
1123:.\Generated_Source\PSoC5/CyDmac.c **** 
1124:.\Generated_Source\PSoC5/CyDmac.c ****         status = CYRET_SUCCESS;
 1183              		.loc 1 1124 0
 1184 0012 0020     		movs	r0, #0
 1185 0014 7047     		bx	lr
 1186              	.LVL144:
 1187              	.L115:
1121:.\Generated_Source\PSoC5/CyDmac.c ****             CY_DMA_CH_STRUCT_PTR[chHandle].basic_cfg[0u] &= (uint8)(~CY_DMA_ROUND_ROBIN_ENABLE);
 1188              		.loc 1 1121 0
 1189 0016 0001     		lsls	r0, r0, #4
 1190              	.LVL145:
 1191 0018 044B     		ldr	r3, .L117
ARM GAS  C:\Users\mitchell\AppData\Local\Temp\ccmiv4HZ.s 			page 42


 1192 001a C25C     		ldrb	r2, [r0, r3]	@ zero_extendqisi2
 1193 001c 02F0EF02 		and	r2, r2, #239
 1194 0020 C254     		strb	r2, [r0, r3]
 1195              		.loc 1 1124 0
 1196 0022 0020     		movs	r0, #0
 1197 0024 7047     		bx	lr
 1198              	.LVL146:
 1199              	.L116:
1111:.\Generated_Source\PSoC5/CyDmac.c ****     cystatus status = CYRET_BAD_PARAM;
 1200              		.loc 1 1111 0
 1201 0026 0120     		movs	r0, #1
 1202              	.LVL147:
1125:.\Generated_Source\PSoC5/CyDmac.c ****     }
1126:.\Generated_Source\PSoC5/CyDmac.c **** 
1127:.\Generated_Source\PSoC5/CyDmac.c ****     return(status);
1128:.\Generated_Source\PSoC5/CyDmac.c **** }
 1203              		.loc 1 1128 0
 1204 0028 7047     		bx	lr
 1205              	.L118:
 1206 002a 00BF     		.align	2
 1207              	.L117:
 1208 002c 10700040 		.word	1073770512
 1209              		.cfi_endproc
 1210              	.LFE23:
 1211              		.size	CyDmaChRoundRobin, .-CyDmaChRoundRobin
 1212              		.data
 1213              		.set	.LANCHOR0,. + 0
 1214              		.type	CyDmaTdFreeIndex, %object
 1215              		.size	CyDmaTdFreeIndex, 1
 1216              	CyDmaTdFreeIndex:
 1217 0000 7F       		.byte	127
 1218              		.type	CyDmaTdCurrentNumber, %object
 1219              		.size	CyDmaTdCurrentNumber, 1
 1220              	CyDmaTdCurrentNumber:
 1221 0001 80       		.byte	-128
 1222              		.bss
 1223              		.align	2
 1224              		.set	.LANCHOR1,. + 0
 1225              		.type	CyDmaChannels, %object
 1226              		.size	CyDmaChannels, 4
 1227              	CyDmaChannels:
 1228 0000 00000000 		.space	4
 1229              		.text
 1230              	.Letext0:
 1231              		.file 2 ".\\Generated_Source\\PSoC5\\cytypes.h"
 1232              		.file 3 ".\\Generated_Source\\PSoC5\\CyDmac.h"
 1233              		.file 4 ".\\Generated_Source\\PSoC5\\CyLib.h"