ARM GAS  C:\Users\mitchell\AppData\Local\Temp\ccz1MAGf.s 			page 1


   1              		.syntax unified
   2              		.cpu cortex-m3
   3              		.fpu softvfp
   4              		.eabi_attribute 20, 1
   5              		.eabi_attribute 21, 1
   6              		.eabi_attribute 23, 3
   7              		.eabi_attribute 24, 1
   8              		.eabi_attribute 25, 1
   9              		.eabi_attribute 26, 1
  10              		.eabi_attribute 30, 1
  11              		.eabi_attribute 34, 1
  12              		.eabi_attribute 18, 4
  13              		.thumb
  14              		.file	"main.c"
  15              		.text
  16              	.Ltext0:
  17              		.cfi_sections	.debug_frame
  18              		.section	.text.outputPad,"ax",%progbits
  19              		.align	2
  20              		.global	outputPad
  21              		.thumb
  22              		.thumb_func
  23              		.type	outputPad, %function
  24              	outputPad:
  25              	.LFB64:
  26              		.file 1 ".\\main.c"
   1:.\main.c      **** /* ========================================
   2:.\main.c      ****  *
   3:.\main.c      ****  * Copyright YOUR COMPANY, THE YEAR
   4:.\main.c      ****  * All Rights Reserved
   5:.\main.c      ****  * UNPUBLISHED, LICENSED SOFTWARE.
   6:.\main.c      ****  *
   7:.\main.c      ****  * CONFIDENTIAL AND PROPRIETARY INFORMATION
   8:.\main.c      ****  * WHICH IS THE PROPERTY OF your company.
   9:.\main.c      ****  *
  10:.\main.c      ****  * ========================================
  11:.\main.c      **** */
  12:.\main.c      **** #include <project.h>
  13:.\main.c      **** 
  14:.\main.c      **** void outputNum(char*);
  15:.\main.c      **** 
  16:.\main.c      **** 
  17:.\main.c      **** int main()
  18:.\main.c      **** {
  19:.\main.c      ****     CyGlobalIntEnable; /* Enable global interrupts. */
  20:.\main.c      ****     
  21:.\main.c      ****     UART_1_Start();
  22:.\main.c      ****     ADC_Start();
  23:.\main.c      ****     PWM_Start();
  24:.\main.c      **** 
  25:.\main.c      ****         
  26:.\main.c      ****     union {
  27:.\main.c      ****         char str[4];
  28:.\main.c      ****         int num;
  29:.\main.c      ****     } pot_0;    
  30:.\main.c      ****     
  31:.\main.c      **** 
ARM GAS  C:\Users\mitchell\AppData\Local\Temp\ccz1MAGf.s 			page 2


  32:.\main.c      ****     int compare;
  33:.\main.c      ****     uint16 adc = 255;
  34:.\main.c      ****     int mycount = 0;
  35:.\main.c      ****     
  36:.\main.c      ****     for(;;)
  37:.\main.c      ****     { 
  38:.\main.c      ****         ADC_StartConvert();
  39:.\main.c      ****         ADC_IsEndConversion(ADC_WAIT_FOR_RESULT);
  40:.\main.c      ****         ADC_StopConvert();
  41:.\main.c      **** 
  42:.\main.c      ****         adc = ADC_GetResult16();
  43:.\main.c      ****         
  44:.\main.c      ****         if(adc > 255)
  45:.\main.c      ****         {
  46:.\main.c      ****             if(adc == 0xFFFF) 
  47:.\main.c      ****             {
  48:.\main.c      ****                 adc = 0x00;
  49:.\main.c      ****             }
  50:.\main.c      ****             else
  51:.\main.c      ****             adc = 0xFF; 
  52:.\main.c      ****         } 
  53:.\main.c      ****         
  54:.\main.c      ****         compare = (uint16)(1000 + ((float)((float)((float)adc / (float)255) * (float)1000)));
  55:.\main.c      ****         
  56:.\main.c      ****         
  57:.\main.c      ****         //compare = mycount;
  58:.\main.c      ****         PWM_WriteCompare(compare);
  59:.\main.c      **** //        PWM_WritePeriod(compare + 39999);
  60:.\main.c      ****         
  61:.\main.c      **** //        mycount++;
  62:.\main.c      **** //        mycount = mycount % 2000;
  63:.\main.c      ****         
  64:.\main.c      ****         pot_0.num = compare;
  65:.\main.c      ****         outputNum(pot_0.str);
  66:.\main.c      ****         CyDelay(20);
  67:.\main.c      ****     }
  68:.\main.c      **** }
  69:.\main.c      **** 
  70:.\main.c      **** void outputPad() {
  27              		.loc 1 70 0
  28              		.cfi_startproc
  29              		@ args = 0, pretend = 0, frame = 0
  30              		@ frame_needed = 0, uses_anonymous_args = 0
  31 0000 38B5     		push	{r3, r4, r5, lr}
  32              		.cfi_def_cfa_offset 16
  33              		.cfi_offset 3, -16
  34              		.cfi_offset 4, -12
  35              		.cfi_offset 5, -8
  36              		.cfi_offset 14, -4
  37              	.LVL0:
  71:.\main.c      ****     int i; 
  72:.\main.c      ****     for (i = 0; i < 4; i++) {
  38              		.loc 1 72 0
  39 0002 0024     		movs	r4, #0
  73:.\main.c      ****         UART_1_PutChar(0xFF);
  40              		.loc 1 73 0
  41 0004 FF25     		movs	r5, #255
ARM GAS  C:\Users\mitchell\AppData\Local\Temp\ccz1MAGf.s 			page 3


  72:.\main.c      ****     for (i = 0; i < 4; i++) {
  42              		.loc 1 72 0
  43 0006 03E0     		b	.L2
  44              	.LVL1:
  45              	.L3:
  46              		.loc 1 73 0 discriminator 2
  47 0008 2846     		mov	r0, r5
  48 000a FFF7FEFF 		bl	UART_1_PutChar
  49              	.LVL2:
  72:.\main.c      ****     for (i = 0; i < 4; i++) {
  50              		.loc 1 72 0 discriminator 2
  51 000e 0134     		adds	r4, r4, #1
  52              	.LVL3:
  53              	.L2:
  72:.\main.c      ****     for (i = 0; i < 4; i++) {
  54              		.loc 1 72 0 is_stmt 0 discriminator 1
  55 0010 032C     		cmp	r4, #3
  56 0012 F9DD     		ble	.L3
  74:.\main.c      ****     }
  75:.\main.c      **** }
  57              		.loc 1 75 0 is_stmt 1
  58 0014 38BD     		pop	{r3, r4, r5, pc}
  59              		.cfi_endproc
  60              	.LFE64:
  61              		.size	outputPad, .-outputPad
  62 0016 00BF     		.section	.text.outputNum,"ax",%progbits
  63              		.align	2
  64              		.global	outputNum
  65              		.thumb
  66              		.thumb_func
  67              		.type	outputNum, %function
  68              	outputNum:
  69              	.LFB65:
  76:.\main.c      **** 
  77:.\main.c      **** 
  78:.\main.c      **** void outputNum(char* num) {  
  70              		.loc 1 78 0
  71              		.cfi_startproc
  72              		@ args = 0, pretend = 0, frame = 0
  73              		@ frame_needed = 0, uses_anonymous_args = 0
  74              	.LVL4:
  75 0000 10B5     		push	{r4, lr}
  76              		.cfi_def_cfa_offset 8
  77              		.cfi_offset 4, -8
  78              		.cfi_offset 14, -4
  79 0002 0446     		mov	r4, r0
  79:.\main.c      ****     outputPad();
  80              		.loc 1 79 0
  81 0004 FFF7FEFF 		bl	outputPad
  82              	.LVL5:
  80:.\main.c      ****     UART_1_PutChar(num[0]);
  83              		.loc 1 80 0
  84 0008 2078     		ldrb	r0, [r4]	@ zero_extendqisi2
  85 000a FFF7FEFF 		bl	UART_1_PutChar
  86              	.LVL6:
  81:.\main.c      ****     UART_1_PutChar(num[1]);
  87              		.loc 1 81 0
ARM GAS  C:\Users\mitchell\AppData\Local\Temp\ccz1MAGf.s 			page 4


  88 000e 6078     		ldrb	r0, [r4, #1]	@ zero_extendqisi2
  89 0010 FFF7FEFF 		bl	UART_1_PutChar
  90              	.LVL7:
  82:.\main.c      ****     UART_1_PutChar(num[2]);
  91              		.loc 1 82 0
  92 0014 A078     		ldrb	r0, [r4, #2]	@ zero_extendqisi2
  93 0016 FFF7FEFF 		bl	UART_1_PutChar
  94              	.LVL8:
  83:.\main.c      ****     UART_1_PutChar(num[3]);
  95              		.loc 1 83 0
  96 001a E078     		ldrb	r0, [r4, #3]	@ zero_extendqisi2
  97 001c FFF7FEFF 		bl	UART_1_PutChar
  98              	.LVL9:
  84:.\main.c      ****     outputPad();
  99              		.loc 1 84 0
 100 0020 FFF7FEFF 		bl	outputPad
 101              	.LVL10:
 102 0024 10BD     		pop	{r4, pc}
 103              		.cfi_endproc
 104              	.LFE65:
 105              		.size	outputNum, .-outputNum
 106              		.global	__aeabi_ui2f
 107              		.global	__aeabi_fdiv
 108              		.global	__aeabi_fmul
 109              		.global	__aeabi_fadd
 110              		.global	__aeabi_f2uiz
 111 0026 00BF     		.section	.text.main,"ax",%progbits
 112              		.align	2
 113              		.global	main
 114              		.thumb
 115              		.thumb_func
 116              		.type	main, %function
 117              	main:
 118              	.LFB63:
  18:.\main.c      **** {
 119              		.loc 1 18 0
 120              		.cfi_startproc
 121              		@ args = 0, pretend = 0, frame = 8
 122              		@ frame_needed = 0, uses_anonymous_args = 0
 123 0000 F0B5     		push	{r4, r5, r6, r7, lr}
 124              		.cfi_def_cfa_offset 20
 125              		.cfi_offset 4, -20
 126              		.cfi_offset 5, -16
 127              		.cfi_offset 6, -12
 128              		.cfi_offset 7, -8
 129              		.cfi_offset 14, -4
 130 0002 83B0     		sub	sp, sp, #12
 131              		.cfi_def_cfa_offset 32
  19:.\main.c      ****     CyGlobalIntEnable; /* Enable global interrupts. */
 132              		.loc 1 19 0
 133              	@ 19 ".\main.c" 1
 134 0004 62B6     		CPSIE   i
 135              	@ 0 "" 2
  21:.\main.c      ****     UART_1_Start();
 136              		.loc 1 21 0
 137              		.thumb
 138 0006 FFF7FEFF 		bl	UART_1_Start
ARM GAS  C:\Users\mitchell\AppData\Local\Temp\ccz1MAGf.s 			page 5


 139              	.LVL11:
  22:.\main.c      ****     ADC_Start();
 140              		.loc 1 22 0
 141 000a FFF7FEFF 		bl	ADC_Start
 142              	.LVL12:
  23:.\main.c      ****     PWM_Start();
 143              		.loc 1 23 0
 144 000e FFF7FEFF 		bl	PWM_Start
 145              	.LVL13:
  39:.\main.c      ****         ADC_IsEndConversion(ADC_WAIT_FOR_RESULT);
 146              		.loc 1 39 0
 147 0012 0026     		movs	r6, #0
  54:.\main.c      ****         compare = (uint16)(1000 + ((float)((float)((float)adc / (float)255) * (float)1000)));
 148              		.loc 1 54 0
 149 0014 174F     		ldr	r7, .L9
 150 0016 184D     		ldr	r5, .L9+4
 151              	.LVL14:
 152              	.L7:
  38:.\main.c      ****         ADC_StartConvert();
 153              		.loc 1 38 0
 154 0018 FFF7FEFF 		bl	ADC_StartConvert
 155              	.LVL15:
  39:.\main.c      ****         ADC_IsEndConversion(ADC_WAIT_FOR_RESULT);
 156              		.loc 1 39 0
 157 001c 3046     		mov	r0, r6
 158 001e FFF7FEFF 		bl	ADC_IsEndConversion
 159              	.LVL16:
  40:.\main.c      ****         ADC_StopConvert();
 160              		.loc 1 40 0
 161 0022 FFF7FEFF 		bl	ADC_StopConvert
 162              	.LVL17:
  42:.\main.c      ****         adc = ADC_GetResult16();
 163              		.loc 1 42 0
 164 0026 FFF7FEFF 		bl	ADC_GetResult16
 165              	.LVL18:
 166 002a 80B2     		uxth	r0, r0
 167              	.LVL19:
  44:.\main.c      ****         if(adc > 255)
 168              		.loc 1 44 0
 169 002c FF28     		cmp	r0, #255
 170 002e 06D9     		bls	.L6
  46:.\main.c      ****             if(adc == 0xFFFF) 
 171              		.loc 1 46 0
 172 0030 4FF6FF73 		movw	r3, #65535
 173 0034 9842     		cmp	r0, r3
 174 0036 01D1     		bne	.L8
  48:.\main.c      ****                 adc = 0x00;
 175              		.loc 1 48 0
 176 0038 3046     		mov	r0, r6
 177              	.LVL20:
 178 003a 00E0     		b	.L6
 179              	.LVL21:
 180              	.L8:
  51:.\main.c      ****             adc = 0xFF; 
 181              		.loc 1 51 0
 182 003c FF20     		movs	r0, #255
 183              	.LVL22:
ARM GAS  C:\Users\mitchell\AppData\Local\Temp\ccz1MAGf.s 			page 6


 184              	.L6:
  54:.\main.c      ****         compare = (uint16)(1000 + ((float)((float)((float)adc / (float)255) * (float)1000)));
 185              		.loc 1 54 0
 186 003e FFF7FEFF 		bl	__aeabi_ui2f
 187              	.LVL23:
 188 0042 3946     		mov	r1, r7
 189 0044 FFF7FEFF 		bl	__aeabi_fdiv
 190              	.LVL24:
 191 0048 2946     		mov	r1, r5
 192 004a FFF7FEFF 		bl	__aeabi_fmul
 193              	.LVL25:
 194 004e 2946     		mov	r1, r5
 195 0050 FFF7FEFF 		bl	__aeabi_fadd
 196              	.LVL26:
 197 0054 FFF7FEFF 		bl	__aeabi_f2uiz
 198              	.LVL27:
 199 0058 84B2     		uxth	r4, r0
 200              	.LVL28:
  58:.\main.c      ****         PWM_WriteCompare(compare);
 201              		.loc 1 58 0
 202 005a 2046     		mov	r0, r4
 203 005c FFF7FEFF 		bl	PWM_WriteCompare
 204              	.LVL29:
  64:.\main.c      ****         pot_0.num = compare;
 205              		.loc 1 64 0
 206 0060 02A8     		add	r0, sp, #8
 207 0062 40F8044D 		str	r4, [r0, #-4]!
  65:.\main.c      ****         outputNum(pot_0.str);
 208              		.loc 1 65 0
 209 0066 FFF7FEFF 		bl	outputNum
 210              	.LVL30:
  66:.\main.c      ****         CyDelay(20);
 211              		.loc 1 66 0
 212 006a 1420     		movs	r0, #20
 213 006c FFF7FEFF 		bl	CyDelay
 214              	.LVL31:
  67:.\main.c      ****     }
 215              		.loc 1 67 0
 216 0070 D2E7     		b	.L7
 217              	.L10:
 218 0072 00BF     		.align	2
 219              	.L9:
 220 0074 00007F43 		.word	1132396544
 221 0078 00007A44 		.word	1148846080
 222              		.cfi_endproc
 223              	.LFE63:
 224              		.size	main, .-main
 225              		.text
 226              	.Letext0:
 227              		.file 2 "c:\\program files (x86)\\cypress\\psoc creator\\3.2\\psoc creator\\import\\gnu\\arm\\4.8.
 228              		.file 3 "c:\\program files (x86)\\cypress\\psoc creator\\3.2\\psoc creator\\import\\gnu\\arm\\4.8.
 229              		.file 4 "Generated_Source\\PSoC5/cytypes.h"
 230              		.file 5 "Generated_Source\\PSoC5/UART_1.h"
 231              		.file 6 "Generated_Source\\PSoC5/ADC.h"
 232              		.file 7 "Generated_Source\\PSoC5/PWM.h"
 233              		.file 8 "Generated_Source\\PSoC5/core_cm3.h"
 234              		.file 9 "Generated_Source\\PSoC5/CyLib.h"
ARM GAS  C:\Users\mitchell\AppData\Local\Temp\ccz1MAGf.s 			page 7

