ARM GAS  C:\Users\mitchell\AppData\Local\Temp\ccjoaezZ.s 			page 1


   1              		.syntax unified
   2              		.cpu cortex-m3
   3              		.fpu softvfp
   4              		.eabi_attribute 20, 1
   5              		.eabi_attribute 21, 1
   6              		.eabi_attribute 23, 3
   7              		.eabi_attribute 24, 1
   8              		.eabi_attribute 25, 1
   9              		.eabi_attribute 26, 1
  10              		.eabi_attribute 30, 1
  11              		.eabi_attribute 34, 1
  12              		.eabi_attribute 18, 4
  13              		.thumb
  14              		.file	"SERVO_OUT.c"
  15              		.text
  16              	.Ltext0:
  17              		.cfi_sections	.debug_frame
  18              		.section	.text.SERVO_OUT_Write,"ax",%progbits
  19              		.align	2
  20              		.global	SERVO_OUT_Write
  21              		.thumb
  22              		.thumb_func
  23              		.type	SERVO_OUT_Write, %function
  24              	SERVO_OUT_Write:
  25              	.LFB0:
  26              		.file 1 ".\\Generated_Source\\PSoC5\\SERVO_OUT.c"
   1:.\Generated_Source\PSoC5/SERVO_OUT.c **** /*******************************************************************************
   2:.\Generated_Source\PSoC5/SERVO_OUT.c **** * File Name: SERVO_OUT.c  
   3:.\Generated_Source\PSoC5/SERVO_OUT.c **** * Version 2.10
   4:.\Generated_Source\PSoC5/SERVO_OUT.c **** *
   5:.\Generated_Source\PSoC5/SERVO_OUT.c **** * Description:
   6:.\Generated_Source\PSoC5/SERVO_OUT.c **** *  This file contains API to enable firmware control of a Pins component.
   7:.\Generated_Source\PSoC5/SERVO_OUT.c **** *
   8:.\Generated_Source\PSoC5/SERVO_OUT.c **** * Note:
   9:.\Generated_Source\PSoC5/SERVO_OUT.c **** *
  10:.\Generated_Source\PSoC5/SERVO_OUT.c **** ********************************************************************************
  11:.\Generated_Source\PSoC5/SERVO_OUT.c **** * Copyright 2008-2014, Cypress Semiconductor Corporation.  All rights reserved.
  12:.\Generated_Source\PSoC5/SERVO_OUT.c **** * You may use this file only in accordance with the license, terms, conditions, 
  13:.\Generated_Source\PSoC5/SERVO_OUT.c **** * disclaimers, and limitations in the end user license agreement accompanying 
  14:.\Generated_Source\PSoC5/SERVO_OUT.c **** * the software package with which this file was provided.
  15:.\Generated_Source\PSoC5/SERVO_OUT.c **** *******************************************************************************/
  16:.\Generated_Source\PSoC5/SERVO_OUT.c **** 
  17:.\Generated_Source\PSoC5/SERVO_OUT.c **** #include "cytypes.h"
  18:.\Generated_Source\PSoC5/SERVO_OUT.c **** #include "SERVO_OUT.h"
  19:.\Generated_Source\PSoC5/SERVO_OUT.c **** 
  20:.\Generated_Source\PSoC5/SERVO_OUT.c **** /* APIs are not generated for P15[7:6] on PSoC 5 */
  21:.\Generated_Source\PSoC5/SERVO_OUT.c **** #if !(CY_PSOC5A &&\
  22:.\Generated_Source\PSoC5/SERVO_OUT.c **** 	 SERVO_OUT__PORT == 15 && ((SERVO_OUT__MASK & 0xC0) != 0))
  23:.\Generated_Source\PSoC5/SERVO_OUT.c **** 
  24:.\Generated_Source\PSoC5/SERVO_OUT.c **** 
  25:.\Generated_Source\PSoC5/SERVO_OUT.c **** /*******************************************************************************
  26:.\Generated_Source\PSoC5/SERVO_OUT.c **** * Function Name: SERVO_OUT_Write
  27:.\Generated_Source\PSoC5/SERVO_OUT.c **** ********************************************************************************
  28:.\Generated_Source\PSoC5/SERVO_OUT.c **** *
  29:.\Generated_Source\PSoC5/SERVO_OUT.c **** * Summary:
  30:.\Generated_Source\PSoC5/SERVO_OUT.c **** *  Assign a new value to the digital port's data output register.  
  31:.\Generated_Source\PSoC5/SERVO_OUT.c **** *
ARM GAS  C:\Users\mitchell\AppData\Local\Temp\ccjoaezZ.s 			page 2


  32:.\Generated_Source\PSoC5/SERVO_OUT.c **** * Parameters:  
  33:.\Generated_Source\PSoC5/SERVO_OUT.c **** *  prtValue:  The value to be assigned to the Digital Port. 
  34:.\Generated_Source\PSoC5/SERVO_OUT.c **** *
  35:.\Generated_Source\PSoC5/SERVO_OUT.c **** * Return: 
  36:.\Generated_Source\PSoC5/SERVO_OUT.c **** *  None
  37:.\Generated_Source\PSoC5/SERVO_OUT.c **** *  
  38:.\Generated_Source\PSoC5/SERVO_OUT.c **** *******************************************************************************/
  39:.\Generated_Source\PSoC5/SERVO_OUT.c **** void SERVO_OUT_Write(uint8 value) 
  40:.\Generated_Source\PSoC5/SERVO_OUT.c **** {
  27              		.loc 1 40 0
  28              		.cfi_startproc
  29              		@ args = 0, pretend = 0, frame = 0
  30              		@ frame_needed = 0, uses_anonymous_args = 0
  31              		@ link register save eliminated.
  32              	.LVL0:
  41:.\Generated_Source\PSoC5/SERVO_OUT.c ****     uint8 staticBits = (SERVO_OUT_DR & (uint8)(~SERVO_OUT_MASK));
  33              		.loc 1 41 0
  34 0000 044B     		ldr	r3, .L2
  35 0002 1A78     		ldrb	r2, [r3]	@ zero_extendqisi2
  36 0004 02F0BF02 		and	r2, r2, #191
  37              	.LVL1:
  42:.\Generated_Source\PSoC5/SERVO_OUT.c ****     SERVO_OUT_DR = staticBits | ((uint8)(value << SERVO_OUT_SHIFT) & SERVO_OUT_MASK);
  38              		.loc 1 42 0
  39 0008 8001     		lsls	r0, r0, #6
  40              	.LVL2:
  41 000a 00F04000 		and	r0, r0, #64
  42 000e 0243     		orrs	r2, r2, r0
  43              	.LVL3:
  44 0010 1A70     		strb	r2, [r3]
  45 0012 7047     		bx	lr
  46              	.L3:
  47              		.align	2
  48              	.L2:
  49 0014 10510040 		.word	1073762576
  50              		.cfi_endproc
  51              	.LFE0:
  52              		.size	SERVO_OUT_Write, .-SERVO_OUT_Write
  53              		.section	.text.SERVO_OUT_SetDriveMode,"ax",%progbits
  54              		.align	2
  55              		.global	SERVO_OUT_SetDriveMode
  56              		.thumb
  57              		.thumb_func
  58              		.type	SERVO_OUT_SetDriveMode, %function
  59              	SERVO_OUT_SetDriveMode:
  60              	.LFB1:
  43:.\Generated_Source\PSoC5/SERVO_OUT.c **** }
  44:.\Generated_Source\PSoC5/SERVO_OUT.c **** 
  45:.\Generated_Source\PSoC5/SERVO_OUT.c **** 
  46:.\Generated_Source\PSoC5/SERVO_OUT.c **** /*******************************************************************************
  47:.\Generated_Source\PSoC5/SERVO_OUT.c **** * Function Name: SERVO_OUT_SetDriveMode
  48:.\Generated_Source\PSoC5/SERVO_OUT.c **** ********************************************************************************
  49:.\Generated_Source\PSoC5/SERVO_OUT.c **** *
  50:.\Generated_Source\PSoC5/SERVO_OUT.c **** * Summary:
  51:.\Generated_Source\PSoC5/SERVO_OUT.c **** *  Change the drive mode on the pins of the port.
  52:.\Generated_Source\PSoC5/SERVO_OUT.c **** * 
  53:.\Generated_Source\PSoC5/SERVO_OUT.c **** * Parameters:  
  54:.\Generated_Source\PSoC5/SERVO_OUT.c **** *  mode:  Change the pins to one of the following drive modes.
ARM GAS  C:\Users\mitchell\AppData\Local\Temp\ccjoaezZ.s 			page 3


  55:.\Generated_Source\PSoC5/SERVO_OUT.c **** *
  56:.\Generated_Source\PSoC5/SERVO_OUT.c **** *  SERVO_OUT_DM_STRONG     Strong Drive 
  57:.\Generated_Source\PSoC5/SERVO_OUT.c **** *  SERVO_OUT_DM_OD_HI      Open Drain, Drives High 
  58:.\Generated_Source\PSoC5/SERVO_OUT.c **** *  SERVO_OUT_DM_OD_LO      Open Drain, Drives Low 
  59:.\Generated_Source\PSoC5/SERVO_OUT.c **** *  SERVO_OUT_DM_RES_UP     Resistive Pull Up 
  60:.\Generated_Source\PSoC5/SERVO_OUT.c **** *  SERVO_OUT_DM_RES_DWN    Resistive Pull Down 
  61:.\Generated_Source\PSoC5/SERVO_OUT.c **** *  SERVO_OUT_DM_RES_UPDWN  Resistive Pull Up/Down 
  62:.\Generated_Source\PSoC5/SERVO_OUT.c **** *  SERVO_OUT_DM_DIG_HIZ    High Impedance Digital 
  63:.\Generated_Source\PSoC5/SERVO_OUT.c **** *  SERVO_OUT_DM_ALG_HIZ    High Impedance Analog 
  64:.\Generated_Source\PSoC5/SERVO_OUT.c **** *
  65:.\Generated_Source\PSoC5/SERVO_OUT.c **** * Return: 
  66:.\Generated_Source\PSoC5/SERVO_OUT.c **** *  None
  67:.\Generated_Source\PSoC5/SERVO_OUT.c **** *
  68:.\Generated_Source\PSoC5/SERVO_OUT.c **** *******************************************************************************/
  69:.\Generated_Source\PSoC5/SERVO_OUT.c **** void SERVO_OUT_SetDriveMode(uint8 mode) 
  70:.\Generated_Source\PSoC5/SERVO_OUT.c **** {
  61              		.loc 1 70 0
  62              		.cfi_startproc
  63              		@ args = 0, pretend = 0, frame = 0
  64              		@ frame_needed = 0, uses_anonymous_args = 0
  65              		@ link register save eliminated.
  66              	.LVL4:
  71:.\Generated_Source\PSoC5/SERVO_OUT.c **** 	CyPins_SetPinDriveMode(SERVO_OUT_0, mode);
  67              		.loc 1 71 0
  68 0000 044B     		ldr	r3, .L5
  69 0002 1A78     		ldrb	r2, [r3]	@ zero_extendqisi2
  70 0004 02F0F102 		and	r2, r2, #241
  71 0008 00F00E00 		and	r0, r0, #14
  72              	.LVL5:
  73 000c 0243     		orrs	r2, r2, r0
  74 000e 1A70     		strb	r2, [r3]
  75 0010 7047     		bx	lr
  76              	.L6:
  77 0012 00BF     		.align	2
  78              	.L5:
  79 0014 0E500040 		.word	1073762318
  80              		.cfi_endproc
  81              	.LFE1:
  82              		.size	SERVO_OUT_SetDriveMode, .-SERVO_OUT_SetDriveMode
  83              		.section	.text.SERVO_OUT_Read,"ax",%progbits
  84              		.align	2
  85              		.global	SERVO_OUT_Read
  86              		.thumb
  87              		.thumb_func
  88              		.type	SERVO_OUT_Read, %function
  89              	SERVO_OUT_Read:
  90              	.LFB2:
  72:.\Generated_Source\PSoC5/SERVO_OUT.c **** }
  73:.\Generated_Source\PSoC5/SERVO_OUT.c **** 
  74:.\Generated_Source\PSoC5/SERVO_OUT.c **** 
  75:.\Generated_Source\PSoC5/SERVO_OUT.c **** /*******************************************************************************
  76:.\Generated_Source\PSoC5/SERVO_OUT.c **** * Function Name: SERVO_OUT_Read
  77:.\Generated_Source\PSoC5/SERVO_OUT.c **** ********************************************************************************
  78:.\Generated_Source\PSoC5/SERVO_OUT.c **** *
  79:.\Generated_Source\PSoC5/SERVO_OUT.c **** * Summary:
  80:.\Generated_Source\PSoC5/SERVO_OUT.c **** *  Read the current value on the pins of the Digital Port in right justified 
  81:.\Generated_Source\PSoC5/SERVO_OUT.c **** *  form.
ARM GAS  C:\Users\mitchell\AppData\Local\Temp\ccjoaezZ.s 			page 4


  82:.\Generated_Source\PSoC5/SERVO_OUT.c **** *
  83:.\Generated_Source\PSoC5/SERVO_OUT.c **** * Parameters:  
  84:.\Generated_Source\PSoC5/SERVO_OUT.c **** *  None
  85:.\Generated_Source\PSoC5/SERVO_OUT.c **** *
  86:.\Generated_Source\PSoC5/SERVO_OUT.c **** * Return: 
  87:.\Generated_Source\PSoC5/SERVO_OUT.c **** *  Returns the current value of the Digital Port as a right justified number
  88:.\Generated_Source\PSoC5/SERVO_OUT.c **** *  
  89:.\Generated_Source\PSoC5/SERVO_OUT.c **** * Note:
  90:.\Generated_Source\PSoC5/SERVO_OUT.c **** *  Macro SERVO_OUT_ReadPS calls this function. 
  91:.\Generated_Source\PSoC5/SERVO_OUT.c **** *  
  92:.\Generated_Source\PSoC5/SERVO_OUT.c **** *******************************************************************************/
  93:.\Generated_Source\PSoC5/SERVO_OUT.c **** uint8 SERVO_OUT_Read(void) 
  94:.\Generated_Source\PSoC5/SERVO_OUT.c **** {
  91              		.loc 1 94 0
  92              		.cfi_startproc
  93              		@ args = 0, pretend = 0, frame = 0
  94              		@ frame_needed = 0, uses_anonymous_args = 0
  95              		@ link register save eliminated.
  95:.\Generated_Source\PSoC5/SERVO_OUT.c ****     return (SERVO_OUT_PS & SERVO_OUT_MASK) >> SERVO_OUT_SHIFT;
  96              		.loc 1 95 0
  97 0000 024B     		ldr	r3, .L8
  98 0002 1878     		ldrb	r0, [r3]	@ zero_extendqisi2
  96:.\Generated_Source\PSoC5/SERVO_OUT.c **** }
  99              		.loc 1 96 0
 100 0004 C0F38010 		ubfx	r0, r0, #6, #1
 101 0008 7047     		bx	lr
 102              	.L9:
 103 000a 00BF     		.align	2
 104              	.L8:
 105 000c 11510040 		.word	1073762577
 106              		.cfi_endproc
 107              	.LFE2:
 108              		.size	SERVO_OUT_Read, .-SERVO_OUT_Read
 109              		.section	.text.SERVO_OUT_ReadDataReg,"ax",%progbits
 110              		.align	2
 111              		.global	SERVO_OUT_ReadDataReg
 112              		.thumb
 113              		.thumb_func
 114              		.type	SERVO_OUT_ReadDataReg, %function
 115              	SERVO_OUT_ReadDataReg:
 116              	.LFB3:
  97:.\Generated_Source\PSoC5/SERVO_OUT.c **** 
  98:.\Generated_Source\PSoC5/SERVO_OUT.c **** 
  99:.\Generated_Source\PSoC5/SERVO_OUT.c **** /*******************************************************************************
 100:.\Generated_Source\PSoC5/SERVO_OUT.c **** * Function Name: SERVO_OUT_ReadDataReg
 101:.\Generated_Source\PSoC5/SERVO_OUT.c **** ********************************************************************************
 102:.\Generated_Source\PSoC5/SERVO_OUT.c **** *
 103:.\Generated_Source\PSoC5/SERVO_OUT.c **** * Summary:
 104:.\Generated_Source\PSoC5/SERVO_OUT.c **** *  Read the current value assigned to a Digital Port's data output register
 105:.\Generated_Source\PSoC5/SERVO_OUT.c **** *
 106:.\Generated_Source\PSoC5/SERVO_OUT.c **** * Parameters:  
 107:.\Generated_Source\PSoC5/SERVO_OUT.c **** *  None 
 108:.\Generated_Source\PSoC5/SERVO_OUT.c **** *
 109:.\Generated_Source\PSoC5/SERVO_OUT.c **** * Return: 
 110:.\Generated_Source\PSoC5/SERVO_OUT.c **** *  Returns the current value assigned to the Digital Port's data output register
 111:.\Generated_Source\PSoC5/SERVO_OUT.c **** *  
 112:.\Generated_Source\PSoC5/SERVO_OUT.c **** *******************************************************************************/
ARM GAS  C:\Users\mitchell\AppData\Local\Temp\ccjoaezZ.s 			page 5


 113:.\Generated_Source\PSoC5/SERVO_OUT.c **** uint8 SERVO_OUT_ReadDataReg(void) 
 114:.\Generated_Source\PSoC5/SERVO_OUT.c **** {
 117              		.loc 1 114 0
 118              		.cfi_startproc
 119              		@ args = 0, pretend = 0, frame = 0
 120              		@ frame_needed = 0, uses_anonymous_args = 0
 121              		@ link register save eliminated.
 115:.\Generated_Source\PSoC5/SERVO_OUT.c ****     return (SERVO_OUT_DR & SERVO_OUT_MASK) >> SERVO_OUT_SHIFT;
 122              		.loc 1 115 0
 123 0000 024B     		ldr	r3, .L11
 124 0002 1878     		ldrb	r0, [r3]	@ zero_extendqisi2
 116:.\Generated_Source\PSoC5/SERVO_OUT.c **** }
 125              		.loc 1 116 0
 126 0004 C0F38010 		ubfx	r0, r0, #6, #1
 127 0008 7047     		bx	lr
 128              	.L12:
 129 000a 00BF     		.align	2
 130              	.L11:
 131 000c 10510040 		.word	1073762576
 132              		.cfi_endproc
 133              	.LFE3:
 134              		.size	SERVO_OUT_ReadDataReg, .-SERVO_OUT_ReadDataReg
 135              		.text
 136              	.Letext0:
 137              		.file 2 ".\\Generated_Source\\PSoC5\\cytypes.h"