ARM GAS  C:\Users\mitchell\AppData\Local\Temp\ccmfL7sc.s 			page 1


   1              		.syntax unified
   2              		.cpu cortex-m3
   3              		.fpu softvfp
   4              		.eabi_attribute 20, 1
   5              		.eabi_attribute 21, 1
   6              		.eabi_attribute 23, 3
   7              		.eabi_attribute 24, 1
   8              		.eabi_attribute 25, 1
   9              		.eabi_attribute 26, 1
  10              		.eabi_attribute 30, 1
  11              		.eabi_attribute 34, 1
  12              		.eabi_attribute 18, 4
  13              		.thumb
  14              		.file	"ADC_DelSig_1_IRQ.c"
  15              		.text
  16              	.Ltext0:
  17              		.cfi_sections	.debug_frame
  18              		.section	.text.ADC_DelSig_1_IRQ_Interrupt,"ax",%progbits
  19              		.align	2
  20              		.global	ADC_DelSig_1_IRQ_Interrupt
  21              		.thumb
  22              		.thumb_func
  23              		.type	ADC_DelSig_1_IRQ_Interrupt, %function
  24              	ADC_DelSig_1_IRQ_Interrupt:
  25              	.LFB3:
  26              		.file 1 ".\\Generated_Source\\PSoC5\\ADC_DelSig_1_IRQ.c"
   1:.\Generated_Source\PSoC5/ADC_DelSig_1_IRQ.c **** /*******************************************************************************
   2:.\Generated_Source\PSoC5/ADC_DelSig_1_IRQ.c **** * File Name: ADC_DelSig_1_IRQ.c  
   3:.\Generated_Source\PSoC5/ADC_DelSig_1_IRQ.c **** * Version 1.70
   4:.\Generated_Source\PSoC5/ADC_DelSig_1_IRQ.c **** *
   5:.\Generated_Source\PSoC5/ADC_DelSig_1_IRQ.c **** *  Description:
   6:.\Generated_Source\PSoC5/ADC_DelSig_1_IRQ.c **** *   API for controlling the state of an interrupt.
   7:.\Generated_Source\PSoC5/ADC_DelSig_1_IRQ.c **** *
   8:.\Generated_Source\PSoC5/ADC_DelSig_1_IRQ.c **** *
   9:.\Generated_Source\PSoC5/ADC_DelSig_1_IRQ.c **** *  Note:
  10:.\Generated_Source\PSoC5/ADC_DelSig_1_IRQ.c **** *
  11:.\Generated_Source\PSoC5/ADC_DelSig_1_IRQ.c **** ********************************************************************************
  12:.\Generated_Source\PSoC5/ADC_DelSig_1_IRQ.c **** * Copyright 2008-2015, Cypress Semiconductor Corporation.  All rights reserved.
  13:.\Generated_Source\PSoC5/ADC_DelSig_1_IRQ.c **** * You may use this file only in accordance with the license, terms, conditions, 
  14:.\Generated_Source\PSoC5/ADC_DelSig_1_IRQ.c **** * disclaimers, and limitations in the end user license agreement accompanying 
  15:.\Generated_Source\PSoC5/ADC_DelSig_1_IRQ.c **** * the software package with which this file was provided.
  16:.\Generated_Source\PSoC5/ADC_DelSig_1_IRQ.c **** *******************************************************************************/
  17:.\Generated_Source\PSoC5/ADC_DelSig_1_IRQ.c **** 
  18:.\Generated_Source\PSoC5/ADC_DelSig_1_IRQ.c **** 
  19:.\Generated_Source\PSoC5/ADC_DelSig_1_IRQ.c **** #include <cydevice_trm.h>
  20:.\Generated_Source\PSoC5/ADC_DelSig_1_IRQ.c **** #include <CyLib.h>
  21:.\Generated_Source\PSoC5/ADC_DelSig_1_IRQ.c **** #include <ADC_DelSig_1_IRQ.h>
  22:.\Generated_Source\PSoC5/ADC_DelSig_1_IRQ.c **** 
  23:.\Generated_Source\PSoC5/ADC_DelSig_1_IRQ.c **** #if !defined(ADC_DelSig_1_IRQ__REMOVED) /* Check for removal by optimization */
  24:.\Generated_Source\PSoC5/ADC_DelSig_1_IRQ.c **** 
  25:.\Generated_Source\PSoC5/ADC_DelSig_1_IRQ.c **** /*******************************************************************************
  26:.\Generated_Source\PSoC5/ADC_DelSig_1_IRQ.c **** *  Place your includes, defines and code here 
  27:.\Generated_Source\PSoC5/ADC_DelSig_1_IRQ.c **** ********************************************************************************/
  28:.\Generated_Source\PSoC5/ADC_DelSig_1_IRQ.c **** /* `#START ADC_DelSig_1_IRQ_intc` */
  29:.\Generated_Source\PSoC5/ADC_DelSig_1_IRQ.c **** 
  30:.\Generated_Source\PSoC5/ADC_DelSig_1_IRQ.c **** /* `#END` */
  31:.\Generated_Source\PSoC5/ADC_DelSig_1_IRQ.c **** 
ARM GAS  C:\Users\mitchell\AppData\Local\Temp\ccmfL7sc.s 			page 2


  32:.\Generated_Source\PSoC5/ADC_DelSig_1_IRQ.c **** #ifndef CYINT_IRQ_BASE
  33:.\Generated_Source\PSoC5/ADC_DelSig_1_IRQ.c **** #define CYINT_IRQ_BASE      16
  34:.\Generated_Source\PSoC5/ADC_DelSig_1_IRQ.c **** #endif /* CYINT_IRQ_BASE */
  35:.\Generated_Source\PSoC5/ADC_DelSig_1_IRQ.c **** #ifndef CYINT_VECT_TABLE
  36:.\Generated_Source\PSoC5/ADC_DelSig_1_IRQ.c **** #define CYINT_VECT_TABLE    ((cyisraddress **) CYREG_NVIC_VECT_OFFSET)
  37:.\Generated_Source\PSoC5/ADC_DelSig_1_IRQ.c **** #endif /* CYINT_VECT_TABLE */
  38:.\Generated_Source\PSoC5/ADC_DelSig_1_IRQ.c **** 
  39:.\Generated_Source\PSoC5/ADC_DelSig_1_IRQ.c **** /* Declared in startup, used to set unused interrupts to. */
  40:.\Generated_Source\PSoC5/ADC_DelSig_1_IRQ.c **** CY_ISR_PROTO(IntDefaultHandler);
  41:.\Generated_Source\PSoC5/ADC_DelSig_1_IRQ.c **** 
  42:.\Generated_Source\PSoC5/ADC_DelSig_1_IRQ.c **** 
  43:.\Generated_Source\PSoC5/ADC_DelSig_1_IRQ.c **** /*******************************************************************************
  44:.\Generated_Source\PSoC5/ADC_DelSig_1_IRQ.c **** * Function Name: ADC_DelSig_1_IRQ_Start
  45:.\Generated_Source\PSoC5/ADC_DelSig_1_IRQ.c **** ********************************************************************************
  46:.\Generated_Source\PSoC5/ADC_DelSig_1_IRQ.c **** *
  47:.\Generated_Source\PSoC5/ADC_DelSig_1_IRQ.c **** * Summary:
  48:.\Generated_Source\PSoC5/ADC_DelSig_1_IRQ.c **** *  Set up the interrupt and enable it. This function disables the interrupt, 
  49:.\Generated_Source\PSoC5/ADC_DelSig_1_IRQ.c **** *  sets the default interrupt vector, sets the priority from the value in the
  50:.\Generated_Source\PSoC5/ADC_DelSig_1_IRQ.c **** *  Design Wide Resources Interrupt Editor, then enables the interrupt to the 
  51:.\Generated_Source\PSoC5/ADC_DelSig_1_IRQ.c **** *  interrupt controller.
  52:.\Generated_Source\PSoC5/ADC_DelSig_1_IRQ.c **** *
  53:.\Generated_Source\PSoC5/ADC_DelSig_1_IRQ.c **** * Parameters:  
  54:.\Generated_Source\PSoC5/ADC_DelSig_1_IRQ.c **** *   None
  55:.\Generated_Source\PSoC5/ADC_DelSig_1_IRQ.c **** *
  56:.\Generated_Source\PSoC5/ADC_DelSig_1_IRQ.c **** * Return:
  57:.\Generated_Source\PSoC5/ADC_DelSig_1_IRQ.c **** *   None
  58:.\Generated_Source\PSoC5/ADC_DelSig_1_IRQ.c **** *
  59:.\Generated_Source\PSoC5/ADC_DelSig_1_IRQ.c **** *******************************************************************************/
  60:.\Generated_Source\PSoC5/ADC_DelSig_1_IRQ.c **** void ADC_DelSig_1_IRQ_Start(void)
  61:.\Generated_Source\PSoC5/ADC_DelSig_1_IRQ.c **** {
  62:.\Generated_Source\PSoC5/ADC_DelSig_1_IRQ.c ****     /* For all we know the interrupt is active. */
  63:.\Generated_Source\PSoC5/ADC_DelSig_1_IRQ.c ****     ADC_DelSig_1_IRQ_Disable();
  64:.\Generated_Source\PSoC5/ADC_DelSig_1_IRQ.c **** 
  65:.\Generated_Source\PSoC5/ADC_DelSig_1_IRQ.c ****     /* Set the ISR to point to the ADC_DelSig_1_IRQ Interrupt. */
  66:.\Generated_Source\PSoC5/ADC_DelSig_1_IRQ.c ****     ADC_DelSig_1_IRQ_SetVector(&ADC_DelSig_1_IRQ_Interrupt);
  67:.\Generated_Source\PSoC5/ADC_DelSig_1_IRQ.c **** 
  68:.\Generated_Source\PSoC5/ADC_DelSig_1_IRQ.c ****     /* Set the priority. */
  69:.\Generated_Source\PSoC5/ADC_DelSig_1_IRQ.c ****     ADC_DelSig_1_IRQ_SetPriority((uint8)ADC_DelSig_1_IRQ_INTC_PRIOR_NUMBER);
  70:.\Generated_Source\PSoC5/ADC_DelSig_1_IRQ.c **** 
  71:.\Generated_Source\PSoC5/ADC_DelSig_1_IRQ.c ****     /* Enable it. */
  72:.\Generated_Source\PSoC5/ADC_DelSig_1_IRQ.c ****     ADC_DelSig_1_IRQ_Enable();
  73:.\Generated_Source\PSoC5/ADC_DelSig_1_IRQ.c **** }
  74:.\Generated_Source\PSoC5/ADC_DelSig_1_IRQ.c **** 
  75:.\Generated_Source\PSoC5/ADC_DelSig_1_IRQ.c **** 
  76:.\Generated_Source\PSoC5/ADC_DelSig_1_IRQ.c **** /*******************************************************************************
  77:.\Generated_Source\PSoC5/ADC_DelSig_1_IRQ.c **** * Function Name: ADC_DelSig_1_IRQ_StartEx
  78:.\Generated_Source\PSoC5/ADC_DelSig_1_IRQ.c **** ********************************************************************************
  79:.\Generated_Source\PSoC5/ADC_DelSig_1_IRQ.c **** *
  80:.\Generated_Source\PSoC5/ADC_DelSig_1_IRQ.c **** * Summary:
  81:.\Generated_Source\PSoC5/ADC_DelSig_1_IRQ.c **** *  Sets up the interrupt and enables it. This function disables the interrupt,
  82:.\Generated_Source\PSoC5/ADC_DelSig_1_IRQ.c **** *  sets the interrupt vector based on the address passed in, sets the priority 
  83:.\Generated_Source\PSoC5/ADC_DelSig_1_IRQ.c **** *  from the value in the Design Wide Resources Interrupt Editor, then enables 
  84:.\Generated_Source\PSoC5/ADC_DelSig_1_IRQ.c **** *  the interrupt to the interrupt controller.
  85:.\Generated_Source\PSoC5/ADC_DelSig_1_IRQ.c **** *  
  86:.\Generated_Source\PSoC5/ADC_DelSig_1_IRQ.c **** *  When defining ISR functions, the CY_ISR and CY_ISR_PROTO macros should be 
  87:.\Generated_Source\PSoC5/ADC_DelSig_1_IRQ.c **** *  used to provide consistent definition across compilers:
  88:.\Generated_Source\PSoC5/ADC_DelSig_1_IRQ.c **** *  
ARM GAS  C:\Users\mitchell\AppData\Local\Temp\ccmfL7sc.s 			page 3


  89:.\Generated_Source\PSoC5/ADC_DelSig_1_IRQ.c **** *  Function definition example:
  90:.\Generated_Source\PSoC5/ADC_DelSig_1_IRQ.c **** *   CY_ISR(MyISR)
  91:.\Generated_Source\PSoC5/ADC_DelSig_1_IRQ.c **** *   {
  92:.\Generated_Source\PSoC5/ADC_DelSig_1_IRQ.c **** *   }
  93:.\Generated_Source\PSoC5/ADC_DelSig_1_IRQ.c **** *   Function prototype example:
  94:.\Generated_Source\PSoC5/ADC_DelSig_1_IRQ.c **** *   CY_ISR_PROTO(MyISR);
  95:.\Generated_Source\PSoC5/ADC_DelSig_1_IRQ.c **** *
  96:.\Generated_Source\PSoC5/ADC_DelSig_1_IRQ.c **** * Parameters:  
  97:.\Generated_Source\PSoC5/ADC_DelSig_1_IRQ.c **** *   address: Address of the ISR to set in the interrupt vector table.
  98:.\Generated_Source\PSoC5/ADC_DelSig_1_IRQ.c **** *
  99:.\Generated_Source\PSoC5/ADC_DelSig_1_IRQ.c **** * Return:
 100:.\Generated_Source\PSoC5/ADC_DelSig_1_IRQ.c **** *   None
 101:.\Generated_Source\PSoC5/ADC_DelSig_1_IRQ.c **** *
 102:.\Generated_Source\PSoC5/ADC_DelSig_1_IRQ.c **** *******************************************************************************/
 103:.\Generated_Source\PSoC5/ADC_DelSig_1_IRQ.c **** void ADC_DelSig_1_IRQ_StartEx(cyisraddress address)
 104:.\Generated_Source\PSoC5/ADC_DelSig_1_IRQ.c **** {
 105:.\Generated_Source\PSoC5/ADC_DelSig_1_IRQ.c ****     /* For all we know the interrupt is active. */
 106:.\Generated_Source\PSoC5/ADC_DelSig_1_IRQ.c ****     ADC_DelSig_1_IRQ_Disable();
 107:.\Generated_Source\PSoC5/ADC_DelSig_1_IRQ.c **** 
 108:.\Generated_Source\PSoC5/ADC_DelSig_1_IRQ.c ****     /* Set the ISR to point to the ADC_DelSig_1_IRQ Interrupt. */
 109:.\Generated_Source\PSoC5/ADC_DelSig_1_IRQ.c ****     ADC_DelSig_1_IRQ_SetVector(address);
 110:.\Generated_Source\PSoC5/ADC_DelSig_1_IRQ.c **** 
 111:.\Generated_Source\PSoC5/ADC_DelSig_1_IRQ.c ****     /* Set the priority. */
 112:.\Generated_Source\PSoC5/ADC_DelSig_1_IRQ.c ****     ADC_DelSig_1_IRQ_SetPriority((uint8)ADC_DelSig_1_IRQ_INTC_PRIOR_NUMBER);
 113:.\Generated_Source\PSoC5/ADC_DelSig_1_IRQ.c **** 
 114:.\Generated_Source\PSoC5/ADC_DelSig_1_IRQ.c ****     /* Enable it. */
 115:.\Generated_Source\PSoC5/ADC_DelSig_1_IRQ.c ****     ADC_DelSig_1_IRQ_Enable();
 116:.\Generated_Source\PSoC5/ADC_DelSig_1_IRQ.c **** }
 117:.\Generated_Source\PSoC5/ADC_DelSig_1_IRQ.c **** 
 118:.\Generated_Source\PSoC5/ADC_DelSig_1_IRQ.c **** 
 119:.\Generated_Source\PSoC5/ADC_DelSig_1_IRQ.c **** /*******************************************************************************
 120:.\Generated_Source\PSoC5/ADC_DelSig_1_IRQ.c **** * Function Name: ADC_DelSig_1_IRQ_Stop
 121:.\Generated_Source\PSoC5/ADC_DelSig_1_IRQ.c **** ********************************************************************************
 122:.\Generated_Source\PSoC5/ADC_DelSig_1_IRQ.c **** *
 123:.\Generated_Source\PSoC5/ADC_DelSig_1_IRQ.c **** * Summary:
 124:.\Generated_Source\PSoC5/ADC_DelSig_1_IRQ.c **** *   Disables and removes the interrupt.
 125:.\Generated_Source\PSoC5/ADC_DelSig_1_IRQ.c **** *
 126:.\Generated_Source\PSoC5/ADC_DelSig_1_IRQ.c **** * Parameters:  
 127:.\Generated_Source\PSoC5/ADC_DelSig_1_IRQ.c **** *   None
 128:.\Generated_Source\PSoC5/ADC_DelSig_1_IRQ.c **** *
 129:.\Generated_Source\PSoC5/ADC_DelSig_1_IRQ.c **** * Return:
 130:.\Generated_Source\PSoC5/ADC_DelSig_1_IRQ.c **** *   None
 131:.\Generated_Source\PSoC5/ADC_DelSig_1_IRQ.c **** *
 132:.\Generated_Source\PSoC5/ADC_DelSig_1_IRQ.c **** *******************************************************************************/
 133:.\Generated_Source\PSoC5/ADC_DelSig_1_IRQ.c **** void ADC_DelSig_1_IRQ_Stop(void)
 134:.\Generated_Source\PSoC5/ADC_DelSig_1_IRQ.c **** {
 135:.\Generated_Source\PSoC5/ADC_DelSig_1_IRQ.c ****     /* Disable this interrupt. */
 136:.\Generated_Source\PSoC5/ADC_DelSig_1_IRQ.c ****     ADC_DelSig_1_IRQ_Disable();
 137:.\Generated_Source\PSoC5/ADC_DelSig_1_IRQ.c **** 
 138:.\Generated_Source\PSoC5/ADC_DelSig_1_IRQ.c ****     /* Set the ISR to point to the passive one. */
 139:.\Generated_Source\PSoC5/ADC_DelSig_1_IRQ.c ****     ADC_DelSig_1_IRQ_SetVector(&IntDefaultHandler);
 140:.\Generated_Source\PSoC5/ADC_DelSig_1_IRQ.c **** }
 141:.\Generated_Source\PSoC5/ADC_DelSig_1_IRQ.c **** 
 142:.\Generated_Source\PSoC5/ADC_DelSig_1_IRQ.c **** 
 143:.\Generated_Source\PSoC5/ADC_DelSig_1_IRQ.c **** /*******************************************************************************
 144:.\Generated_Source\PSoC5/ADC_DelSig_1_IRQ.c **** * Function Name: ADC_DelSig_1_IRQ_Interrupt
 145:.\Generated_Source\PSoC5/ADC_DelSig_1_IRQ.c **** ********************************************************************************
ARM GAS  C:\Users\mitchell\AppData\Local\Temp\ccmfL7sc.s 			page 4


 146:.\Generated_Source\PSoC5/ADC_DelSig_1_IRQ.c **** *
 147:.\Generated_Source\PSoC5/ADC_DelSig_1_IRQ.c **** * Summary:
 148:.\Generated_Source\PSoC5/ADC_DelSig_1_IRQ.c **** *   The default Interrupt Service Routine for ADC_DelSig_1_IRQ.
 149:.\Generated_Source\PSoC5/ADC_DelSig_1_IRQ.c **** *
 150:.\Generated_Source\PSoC5/ADC_DelSig_1_IRQ.c **** *   Add custom code between the coments to keep the next version of this file
 151:.\Generated_Source\PSoC5/ADC_DelSig_1_IRQ.c **** *   from over writting your code.
 152:.\Generated_Source\PSoC5/ADC_DelSig_1_IRQ.c **** *
 153:.\Generated_Source\PSoC5/ADC_DelSig_1_IRQ.c **** * Parameters:  
 154:.\Generated_Source\PSoC5/ADC_DelSig_1_IRQ.c **** *
 155:.\Generated_Source\PSoC5/ADC_DelSig_1_IRQ.c **** * Return:
 156:.\Generated_Source\PSoC5/ADC_DelSig_1_IRQ.c **** *   None
 157:.\Generated_Source\PSoC5/ADC_DelSig_1_IRQ.c **** *
 158:.\Generated_Source\PSoC5/ADC_DelSig_1_IRQ.c **** *******************************************************************************/
 159:.\Generated_Source\PSoC5/ADC_DelSig_1_IRQ.c **** CY_ISR(ADC_DelSig_1_IRQ_Interrupt)
 160:.\Generated_Source\PSoC5/ADC_DelSig_1_IRQ.c **** {
  27              		.loc 1 160 0
  28              		.cfi_startproc
  29              		@ args = 0, pretend = 0, frame = 0
  30              		@ frame_needed = 0, uses_anonymous_args = 0
  31              		@ link register save eliminated.
  32 0000 7047     		bx	lr
  33              		.cfi_endproc
  34              	.LFE3:
  35              		.size	ADC_DelSig_1_IRQ_Interrupt, .-ADC_DelSig_1_IRQ_Interrupt
  36 0002 00BF     		.section	.text.ADC_DelSig_1_IRQ_SetVector,"ax",%progbits
  37              		.align	2
  38              		.global	ADC_DelSig_1_IRQ_SetVector
  39              		.thumb
  40              		.thumb_func
  41              		.type	ADC_DelSig_1_IRQ_SetVector, %function
  42              	ADC_DelSig_1_IRQ_SetVector:
  43              	.LFB4:
 161:.\Generated_Source\PSoC5/ADC_DelSig_1_IRQ.c ****     /*  Place your Interrupt code here. */
 162:.\Generated_Source\PSoC5/ADC_DelSig_1_IRQ.c ****     /* `#START ADC_DelSig_1_IRQ_Interrupt` */
 163:.\Generated_Source\PSoC5/ADC_DelSig_1_IRQ.c **** 
 164:.\Generated_Source\PSoC5/ADC_DelSig_1_IRQ.c ****     /* `#END` */
 165:.\Generated_Source\PSoC5/ADC_DelSig_1_IRQ.c **** }
 166:.\Generated_Source\PSoC5/ADC_DelSig_1_IRQ.c **** 
 167:.\Generated_Source\PSoC5/ADC_DelSig_1_IRQ.c **** 
 168:.\Generated_Source\PSoC5/ADC_DelSig_1_IRQ.c **** /*******************************************************************************
 169:.\Generated_Source\PSoC5/ADC_DelSig_1_IRQ.c **** * Function Name: ADC_DelSig_1_IRQ_SetVector
 170:.\Generated_Source\PSoC5/ADC_DelSig_1_IRQ.c **** ********************************************************************************
 171:.\Generated_Source\PSoC5/ADC_DelSig_1_IRQ.c **** *
 172:.\Generated_Source\PSoC5/ADC_DelSig_1_IRQ.c **** * Summary:
 173:.\Generated_Source\PSoC5/ADC_DelSig_1_IRQ.c **** *   Change the ISR vector for the Interrupt. Note calling ADC_DelSig_1_IRQ_Start
 174:.\Generated_Source\PSoC5/ADC_DelSig_1_IRQ.c **** *   will override any effect this method would have had. To set the vector 
 175:.\Generated_Source\PSoC5/ADC_DelSig_1_IRQ.c **** *   before the component has been started use ADC_DelSig_1_IRQ_StartEx instead.
 176:.\Generated_Source\PSoC5/ADC_DelSig_1_IRQ.c **** * 
 177:.\Generated_Source\PSoC5/ADC_DelSig_1_IRQ.c **** *   When defining ISR functions, the CY_ISR and CY_ISR_PROTO macros should be 
 178:.\Generated_Source\PSoC5/ADC_DelSig_1_IRQ.c **** *   used to provide consistent definition across compilers:
 179:.\Generated_Source\PSoC5/ADC_DelSig_1_IRQ.c **** *
 180:.\Generated_Source\PSoC5/ADC_DelSig_1_IRQ.c **** *   Function definition example:
 181:.\Generated_Source\PSoC5/ADC_DelSig_1_IRQ.c **** *   CY_ISR(MyISR)
 182:.\Generated_Source\PSoC5/ADC_DelSig_1_IRQ.c **** *   {
 183:.\Generated_Source\PSoC5/ADC_DelSig_1_IRQ.c **** *   }
 184:.\Generated_Source\PSoC5/ADC_DelSig_1_IRQ.c **** *
 185:.\Generated_Source\PSoC5/ADC_DelSig_1_IRQ.c **** *   Function prototype example:
ARM GAS  C:\Users\mitchell\AppData\Local\Temp\ccmfL7sc.s 			page 5


 186:.\Generated_Source\PSoC5/ADC_DelSig_1_IRQ.c **** *     CY_ISR_PROTO(MyISR);
 187:.\Generated_Source\PSoC5/ADC_DelSig_1_IRQ.c **** *
 188:.\Generated_Source\PSoC5/ADC_DelSig_1_IRQ.c **** * Parameters:
 189:.\Generated_Source\PSoC5/ADC_DelSig_1_IRQ.c **** *   address: Address of the ISR to set in the interrupt vector table.
 190:.\Generated_Source\PSoC5/ADC_DelSig_1_IRQ.c **** *
 191:.\Generated_Source\PSoC5/ADC_DelSig_1_IRQ.c **** * Return:
 192:.\Generated_Source\PSoC5/ADC_DelSig_1_IRQ.c **** *   None
 193:.\Generated_Source\PSoC5/ADC_DelSig_1_IRQ.c **** *
 194:.\Generated_Source\PSoC5/ADC_DelSig_1_IRQ.c **** *******************************************************************************/
 195:.\Generated_Source\PSoC5/ADC_DelSig_1_IRQ.c **** void ADC_DelSig_1_IRQ_SetVector(cyisraddress address)
 196:.\Generated_Source\PSoC5/ADC_DelSig_1_IRQ.c **** {
  44              		.loc 1 196 0
  45              		.cfi_startproc
  46              		@ args = 0, pretend = 0, frame = 0
  47              		@ frame_needed = 0, uses_anonymous_args = 0
  48              		@ link register save eliminated.
  49              	.LVL0:
 197:.\Generated_Source\PSoC5/ADC_DelSig_1_IRQ.c ****     cyisraddress * ramVectorTable;
 198:.\Generated_Source\PSoC5/ADC_DelSig_1_IRQ.c **** 
 199:.\Generated_Source\PSoC5/ADC_DelSig_1_IRQ.c ****     ramVectorTable = (cyisraddress *) *CYINT_VECT_TABLE;
  50              		.loc 1 199 0
  51 0000 024B     		ldr	r3, .L3
  52 0002 1B68     		ldr	r3, [r3]
  53              	.LVL1:
 200:.\Generated_Source\PSoC5/ADC_DelSig_1_IRQ.c **** 
 201:.\Generated_Source\PSoC5/ADC_DelSig_1_IRQ.c ****     ramVectorTable[CYINT_IRQ_BASE + (uint32)ADC_DelSig_1_IRQ__INTC_NUMBER] = address;
  54              		.loc 1 201 0
  55 0004 C3F8B400 		str	r0, [r3, #180]
  56 0008 7047     		bx	lr
  57              	.L4:
  58 000a 00BF     		.align	2
  59              	.L3:
  60 000c 08ED00E0 		.word	-536810232
  61              		.cfi_endproc
  62              	.LFE4:
  63              		.size	ADC_DelSig_1_IRQ_SetVector, .-ADC_DelSig_1_IRQ_SetVector
  64              		.section	.text.ADC_DelSig_1_IRQ_GetVector,"ax",%progbits
  65              		.align	2
  66              		.global	ADC_DelSig_1_IRQ_GetVector
  67              		.thumb
  68              		.thumb_func
  69              		.type	ADC_DelSig_1_IRQ_GetVector, %function
  70              	ADC_DelSig_1_IRQ_GetVector:
  71              	.LFB5:
 202:.\Generated_Source\PSoC5/ADC_DelSig_1_IRQ.c **** }
 203:.\Generated_Source\PSoC5/ADC_DelSig_1_IRQ.c **** 
 204:.\Generated_Source\PSoC5/ADC_DelSig_1_IRQ.c **** 
 205:.\Generated_Source\PSoC5/ADC_DelSig_1_IRQ.c **** /*******************************************************************************
 206:.\Generated_Source\PSoC5/ADC_DelSig_1_IRQ.c **** * Function Name: ADC_DelSig_1_IRQ_GetVector
 207:.\Generated_Source\PSoC5/ADC_DelSig_1_IRQ.c **** ********************************************************************************
 208:.\Generated_Source\PSoC5/ADC_DelSig_1_IRQ.c **** *
 209:.\Generated_Source\PSoC5/ADC_DelSig_1_IRQ.c **** * Summary:
 210:.\Generated_Source\PSoC5/ADC_DelSig_1_IRQ.c **** *   Gets the "address" of the current ISR vector for the Interrupt.
 211:.\Generated_Source\PSoC5/ADC_DelSig_1_IRQ.c **** *
 212:.\Generated_Source\PSoC5/ADC_DelSig_1_IRQ.c **** * Parameters:
 213:.\Generated_Source\PSoC5/ADC_DelSig_1_IRQ.c **** *   None
 214:.\Generated_Source\PSoC5/ADC_DelSig_1_IRQ.c **** *
ARM GAS  C:\Users\mitchell\AppData\Local\Temp\ccmfL7sc.s 			page 6


 215:.\Generated_Source\PSoC5/ADC_DelSig_1_IRQ.c **** * Return:
 216:.\Generated_Source\PSoC5/ADC_DelSig_1_IRQ.c **** *   Address of the ISR in the interrupt vector table.
 217:.\Generated_Source\PSoC5/ADC_DelSig_1_IRQ.c **** *
 218:.\Generated_Source\PSoC5/ADC_DelSig_1_IRQ.c **** *******************************************************************************/
 219:.\Generated_Source\PSoC5/ADC_DelSig_1_IRQ.c **** cyisraddress ADC_DelSig_1_IRQ_GetVector(void)
 220:.\Generated_Source\PSoC5/ADC_DelSig_1_IRQ.c **** {
  72              		.loc 1 220 0
  73              		.cfi_startproc
  74              		@ args = 0, pretend = 0, frame = 0
  75              		@ frame_needed = 0, uses_anonymous_args = 0
  76              		@ link register save eliminated.
 221:.\Generated_Source\PSoC5/ADC_DelSig_1_IRQ.c ****     cyisraddress * ramVectorTable;
 222:.\Generated_Source\PSoC5/ADC_DelSig_1_IRQ.c **** 
 223:.\Generated_Source\PSoC5/ADC_DelSig_1_IRQ.c ****     ramVectorTable = (cyisraddress *) *CYINT_VECT_TABLE;
  77              		.loc 1 223 0
  78 0000 024B     		ldr	r3, .L6
  79 0002 1B68     		ldr	r3, [r3]
  80              	.LVL2:
 224:.\Generated_Source\PSoC5/ADC_DelSig_1_IRQ.c **** 
 225:.\Generated_Source\PSoC5/ADC_DelSig_1_IRQ.c ****     return ramVectorTable[CYINT_IRQ_BASE + (uint32)ADC_DelSig_1_IRQ__INTC_NUMBER];
 226:.\Generated_Source\PSoC5/ADC_DelSig_1_IRQ.c **** }
  81              		.loc 1 226 0
  82 0004 D3F8B400 		ldr	r0, [r3, #180]
  83 0008 7047     		bx	lr
  84              	.L7:
  85 000a 00BF     		.align	2
  86              	.L6:
  87 000c 08ED00E0 		.word	-536810232
  88              		.cfi_endproc
  89              	.LFE5:
  90              		.size	ADC_DelSig_1_IRQ_GetVector, .-ADC_DelSig_1_IRQ_GetVector
  91              		.section	.text.ADC_DelSig_1_IRQ_SetPriority,"ax",%progbits
  92              		.align	2
  93              		.global	ADC_DelSig_1_IRQ_SetPriority
  94              		.thumb
  95              		.thumb_func
  96              		.type	ADC_DelSig_1_IRQ_SetPriority, %function
  97              	ADC_DelSig_1_IRQ_SetPriority:
  98              	.LFB6:
 227:.\Generated_Source\PSoC5/ADC_DelSig_1_IRQ.c **** 
 228:.\Generated_Source\PSoC5/ADC_DelSig_1_IRQ.c **** 
 229:.\Generated_Source\PSoC5/ADC_DelSig_1_IRQ.c **** /*******************************************************************************
 230:.\Generated_Source\PSoC5/ADC_DelSig_1_IRQ.c **** * Function Name: ADC_DelSig_1_IRQ_SetPriority
 231:.\Generated_Source\PSoC5/ADC_DelSig_1_IRQ.c **** ********************************************************************************
 232:.\Generated_Source\PSoC5/ADC_DelSig_1_IRQ.c **** *
 233:.\Generated_Source\PSoC5/ADC_DelSig_1_IRQ.c **** * Summary:
 234:.\Generated_Source\PSoC5/ADC_DelSig_1_IRQ.c **** *   Sets the Priority of the Interrupt. 
 235:.\Generated_Source\PSoC5/ADC_DelSig_1_IRQ.c **** *
 236:.\Generated_Source\PSoC5/ADC_DelSig_1_IRQ.c **** *   Note calling ADC_DelSig_1_IRQ_Start or ADC_DelSig_1_IRQ_StartEx will 
 237:.\Generated_Source\PSoC5/ADC_DelSig_1_IRQ.c **** *   override any effect this API would have had. This API should only be called
 238:.\Generated_Source\PSoC5/ADC_DelSig_1_IRQ.c **** *   after ADC_DelSig_1_IRQ_Start or ADC_DelSig_1_IRQ_StartEx has been called. 
 239:.\Generated_Source\PSoC5/ADC_DelSig_1_IRQ.c **** *   To set the initial priority for the component, use the Design-Wide Resources
 240:.\Generated_Source\PSoC5/ADC_DelSig_1_IRQ.c **** *   Interrupt Editor.
 241:.\Generated_Source\PSoC5/ADC_DelSig_1_IRQ.c **** *
 242:.\Generated_Source\PSoC5/ADC_DelSig_1_IRQ.c **** *   Note This API has no effect on Non-maskable interrupt NMI).
 243:.\Generated_Source\PSoC5/ADC_DelSig_1_IRQ.c **** *
 244:.\Generated_Source\PSoC5/ADC_DelSig_1_IRQ.c **** * Parameters:
ARM GAS  C:\Users\mitchell\AppData\Local\Temp\ccmfL7sc.s 			page 7


 245:.\Generated_Source\PSoC5/ADC_DelSig_1_IRQ.c **** *   priority: Priority of the interrupt, 0 being the highest priority
 246:.\Generated_Source\PSoC5/ADC_DelSig_1_IRQ.c **** *             PSoC 3 and PSoC 5LP: Priority is from 0 to 7.
 247:.\Generated_Source\PSoC5/ADC_DelSig_1_IRQ.c **** *             PSoC 4: Priority is from 0 to 3.
 248:.\Generated_Source\PSoC5/ADC_DelSig_1_IRQ.c **** *
 249:.\Generated_Source\PSoC5/ADC_DelSig_1_IRQ.c **** * Return:
 250:.\Generated_Source\PSoC5/ADC_DelSig_1_IRQ.c **** *   None
 251:.\Generated_Source\PSoC5/ADC_DelSig_1_IRQ.c **** *
 252:.\Generated_Source\PSoC5/ADC_DelSig_1_IRQ.c **** *******************************************************************************/
 253:.\Generated_Source\PSoC5/ADC_DelSig_1_IRQ.c **** void ADC_DelSig_1_IRQ_SetPriority(uint8 priority)
 254:.\Generated_Source\PSoC5/ADC_DelSig_1_IRQ.c **** {
  99              		.loc 1 254 0
 100              		.cfi_startproc
 101              		@ args = 0, pretend = 0, frame = 0
 102              		@ frame_needed = 0, uses_anonymous_args = 0
 103              		@ link register save eliminated.
 104              	.LVL3:
 255:.\Generated_Source\PSoC5/ADC_DelSig_1_IRQ.c ****     *ADC_DelSig_1_IRQ_INTC_PRIOR = priority << 5;
 105              		.loc 1 255 0
 106 0000 4001     		lsls	r0, r0, #5
 107              	.LVL4:
 108 0002 C0B2     		uxtb	r0, r0
 109 0004 014B     		ldr	r3, .L9
 110 0006 1870     		strb	r0, [r3]
 111 0008 7047     		bx	lr
 112              	.L10:
 113 000a 00BF     		.align	2
 114              	.L9:
 115 000c 1DE400E0 		.word	-536812515
 116              		.cfi_endproc
 117              	.LFE6:
 118              		.size	ADC_DelSig_1_IRQ_SetPriority, .-ADC_DelSig_1_IRQ_SetPriority
 119              		.section	.text.ADC_DelSig_1_IRQ_GetPriority,"ax",%progbits
 120              		.align	2
 121              		.global	ADC_DelSig_1_IRQ_GetPriority
 122              		.thumb
 123              		.thumb_func
 124              		.type	ADC_DelSig_1_IRQ_GetPriority, %function
 125              	ADC_DelSig_1_IRQ_GetPriority:
 126              	.LFB7:
 256:.\Generated_Source\PSoC5/ADC_DelSig_1_IRQ.c **** }
 257:.\Generated_Source\PSoC5/ADC_DelSig_1_IRQ.c **** 
 258:.\Generated_Source\PSoC5/ADC_DelSig_1_IRQ.c **** 
 259:.\Generated_Source\PSoC5/ADC_DelSig_1_IRQ.c **** /*******************************************************************************
 260:.\Generated_Source\PSoC5/ADC_DelSig_1_IRQ.c **** * Function Name: ADC_DelSig_1_IRQ_GetPriority
 261:.\Generated_Source\PSoC5/ADC_DelSig_1_IRQ.c **** ********************************************************************************
 262:.\Generated_Source\PSoC5/ADC_DelSig_1_IRQ.c **** *
 263:.\Generated_Source\PSoC5/ADC_DelSig_1_IRQ.c **** * Summary:
 264:.\Generated_Source\PSoC5/ADC_DelSig_1_IRQ.c **** *   Gets the Priority of the Interrupt.
 265:.\Generated_Source\PSoC5/ADC_DelSig_1_IRQ.c **** *
 266:.\Generated_Source\PSoC5/ADC_DelSig_1_IRQ.c **** * Parameters:
 267:.\Generated_Source\PSoC5/ADC_DelSig_1_IRQ.c **** *   None
 268:.\Generated_Source\PSoC5/ADC_DelSig_1_IRQ.c **** *
 269:.\Generated_Source\PSoC5/ADC_DelSig_1_IRQ.c **** * Return:
 270:.\Generated_Source\PSoC5/ADC_DelSig_1_IRQ.c **** *   Priority of the interrupt, 0 being the highest priority
 271:.\Generated_Source\PSoC5/ADC_DelSig_1_IRQ.c **** *    PSoC 3 and PSoC 5LP: Priority is from 0 to 7.
 272:.\Generated_Source\PSoC5/ADC_DelSig_1_IRQ.c **** *    PSoC 4: Priority is from 0 to 3.
 273:.\Generated_Source\PSoC5/ADC_DelSig_1_IRQ.c **** *
ARM GAS  C:\Users\mitchell\AppData\Local\Temp\ccmfL7sc.s 			page 8


 274:.\Generated_Source\PSoC5/ADC_DelSig_1_IRQ.c **** *******************************************************************************/
 275:.\Generated_Source\PSoC5/ADC_DelSig_1_IRQ.c **** uint8 ADC_DelSig_1_IRQ_GetPriority(void)
 276:.\Generated_Source\PSoC5/ADC_DelSig_1_IRQ.c **** {
 127              		.loc 1 276 0
 128              		.cfi_startproc
 129              		@ args = 0, pretend = 0, frame = 0
 130              		@ frame_needed = 0, uses_anonymous_args = 0
 131              		@ link register save eliminated.
 277:.\Generated_Source\PSoC5/ADC_DelSig_1_IRQ.c ****     uint8 priority;
 278:.\Generated_Source\PSoC5/ADC_DelSig_1_IRQ.c **** 
 279:.\Generated_Source\PSoC5/ADC_DelSig_1_IRQ.c **** 
 280:.\Generated_Source\PSoC5/ADC_DelSig_1_IRQ.c ****     priority = *ADC_DelSig_1_IRQ_INTC_PRIOR >> 5;
 132              		.loc 1 280 0
 133 0000 014B     		ldr	r3, .L12
 134 0002 1878     		ldrb	r0, [r3]	@ zero_extendqisi2
 135              	.LVL5:
 281:.\Generated_Source\PSoC5/ADC_DelSig_1_IRQ.c **** 
 282:.\Generated_Source\PSoC5/ADC_DelSig_1_IRQ.c ****     return priority;
 283:.\Generated_Source\PSoC5/ADC_DelSig_1_IRQ.c **** }
 136              		.loc 1 283 0
 137 0004 4009     		lsrs	r0, r0, #5
 138              	.LVL6:
 139 0006 7047     		bx	lr
 140              	.L13:
 141              		.align	2
 142              	.L12:
 143 0008 1DE400E0 		.word	-536812515
 144              		.cfi_endproc
 145              	.LFE7:
 146              		.size	ADC_DelSig_1_IRQ_GetPriority, .-ADC_DelSig_1_IRQ_GetPriority
 147              		.section	.text.ADC_DelSig_1_IRQ_Enable,"ax",%progbits
 148              		.align	2
 149              		.global	ADC_DelSig_1_IRQ_Enable
 150              		.thumb
 151              		.thumb_func
 152              		.type	ADC_DelSig_1_IRQ_Enable, %function
 153              	ADC_DelSig_1_IRQ_Enable:
 154              	.LFB8:
 284:.\Generated_Source\PSoC5/ADC_DelSig_1_IRQ.c **** 
 285:.\Generated_Source\PSoC5/ADC_DelSig_1_IRQ.c **** 
 286:.\Generated_Source\PSoC5/ADC_DelSig_1_IRQ.c **** /*******************************************************************************
 287:.\Generated_Source\PSoC5/ADC_DelSig_1_IRQ.c **** * Function Name: ADC_DelSig_1_IRQ_Enable
 288:.\Generated_Source\PSoC5/ADC_DelSig_1_IRQ.c **** ********************************************************************************
 289:.\Generated_Source\PSoC5/ADC_DelSig_1_IRQ.c **** *
 290:.\Generated_Source\PSoC5/ADC_DelSig_1_IRQ.c **** * Summary:
 291:.\Generated_Source\PSoC5/ADC_DelSig_1_IRQ.c **** *   Enables the interrupt to the interrupt controller. Do not call this function
 292:.\Generated_Source\PSoC5/ADC_DelSig_1_IRQ.c **** *   unless ISR_Start() has been called or the functionality of the ISR_Start() 
 293:.\Generated_Source\PSoC5/ADC_DelSig_1_IRQ.c **** *   function, which sets the vector and the priority, has been called.
 294:.\Generated_Source\PSoC5/ADC_DelSig_1_IRQ.c **** *
 295:.\Generated_Source\PSoC5/ADC_DelSig_1_IRQ.c **** * Parameters:
 296:.\Generated_Source\PSoC5/ADC_DelSig_1_IRQ.c **** *   None
 297:.\Generated_Source\PSoC5/ADC_DelSig_1_IRQ.c **** *
 298:.\Generated_Source\PSoC5/ADC_DelSig_1_IRQ.c **** * Return:
 299:.\Generated_Source\PSoC5/ADC_DelSig_1_IRQ.c **** *   None
 300:.\Generated_Source\PSoC5/ADC_DelSig_1_IRQ.c **** *
 301:.\Generated_Source\PSoC5/ADC_DelSig_1_IRQ.c **** *******************************************************************************/
 302:.\Generated_Source\PSoC5/ADC_DelSig_1_IRQ.c **** void ADC_DelSig_1_IRQ_Enable(void)
ARM GAS  C:\Users\mitchell\AppData\Local\Temp\ccmfL7sc.s 			page 9


 303:.\Generated_Source\PSoC5/ADC_DelSig_1_IRQ.c **** {
 155              		.loc 1 303 0
 156              		.cfi_startproc
 157              		@ args = 0, pretend = 0, frame = 0
 158              		@ frame_needed = 0, uses_anonymous_args = 0
 159              		@ link register save eliminated.
 304:.\Generated_Source\PSoC5/ADC_DelSig_1_IRQ.c ****     /* Enable the general interrupt. */
 305:.\Generated_Source\PSoC5/ADC_DelSig_1_IRQ.c ****     *ADC_DelSig_1_IRQ_INTC_SET_EN = ADC_DelSig_1_IRQ__INTC_MASK;
 160              		.loc 1 305 0
 161 0000 4FF00052 		mov	r2, #536870912
 162 0004 014B     		ldr	r3, .L15
 163 0006 1A60     		str	r2, [r3]
 164 0008 7047     		bx	lr
 165              	.L16:
 166 000a 00BF     		.align	2
 167              	.L15:
 168 000c 00E100E0 		.word	-536813312
 169              		.cfi_endproc
 170              	.LFE8:
 171              		.size	ADC_DelSig_1_IRQ_Enable, .-ADC_DelSig_1_IRQ_Enable
 172              		.section	.text.ADC_DelSig_1_IRQ_GetState,"ax",%progbits
 173              		.align	2
 174              		.global	ADC_DelSig_1_IRQ_GetState
 175              		.thumb
 176              		.thumb_func
 177              		.type	ADC_DelSig_1_IRQ_GetState, %function
 178              	ADC_DelSig_1_IRQ_GetState:
 179              	.LFB9:
 306:.\Generated_Source\PSoC5/ADC_DelSig_1_IRQ.c **** }
 307:.\Generated_Source\PSoC5/ADC_DelSig_1_IRQ.c **** 
 308:.\Generated_Source\PSoC5/ADC_DelSig_1_IRQ.c **** 
 309:.\Generated_Source\PSoC5/ADC_DelSig_1_IRQ.c **** /*******************************************************************************
 310:.\Generated_Source\PSoC5/ADC_DelSig_1_IRQ.c **** * Function Name: ADC_DelSig_1_IRQ_GetState
 311:.\Generated_Source\PSoC5/ADC_DelSig_1_IRQ.c **** ********************************************************************************
 312:.\Generated_Source\PSoC5/ADC_DelSig_1_IRQ.c **** *
 313:.\Generated_Source\PSoC5/ADC_DelSig_1_IRQ.c **** * Summary:
 314:.\Generated_Source\PSoC5/ADC_DelSig_1_IRQ.c **** *   Gets the state (enabled, disabled) of the Interrupt.
 315:.\Generated_Source\PSoC5/ADC_DelSig_1_IRQ.c **** *
 316:.\Generated_Source\PSoC5/ADC_DelSig_1_IRQ.c **** * Parameters:
 317:.\Generated_Source\PSoC5/ADC_DelSig_1_IRQ.c **** *   None
 318:.\Generated_Source\PSoC5/ADC_DelSig_1_IRQ.c **** *
 319:.\Generated_Source\PSoC5/ADC_DelSig_1_IRQ.c **** * Return:
 320:.\Generated_Source\PSoC5/ADC_DelSig_1_IRQ.c **** *   1 if enabled, 0 if disabled.
 321:.\Generated_Source\PSoC5/ADC_DelSig_1_IRQ.c **** *
 322:.\Generated_Source\PSoC5/ADC_DelSig_1_IRQ.c **** *******************************************************************************/
 323:.\Generated_Source\PSoC5/ADC_DelSig_1_IRQ.c **** uint8 ADC_DelSig_1_IRQ_GetState(void)
 324:.\Generated_Source\PSoC5/ADC_DelSig_1_IRQ.c **** {
 180              		.loc 1 324 0
 181              		.cfi_startproc
 182              		@ args = 0, pretend = 0, frame = 0
 183              		@ frame_needed = 0, uses_anonymous_args = 0
 184              		@ link register save eliminated.
 325:.\Generated_Source\PSoC5/ADC_DelSig_1_IRQ.c ****     /* Get the state of the general interrupt. */
 326:.\Generated_Source\PSoC5/ADC_DelSig_1_IRQ.c ****     return ((*ADC_DelSig_1_IRQ_INTC_SET_EN & (uint32)ADC_DelSig_1_IRQ__INTC_MASK) != 0u) ? 1u:0u;
 185              		.loc 1 326 0
 186 0000 044B     		ldr	r3, .L20
 187 0002 1B68     		ldr	r3, [r3]
ARM GAS  C:\Users\mitchell\AppData\Local\Temp\ccmfL7sc.s 			page 10


 188 0004 13F0005F 		tst	r3, #536870912
 189 0008 01D0     		beq	.L19
 190 000a 0120     		movs	r0, #1
 191 000c 7047     		bx	lr
 192              	.L19:
 193 000e 0020     		movs	r0, #0
 327:.\Generated_Source\PSoC5/ADC_DelSig_1_IRQ.c **** }
 194              		.loc 1 327 0
 195 0010 7047     		bx	lr
 196              	.L21:
 197 0012 00BF     		.align	2
 198              	.L20:
 199 0014 00E100E0 		.word	-536813312
 200              		.cfi_endproc
 201              	.LFE9:
 202              		.size	ADC_DelSig_1_IRQ_GetState, .-ADC_DelSig_1_IRQ_GetState
 203              		.section	.text.ADC_DelSig_1_IRQ_Disable,"ax",%progbits
 204              		.align	2
 205              		.global	ADC_DelSig_1_IRQ_Disable
 206              		.thumb
 207              		.thumb_func
 208              		.type	ADC_DelSig_1_IRQ_Disable, %function
 209              	ADC_DelSig_1_IRQ_Disable:
 210              	.LFB10:
 328:.\Generated_Source\PSoC5/ADC_DelSig_1_IRQ.c **** 
 329:.\Generated_Source\PSoC5/ADC_DelSig_1_IRQ.c **** 
 330:.\Generated_Source\PSoC5/ADC_DelSig_1_IRQ.c **** /*******************************************************************************
 331:.\Generated_Source\PSoC5/ADC_DelSig_1_IRQ.c **** * Function Name: ADC_DelSig_1_IRQ_Disable
 332:.\Generated_Source\PSoC5/ADC_DelSig_1_IRQ.c **** ********************************************************************************
 333:.\Generated_Source\PSoC5/ADC_DelSig_1_IRQ.c **** *
 334:.\Generated_Source\PSoC5/ADC_DelSig_1_IRQ.c **** * Summary:
 335:.\Generated_Source\PSoC5/ADC_DelSig_1_IRQ.c **** *   Disables the Interrupt in the interrupt controller.
 336:.\Generated_Source\PSoC5/ADC_DelSig_1_IRQ.c **** *
 337:.\Generated_Source\PSoC5/ADC_DelSig_1_IRQ.c **** * Parameters:
 338:.\Generated_Source\PSoC5/ADC_DelSig_1_IRQ.c **** *   None
 339:.\Generated_Source\PSoC5/ADC_DelSig_1_IRQ.c **** *
 340:.\Generated_Source\PSoC5/ADC_DelSig_1_IRQ.c **** * Return:
 341:.\Generated_Source\PSoC5/ADC_DelSig_1_IRQ.c **** *   None
 342:.\Generated_Source\PSoC5/ADC_DelSig_1_IRQ.c **** *
 343:.\Generated_Source\PSoC5/ADC_DelSig_1_IRQ.c **** *******************************************************************************/
 344:.\Generated_Source\PSoC5/ADC_DelSig_1_IRQ.c **** void ADC_DelSig_1_IRQ_Disable(void)
 345:.\Generated_Source\PSoC5/ADC_DelSig_1_IRQ.c **** {
 211              		.loc 1 345 0
 212              		.cfi_startproc
 213              		@ args = 0, pretend = 0, frame = 0
 214              		@ frame_needed = 0, uses_anonymous_args = 0
 215              		@ link register save eliminated.
 346:.\Generated_Source\PSoC5/ADC_DelSig_1_IRQ.c ****     /* Disable the general interrupt. */
 347:.\Generated_Source\PSoC5/ADC_DelSig_1_IRQ.c ****     *ADC_DelSig_1_IRQ_INTC_CLR_EN = ADC_DelSig_1_IRQ__INTC_MASK;
 216              		.loc 1 347 0
 217 0000 4FF00052 		mov	r2, #536870912
 218 0004 014B     		ldr	r3, .L23
 219 0006 1A60     		str	r2, [r3]
 220 0008 7047     		bx	lr
 221              	.L24:
 222 000a 00BF     		.align	2
 223              	.L23:
ARM GAS  C:\Users\mitchell\AppData\Local\Temp\ccmfL7sc.s 			page 11


 224 000c 80E100E0 		.word	-536813184
 225              		.cfi_endproc
 226              	.LFE10:
 227              		.size	ADC_DelSig_1_IRQ_Disable, .-ADC_DelSig_1_IRQ_Disable
 228              		.section	.text.ADC_DelSig_1_IRQ_Start,"ax",%progbits
 229              		.align	2
 230              		.global	ADC_DelSig_1_IRQ_Start
 231              		.thumb
 232              		.thumb_func
 233              		.type	ADC_DelSig_1_IRQ_Start, %function
 234              	ADC_DelSig_1_IRQ_Start:
 235              	.LFB0:
  61:.\Generated_Source\PSoC5/ADC_DelSig_1_IRQ.c **** {
 236              		.loc 1 61 0
 237              		.cfi_startproc
 238              		@ args = 0, pretend = 0, frame = 0
 239              		@ frame_needed = 0, uses_anonymous_args = 0
 240 0000 08B5     		push	{r3, lr}
 241              		.cfi_def_cfa_offset 8
 242              		.cfi_offset 3, -8
 243              		.cfi_offset 14, -4
  63:.\Generated_Source\PSoC5/ADC_DelSig_1_IRQ.c ****     ADC_DelSig_1_IRQ_Disable();
 244              		.loc 1 63 0
 245 0002 FFF7FEFF 		bl	ADC_DelSig_1_IRQ_Disable
 246              	.LVL7:
  66:.\Generated_Source\PSoC5/ADC_DelSig_1_IRQ.c ****     ADC_DelSig_1_IRQ_SetVector(&ADC_DelSig_1_IRQ_Interrupt);
 247              		.loc 1 66 0
 248 0006 0448     		ldr	r0, .L26
 249 0008 FFF7FEFF 		bl	ADC_DelSig_1_IRQ_SetVector
 250              	.LVL8:
  69:.\Generated_Source\PSoC5/ADC_DelSig_1_IRQ.c ****     ADC_DelSig_1_IRQ_SetPriority((uint8)ADC_DelSig_1_IRQ_INTC_PRIOR_NUMBER);
 251              		.loc 1 69 0
 252 000c 0720     		movs	r0, #7
 253 000e FFF7FEFF 		bl	ADC_DelSig_1_IRQ_SetPriority
 254              	.LVL9:
  72:.\Generated_Source\PSoC5/ADC_DelSig_1_IRQ.c ****     ADC_DelSig_1_IRQ_Enable();
 255              		.loc 1 72 0
 256 0012 FFF7FEFF 		bl	ADC_DelSig_1_IRQ_Enable
 257              	.LVL10:
 258 0016 08BD     		pop	{r3, pc}
 259              	.L27:
 260              		.align	2
 261              	.L26:
 262 0018 00000000 		.word	ADC_DelSig_1_IRQ_Interrupt
 263              		.cfi_endproc
 264              	.LFE0:
 265              		.size	ADC_DelSig_1_IRQ_Start, .-ADC_DelSig_1_IRQ_Start
 266              		.section	.text.ADC_DelSig_1_IRQ_StartEx,"ax",%progbits
 267              		.align	2
 268              		.global	ADC_DelSig_1_IRQ_StartEx
 269              		.thumb
 270              		.thumb_func
 271              		.type	ADC_DelSig_1_IRQ_StartEx, %function
 272              	ADC_DelSig_1_IRQ_StartEx:
 273              	.LFB1:
 104:.\Generated_Source\PSoC5/ADC_DelSig_1_IRQ.c **** {
 274              		.loc 1 104 0
ARM GAS  C:\Users\mitchell\AppData\Local\Temp\ccmfL7sc.s 			page 12


 275              		.cfi_startproc
 276              		@ args = 0, pretend = 0, frame = 0
 277              		@ frame_needed = 0, uses_anonymous_args = 0
 278              	.LVL11:
 279 0000 10B5     		push	{r4, lr}
 280              		.cfi_def_cfa_offset 8
 281              		.cfi_offset 4, -8
 282              		.cfi_offset 14, -4
 283 0002 0446     		mov	r4, r0
 106:.\Generated_Source\PSoC5/ADC_DelSig_1_IRQ.c ****     ADC_DelSig_1_IRQ_Disable();
 284              		.loc 1 106 0
 285 0004 FFF7FEFF 		bl	ADC_DelSig_1_IRQ_Disable
 286              	.LVL12:
 109:.\Generated_Source\PSoC5/ADC_DelSig_1_IRQ.c ****     ADC_DelSig_1_IRQ_SetVector(address);
 287              		.loc 1 109 0
 288 0008 2046     		mov	r0, r4
 289 000a FFF7FEFF 		bl	ADC_DelSig_1_IRQ_SetVector
 290              	.LVL13:
 112:.\Generated_Source\PSoC5/ADC_DelSig_1_IRQ.c ****     ADC_DelSig_1_IRQ_SetPriority((uint8)ADC_DelSig_1_IRQ_INTC_PRIOR_NUMBER);
 291              		.loc 1 112 0
 292 000e 0720     		movs	r0, #7
 293 0010 FFF7FEFF 		bl	ADC_DelSig_1_IRQ_SetPriority
 294              	.LVL14:
 115:.\Generated_Source\PSoC5/ADC_DelSig_1_IRQ.c ****     ADC_DelSig_1_IRQ_Enable();
 295              		.loc 1 115 0
 296 0014 FFF7FEFF 		bl	ADC_DelSig_1_IRQ_Enable
 297              	.LVL15:
 298 0018 10BD     		pop	{r4, pc}
 299              		.cfi_endproc
 300              	.LFE1:
 301              		.size	ADC_DelSig_1_IRQ_StartEx, .-ADC_DelSig_1_IRQ_StartEx
 302 001a 00BF     		.section	.text.ADC_DelSig_1_IRQ_Stop,"ax",%progbits
 303              		.align	2
 304              		.global	ADC_DelSig_1_IRQ_Stop
 305              		.thumb
 306              		.thumb_func
 307              		.type	ADC_DelSig_1_IRQ_Stop, %function
 308              	ADC_DelSig_1_IRQ_Stop:
 309              	.LFB2:
 134:.\Generated_Source\PSoC5/ADC_DelSig_1_IRQ.c **** {
 310              		.loc 1 134 0
 311              		.cfi_startproc
 312              		@ args = 0, pretend = 0, frame = 0
 313              		@ frame_needed = 0, uses_anonymous_args = 0
 314 0000 08B5     		push	{r3, lr}
 315              		.cfi_def_cfa_offset 8
 316              		.cfi_offset 3, -8
 317              		.cfi_offset 14, -4
 136:.\Generated_Source\PSoC5/ADC_DelSig_1_IRQ.c ****     ADC_DelSig_1_IRQ_Disable();
 318              		.loc 1 136 0
 319 0002 FFF7FEFF 		bl	ADC_DelSig_1_IRQ_Disable
 320              	.LVL16:
 139:.\Generated_Source\PSoC5/ADC_DelSig_1_IRQ.c ****     ADC_DelSig_1_IRQ_SetVector(&IntDefaultHandler);
 321              		.loc 1 139 0
 322 0006 0248     		ldr	r0, .L30
 323 0008 FFF7FEFF 		bl	ADC_DelSig_1_IRQ_SetVector
 324              	.LVL17:
ARM GAS  C:\Users\mitchell\AppData\Local\Temp\ccmfL7sc.s 			page 13


 325 000c 08BD     		pop	{r3, pc}
 326              	.L31:
 327 000e 00BF     		.align	2
 328              	.L30:
 329 0010 00000000 		.word	IntDefaultHandler
 330              		.cfi_endproc
 331              	.LFE2:
 332              		.size	ADC_DelSig_1_IRQ_Stop, .-ADC_DelSig_1_IRQ_Stop
 333              		.section	.text.ADC_DelSig_1_IRQ_SetPending,"ax",%progbits
 334              		.align	2
 335              		.global	ADC_DelSig_1_IRQ_SetPending
 336              		.thumb
 337              		.thumb_func
 338              		.type	ADC_DelSig_1_IRQ_SetPending, %function
 339              	ADC_DelSig_1_IRQ_SetPending:
 340              	.LFB11:
 348:.\Generated_Source\PSoC5/ADC_DelSig_1_IRQ.c **** }
 349:.\Generated_Source\PSoC5/ADC_DelSig_1_IRQ.c **** 
 350:.\Generated_Source\PSoC5/ADC_DelSig_1_IRQ.c **** 
 351:.\Generated_Source\PSoC5/ADC_DelSig_1_IRQ.c **** /*******************************************************************************
 352:.\Generated_Source\PSoC5/ADC_DelSig_1_IRQ.c **** * Function Name: ADC_DelSig_1_IRQ_SetPending
 353:.\Generated_Source\PSoC5/ADC_DelSig_1_IRQ.c **** ********************************************************************************
 354:.\Generated_Source\PSoC5/ADC_DelSig_1_IRQ.c **** *
 355:.\Generated_Source\PSoC5/ADC_DelSig_1_IRQ.c **** * Summary:
 356:.\Generated_Source\PSoC5/ADC_DelSig_1_IRQ.c **** *   Causes the Interrupt to enter the pending state, a software method of
 357:.\Generated_Source\PSoC5/ADC_DelSig_1_IRQ.c **** *   generating the interrupt.
 358:.\Generated_Source\PSoC5/ADC_DelSig_1_IRQ.c **** *
 359:.\Generated_Source\PSoC5/ADC_DelSig_1_IRQ.c **** * Parameters:
 360:.\Generated_Source\PSoC5/ADC_DelSig_1_IRQ.c **** *   None
 361:.\Generated_Source\PSoC5/ADC_DelSig_1_IRQ.c **** *
 362:.\Generated_Source\PSoC5/ADC_DelSig_1_IRQ.c **** * Return:
 363:.\Generated_Source\PSoC5/ADC_DelSig_1_IRQ.c **** *   None
 364:.\Generated_Source\PSoC5/ADC_DelSig_1_IRQ.c **** *
 365:.\Generated_Source\PSoC5/ADC_DelSig_1_IRQ.c **** * Side Effects:
 366:.\Generated_Source\PSoC5/ADC_DelSig_1_IRQ.c **** *   If interrupts are enabled and the interrupt is set up properly, the ISR is
 367:.\Generated_Source\PSoC5/ADC_DelSig_1_IRQ.c **** *   entered (depending on the priority of this interrupt and other pending 
 368:.\Generated_Source\PSoC5/ADC_DelSig_1_IRQ.c **** *   interrupts).
 369:.\Generated_Source\PSoC5/ADC_DelSig_1_IRQ.c **** *
 370:.\Generated_Source\PSoC5/ADC_DelSig_1_IRQ.c **** *******************************************************************************/
 371:.\Generated_Source\PSoC5/ADC_DelSig_1_IRQ.c **** void ADC_DelSig_1_IRQ_SetPending(void)
 372:.\Generated_Source\PSoC5/ADC_DelSig_1_IRQ.c **** {
 341              		.loc 1 372 0
 342              		.cfi_startproc
 343              		@ args = 0, pretend = 0, frame = 0
 344              		@ frame_needed = 0, uses_anonymous_args = 0
 345              		@ link register save eliminated.
 373:.\Generated_Source\PSoC5/ADC_DelSig_1_IRQ.c ****     *ADC_DelSig_1_IRQ_INTC_SET_PD = ADC_DelSig_1_IRQ__INTC_MASK;
 346              		.loc 1 373 0
 347 0000 4FF00052 		mov	r2, #536870912
 348 0004 014B     		ldr	r3, .L33
 349 0006 1A60     		str	r2, [r3]
 350 0008 7047     		bx	lr
 351              	.L34:
 352 000a 00BF     		.align	2
 353              	.L33:
 354 000c 00E200E0 		.word	-536813056
 355              		.cfi_endproc
ARM GAS  C:\Users\mitchell\AppData\Local\Temp\ccmfL7sc.s 			page 14


 356              	.LFE11:
 357              		.size	ADC_DelSig_1_IRQ_SetPending, .-ADC_DelSig_1_IRQ_SetPending
 358              		.section	.text.ADC_DelSig_1_IRQ_ClearPending,"ax",%progbits
 359              		.align	2
 360              		.global	ADC_DelSig_1_IRQ_ClearPending
 361              		.thumb
 362              		.thumb_func
 363              		.type	ADC_DelSig_1_IRQ_ClearPending, %function
 364              	ADC_DelSig_1_IRQ_ClearPending:
 365              	.LFB12:
 374:.\Generated_Source\PSoC5/ADC_DelSig_1_IRQ.c **** }
 375:.\Generated_Source\PSoC5/ADC_DelSig_1_IRQ.c **** 
 376:.\Generated_Source\PSoC5/ADC_DelSig_1_IRQ.c **** 
 377:.\Generated_Source\PSoC5/ADC_DelSig_1_IRQ.c **** /*******************************************************************************
 378:.\Generated_Source\PSoC5/ADC_DelSig_1_IRQ.c **** * Function Name: ADC_DelSig_1_IRQ_ClearPending
 379:.\Generated_Source\PSoC5/ADC_DelSig_1_IRQ.c **** ********************************************************************************
 380:.\Generated_Source\PSoC5/ADC_DelSig_1_IRQ.c **** *
 381:.\Generated_Source\PSoC5/ADC_DelSig_1_IRQ.c **** * Summary:
 382:.\Generated_Source\PSoC5/ADC_DelSig_1_IRQ.c **** *   Clears a pending interrupt in the interrupt controller.
 383:.\Generated_Source\PSoC5/ADC_DelSig_1_IRQ.c **** *
 384:.\Generated_Source\PSoC5/ADC_DelSig_1_IRQ.c **** *   Note Some interrupt sources are clear-on-read and require the block 
 385:.\Generated_Source\PSoC5/ADC_DelSig_1_IRQ.c **** *   interrupt/status register to be read/cleared with the appropriate block API 
 386:.\Generated_Source\PSoC5/ADC_DelSig_1_IRQ.c **** *   (GPIO, UART, and so on). Otherwise the ISR will continue to remain in 
 387:.\Generated_Source\PSoC5/ADC_DelSig_1_IRQ.c **** *   pending state even though the interrupt itself is cleared using this API.
 388:.\Generated_Source\PSoC5/ADC_DelSig_1_IRQ.c **** *
 389:.\Generated_Source\PSoC5/ADC_DelSig_1_IRQ.c **** * Parameters:
 390:.\Generated_Source\PSoC5/ADC_DelSig_1_IRQ.c **** *   None
 391:.\Generated_Source\PSoC5/ADC_DelSig_1_IRQ.c **** *
 392:.\Generated_Source\PSoC5/ADC_DelSig_1_IRQ.c **** * Return:
 393:.\Generated_Source\PSoC5/ADC_DelSig_1_IRQ.c **** *   None
 394:.\Generated_Source\PSoC5/ADC_DelSig_1_IRQ.c **** *
 395:.\Generated_Source\PSoC5/ADC_DelSig_1_IRQ.c **** *******************************************************************************/
 396:.\Generated_Source\PSoC5/ADC_DelSig_1_IRQ.c **** void ADC_DelSig_1_IRQ_ClearPending(void)
 397:.\Generated_Source\PSoC5/ADC_DelSig_1_IRQ.c **** {
 366              		.loc 1 397 0
 367              		.cfi_startproc
 368              		@ args = 0, pretend = 0, frame = 0
 369              		@ frame_needed = 0, uses_anonymous_args = 0
 370              		@ link register save eliminated.
 398:.\Generated_Source\PSoC5/ADC_DelSig_1_IRQ.c ****     *ADC_DelSig_1_IRQ_INTC_CLR_PD = ADC_DelSig_1_IRQ__INTC_MASK;
 371              		.loc 1 398 0
 372 0000 4FF00052 		mov	r2, #536870912
 373 0004 014B     		ldr	r3, .L36
 374 0006 1A60     		str	r2, [r3]
 375 0008 7047     		bx	lr
 376              	.L37:
 377 000a 00BF     		.align	2
 378              	.L36:
 379 000c 80E200E0 		.word	-536812928
 380              		.cfi_endproc
 381              	.LFE12:
 382              		.size	ADC_DelSig_1_IRQ_ClearPending, .-ADC_DelSig_1_IRQ_ClearPending
 383              		.text
 384              	.Letext0:
 385              		.file 2 "Generated_Source\\PSoC5/cytypes.h"