ARM GAS  C:\Users\mitchell\AppData\Local\Temp\ccszIpL5.s 			page 1


   1              		.syntax unified
   2              		.cpu cortex-m3
   3              		.fpu softvfp
   4              		.eabi_attribute 20, 1
   5              		.eabi_attribute 21, 1
   6              		.eabi_attribute 23, 3
   7              		.eabi_attribute 24, 1
   8              		.eabi_attribute 25, 1
   9              		.eabi_attribute 26, 1
  10              		.eabi_attribute 30, 1
  11              		.eabi_attribute 34, 1
  12              		.eabi_attribute 18, 4
  13              		.thumb
  14              		.file	"APPS_ADC.c"
  15              		.text
  16              	.Ltext0:
  17              		.cfi_sections	.debug_frame
  18              		.section	.text.APPS_ADC_Disable,"ax",%progbits
  19              		.align	2
  20              		.global	APPS_ADC_Disable
  21              		.thumb
  22              		.thumb_func
  23              		.type	APPS_ADC_Disable, %function
  24              	APPS_ADC_Disable:
  25              	.LFB0:
  26              		.file 1 ".\\Generated_Source\\PSoC5\\APPS_ADC.c"
   1:.\Generated_Source\PSoC5/APPS_ADC.c **** /*******************************************************************************
   2:.\Generated_Source\PSoC5/APPS_ADC.c **** * File Name: APPS_ADC.c
   3:.\Generated_Source\PSoC5/APPS_ADC.c **** * Version 2.0
   4:.\Generated_Source\PSoC5/APPS_ADC.c **** *
   5:.\Generated_Source\PSoC5/APPS_ADC.c **** * Description:
   6:.\Generated_Source\PSoC5/APPS_ADC.c **** *  This file provides the API functionality of the ADC SAR Sequencer Component
   7:.\Generated_Source\PSoC5/APPS_ADC.c **** *
   8:.\Generated_Source\PSoC5/APPS_ADC.c **** * Note:
   9:.\Generated_Source\PSoC5/APPS_ADC.c **** *  None
  10:.\Generated_Source\PSoC5/APPS_ADC.c **** *
  11:.\Generated_Source\PSoC5/APPS_ADC.c **** ********************************************************************************
  12:.\Generated_Source\PSoC5/APPS_ADC.c **** * Copyright 2012-2015, Cypress Semiconductor Corporation.  All rights reserved.
  13:.\Generated_Source\PSoC5/APPS_ADC.c **** * You may use this file only in accordance with the license, terms, conditions,
  14:.\Generated_Source\PSoC5/APPS_ADC.c **** * disclaimers, and limitations in the end user license agreement accompanying
  15:.\Generated_Source\PSoC5/APPS_ADC.c **** * the software package with which this file was provided.
  16:.\Generated_Source\PSoC5/APPS_ADC.c **** *******************************************************************************/
  17:.\Generated_Source\PSoC5/APPS_ADC.c **** 
  18:.\Generated_Source\PSoC5/APPS_ADC.c **** #include "APPS_ADC.h"
  19:.\Generated_Source\PSoC5/APPS_ADC.c **** #if(APPS_ADC_IRQ_REMOVE == 0u)
  20:.\Generated_Source\PSoC5/APPS_ADC.c ****     #include "APPS_ADC_IRQ.h"
  21:.\Generated_Source\PSoC5/APPS_ADC.c **** #endif   /* End APPS_ADC_IRQ_REMOVE */
  22:.\Generated_Source\PSoC5/APPS_ADC.c **** 
  23:.\Generated_Source\PSoC5/APPS_ADC.c **** int16  APPS_ADC_finalArray[APPS_ADC_NUMBER_OF_CHANNELS];
  24:.\Generated_Source\PSoC5/APPS_ADC.c **** uint32 APPS_ADC_initVar = 0u;
  25:.\Generated_Source\PSoC5/APPS_ADC.c **** static uint8 APPS_ADC_tempChan;
  26:.\Generated_Source\PSoC5/APPS_ADC.c **** static uint8 APPS_ADC_finalChan;
  27:.\Generated_Source\PSoC5/APPS_ADC.c **** static uint8 APPS_ADC_tempTD = CY_DMA_INVALID_TD;
  28:.\Generated_Source\PSoC5/APPS_ADC.c **** static uint8 APPS_ADC_finalTD = CY_DMA_INVALID_TD;
  29:.\Generated_Source\PSoC5/APPS_ADC.c **** 
  30:.\Generated_Source\PSoC5/APPS_ADC.c **** 
  31:.\Generated_Source\PSoC5/APPS_ADC.c **** /****************************************************************************
ARM GAS  C:\Users\mitchell\AppData\Local\Temp\ccszIpL5.s 			page 2


  32:.\Generated_Source\PSoC5/APPS_ADC.c **** * Function Name: APPS_ADC_Disable()
  33:.\Generated_Source\PSoC5/APPS_ADC.c **** *****************************************************************************
  34:.\Generated_Source\PSoC5/APPS_ADC.c **** *
  35:.\Generated_Source\PSoC5/APPS_ADC.c **** * Summary:
  36:.\Generated_Source\PSoC5/APPS_ADC.c **** *  Disables the component without disabling the ADC SAR.
  37:.\Generated_Source\PSoC5/APPS_ADC.c **** *
  38:.\Generated_Source\PSoC5/APPS_ADC.c **** * Parameters:
  39:.\Generated_Source\PSoC5/APPS_ADC.c **** *  None.
  40:.\Generated_Source\PSoC5/APPS_ADC.c **** *
  41:.\Generated_Source\PSoC5/APPS_ADC.c **** * Return:
  42:.\Generated_Source\PSoC5/APPS_ADC.c **** *  None.
  43:.\Generated_Source\PSoC5/APPS_ADC.c **** *
  44:.\Generated_Source\PSoC5/APPS_ADC.c **** * Side Effects:
  45:.\Generated_Source\PSoC5/APPS_ADC.c **** *  None.
  46:.\Generated_Source\PSoC5/APPS_ADC.c **** *
  47:.\Generated_Source\PSoC5/APPS_ADC.c **** * Reentrant:
  48:.\Generated_Source\PSoC5/APPS_ADC.c **** *  No.
  49:.\Generated_Source\PSoC5/APPS_ADC.c **** *
  50:.\Generated_Source\PSoC5/APPS_ADC.c **** ****************************************************************************/
  51:.\Generated_Source\PSoC5/APPS_ADC.c **** void APPS_ADC_Disable(void)
  52:.\Generated_Source\PSoC5/APPS_ADC.c **** {
  27              		.loc 1 52 0
  28              		.cfi_startproc
  29              		@ args = 0, pretend = 0, frame = 0
  30              		@ frame_needed = 0, uses_anonymous_args = 0
  31 0000 70B5     		push	{r4, r5, r6, lr}
  32              		.cfi_def_cfa_offset 16
  33              		.cfi_offset 4, -16
  34              		.cfi_offset 5, -12
  35              		.cfi_offset 6, -8
  36              		.cfi_offset 14, -4
  53:.\Generated_Source\PSoC5/APPS_ADC.c ****     APPS_ADC_CONTROL_REG &= ((uint8)(~APPS_ADC_BASE_COMPONENT_ENABLE));
  37              		.loc 1 53 0
  38 0002 0B4B     		ldr	r3, .L2
  39 0004 1A78     		ldrb	r2, [r3]	@ zero_extendqisi2
  40 0006 02F0FE02 		and	r2, r2, #254
  41 000a 1A70     		strb	r2, [r3]
  54:.\Generated_Source\PSoC5/APPS_ADC.c **** 
  55:.\Generated_Source\PSoC5/APPS_ADC.c ****     (void) CyDmaChDisable(APPS_ADC_tempChan);
  42              		.loc 1 55 0
  43 000c 094E     		ldr	r6, .L2+4
  44 000e 3078     		ldrb	r0, [r6]	@ zero_extendqisi2
  45 0010 FFF7FEFF 		bl	CyDmaChDisable
  46              	.LVL0:
  56:.\Generated_Source\PSoC5/APPS_ADC.c ****     CyDmaTdFree(APPS_ADC_tempTD);
  47              		.loc 1 56 0
  48 0014 084C     		ldr	r4, .L2+8
  49 0016 2078     		ldrb	r0, [r4]	@ zero_extendqisi2
  50 0018 FFF7FEFF 		bl	CyDmaTdFree
  51              	.LVL1:
  57:.\Generated_Source\PSoC5/APPS_ADC.c ****     APPS_ADC_tempTD = CY_DMA_INVALID_TD;
  52              		.loc 1 57 0
  53 001c FF25     		movs	r5, #255
  54 001e 2570     		strb	r5, [r4]
  58:.\Generated_Source\PSoC5/APPS_ADC.c **** 
  59:.\Generated_Source\PSoC5/APPS_ADC.c ****     (void) CyDmaChDisable(APPS_ADC_finalChan);
  55              		.loc 1 59 0
ARM GAS  C:\Users\mitchell\AppData\Local\Temp\ccszIpL5.s 			page 3


  56 0020 7078     		ldrb	r0, [r6, #1]	@ zero_extendqisi2
  57 0022 FFF7FEFF 		bl	CyDmaChDisable
  58              	.LVL2:
  60:.\Generated_Source\PSoC5/APPS_ADC.c ****     CyDmaTdFree(APPS_ADC_finalTD);
  59              		.loc 1 60 0
  60 0026 6078     		ldrb	r0, [r4, #1]	@ zero_extendqisi2
  61 0028 FFF7FEFF 		bl	CyDmaTdFree
  62              	.LVL3:
  61:.\Generated_Source\PSoC5/APPS_ADC.c ****     APPS_ADC_finalTD = CY_DMA_INVALID_TD;
  63              		.loc 1 61 0
  64 002c 6570     		strb	r5, [r4, #1]
  65 002e 70BD     		pop	{r4, r5, r6, pc}
  66              	.L3:
  67              		.align	2
  68              	.L2:
  69 0030 77640040 		.word	1073767543
  70 0034 00000000 		.word	.LANCHOR0
  71 0038 00000000 		.word	.LANCHOR1
  72              		.cfi_endproc
  73              	.LFE0:
  74              		.size	APPS_ADC_Disable, .-APPS_ADC_Disable
  75              		.section	.text.APPS_ADC_Init,"ax",%progbits
  76              		.align	2
  77              		.global	APPS_ADC_Init
  78              		.thumb
  79              		.thumb_func
  80              		.type	APPS_ADC_Init, %function
  81              	APPS_ADC_Init:
  82              	.LFB1:
  62:.\Generated_Source\PSoC5/APPS_ADC.c **** }
  63:.\Generated_Source\PSoC5/APPS_ADC.c **** 
  64:.\Generated_Source\PSoC5/APPS_ADC.c **** 
  65:.\Generated_Source\PSoC5/APPS_ADC.c **** /*******************************************************************************
  66:.\Generated_Source\PSoC5/APPS_ADC.c **** * Function Name: APPS_ADC_Init
  67:.\Generated_Source\PSoC5/APPS_ADC.c **** ********************************************************************************
  68:.\Generated_Source\PSoC5/APPS_ADC.c **** *
  69:.\Generated_Source\PSoC5/APPS_ADC.c **** * Summary:
  70:.\Generated_Source\PSoC5/APPS_ADC.c **** *  Inits channels for DMA transfer. Provides loading period to the AMUX address
  71:.\Generated_Source\PSoC5/APPS_ADC.c **** *  selection counter
  72:.\Generated_Source\PSoC5/APPS_ADC.c **** *
  73:.\Generated_Source\PSoC5/APPS_ADC.c **** * Parameters:
  74:.\Generated_Source\PSoC5/APPS_ADC.c **** *  None.
  75:.\Generated_Source\PSoC5/APPS_ADC.c **** *
  76:.\Generated_Source\PSoC5/APPS_ADC.c **** * Return:
  77:.\Generated_Source\PSoC5/APPS_ADC.c **** *  None.
  78:.\Generated_Source\PSoC5/APPS_ADC.c **** *
  79:.\Generated_Source\PSoC5/APPS_ADC.c **** * Reentrant:
  80:.\Generated_Source\PSoC5/APPS_ADC.c **** *  No.
  81:.\Generated_Source\PSoC5/APPS_ADC.c **** *
  82:.\Generated_Source\PSoC5/APPS_ADC.c **** *******************************************************************************/
  83:.\Generated_Source\PSoC5/APPS_ADC.c **** void APPS_ADC_Init(void)
  84:.\Generated_Source\PSoC5/APPS_ADC.c **** {
  83              		.loc 1 84 0
  84              		.cfi_startproc
  85              		@ args = 0, pretend = 0, frame = 0
  86              		@ frame_needed = 0, uses_anonymous_args = 0
  87 0000 10B5     		push	{r4, lr}
ARM GAS  C:\Users\mitchell\AppData\Local\Temp\ccszIpL5.s 			page 4


  88              		.cfi_def_cfa_offset 8
  89              		.cfi_offset 4, -8
  90              		.cfi_offset 14, -4
  85:.\Generated_Source\PSoC5/APPS_ADC.c ****     /* Init DMA, 2 bytes bursts, each burst requires a request */
  86:.\Generated_Source\PSoC5/APPS_ADC.c ****     APPS_ADC_tempChan = APPS_ADC_TempBuf_DmaInitialize(APPS_ADC_TEMP_BYTES_PER_BURST,
  91              		.loc 1 86 0
  92 0002 0220     		movs	r0, #2
  93 0004 0121     		movs	r1, #1
  94 0006 4FF48042 		mov	r2, #16384
  95 000a 41F6FF73 		movw	r3, #8191
  96 000e FFF7FEFF 		bl	APPS_ADC_TempBuf_DmaInitialize
  97              	.LVL4:
  98 0012 084C     		ldr	r4, .L5
  99 0014 2070     		strb	r0, [r4]
  87:.\Generated_Source\PSoC5/APPS_ADC.c ****         APPS_ADC_REQUEST_PER_BURST, (uint16)(HI16(CYDEV_PERIPH_BASE)), (uint16)(HI16(CYDEV_SRAM_BAS
  88:.\Generated_Source\PSoC5/APPS_ADC.c **** 
  89:.\Generated_Source\PSoC5/APPS_ADC.c ****     /* Init DMA, (APPS_ADC_NUMBER_OF_CHANNELS << 1u) bytes bursts, each burst requires a request */
  90:.\Generated_Source\PSoC5/APPS_ADC.c ****     APPS_ADC_finalChan = APPS_ADC_FinalBuf_DmaInitialize((uint8)APPS_ADC_FINAL_BYTES_PER_BURST,
 100              		.loc 1 90 0
 101 0016 0420     		movs	r0, #4
 102 0018 0121     		movs	r1, #1
 103 001a 41F6FF72 		movw	r2, #8191
 104 001e 1346     		mov	r3, r2
 105 0020 FFF7FEFF 		bl	APPS_ADC_FinalBuf_DmaInitialize
 106              	.LVL5:
 107 0024 6070     		strb	r0, [r4, #1]
  91:.\Generated_Source\PSoC5/APPS_ADC.c ****         APPS_ADC_REQUEST_PER_BURST, (uint16)(HI16(CYDEV_SRAM_BASE)), (uint16)(HI16(CYDEV_SRAM_BASE)
  92:.\Generated_Source\PSoC5/APPS_ADC.c **** 
  93:.\Generated_Source\PSoC5/APPS_ADC.c ****     #if(APPS_ADC_IRQ_REMOVE == 0u)
  94:.\Generated_Source\PSoC5/APPS_ADC.c ****         /* Set the ISR to point to the APPS_ADC_IRQ Interrupt. */
  95:.\Generated_Source\PSoC5/APPS_ADC.c ****         APPS_ADC_IRQ_SetVector(&APPS_ADC_ISR);
 108              		.loc 1 95 0
 109 0026 0448     		ldr	r0, .L5+4
 110 0028 FFF7FEFF 		bl	APPS_ADC_IRQ_SetVector
 111              	.LVL6:
  96:.\Generated_Source\PSoC5/APPS_ADC.c ****         /* Set the priority. */
  97:.\Generated_Source\PSoC5/APPS_ADC.c ****         APPS_ADC_IRQ_SetPriority((uint8)APPS_ADC_INTC_NUMBER);
 112              		.loc 1 97 0
 113 002c 0020     		movs	r0, #0
 114 002e FFF7FEFF 		bl	APPS_ADC_IRQ_SetPriority
 115              	.LVL7:
 116 0032 10BD     		pop	{r4, pc}
 117              	.L6:
 118              		.align	2
 119              	.L5:
 120 0034 00000000 		.word	.LANCHOR0
 121 0038 00000000 		.word	APPS_ADC_ISR
 122              		.cfi_endproc
 123              	.LFE1:
 124              		.size	APPS_ADC_Init, .-APPS_ADC_Init
 125              		.section	.text.APPS_ADC_Enable,"ax",%progbits
 126              		.align	2
 127              		.global	APPS_ADC_Enable
 128              		.thumb
 129              		.thumb_func
 130              		.type	APPS_ADC_Enable, %function
 131              	APPS_ADC_Enable:
ARM GAS  C:\Users\mitchell\AppData\Local\Temp\ccszIpL5.s 			page 5


 132              	.LFB2:
  98:.\Generated_Source\PSoC5/APPS_ADC.c ****     #endif   /* End APPS_ADC_IRQ_REMOVE */
  99:.\Generated_Source\PSoC5/APPS_ADC.c **** 
 100:.\Generated_Source\PSoC5/APPS_ADC.c **** }
 101:.\Generated_Source\PSoC5/APPS_ADC.c **** 
 102:.\Generated_Source\PSoC5/APPS_ADC.c **** 
 103:.\Generated_Source\PSoC5/APPS_ADC.c **** /*******************************************************************************
 104:.\Generated_Source\PSoC5/APPS_ADC.c **** * Function Name: APPS_ADC_Enable
 105:.\Generated_Source\PSoC5/APPS_ADC.c **** ********************************************************************************
 106:.\Generated_Source\PSoC5/APPS_ADC.c **** *
 107:.\Generated_Source\PSoC5/APPS_ADC.c **** * Summary:
 108:.\Generated_Source\PSoC5/APPS_ADC.c **** *  Enables DMA channels, address selection counter and FSM of Base component
 109:.\Generated_Source\PSoC5/APPS_ADC.c **** *
 110:.\Generated_Source\PSoC5/APPS_ADC.c **** * Parameters:
 111:.\Generated_Source\PSoC5/APPS_ADC.c **** *  None.
 112:.\Generated_Source\PSoC5/APPS_ADC.c **** *
 113:.\Generated_Source\PSoC5/APPS_ADC.c **** * Return:
 114:.\Generated_Source\PSoC5/APPS_ADC.c **** *  None.
 115:.\Generated_Source\PSoC5/APPS_ADC.c **** *
 116:.\Generated_Source\PSoC5/APPS_ADC.c **** * Side Effects:
 117:.\Generated_Source\PSoC5/APPS_ADC.c **** *  None.
 118:.\Generated_Source\PSoC5/APPS_ADC.c **** *
 119:.\Generated_Source\PSoC5/APPS_ADC.c **** * Reentrant:
 120:.\Generated_Source\PSoC5/APPS_ADC.c **** *  No.
 121:.\Generated_Source\PSoC5/APPS_ADC.c **** *
 122:.\Generated_Source\PSoC5/APPS_ADC.c **** *******************************************************************************/
 123:.\Generated_Source\PSoC5/APPS_ADC.c **** void APPS_ADC_Enable(void)
 124:.\Generated_Source\PSoC5/APPS_ADC.c **** {
 133              		.loc 1 124 0
 134              		.cfi_startproc
 135              		@ args = 0, pretend = 0, frame = 0
 136              		@ frame_needed = 0, uses_anonymous_args = 0
 137 0000 70B5     		push	{r4, r5, r6, lr}
 138              		.cfi_def_cfa_offset 16
 139              		.cfi_offset 4, -16
 140              		.cfi_offset 5, -12
 141              		.cfi_offset 6, -8
 142              		.cfi_offset 14, -4
 125:.\Generated_Source\PSoC5/APPS_ADC.c ****     uint8 enableInterrupts;
 126:.\Generated_Source\PSoC5/APPS_ADC.c **** 
 127:.\Generated_Source\PSoC5/APPS_ADC.c ****     static int16 APPS_ADC_tempArray[APPS_ADC_NUMBER_OF_CHANNELS];
 128:.\Generated_Source\PSoC5/APPS_ADC.c ****     
 129:.\Generated_Source\PSoC5/APPS_ADC.c ****     (void)CyDmaClearPendingDrq(APPS_ADC_tempChan);
 143              		.loc 1 129 0
 144 0002 2C4C     		ldr	r4, .L10
 145 0004 2078     		ldrb	r0, [r4]	@ zero_extendqisi2
 146 0006 FFF7FEFF 		bl	CyDmaClearPendingDrq
 147              	.LVL8:
 130:.\Generated_Source\PSoC5/APPS_ADC.c ****     (void)CyDmaClearPendingDrq(APPS_ADC_finalChan);
 148              		.loc 1 130 0
 149 000a 6078     		ldrb	r0, [r4, #1]	@ zero_extendqisi2
 150 000c FFF7FEFF 		bl	CyDmaClearPendingDrq
 151              	.LVL9:
 131:.\Generated_Source\PSoC5/APPS_ADC.c ****     
 132:.\Generated_Source\PSoC5/APPS_ADC.c ****     
 133:.\Generated_Source\PSoC5/APPS_ADC.c ****     /* Provides initialization procedure for the TempBuf DMA
 134:.\Generated_Source\PSoC5/APPS_ADC.c ****     * Configure this Td as follows:
ARM GAS  C:\Users\mitchell\AppData\Local\Temp\ccszIpL5.s 			page 6


 135:.\Generated_Source\PSoC5/APPS_ADC.c ****     *  - The TD is looping on itself
 136:.\Generated_Source\PSoC5/APPS_ADC.c ****     *  - Increment the destination address, but not the source address
 137:.\Generated_Source\PSoC5/APPS_ADC.c ****     */
 138:.\Generated_Source\PSoC5/APPS_ADC.c **** 
 139:.\Generated_Source\PSoC5/APPS_ADC.c ****     if (APPS_ADC_tempTD == DMA_INVALID_TD)
 152              		.loc 1 139 0
 153 0010 294B     		ldr	r3, .L10+4
 154 0012 1B78     		ldrb	r3, [r3]	@ zero_extendqisi2
 155 0014 FF2B     		cmp	r3, #255
 156 0016 03D1     		bne	.L8
 140:.\Generated_Source\PSoC5/APPS_ADC.c ****     {
 141:.\Generated_Source\PSoC5/APPS_ADC.c ****         APPS_ADC_tempTD = CyDmaTdAllocate();
 157              		.loc 1 141 0
 158 0018 FFF7FEFF 		bl	CyDmaTdAllocate
 159              	.LVL10:
 160 001c 264B     		ldr	r3, .L10+4
 161 001e 1870     		strb	r0, [r3]
 162              	.L8:
 142:.\Generated_Source\PSoC5/APPS_ADC.c ****     }
 143:.\Generated_Source\PSoC5/APPS_ADC.c **** 
 144:.\Generated_Source\PSoC5/APPS_ADC.c ****     (void) CyDmaTdSetConfiguration(APPS_ADC_tempTD, APPS_ADC_TEMP_TRANSFER_COUNT,
 163              		.loc 1 144 0
 164 0020 254C     		ldr	r4, .L10+4
 165 0022 2278     		ldrb	r2, [r4]	@ zero_extendqisi2
 166 0024 1046     		mov	r0, r2
 167 0026 0421     		movs	r1, #4
 168 0028 0623     		movs	r3, #6
 169 002a FFF7FEFF 		bl	CyDmaTdSetConfiguration
 170              	.LVL11:
 145:.\Generated_Source\PSoC5/APPS_ADC.c ****         APPS_ADC_tempTD, ((uint8)APPS_ADC_TempBuf__TD_TERMOUT_EN | (uint8)TD_INC_DST_ADR));
 146:.\Generated_Source\PSoC5/APPS_ADC.c **** 
 147:.\Generated_Source\PSoC5/APPS_ADC.c ****     /* From the SAR to the TempArray */
 148:.\Generated_Source\PSoC5/APPS_ADC.c ****     (void) CyDmaTdSetAddress(APPS_ADC_tempTD, (uint16)(LO16((uint32)APPS_ADC_SAR_DATA_ADDR_0)),
 171              		.loc 1 148 0
 172 002e 214D     		ldr	r5, .L10
 173 0030 2E1D     		adds	r6, r5, #4
 174 0032 B6B2     		uxth	r6, r6
 175 0034 2078     		ldrb	r0, [r4]	@ zero_extendqisi2
 176 0036 45F6A231 		movw	r1, #23458
 177 003a 3246     		mov	r2, r6
 178 003c FFF7FEFF 		bl	CyDmaTdSetAddress
 179              	.LVL12:
 149:.\Generated_Source\PSoC5/APPS_ADC.c ****         (uint16)(LO16((uint32)APPS_ADC_tempArray)));
 150:.\Generated_Source\PSoC5/APPS_ADC.c **** 
 151:.\Generated_Source\PSoC5/APPS_ADC.c ****     /* Associate the TD with the channel */
 152:.\Generated_Source\PSoC5/APPS_ADC.c ****     (void) CyDmaChSetInitialTd(APPS_ADC_tempChan, APPS_ADC_tempTD);
 180              		.loc 1 152 0
 181 0040 2878     		ldrb	r0, [r5]	@ zero_extendqisi2
 182 0042 2178     		ldrb	r1, [r4]	@ zero_extendqisi2
 183 0044 FFF7FEFF 		bl	CyDmaChSetInitialTd
 184              	.LVL13:
 153:.\Generated_Source\PSoC5/APPS_ADC.c **** 
 154:.\Generated_Source\PSoC5/APPS_ADC.c **** 
 155:.\Generated_Source\PSoC5/APPS_ADC.c ****     /* Provides initialization procedure for the FinalBuf DMA
 156:.\Generated_Source\PSoC5/APPS_ADC.c ****     * Configure this Td as follows:
 157:.\Generated_Source\PSoC5/APPS_ADC.c ****     *  - The TD is looping on itself
 158:.\Generated_Source\PSoC5/APPS_ADC.c ****     *  - Increment the source and destination address
ARM GAS  C:\Users\mitchell\AppData\Local\Temp\ccszIpL5.s 			page 7


 159:.\Generated_Source\PSoC5/APPS_ADC.c ****     */
 160:.\Generated_Source\PSoC5/APPS_ADC.c **** 
 161:.\Generated_Source\PSoC5/APPS_ADC.c ****     if (APPS_ADC_finalTD == DMA_INVALID_TD)
 185              		.loc 1 161 0
 186 0048 6378     		ldrb	r3, [r4, #1]	@ zero_extendqisi2
 187 004a FF2B     		cmp	r3, #255
 188 004c 02D1     		bne	.L9
 162:.\Generated_Source\PSoC5/APPS_ADC.c ****     {
 163:.\Generated_Source\PSoC5/APPS_ADC.c ****         APPS_ADC_finalTD = CyDmaTdAllocate();
 189              		.loc 1 163 0
 190 004e FFF7FEFF 		bl	CyDmaTdAllocate
 191              	.LVL14:
 192 0052 6070     		strb	r0, [r4, #1]
 193              	.L9:
 164:.\Generated_Source\PSoC5/APPS_ADC.c ****     }
 165:.\Generated_Source\PSoC5/APPS_ADC.c ****     
 166:.\Generated_Source\PSoC5/APPS_ADC.c ****     (void) CyDmaTdSetConfiguration(APPS_ADC_finalTD, (APPS_ADC_FINAL_BYTES_PER_BURST),
 194              		.loc 1 166 0
 195 0054 184D     		ldr	r5, .L10+4
 196 0056 6A78     		ldrb	r2, [r5, #1]	@ zero_extendqisi2
 197 0058 1046     		mov	r0, r2
 198 005a 0421     		movs	r1, #4
 199 005c 0723     		movs	r3, #7
 200 005e FFF7FEFF 		bl	CyDmaTdSetConfiguration
 201              	.LVL15:
 167:.\Generated_Source\PSoC5/APPS_ADC.c ****         APPS_ADC_finalTD, ((uint8)(APPS_ADC_FinalBuf__TD_TERMOUT_EN) | (uint8)TD_INC_SRC_ADR |
 168:.\Generated_Source\PSoC5/APPS_ADC.c ****             (uint8)TD_INC_DST_ADR));
 169:.\Generated_Source\PSoC5/APPS_ADC.c **** 
 170:.\Generated_Source\PSoC5/APPS_ADC.c ****     /* From the the TempArray to Final Array */
 171:.\Generated_Source\PSoC5/APPS_ADC.c ****     (void) CyDmaTdSetAddress(APPS_ADC_finalTD, (uint16)(LO16((uint32)APPS_ADC_tempArray)),
 202              		.loc 1 171 0
 203 0062 6878     		ldrb	r0, [r5, #1]	@ zero_extendqisi2
 204 0064 3146     		mov	r1, r6
 205 0066 154A     		ldr	r2, .L10+8
 206 0068 92B2     		uxth	r2, r2
 207 006a FFF7FEFF 		bl	CyDmaTdSetAddress
 208              	.LVL16:
 172:.\Generated_Source\PSoC5/APPS_ADC.c ****         (uint16)(LO16((uint32)APPS_ADC_finalArray)));
 173:.\Generated_Source\PSoC5/APPS_ADC.c **** 
 174:.\Generated_Source\PSoC5/APPS_ADC.c ****     /* Associate the TD with the channel */
 175:.\Generated_Source\PSoC5/APPS_ADC.c ****     (void) CyDmaChSetInitialTd(APPS_ADC_finalChan, APPS_ADC_finalTD);
 209              		.loc 1 175 0
 210 006e 114C     		ldr	r4, .L10
 211 0070 6078     		ldrb	r0, [r4, #1]	@ zero_extendqisi2
 212 0072 6978     		ldrb	r1, [r5, #1]	@ zero_extendqisi2
 213 0074 FFF7FEFF 		bl	CyDmaChSetInitialTd
 214              	.LVL17:
 176:.\Generated_Source\PSoC5/APPS_ADC.c ****     
 177:.\Generated_Source\PSoC5/APPS_ADC.c ****     (void) CyDmaChEnable(APPS_ADC_tempChan, 1u);
 215              		.loc 1 177 0
 216 0078 2078     		ldrb	r0, [r4]	@ zero_extendqisi2
 217 007a 0121     		movs	r1, #1
 218 007c FFF7FEFF 		bl	CyDmaChEnable
 219              	.LVL18:
 178:.\Generated_Source\PSoC5/APPS_ADC.c ****     (void) CyDmaChEnable(APPS_ADC_finalChan, 1u);
 220              		.loc 1 178 0
 221 0080 6078     		ldrb	r0, [r4, #1]	@ zero_extendqisi2
ARM GAS  C:\Users\mitchell\AppData\Local\Temp\ccszIpL5.s 			page 8


 222 0082 0121     		movs	r1, #1
 223 0084 FFF7FEFF 		bl	CyDmaChEnable
 224              	.LVL19:
 179:.\Generated_Source\PSoC5/APPS_ADC.c **** 
 180:.\Generated_Source\PSoC5/APPS_ADC.c ****     /* Enable Counter and give Enable pulse to set an address of the last channel */
 181:.\Generated_Source\PSoC5/APPS_ADC.c ****     enableInterrupts = CyEnterCriticalSection();
 225              		.loc 1 181 0
 226 0088 FFF7FEFF 		bl	CyEnterCriticalSection
 227              	.LVL20:
 182:.\Generated_Source\PSoC5/APPS_ADC.c ****     APPS_ADC_CYCLE_COUNTER_AUX_CONTROL_REG |= ((uint8)(APPS_ADC_CYCLE_COUNTER_ENABLE));
 228              		.loc 1 182 0
 229 008c 0C4B     		ldr	r3, .L10+12
 230 008e 1A78     		ldrb	r2, [r3]	@ zero_extendqisi2
 231 0090 42F02002 		orr	r2, r2, #32
 232 0094 1A70     		strb	r2, [r3]
 183:.\Generated_Source\PSoC5/APPS_ADC.c ****     CyExitCriticalSection(enableInterrupts);
 233              		.loc 1 183 0
 234 0096 FFF7FEFF 		bl	CyExitCriticalSection
 235              	.LVL21:
 184:.\Generated_Source\PSoC5/APPS_ADC.c **** 
 185:.\Generated_Source\PSoC5/APPS_ADC.c ****     /* Enable FSM of the Base Component */
 186:.\Generated_Source\PSoC5/APPS_ADC.c ****     APPS_ADC_CONTROL_REG |= ((uint8)(APPS_ADC_BASE_COMPONENT_ENABLE));
 236              		.loc 1 186 0
 237 009a 0A4B     		ldr	r3, .L10+16
 238 009c 1A78     		ldrb	r2, [r3]	@ zero_extendqisi2
 239 009e 42F00102 		orr	r2, r2, #1
 240 00a2 1A70     		strb	r2, [r3]
 187:.\Generated_Source\PSoC5/APPS_ADC.c ****     APPS_ADC_CONTROL_REG |= ((uint8)(APPS_ADC_LOAD_COUNTER_PERIOD));
 241              		.loc 1 187 0
 242 00a4 1A78     		ldrb	r2, [r3]	@ zero_extendqisi2
 243 00a6 42F00202 		orr	r2, r2, #2
 244 00aa 1A70     		strb	r2, [r3]
 188:.\Generated_Source\PSoC5/APPS_ADC.c **** 
 189:.\Generated_Source\PSoC5/APPS_ADC.c ****     #if(APPS_ADC_IRQ_REMOVE == 0u)
 190:.\Generated_Source\PSoC5/APPS_ADC.c ****         /* Clear a pending interrupt */
 191:.\Generated_Source\PSoC5/APPS_ADC.c ****         CyIntClearPending(APPS_ADC_INTC_NUMBER);
 245              		.loc 1 191 0
 246 00ac 0122     		movs	r2, #1
 247 00ae 064B     		ldr	r3, .L10+20
 248 00b0 1A60     		str	r2, [r3]
 249 00b2 70BD     		pop	{r4, r5, r6, pc}
 250              	.L11:
 251              		.align	2
 252              	.L10:
 253 00b4 00000000 		.word	.LANCHOR0
 254 00b8 00000000 		.word	.LANCHOR1
 255 00bc 00000000 		.word	APPS_ADC_finalArray
 256 00c0 94640040 		.word	1073767572
 257 00c4 77640040 		.word	1073767543
 258 00c8 80E200E0 		.word	-536812928
 259              		.cfi_endproc
 260              	.LFE2:
 261              		.size	APPS_ADC_Enable, .-APPS_ADC_Enable
 262              		.section	.text.APPS_ADC_Start,"ax",%progbits
 263              		.align	2
 264              		.global	APPS_ADC_Start
 265              		.thumb
ARM GAS  C:\Users\mitchell\AppData\Local\Temp\ccszIpL5.s 			page 9


 266              		.thumb_func
 267              		.type	APPS_ADC_Start, %function
 268              	APPS_ADC_Start:
 269              	.LFB3:
 192:.\Generated_Source\PSoC5/APPS_ADC.c ****     #endif   /* End APPS_ADC_IRQ_REMOVE */
 193:.\Generated_Source\PSoC5/APPS_ADC.c **** }
 194:.\Generated_Source\PSoC5/APPS_ADC.c **** 
 195:.\Generated_Source\PSoC5/APPS_ADC.c **** 
 196:.\Generated_Source\PSoC5/APPS_ADC.c **** /*******************************************************************************
 197:.\Generated_Source\PSoC5/APPS_ADC.c **** * Function Name: APPS_ADC_Start
 198:.\Generated_Source\PSoC5/APPS_ADC.c **** ********************************************************************************
 199:.\Generated_Source\PSoC5/APPS_ADC.c **** *
 200:.\Generated_Source\PSoC5/APPS_ADC.c **** * Summary:
 201:.\Generated_Source\PSoC5/APPS_ADC.c **** *  Starts component
 202:.\Generated_Source\PSoC5/APPS_ADC.c **** *
 203:.\Generated_Source\PSoC5/APPS_ADC.c **** * Parameters:
 204:.\Generated_Source\PSoC5/APPS_ADC.c **** *  None.
 205:.\Generated_Source\PSoC5/APPS_ADC.c **** *
 206:.\Generated_Source\PSoC5/APPS_ADC.c **** * Return:
 207:.\Generated_Source\PSoC5/APPS_ADC.c **** *  None.
 208:.\Generated_Source\PSoC5/APPS_ADC.c **** *
 209:.\Generated_Source\PSoC5/APPS_ADC.c **** * Side Effects:
 210:.\Generated_Source\PSoC5/APPS_ADC.c **** *  If the initVar variable is already set, this function only calls the 
 211:.\Generated_Source\PSoC5/APPS_ADC.c **** *  APPS_ADC_Enable() function
 212:.\Generated_Source\PSoC5/APPS_ADC.c **** *
 213:.\Generated_Source\PSoC5/APPS_ADC.c **** * Reentrant:
 214:.\Generated_Source\PSoC5/APPS_ADC.c **** *  No.
 215:.\Generated_Source\PSoC5/APPS_ADC.c **** *
 216:.\Generated_Source\PSoC5/APPS_ADC.c **** *******************************************************************************/
 217:.\Generated_Source\PSoC5/APPS_ADC.c **** void APPS_ADC_Start(void)
 218:.\Generated_Source\PSoC5/APPS_ADC.c **** {
 270              		.loc 1 218 0
 271              		.cfi_startproc
 272              		@ args = 0, pretend = 0, frame = 0
 273              		@ frame_needed = 0, uses_anonymous_args = 0
 274 0000 08B5     		push	{r3, lr}
 275              		.cfi_def_cfa_offset 8
 276              		.cfi_offset 3, -8
 277              		.cfi_offset 14, -4
 219:.\Generated_Source\PSoC5/APPS_ADC.c ****     if(APPS_ADC_initVar == 0u)
 278              		.loc 1 219 0
 279 0002 074B     		ldr	r3, .L14
 280 0004 9B68     		ldr	r3, [r3, #8]
 281 0006 23B9     		cbnz	r3, .L13
 220:.\Generated_Source\PSoC5/APPS_ADC.c ****     {
 221:.\Generated_Source\PSoC5/APPS_ADC.c ****         APPS_ADC_Init();
 282              		.loc 1 221 0
 283 0008 FFF7FEFF 		bl	APPS_ADC_Init
 284              	.LVL22:
 222:.\Generated_Source\PSoC5/APPS_ADC.c ****         APPS_ADC_initVar = 1u;
 285              		.loc 1 222 0
 286 000c 0122     		movs	r2, #1
 287 000e 044B     		ldr	r3, .L14
 288 0010 9A60     		str	r2, [r3, #8]
 289              	.L13:
 223:.\Generated_Source\PSoC5/APPS_ADC.c ****     }
 224:.\Generated_Source\PSoC5/APPS_ADC.c **** 
ARM GAS  C:\Users\mitchell\AppData\Local\Temp\ccszIpL5.s 			page 10


 225:.\Generated_Source\PSoC5/APPS_ADC.c ****     APPS_ADC_Enable();
 290              		.loc 1 225 0
 291 0012 FFF7FEFF 		bl	APPS_ADC_Enable
 292              	.LVL23:
 226:.\Generated_Source\PSoC5/APPS_ADC.c ****     APPS_ADC_SAR_Start();
 293              		.loc 1 226 0
 294 0016 FFF7FEFF 		bl	APPS_ADC_SAR_Start
 295              	.LVL24:
 227:.\Generated_Source\PSoC5/APPS_ADC.c ****     (void) CY_GET_REG8(APPS_ADC_STATUS_PTR);
 296              		.loc 1 227 0
 297 001a 024B     		ldr	r3, .L14+4
 298 001c 1B78     		ldrb	r3, [r3]	@ zero_extendqisi2
 299 001e 08BD     		pop	{r3, pc}
 300              	.L15:
 301              		.align	2
 302              	.L14:
 303 0020 00000000 		.word	.LANCHOR0
 304 0024 67650040 		.word	1073767783
 305              		.cfi_endproc
 306              	.LFE3:
 307              		.size	APPS_ADC_Start, .-APPS_ADC_Start
 308              		.section	.text.APPS_ADC_Stop,"ax",%progbits
 309              		.align	2
 310              		.global	APPS_ADC_Stop
 311              		.thumb
 312              		.thumb_func
 313              		.type	APPS_ADC_Stop, %function
 314              	APPS_ADC_Stop:
 315              	.LFB4:
 228:.\Generated_Source\PSoC5/APPS_ADC.c **** 
 229:.\Generated_Source\PSoC5/APPS_ADC.c **** }
 230:.\Generated_Source\PSoC5/APPS_ADC.c **** 
 231:.\Generated_Source\PSoC5/APPS_ADC.c **** 
 232:.\Generated_Source\PSoC5/APPS_ADC.c **** /*******************************************************************************
 233:.\Generated_Source\PSoC5/APPS_ADC.c **** * Function Name: APPS_ADC_Stop
 234:.\Generated_Source\PSoC5/APPS_ADC.c **** ********************************************************************************
 235:.\Generated_Source\PSoC5/APPS_ADC.c **** *
 236:.\Generated_Source\PSoC5/APPS_ADC.c **** * Summary:
 237:.\Generated_Source\PSoC5/APPS_ADC.c **** *  Stops component.
 238:.\Generated_Source\PSoC5/APPS_ADC.c **** *
 239:.\Generated_Source\PSoC5/APPS_ADC.c **** * Parameters:
 240:.\Generated_Source\PSoC5/APPS_ADC.c **** *  None.
 241:.\Generated_Source\PSoC5/APPS_ADC.c **** *
 242:.\Generated_Source\PSoC5/APPS_ADC.c **** * Return:
 243:.\Generated_Source\PSoC5/APPS_ADC.c **** *  None.
 244:.\Generated_Source\PSoC5/APPS_ADC.c **** *
 245:.\Generated_Source\PSoC5/APPS_ADC.c **** * Side Effects:
 246:.\Generated_Source\PSoC5/APPS_ADC.c **** *  None.
 247:.\Generated_Source\PSoC5/APPS_ADC.c **** *
 248:.\Generated_Source\PSoC5/APPS_ADC.c **** * Reentrant:
 249:.\Generated_Source\PSoC5/APPS_ADC.c **** *  No.
 250:.\Generated_Source\PSoC5/APPS_ADC.c **** *
 251:.\Generated_Source\PSoC5/APPS_ADC.c **** *******************************************************************************/
 252:.\Generated_Source\PSoC5/APPS_ADC.c **** void APPS_ADC_Stop(void)
 253:.\Generated_Source\PSoC5/APPS_ADC.c **** {
 316              		.loc 1 253 0
 317              		.cfi_startproc
ARM GAS  C:\Users\mitchell\AppData\Local\Temp\ccszIpL5.s 			page 11


 318              		@ args = 0, pretend = 0, frame = 0
 319              		@ frame_needed = 0, uses_anonymous_args = 0
 320 0000 08B5     		push	{r3, lr}
 321              		.cfi_def_cfa_offset 8
 322              		.cfi_offset 3, -8
 323              		.cfi_offset 14, -4
 254:.\Generated_Source\PSoC5/APPS_ADC.c ****     APPS_ADC_SAR_Stop();
 324              		.loc 1 254 0
 325 0002 FFF7FEFF 		bl	APPS_ADC_SAR_Stop
 326              	.LVL25:
 255:.\Generated_Source\PSoC5/APPS_ADC.c ****     APPS_ADC_Disable();
 327              		.loc 1 255 0
 328 0006 FFF7FEFF 		bl	APPS_ADC_Disable
 329              	.LVL26:
 330 000a 08BD     		pop	{r3, pc}
 331              		.cfi_endproc
 332              	.LFE4:
 333              		.size	APPS_ADC_Stop, .-APPS_ADC_Stop
 334              		.section	.text.APPS_ADC_StartConvert,"ax",%progbits
 335              		.align	2
 336              		.global	APPS_ADC_StartConvert
 337              		.thumb
 338              		.thumb_func
 339              		.type	APPS_ADC_StartConvert, %function
 340              	APPS_ADC_StartConvert:
 341              	.LFB5:
 256:.\Generated_Source\PSoC5/APPS_ADC.c **** }
 257:.\Generated_Source\PSoC5/APPS_ADC.c **** 
 258:.\Generated_Source\PSoC5/APPS_ADC.c **** #if(APPS_ADC_SAMPLE_MODE != APPS_ADC_SAMPLE_MODE_HW_TRIGGERED)
 259:.\Generated_Source\PSoC5/APPS_ADC.c **** 
 260:.\Generated_Source\PSoC5/APPS_ADC.c ****     /*******************************************************************************
 261:.\Generated_Source\PSoC5/APPS_ADC.c ****     * Function Name: APPS_ADC_StartConvert
 262:.\Generated_Source\PSoC5/APPS_ADC.c ****     ********************************************************************************
 263:.\Generated_Source\PSoC5/APPS_ADC.c ****     *
 264:.\Generated_Source\PSoC5/APPS_ADC.c ****     * Summary:
 265:.\Generated_Source\PSoC5/APPS_ADC.c ****     *  When the Sample Mode parameter is set to 'Free Running', the component will
 266:.\Generated_Source\PSoC5/APPS_ADC.c ****     * operate in a continuous mode. The channels will be scanned continuously until
 267:.\Generated_Source\PSoC5/APPS_ADC.c ****     * _StopConvert()or  _Stop() is called
 268:.\Generated_Source\PSoC5/APPS_ADC.c ****     *
 269:.\Generated_Source\PSoC5/APPS_ADC.c ****     * Parameters:
 270:.\Generated_Source\PSoC5/APPS_ADC.c ****     *  None.
 271:.\Generated_Source\PSoC5/APPS_ADC.c ****     *
 272:.\Generated_Source\PSoC5/APPS_ADC.c ****     * Return:
 273:.\Generated_Source\PSoC5/APPS_ADC.c ****     *  None.
 274:.\Generated_Source\PSoC5/APPS_ADC.c ****     *
 275:.\Generated_Source\PSoC5/APPS_ADC.c ****     * Side Effects:
 276:.\Generated_Source\PSoC5/APPS_ADC.c ****     *  Calling APPS_ADC_StartConvert() disables the external SOC pin.
 277:.\Generated_Source\PSoC5/APPS_ADC.c ****     *
 278:.\Generated_Source\PSoC5/APPS_ADC.c ****     * Reentrant:
 279:.\Generated_Source\PSoC5/APPS_ADC.c ****     *  No.
 280:.\Generated_Source\PSoC5/APPS_ADC.c ****     *
 281:.\Generated_Source\PSoC5/APPS_ADC.c ****     *******************************************************************************/
 282:.\Generated_Source\PSoC5/APPS_ADC.c ****     void APPS_ADC_StartConvert(void)
 283:.\Generated_Source\PSoC5/APPS_ADC.c ****     {
 342              		.loc 1 283 0
 343              		.cfi_startproc
 344              		@ args = 0, pretend = 0, frame = 0
ARM GAS  C:\Users\mitchell\AppData\Local\Temp\ccszIpL5.s 			page 12


 345              		@ frame_needed = 0, uses_anonymous_args = 0
 346              		@ link register save eliminated.
 284:.\Generated_Source\PSoC5/APPS_ADC.c ****         #if(APPS_ADC_SAMPLE_MODE != APPS_ADC_SAMPLE_MODE_FREE_RUNNING)
 285:.\Generated_Source\PSoC5/APPS_ADC.c **** 
 286:.\Generated_Source\PSoC5/APPS_ADC.c ****             APPS_ADC_CONTROL_REG |= ((uint8)(APPS_ADC_SOFTWARE_SOC_PULSE));
 347              		.loc 1 286 0
 348 0000 024B     		ldr	r3, .L18
 349 0002 1A78     		ldrb	r2, [r3]	@ zero_extendqisi2
 350 0004 42F00402 		orr	r2, r2, #4
 351 0008 1A70     		strb	r2, [r3]
 352 000a 7047     		bx	lr
 353              	.L19:
 354              		.align	2
 355              	.L18:
 356 000c 77640040 		.word	1073767543
 357              		.cfi_endproc
 358              	.LFE5:
 359              		.size	APPS_ADC_StartConvert, .-APPS_ADC_StartConvert
 360              		.section	.text.APPS_ADC_StopConvert,"ax",%progbits
 361              		.align	2
 362              		.global	APPS_ADC_StopConvert
 363              		.thumb
 364              		.thumb_func
 365              		.type	APPS_ADC_StopConvert, %function
 366              	APPS_ADC_StopConvert:
 367              	.LFB6:
 287:.\Generated_Source\PSoC5/APPS_ADC.c **** 
 288:.\Generated_Source\PSoC5/APPS_ADC.c ****         #else
 289:.\Generated_Source\PSoC5/APPS_ADC.c **** 
 290:.\Generated_Source\PSoC5/APPS_ADC.c ****             APPS_ADC_SAR_StartConvert();
 291:.\Generated_Source\PSoC5/APPS_ADC.c **** 
 292:.\Generated_Source\PSoC5/APPS_ADC.c ****         #endif /*
 293:.\Generated_Source\PSoC5/APPS_ADC.c ****                  #if(APPS_ADC_SAMPLE_MODE !=
 294:.\Generated_Source\PSoC5/APPS_ADC.c ****                  APPS_ADC_SAMPLE_MODE_FREE_RUNNING)
 295:.\Generated_Source\PSoC5/APPS_ADC.c ****                */
 296:.\Generated_Source\PSoC5/APPS_ADC.c ****     }
 297:.\Generated_Source\PSoC5/APPS_ADC.c **** 
 298:.\Generated_Source\PSoC5/APPS_ADC.c **** 
 299:.\Generated_Source\PSoC5/APPS_ADC.c ****     /*******************************************************************************
 300:.\Generated_Source\PSoC5/APPS_ADC.c ****     * Function Name: APPS_ADC_StopConvert
 301:.\Generated_Source\PSoC5/APPS_ADC.c ****     ********************************************************************************
 302:.\Generated_Source\PSoC5/APPS_ADC.c ****     *
 303:.\Generated_Source\PSoC5/APPS_ADC.c ****     * Summary:
 304:.\Generated_Source\PSoC5/APPS_ADC.c ****     *  Forces the component to stop all conversions
 305:.\Generated_Source\PSoC5/APPS_ADC.c ****     *
 306:.\Generated_Source\PSoC5/APPS_ADC.c ****     * Parameters:
 307:.\Generated_Source\PSoC5/APPS_ADC.c ****     *  None.
 308:.\Generated_Source\PSoC5/APPS_ADC.c ****     *
 309:.\Generated_Source\PSoC5/APPS_ADC.c ****     * Return:
 310:.\Generated_Source\PSoC5/APPS_ADC.c ****     *  None.
 311:.\Generated_Source\PSoC5/APPS_ADC.c ****     *
 312:.\Generated_Source\PSoC5/APPS_ADC.c ****     * Side Effects:
 313:.\Generated_Source\PSoC5/APPS_ADC.c ****     *  In free-running and software trigger mode, this function sets a software 
 314:.\Generated_Source\PSoC5/APPS_ADC.c ****     *  version of the SOC to low level and switches the SOC source to hardware SOC 
 315:.\Generated_Source\PSoC5/APPS_ADC.c ****     *  input (Hardware trigger).
 316:.\Generated_Source\PSoC5/APPS_ADC.c ****     *
 317:.\Generated_Source\PSoC5/APPS_ADC.c ****     * Reentrant:
ARM GAS  C:\Users\mitchell\AppData\Local\Temp\ccszIpL5.s 			page 13


 318:.\Generated_Source\PSoC5/APPS_ADC.c ****     *  No.
 319:.\Generated_Source\PSoC5/APPS_ADC.c ****     *
 320:.\Generated_Source\PSoC5/APPS_ADC.c ****     *******************************************************************************/
 321:.\Generated_Source\PSoC5/APPS_ADC.c ****     void APPS_ADC_StopConvert(void)
 322:.\Generated_Source\PSoC5/APPS_ADC.c ****     {
 368              		.loc 1 322 0
 369              		.cfi_startproc
 370              		@ args = 0, pretend = 0, frame = 0
 371              		@ frame_needed = 0, uses_anonymous_args = 0
 372 0000 08B5     		push	{r3, lr}
 373              		.cfi_def_cfa_offset 8
 374              		.cfi_offset 3, -8
 375              		.cfi_offset 14, -4
 323:.\Generated_Source\PSoC5/APPS_ADC.c ****         APPS_ADC_SAR_StopConvert();
 376              		.loc 1 323 0
 377 0002 FFF7FEFF 		bl	APPS_ADC_SAR_StopConvert
 378              	.LVL27:
 379 0006 08BD     		pop	{r3, pc}
 380              		.cfi_endproc
 381              	.LFE6:
 382              		.size	APPS_ADC_StopConvert, .-APPS_ADC_StopConvert
 383              		.section	.text.APPS_ADC_IsEndConversion,"ax",%progbits
 384              		.align	2
 385              		.global	APPS_ADC_IsEndConversion
 386              		.thumb
 387              		.thumb_func
 388              		.type	APPS_ADC_IsEndConversion, %function
 389              	APPS_ADC_IsEndConversion:
 390              	.LFB7:
 324:.\Generated_Source\PSoC5/APPS_ADC.c ****     }
 325:.\Generated_Source\PSoC5/APPS_ADC.c **** 
 326:.\Generated_Source\PSoC5/APPS_ADC.c **** #endif /* APPS_ADC_SAMPLE_MODE != APPS_ADC_SAMPLE_MODE_HW_TRIGGERED */
 327:.\Generated_Source\PSoC5/APPS_ADC.c **** 
 328:.\Generated_Source\PSoC5/APPS_ADC.c **** 
 329:.\Generated_Source\PSoC5/APPS_ADC.c **** /*******************************************************************************
 330:.\Generated_Source\PSoC5/APPS_ADC.c **** * Function Name: APPS_ADC_IsEndConversion
 331:.\Generated_Source\PSoC5/APPS_ADC.c **** ********************************************************************************
 332:.\Generated_Source\PSoC5/APPS_ADC.c **** *
 333:.\Generated_Source\PSoC5/APPS_ADC.c **** * Summary:
 334:.\Generated_Source\PSoC5/APPS_ADC.c **** *  Checks for ADC end of conversion for the case one channel and end of scan
 335:.\Generated_Source\PSoC5/APPS_ADC.c **** *  for the case of multiple channels
 336:.\Generated_Source\PSoC5/APPS_ADC.c **** *
 337:.\Generated_Source\PSoC5/APPS_ADC.c **** * Parameters:
 338:.\Generated_Source\PSoC5/APPS_ADC.c **** *  retMode: Check conversion return mode
 339:.\Generated_Source\PSoC5/APPS_ADC.c **** *   Values:
 340:.\Generated_Source\PSoC5/APPS_ADC.c **** *         - APPS_ADC_RETURN_STATUS      - Immediately returns the 
 341:.\Generated_Source\PSoC5/APPS_ADC.c **** *                                                 status
 342:.\Generated_Source\PSoC5/APPS_ADC.c **** *         - APPS_ADC_WAIT_FOR_RESULT    - Does not return a result 
 343:.\Generated_Source\PSoC5/APPS_ADC.c **** *                                                 until the conversion 
 344:.\Generated_Source\PSoC5/APPS_ADC.c **** *                                                 is complete
 345:.\Generated_Source\PSoC5/APPS_ADC.c **** *
 346:.\Generated_Source\PSoC5/APPS_ADC.c **** * Return:
 347:.\Generated_Source\PSoC5/APPS_ADC.c **** *  If a nonzero value is returned, the last conversion is complete. If the 
 348:.\Generated_Source\PSoC5/APPS_ADC.c **** *  returned value is zero, the ADC_SAR_Seq is still calculating the last result
 349:.\Generated_Source\PSoC5/APPS_ADC.c **** *
 350:.\Generated_Source\PSoC5/APPS_ADC.c **** * Side Effects:
 351:.\Generated_Source\PSoC5/APPS_ADC.c **** *  This function reads the end of conversion status, which is cleared on read
ARM GAS  C:\Users\mitchell\AppData\Local\Temp\ccszIpL5.s 			page 14


 352:.\Generated_Source\PSoC5/APPS_ADC.c **** *
 353:.\Generated_Source\PSoC5/APPS_ADC.c **** * Reentrant:
 354:.\Generated_Source\PSoC5/APPS_ADC.c **** *  No.
 355:.\Generated_Source\PSoC5/APPS_ADC.c **** *
 356:.\Generated_Source\PSoC5/APPS_ADC.c **** *******************************************************************************/
 357:.\Generated_Source\PSoC5/APPS_ADC.c **** uint32 APPS_ADC_IsEndConversion(uint8 retMode)
 358:.\Generated_Source\PSoC5/APPS_ADC.c **** {
 391              		.loc 1 358 0
 392              		.cfi_startproc
 393              		@ args = 0, pretend = 0, frame = 0
 394              		@ frame_needed = 0, uses_anonymous_args = 0
 395              		@ link register save eliminated.
 396              	.LVL28:
 359:.\Generated_Source\PSoC5/APPS_ADC.c ****     uint8 status;
 360:.\Generated_Source\PSoC5/APPS_ADC.c **** 
 361:.\Generated_Source\PSoC5/APPS_ADC.c ****     do
 362:.\Generated_Source\PSoC5/APPS_ADC.c ****     {
 363:.\Generated_Source\PSoC5/APPS_ADC.c ****       status = APPS_ADC_STATUS_REG;
 397              		.loc 1 363 0
 398 0000 0449     		ldr	r1, .L25
 399              	.L23:
 400              		.loc 1 363 0 is_stmt 0 discriminator 1
 401 0002 0B78     		ldrb	r3, [r1]	@ zero_extendqisi2
 402              	.LVL29:
 364:.\Generated_Source\PSoC5/APPS_ADC.c ****     } while ((status == 0u) && (retMode == APPS_ADC_WAIT_FOR_RESULT));
 403              		.loc 1 364 0 is_stmt 1 discriminator 1
 404 0004 03F0FF02 		and	r2, r3, #255
 405 0008 0BB9     		cbnz	r3, .L22
 406 000a 0028     		cmp	r0, #0
 407 000c F9D0     		beq	.L23
 408              	.L22:
 365:.\Generated_Source\PSoC5/APPS_ADC.c **** 
 366:.\Generated_Source\PSoC5/APPS_ADC.c ****     return((uint32)status);
 367:.\Generated_Source\PSoC5/APPS_ADC.c **** }
 409              		.loc 1 367 0
 410 000e 1046     		mov	r0, r2
 411              	.LVL30:
 412 0010 7047     		bx	lr
 413              	.L26:
 414 0012 00BF     		.align	2
 415              	.L25:
 416 0014 67650040 		.word	1073767783
 417              		.cfi_endproc
 418              	.LFE7:
 419              		.size	APPS_ADC_IsEndConversion, .-APPS_ADC_IsEndConversion
 420              		.section	.text.APPS_ADC_GetResult16,"ax",%progbits
 421              		.align	2
 422              		.global	APPS_ADC_GetResult16
 423              		.thumb
 424              		.thumb_func
 425              		.type	APPS_ADC_GetResult16, %function
 426              	APPS_ADC_GetResult16:
 427              	.LFB8:
 368:.\Generated_Source\PSoC5/APPS_ADC.c **** 
 369:.\Generated_Source\PSoC5/APPS_ADC.c **** 
 370:.\Generated_Source\PSoC5/APPS_ADC.c **** /*******************************************************************************
 371:.\Generated_Source\PSoC5/APPS_ADC.c **** * Function Name: APPS_ADC_GetResult16
ARM GAS  C:\Users\mitchell\AppData\Local\Temp\ccszIpL5.s 			page 15


 372:.\Generated_Source\PSoC5/APPS_ADC.c **** ********************************************************************************
 373:.\Generated_Source\PSoC5/APPS_ADC.c **** *
 374:.\Generated_Source\PSoC5/APPS_ADC.c **** * Summary:
 375:.\Generated_Source\PSoC5/APPS_ADC.c **** *  Returns the ADC result for channel chan
 376:.\Generated_Source\PSoC5/APPS_ADC.c **** *
 377:.\Generated_Source\PSoC5/APPS_ADC.c **** * Parameters:
 378:.\Generated_Source\PSoC5/APPS_ADC.c **** *  chan: The ADC channel in which to return the result. The first channel is 0 
 379:.\Generated_Source\PSoC5/APPS_ADC.c **** *        and the last channel is the total number of channels - 1
 380:.\Generated_Source\PSoC5/APPS_ADC.c **** *
 381:.\Generated_Source\PSoC5/APPS_ADC.c **** * Return:
 382:.\Generated_Source\PSoC5/APPS_ADC.c **** *  Returns converted data as a signed 16-bit integer
 383:.\Generated_Source\PSoC5/APPS_ADC.c **** *
 384:.\Generated_Source\PSoC5/APPS_ADC.c **** * Side Effects:
 385:.\Generated_Source\PSoC5/APPS_ADC.c **** *  Converts the ADC counts to the 2's complement form
 386:.\Generated_Source\PSoC5/APPS_ADC.c **** *
 387:.\Generated_Source\PSoC5/APPS_ADC.c **** * Reentrant:
 388:.\Generated_Source\PSoC5/APPS_ADC.c **** *  No.
 389:.\Generated_Source\PSoC5/APPS_ADC.c **** *
 390:.\Generated_Source\PSoC5/APPS_ADC.c **** *******************************************************************************/
 391:.\Generated_Source\PSoC5/APPS_ADC.c **** int16 APPS_ADC_GetResult16(uint16 chan)
 392:.\Generated_Source\PSoC5/APPS_ADC.c **** {
 428              		.loc 1 392 0
 429              		.cfi_startproc
 430              		@ args = 0, pretend = 0, frame = 0
 431              		@ frame_needed = 0, uses_anonymous_args = 0
 432              		@ link register save eliminated.
 433              	.LVL31:
 393:.\Generated_Source\PSoC5/APPS_ADC.c ****     return (APPS_ADC_finalArray[APPS_ADC_GET_RESULT_INDEX_OFFSET - chan] - APPS_ADC_SAR_shift);
 434              		.loc 1 393 0
 435 0000 C0F10100 		rsb	r0, r0, #1
 436              	.LVL32:
 437 0004 034B     		ldr	r3, .L28
 438 0006 33F81000 		ldrh	r0, [r3, r0, lsl #1]
 439 000a 034B     		ldr	r3, .L28+4
 440 000c 1B88     		ldrh	r3, [r3]
 441 000e C01A     		subs	r0, r0, r3
 394:.\Generated_Source\PSoC5/APPS_ADC.c **** }
 442              		.loc 1 394 0
 443 0010 00B2     		sxth	r0, r0
 444 0012 7047     		bx	lr
 445              	.L29:
 446              		.align	2
 447              	.L28:
 448 0014 00000000 		.word	APPS_ADC_finalArray
 449 0018 00000000 		.word	APPS_ADC_SAR_shift
 450              		.cfi_endproc
 451              	.LFE8:
 452              		.size	APPS_ADC_GetResult16, .-APPS_ADC_GetResult16
 453              		.section	.text.APPS_ADC_GetAdcResult,"ax",%progbits
 454              		.align	2
 455              		.global	APPS_ADC_GetAdcResult
 456              		.thumb
 457              		.thumb_func
 458              		.type	APPS_ADC_GetAdcResult, %function
 459              	APPS_ADC_GetAdcResult:
 460              	.LFB9:
 395:.\Generated_Source\PSoC5/APPS_ADC.c **** 
ARM GAS  C:\Users\mitchell\AppData\Local\Temp\ccszIpL5.s 			page 16


 396:.\Generated_Source\PSoC5/APPS_ADC.c **** 
 397:.\Generated_Source\PSoC5/APPS_ADC.c **** /*******************************************************************************
 398:.\Generated_Source\PSoC5/APPS_ADC.c **** * Function Name: APPS_ADC_GetAdcResult
 399:.\Generated_Source\PSoC5/APPS_ADC.c **** ********************************************************************************
 400:.\Generated_Source\PSoC5/APPS_ADC.c **** *
 401:.\Generated_Source\PSoC5/APPS_ADC.c **** * Summary:
 402:.\Generated_Source\PSoC5/APPS_ADC.c **** *  Gets the data available in the SAR DATA register, not the results buffer
 403:.\Generated_Source\PSoC5/APPS_ADC.c **** *
 404:.\Generated_Source\PSoC5/APPS_ADC.c **** * Parameters:
 405:.\Generated_Source\PSoC5/APPS_ADC.c **** *  None.
 406:.\Generated_Source\PSoC5/APPS_ADC.c **** *
 407:.\Generated_Source\PSoC5/APPS_ADC.c **** * Return:
 408:.\Generated_Source\PSoC5/APPS_ADC.c **** *  The last ADC conversion result
 409:.\Generated_Source\PSoC5/APPS_ADC.c **** *
 410:.\Generated_Source\PSoC5/APPS_ADC.c **** * Side Effects:
 411:.\Generated_Source\PSoC5/APPS_ADC.c **** *  Converts the ADC counts to the 2's complement form
 412:.\Generated_Source\PSoC5/APPS_ADC.c **** *
 413:.\Generated_Source\PSoC5/APPS_ADC.c **** * Reentrant:
 414:.\Generated_Source\PSoC5/APPS_ADC.c **** *  No.
 415:.\Generated_Source\PSoC5/APPS_ADC.c **** *
 416:.\Generated_Source\PSoC5/APPS_ADC.c **** *******************************************************************************/
 417:.\Generated_Source\PSoC5/APPS_ADC.c **** int16 APPS_ADC_GetAdcResult(void)
 418:.\Generated_Source\PSoC5/APPS_ADC.c **** {
 461              		.loc 1 418 0
 462              		.cfi_startproc
 463              		@ args = 0, pretend = 0, frame = 0
 464              		@ frame_needed = 0, uses_anonymous_args = 0
 465 0000 08B5     		push	{r3, lr}
 466              		.cfi_def_cfa_offset 8
 467              		.cfi_offset 3, -8
 468              		.cfi_offset 14, -4
 419:.\Generated_Source\PSoC5/APPS_ADC.c ****     return (APPS_ADC_SAR_GetResult16());
 469              		.loc 1 419 0
 470 0002 FFF7FEFF 		bl	APPS_ADC_SAR_GetResult16
 471              	.LVL33:
 420:.\Generated_Source\PSoC5/APPS_ADC.c **** }
 472              		.loc 1 420 0
 473 0006 08BD     		pop	{r3, pc}
 474              		.cfi_endproc
 475              	.LFE9:
 476              		.size	APPS_ADC_GetAdcResult, .-APPS_ADC_GetAdcResult
 477              		.section	.text.APPS_ADC_SetOffset,"ax",%progbits
 478              		.align	2
 479              		.global	APPS_ADC_SetOffset
 480              		.thumb
 481              		.thumb_func
 482              		.type	APPS_ADC_SetOffset, %function
 483              	APPS_ADC_SetOffset:
 484              	.LFB10:
 421:.\Generated_Source\PSoC5/APPS_ADC.c **** 
 422:.\Generated_Source\PSoC5/APPS_ADC.c **** 
 423:.\Generated_Source\PSoC5/APPS_ADC.c **** /*******************************************************************************
 424:.\Generated_Source\PSoC5/APPS_ADC.c **** * Function Name: APPS_ADC_SetOffset
 425:.\Generated_Source\PSoC5/APPS_ADC.c **** ********************************************************************************
 426:.\Generated_Source\PSoC5/APPS_ADC.c **** *
 427:.\Generated_Source\PSoC5/APPS_ADC.c **** * Summary:
 428:.\Generated_Source\PSoC5/APPS_ADC.c **** *  Sets the ADC offset which is used by the functions _CountsTo_uVolts(),
ARM GAS  C:\Users\mitchell\AppData\Local\Temp\ccszIpL5.s 			page 17


 429:.\Generated_Source\PSoC5/APPS_ADC.c **** *  _CountsTo_mVolts() and _CountsTo_Volts() to substract the offset from the
 430:.\Generated_Source\PSoC5/APPS_ADC.c **** *  given reading before calculating the voltage conversion
 431:.\Generated_Source\PSoC5/APPS_ADC.c **** *
 432:.\Generated_Source\PSoC5/APPS_ADC.c **** * Parameters:
 433:.\Generated_Source\PSoC5/APPS_ADC.c **** *  offset: This value is measured when the inputs are shorted or connected to
 434:.\Generated_Source\PSoC5/APPS_ADC.c **** *  the same input voltage
 435:.\Generated_Source\PSoC5/APPS_ADC.c **** *
 436:.\Generated_Source\PSoC5/APPS_ADC.c **** * Return:
 437:.\Generated_Source\PSoC5/APPS_ADC.c **** *  None.
 438:.\Generated_Source\PSoC5/APPS_ADC.c **** *
 439:.\Generated_Source\PSoC5/APPS_ADC.c **** * Side Effects:
 440:.\Generated_Source\PSoC5/APPS_ADC.c **** *  Affects APPS_ADC_CountsTo_Volts(), 
 441:.\Generated_Source\PSoC5/APPS_ADC.c **** *  APPS_ADC_CountsTo_mVolts(), and APPS_ADC_CountsTo_uVolts() 
 442:.\Generated_Source\PSoC5/APPS_ADC.c **** *  by subtracting the given offset.
 443:.\Generated_Source\PSoC5/APPS_ADC.c **** *
 444:.\Generated_Source\PSoC5/APPS_ADC.c **** * Reentrant:
 445:.\Generated_Source\PSoC5/APPS_ADC.c **** *  No.
 446:.\Generated_Source\PSoC5/APPS_ADC.c **** *
 447:.\Generated_Source\PSoC5/APPS_ADC.c **** *******************************************************************************/
 448:.\Generated_Source\PSoC5/APPS_ADC.c **** void APPS_ADC_SetOffset(int32 offset)
 449:.\Generated_Source\PSoC5/APPS_ADC.c **** {
 485              		.loc 1 449 0
 486              		.cfi_startproc
 487              		@ args = 0, pretend = 0, frame = 0
 488              		@ frame_needed = 0, uses_anonymous_args = 0
 489              	.LVL34:
 490 0000 08B5     		push	{r3, lr}
 491              		.cfi_def_cfa_offset 8
 492              		.cfi_offset 3, -8
 493              		.cfi_offset 14, -4
 450:.\Generated_Source\PSoC5/APPS_ADC.c ****     APPS_ADC_SAR_SetOffset((int16)offset);
 494              		.loc 1 450 0
 495 0002 00B2     		sxth	r0, r0
 496              	.LVL35:
 497 0004 FFF7FEFF 		bl	APPS_ADC_SAR_SetOffset
 498              	.LVL36:
 499 0008 08BD     		pop	{r3, pc}
 500              		.cfi_endproc
 501              	.LFE10:
 502              		.size	APPS_ADC_SetOffset, .-APPS_ADC_SetOffset
 503              		.section	.text.APPS_ADC_SetResolution,"ax",%progbits
 504              		.align	2
 505              		.global	APPS_ADC_SetResolution
 506              		.thumb
 507              		.thumb_func
 508              		.type	APPS_ADC_SetResolution, %function
 509              	APPS_ADC_SetResolution:
 510              	.LFB11:
 451:.\Generated_Source\PSoC5/APPS_ADC.c **** }
 452:.\Generated_Source\PSoC5/APPS_ADC.c **** 
 453:.\Generated_Source\PSoC5/APPS_ADC.c **** 
 454:.\Generated_Source\PSoC5/APPS_ADC.c **** /*******************************************************************************
 455:.\Generated_Source\PSoC5/APPS_ADC.c **** * Function Name: APPS_ADC_SetResolution
 456:.\Generated_Source\PSoC5/APPS_ADC.c **** ********************************************************************************
 457:.\Generated_Source\PSoC5/APPS_ADC.c **** *
 458:.\Generated_Source\PSoC5/APPS_ADC.c **** * Summary:
 459:.\Generated_Source\PSoC5/APPS_ADC.c **** *  Sets the Relution of the SAR.
ARM GAS  C:\Users\mitchell\AppData\Local\Temp\ccszIpL5.s 			page 18


 460:.\Generated_Source\PSoC5/APPS_ADC.c **** *  This function does not affect the actual conversion with PSoC5 ES1 silicon.
 461:.\Generated_Source\PSoC5/APPS_ADC.c **** *
 462:.\Generated_Source\PSoC5/APPS_ADC.c **** * Parameters:
 463:.\Generated_Source\PSoC5/APPS_ADC.c **** *  resolution:
 464:.\Generated_Source\PSoC5/APPS_ADC.c **** *  12 ->    RES12
 465:.\Generated_Source\PSoC5/APPS_ADC.c **** *  10 ->    RES10
 466:.\Generated_Source\PSoC5/APPS_ADC.c **** *  8  ->    RES8
 467:.\Generated_Source\PSoC5/APPS_ADC.c **** *
 468:.\Generated_Source\PSoC5/APPS_ADC.c **** * Return:
 469:.\Generated_Source\PSoC5/APPS_ADC.c **** *  None.
 470:.\Generated_Source\PSoC5/APPS_ADC.c **** *
 471:.\Generated_Source\PSoC5/APPS_ADC.c **** * Side Effects:
 472:.\Generated_Source\PSoC5/APPS_ADC.c **** *  The ADC_SAR_Seq resolution cannot be changed during a conversion cycle. The
 473:.\Generated_Source\PSoC5/APPS_ADC.c **** *  recommended best practice is to stop conversions with
 474:.\Generated_Source\PSoC5/APPS_ADC.c **** *  APPS_ADC_StopConvert(), change the resolution, then restart the
 475:.\Generated_Source\PSoC5/APPS_ADC.c **** *  conversions with APPS_ADC_StartConvert().
 476:.\Generated_Source\PSoC5/APPS_ADC.c **** *  If you decide not to stop conversions before calling this API, you
 477:.\Generated_Source\PSoC5/APPS_ADC.c **** *  should use APPS_ADC_IsEndConversion() to wait until conversion is 
 478:.\Generated_Source\PSoC5/APPS_ADC.c **** *  complete  before changing the resolution.
 479:.\Generated_Source\PSoC5/APPS_ADC.c **** *  If you call ADC_SetResolution() during a conversion, the resolution will
 480:.\Generated_Source\PSoC5/APPS_ADC.c **** *  not be changed until the current conversion is complete. Data will not be
 481:.\Generated_Source\PSoC5/APPS_ADC.c **** *  available in the new resolution for another 6 + "New Resolution(in bits)"
 482:.\Generated_Source\PSoC5/APPS_ADC.c **** *  clock cycles.
 483:.\Generated_Source\PSoC5/APPS_ADC.c **** *  You may need add a delay of this number of clock cycles after
 484:.\Generated_Source\PSoC5/APPS_ADC.c **** *  APPS_ADC_SetResolution() is called before data is valid again.
 485:.\Generated_Source\PSoC5/APPS_ADC.c **** *  Affects APPS_ADC_CountsTo_Volts(), APPS_ADC_CountsTo_mVolts(), 
 486:.\Generated_Source\PSoC5/APPS_ADC.c **** *  and APPS_ADC_CountsTo_uVolts() by calculating the correct conversion 
 487:.\Generated_Source\PSoC5/APPS_ADC.c **** *  between ADC counts and the applied input voltage. Calculation depends on 
 488:.\Generated_Source\PSoC5/APPS_ADC.c **** *  resolution, input range, and voltage reference.
 489:.\Generated_Source\PSoC5/APPS_ADC.c **** *
 490:.\Generated_Source\PSoC5/APPS_ADC.c **** *******************************************************************************/
 491:.\Generated_Source\PSoC5/APPS_ADC.c **** void APPS_ADC_SetResolution(uint8 resolution)
 492:.\Generated_Source\PSoC5/APPS_ADC.c **** {
 511              		.loc 1 492 0
 512              		.cfi_startproc
 513              		@ args = 0, pretend = 0, frame = 0
 514              		@ frame_needed = 0, uses_anonymous_args = 0
 515              	.LVL37:
 516 0000 08B5     		push	{r3, lr}
 517              		.cfi_def_cfa_offset 8
 518              		.cfi_offset 3, -8
 519              		.cfi_offset 14, -4
 493:.\Generated_Source\PSoC5/APPS_ADC.c ****     APPS_ADC_SAR_SetResolution(resolution);
 520              		.loc 1 493 0
 521 0002 FFF7FEFF 		bl	APPS_ADC_SAR_SetResolution
 522              	.LVL38:
 523 0006 08BD     		pop	{r3, pc}
 524              		.cfi_endproc
 525              	.LFE11:
 526              		.size	APPS_ADC_SetResolution, .-APPS_ADC_SetResolution
 527              		.section	.text.APPS_ADC_SetGain,"ax",%progbits
 528              		.align	2
 529              		.global	APPS_ADC_SetGain
 530              		.thumb
 531              		.thumb_func
 532              		.type	APPS_ADC_SetGain, %function
 533              	APPS_ADC_SetGain:
ARM GAS  C:\Users\mitchell\AppData\Local\Temp\ccszIpL5.s 			page 19


 534              	.LFB12:
 494:.\Generated_Source\PSoC5/APPS_ADC.c **** }
 495:.\Generated_Source\PSoC5/APPS_ADC.c **** 
 496:.\Generated_Source\PSoC5/APPS_ADC.c **** 
 497:.\Generated_Source\PSoC5/APPS_ADC.c **** /*******************************************************************************
 498:.\Generated_Source\PSoC5/APPS_ADC.c **** * Function Name: APPS_ADC_SetGain
 499:.\Generated_Source\PSoC5/APPS_ADC.c **** ********************************************************************************
 500:.\Generated_Source\PSoC5/APPS_ADC.c **** *
 501:.\Generated_Source\PSoC5/APPS_ADC.c **** * Summary:
 502:.\Generated_Source\PSoC5/APPS_ADC.c **** *  Sets the ADC gain in counts per volt for the voltage conversion
 503:.\Generated_Source\PSoC5/APPS_ADC.c **** *
 504:.\Generated_Source\PSoC5/APPS_ADC.c **** * Parameters:
 505:.\Generated_Source\PSoC5/APPS_ADC.c **** *  adcGain: counts per volt
 506:.\Generated_Source\PSoC5/APPS_ADC.c **** *
 507:.\Generated_Source\PSoC5/APPS_ADC.c **** * Return:
 508:.\Generated_Source\PSoC5/APPS_ADC.c **** *  None.
 509:.\Generated_Source\PSoC5/APPS_ADC.c **** *
 510:.\Generated_Source\PSoC5/APPS_ADC.c **** * Side Effects:
 511:.\Generated_Source\PSoC5/APPS_ADC.c **** *  None.
 512:.\Generated_Source\PSoC5/APPS_ADC.c **** *
 513:.\Generated_Source\PSoC5/APPS_ADC.c **** * Reentrant:
 514:.\Generated_Source\PSoC5/APPS_ADC.c **** *  No.
 515:.\Generated_Source\PSoC5/APPS_ADC.c **** *
 516:.\Generated_Source\PSoC5/APPS_ADC.c **** *******************************************************************************/
 517:.\Generated_Source\PSoC5/APPS_ADC.c **** void APPS_ADC_SetGain(int32 adcGain)
 518:.\Generated_Source\PSoC5/APPS_ADC.c **** {
 535              		.loc 1 518 0
 536              		.cfi_startproc
 537              		@ args = 0, pretend = 0, frame = 0
 538              		@ frame_needed = 0, uses_anonymous_args = 0
 539              	.LVL39:
 540 0000 08B5     		push	{r3, lr}
 541              		.cfi_def_cfa_offset 8
 542              		.cfi_offset 3, -8
 543              		.cfi_offset 14, -4
 519:.\Generated_Source\PSoC5/APPS_ADC.c ****     APPS_ADC_SAR_SetGain((int16)adcGain);
 544              		.loc 1 519 0
 545 0002 00B2     		sxth	r0, r0
 546              	.LVL40:
 547 0004 FFF7FEFF 		bl	APPS_ADC_SAR_SetGain
 548              	.LVL41:
 549 0008 08BD     		pop	{r3, pc}
 550              		.cfi_endproc
 551              	.LFE12:
 552              		.size	APPS_ADC_SetGain, .-APPS_ADC_SetGain
 553              		.section	.text.APPS_ADC_SetScaledGain,"ax",%progbits
 554              		.align	2
 555              		.global	APPS_ADC_SetScaledGain
 556              		.thumb
 557              		.thumb_func
 558              		.type	APPS_ADC_SetScaledGain, %function
 559              	APPS_ADC_SetScaledGain:
 560              	.LFB13:
 520:.\Generated_Source\PSoC5/APPS_ADC.c **** }
 521:.\Generated_Source\PSoC5/APPS_ADC.c **** 
 522:.\Generated_Source\PSoC5/APPS_ADC.c **** 
 523:.\Generated_Source\PSoC5/APPS_ADC.c **** /*******************************************************************************
ARM GAS  C:\Users\mitchell\AppData\Local\Temp\ccszIpL5.s 			page 20


 524:.\Generated_Source\PSoC5/APPS_ADC.c **** * Function Name: APPS_ADC_SetScaledGain
 525:.\Generated_Source\PSoC5/APPS_ADC.c **** ********************************************************************************
 526:.\Generated_Source\PSoC5/APPS_ADC.c **** *
 527:.\Generated_Source\PSoC5/APPS_ADC.c **** * Summary:
 528:.\Generated_Source\PSoC5/APPS_ADC.c **** *  Sets the ADC gain in counts per 10 volts for the voltage conversion functions
 529:.\Generated_Source\PSoC5/APPS_ADC.c **** *  that follow. This value is set by default by the reference and input range
 530:.\Generated_Source\PSoC5/APPS_ADC.c **** *  settings. It should only be used to further calibrate the ADC with a known
 531:.\Generated_Source\PSoC5/APPS_ADC.c **** *  input or if the ADC is using an external reference.
 532:.\Generated_Source\PSoC5/APPS_ADC.c **** *
 533:.\Generated_Source\PSoC5/APPS_ADC.c **** * Parameters:
 534:.\Generated_Source\PSoC5/APPS_ADC.c **** *  int32  adcGain  counts per 10 volt
 535:.\Generated_Source\PSoC5/APPS_ADC.c **** *
 536:.\Generated_Source\PSoC5/APPS_ADC.c **** * Return:
 537:.\Generated_Source\PSoC5/APPS_ADC.c **** *  None.
 538:.\Generated_Source\PSoC5/APPS_ADC.c **** *
 539:.\Generated_Source\PSoC5/APPS_ADC.c **** * Side Effects:
 540:.\Generated_Source\PSoC5/APPS_ADC.c **** *  Affects APPS_ADC_CountsTo_Volts(), APPS_ADC_CountsTo_mVolts(),
 541:.\Generated_Source\PSoC5/APPS_ADC.c **** *  APPS_ADC_CountsTo_uVolts() by supplying the correct conversion 
 542:.\Generated_Source\PSoC5/APPS_ADC.c **** *  between ADC counts and the applied input voltage
 543:.\Generated_Source\PSoC5/APPS_ADC.c **** *
 544:.\Generated_Source\PSoC5/APPS_ADC.c **** * Reentrant:
 545:.\Generated_Source\PSoC5/APPS_ADC.c **** *  No.
 546:.\Generated_Source\PSoC5/APPS_ADC.c **** *
 547:.\Generated_Source\PSoC5/APPS_ADC.c **** *******************************************************************************/
 548:.\Generated_Source\PSoC5/APPS_ADC.c **** void APPS_ADC_SetScaledGain(int32 adcGain)
 549:.\Generated_Source\PSoC5/APPS_ADC.c **** {
 561              		.loc 1 549 0
 562              		.cfi_startproc
 563              		@ args = 0, pretend = 0, frame = 0
 564              		@ frame_needed = 0, uses_anonymous_args = 0
 565              	.LVL42:
 566 0000 08B5     		push	{r3, lr}
 567              		.cfi_def_cfa_offset 8
 568              		.cfi_offset 3, -8
 569              		.cfi_offset 14, -4
 550:.\Generated_Source\PSoC5/APPS_ADC.c ****     APPS_ADC_SAR_SetScaledGain(adcGain);
 570              		.loc 1 550 0
 571 0002 FFF7FEFF 		bl	APPS_ADC_SAR_SetScaledGain
 572              	.LVL43:
 573 0006 08BD     		pop	{r3, pc}
 574              		.cfi_endproc
 575              	.LFE13:
 576              		.size	APPS_ADC_SetScaledGain, .-APPS_ADC_SetScaledGain
 577              		.section	.text.APPS_ADC_CountsTo_mVolts,"ax",%progbits
 578              		.align	2
 579              		.global	APPS_ADC_CountsTo_mVolts
 580              		.thumb
 581              		.thumb_func
 582              		.type	APPS_ADC_CountsTo_mVolts, %function
 583              	APPS_ADC_CountsTo_mVolts:
 584              	.LFB14:
 551:.\Generated_Source\PSoC5/APPS_ADC.c **** }
 552:.\Generated_Source\PSoC5/APPS_ADC.c **** 
 553:.\Generated_Source\PSoC5/APPS_ADC.c **** 
 554:.\Generated_Source\PSoC5/APPS_ADC.c **** /*******************************************************************************
 555:.\Generated_Source\PSoC5/APPS_ADC.c **** * Function Name: APPS_ADC_CountsTo_mVolts
 556:.\Generated_Source\PSoC5/APPS_ADC.c **** ********************************************************************************
ARM GAS  C:\Users\mitchell\AppData\Local\Temp\ccszIpL5.s 			page 21


 557:.\Generated_Source\PSoC5/APPS_ADC.c **** *
 558:.\Generated_Source\PSoC5/APPS_ADC.c **** * Summary:
 559:.\Generated_Source\PSoC5/APPS_ADC.c **** *  Converts the ADC output to mVolts as a 32-bit integer
 560:.\Generated_Source\PSoC5/APPS_ADC.c **** *
 561:.\Generated_Source\PSoC5/APPS_ADC.c **** * Parameters:
 562:.\Generated_Source\PSoC5/APPS_ADC.c **** *  adcCounts: Result from the ADC_SAR_Seq conversion
 563:.\Generated_Source\PSoC5/APPS_ADC.c **** *
 564:.\Generated_Source\PSoC5/APPS_ADC.c **** * Return:
 565:.\Generated_Source\PSoC5/APPS_ADC.c **** *  Result in mV
 566:.\Generated_Source\PSoC5/APPS_ADC.c **** *
 567:.\Generated_Source\PSoC5/APPS_ADC.c **** * Side Effects:
 568:.\Generated_Source\PSoC5/APPS_ADC.c **** *  None.
 569:.\Generated_Source\PSoC5/APPS_ADC.c **** *
 570:.\Generated_Source\PSoC5/APPS_ADC.c **** * Reentrant:
 571:.\Generated_Source\PSoC5/APPS_ADC.c **** *  No.
 572:.\Generated_Source\PSoC5/APPS_ADC.c **** *
 573:.\Generated_Source\PSoC5/APPS_ADC.c **** *******************************************************************************/
 574:.\Generated_Source\PSoC5/APPS_ADC.c **** int32 APPS_ADC_CountsTo_mVolts(int16 adcCounts)
 575:.\Generated_Source\PSoC5/APPS_ADC.c **** {
 585              		.loc 1 575 0
 586              		.cfi_startproc
 587              		@ args = 0, pretend = 0, frame = 0
 588              		@ frame_needed = 0, uses_anonymous_args = 0
 589              	.LVL44:
 590 0000 08B5     		push	{r3, lr}
 591              		.cfi_def_cfa_offset 8
 592              		.cfi_offset 3, -8
 593              		.cfi_offset 14, -4
 576:.\Generated_Source\PSoC5/APPS_ADC.c ****     return ((int32) APPS_ADC_SAR_CountsTo_mVolts(adcCounts));
 594              		.loc 1 576 0
 595 0002 FFF7FEFF 		bl	APPS_ADC_SAR_CountsTo_mVolts
 596              	.LVL45:
 577:.\Generated_Source\PSoC5/APPS_ADC.c **** }
 597              		.loc 1 577 0
 598 0006 08BD     		pop	{r3, pc}
 599              		.cfi_endproc
 600              	.LFE14:
 601              		.size	APPS_ADC_CountsTo_mVolts, .-APPS_ADC_CountsTo_mVolts
 602              		.section	.text.APPS_ADC_CountsTo_uVolts,"ax",%progbits
 603              		.align	2
 604              		.global	APPS_ADC_CountsTo_uVolts
 605              		.thumb
 606              		.thumb_func
 607              		.type	APPS_ADC_CountsTo_uVolts, %function
 608              	APPS_ADC_CountsTo_uVolts:
 609              	.LFB15:
 578:.\Generated_Source\PSoC5/APPS_ADC.c **** 
 579:.\Generated_Source\PSoC5/APPS_ADC.c **** 
 580:.\Generated_Source\PSoC5/APPS_ADC.c **** /*******************************************************************************
 581:.\Generated_Source\PSoC5/APPS_ADC.c **** * Function Name: APPS_ADC_CountsTo_uVolts
 582:.\Generated_Source\PSoC5/APPS_ADC.c **** ********************************************************************************
 583:.\Generated_Source\PSoC5/APPS_ADC.c **** *
 584:.\Generated_Source\PSoC5/APPS_ADC.c **** * Summary:
 585:.\Generated_Source\PSoC5/APPS_ADC.c **** *  Converts the ADC output to uVolts as a 32-bit integer
 586:.\Generated_Source\PSoC5/APPS_ADC.c **** *
 587:.\Generated_Source\PSoC5/APPS_ADC.c **** * Parameters:
 588:.\Generated_Source\PSoC5/APPS_ADC.c **** *  adcCounts: Result from the ADC conversion
ARM GAS  C:\Users\mitchell\AppData\Local\Temp\ccszIpL5.s 			page 22


 589:.\Generated_Source\PSoC5/APPS_ADC.c **** *
 590:.\Generated_Source\PSoC5/APPS_ADC.c **** * Return:
 591:.\Generated_Source\PSoC5/APPS_ADC.c **** *  Result in uV
 592:.\Generated_Source\PSoC5/APPS_ADC.c **** *
 593:.\Generated_Source\PSoC5/APPS_ADC.c **** * Side Effects:
 594:.\Generated_Source\PSoC5/APPS_ADC.c **** *  None.
 595:.\Generated_Source\PSoC5/APPS_ADC.c **** *
 596:.\Generated_Source\PSoC5/APPS_ADC.c **** * Reentrant:
 597:.\Generated_Source\PSoC5/APPS_ADC.c **** *  No.
 598:.\Generated_Source\PSoC5/APPS_ADC.c **** *
 599:.\Generated_Source\PSoC5/APPS_ADC.c **** *******************************************************************************/
 600:.\Generated_Source\PSoC5/APPS_ADC.c **** int32 APPS_ADC_CountsTo_uVolts(int16 adcCounts)
 601:.\Generated_Source\PSoC5/APPS_ADC.c **** {
 610              		.loc 1 601 0
 611              		.cfi_startproc
 612              		@ args = 0, pretend = 0, frame = 0
 613              		@ frame_needed = 0, uses_anonymous_args = 0
 614              	.LVL46:
 615 0000 08B5     		push	{r3, lr}
 616              		.cfi_def_cfa_offset 8
 617              		.cfi_offset 3, -8
 618              		.cfi_offset 14, -4
 602:.\Generated_Source\PSoC5/APPS_ADC.c ****     return (APPS_ADC_SAR_CountsTo_uVolts(adcCounts));
 619              		.loc 1 602 0
 620 0002 FFF7FEFF 		bl	APPS_ADC_SAR_CountsTo_uVolts
 621              	.LVL47:
 603:.\Generated_Source\PSoC5/APPS_ADC.c **** }
 622              		.loc 1 603 0
 623 0006 08BD     		pop	{r3, pc}
 624              		.cfi_endproc
 625              	.LFE15:
 626              		.size	APPS_ADC_CountsTo_uVolts, .-APPS_ADC_CountsTo_uVolts
 627              		.section	.text.APPS_ADC_CountsTo_Volts,"ax",%progbits
 628              		.align	2
 629              		.global	APPS_ADC_CountsTo_Volts
 630              		.thumb
 631              		.thumb_func
 632              		.type	APPS_ADC_CountsTo_Volts, %function
 633              	APPS_ADC_CountsTo_Volts:
 634              	.LFB16:
 604:.\Generated_Source\PSoC5/APPS_ADC.c **** 
 605:.\Generated_Source\PSoC5/APPS_ADC.c **** 
 606:.\Generated_Source\PSoC5/APPS_ADC.c **** /*******************************************************************************
 607:.\Generated_Source\PSoC5/APPS_ADC.c **** * Function Name: APPS_ADC_CountsTo_Volts
 608:.\Generated_Source\PSoC5/APPS_ADC.c **** ********************************************************************************
 609:.\Generated_Source\PSoC5/APPS_ADC.c **** *
 610:.\Generated_Source\PSoC5/APPS_ADC.c **** * Summary:
 611:.\Generated_Source\PSoC5/APPS_ADC.c **** *  Converts the ADC output to Volts as a floating point number
 612:.\Generated_Source\PSoC5/APPS_ADC.c **** *
 613:.\Generated_Source\PSoC5/APPS_ADC.c **** * Parameters:
 614:.\Generated_Source\PSoC5/APPS_ADC.c **** *  adcCounts: Result from the ADC_SAR_Seq conversion
 615:.\Generated_Source\PSoC5/APPS_ADC.c **** *
 616:.\Generated_Source\PSoC5/APPS_ADC.c **** * Return:
 617:.\Generated_Source\PSoC5/APPS_ADC.c **** *  Result in volts
 618:.\Generated_Source\PSoC5/APPS_ADC.c **** *
 619:.\Generated_Source\PSoC5/APPS_ADC.c **** * Side Effects:
 620:.\Generated_Source\PSoC5/APPS_ADC.c **** *  None.
ARM GAS  C:\Users\mitchell\AppData\Local\Temp\ccszIpL5.s 			page 23


 621:.\Generated_Source\PSoC5/APPS_ADC.c **** *
 622:.\Generated_Source\PSoC5/APPS_ADC.c **** * Reentrant:
 623:.\Generated_Source\PSoC5/APPS_ADC.c **** *  No.
 624:.\Generated_Source\PSoC5/APPS_ADC.c **** *
 625:.\Generated_Source\PSoC5/APPS_ADC.c **** *******************************************************************************/
 626:.\Generated_Source\PSoC5/APPS_ADC.c **** float32 APPS_ADC_CountsTo_Volts(int16 adcCounts)
 627:.\Generated_Source\PSoC5/APPS_ADC.c **** {
 635              		.loc 1 627 0
 636              		.cfi_startproc
 637              		@ args = 0, pretend = 0, frame = 0
 638              		@ frame_needed = 0, uses_anonymous_args = 0
 639              	.LVL48:
 640 0000 08B5     		push	{r3, lr}
 641              		.cfi_def_cfa_offset 8
 642              		.cfi_offset 3, -8
 643              		.cfi_offset 14, -4
 628:.\Generated_Source\PSoC5/APPS_ADC.c ****     return (APPS_ADC_SAR_CountsTo_Volts(adcCounts));
 644              		.loc 1 628 0
 645 0002 FFF7FEFF 		bl	APPS_ADC_SAR_CountsTo_Volts
 646              	.LVL49:
 629:.\Generated_Source\PSoC5/APPS_ADC.c **** }
 647              		.loc 1 629 0
 648 0006 08BD     		pop	{r3, pc}
 649              		.cfi_endproc
 650              	.LFE16:
 651              		.size	APPS_ADC_CountsTo_Volts, .-APPS_ADC_CountsTo_Volts
 652              		.global	APPS_ADC_initVar
 653              		.comm	APPS_ADC_finalArray,4,4
 654              		.data
 655              		.set	.LANCHOR1,. + 0
 656              		.type	APPS_ADC_tempTD, %object
 657              		.size	APPS_ADC_tempTD, 1
 658              	APPS_ADC_tempTD:
 659 0000 FF       		.byte	-1
 660              		.type	APPS_ADC_finalTD, %object
 661              		.size	APPS_ADC_finalTD, 1
 662              	APPS_ADC_finalTD:
 663 0001 FF       		.byte	-1
 664              		.bss
 665              		.align	2
 666              		.set	.LANCHOR0,. + 0
 667              		.type	APPS_ADC_tempChan, %object
 668              		.size	APPS_ADC_tempChan, 1
 669              	APPS_ADC_tempChan:
 670 0000 00       		.space	1
 671              		.type	APPS_ADC_finalChan, %object
 672              		.size	APPS_ADC_finalChan, 1
 673              	APPS_ADC_finalChan:
 674 0001 00       		.space	1
 675 0002 0000     		.space	2
 676              		.type	APPS_ADC_tempArray.5049, %object
 677              		.size	APPS_ADC_tempArray.5049, 4
 678              	APPS_ADC_tempArray.5049:
 679 0004 00000000 		.space	4
 680              		.type	APPS_ADC_initVar, %object
 681              		.size	APPS_ADC_initVar, 4
 682              	APPS_ADC_initVar:
ARM GAS  C:\Users\mitchell\AppData\Local\Temp\ccszIpL5.s 			page 24


 683 0008 00000000 		.space	4
 684              		.text
 685              	.Letext0:
 686              		.file 2 ".\\Generated_Source\\PSoC5\\cytypes.h"
 687              		.file 3 ".\\Generated_Source\\PSoC5\\APPS_ADC_SAR.h"
 688              		.file 4 "Generated_Source\\PSoC5/CYDMAC.H"
 689              		.file 5 ".\\Generated_Source\\PSoC5\\APPS_ADC_TempBuf_dma.h"
 690              		.file 6 ".\\Generated_Source\\PSoC5\\APPS_ADC_FinalBuf_dma.h"
 691              		.file 7 ".\\Generated_Source\\PSoC5\\APPS_ADC_IRQ.h"
 692              		.file 8 ".\\Generated_Source\\PSoC5\\CyLib.h"