ARM GAS  C:\Users\mitchell\AppData\Local\Temp\ccXm76om.s 			page 1


   1              		.syntax unified
   2              		.cpu cortex-m3
   3              		.fpu softvfp
   4              		.eabi_attribute 20, 1
   5              		.eabi_attribute 21, 1
   6              		.eabi_attribute 23, 3
   7              		.eabi_attribute 24, 1
   8              		.eabi_attribute 25, 1
   9              		.eabi_attribute 26, 1
  10              		.eabi_attribute 30, 1
  11              		.eabi_attribute 34, 1
  12              		.eabi_attribute 18, 4
  13              		.thumb
  14              		.file	"cyfitter_cfg.c"
  15              		.text
  16              	.Ltext0:
  17              		.cfi_sections	.debug_frame
  18              		.section	.text.CyClockStartupError,"ax",%progbits
  19              		.align	2
  20              		.thumb
  21              		.thumb_func
  22              		.type	CyClockStartupError, %function
  23              	CyClockStartupError:
  24              	.LFB3:
  25              		.file 1 ".\\Generated_Source\\PSoC5\\cyfitter_cfg.c"
   1:.\Generated_Source\PSoC5/cyfitter_cfg.c **** /*******************************************************************************
   2:.\Generated_Source\PSoC5/cyfitter_cfg.c **** * FILENAME: cyfitter_cfg.c
   3:.\Generated_Source\PSoC5/cyfitter_cfg.c **** * 
   4:.\Generated_Source\PSoC5/cyfitter_cfg.c **** * PSoC Creator  3.2 SP1
   5:.\Generated_Source\PSoC5/cyfitter_cfg.c **** *
   6:.\Generated_Source\PSoC5/cyfitter_cfg.c **** * DESCRIPTION:
   7:.\Generated_Source\PSoC5/cyfitter_cfg.c **** * This file contains device initialization code.
   8:.\Generated_Source\PSoC5/cyfitter_cfg.c **** * Except for the user defined sections in CyClockStartupError(), this file should not be modified.
   9:.\Generated_Source\PSoC5/cyfitter_cfg.c **** * This file is automatically generated by PSoC Creator.
  10:.\Generated_Source\PSoC5/cyfitter_cfg.c **** *
  11:.\Generated_Source\PSoC5/cyfitter_cfg.c **** ********************************************************************************
  12:.\Generated_Source\PSoC5/cyfitter_cfg.c **** * Copyright (c) 2007-2015 Cypress Semiconductor.  All rights reserved.
  13:.\Generated_Source\PSoC5/cyfitter_cfg.c **** * You may use this file only in accordance with the license, terms, conditions, 
  14:.\Generated_Source\PSoC5/cyfitter_cfg.c **** * disclaimers, and limitations in the end user license agreement accompanying 
  15:.\Generated_Source\PSoC5/cyfitter_cfg.c **** * the software package with which this file was provided.
  16:.\Generated_Source\PSoC5/cyfitter_cfg.c **** ********************************************************************************/
  17:.\Generated_Source\PSoC5/cyfitter_cfg.c **** 
  18:.\Generated_Source\PSoC5/cyfitter_cfg.c **** #include <string.h>
  19:.\Generated_Source\PSoC5/cyfitter_cfg.c **** #include "cytypes.h"
  20:.\Generated_Source\PSoC5/cyfitter_cfg.c **** #include "cydevice_trm.h"
  21:.\Generated_Source\PSoC5/cyfitter_cfg.c **** #include "cyfitter.h"
  22:.\Generated_Source\PSoC5/cyfitter_cfg.c **** #include "CyLib.h"
  23:.\Generated_Source\PSoC5/cyfitter_cfg.c **** #include "cyfitter_cfg.h"
  24:.\Generated_Source\PSoC5/cyfitter_cfg.c **** 
  25:.\Generated_Source\PSoC5/cyfitter_cfg.c **** #define CY_NEED_CYCLOCKSTARTUPERROR 1
  26:.\Generated_Source\PSoC5/cyfitter_cfg.c **** 
  27:.\Generated_Source\PSoC5/cyfitter_cfg.c **** 
  28:.\Generated_Source\PSoC5/cyfitter_cfg.c **** #if defined(__GNUC__) || defined(__ARMCC_VERSION)
  29:.\Generated_Source\PSoC5/cyfitter_cfg.c ****     #define CYPACKED 
  30:.\Generated_Source\PSoC5/cyfitter_cfg.c ****     #define CYPACKED_ATTR __attribute__ ((packed))
  31:.\Generated_Source\PSoC5/cyfitter_cfg.c ****     #define CYALIGNED __attribute__ ((aligned))
  32:.\Generated_Source\PSoC5/cyfitter_cfg.c ****     #define CY_CFG_UNUSED __attribute__ ((unused))
ARM GAS  C:\Users\mitchell\AppData\Local\Temp\ccXm76om.s 			page 2


  33:.\Generated_Source\PSoC5/cyfitter_cfg.c ****     #define CY_CFG_SECTION __attribute__ ((section(".psocinit")))
  34:.\Generated_Source\PSoC5/cyfitter_cfg.c ****     
  35:.\Generated_Source\PSoC5/cyfitter_cfg.c ****     #if defined(__ARMCC_VERSION)
  36:.\Generated_Source\PSoC5/cyfitter_cfg.c ****         #define CY_CFG_MEMORY_BARRIER() __memory_changed()
  37:.\Generated_Source\PSoC5/cyfitter_cfg.c ****     #else
  38:.\Generated_Source\PSoC5/cyfitter_cfg.c ****         #define CY_CFG_MEMORY_BARRIER() __sync_synchronize()
  39:.\Generated_Source\PSoC5/cyfitter_cfg.c ****     #endif
  40:.\Generated_Source\PSoC5/cyfitter_cfg.c ****     
  41:.\Generated_Source\PSoC5/cyfitter_cfg.c **** #elif defined(__ICCARM__)
  42:.\Generated_Source\PSoC5/cyfitter_cfg.c ****     #include <intrinsics.h>
  43:.\Generated_Source\PSoC5/cyfitter_cfg.c **** 
  44:.\Generated_Source\PSoC5/cyfitter_cfg.c ****     #define CYPACKED __packed
  45:.\Generated_Source\PSoC5/cyfitter_cfg.c ****     #define CYPACKED_ATTR 
  46:.\Generated_Source\PSoC5/cyfitter_cfg.c ****     #define CYALIGNED _Pragma("data_alignment=4")
  47:.\Generated_Source\PSoC5/cyfitter_cfg.c ****     #define CY_CFG_UNUSED _Pragma("diag_suppress=Pe177")
  48:.\Generated_Source\PSoC5/cyfitter_cfg.c ****     #define CY_CFG_SECTION _Pragma("location=\".psocinit\"")
  49:.\Generated_Source\PSoC5/cyfitter_cfg.c ****     
  50:.\Generated_Source\PSoC5/cyfitter_cfg.c ****     #define CY_CFG_MEMORY_BARRIER() __DMB()
  51:.\Generated_Source\PSoC5/cyfitter_cfg.c ****     
  52:.\Generated_Source\PSoC5/cyfitter_cfg.c **** #else
  53:.\Generated_Source\PSoC5/cyfitter_cfg.c ****     #error Unsupported toolchain
  54:.\Generated_Source\PSoC5/cyfitter_cfg.c **** #endif
  55:.\Generated_Source\PSoC5/cyfitter_cfg.c **** 
  56:.\Generated_Source\PSoC5/cyfitter_cfg.c **** 
  57:.\Generated_Source\PSoC5/cyfitter_cfg.c **** CY_CFG_UNUSED
  58:.\Generated_Source\PSoC5/cyfitter_cfg.c **** static void CYMEMZERO(void *s, size_t n);
  59:.\Generated_Source\PSoC5/cyfitter_cfg.c **** CY_CFG_UNUSED
  60:.\Generated_Source\PSoC5/cyfitter_cfg.c **** static void CYMEMZERO(void *s, size_t n)
  61:.\Generated_Source\PSoC5/cyfitter_cfg.c **** {
  62:.\Generated_Source\PSoC5/cyfitter_cfg.c **** 	(void)memset(s, 0, n);
  63:.\Generated_Source\PSoC5/cyfitter_cfg.c **** }
  64:.\Generated_Source\PSoC5/cyfitter_cfg.c **** CY_CFG_UNUSED
  65:.\Generated_Source\PSoC5/cyfitter_cfg.c **** static void CYCONFIGCPY(void *dest, const void *src, size_t n);
  66:.\Generated_Source\PSoC5/cyfitter_cfg.c **** CY_CFG_UNUSED
  67:.\Generated_Source\PSoC5/cyfitter_cfg.c **** static void CYCONFIGCPY(void *dest, const void *src, size_t n)
  68:.\Generated_Source\PSoC5/cyfitter_cfg.c **** {
  69:.\Generated_Source\PSoC5/cyfitter_cfg.c **** 	(void)memcpy(dest, src, n);
  70:.\Generated_Source\PSoC5/cyfitter_cfg.c **** }
  71:.\Generated_Source\PSoC5/cyfitter_cfg.c **** CY_CFG_UNUSED
  72:.\Generated_Source\PSoC5/cyfitter_cfg.c **** static void CYCONFIGCPYCODE(void *dest, const void *src, size_t n);
  73:.\Generated_Source\PSoC5/cyfitter_cfg.c **** CY_CFG_UNUSED
  74:.\Generated_Source\PSoC5/cyfitter_cfg.c **** static void CYCONFIGCPYCODE(void *dest, const void *src, size_t n)
  75:.\Generated_Source\PSoC5/cyfitter_cfg.c **** {
  76:.\Generated_Source\PSoC5/cyfitter_cfg.c **** 	(void)memcpy(dest, src, n);
  77:.\Generated_Source\PSoC5/cyfitter_cfg.c **** }
  78:.\Generated_Source\PSoC5/cyfitter_cfg.c **** 
  79:.\Generated_Source\PSoC5/cyfitter_cfg.c **** 
  80:.\Generated_Source\PSoC5/cyfitter_cfg.c **** 
  81:.\Generated_Source\PSoC5/cyfitter_cfg.c **** /* Clock startup error codes                                                   */
  82:.\Generated_Source\PSoC5/cyfitter_cfg.c **** #define CYCLOCKSTART_NO_ERROR    0u
  83:.\Generated_Source\PSoC5/cyfitter_cfg.c **** #define CYCLOCKSTART_XTAL_ERROR  1u
  84:.\Generated_Source\PSoC5/cyfitter_cfg.c **** #define CYCLOCKSTART_32KHZ_ERROR 2u
  85:.\Generated_Source\PSoC5/cyfitter_cfg.c **** #define CYCLOCKSTART_PLL_ERROR   3u
  86:.\Generated_Source\PSoC5/cyfitter_cfg.c **** 
  87:.\Generated_Source\PSoC5/cyfitter_cfg.c **** #ifdef CY_NEED_CYCLOCKSTARTUPERROR
  88:.\Generated_Source\PSoC5/cyfitter_cfg.c **** /*******************************************************************************
  89:.\Generated_Source\PSoC5/cyfitter_cfg.c **** * Function Name: CyClockStartupError
ARM GAS  C:\Users\mitchell\AppData\Local\Temp\ccXm76om.s 			page 3


  90:.\Generated_Source\PSoC5/cyfitter_cfg.c **** ********************************************************************************
  91:.\Generated_Source\PSoC5/cyfitter_cfg.c **** * Summary:
  92:.\Generated_Source\PSoC5/cyfitter_cfg.c **** *  If an error is encountered during clock configuration (crystal startup error,
  93:.\Generated_Source\PSoC5/cyfitter_cfg.c **** *  PLL lock error, etc.), the system will end up here.  Unless reimplemented by
  94:.\Generated_Source\PSoC5/cyfitter_cfg.c **** *  the customer, this function will stop in an infinite loop.
  95:.\Generated_Source\PSoC5/cyfitter_cfg.c **** *
  96:.\Generated_Source\PSoC5/cyfitter_cfg.c **** * Parameters:
  97:.\Generated_Source\PSoC5/cyfitter_cfg.c **** *   void
  98:.\Generated_Source\PSoC5/cyfitter_cfg.c **** *
  99:.\Generated_Source\PSoC5/cyfitter_cfg.c **** * Return:
 100:.\Generated_Source\PSoC5/cyfitter_cfg.c **** *   void
 101:.\Generated_Source\PSoC5/cyfitter_cfg.c **** *
 102:.\Generated_Source\PSoC5/cyfitter_cfg.c **** *******************************************************************************/
 103:.\Generated_Source\PSoC5/cyfitter_cfg.c **** CY_CFG_UNUSED
 104:.\Generated_Source\PSoC5/cyfitter_cfg.c **** static void CyClockStartupError(uint8 errorCode);
 105:.\Generated_Source\PSoC5/cyfitter_cfg.c **** CY_CFG_UNUSED
 106:.\Generated_Source\PSoC5/cyfitter_cfg.c **** static void CyClockStartupError(uint8 errorCode)
 107:.\Generated_Source\PSoC5/cyfitter_cfg.c **** {
  26              		.loc 1 107 0
  27              		.cfi_startproc
  28              		@ Volatile: function does not return.
  29              		@ args = 0, pretend = 0, frame = 0
  30              		@ frame_needed = 0, uses_anonymous_args = 0
  31              		@ link register save eliminated.
  32              	.LVL0:
  33              	.L2:
  34 0000 FEE7     		b	.L2
  35              		.cfi_endproc
  36              	.LFE3:
  37              		.size	CyClockStartupError, .-CyClockStartupError
  38 0002 00BF     		.section	.text.cfg_write_bytes32,"ax",%progbits
  39              		.align	2
  40              		.thumb
  41              		.thumb_func
  42              		.type	cfg_write_bytes32, %function
  43              	cfg_write_bytes32:
  44              	.LFB4:
 108:.\Generated_Source\PSoC5/cyfitter_cfg.c ****     /* To remove the compiler warning if errorCode not used.                */
 109:.\Generated_Source\PSoC5/cyfitter_cfg.c ****     errorCode = errorCode;
 110:.\Generated_Source\PSoC5/cyfitter_cfg.c **** 
 111:.\Generated_Source\PSoC5/cyfitter_cfg.c ****     /* `#START CyClockStartupError` */
 112:.\Generated_Source\PSoC5/cyfitter_cfg.c **** 
 113:.\Generated_Source\PSoC5/cyfitter_cfg.c ****     /* If we have a clock startup error (bad MHz crystal, PLL lock, etc.),  */
 114:.\Generated_Source\PSoC5/cyfitter_cfg.c ****     /* we will end up here to allow the customer to implement something to  */
 115:.\Generated_Source\PSoC5/cyfitter_cfg.c ****     /* deal with the clock condition.                                       */
 116:.\Generated_Source\PSoC5/cyfitter_cfg.c **** 
 117:.\Generated_Source\PSoC5/cyfitter_cfg.c ****     /* `#END` */
 118:.\Generated_Source\PSoC5/cyfitter_cfg.c **** 
 119:.\Generated_Source\PSoC5/cyfitter_cfg.c ****     /* If nothing else, stop here since the clocks have not started         */
 120:.\Generated_Source\PSoC5/cyfitter_cfg.c ****     /* correctly.                                                           */
 121:.\Generated_Source\PSoC5/cyfitter_cfg.c ****     while(1) {}
 122:.\Generated_Source\PSoC5/cyfitter_cfg.c **** }
 123:.\Generated_Source\PSoC5/cyfitter_cfg.c **** #endif
 124:.\Generated_Source\PSoC5/cyfitter_cfg.c **** 
 125:.\Generated_Source\PSoC5/cyfitter_cfg.c **** #define CY_CFG_BASE_ADDR_COUNT 42u
 126:.\Generated_Source\PSoC5/cyfitter_cfg.c **** CYPACKED typedef struct
 127:.\Generated_Source\PSoC5/cyfitter_cfg.c **** {
ARM GAS  C:\Users\mitchell\AppData\Local\Temp\ccXm76om.s 			page 4


 128:.\Generated_Source\PSoC5/cyfitter_cfg.c **** 	uint8 offset;
 129:.\Generated_Source\PSoC5/cyfitter_cfg.c **** 	uint8 value;
 130:.\Generated_Source\PSoC5/cyfitter_cfg.c **** } CYPACKED_ATTR cy_cfg_addrvalue_t;
 131:.\Generated_Source\PSoC5/cyfitter_cfg.c **** 
 132:.\Generated_Source\PSoC5/cyfitter_cfg.c **** #define cy_cfg_addr_table ((const uint32 CYFAR *)0x48000000u)
 133:.\Generated_Source\PSoC5/cyfitter_cfg.c **** #define cy_cfg_data_table ((const cy_cfg_addrvalue_t CYFAR *)0x480000A8u)
 134:.\Generated_Source\PSoC5/cyfitter_cfg.c **** 
 135:.\Generated_Source\PSoC5/cyfitter_cfg.c **** /* UCFG_BCTL0 Address: CYREG_BCTL0_MDCLK_EN Size (bytes): 16 */
 136:.\Generated_Source\PSoC5/cyfitter_cfg.c **** #define BS_UCFG_BCTL0_VAL ((const uint8 CYFAR *)0x48000A54u)
 137:.\Generated_Source\PSoC5/cyfitter_cfg.c **** 
 138:.\Generated_Source\PSoC5/cyfitter_cfg.c **** /* IOPINS0_0 Address: CYREG_PRT0_DM0 Size (bytes): 8 */
 139:.\Generated_Source\PSoC5/cyfitter_cfg.c **** #define BS_IOPINS0_0_VAL ((const uint8 CYFAR *)0x48000A64u)
 140:.\Generated_Source\PSoC5/cyfitter_cfg.c **** 
 141:.\Generated_Source\PSoC5/cyfitter_cfg.c **** /* IOPINS0_8 Address: CYREG_PRT15_DR Size (bytes): 10 */
 142:.\Generated_Source\PSoC5/cyfitter_cfg.c **** #define BS_IOPINS0_8_VAL ((const uint8 CYFAR *)0x48000A6Cu)
 143:.\Generated_Source\PSoC5/cyfitter_cfg.c **** 
 144:.\Generated_Source\PSoC5/cyfitter_cfg.c **** /* IOPINS0_2 Address: CYREG_PRT2_DR Size (bytes): 10 */
 145:.\Generated_Source\PSoC5/cyfitter_cfg.c **** #define BS_IOPINS0_2_VAL ((const uint8 CYFAR *)0x48000A78u)
 146:.\Generated_Source\PSoC5/cyfitter_cfg.c **** 
 147:.\Generated_Source\PSoC5/cyfitter_cfg.c **** /* CYDEV_CLKDIST_ACFG0_CFG0 Address: CYREG_CLKDIST_ACFG0_CFG0 Size (bytes): 4 */
 148:.\Generated_Source\PSoC5/cyfitter_cfg.c **** #define BS_CYDEV_CLKDIST_ACFG0_CFG0_VAL ((const uint8 CYFAR *)0x48000A84u)
 149:.\Generated_Source\PSoC5/cyfitter_cfg.c **** 
 150:.\Generated_Source\PSoC5/cyfitter_cfg.c **** /* PHUB_CFGMEM1 Address: CYREG_PHUB_CFGMEM1_CFG0 Size (bytes): 4 */
 151:.\Generated_Source\PSoC5/cyfitter_cfg.c **** #define BS_PHUB_CFGMEM1_VAL ((const uint8 CYFAR *)0x48000A88u)
 152:.\Generated_Source\PSoC5/cyfitter_cfg.c **** 
 153:.\Generated_Source\PSoC5/cyfitter_cfg.c **** /* PHUB_CFGMEM2 Address: CYREG_PHUB_CFGMEM2_CFG0 Size (bytes): 4 */
 154:.\Generated_Source\PSoC5/cyfitter_cfg.c **** #define BS_PHUB_CFGMEM2_VAL ((const uint8 CYFAR *)0x48000A8Cu)
 155:.\Generated_Source\PSoC5/cyfitter_cfg.c **** 
 156:.\Generated_Source\PSoC5/cyfitter_cfg.c **** /* PHUB_CFGMEM3 Address: CYREG_PHUB_CFGMEM3_CFG0 Size (bytes): 4 */
 157:.\Generated_Source\PSoC5/cyfitter_cfg.c **** #define BS_PHUB_CFGMEM3_VAL ((const uint8 CYFAR *)0x48000A90u)
 158:.\Generated_Source\PSoC5/cyfitter_cfg.c **** 
 159:.\Generated_Source\PSoC5/cyfitter_cfg.c **** 
 160:.\Generated_Source\PSoC5/cyfitter_cfg.c **** /*******************************************************************************
 161:.\Generated_Source\PSoC5/cyfitter_cfg.c **** * Function Name: cfg_write_bytes32
 162:.\Generated_Source\PSoC5/cyfitter_cfg.c **** ********************************************************************************
 163:.\Generated_Source\PSoC5/cyfitter_cfg.c **** * Summary:
 164:.\Generated_Source\PSoC5/cyfitter_cfg.c **** *  This function is used for setting up the chip configuration areas that
 165:.\Generated_Source\PSoC5/cyfitter_cfg.c **** *  contain relatively sparse data.
 166:.\Generated_Source\PSoC5/cyfitter_cfg.c **** *
 167:.\Generated_Source\PSoC5/cyfitter_cfg.c **** * Parameters:
 168:.\Generated_Source\PSoC5/cyfitter_cfg.c **** *   void
 169:.\Generated_Source\PSoC5/cyfitter_cfg.c **** *
 170:.\Generated_Source\PSoC5/cyfitter_cfg.c **** * Return:
 171:.\Generated_Source\PSoC5/cyfitter_cfg.c **** *   void
 172:.\Generated_Source\PSoC5/cyfitter_cfg.c **** *
 173:.\Generated_Source\PSoC5/cyfitter_cfg.c **** *******************************************************************************/
 174:.\Generated_Source\PSoC5/cyfitter_cfg.c **** static void cfg_write_bytes32(const uint32 addr_table[], const cy_cfg_addrvalue_t data_table[]);
 175:.\Generated_Source\PSoC5/cyfitter_cfg.c **** static void cfg_write_bytes32(const uint32 addr_table[], const cy_cfg_addrvalue_t data_table[])
 176:.\Generated_Source\PSoC5/cyfitter_cfg.c **** {
  45              		.loc 1 176 0
  46              		.cfi_startproc
  47              		@ args = 0, pretend = 0, frame = 0
  48              		@ frame_needed = 0, uses_anonymous_args = 0
  49              		@ link register save eliminated.
  50              	.LVL1:
  51              		.loc 1 176 0
  52 0000 F0B4     		push	{r4, r5, r6, r7}
ARM GAS  C:\Users\mitchell\AppData\Local\Temp\ccXm76om.s 			page 5


  53              		.cfi_def_cfa_offset 16
  54              		.cfi_offset 4, -16
  55              		.cfi_offset 5, -12
  56              		.cfi_offset 6, -8
  57              		.cfi_offset 7, -4
  58              	.LVL2:
 177:.\Generated_Source\PSoC5/cyfitter_cfg.c **** 	/* For 32-bit little-endian architectures */
 178:.\Generated_Source\PSoC5/cyfitter_cfg.c **** 	uint32 i, j = 0u;
  59              		.loc 1 178 0
  60 0002 0023     		movs	r3, #0
 179:.\Generated_Source\PSoC5/cyfitter_cfg.c **** 	for (i = 0u; i < CY_CFG_BASE_ADDR_COUNT; i++)
  61              		.loc 1 179 0
  62 0004 1F46     		mov	r7, r3
  63 0006 11E0     		b	.L4
  64              	.LVL3:
  65              	.L7:
  66              	.LBB2:
 180:.\Generated_Source\PSoC5/cyfitter_cfg.c **** 	{
 181:.\Generated_Source\PSoC5/cyfitter_cfg.c **** 		uint32 baseAddr = addr_table[i];
  67              		.loc 1 181 0
  68 0008 50F82760 		ldr	r6, [r0, r7, lsl #2]
  69              	.LVL4:
 182:.\Generated_Source\PSoC5/cyfitter_cfg.c **** 		uint8 count = (uint8)baseAddr;
  70              		.loc 1 182 0
  71 000c F2B2     		uxtb	r2, r6
  72              	.LVL5:
 183:.\Generated_Source\PSoC5/cyfitter_cfg.c **** 		baseAddr &= 0xFFFFFF00u;
  73              		.loc 1 183 0
  74 000e 26F0FF06 		bic	r6, r6, #255
  75              	.LVL6:
 184:.\Generated_Source\PSoC5/cyfitter_cfg.c **** 		while (count != 0u)
  76              		.loc 1 184 0
  77 0012 08E0     		b	.L5
  78              	.L6:
 185:.\Generated_Source\PSoC5/cyfitter_cfg.c **** 		{
 186:.\Generated_Source\PSoC5/cyfitter_cfg.c **** 			CY_SET_XTND_REG8((void CYFAR *)(baseAddr + data_table[j].offset), data_table[j].value);
  79              		.loc 1 186 0
  80 0014 01EB4305 		add	r5, r1, r3, lsl #1
  81 0018 11F81340 		ldrb	r4, [r1, r3, lsl #1]	@ zero_extendqisi2
  82 001c 6D78     		ldrb	r5, [r5, #1]	@ zero_extendqisi2
  83 001e A555     		strb	r5, [r4, r6]
 187:.\Generated_Source\PSoC5/cyfitter_cfg.c **** 			j++;
  84              		.loc 1 187 0
  85 0020 0133     		adds	r3, r3, #1
  86              	.LVL7:
 188:.\Generated_Source\PSoC5/cyfitter_cfg.c **** 			count--;
  87              		.loc 1 188 0
  88 0022 013A     		subs	r2, r2, #1
  89              	.LVL8:
  90 0024 D2B2     		uxtb	r2, r2
  91              	.LVL9:
  92              	.L5:
 184:.\Generated_Source\PSoC5/cyfitter_cfg.c **** 		while (count != 0u)
  93              		.loc 1 184 0 discriminator 1
  94 0026 002A     		cmp	r2, #0
  95 0028 F4D1     		bne	.L6
  96              	.LBE2:
ARM GAS  C:\Users\mitchell\AppData\Local\Temp\ccXm76om.s 			page 6


 179:.\Generated_Source\PSoC5/cyfitter_cfg.c **** 	for (i = 0u; i < CY_CFG_BASE_ADDR_COUNT; i++)
  97              		.loc 1 179 0
  98 002a 0137     		adds	r7, r7, #1
  99              	.LVL10:
 100              	.L4:
 179:.\Generated_Source\PSoC5/cyfitter_cfg.c **** 	for (i = 0u; i < CY_CFG_BASE_ADDR_COUNT; i++)
 101              		.loc 1 179 0 is_stmt 0 discriminator 1
 102 002c 292F     		cmp	r7, #41
 103 002e EBD9     		bls	.L7
 189:.\Generated_Source\PSoC5/cyfitter_cfg.c **** 		}
 190:.\Generated_Source\PSoC5/cyfitter_cfg.c **** 	}
 191:.\Generated_Source\PSoC5/cyfitter_cfg.c **** }
 104              		.loc 1 191 0 is_stmt 1
 105 0030 F0BC     		pop	{r4, r5, r6, r7}
 106              	.LVL11:
 107 0032 7047     		bx	lr
 108              		.cfi_endproc
 109              	.LFE4:
 110              		.size	cfg_write_bytes32, .-cfg_write_bytes32
 111              		.section	.text.AnalogSetDefault,"ax",%progbits
 112              		.align	2
 113              		.thumb
 114              		.thumb_func
 115              		.type	AnalogSetDefault, %function
 116              	AnalogSetDefault:
 117              	.LFB6:
 192:.\Generated_Source\PSoC5/cyfitter_cfg.c **** 
 193:.\Generated_Source\PSoC5/cyfitter_cfg.c **** /*******************************************************************************
 194:.\Generated_Source\PSoC5/cyfitter_cfg.c **** * Function Name: ClockSetup
 195:.\Generated_Source\PSoC5/cyfitter_cfg.c **** ********************************************************************************
 196:.\Generated_Source\PSoC5/cyfitter_cfg.c **** *
 197:.\Generated_Source\PSoC5/cyfitter_cfg.c **** * Summary:
 198:.\Generated_Source\PSoC5/cyfitter_cfg.c **** *  Performs the initialization of all of the clocks in the device based on the
 199:.\Generated_Source\PSoC5/cyfitter_cfg.c **** *  settings in the Clock tab of the DWR.  This includes enabling the requested
 200:.\Generated_Source\PSoC5/cyfitter_cfg.c **** *  clocks and setting the necessary dividers to produce the desired frequency. 
 201:.\Generated_Source\PSoC5/cyfitter_cfg.c **** *
 202:.\Generated_Source\PSoC5/cyfitter_cfg.c **** * Parameters:
 203:.\Generated_Source\PSoC5/cyfitter_cfg.c **** *  void
 204:.\Generated_Source\PSoC5/cyfitter_cfg.c **** *
 205:.\Generated_Source\PSoC5/cyfitter_cfg.c **** * Return:
 206:.\Generated_Source\PSoC5/cyfitter_cfg.c **** *  void
 207:.\Generated_Source\PSoC5/cyfitter_cfg.c **** *
 208:.\Generated_Source\PSoC5/cyfitter_cfg.c **** *******************************************************************************/
 209:.\Generated_Source\PSoC5/cyfitter_cfg.c **** static void ClockSetup(void);
 210:.\Generated_Source\PSoC5/cyfitter_cfg.c **** static void ClockSetup(void)
 211:.\Generated_Source\PSoC5/cyfitter_cfg.c **** {
 212:.\Generated_Source\PSoC5/cyfitter_cfg.c **** 	uint32 timeout;
 213:.\Generated_Source\PSoC5/cyfitter_cfg.c **** 	uint8 pllLock;
 214:.\Generated_Source\PSoC5/cyfitter_cfg.c **** 
 215:.\Generated_Source\PSoC5/cyfitter_cfg.c **** 
 216:.\Generated_Source\PSoC5/cyfitter_cfg.c **** 	/* Configure Digital Clocks based on settings from Clock DWR */
 217:.\Generated_Source\PSoC5/cyfitter_cfg.c **** 	CY_SET_XTND_REG16((void CYFAR *)(CYREG_CLKDIST_DCFG0_CFG0), 0x0000u);
 218:.\Generated_Source\PSoC5/cyfitter_cfg.c **** 	CY_SET_XTND_REG8((void CYFAR *)(CYREG_CLKDIST_DCFG0_CFG0 + 0x2u), 0x50u);
 219:.\Generated_Source\PSoC5/cyfitter_cfg.c **** 	CY_SET_XTND_REG16((void CYFAR *)(CYREG_CLKDIST_DCFG1_CFG0), 0x0001u);
 220:.\Generated_Source\PSoC5/cyfitter_cfg.c **** 	CY_SET_XTND_REG8((void CYFAR *)(CYREG_CLKDIST_DCFG1_CFG0 + 0x2u), 0x18u);
 221:.\Generated_Source\PSoC5/cyfitter_cfg.c **** 	CY_SET_XTND_REG16((void CYFAR *)(CYREG_CLKDIST_DCFG2_CFG0), 0x000Eu);
 222:.\Generated_Source\PSoC5/cyfitter_cfg.c **** 	CY_SET_XTND_REG8((void CYFAR *)(CYREG_CLKDIST_DCFG2_CFG0 + 0x2u), 0x18u);
ARM GAS  C:\Users\mitchell\AppData\Local\Temp\ccXm76om.s 			page 7


 223:.\Generated_Source\PSoC5/cyfitter_cfg.c **** 	CY_SET_XTND_REG16((void CYFAR *)(CYREG_CLKDIST_DCFG3_CFG0), 0x000Eu);
 224:.\Generated_Source\PSoC5/cyfitter_cfg.c **** 	CY_SET_XTND_REG8((void CYFAR *)(CYREG_CLKDIST_DCFG3_CFG0 + 0x2u), 0x18u);
 225:.\Generated_Source\PSoC5/cyfitter_cfg.c **** 	CY_SET_XTND_REG16((void CYFAR *)(CYREG_CLKDIST_DCFG4_CFG0), 0x0027u);
 226:.\Generated_Source\PSoC5/cyfitter_cfg.c **** 	CY_SET_XTND_REG8((void CYFAR *)(CYREG_CLKDIST_DCFG4_CFG0 + 0x2u), 0x19u);
 227:.\Generated_Source\PSoC5/cyfitter_cfg.c **** 
 228:.\Generated_Source\PSoC5/cyfitter_cfg.c **** 	/* Configure Analog Clocks based on settings from Clock DWR */
 229:.\Generated_Source\PSoC5/cyfitter_cfg.c **** 	CYCONFIGCPY((void CYFAR *)(CYREG_CLKDIST_ACFG0_CFG0), (const void CYFAR *)(BS_CYDEV_CLKDIST_ACFG0_
 230:.\Generated_Source\PSoC5/cyfitter_cfg.c **** 
 231:.\Generated_Source\PSoC5/cyfitter_cfg.c **** 	/* Configure ILO based on settings from Clock DWR */
 232:.\Generated_Source\PSoC5/cyfitter_cfg.c **** 	CY_SET_XTND_REG8((void CYFAR *)(CYREG_SLOWCLK_ILO_CR0), 0x02u);
 233:.\Generated_Source\PSoC5/cyfitter_cfg.c **** 	CY_SET_XTND_REG8((void CYFAR *)(CYREG_CLKDIST_CR), 0x08u);
 234:.\Generated_Source\PSoC5/cyfitter_cfg.c **** 
 235:.\Generated_Source\PSoC5/cyfitter_cfg.c **** 	/* Configure IMO based on settings from Clock DWR */
 236:.\Generated_Source\PSoC5/cyfitter_cfg.c **** 	CY_SET_XTND_REG8((void CYFAR *)(CYREG_FASTCLK_IMO_CR), 0x03u);
 237:.\Generated_Source\PSoC5/cyfitter_cfg.c **** 	CY_SET_XTND_REG8((void CYFAR *)(CYREG_IMO_TR1), (CY_GET_XTND_REG8((void CYFAR *)CYREG_FLSHID_CUST_
 238:.\Generated_Source\PSoC5/cyfitter_cfg.c **** 
 239:.\Generated_Source\PSoC5/cyfitter_cfg.c **** 	/* Configure PLL based on settings from Clock DWR */
 240:.\Generated_Source\PSoC5/cyfitter_cfg.c **** 	CY_SET_XTND_REG16((void CYFAR *)(CYREG_FASTCLK_PLL_P), 0x0008u);
 241:.\Generated_Source\PSoC5/cyfitter_cfg.c **** 	CY_SET_XTND_REG16((void CYFAR *)(CYREG_FASTCLK_PLL_CFG0), 0x1251u);
 242:.\Generated_Source\PSoC5/cyfitter_cfg.c **** 	/* Wait up to 250us for the PLL to lock */
 243:.\Generated_Source\PSoC5/cyfitter_cfg.c **** 	pllLock = 0u;
 244:.\Generated_Source\PSoC5/cyfitter_cfg.c **** 	for (timeout = 250u / 10u; (timeout > 0u) && (pllLock != 0x03u); timeout--)
 245:.\Generated_Source\PSoC5/cyfitter_cfg.c **** 	{ 
 246:.\Generated_Source\PSoC5/cyfitter_cfg.c **** 		pllLock = 0x03u & ((uint8)((uint8)pllLock << 1) | ((CY_GET_XTND_REG8((void CYFAR *)CYREG_FASTCLK_
 247:.\Generated_Source\PSoC5/cyfitter_cfg.c **** 		CyDelayCycles(10u * 48u); /* Delay 10us based on 48MHz clock */
 248:.\Generated_Source\PSoC5/cyfitter_cfg.c **** 	}
 249:.\Generated_Source\PSoC5/cyfitter_cfg.c **** 	/* If we ran out of time the PLL didn't lock so go to the error function */
 250:.\Generated_Source\PSoC5/cyfitter_cfg.c **** 	if (timeout == 0u)
 251:.\Generated_Source\PSoC5/cyfitter_cfg.c **** 	{
 252:.\Generated_Source\PSoC5/cyfitter_cfg.c **** 		CyClockStartupError(CYCLOCKSTART_PLL_ERROR);
 253:.\Generated_Source\PSoC5/cyfitter_cfg.c **** 	}
 254:.\Generated_Source\PSoC5/cyfitter_cfg.c **** 
 255:.\Generated_Source\PSoC5/cyfitter_cfg.c **** 	/* Configure Bus/Master Clock based on settings from Clock DWR */
 256:.\Generated_Source\PSoC5/cyfitter_cfg.c **** 	CY_SET_XTND_REG16((void CYFAR *)(CYREG_CLKDIST_MSTR0), 0x0100u);
 257:.\Generated_Source\PSoC5/cyfitter_cfg.c **** 	CY_SET_XTND_REG8((void CYFAR *)(CYREG_CLKDIST_MSTR0), 0x07u);
 258:.\Generated_Source\PSoC5/cyfitter_cfg.c **** 	CY_SET_XTND_REG8((void CYFAR *)(CYREG_CLKDIST_BCFG0), 0x00u);
 259:.\Generated_Source\PSoC5/cyfitter_cfg.c **** 	CY_SET_XTND_REG8((void CYFAR *)(CYREG_CLKDIST_BCFG2), 0x48u);
 260:.\Generated_Source\PSoC5/cyfitter_cfg.c **** 	CY_SET_XTND_REG8((void CYFAR *)(CYREG_CLKDIST_MSTR0), 0x00u);
 261:.\Generated_Source\PSoC5/cyfitter_cfg.c **** 	CY_SET_XTND_REG8((void CYFAR *)(CYREG_CLKDIST_LD), 0x02u);
 262:.\Generated_Source\PSoC5/cyfitter_cfg.c **** 	CY_SET_XTND_REG8((void CYFAR *)(CYREG_CLKDIST_DLY1), 0x04u);
 263:.\Generated_Source\PSoC5/cyfitter_cfg.c **** 
 264:.\Generated_Source\PSoC5/cyfitter_cfg.c **** 	CY_SET_XTND_REG8((void CYFAR *)(CYREG_PM_ACT_CFG2), ((CY_GET_XTND_REG8((void CYFAR *)CYREG_PM_ACT_
 265:.\Generated_Source\PSoC5/cyfitter_cfg.c **** 	CY_SET_XTND_REG8((void CYFAR *)(CYREG_PM_ACT_CFG1), ((CY_GET_XTND_REG8((void CYFAR *)CYREG_PM_ACT_
 266:.\Generated_Source\PSoC5/cyfitter_cfg.c **** 	CY_SET_XTND_REG8((void CYFAR *)(CYREG_PM_ACT_CFG0), ((CY_GET_XTND_REG8((void CYFAR *)CYREG_PM_ACT_
 267:.\Generated_Source\PSoC5/cyfitter_cfg.c **** }
 268:.\Generated_Source\PSoC5/cyfitter_cfg.c **** 
 269:.\Generated_Source\PSoC5/cyfitter_cfg.c **** 
 270:.\Generated_Source\PSoC5/cyfitter_cfg.c **** /* Analog API Functions */
 271:.\Generated_Source\PSoC5/cyfitter_cfg.c **** 
 272:.\Generated_Source\PSoC5/cyfitter_cfg.c **** 
 273:.\Generated_Source\PSoC5/cyfitter_cfg.c **** /*******************************************************************************
 274:.\Generated_Source\PSoC5/cyfitter_cfg.c **** * Function Name: AnalogSetDefault
 275:.\Generated_Source\PSoC5/cyfitter_cfg.c **** ********************************************************************************
 276:.\Generated_Source\PSoC5/cyfitter_cfg.c **** *
 277:.\Generated_Source\PSoC5/cyfitter_cfg.c **** * Summary:
 278:.\Generated_Source\PSoC5/cyfitter_cfg.c **** *  Sets up the analog portions of the chip to default values based on chip
 279:.\Generated_Source\PSoC5/cyfitter_cfg.c **** *  configuration options from the project.
ARM GAS  C:\Users\mitchell\AppData\Local\Temp\ccXm76om.s 			page 8


 280:.\Generated_Source\PSoC5/cyfitter_cfg.c **** *
 281:.\Generated_Source\PSoC5/cyfitter_cfg.c **** * Parameters:
 282:.\Generated_Source\PSoC5/cyfitter_cfg.c **** *  void
 283:.\Generated_Source\PSoC5/cyfitter_cfg.c **** *
 284:.\Generated_Source\PSoC5/cyfitter_cfg.c **** * Return:
 285:.\Generated_Source\PSoC5/cyfitter_cfg.c **** *  void
 286:.\Generated_Source\PSoC5/cyfitter_cfg.c **** *
 287:.\Generated_Source\PSoC5/cyfitter_cfg.c **** *******************************************************************************/
 288:.\Generated_Source\PSoC5/cyfitter_cfg.c **** static void AnalogSetDefault(void);
 289:.\Generated_Source\PSoC5/cyfitter_cfg.c **** static void AnalogSetDefault(void)
 290:.\Generated_Source\PSoC5/cyfitter_cfg.c **** {
 118              		.loc 1 290 0
 119              		.cfi_startproc
 120              		@ args = 0, pretend = 0, frame = 0
 121              		@ frame_needed = 0, uses_anonymous_args = 0
 122              		@ link register save eliminated.
 123 0000 70B4     		push	{r4, r5, r6}
 124              		.cfi_def_cfa_offset 12
 125              		.cfi_offset 4, -12
 126              		.cfi_offset 5, -8
 127              		.cfi_offset 6, -4
 291:.\Generated_Source\PSoC5/cyfitter_cfg.c **** 	uint8 bg_xover_inl_trim = CY_GET_XTND_REG8((void CYFAR *)(CYREG_FLSHID_MFG_CFG_BG_XOVER_INL_TRIM +
 128              		.loc 1 291 0
 129 0002 1E4B     		ldr	r3, .L9
 130 0004 1B78     		ldrb	r3, [r3]	@ zero_extendqisi2
 131 0006 DBB2     		uxtb	r3, r3
 132              	.LVL12:
 292:.\Generated_Source\PSoC5/cyfitter_cfg.c **** 	uint8 cr4 = CY_GET_XTND_REG8((void CYFAR *)(CYREG_RESET_CR4));
 133              		.loc 1 292 0
 134 0008 1D4A     		ldr	r2, .L9+4
 135 000a 1078     		ldrb	r0, [r2]	@ zero_extendqisi2
 136 000c C0B2     		uxtb	r0, r0
 137              	.LVL13:
 293:.\Generated_Source\PSoC5/cyfitter_cfg.c **** 	uint8 cr5 = CY_GET_XTND_REG8((void CYFAR *)(CYREG_RESET_CR5));
 138              		.loc 1 293 0
 139 000e 1D49     		ldr	r1, .L9+8
 140 0010 0C78     		ldrb	r4, [r1]	@ zero_extendqisi2
 141 0012 E4B2     		uxtb	r4, r4
 142              	.LVL14:
 294:.\Generated_Source\PSoC5/cyfitter_cfg.c **** 	CY_SET_XTND_REG8((void CYFAR *)(CYREG_BG_DFT0), (bg_xover_inl_trim & 0x07u));
 143              		.loc 1 294 0
 144 0014 03F00706 		and	r6, r3, #7
 145 0018 1B4D     		ldr	r5, .L9+12
 146 001a 2E70     		strb	r6, [r5]
 295:.\Generated_Source\PSoC5/cyfitter_cfg.c **** 	CY_SET_XTND_REG8((void CYFAR *)(CYREG_BG_DFT1), ((bg_xover_inl_trim >> 4) & 0x0Fu));
 147              		.loc 1 295 0
 148 001c 1B09     		lsrs	r3, r3, #4
 149              	.LVL15:
 150 001e 0135     		adds	r5, r5, #1
 151 0020 2B70     		strb	r3, [r5]
 296:.\Generated_Source\PSoC5/cyfitter_cfg.c **** 	/* Disable PRES while setting up SAR voltage reference */
 297:.\Generated_Source\PSoC5/cyfitter_cfg.c **** 	CY_SET_XTND_REG8((void CYFAR *)(CYREG_RESET_CR4), (cr4 | 0x03u));
 152              		.loc 1 297 0
 153 0022 40F00303 		orr	r3, r0, #3
 154 0026 1370     		strb	r3, [r2]
 298:.\Generated_Source\PSoC5/cyfitter_cfg.c **** 	CY_SET_XTND_REG8((void CYFAR *)(CYREG_RESET_CR5), (cr5 | 0x03u));
 155              		.loc 1 298 0
ARM GAS  C:\Users\mitchell\AppData\Local\Temp\ccXm76om.s 			page 9


 156 0028 44F00303 		orr	r3, r4, #3
 157 002c 0B70     		strb	r3, [r1]
 299:.\Generated_Source\PSoC5/cyfitter_cfg.c **** 	CY_SET_XTND_REG16((void CYFAR *)CYREG_PRT2_AMUX, 0x0403u);
 158              		.loc 1 299 0
 159 002e 40F20345 		movw	r5, #1027
 160 0032 164B     		ldr	r3, .L9+16
 161 0034 1D80     		strh	r5, [r3]	@ movhi
 300:.\Generated_Source\PSoC5/cyfitter_cfg.c **** 	CY_SET_XTND_REG8((void CYFAR *)CYREG_PRT15_AG, 0x30u);
 162              		.loc 1 300 0
 163 0036 3025     		movs	r5, #48
 164 0038 D133     		adds	r3, r3, #209
 165 003a 1D70     		strb	r5, [r3]
 301:.\Generated_Source\PSoC5/cyfitter_cfg.c **** 	CY_SET_XTND_REG8((void CYFAR *)CYREG_SAR0_CSR1, 0x40u);
 166              		.loc 1 301 0
 167 003c 4023     		movs	r3, #64
 168 003e 144D     		ldr	r5, .L9+20
 169 0040 2B70     		strb	r3, [r5]
 302:.\Generated_Source\PSoC5/cyfitter_cfg.c **** 	CY_SET_XTND_REG8((void CYFAR *)CYREG_SAR0_CSR3, 0x40u);
 170              		.loc 1 302 0
 171 0042 0235     		adds	r5, r5, #2
 172 0044 2B70     		strb	r3, [r5]
 303:.\Generated_Source\PSoC5/cyfitter_cfg.c **** 	CY_SET_XTND_REG8((void CYFAR *)CYREG_SAR1_CSR1, 0x40u);
 173              		.loc 1 303 0
 174 0046 0635     		adds	r5, r5, #6
 175 0048 2B70     		strb	r3, [r5]
 304:.\Generated_Source\PSoC5/cyfitter_cfg.c **** 	CY_SET_XTND_REG8((void CYFAR *)CYREG_SAR1_CSR3, 0x40u);
 176              		.loc 1 304 0
 177 004a 0235     		adds	r5, r5, #2
 178 004c 2B70     		strb	r3, [r5]
 305:.\Generated_Source\PSoC5/cyfitter_cfg.c **** 	CY_SET_XTND_REG8((void CYFAR *)CYREG_DSM0_SW0, 0x04u);
 179              		.loc 1 305 0
 180 004e 0425     		movs	r5, #4
 181 0050 104B     		ldr	r3, .L9+24
 182 0052 1D70     		strb	r5, [r3]
 306:.\Generated_Source\PSoC5/cyfitter_cfg.c **** 	CY_SET_XTND_REG8((void CYFAR *)CYREG_SAR0_SW0, 0x03u);
 183              		.loc 1 306 0
 184 0054 0325     		movs	r5, #3
 185 0056 2033     		adds	r3, r3, #32
 186 0058 1D70     		strb	r5, [r3]
 307:.\Generated_Source\PSoC5/cyfitter_cfg.c **** 	CY_SET_XTND_REG8((void CYFAR *)CYREG_SAR0_SW3, 0x20u);
 187              		.loc 1 307 0
 188 005a 2025     		movs	r5, #32
 189 005c 0333     		adds	r3, r3, #3
 190 005e 1D70     		strb	r5, [r3]
 308:.\Generated_Source\PSoC5/cyfitter_cfg.c **** 	CY_SET_XTND_REG8((void CYFAR *)CYREG_SAR1_SW3, 0x21u);
 191              		.loc 1 308 0
 192 0060 2125     		movs	r5, #33
 193 0062 0833     		adds	r3, r3, #8
 194 0064 1D70     		strb	r5, [r3]
 309:.\Generated_Source\PSoC5/cyfitter_cfg.c **** 	CY_SET_XTND_REG8((void CYFAR *)CYREG_BUS_SW3, 0x01u);
 195              		.loc 1 309 0
 196 0066 0125     		movs	r5, #1
 197 0068 3033     		adds	r3, r3, #48
 198 006a 1D70     		strb	r5, [r3]
 310:.\Generated_Source\PSoC5/cyfitter_cfg.c **** 	CY_SET_XTND_REG8((void CYFAR *)(CYREG_RESET_CR5), (cr5));
 199              		.loc 1 310 0
 200 006c 0C70     		strb	r4, [r1]
ARM GAS  C:\Users\mitchell\AppData\Local\Temp\ccXm76om.s 			page 10


 311:.\Generated_Source\PSoC5/cyfitter_cfg.c **** 	CY_SET_XTND_REG8((void CYFAR *)(CYREG_RESET_CR4), (cr4));
 201              		.loc 1 311 0
 202 006e 1070     		strb	r0, [r2]
 312:.\Generated_Source\PSoC5/cyfitter_cfg.c **** 	CY_SET_XTND_REG8((void CYFAR *)CYREG_PUMP_CR0, 0x44u);
 203              		.loc 1 312 0
 204 0070 4422     		movs	r2, #68
 205 0072 A3F2E523 		subw	r3, r3, #741
 206 0076 1A70     		strb	r2, [r3]
 313:.\Generated_Source\PSoC5/cyfitter_cfg.c **** }
 207              		.loc 1 313 0
 208 0078 70BC     		pop	{r4, r5, r6}
 209              	.LVL16:
 210 007a 7047     		bx	lr
 211              	.L10:
 212              		.align	2
 213              	.L9:
 214 007c CF010049 		.word	1224737231
 215 0080 F8460040 		.word	1073759992
 216 0084 F9460040 		.word	1073759993
 217 0088 6E580040 		.word	1073764462
 218 008c 2C510040 		.word	1073762604
 219 0090 01590040 		.word	1073764609
 220 0094 005B0040 		.word	1073765120
 221              		.cfi_endproc
 222              	.LFE6:
 223              		.size	AnalogSetDefault, .-AnalogSetDefault
 224              		.section	.text.CYMEMZERO,"ax",%progbits
 225              		.align	2
 226              		.thumb
 227              		.thumb_func
 228              		.type	CYMEMZERO, %function
 229              	CYMEMZERO:
 230              	.LFB0:
  61:.\Generated_Source\PSoC5/cyfitter_cfg.c **** {
 231              		.loc 1 61 0
 232              		.cfi_startproc
 233              		@ args = 0, pretend = 0, frame = 0
 234              		@ frame_needed = 0, uses_anonymous_args = 0
 235              	.LVL17:
 236 0000 08B5     		push	{r3, lr}
 237              		.cfi_def_cfa_offset 8
 238              		.cfi_offset 3, -8
 239              		.cfi_offset 14, -4
 240 0002 0A46     		mov	r2, r1
  62:.\Generated_Source\PSoC5/cyfitter_cfg.c **** 	(void)memset(s, 0, n);
 241              		.loc 1 62 0
 242 0004 0021     		movs	r1, #0
 243              	.LVL18:
 244 0006 FFF7FEFF 		bl	memset
 245              	.LVL19:
 246 000a 08BD     		pop	{r3, pc}
 247              		.cfi_endproc
 248              	.LFE0:
 249              		.size	CYMEMZERO, .-CYMEMZERO
 250              		.section	.text.CYCONFIGCPY,"ax",%progbits
 251              		.align	2
 252              		.thumb
ARM GAS  C:\Users\mitchell\AppData\Local\Temp\ccXm76om.s 			page 11


 253              		.thumb_func
 254              		.type	CYCONFIGCPY, %function
 255              	CYCONFIGCPY:
 256              	.LFB1:
  68:.\Generated_Source\PSoC5/cyfitter_cfg.c **** {
 257              		.loc 1 68 0
 258              		.cfi_startproc
 259              		@ args = 0, pretend = 0, frame = 0
 260              		@ frame_needed = 0, uses_anonymous_args = 0
 261              	.LVL20:
 262 0000 08B5     		push	{r3, lr}
 263              		.cfi_def_cfa_offset 8
 264              		.cfi_offset 3, -8
 265              		.cfi_offset 14, -4
  69:.\Generated_Source\PSoC5/cyfitter_cfg.c **** 	(void)memcpy(dest, src, n);
 266              		.loc 1 69 0
 267 0002 FFF7FEFF 		bl	memcpy
 268              	.LVL21:
 269 0006 08BD     		pop	{r3, pc}
 270              		.cfi_endproc
 271              	.LFE1:
 272              		.size	CYCONFIGCPY, .-CYCONFIGCPY
 273              		.section	.text.ClockSetup,"ax",%progbits
 274              		.align	2
 275              		.thumb
 276              		.thumb_func
 277              		.type	ClockSetup, %function
 278              	ClockSetup:
 279              	.LFB5:
 211:.\Generated_Source\PSoC5/cyfitter_cfg.c **** {
 280              		.loc 1 211 0
 281              		.cfi_startproc
 282              		@ args = 0, pretend = 0, frame = 0
 283              		@ frame_needed = 0, uses_anonymous_args = 0
 284 0000 F8B5     		push	{r3, r4, r5, r6, r7, lr}
 285              		.cfi_def_cfa_offset 24
 286              		.cfi_offset 3, -24
 287              		.cfi_offset 4, -20
 288              		.cfi_offset 5, -16
 289              		.cfi_offset 6, -12
 290              		.cfi_offset 7, -8
 291              		.cfi_offset 14, -4
 217:.\Generated_Source\PSoC5/cyfitter_cfg.c **** 	CY_SET_XTND_REG16((void CYFAR *)(CYREG_CLKDIST_DCFG0_CFG0), 0x0000u);
 292              		.loc 1 217 0
 293 0002 0025     		movs	r5, #0
 294 0004 374B     		ldr	r3, .L18
 295 0006 1D80     		strh	r5, [r3]	@ movhi
 218:.\Generated_Source\PSoC5/cyfitter_cfg.c **** 	CY_SET_XTND_REG8((void CYFAR *)(CYREG_CLKDIST_DCFG0_CFG0 + 0x2u), 0x50u);
 296              		.loc 1 218 0
 297 0008 5022     		movs	r2, #80
 298 000a 0233     		adds	r3, r3, #2
 299 000c 1A70     		strb	r2, [r3]
 219:.\Generated_Source\PSoC5/cyfitter_cfg.c **** 	CY_SET_XTND_REG16((void CYFAR *)(CYREG_CLKDIST_DCFG1_CFG0), 0x0001u);
 300              		.loc 1 219 0
 301 000e 0122     		movs	r2, #1
 302 0010 0233     		adds	r3, r3, #2
 303 0012 1A80     		strh	r2, [r3]	@ movhi
ARM GAS  C:\Users\mitchell\AppData\Local\Temp\ccXm76om.s 			page 12


 220:.\Generated_Source\PSoC5/cyfitter_cfg.c **** 	CY_SET_XTND_REG8((void CYFAR *)(CYREG_CLKDIST_DCFG1_CFG0 + 0x2u), 0x18u);
 304              		.loc 1 220 0
 305 0014 1823     		movs	r3, #24
 306 0016 344A     		ldr	r2, .L18+4
 307 0018 1370     		strb	r3, [r2]
 221:.\Generated_Source\PSoC5/cyfitter_cfg.c **** 	CY_SET_XTND_REG16((void CYFAR *)(CYREG_CLKDIST_DCFG2_CFG0), 0x000Eu);
 308              		.loc 1 221 0
 309 001a 0E22     		movs	r2, #14
 310 001c 3349     		ldr	r1, .L18+8
 311 001e 0A80     		strh	r2, [r1]	@ movhi
 222:.\Generated_Source\PSoC5/cyfitter_cfg.c **** 	CY_SET_XTND_REG8((void CYFAR *)(CYREG_CLKDIST_DCFG2_CFG0 + 0x2u), 0x18u);
 312              		.loc 1 222 0
 313 0020 0231     		adds	r1, r1, #2
 314 0022 0B70     		strb	r3, [r1]
 223:.\Generated_Source\PSoC5/cyfitter_cfg.c **** 	CY_SET_XTND_REG16((void CYFAR *)(CYREG_CLKDIST_DCFG3_CFG0), 0x000Eu);
 315              		.loc 1 223 0
 316 0024 0231     		adds	r1, r1, #2
 317 0026 0A80     		strh	r2, [r1]	@ movhi
 224:.\Generated_Source\PSoC5/cyfitter_cfg.c **** 	CY_SET_XTND_REG8((void CYFAR *)(CYREG_CLKDIST_DCFG3_CFG0 + 0x2u), 0x18u);
 318              		.loc 1 224 0
 319 0028 314A     		ldr	r2, .L18+12
 320 002a 1370     		strb	r3, [r2]
 225:.\Generated_Source\PSoC5/cyfitter_cfg.c **** 	CY_SET_XTND_REG16((void CYFAR *)(CYREG_CLKDIST_DCFG4_CFG0), 0x0027u);
 321              		.loc 1 225 0
 322 002c 2722     		movs	r2, #39
 323 002e 314B     		ldr	r3, .L18+16
 324 0030 1A80     		strh	r2, [r3]	@ movhi
 226:.\Generated_Source\PSoC5/cyfitter_cfg.c **** 	CY_SET_XTND_REG8((void CYFAR *)(CYREG_CLKDIST_DCFG4_CFG0 + 0x2u), 0x19u);
 325              		.loc 1 226 0
 326 0032 1924     		movs	r4, #25
 327 0034 0233     		adds	r3, r3, #2
 328 0036 1C70     		strb	r4, [r3]
 229:.\Generated_Source\PSoC5/cyfitter_cfg.c **** 	CYCONFIGCPY((void CYFAR *)(CYREG_CLKDIST_ACFG0_CFG0), (const void CYFAR *)(BS_CYDEV_CLKDIST_ACFG0_
 329              		.loc 1 229 0
 330 0038 2F48     		ldr	r0, .L18+20
 331 003a 3049     		ldr	r1, .L18+24
 332 003c 0422     		movs	r2, #4
 333 003e FFF7FEFF 		bl	CYCONFIGCPY
 334              	.LVL22:
 232:.\Generated_Source\PSoC5/cyfitter_cfg.c **** 	CY_SET_XTND_REG8((void CYFAR *)(CYREG_SLOWCLK_ILO_CR0), 0x02u);
 335              		.loc 1 232 0
 336 0042 0222     		movs	r2, #2
 337 0044 2E4B     		ldr	r3, .L18+28
 338 0046 1A70     		strb	r2, [r3]
 233:.\Generated_Source\PSoC5/cyfitter_cfg.c **** 	CY_SET_XTND_REG8((void CYFAR *)(CYREG_CLKDIST_CR), 0x08u);
 339              		.loc 1 233 0
 340 0048 0823     		movs	r3, #8
 341 004a 4FF04022 		mov	r2, #1073758208
 342 004e 1370     		strb	r3, [r2]
 236:.\Generated_Source\PSoC5/cyfitter_cfg.c **** 	CY_SET_XTND_REG8((void CYFAR *)(CYREG_FASTCLK_IMO_CR), 0x03u);
 343              		.loc 1 236 0
 344 0050 0321     		movs	r1, #3
 345 0052 02F50072 		add	r2, r2, #512
 346 0056 1170     		strb	r1, [r2]
 237:.\Generated_Source\PSoC5/cyfitter_cfg.c **** 	CY_SET_XTND_REG8((void CYFAR *)(CYREG_IMO_TR1), (CY_GET_XTND_REG8((void CYFAR *)CYREG_FLSHID_CUST_
 347              		.loc 1 237 0
 348 0058 2A4A     		ldr	r2, .L18+32
ARM GAS  C:\Users\mitchell\AppData\Local\Temp\ccXm76om.s 			page 13


 349 005a 1178     		ldrb	r1, [r2]	@ zero_extendqisi2
 350 005c C9B2     		uxtb	r1, r1
 351 005e 2A4A     		ldr	r2, .L18+36
 352 0060 1170     		strb	r1, [r2]
 240:.\Generated_Source\PSoC5/cyfitter_cfg.c **** 	CY_SET_XTND_REG16((void CYFAR *)(CYREG_FASTCLK_PLL_P), 0x0008u);
 353              		.loc 1 240 0
 354 0062 A2F27F42 		subw	r2, r2, #1151
 355 0066 1380     		strh	r3, [r2]	@ movhi
 241:.\Generated_Source\PSoC5/cyfitter_cfg.c **** 	CY_SET_XTND_REG16((void CYFAR *)(CYREG_FASTCLK_PLL_CFG0), 0x1251u);
 356              		.loc 1 241 0
 357 0068 41F25122 		movw	r2, #4689
 358 006c 274B     		ldr	r3, .L18+40
 359 006e 1A80     		strh	r2, [r3]	@ movhi
 360              	.LVL23:
 246:.\Generated_Source\PSoC5/cyfitter_cfg.c **** 		pllLock = 0x03u & ((uint8)((uint8)pllLock << 1) | ((CY_GET_XTND_REG8((void CYFAR *)CYREG_FASTCLK_
 361              		.loc 1 246 0
 362 0070 274F     		ldr	r7, .L18+44
 247:.\Generated_Source\PSoC5/cyfitter_cfg.c **** 		CyDelayCycles(10u * 48u); /* Delay 10us based on 48MHz clock */
 363              		.loc 1 247 0
 364 0072 4FF4F076 		mov	r6, #480
 244:.\Generated_Source\PSoC5/cyfitter_cfg.c **** 	for (timeout = 250u / 10u; (timeout > 0u) && (pllLock != 0x03u); timeout--)
 365              		.loc 1 244 0
 366 0076 0AE0     		b	.L14
 367              	.LVL24:
 368              	.L16:
 246:.\Generated_Source\PSoC5/cyfitter_cfg.c **** 		pllLock = 0x03u & ((uint8)((uint8)pllLock << 1) | ((CY_GET_XTND_REG8((void CYFAR *)CYREG_FASTCLK_
 369              		.loc 1 246 0 discriminator 1
 370 0078 3B78     		ldrb	r3, [r7]	@ zero_extendqisi2
 371 007a 03F00103 		and	r3, r3, #1
 372 007e 43EA4505 		orr	r5, r3, r5, lsl #1
 373              	.LVL25:
 374 0082 05F00305 		and	r5, r5, #3
 375              	.LVL26:
 247:.\Generated_Source\PSoC5/cyfitter_cfg.c **** 		CyDelayCycles(10u * 48u); /* Delay 10us based on 48MHz clock */
 376              		.loc 1 247 0 discriminator 1
 377 0086 3046     		mov	r0, r6
 378 0088 FFF7FEFF 		bl	CyDelayCycles
 379              	.LVL27:
 244:.\Generated_Source\PSoC5/cyfitter_cfg.c **** 	for (timeout = 250u / 10u; (timeout > 0u) && (pllLock != 0x03u); timeout--)
 380              		.loc 1 244 0 discriminator 1
 381 008c 013C     		subs	r4, r4, #1
 382              	.LVL28:
 383              	.L14:
 384 008e 0CB1     		cbz	r4, .L15
 244:.\Generated_Source\PSoC5/cyfitter_cfg.c **** 	for (timeout = 250u / 10u; (timeout > 0u) && (pllLock != 0x03u); timeout--)
 385              		.loc 1 244 0 is_stmt 0 discriminator 2
 386 0090 032D     		cmp	r5, #3
 387 0092 F1D1     		bne	.L16
 388              	.L15:
 250:.\Generated_Source\PSoC5/cyfitter_cfg.c **** 	if (timeout == 0u)
 389              		.loc 1 250 0 is_stmt 1
 390 0094 14B9     		cbnz	r4, .L17
 252:.\Generated_Source\PSoC5/cyfitter_cfg.c **** 		CyClockStartupError(CYCLOCKSTART_PLL_ERROR);
 391              		.loc 1 252 0
 392 0096 0320     		movs	r0, #3
 393 0098 FFF7FEFF 		bl	CyClockStartupError
 394              	.LVL29:
ARM GAS  C:\Users\mitchell\AppData\Local\Temp\ccXm76om.s 			page 14


 395              	.L17:
 256:.\Generated_Source\PSoC5/cyfitter_cfg.c **** 	CY_SET_XTND_REG16((void CYFAR *)(CYREG_CLKDIST_MSTR0), 0x0100u);
 396              		.loc 1 256 0
 397 009c 1D4B     		ldr	r3, .L18+48
 398 009e 4FF48072 		mov	r2, #256
 399 00a2 1A80     		strh	r2, [r3]	@ movhi
 257:.\Generated_Source\PSoC5/cyfitter_cfg.c **** 	CY_SET_XTND_REG8((void CYFAR *)(CYREG_CLKDIST_MSTR0), 0x07u);
 400              		.loc 1 257 0
 401 00a4 0722     		movs	r2, #7
 402 00a6 1A70     		strb	r2, [r3]
 258:.\Generated_Source\PSoC5/cyfitter_cfg.c **** 	CY_SET_XTND_REG8((void CYFAR *)(CYREG_CLKDIST_BCFG0), 0x00u);
 403              		.loc 1 258 0
 404 00a8 0022     		movs	r2, #0
 405 00aa 1B49     		ldr	r1, .L18+52
 406 00ac 0A70     		strb	r2, [r1]
 259:.\Generated_Source\PSoC5/cyfitter_cfg.c **** 	CY_SET_XTND_REG8((void CYFAR *)(CYREG_CLKDIST_BCFG2), 0x48u);
 407              		.loc 1 259 0
 408 00ae 4820     		movs	r0, #72
 409 00b0 0231     		adds	r1, r1, #2
 410 00b2 0870     		strb	r0, [r1]
 260:.\Generated_Source\PSoC5/cyfitter_cfg.c **** 	CY_SET_XTND_REG8((void CYFAR *)(CYREG_CLKDIST_MSTR0), 0x00u);
 411              		.loc 1 260 0
 412 00b4 1A70     		strb	r2, [r3]
 261:.\Generated_Source\PSoC5/cyfitter_cfg.c **** 	CY_SET_XTND_REG8((void CYFAR *)(CYREG_CLKDIST_LD), 0x02u);
 413              		.loc 1 261 0
 414 00b6 0222     		movs	r2, #2
 415 00b8 033B     		subs	r3, r3, #3
 416 00ba 1A70     		strb	r2, [r3]
 262:.\Generated_Source\PSoC5/cyfitter_cfg.c **** 	CY_SET_XTND_REG8((void CYFAR *)(CYREG_CLKDIST_DLY1), 0x04u);
 417              		.loc 1 262 0
 418 00bc 0422     		movs	r2, #4
 419 00be 0A33     		adds	r3, r3, #10
 420 00c0 1A70     		strb	r2, [r3]
 264:.\Generated_Source\PSoC5/cyfitter_cfg.c **** 	CY_SET_XTND_REG8((void CYFAR *)(CYREG_PM_ACT_CFG2), ((CY_GET_XTND_REG8((void CYFAR *)CYREG_PM_ACT_
 421              		.loc 1 264 0
 422 00c2 03F29733 		addw	r3, r3, #919
 423 00c6 1A78     		ldrb	r2, [r3]	@ zero_extendqisi2
 424 00c8 42F01F02 		orr	r2, r2, #31
 425 00cc 1A70     		strb	r2, [r3]
 265:.\Generated_Source\PSoC5/cyfitter_cfg.c **** 	CY_SET_XTND_REG8((void CYFAR *)(CYREG_PM_ACT_CFG1), ((CY_GET_XTND_REG8((void CYFAR *)CYREG_PM_ACT_
 426              		.loc 1 265 0
 427 00ce 013B     		subs	r3, r3, #1
 428 00d0 1A78     		ldrb	r2, [r3]	@ zero_extendqisi2
 429 00d2 42F00102 		orr	r2, r2, #1
 430 00d6 1A70     		strb	r2, [r3]
 266:.\Generated_Source\PSoC5/cyfitter_cfg.c **** 	CY_SET_XTND_REG8((void CYFAR *)(CYREG_PM_ACT_CFG0), ((CY_GET_XTND_REG8((void CYFAR *)CYREG_PM_ACT_
 431              		.loc 1 266 0
 432 00d8 013B     		subs	r3, r3, #1
 433 00da 1A78     		ldrb	r2, [r3]	@ zero_extendqisi2
 434 00dc 42F08002 		orr	r2, r2, #128
 435 00e0 1A70     		strb	r2, [r3]
 436 00e2 F8BD     		pop	{r3, r4, r5, r6, r7, pc}
 437              	.LVL30:
 438              	.L19:
 439              		.align	2
 440              	.L18:
 441 00e4 80400040 		.word	1073758336
ARM GAS  C:\Users\mitchell\AppData\Local\Temp\ccXm76om.s 			page 15


 442 00e8 86400040 		.word	1073758342
 443 00ec 88400040 		.word	1073758344
 444 00f0 8E400040 		.word	1073758350
 445 00f4 90400040 		.word	1073758352
 446 00f8 00410040 		.word	1073758464
 447 00fc 840A0048 		.word	1207962244
 448 0100 00430040 		.word	1073758976
 449 0104 08010049 		.word	1224737032
 450 0108 A1460040 		.word	1073759905
 451 010c 20420040 		.word	1073758752
 452 0110 25420040 		.word	1073758757
 453 0114 04400040 		.word	1073758212
 454 0118 06400040 		.word	1073758214
 455              		.cfi_endproc
 456              	.LFE5:
 457              		.size	ClockSetup, .-ClockSetup
 458              		.section	.text.SetAnalogRoutingPumps,"ax",%progbits
 459              		.align	2
 460              		.global	SetAnalogRoutingPumps
 461              		.thumb
 462              		.thumb_func
 463              		.type	SetAnalogRoutingPumps, %function
 464              	SetAnalogRoutingPumps:
 465              	.LFB7:
 314:.\Generated_Source\PSoC5/cyfitter_cfg.c **** 
 315:.\Generated_Source\PSoC5/cyfitter_cfg.c **** 
 316:.\Generated_Source\PSoC5/cyfitter_cfg.c **** /*******************************************************************************
 317:.\Generated_Source\PSoC5/cyfitter_cfg.c **** * Function Name: SetAnalogRoutingPumps
 318:.\Generated_Source\PSoC5/cyfitter_cfg.c **** ********************************************************************************
 319:.\Generated_Source\PSoC5/cyfitter_cfg.c **** *
 320:.\Generated_Source\PSoC5/cyfitter_cfg.c **** * Summary:
 321:.\Generated_Source\PSoC5/cyfitter_cfg.c **** * Enables or disables the analog pumps feeding analog routing switches.
 322:.\Generated_Source\PSoC5/cyfitter_cfg.c **** * Intended to be called at startup, based on the Vdda system configuration;
 323:.\Generated_Source\PSoC5/cyfitter_cfg.c **** * may be called during operation when the user informs us that the Vdda voltage
 324:.\Generated_Source\PSoC5/cyfitter_cfg.c **** * crossed the pump threshold.
 325:.\Generated_Source\PSoC5/cyfitter_cfg.c **** *
 326:.\Generated_Source\PSoC5/cyfitter_cfg.c **** * Parameters:
 327:.\Generated_Source\PSoC5/cyfitter_cfg.c **** *  enabled - 1 to enable the pumps, 0 to disable the pumps
 328:.\Generated_Source\PSoC5/cyfitter_cfg.c **** *
 329:.\Generated_Source\PSoC5/cyfitter_cfg.c **** * Return:
 330:.\Generated_Source\PSoC5/cyfitter_cfg.c **** *  void
 331:.\Generated_Source\PSoC5/cyfitter_cfg.c **** *
 332:.\Generated_Source\PSoC5/cyfitter_cfg.c **** *******************************************************************************/
 333:.\Generated_Source\PSoC5/cyfitter_cfg.c **** void SetAnalogRoutingPumps(uint8 enabled)
 334:.\Generated_Source\PSoC5/cyfitter_cfg.c **** {
 466              		.loc 1 334 0
 467              		.cfi_startproc
 468              		@ args = 0, pretend = 0, frame = 0
 469              		@ frame_needed = 0, uses_anonymous_args = 0
 470              		@ link register save eliminated.
 471              	.LVL31:
 335:.\Generated_Source\PSoC5/cyfitter_cfg.c **** 	uint8 regValue = CY_GET_XTND_REG8((void CYFAR *)CYREG_PUMP_CR0);
 472              		.loc 1 335 0
 473 0000 054B     		ldr	r3, .L23
 474 0002 1B78     		ldrb	r3, [r3]	@ zero_extendqisi2
 475 0004 DBB2     		uxtb	r3, r3
 476              	.LVL32:
ARM GAS  C:\Users\mitchell\AppData\Local\Temp\ccXm76om.s 			page 16


 336:.\Generated_Source\PSoC5/cyfitter_cfg.c **** 	if (enabled != 0u)
 477              		.loc 1 336 0
 478 0006 10B1     		cbz	r0, .L21
 337:.\Generated_Source\PSoC5/cyfitter_cfg.c **** 	{
 338:.\Generated_Source\PSoC5/cyfitter_cfg.c **** 		regValue |= 0x22u;
 479              		.loc 1 338 0
 480 0008 43F02203 		orr	r3, r3, #34
 481              	.LVL33:
 482 000c 01E0     		b	.L22
 483              	.L21:
 339:.\Generated_Source\PSoC5/cyfitter_cfg.c **** 	}
 340:.\Generated_Source\PSoC5/cyfitter_cfg.c **** 	else
 341:.\Generated_Source\PSoC5/cyfitter_cfg.c **** 	{
 342:.\Generated_Source\PSoC5/cyfitter_cfg.c **** 		regValue &= (uint8)~0x22u;
 484              		.loc 1 342 0
 485 000e 03F0DD03 		and	r3, r3, #221
 486              	.LVL34:
 487              	.L22:
 343:.\Generated_Source\PSoC5/cyfitter_cfg.c **** 	}
 344:.\Generated_Source\PSoC5/cyfitter_cfg.c **** 	CY_SET_XTND_REG8((void CYFAR *)CYREG_PUMP_CR0, regValue);
 488              		.loc 1 344 0
 489 0012 014A     		ldr	r2, .L23
 490 0014 1370     		strb	r3, [r2]
 491 0016 7047     		bx	lr
 492              	.L24:
 493              		.align	2
 494              	.L23:
 495 0018 76580040 		.word	1073764470
 496              		.cfi_endproc
 497              	.LFE7:
 498              		.size	SetAnalogRoutingPumps, .-SetAnalogRoutingPumps
 499              		.section	.text.BRAKE_ADC_AMux_Set,"ax",%progbits
 500              		.align	2
 501              		.global	BRAKE_ADC_AMux_Set
 502              		.thumb
 503              		.thumb_func
 504              		.type	BRAKE_ADC_AMux_Set, %function
 505              	BRAKE_ADC_AMux_Set:
 506              	.LFB8:
 345:.\Generated_Source\PSoC5/cyfitter_cfg.c **** }
 346:.\Generated_Source\PSoC5/cyfitter_cfg.c **** 
 347:.\Generated_Source\PSoC5/cyfitter_cfg.c **** #define CY_AMUX_UNUSED CYREG_BOOST_SR
 348:.\Generated_Source\PSoC5/cyfitter_cfg.c **** /* This is an implementation detail of the AMux. Code that depends on it may be
 349:.\Generated_Source\PSoC5/cyfitter_cfg.c ****    incompatible with other versions of PSoC Creator. */
 350:.\Generated_Source\PSoC5/cyfitter_cfg.c **** uint8 CYXDATA * const CYCODE BRAKE_ADC_AMux__addrTable[2] = {
 351:.\Generated_Source\PSoC5/cyfitter_cfg.c **** 	(uint8 CYXDATA *)CYREG_DSM0_SW3, 
 352:.\Generated_Source\PSoC5/cyfitter_cfg.c **** 	(uint8 CYXDATA *)CY_AMUX_UNUSED, 
 353:.\Generated_Source\PSoC5/cyfitter_cfg.c **** };
 354:.\Generated_Source\PSoC5/cyfitter_cfg.c **** 
 355:.\Generated_Source\PSoC5/cyfitter_cfg.c **** /* This is an implementation detail of the AMux. Code that depends on it may be
 356:.\Generated_Source\PSoC5/cyfitter_cfg.c ****    incompatible with other versions of PSoC Creator. */
 357:.\Generated_Source\PSoC5/cyfitter_cfg.c **** const uint8 CYCODE BRAKE_ADC_AMux__maskTable[2] = {
 358:.\Generated_Source\PSoC5/cyfitter_cfg.c **** 	0x40u, 
 359:.\Generated_Source\PSoC5/cyfitter_cfg.c **** 	0x00u, 
 360:.\Generated_Source\PSoC5/cyfitter_cfg.c **** };
 361:.\Generated_Source\PSoC5/cyfitter_cfg.c **** 
 362:.\Generated_Source\PSoC5/cyfitter_cfg.c **** /*******************************************************************************
ARM GAS  C:\Users\mitchell\AppData\Local\Temp\ccXm76om.s 			page 17


 363:.\Generated_Source\PSoC5/cyfitter_cfg.c **** * Function Name: BRAKE_ADC_AMux_Set
 364:.\Generated_Source\PSoC5/cyfitter_cfg.c **** ********************************************************************************
 365:.\Generated_Source\PSoC5/cyfitter_cfg.c **** * Summary:
 366:.\Generated_Source\PSoC5/cyfitter_cfg.c **** *  This function is used to set a particular channel as active on the AMux.
 367:.\Generated_Source\PSoC5/cyfitter_cfg.c **** *
 368:.\Generated_Source\PSoC5/cyfitter_cfg.c **** * Parameters:  
 369:.\Generated_Source\PSoC5/cyfitter_cfg.c **** *   channel - The mux channel input to set as active
 370:.\Generated_Source\PSoC5/cyfitter_cfg.c **** *
 371:.\Generated_Source\PSoC5/cyfitter_cfg.c **** * Return:
 372:.\Generated_Source\PSoC5/cyfitter_cfg.c **** *   void
 373:.\Generated_Source\PSoC5/cyfitter_cfg.c **** *
 374:.\Generated_Source\PSoC5/cyfitter_cfg.c **** *******************************************************************************/
 375:.\Generated_Source\PSoC5/cyfitter_cfg.c **** void BRAKE_ADC_AMux_Set(uint8 channel)
 376:.\Generated_Source\PSoC5/cyfitter_cfg.c **** {
 507              		.loc 1 376 0
 508              		.cfi_startproc
 509              		@ args = 0, pretend = 0, frame = 0
 510              		@ frame_needed = 0, uses_anonymous_args = 0
 511              		@ link register save eliminated.
 512              	.LVL35:
 377:.\Generated_Source\PSoC5/cyfitter_cfg.c **** 	if (channel < 2)
 513              		.loc 1 377 0
 514 0000 0128     		cmp	r0, #1
 515 0002 07D8     		bhi	.L25
 378:.\Generated_Source\PSoC5/cyfitter_cfg.c **** 	{
 379:.\Generated_Source\PSoC5/cyfitter_cfg.c **** 		*BRAKE_ADC_AMux__addrTable[channel] |= BRAKE_ADC_AMux__maskTable[channel];
 516              		.loc 1 379 0
 517 0004 044A     		ldr	r2, .L27
 518 0006 52F82030 		ldr	r3, [r2, r0, lsl #2]
 519 000a 1044     		add	r0, r0, r2
 520              	.LVL36:
 521 000c 017A     		ldrb	r1, [r0, #8]	@ zero_extendqisi2
 522 000e 1A78     		ldrb	r2, [r3]	@ zero_extendqisi2
 523 0010 0A43     		orrs	r2, r2, r1
 524 0012 1A70     		strb	r2, [r3]
 525              	.L25:
 526 0014 7047     		bx	lr
 527              	.L28:
 528 0016 00BF     		.align	2
 529              	.L27:
 530 0018 00000000 		.word	.LANCHOR0
 531              		.cfi_endproc
 532              	.LFE8:
 533              		.size	BRAKE_ADC_AMux_Set, .-BRAKE_ADC_AMux_Set
 534              		.section	.text.BRAKE_ADC_AMux_Unset,"ax",%progbits
 535              		.align	2
 536              		.global	BRAKE_ADC_AMux_Unset
 537              		.thumb
 538              		.thumb_func
 539              		.type	BRAKE_ADC_AMux_Unset, %function
 540              	BRAKE_ADC_AMux_Unset:
 541              	.LFB9:
 380:.\Generated_Source\PSoC5/cyfitter_cfg.c **** 	}
 381:.\Generated_Source\PSoC5/cyfitter_cfg.c **** }
 382:.\Generated_Source\PSoC5/cyfitter_cfg.c **** 
 383:.\Generated_Source\PSoC5/cyfitter_cfg.c **** /*******************************************************************************
 384:.\Generated_Source\PSoC5/cyfitter_cfg.c **** * Function Name: BRAKE_ADC_AMux_Unset
ARM GAS  C:\Users\mitchell\AppData\Local\Temp\ccXm76om.s 			page 18


 385:.\Generated_Source\PSoC5/cyfitter_cfg.c **** ********************************************************************************
 386:.\Generated_Source\PSoC5/cyfitter_cfg.c **** * Summary:
 387:.\Generated_Source\PSoC5/cyfitter_cfg.c **** *  This function is used to clear a particular channel from being active on the
 388:.\Generated_Source\PSoC5/cyfitter_cfg.c **** *  AMux.
 389:.\Generated_Source\PSoC5/cyfitter_cfg.c **** *
 390:.\Generated_Source\PSoC5/cyfitter_cfg.c **** * Parameters:  
 391:.\Generated_Source\PSoC5/cyfitter_cfg.c **** *   channel - The mux channel input to mark inactive
 392:.\Generated_Source\PSoC5/cyfitter_cfg.c **** *
 393:.\Generated_Source\PSoC5/cyfitter_cfg.c **** * Return:
 394:.\Generated_Source\PSoC5/cyfitter_cfg.c **** *   void
 395:.\Generated_Source\PSoC5/cyfitter_cfg.c **** *
 396:.\Generated_Source\PSoC5/cyfitter_cfg.c **** *******************************************************************************/
 397:.\Generated_Source\PSoC5/cyfitter_cfg.c **** void BRAKE_ADC_AMux_Unset(uint8 channel)
 398:.\Generated_Source\PSoC5/cyfitter_cfg.c **** {
 542              		.loc 1 398 0
 543              		.cfi_startproc
 544              		@ args = 0, pretend = 0, frame = 0
 545              		@ frame_needed = 0, uses_anonymous_args = 0
 546              		@ link register save eliminated.
 547              	.LVL37:
 399:.\Generated_Source\PSoC5/cyfitter_cfg.c **** 	if (channel < 2)
 548              		.loc 1 399 0
 549 0000 0128     		cmp	r0, #1
 550 0002 08D8     		bhi	.L29
 400:.\Generated_Source\PSoC5/cyfitter_cfg.c **** 	{
 401:.\Generated_Source\PSoC5/cyfitter_cfg.c **** 		*BRAKE_ADC_AMux__addrTable[channel] &= (uint8)~BRAKE_ADC_AMux__maskTable[channel];
 551              		.loc 1 401 0
 552 0004 044A     		ldr	r2, .L31
 553 0006 52F82030 		ldr	r3, [r2, r0, lsl #2]
 554 000a 1044     		add	r0, r0, r2
 555              	.LVL38:
 556 000c 017A     		ldrb	r1, [r0, #8]	@ zero_extendqisi2
 557 000e 1A78     		ldrb	r2, [r3]	@ zero_extendqisi2
 558 0010 22EA0102 		bic	r2, r2, r1
 559 0014 1A70     		strb	r2, [r3]
 560              	.L29:
 561 0016 7047     		bx	lr
 562              	.L32:
 563              		.align	2
 564              	.L31:
 565 0018 00000000 		.word	.LANCHOR0
 566              		.cfi_endproc
 567              	.LFE9:
 568              		.size	BRAKE_ADC_AMux_Unset, .-BRAKE_ADC_AMux_Unset
 569              		.section	.text.cyfitter_cfg,"ax",%progbits
 570              		.align	2
 571              		.global	cyfitter_cfg
 572              		.thumb
 573              		.thumb_func
 574              		.type	cyfitter_cfg, %function
 575              	cyfitter_cfg:
 576              	.LFB10:
 402:.\Generated_Source\PSoC5/cyfitter_cfg.c **** 	}
 403:.\Generated_Source\PSoC5/cyfitter_cfg.c **** }
 404:.\Generated_Source\PSoC5/cyfitter_cfg.c **** 
 405:.\Generated_Source\PSoC5/cyfitter_cfg.c **** 
 406:.\Generated_Source\PSoC5/cyfitter_cfg.c **** 
ARM GAS  C:\Users\mitchell\AppData\Local\Temp\ccXm76om.s 			page 19


 407:.\Generated_Source\PSoC5/cyfitter_cfg.c **** /*******************************************************************************
 408:.\Generated_Source\PSoC5/cyfitter_cfg.c **** * Function Name: cyfitter_cfg
 409:.\Generated_Source\PSoC5/cyfitter_cfg.c **** ********************************************************************************
 410:.\Generated_Source\PSoC5/cyfitter_cfg.c **** * Summary:
 411:.\Generated_Source\PSoC5/cyfitter_cfg.c **** *  This function is called by the start-up code for the selected device. It
 412:.\Generated_Source\PSoC5/cyfitter_cfg.c **** *  performs all of the necessary device configuration based on the design
 413:.\Generated_Source\PSoC5/cyfitter_cfg.c **** *  settings.  This includes settings from the Design Wide Resources (DWR) such
 414:.\Generated_Source\PSoC5/cyfitter_cfg.c **** *  as Clocks and Pins as well as any component configuration that is necessary.
 415:.\Generated_Source\PSoC5/cyfitter_cfg.c **** *
 416:.\Generated_Source\PSoC5/cyfitter_cfg.c **** * Parameters:  
 417:.\Generated_Source\PSoC5/cyfitter_cfg.c **** *   void
 418:.\Generated_Source\PSoC5/cyfitter_cfg.c **** *
 419:.\Generated_Source\PSoC5/cyfitter_cfg.c **** * Return:
 420:.\Generated_Source\PSoC5/cyfitter_cfg.c **** *   void
 421:.\Generated_Source\PSoC5/cyfitter_cfg.c **** *
 422:.\Generated_Source\PSoC5/cyfitter_cfg.c **** *******************************************************************************/
 423:.\Generated_Source\PSoC5/cyfitter_cfg.c **** 
 424:.\Generated_Source\PSoC5/cyfitter_cfg.c **** void cyfitter_cfg(void)
 425:.\Generated_Source\PSoC5/cyfitter_cfg.c **** {
 577              		.loc 1 425 0
 578              		.cfi_startproc
 579              		@ args = 0, pretend = 0, frame = 0
 580              		@ frame_needed = 0, uses_anonymous_args = 0
 581 0000 38B5     		push	{r3, r4, r5, lr}
 582              		.cfi_def_cfa_offset 16
 583              		.cfi_offset 3, -16
 584              		.cfi_offset 4, -12
 585              		.cfi_offset 5, -8
 586              		.cfi_offset 14, -4
 426:.\Generated_Source\PSoC5/cyfitter_cfg.c **** #ifdef CYGlobalIntDisable
 427:.\Generated_Source\PSoC5/cyfitter_cfg.c **** 	/* Disable interrupts by default. Let user enable if/when they want. */
 428:.\Generated_Source\PSoC5/cyfitter_cfg.c **** 	CYGlobalIntDisable
 587              		.loc 1 428 0
 588              	@ 428 ".\Generated_Source\PSoC5\cyfitter_cfg.c" 1
 589 0002 72B6     		CPSID   i
 590              	@ 0 "" 2
 429:.\Generated_Source\PSoC5/cyfitter_cfg.c **** #endif
 430:.\Generated_Source\PSoC5/cyfitter_cfg.c **** 
 431:.\Generated_Source\PSoC5/cyfitter_cfg.c **** 	/* Enable/Disable Debug functionality based on settings from System DWR */
 432:.\Generated_Source\PSoC5/cyfitter_cfg.c **** 	CY_SET_XTND_REG8((void CYFAR *)CYREG_MLOGIC_DEBUG, (CY_GET_XTND_REG8((void CYFAR *)CYREG_MLOGIC_DE
 591              		.loc 1 432 0
 592              		.thumb
 593 0004 3C4B     		ldr	r3, .L38
 594 0006 1A78     		ldrb	r2, [r3]	@ zero_extendqisi2
 595 0008 42F00402 		orr	r2, r2, #4
 596 000c 1A70     		strb	r2, [r3]
 597              	.LVL39:
 598              	.LBB3:
 433:.\Generated_Source\PSoC5/cyfitter_cfg.c **** 
 434:.\Generated_Source\PSoC5/cyfitter_cfg.c **** 	{
 435:.\Generated_Source\PSoC5/cyfitter_cfg.c **** 
 436:.\Generated_Source\PSoC5/cyfitter_cfg.c **** 		CYPACKED typedef struct {
 437:.\Generated_Source\PSoC5/cyfitter_cfg.c **** 			void CYFAR *address;
 438:.\Generated_Source\PSoC5/cyfitter_cfg.c **** 			uint16 size;
 439:.\Generated_Source\PSoC5/cyfitter_cfg.c **** 		} CYPACKED_ATTR cfg_memset_t;
 440:.\Generated_Source\PSoC5/cyfitter_cfg.c **** 
 441:.\Generated_Source\PSoC5/cyfitter_cfg.c **** 
ARM GAS  C:\Users\mitchell\AppData\Local\Temp\ccXm76om.s 			page 20


 442:.\Generated_Source\PSoC5/cyfitter_cfg.c **** 		CYPACKED typedef struct {
 443:.\Generated_Source\PSoC5/cyfitter_cfg.c **** 			void CYFAR *dest;
 444:.\Generated_Source\PSoC5/cyfitter_cfg.c **** 			const void CYFAR *src;
 445:.\Generated_Source\PSoC5/cyfitter_cfg.c **** 			uint16 size;
 446:.\Generated_Source\PSoC5/cyfitter_cfg.c **** 		} CYPACKED_ATTR cfg_memcpy_t;
 447:.\Generated_Source\PSoC5/cyfitter_cfg.c **** 
 448:.\Generated_Source\PSoC5/cyfitter_cfg.c **** 		static const cfg_memset_t CYCODE cfg_memset_list [] = {
 449:.\Generated_Source\PSoC5/cyfitter_cfg.c **** 			/* address, size */
 450:.\Generated_Source\PSoC5/cyfitter_cfg.c **** 			{(void CYFAR *)(CYREG_PRT1_DR), 16u},
 451:.\Generated_Source\PSoC5/cyfitter_cfg.c **** 			{(void CYFAR *)(CYREG_PRT3_DR), 64u},
 452:.\Generated_Source\PSoC5/cyfitter_cfg.c **** 			{(void CYFAR *)(CYREG_PRT12_DR), 16u},
 453:.\Generated_Source\PSoC5/cyfitter_cfg.c **** 			{(void CYFAR *)(CYDEV_UCFG_B0_P0_U0_BASE), 4096u},
 454:.\Generated_Source\PSoC5/cyfitter_cfg.c **** 			{(void CYFAR *)(CYDEV_UCFG_B1_P2_U0_BASE), 2048u},
 455:.\Generated_Source\PSoC5/cyfitter_cfg.c **** 			{(void CYFAR *)(CYDEV_UCFG_DSI0_BASE), 2560u},
 456:.\Generated_Source\PSoC5/cyfitter_cfg.c **** 			{(void CYFAR *)(CYDEV_UCFG_DSI12_BASE), 512u},
 457:.\Generated_Source\PSoC5/cyfitter_cfg.c **** 			{(void CYFAR *)(CYREG_BCTL1_MDCLK_EN), 16u},
 458:.\Generated_Source\PSoC5/cyfitter_cfg.c **** 		};
 459:.\Generated_Source\PSoC5/cyfitter_cfg.c **** 
 460:.\Generated_Source\PSoC5/cyfitter_cfg.c **** 		static const cfg_memcpy_t CYCODE cfg_memcpy_list [] = {
 461:.\Generated_Source\PSoC5/cyfitter_cfg.c **** 			/* dest, src, size */
 462:.\Generated_Source\PSoC5/cyfitter_cfg.c **** 			{(void CYFAR *)(CYREG_BCTL0_MDCLK_EN), BS_UCFG_BCTL0_VAL, 16u},
 463:.\Generated_Source\PSoC5/cyfitter_cfg.c **** 		};
 464:.\Generated_Source\PSoC5/cyfitter_cfg.c **** 
 465:.\Generated_Source\PSoC5/cyfitter_cfg.c **** 		uint8 CYDATA i;
 466:.\Generated_Source\PSoC5/cyfitter_cfg.c **** 
 467:.\Generated_Source\PSoC5/cyfitter_cfg.c **** 		/* Zero out critical memory blocks before beginning configuration */
 468:.\Generated_Source\PSoC5/cyfitter_cfg.c **** 		for (i = 0u; i < (sizeof(cfg_memset_list)/sizeof(cfg_memset_list[0])); i++)
 599              		.loc 1 468 0
 600 000e 0024     		movs	r4, #0
 601              	.LBB4:
 469:.\Generated_Source\PSoC5/cyfitter_cfg.c **** 		{
 470:.\Generated_Source\PSoC5/cyfitter_cfg.c **** 			const cfg_memset_t CYCODE * CYDATA ms = &cfg_memset_list[i];
 602              		.loc 1 470 0
 603 0010 3A4D     		ldr	r5, .L38+4
 604              	.LBE4:
 468:.\Generated_Source\PSoC5/cyfitter_cfg.c **** 		for (i = 0u; i < (sizeof(cfg_memset_list)/sizeof(cfg_memset_list[0])); i++)
 605              		.loc 1 468 0
 606 0012 09E0     		b	.L34
 607              	.LVL40:
 608              	.L35:
 609              	.LBB5:
 610              		.loc 1 470 0 discriminator 2
 611 0014 04EB4403 		add	r3, r4, r4, lsl #1
 612 0018 5B00     		lsls	r3, r3, #1
 613 001a 2B44     		add	r3, r3, r5
 614              	.LVL41:
 471:.\Generated_Source\PSoC5/cyfitter_cfg.c **** 			CYMEMZERO(ms->address, (size_t)(uint32)(ms->size));
 615              		.loc 1 471 0 discriminator 2
 616 001c 1868     		ldr	r0, [r3]	@ unaligned
 617 001e 9988     		ldrh	r1, [r3, #4]
 618 0020 FFF7FEFF 		bl	CYMEMZERO
 619              	.LVL42:
 620              	.LBE5:
 468:.\Generated_Source\PSoC5/cyfitter_cfg.c **** 		for (i = 0u; i < (sizeof(cfg_memset_list)/sizeof(cfg_memset_list[0])); i++)
 621              		.loc 1 468 0 discriminator 2
 622 0024 0134     		adds	r4, r4, #1
 623              	.LVL43:
ARM GAS  C:\Users\mitchell\AppData\Local\Temp\ccXm76om.s 			page 21


 624 0026 E4B2     		uxtb	r4, r4
 625              	.LVL44:
 626              	.L34:
 468:.\Generated_Source\PSoC5/cyfitter_cfg.c **** 		for (i = 0u; i < (sizeof(cfg_memset_list)/sizeof(cfg_memset_list[0])); i++)
 627              		.loc 1 468 0 is_stmt 0 discriminator 1
 628 0028 072C     		cmp	r4, #7
 629 002a F3D9     		bls	.L35
 630 002c 0024     		movs	r4, #0
 631              	.LVL45:
 632              	.LBB6:
 472:.\Generated_Source\PSoC5/cyfitter_cfg.c **** 		}
 473:.\Generated_Source\PSoC5/cyfitter_cfg.c **** 
 474:.\Generated_Source\PSoC5/cyfitter_cfg.c **** 		/* Copy device configuration data into registers */
 475:.\Generated_Source\PSoC5/cyfitter_cfg.c **** 		for (i = 0u; i < (sizeof(cfg_memcpy_list)/sizeof(cfg_memcpy_list[0])); i++)
 476:.\Generated_Source\PSoC5/cyfitter_cfg.c **** 		{
 477:.\Generated_Source\PSoC5/cyfitter_cfg.c **** 			const cfg_memcpy_t CYCODE * CYDATA mc = &cfg_memcpy_list[i];
 633              		.loc 1 477 0 is_stmt 1
 634 002e 344D     		ldr	r5, .L38+8
 635 0030 0AE0     		b	.L36
 636              	.LVL46:
 637              	.L37:
 638              		.loc 1 477 0 is_stmt 0 discriminator 2
 639 0032 04EB8403 		add	r3, r4, r4, lsl #2
 640 0036 5B00     		lsls	r3, r3, #1
 641 0038 2B44     		add	r3, r3, r5
 642              	.LVL47:
 478:.\Generated_Source\PSoC5/cyfitter_cfg.c **** 			void * CYDATA destPtr = mc->dest;
 479:.\Generated_Source\PSoC5/cyfitter_cfg.c **** 			const void * CYDATA srcPtr = mc->src;
 480:.\Generated_Source\PSoC5/cyfitter_cfg.c **** 			uint16 CYDATA numBytes = mc->size;
 481:.\Generated_Source\PSoC5/cyfitter_cfg.c **** 			CYCONFIGCPY(destPtr, srcPtr, numBytes);
 643              		.loc 1 481 0 is_stmt 1 discriminator 2
 644 003a 1868     		ldr	r0, [r3]	@ unaligned
 645              	.LVL48:
 646 003c 5968     		ldr	r1, [r3, #4]	@ unaligned
 647              	.LVL49:
 648 003e 1A89     		ldrh	r2, [r3, #8]
 649 0040 FFF7FEFF 		bl	CYCONFIGCPY
 650              	.LVL50:
 651              	.LBE6:
 475:.\Generated_Source\PSoC5/cyfitter_cfg.c **** 		for (i = 0u; i < (sizeof(cfg_memcpy_list)/sizeof(cfg_memcpy_list[0])); i++)
 652              		.loc 1 475 0 discriminator 2
 653 0044 0134     		adds	r4, r4, #1
 654              	.LVL51:
 655 0046 E4B2     		uxtb	r4, r4
 656              	.LVL52:
 657              	.L36:
 475:.\Generated_Source\PSoC5/cyfitter_cfg.c **** 		for (i = 0u; i < (sizeof(cfg_memcpy_list)/sizeof(cfg_memcpy_list[0])); i++)
 658              		.loc 1 475 0 is_stmt 0 discriminator 1
 659 0048 002C     		cmp	r4, #0
 660 004a F2D0     		beq	.L37
 482:.\Generated_Source\PSoC5/cyfitter_cfg.c **** 		}
 483:.\Generated_Source\PSoC5/cyfitter_cfg.c **** 
 484:.\Generated_Source\PSoC5/cyfitter_cfg.c **** 		cfg_write_bytes32(cy_cfg_addr_table, cy_cfg_data_table);
 661              		.loc 1 484 0 is_stmt 1
 662 004c 4FF09040 		mov	r0, #1207959552
 663 0050 2C49     		ldr	r1, .L38+12
 664 0052 FFF7FEFF 		bl	cfg_write_bytes32
ARM GAS  C:\Users\mitchell\AppData\Local\Temp\ccXm76om.s 			page 22


 665              	.LVL53:
 485:.\Generated_Source\PSoC5/cyfitter_cfg.c **** 
 486:.\Generated_Source\PSoC5/cyfitter_cfg.c **** 		/* Perform normal device configuration. Order is not critical for these items. */
 487:.\Generated_Source\PSoC5/cyfitter_cfg.c **** 		CY_SET_XTND_REG8((void CYFAR *)(CYREG_DSM0_CR3), 0x0Au);
 666              		.loc 1 487 0
 667 0056 0A25     		movs	r5, #10
 668 0058 2B4B     		ldr	r3, .L38+16
 669 005a 1D70     		strb	r5, [r3]
 488:.\Generated_Source\PSoC5/cyfitter_cfg.c **** 		CYMEMZERO((void CYFAR *)(CYREG_PHUB_CFGMEM0_CFG0), 4u);
 670              		.loc 1 488 0
 671 005c 2B48     		ldr	r0, .L38+20
 672 005e 0421     		movs	r1, #4
 673 0060 FFF7FEFF 		bl	CYMEMZERO
 674              	.LVL54:
 489:.\Generated_Source\PSoC5/cyfitter_cfg.c **** 		CYCONFIGCPY((void CYFAR *)(CYREG_PHUB_CFGMEM1_CFG0), (const void CYFAR *)(BS_PHUB_CFGMEM1_VAL), 4
 675              		.loc 1 489 0
 676 0064 2A48     		ldr	r0, .L38+24
 677 0066 2B49     		ldr	r1, .L38+28
 678 0068 0422     		movs	r2, #4
 679 006a FFF7FEFF 		bl	CYCONFIGCPY
 680              	.LVL55:
 490:.\Generated_Source\PSoC5/cyfitter_cfg.c **** 		CYCONFIGCPY((void CYFAR *)(CYREG_PHUB_CFGMEM2_CFG0), (const void CYFAR *)(BS_PHUB_CFGMEM2_VAL), 4
 681              		.loc 1 490 0
 682 006e 2A48     		ldr	r0, .L38+32
 683 0070 2A49     		ldr	r1, .L38+36
 684 0072 0422     		movs	r2, #4
 685 0074 FFF7FEFF 		bl	CYCONFIGCPY
 686              	.LVL56:
 491:.\Generated_Source\PSoC5/cyfitter_cfg.c **** 		CYCONFIGCPY((void CYFAR *)(CYREG_PHUB_CFGMEM3_CFG0), (const void CYFAR *)(BS_PHUB_CFGMEM3_VAL), 4
 687              		.loc 1 491 0
 688 0078 2948     		ldr	r0, .L38+40
 689 007a 2A49     		ldr	r1, .L38+44
 690 007c 0422     		movs	r2, #4
 691 007e FFF7FEFF 		bl	CYCONFIGCPY
 692              	.LVL57:
 492:.\Generated_Source\PSoC5/cyfitter_cfg.c **** 
 493:.\Generated_Source\PSoC5/cyfitter_cfg.c **** 		/* Enable digital routing */
 494:.\Generated_Source\PSoC5/cyfitter_cfg.c **** 		CY_SET_XTND_REG8((void CYFAR *)CYREG_BCTL0_BANK_CTL, CY_GET_XTND_REG8((void CYFAR *)CYREG_BCTL0_B
 693              		.loc 1 494 0
 694 0082 294B     		ldr	r3, .L38+48
 695 0084 1A78     		ldrb	r2, [r3]	@ zero_extendqisi2
 696 0086 42F00202 		orr	r2, r2, #2
 697 008a 1A70     		strb	r2, [r3]
 495:.\Generated_Source\PSoC5/cyfitter_cfg.c **** 		CY_SET_XTND_REG8((void CYFAR *)CYREG_BCTL1_BANK_CTL, CY_GET_XTND_REG8((void CYFAR *)CYREG_BCTL1_B
 698              		.loc 1 495 0
 699 008c 1033     		adds	r3, r3, #16
 700 008e 1A78     		ldrb	r2, [r3]	@ zero_extendqisi2
 701 0090 42F00202 		orr	r2, r2, #2
 702 0094 1A70     		strb	r2, [r3]
 496:.\Generated_Source\PSoC5/cyfitter_cfg.c **** 
 497:.\Generated_Source\PSoC5/cyfitter_cfg.c **** 		/* Enable UDB array */
 498:.\Generated_Source\PSoC5/cyfitter_cfg.c **** 		CY_SET_XTND_REG8((void CYFAR *)CYREG_PM_ACT_CFG0, CY_GET_XTND_REG8((void CYFAR *)CYREG_PM_ACT_CFG
 703              		.loc 1 498 0
 704 0096 254C     		ldr	r4, .L38+52
 705              	.LVL58:
 706 0098 2378     		ldrb	r3, [r4]	@ zero_extendqisi2
 707 009a 43F04003 		orr	r3, r3, #64
ARM GAS  C:\Users\mitchell\AppData\Local\Temp\ccXm76om.s 			page 23


 708 009e 2370     		strb	r3, [r4]
 499:.\Generated_Source\PSoC5/cyfitter_cfg.c **** 		CY_SET_XTND_REG8((void CYFAR *)CYREG_PM_AVAIL_CR2, CY_GET_XTND_REG8((void CYFAR *)CYREG_PM_AVAIL_
 709              		.loc 1 499 0
 710 00a0 234B     		ldr	r3, .L38+56
 711 00a2 1A78     		ldrb	r2, [r3]	@ zero_extendqisi2
 712 00a4 42F01002 		orr	r2, r2, #16
 713 00a8 1A70     		strb	r2, [r3]
 714              	.LBE3:
 500:.\Generated_Source\PSoC5/cyfitter_cfg.c **** 	}
 501:.\Generated_Source\PSoC5/cyfitter_cfg.c **** 
 502:.\Generated_Source\PSoC5/cyfitter_cfg.c **** 
 503:.\Generated_Source\PSoC5/cyfitter_cfg.c **** 	/* Perform second pass device configuration. These items must be configured in specific order afte
 504:.\Generated_Source\PSoC5/cyfitter_cfg.c **** 	CYCONFIGCPY((void CYFAR *)(CYREG_PRT0_DM0), (const void CYFAR *)(BS_IOPINS0_0_VAL), 8u);
 715              		.loc 1 504 0
 716 00aa 2248     		ldr	r0, .L38+60
 717 00ac 2249     		ldr	r1, .L38+64
 718 00ae 0822     		movs	r2, #8
 719 00b0 FFF7FEFF 		bl	CYCONFIGCPY
 720              	.LVL59:
 505:.\Generated_Source\PSoC5/cyfitter_cfg.c **** 	CYCONFIGCPY((void CYFAR *)(CYREG_PRT15_DR), (const void CYFAR *)(BS_IOPINS0_8_VAL), 10u);
 721              		.loc 1 505 0
 722 00b4 2148     		ldr	r0, .L38+68
 723 00b6 2249     		ldr	r1, .L38+72
 724 00b8 2A46     		mov	r2, r5
 725 00ba FFF7FEFF 		bl	CYCONFIGCPY
 726              	.LVL60:
 506:.\Generated_Source\PSoC5/cyfitter_cfg.c **** 	CYCONFIGCPY((void CYFAR *)(CYREG_PRT2_DR), (const void CYFAR *)(BS_IOPINS0_2_VAL), 10u);
 727              		.loc 1 506 0
 728 00be 2148     		ldr	r0, .L38+76
 729 00c0 2149     		ldr	r1, .L38+80
 730 00c2 2A46     		mov	r2, r5
 731 00c4 FFF7FEFF 		bl	CYCONFIGCPY
 732              	.LVL61:
 507:.\Generated_Source\PSoC5/cyfitter_cfg.c **** 	/* Switch Boost to the precision bandgap reference from its internal reference */
 508:.\Generated_Source\PSoC5/cyfitter_cfg.c **** 	CY_SET_REG8((void CYXDATA *)CYREG_BOOST_CR2, (CY_GET_REG8((void CYXDATA *)CYREG_BOOST_CR2) | 0x08u
 733              		.loc 1 508 0
 734 00c8 204B     		ldr	r3, .L38+84
 735 00ca 1A78     		ldrb	r2, [r3]	@ zero_extendqisi2
 736 00cc 42F00802 		orr	r2, r2, #8
 737 00d0 1A70     		strb	r2, [r3]
 509:.\Generated_Source\PSoC5/cyfitter_cfg.c **** 
 510:.\Generated_Source\PSoC5/cyfitter_cfg.c **** 	/* Set Flash Cycles based on max possible frequency in case a glitch occurs during ClockSetup(). *
 511:.\Generated_Source\PSoC5/cyfitter_cfg.c **** 	CY_SET_XTND_REG8((void CYFAR *)(CYREG_CACHE_CC_CTL), (((CYDEV_INSTRUCT_CACHE_ENABLED) != 0) ? 0x61
 738              		.loc 1 511 0
 739 00d2 1F4D     		ldr	r5, .L38+88
 740 00d4 6123     		movs	r3, #97
 741 00d6 2B70     		strb	r3, [r5]
 512:.\Generated_Source\PSoC5/cyfitter_cfg.c **** 	/* Setup clocks based on selections from Clock DWR */
 513:.\Generated_Source\PSoC5/cyfitter_cfg.c **** 	ClockSetup();
 742              		.loc 1 513 0
 743 00d8 FFF7FEFF 		bl	ClockSetup
 744              	.LVL62:
 514:.\Generated_Source\PSoC5/cyfitter_cfg.c **** 	/* Set Flash Cycles based on newly configured 24.00MHz Bus Clock. */
 515:.\Generated_Source\PSoC5/cyfitter_cfg.c **** 	CY_SET_XTND_REG8((void CYFAR *)(CYREG_CACHE_CC_CTL), (((CYDEV_INSTRUCT_CACHE_ENABLED) != 0) ? 0x81
 745              		.loc 1 515 0
 746 00dc 8123     		movs	r3, #129
 747 00de 2B70     		strb	r3, [r5]
ARM GAS  C:\Users\mitchell\AppData\Local\Temp\ccXm76om.s 			page 24


 516:.\Generated_Source\PSoC5/cyfitter_cfg.c **** 	CY_SET_XTND_REG8((void CYFAR *)(CYREG_PANTHER_WAITPIPE), 0x01u);
 748              		.loc 1 516 0
 749 00e0 0122     		movs	r2, #1
 750 00e2 1C4B     		ldr	r3, .L38+92
 751 00e4 1A70     		strb	r2, [r3]
 517:.\Generated_Source\PSoC5/cyfitter_cfg.c **** 
 518:.\Generated_Source\PSoC5/cyfitter_cfg.c **** 	/* Perform basic analog initialization to defaults */
 519:.\Generated_Source\PSoC5/cyfitter_cfg.c **** 	AnalogSetDefault();
 752              		.loc 1 519 0
 753 00e6 FFF7FEFF 		bl	AnalogSetDefault
 754              	.LVL63:
 520:.\Generated_Source\PSoC5/cyfitter_cfg.c **** 
 521:.\Generated_Source\PSoC5/cyfitter_cfg.c **** 	/* Configure alternate active mode */
 522:.\Generated_Source\PSoC5/cyfitter_cfg.c **** 	CYCONFIGCPY((void CYFAR *)CYDEV_PM_STBY_BASE, (const void CYFAR *)CYDEV_PM_ACT_BASE, 14u);
 755              		.loc 1 522 0
 756 00ea 1B48     		ldr	r0, .L38+96
 757 00ec 2146     		mov	r1, r4
 758 00ee 0E22     		movs	r2, #14
 759 00f0 FFF7FEFF 		bl	CYCONFIGCPY
 760              	.LVL64:
 761 00f4 38BD     		pop	{r3, r4, r5, pc}
 762              	.L39:
 763 00f6 00BF     		.align	2
 764              	.L38:
 765 00f8 E8460040 		.word	1073759976
 766 00fc 0C000000 		.word	.LANCHOR0+12
 767 0100 3C000000 		.word	.LANCHOR0+60
 768 0104 A8000048 		.word	1207959720
 769 0108 83580040 		.word	1073764483
 770 010c 00760040 		.word	1073772032
 771 0110 08760040 		.word	1073772040
 772 0114 880A0048 		.word	1207962248
 773 0118 10760040 		.word	1073772048
 774 011c 8C0A0048 		.word	1207962252
 775 0120 18760040 		.word	1073772056
 776 0124 900A0048 		.word	1207962256
 777 0128 03500140 		.word	1073827843
 778 012c A0430040 		.word	1073759136
 779 0130 C2430040 		.word	1073759170
 780 0134 02510040 		.word	1073762562
 781 0138 640A0048 		.word	1207962212
 782 013c F0510040 		.word	1073762800
 783 0140 6C0A0048 		.word	1207962220
 784 0144 20510040 		.word	1073762592
 785 0148 780A0048 		.word	1207962232
 786 014c 22430040 		.word	1073759010
 787 0150 00480040 		.word	1073760256
 788 0154 04000840 		.word	1074266116
 789 0158 B0430040 		.word	1073759152
 790              		.cfi_endproc
 791              	.LFE10:
 792              		.size	cyfitter_cfg, .-cyfitter_cfg
 793              		.global	BRAKE_ADC_AMux__maskTable
 794              		.global	BRAKE_ADC_AMux__addrTable
 795              		.section	.rodata
 796              		.align	2
 797              		.set	.LANCHOR0,. + 0
ARM GAS  C:\Users\mitchell\AppData\Local\Temp\ccXm76om.s 			page 25


 798              		.type	BRAKE_ADC_AMux__addrTable, %object
 799              		.size	BRAKE_ADC_AMux__addrTable, 8
 800              	BRAKE_ADC_AMux__addrTable:
 801 0000 035B0040 		.word	1073765123
 802 0004 24430040 		.word	1073759012
 803              		.type	BRAKE_ADC_AMux__maskTable, %object
 804              		.size	BRAKE_ADC_AMux__maskTable, 2
 805              	BRAKE_ADC_AMux__maskTable:
 806 0008 40       		.byte	64
 807 0009 00       		.byte	0
 808 000a 0000     		.space	2
 809              		.type	cfg_memset_list.4904, %object
 810              		.size	cfg_memset_list.4904, 48
 811              	cfg_memset_list.4904:
 812 000c 10510040 		.word	1073762576
 813 0010 1000     		.short	16
 814 0012 30510040 		.4byte	1073762608
 815 0016 4000     		.short	64
 816 0018 C0510040 		.word	1073762752
 817 001c 1000     		.short	16
 818 001e 00000140 		.4byte	1073807360
 819 0022 0010     		.short	4096
 820 0024 00140140 		.word	1073812480
 821 0028 0008     		.short	2048
 822 002a 00400140 		.4byte	1073823744
 823 002e 000A     		.short	2560
 824 0030 004C0140 		.word	1073826816
 825 0034 0002     		.short	512
 826 0036 10500140 		.4byte	1073827856
 827 003a 1000     		.short	16
 828              		.type	cfg_memcpy_list.4905, %object
 829              		.size	cfg_memcpy_list.4905, 10
 830              	cfg_memcpy_list.4905:
 831 003c 00500140 		.word	1073827840
 832 0040 540A0048 		.word	1207962196
 833 0044 1000     		.short	16
 834 0046 0000     		.text
 835              	.Letext0:
 836              		.file 2 "c:\\program files (x86)\\cypress\\psoc creator\\3.2\\psoc creator\\import\\gnu\\arm\\4.8.
 837              		.file 3 ".\\Generated_Source\\PSoC5\\cytypes.h"
 838              		.file 4 ".\\Generated_Source\\PSoC5\\CyLib.h"