ARM GAS  C:\Users\mitchell\AppData\Local\Temp\cc6dYCHI.s 			page 1


   1              		.syntax unified
   2              		.cpu cortex-m3
   3              		.fpu softvfp
   4              		.eabi_attribute 20, 1
   5              		.eabi_attribute 21, 1
   6              		.eabi_attribute 23, 3
   7              		.eabi_attribute 24, 1
   8              		.eabi_attribute 25, 1
   9              		.eabi_attribute 26, 1
  10              		.eabi_attribute 30, 1
  11              		.eabi_attribute 34, 1
  12              		.eabi_attribute 18, 4
  13              		.thumb
  14              		.file	"main.c"
  15              		.text
  16              	.Ltext0:
  17              		.cfi_sections	.debug_frame
  18              		.global	__aeabi_fcmpeq
  19              		.section	.text.main,"ax",%progbits
  20              		.align	2
  21              		.global	main
  22              		.thumb
  23              		.thumb_func
  24              		.type	main, %function
  25              	main:
  26              	.LFB63:
  27              		.file 1 ".\\main.c"
   1:.\main.c      **** /* ========================================
   2:.\main.c      ****     The main thread to run the E-Throttle code.
   3:.\main.c      **** 
   4:.\main.c      ****     Author: Mitchell Mellone (mellom3@rpi.edu)
   5:.\main.c      ****     Date Created: 12/30/15
   6:.\main.c      ****     Most Recent Modification: 12/30/15
   7:.\main.c      **** 
   8:.\main.c      ****     Copyright (c) 2015 Rensselaer Motorsport
   9:.\main.c      ****     Distributed under the MIT License.
  10:.\main.c      ****     See "LICENSE" for more information.
  11:.\main.c      ****  * ========================================
  12:.\main.c      **** */
  13:.\main.c      **** 
  14:.\main.c      **** #include <project.h>
  15:.\main.c      **** #include "signal_processing.h"
  16:.\main.c      **** 
  17:.\main.c      **** 
  18:.\main.c      **** int main()
  19:.\main.c      **** {
  28              		.loc 1 19 0
  29              		.cfi_startproc
  30              		@ args = 0, pretend = 0, frame = 0
  31              		@ frame_needed = 0, uses_anonymous_args = 0
  32 0000 2DE9F84F 		push	{r3, r4, r5, r6, r7, r8, r9, r10, fp, lr}
  33              		.cfi_def_cfa_offset 40
  34              		.cfi_offset 3, -40
  35              		.cfi_offset 4, -36
  36              		.cfi_offset 5, -32
  37              		.cfi_offset 6, -28
  38              		.cfi_offset 7, -24
ARM GAS  C:\Users\mitchell\AppData\Local\Temp\cc6dYCHI.s 			page 2


  39              		.cfi_offset 8, -20
  40              		.cfi_offset 9, -16
  41              		.cfi_offset 10, -12
  42              		.cfi_offset 11, -8
  43              		.cfi_offset 14, -4
  20:.\main.c      ****     CyGlobalIntEnable; /* Enable global interrupts. */
  44              		.loc 1 20 0
  45              	@ 20 ".\main.c" 1
  46 0004 62B6     		CPSIE   i
  47              	@ 0 "" 2
  21:.\main.c      ****     
  22:.\main.c      ****     int16 apps0_raw, apps1_raw, tps0_raw, tps1_raw, brake_raw;
  23:.\main.c      ****     float apps0_percent, apps1_percent, tps0_percent, tps1_percent, brake_percent;
  24:.\main.c      ****     float apps_avg, tps_avg;
  25:.\main.c      **** 
  26:.\main.c      ****     /* Initializations */
  27:.\main.c      ****     Error_Buffer * err_buff = createErrorBuffer();
  48              		.loc 1 27 0
  49              		.thumb
  50 0006 FFF7FEFF 		bl	createErrorBuffer
  51              	.LVL0:
  28:.\main.c      ****     APPS_ADC_Start();
  52              		.loc 1 28 0
  53 000a FFF7FEFF 		bl	APPS_ADC_Start
  54              	.LVL1:
  29:.\main.c      ****     TPS_ADC_Start();
  55              		.loc 1 29 0
  56 000e FFF7FEFF 		bl	TPS_ADC_Start
  57              	.LVL2:
  30:.\main.c      ****     APPS_ADC_StartConvert();
  58              		.loc 1 30 0
  59 0012 FFF7FEFF 		bl	APPS_ADC_StartConvert
  60              	.LVL3:
  31:.\main.c      ****     TPS_ADC_StartConvert();
  61              		.loc 1 31 0
  62 0016 FFF7FEFF 		bl	TPS_ADC_StartConvert
  63              	.LVL4:
  32:.\main.c      **** 
  33:.\main.c      ****     for(;;)
  34:.\main.c      ****     {
  35:.\main.c      ****         /* Get the raw APPS result */
  36:.\main.c      ****         APPS_ADC_StartConvert();
  37:.\main.c      ****         APPS_ADC_IsEndConversion(APPS_ADC_WAIT_FOR_RESULT);
  64              		.loc 1 37 0
  65 001a 0024     		movs	r4, #0
  38:.\main.c      ****         apps0_raw = APPS_ADC_GetResult16(0);
  39:.\main.c      ****         apps1_raw = APPS_ADC_GetResult16(1);
  66              		.loc 1 39 0
  67 001c 0125     		movs	r5, #1
  40:.\main.c      ****         /* Get the raw TPS result */
  41:.\main.c      ****         TPS_ADC_StartConvert();
  42:.\main.c      ****         TPS_ADC_IsEndConversion(TPS_ADC_WAIT_FOR_RESULT);
  43:.\main.c      ****         tps0_raw = TPS_ADC_GetResult16(0);
  44:.\main.c      ****         tps1_raw = TPS_ADC_GetResult16(1);
  45:.\main.c      ****         /* Get the brake encoder result */
  46:.\main.c      ****         brake_raw = BRAKE_ADC_Read16();
  47:.\main.c      ****     
ARM GAS  C:\Users\mitchell\AppData\Local\Temp\cc6dYCHI.s 			page 3


  48:.\main.c      ****         /* Convert to percents */
  49:.\main.c      ****         apps0_percent = convertToPercent(apps0_raw, APPS);
  50:.\main.c      ****         apps1_percent = convertToPercent(apps1_raw, APPS);
  51:.\main.c      ****         tps0_percent = convertToPercent(tps0_raw, TPS);
  52:.\main.c      ****         tps1_percent = convertToPercent(tps1_raw, TPS);
  53:.\main.c      ****         brake_percent = convertToPercent(brake_raw, BRAKE);
  54:.\main.c      ****         
  55:.\main.c      ****         /* Average and check for error */
  56:.\main.c      ****         apps_avg = average(apps0_percent, apps1_percent);
  57:.\main.c      ****         tps_avg = average(tps0_percent, tps1_percent);
  58:.\main.c      ****         if (apps_avg == ERROR || tps_avg == ERROR) {
  68              		.loc 1 58 0
  69 001e 0026     		movs	r6, #0
  70              	.L3:
  36:.\main.c      ****         APPS_ADC_StartConvert();
  71              		.loc 1 36 0
  72 0020 FFF7FEFF 		bl	APPS_ADC_StartConvert
  73              	.LVL5:
  37:.\main.c      ****         APPS_ADC_IsEndConversion(APPS_ADC_WAIT_FOR_RESULT);
  74              		.loc 1 37 0
  75 0024 2046     		mov	r0, r4
  76 0026 FFF7FEFF 		bl	APPS_ADC_IsEndConversion
  77              	.LVL6:
  38:.\main.c      ****         apps0_raw = APPS_ADC_GetResult16(0);
  78              		.loc 1 38 0
  79 002a 2046     		mov	r0, r4
  80 002c FFF7FEFF 		bl	APPS_ADC_GetResult16
  81              	.LVL7:
  82 0030 8246     		mov	r10, r0
  83              	.LVL8:
  39:.\main.c      ****         apps1_raw = APPS_ADC_GetResult16(1);
  84              		.loc 1 39 0
  85 0032 2846     		mov	r0, r5
  86              	.LVL9:
  87 0034 FFF7FEFF 		bl	APPS_ADC_GetResult16
  88              	.LVL10:
  89 0038 0746     		mov	r7, r0
  90              	.LVL11:
  41:.\main.c      ****         TPS_ADC_StartConvert();
  91              		.loc 1 41 0
  92 003a FFF7FEFF 		bl	TPS_ADC_StartConvert
  93              	.LVL12:
  42:.\main.c      ****         TPS_ADC_IsEndConversion(TPS_ADC_WAIT_FOR_RESULT);
  94              		.loc 1 42 0
  95 003e 2046     		mov	r0, r4
  96 0040 FFF7FEFF 		bl	TPS_ADC_IsEndConversion
  97              	.LVL13:
  43:.\main.c      ****         tps0_raw = TPS_ADC_GetResult16(0);
  98              		.loc 1 43 0
  99 0044 2046     		mov	r0, r4
 100 0046 FFF7FEFF 		bl	TPS_ADC_GetResult16
 101              	.LVL14:
 102 004a 8146     		mov	r9, r0
 103              	.LVL15:
  44:.\main.c      ****         tps1_raw = TPS_ADC_GetResult16(1);
 104              		.loc 1 44 0
 105 004c 2846     		mov	r0, r5
ARM GAS  C:\Users\mitchell\AppData\Local\Temp\cc6dYCHI.s 			page 4


 106              	.LVL16:
 107 004e FFF7FEFF 		bl	TPS_ADC_GetResult16
 108              	.LVL17:
 109 0052 8046     		mov	r8, r0
 110              	.LVL18:
  46:.\main.c      ****         brake_raw = BRAKE_ADC_Read16();
 111              		.loc 1 46 0
 112 0054 FFF7FEFF 		bl	BRAKE_ADC_Read16
 113              	.LVL19:
 114 0058 8346     		mov	fp, r0
 115              	.LVL20:
  49:.\main.c      ****         apps0_percent = convertToPercent(apps0_raw, APPS);
 116              		.loc 1 49 0
 117 005a 1FFA8AF0 		uxth	r0, r10
 118              	.LVL21:
 119 005e 2946     		mov	r1, r5
 120 0060 FFF7FEFF 		bl	convertToPercent
 121              	.LVL22:
 122 0064 8246     		mov	r10, r0
 123              	.LVL23:
  50:.\main.c      ****         apps1_percent = convertToPercent(apps1_raw, APPS);
 124              		.loc 1 50 0
 125 0066 B8B2     		uxth	r0, r7
 126              	.LVL24:
 127 0068 2946     		mov	r1, r5
 128 006a FFF7FEFF 		bl	convertToPercent
 129              	.LVL25:
 130 006e 0746     		mov	r7, r0
 131              	.LVL26:
  51:.\main.c      ****         tps0_percent = convertToPercent(tps0_raw, TPS);
 132              		.loc 1 51 0
 133 0070 1FFA89F0 		uxth	r0, r9
 134              	.LVL27:
 135 0074 2146     		mov	r1, r4
 136 0076 FFF7FEFF 		bl	convertToPercent
 137              	.LVL28:
 138 007a 8146     		mov	r9, r0
 139              	.LVL29:
  52:.\main.c      ****         tps1_percent = convertToPercent(tps1_raw, TPS);
 140              		.loc 1 52 0
 141 007c 1FFA88F0 		uxth	r0, r8
 142              	.LVL30:
 143 0080 2146     		mov	r1, r4
 144 0082 FFF7FEFF 		bl	convertToPercent
 145              	.LVL31:
 146 0086 8046     		mov	r8, r0
 147              	.LVL32:
  53:.\main.c      ****         brake_percent = convertToPercent(brake_raw, BRAKE);
 148              		.loc 1 53 0
 149 0088 1FFA8BF0 		uxth	r0, fp
 150              	.LVL33:
 151 008c 0221     		movs	r1, #2
 152 008e FFF7FEFF 		bl	convertToPercent
 153              	.LVL34:
  56:.\main.c      ****         apps_avg = average(apps0_percent, apps1_percent);
 154              		.loc 1 56 0
 155 0092 5046     		mov	r0, r10
ARM GAS  C:\Users\mitchell\AppData\Local\Temp\cc6dYCHI.s 			page 5


 156 0094 3946     		mov	r1, r7
 157 0096 FFF7FEFF 		bl	average
 158              	.LVL35:
 159 009a 0746     		mov	r7, r0
 160              	.LVL36:
  57:.\main.c      ****         tps_avg = average(tps0_percent, tps1_percent);
 161              		.loc 1 57 0
 162 009c 4846     		mov	r0, r9
 163              	.LVL37:
 164 009e 4146     		mov	r1, r8
 165 00a0 FFF7FEFF 		bl	average
 166              	.LVL38:
 167 00a4 8046     		mov	r8, r0
 168              	.LVL39:
 169              		.loc 1 58 0
 170 00a6 3846     		mov	r0, r7
 171              	.LVL40:
 172 00a8 3146     		mov	r1, r6
 173 00aa FFF7FEFF 		bl	__aeabi_fcmpeq
 174              	.LVL41:
 175 00ae 28B9     		cbnz	r0, .L2
 176              		.loc 1 58 0 is_stmt 0 discriminator 1
 177 00b0 4046     		mov	r0, r8
 178 00b2 3146     		mov	r1, r6
 179 00b4 FFF7FEFF 		bl	__aeabi_fcmpeq
 180              	.LVL42:
 181 00b8 0028     		cmp	r0, #0
 182 00ba B1D0     		beq	.L3
 183              	.L2:
  59:.\main.c      ****             /* TODO: Handle error */
  60:.\main.c      ****             return ERROR;
  61:.\main.c      ****         }
  62:.\main.c      ****         
  63:.\main.c      ****         /* TODO: Figure out how to write value to servo out */
  64:.\main.c      ****     }
  65:.\main.c      **** }
 184              		.loc 1 65 0 is_stmt 1
 185 00bc 0020     		movs	r0, #0
 186 00be BDE8F88F 		pop	{r3, r4, r5, r6, r7, r8, r9, r10, fp, pc}
 187              		.cfi_endproc
 188              	.LFE63:
 189              		.size	main, .-main
 190 00c2 00BF     		.text
 191              	.Letext0:
 192              		.file 2 "c:\\program files (x86)\\cypress\\psoc creator\\3.2\\psoc creator\\import\\gnu\\arm\\4.8.
 193              		.file 3 "c:\\program files (x86)\\cypress\\psoc creator\\3.2\\psoc creator\\import\\gnu\\arm\\4.8.
 194              		.file 4 "Generated_Source\\PSoC5/cytypes.h"
 195              		.file 5 ".\\queue.h"
 196              		.file 6 ".\\signal_processing.h"
 197              		.file 7 "Generated_Source\\PSoC5/APPS_ADC.h"
 198              		.file 8 "Generated_Source\\PSoC5/TPS_ADC.h"
 199              		.file 9 "Generated_Source\\PSoC5/core_cm3.h"
 200              		.file 10 "Generated_Source\\PSoC5/BRAKE_ADC.h"