ARM GAS  C:\Users\mitchell\AppData\Local\Temp\ccbkhZSB.s 			page 1


   1              		.syntax unified
   2              		.cpu cortex-m3
   3              		.fpu softvfp
   4              		.eabi_attribute 20, 1
   5              		.eabi_attribute 21, 1
   6              		.eabi_attribute 23, 3
   7              		.eabi_attribute 24, 1
   8              		.eabi_attribute 25, 1
   9              		.eabi_attribute 26, 1
  10              		.eabi_attribute 30, 1
  11              		.eabi_attribute 34, 1
  12              		.eabi_attribute 18, 4
  13              		.thumb
  14              		.file	"queue.c"
  15              		.text
  16              	.Ltext0:
  17              		.cfi_sections	.debug_frame
  18              		.section	.text.createQueue,"ax",%progbits
  19              		.align	2
  20              		.global	createQueue
  21              		.thumb
  22              		.thumb_func
  23              		.type	createQueue, %function
  24              	createQueue:
  25              	.LFB63:
  26              		.file 1 ".\\queue.c"
   1:.\queue.c     **** /* ========================================
   2:.\queue.c     ****     A simple Queue implemented with a linked
   3:.\queue.c     ****     list.
   4:.\queue.c     **** 
   5:.\queue.c     ****     Author: Mitchell Mellone (mellom3@rpi.edu)
   6:.\queue.c     ****     Date Created: 12/30/15
   7:.\queue.c     ****     Most Recent Modification: 12/30/15
   8:.\queue.c     **** 
   9:.\queue.c     ****     Copyright (c) 2015 Rensselaer Motorsport
  10:.\queue.c     ****     Distributed under the MIT License.
  11:.\queue.c     ****     See "LICENSE" for more information.
  12:.\queue.c     ****  * ========================================
  13:.\queue.c     **** */
  14:.\queue.c     **** 
  15:.\queue.c     **** #include "queue.h"
  16:.\queue.c     **** 
  17:.\queue.c     **** 
  18:.\queue.c     **** /* Note that nodes are inserted at the back/tail and
  19:.\queue.c     ****    removed at the front/head */
  20:.\queue.c     **** 
  21:.\queue.c     **** /*
  22:.\queue.c     **** parameter:  size - The initial size of the queue
  23:.\queue.c     **** effect:     Creates an empty linked list based
  24:.\queue.c     ****             queue
  25:.\queue.c     **** */
  26:.\queue.c     **** Queue * createQueue() {
  27              		.loc 1 26 0
  28              		.cfi_startproc
  29              		@ args = 0, pretend = 0, frame = 0
  30              		@ frame_needed = 0, uses_anonymous_args = 0
  31 0000 08B5     		push	{r3, lr}
ARM GAS  C:\Users\mitchell\AppData\Local\Temp\ccbkhZSB.s 			page 2


  32              		.cfi_def_cfa_offset 8
  33              		.cfi_offset 3, -8
  34              		.cfi_offset 14, -4
  27:.\queue.c     ****     // Initialize Queue
  28:.\queue.c     ****     Queue * q = (Queue*)malloc(sizeof(Queue));
  35              		.loc 1 28 0
  36 0002 0820     		movs	r0, #8
  37 0004 FFF7FEFF 		bl	malloc
  38              	.LVL0:
  29:.\queue.c     ****     q->head = q->tail = NULL;
  39              		.loc 1 29 0
  40 0008 0022     		movs	r2, #0
  41 000a 4260     		str	r2, [r0, #4]
  42 000c 0260     		str	r2, [r0]
  30:.\queue.c     ****     return q;
  31:.\queue.c     **** }
  43              		.loc 1 31 0
  44 000e 08BD     		pop	{r3, pc}
  45              		.cfi_endproc
  46              	.LFE63:
  47              		.size	createQueue, .-createQueue
  48              		.section	.text.enqueue,"ax",%progbits
  49              		.align	2
  50              		.global	enqueue
  51              		.thumb
  52              		.thumb_func
  53              		.type	enqueue, %function
  54              	enqueue:
  55              	.LFB64:
  32:.\queue.c     **** 
  33:.\queue.c     **** /*
  34:.\queue.c     **** parameter:  val - The value to add to the queue
  35:.\queue.c     **** effect:     Creates and adds a tail to the back of Queue q
  36:.\queue.c     **** modifies:   back & (front if (back == NULL))
  37:.\queue.c     **** */
  38:.\queue.c     **** void enqueue(Queue * q, unsigned char brake_stat, float TPS_APPS_err, int time) {
  56              		.loc 1 38 0
  57              		.cfi_startproc
  58              		@ args = 0, pretend = 0, frame = 0
  59              		@ frame_needed = 0, uses_anonymous_args = 0
  60              	.LVL1:
  61 0000 2DE9E841 		push	{r3, r5, r6, r7, r8, lr}
  62              		.cfi_def_cfa_offset 24
  63              		.cfi_offset 3, -24
  64              		.cfi_offset 5, -20
  65              		.cfi_offset 6, -16
  66              		.cfi_offset 7, -12
  67              		.cfi_offset 8, -8
  68              		.cfi_offset 14, -4
  69 0004 0546     		mov	r5, r0
  70 0006 8846     		mov	r8, r1
  71 0008 1746     		mov	r7, r2
  72 000a 1E46     		mov	r6, r3
  39:.\queue.c     ****     if (q->tail == NULL) {
  73              		.loc 1 39 0
  74 000c 4068     		ldr	r0, [r0, #4]
  75              	.LVL2:
ARM GAS  C:\Users\mitchell\AppData\Local\Temp\ccbkhZSB.s 			page 3


  76 000e 60B9     		cbnz	r0, .L3
  40:.\queue.c     ****         /* Queue is empty */
  41:.\queue.c     ****         q->tail = (Node *)malloc(sizeof(Node));
  77              		.loc 1 41 0
  78 0010 1020     		movs	r0, #16
  79 0012 FFF7FEFF 		bl	malloc
  80              	.LVL3:
  81 0016 6860     		str	r0, [r5, #4]
  42:.\queue.c     ****         q->tail->next = NULL;
  82              		.loc 1 42 0
  83 0018 0023     		movs	r3, #0
  84 001a C360     		str	r3, [r0, #12]
  43:.\queue.c     ****         q->tail->brake_error = brake_stat;
  85              		.loc 1 43 0
  86 001c 80F80080 		strb	r8, [r0]
  44:.\queue.c     ****         q->tail->TPS_APPS_error = TPS_APPS_err;
  87              		.loc 1 44 0
  88 0020 4760     		str	r7, [r0, #4]	@ float
  45:.\queue.c     ****         q->tail->time_count = time;
  89              		.loc 1 45 0
  90 0022 8660     		str	r6, [r0, #8]
  46:.\queue.c     ****         q->head = q->tail;
  91              		.loc 1 46 0
  92 0024 2860     		str	r0, [r5]
  93 0026 BDE8E881 		pop	{r3, r5, r6, r7, r8, pc}
  94              	.LVL4:
  95              	.L3:
  96              	.LBB2:
  47:.\queue.c     ****     } else {
  48:.\queue.c     ****         /* Queue is not empty */
  49:.\queue.c     ****         Node *temp = (Node *)malloc(sizeof(Node));
  97              		.loc 1 49 0
  98 002a 1020     		movs	r0, #16
  99 002c FFF7FEFF 		bl	malloc
 100              	.LVL5:
  50:.\queue.c     ****         temp->next = NULL;
 101              		.loc 1 50 0
 102 0030 0023     		movs	r3, #0
 103 0032 C360     		str	r3, [r0, #12]
  51:.\queue.c     ****         temp->brake_error = brake_stat;
 104              		.loc 1 51 0
 105 0034 80F80080 		strb	r8, [r0]
  52:.\queue.c     ****         temp->TPS_APPS_error = TPS_APPS_err;
 106              		.loc 1 52 0
 107 0038 4760     		str	r7, [r0, #4]	@ float
  53:.\queue.c     ****         temp->time_count = time;
 108              		.loc 1 53 0
 109 003a 8660     		str	r6, [r0, #8]
  54:.\queue.c     ****         q->tail->next = temp;
 110              		.loc 1 54 0
 111 003c 6B68     		ldr	r3, [r5, #4]
 112 003e D860     		str	r0, [r3, #12]
  55:.\queue.c     ****         q->tail = temp;
 113              		.loc 1 55 0
 114 0040 6860     		str	r0, [r5, #4]
 115 0042 BDE8E881 		pop	{r3, r5, r6, r7, r8, pc}
 116              	.LBE2:
ARM GAS  C:\Users\mitchell\AppData\Local\Temp\ccbkhZSB.s 			page 4


 117              		.cfi_endproc
 118              	.LFE64:
 119              		.size	enqueue, .-enqueue
 120 0046 00BF     		.section	.text.dequeue,"ax",%progbits
 121              		.align	2
 122              		.global	dequeue
 123              		.thumb
 124              		.thumb_func
 125              		.type	dequeue, %function
 126              	dequeue:
 127              	.LFB65:
  56:.\queue.c     ****     }
  57:.\queue.c     **** }
  58:.\queue.c     **** 
  59:.\queue.c     **** /*
  60:.\queue.c     **** effect: Removes the head element in the queue
  61:.\queue.c     **** return: The least recent node (head)
  62:.\queue.c     **** */
  63:.\queue.c     **** Node * dequeue(Queue * q) {
 128              		.loc 1 63 0
 129              		.cfi_startproc
 130              		@ args = 0, pretend = 0, frame = 0
 131              		@ frame_needed = 0, uses_anonymous_args = 0
 132              	.LVL6:
 133 0000 38B5     		push	{r3, r4, r5, lr}
 134              		.cfi_def_cfa_offset 16
 135              		.cfi_offset 3, -16
 136              		.cfi_offset 4, -12
 137              		.cfi_offset 5, -8
 138              		.cfi_offset 14, -4
 139 0002 0546     		mov	r5, r0
  64:.\queue.c     ****     Node * toReturn;
  65:.\queue.c     ****     if (q->head == NULL) {
 140              		.loc 1 65 0
 141 0004 0468     		ldr	r4, [r0]
 142 0006 3CB1     		cbz	r4, .L6
 143              	.LVL7:
 144              	.LBB3:
  66:.\queue.c     ****         /* Queue is empty */
  67:.\queue.c     ****         toReturn = NULL;
  68:.\queue.c     ****     } else {
  69:.\queue.c     ****         /* Queue is not empty */
  70:.\queue.c     ****         toReturn = q->head;
  71:.\queue.c     ****         Node * oldHead = q->head;
  72:.\queue.c     ****         q->head = q->head->next;
 145              		.loc 1 72 0
 146 0008 E368     		ldr	r3, [r4, #12]
 147 000a 0360     		str	r3, [r0]
  73:.\queue.c     ****         free(oldHead);
 148              		.loc 1 73 0
 149 000c 2046     		mov	r0, r4
 150              	.LVL8:
 151 000e FFF7FEFF 		bl	free
 152              	.LVL9:
  74:.\queue.c     ****         if (q->head == NULL) {
 153              		.loc 1 74 0
 154 0012 2B68     		ldr	r3, [r5]
ARM GAS  C:\Users\mitchell\AppData\Local\Temp\ccbkhZSB.s 			page 5


 155 0014 03B9     		cbnz	r3, .L6
  75:.\queue.c     ****             /* If dequeueing last element */
  76:.\queue.c     ****             q->tail = NULL;
 156              		.loc 1 76 0
 157 0016 6B60     		str	r3, [r5, #4]
 158              	.LVL10:
 159              	.L6:
 160              	.LBE3:
  77:.\queue.c     ****         }
  78:.\queue.c     ****     }
  79:.\queue.c     ****     return toReturn;
  80:.\queue.c     **** }
 161              		.loc 1 80 0
 162 0018 2046     		mov	r0, r4
 163 001a 38BD     		pop	{r3, r4, r5, pc}
 164              		.cfi_endproc
 165              	.LFE65:
 166              		.size	dequeue, .-dequeue
 167              		.section	.text.headTime,"ax",%progbits
 168              		.align	2
 169              		.global	headTime
 170              		.thumb
 171              		.thumb_func
 172              		.type	headTime, %function
 173              	headTime:
 174              	.LFB66:
  81:.\queue.c     **** 
  82:.\queue.c     **** /*
  83:.\queue.c     **** return: The time_count value from the queue's head node
  84:.\queue.c     ****         This will be the least recent time in the queue
  85:.\queue.c     **** */
  86:.\queue.c     **** uint32 headTime(Queue * q) {
 175              		.loc 1 86 0
 176              		.cfi_startproc
 177              		@ args = 0, pretend = 0, frame = 0
 178              		@ frame_needed = 0, uses_anonymous_args = 0
 179              		@ link register save eliminated.
 180              	.LVL11:
  87:.\queue.c     ****     if (q->head == NULL) {
 181              		.loc 1 87 0
 182 0000 0368     		ldr	r3, [r0]
 183 0002 0BB1     		cbz	r3, .L9
  88:.\queue.c     ****         /* queue is empty */
  89:.\queue.c     ****         return -1;
  90:.\queue.c     ****     } else {
  91:.\queue.c     ****         return q->head->time_count;
 184              		.loc 1 91 0
 185 0004 9868     		ldr	r0, [r3, #8]
 186              	.LVL12:
 187 0006 7047     		bx	lr
 188              	.LVL13:
 189              	.L9:
  89:.\queue.c     ****         return -1;
 190              		.loc 1 89 0
 191 0008 4FF0FF30 		mov	r0, #-1
 192              	.LVL14:
  92:.\queue.c     ****     }
ARM GAS  C:\Users\mitchell\AppData\Local\Temp\ccbkhZSB.s 			page 6


  93:.\queue.c     **** }
 193              		.loc 1 93 0
 194 000c 7047     		bx	lr
 195              		.cfi_endproc
 196              	.LFE66:
 197              		.size	headTime, .-headTime
 198 000e 00BF     		.text
 199              	.Letext0:
 200              		.file 2 "c:\\program files (x86)\\cypress\\psoc creator\\3.2\\psoc creator\\import\\gnu\\arm\\4.8.
 201              		.file 3 "c:\\program files (x86)\\cypress\\psoc creator\\3.2\\psoc creator\\import\\gnu\\arm\\4.8.
 202              		.file 4 "c:\\program files (x86)\\cypress\\psoc creator\\3.2\\psoc creator\\import\\gnu\\arm\\4.8.
 203              		.file 5 "Generated_Source\\PSoC5/cytypes.h"
 204              		.file 6 ".\\queue.h"
 205              		.file 7 "Generated_Source\\PSoC5/core_cm3.h"
 206              		.file 8 "c:\\program files (x86)\\cypress\\psoc creator\\3.2\\psoc creator\\import\\gnu\\arm\\4.8.