ARM GAS  C:\Users\mitchell\AppData\Local\Temp\cc7lDLtl.s 			page 1


   1              		.syntax unified
   2              		.cpu cortex-m3
   3              		.fpu softvfp
   4              		.eabi_attribute 20, 1
   5              		.eabi_attribute 21, 1
   6              		.eabi_attribute 23, 3
   7              		.eabi_attribute 24, 1
   8              		.eabi_attribute 25, 1
   9              		.eabi_attribute 26, 1
  10              		.eabi_attribute 30, 1
  11              		.eabi_attribute 34, 1
  12              		.eabi_attribute 18, 4
  13              		.thumb
  14              		.file	"SERVO_PWM.c"
  15              		.text
  16              	.Ltext0:
  17              		.cfi_sections	.debug_frame
  18              		.section	.text.SERVO_PWM_Enable,"ax",%progbits
  19              		.align	2
  20              		.global	SERVO_PWM_Enable
  21              		.thumb
  22              		.thumb_func
  23              		.type	SERVO_PWM_Enable, %function
  24              	SERVO_PWM_Enable:
  25              	.LFB2:
  26              		.file 1 ".\\Generated_Source\\PSoC5\\SERVO_PWM.c"
   1:.\Generated_Source\PSoC5/SERVO_PWM.c **** /*******************************************************************************
   2:.\Generated_Source\PSoC5/SERVO_PWM.c **** * File Name: SERVO_PWM.c
   3:.\Generated_Source\PSoC5/SERVO_PWM.c **** * Version 3.30
   4:.\Generated_Source\PSoC5/SERVO_PWM.c **** *
   5:.\Generated_Source\PSoC5/SERVO_PWM.c **** * Description:
   6:.\Generated_Source\PSoC5/SERVO_PWM.c **** *  The PWM User Module consist of an 8 or 16-bit counter with two 8 or 16-bit
   7:.\Generated_Source\PSoC5/SERVO_PWM.c **** *  comparitors. Each instance of this user module is capable of generating
   8:.\Generated_Source\PSoC5/SERVO_PWM.c **** *  two PWM outputs with the same period. The pulse width is selectable between
   9:.\Generated_Source\PSoC5/SERVO_PWM.c **** *  1 and 255/65535. The period is selectable between 2 and 255/65536 clocks.
  10:.\Generated_Source\PSoC5/SERVO_PWM.c **** *  The compare value output may be configured to be active when the present
  11:.\Generated_Source\PSoC5/SERVO_PWM.c **** *  counter is less than or less than/equal to the compare value.
  12:.\Generated_Source\PSoC5/SERVO_PWM.c **** *  A terminal count output is also provided. It generates a pulse one clock
  13:.\Generated_Source\PSoC5/SERVO_PWM.c **** *  width wide when the counter is equal to zero.
  14:.\Generated_Source\PSoC5/SERVO_PWM.c **** *
  15:.\Generated_Source\PSoC5/SERVO_PWM.c **** * Note:
  16:.\Generated_Source\PSoC5/SERVO_PWM.c **** *
  17:.\Generated_Source\PSoC5/SERVO_PWM.c **** *******************************************************************************
  18:.\Generated_Source\PSoC5/SERVO_PWM.c **** * Copyright 2008-2014, Cypress Semiconductor Corporation.  All rights reserved.
  19:.\Generated_Source\PSoC5/SERVO_PWM.c **** * You may use this file only in accordance with the license, terms, conditions,
  20:.\Generated_Source\PSoC5/SERVO_PWM.c **** * disclaimers, and limitations in the end user license agreement accompanying
  21:.\Generated_Source\PSoC5/SERVO_PWM.c **** * the software package with which this file was provided.
  22:.\Generated_Source\PSoC5/SERVO_PWM.c **** ********************************************************************************/
  23:.\Generated_Source\PSoC5/SERVO_PWM.c **** 
  24:.\Generated_Source\PSoC5/SERVO_PWM.c **** #include "SERVO_PWM.h"
  25:.\Generated_Source\PSoC5/SERVO_PWM.c **** 
  26:.\Generated_Source\PSoC5/SERVO_PWM.c **** /* Error message for removed <resource> through optimization */
  27:.\Generated_Source\PSoC5/SERVO_PWM.c **** #ifdef SERVO_PWM_PWMUDB_genblk1_ctrlreg__REMOVED
  28:.\Generated_Source\PSoC5/SERVO_PWM.c ****     #error PWM_v3_30 detected with a constant 0 for the enable or \
  29:.\Generated_Source\PSoC5/SERVO_PWM.c ****          constant 1 for reset. This will prevent the component from operating.
  30:.\Generated_Source\PSoC5/SERVO_PWM.c **** #endif /* SERVO_PWM_PWMUDB_genblk1_ctrlreg__REMOVED */
  31:.\Generated_Source\PSoC5/SERVO_PWM.c **** 
ARM GAS  C:\Users\mitchell\AppData\Local\Temp\cc7lDLtl.s 			page 2


  32:.\Generated_Source\PSoC5/SERVO_PWM.c **** uint8 SERVO_PWM_initVar = 0u;
  33:.\Generated_Source\PSoC5/SERVO_PWM.c **** 
  34:.\Generated_Source\PSoC5/SERVO_PWM.c **** 
  35:.\Generated_Source\PSoC5/SERVO_PWM.c **** /*******************************************************************************
  36:.\Generated_Source\PSoC5/SERVO_PWM.c **** * Function Name: SERVO_PWM_Start
  37:.\Generated_Source\PSoC5/SERVO_PWM.c **** ********************************************************************************
  38:.\Generated_Source\PSoC5/SERVO_PWM.c **** *
  39:.\Generated_Source\PSoC5/SERVO_PWM.c **** * Summary:
  40:.\Generated_Source\PSoC5/SERVO_PWM.c **** *  The start function initializes the pwm with the default values, the
  41:.\Generated_Source\PSoC5/SERVO_PWM.c **** *  enables the counter to begin counting.  It does not enable interrupts,
  42:.\Generated_Source\PSoC5/SERVO_PWM.c **** *  the EnableInt command should be called if interrupt generation is required.
  43:.\Generated_Source\PSoC5/SERVO_PWM.c **** *
  44:.\Generated_Source\PSoC5/SERVO_PWM.c **** * Parameters:
  45:.\Generated_Source\PSoC5/SERVO_PWM.c **** *  None
  46:.\Generated_Source\PSoC5/SERVO_PWM.c **** *
  47:.\Generated_Source\PSoC5/SERVO_PWM.c **** * Return:
  48:.\Generated_Source\PSoC5/SERVO_PWM.c **** *  None
  49:.\Generated_Source\PSoC5/SERVO_PWM.c **** *
  50:.\Generated_Source\PSoC5/SERVO_PWM.c **** * Global variables:
  51:.\Generated_Source\PSoC5/SERVO_PWM.c **** *  SERVO_PWM_initVar: Is modified when this function is called for the
  52:.\Generated_Source\PSoC5/SERVO_PWM.c **** *   first time. Is used to ensure that initialization happens only once.
  53:.\Generated_Source\PSoC5/SERVO_PWM.c **** *
  54:.\Generated_Source\PSoC5/SERVO_PWM.c **** *******************************************************************************/
  55:.\Generated_Source\PSoC5/SERVO_PWM.c **** void SERVO_PWM_Start(void) 
  56:.\Generated_Source\PSoC5/SERVO_PWM.c **** {
  57:.\Generated_Source\PSoC5/SERVO_PWM.c ****     /* If not Initialized then initialize all required hardware and software */
  58:.\Generated_Source\PSoC5/SERVO_PWM.c ****     if(SERVO_PWM_initVar == 0u)
  59:.\Generated_Source\PSoC5/SERVO_PWM.c ****     {
  60:.\Generated_Source\PSoC5/SERVO_PWM.c ****         SERVO_PWM_Init();
  61:.\Generated_Source\PSoC5/SERVO_PWM.c ****         SERVO_PWM_initVar = 1u;
  62:.\Generated_Source\PSoC5/SERVO_PWM.c ****     }
  63:.\Generated_Source\PSoC5/SERVO_PWM.c ****     SERVO_PWM_Enable();
  64:.\Generated_Source\PSoC5/SERVO_PWM.c **** 
  65:.\Generated_Source\PSoC5/SERVO_PWM.c **** }
  66:.\Generated_Source\PSoC5/SERVO_PWM.c **** 
  67:.\Generated_Source\PSoC5/SERVO_PWM.c **** 
  68:.\Generated_Source\PSoC5/SERVO_PWM.c **** /*******************************************************************************
  69:.\Generated_Source\PSoC5/SERVO_PWM.c **** * Function Name: SERVO_PWM_Init
  70:.\Generated_Source\PSoC5/SERVO_PWM.c **** ********************************************************************************
  71:.\Generated_Source\PSoC5/SERVO_PWM.c **** *
  72:.\Generated_Source\PSoC5/SERVO_PWM.c **** * Summary:
  73:.\Generated_Source\PSoC5/SERVO_PWM.c **** *  Initialize component's parameters to the parameters set by user in the
  74:.\Generated_Source\PSoC5/SERVO_PWM.c **** *  customizer of the component placed onto schematic. Usually called in
  75:.\Generated_Source\PSoC5/SERVO_PWM.c **** *  SERVO_PWM_Start().
  76:.\Generated_Source\PSoC5/SERVO_PWM.c **** *
  77:.\Generated_Source\PSoC5/SERVO_PWM.c **** * Parameters:
  78:.\Generated_Source\PSoC5/SERVO_PWM.c **** *  None
  79:.\Generated_Source\PSoC5/SERVO_PWM.c **** *
  80:.\Generated_Source\PSoC5/SERVO_PWM.c **** * Return:
  81:.\Generated_Source\PSoC5/SERVO_PWM.c **** *  None
  82:.\Generated_Source\PSoC5/SERVO_PWM.c **** *
  83:.\Generated_Source\PSoC5/SERVO_PWM.c **** *******************************************************************************/
  84:.\Generated_Source\PSoC5/SERVO_PWM.c **** void SERVO_PWM_Init(void) 
  85:.\Generated_Source\PSoC5/SERVO_PWM.c **** {
  86:.\Generated_Source\PSoC5/SERVO_PWM.c ****     #if (SERVO_PWM_UsingFixedFunction || SERVO_PWM_UseControl)
  87:.\Generated_Source\PSoC5/SERVO_PWM.c ****         uint8 ctrl;
  88:.\Generated_Source\PSoC5/SERVO_PWM.c ****     #endif /* (SERVO_PWM_UsingFixedFunction || SERVO_PWM_UseControl) */
ARM GAS  C:\Users\mitchell\AppData\Local\Temp\cc7lDLtl.s 			page 3


  89:.\Generated_Source\PSoC5/SERVO_PWM.c **** 
  90:.\Generated_Source\PSoC5/SERVO_PWM.c ****     #if(!SERVO_PWM_UsingFixedFunction)
  91:.\Generated_Source\PSoC5/SERVO_PWM.c ****         #if(SERVO_PWM_UseStatus)
  92:.\Generated_Source\PSoC5/SERVO_PWM.c ****             /* Interrupt State Backup for Critical Region*/
  93:.\Generated_Source\PSoC5/SERVO_PWM.c ****             uint8 SERVO_PWM_interruptState;
  94:.\Generated_Source\PSoC5/SERVO_PWM.c ****         #endif /* (SERVO_PWM_UseStatus) */
  95:.\Generated_Source\PSoC5/SERVO_PWM.c ****     #endif /* (!SERVO_PWM_UsingFixedFunction) */
  96:.\Generated_Source\PSoC5/SERVO_PWM.c **** 
  97:.\Generated_Source\PSoC5/SERVO_PWM.c ****     #if (SERVO_PWM_UsingFixedFunction)
  98:.\Generated_Source\PSoC5/SERVO_PWM.c ****         /* You are allowed to write the compare value (FF only) */
  99:.\Generated_Source\PSoC5/SERVO_PWM.c ****         SERVO_PWM_CONTROL |= SERVO_PWM_CFG0_MODE;
 100:.\Generated_Source\PSoC5/SERVO_PWM.c ****         #if (SERVO_PWM_DeadBand2_4)
 101:.\Generated_Source\PSoC5/SERVO_PWM.c ****             SERVO_PWM_CONTROL |= SERVO_PWM_CFG0_DB;
 102:.\Generated_Source\PSoC5/SERVO_PWM.c ****         #endif /* (SERVO_PWM_DeadBand2_4) */
 103:.\Generated_Source\PSoC5/SERVO_PWM.c **** 
 104:.\Generated_Source\PSoC5/SERVO_PWM.c ****         ctrl = SERVO_PWM_CONTROL3 & ((uint8 )(~SERVO_PWM_CTRL_CMPMODE1_MASK));
 105:.\Generated_Source\PSoC5/SERVO_PWM.c ****         SERVO_PWM_CONTROL3 = ctrl | SERVO_PWM_DEFAULT_COMPARE1_MODE;
 106:.\Generated_Source\PSoC5/SERVO_PWM.c **** 
 107:.\Generated_Source\PSoC5/SERVO_PWM.c ****          /* Clear and Set SYNCTC and SYNCCMP bits of RT1 register */
 108:.\Generated_Source\PSoC5/SERVO_PWM.c ****         SERVO_PWM_RT1 &= ((uint8)(~SERVO_PWM_RT1_MASK));
 109:.\Generated_Source\PSoC5/SERVO_PWM.c ****         SERVO_PWM_RT1 |= SERVO_PWM_SYNC;
 110:.\Generated_Source\PSoC5/SERVO_PWM.c **** 
 111:.\Generated_Source\PSoC5/SERVO_PWM.c ****         /*Enable DSI Sync all all inputs of the PWM*/
 112:.\Generated_Source\PSoC5/SERVO_PWM.c ****         SERVO_PWM_RT1 &= ((uint8)(~SERVO_PWM_SYNCDSI_MASK));
 113:.\Generated_Source\PSoC5/SERVO_PWM.c ****         SERVO_PWM_RT1 |= SERVO_PWM_SYNCDSI_EN;
 114:.\Generated_Source\PSoC5/SERVO_PWM.c **** 
 115:.\Generated_Source\PSoC5/SERVO_PWM.c ****     #elif (SERVO_PWM_UseControl)
 116:.\Generated_Source\PSoC5/SERVO_PWM.c ****         /* Set the default compare mode defined in the parameter */
 117:.\Generated_Source\PSoC5/SERVO_PWM.c ****         ctrl = SERVO_PWM_CONTROL & ((uint8)(~SERVO_PWM_CTRL_CMPMODE2_MASK)) &
 118:.\Generated_Source\PSoC5/SERVO_PWM.c ****                 ((uint8)(~SERVO_PWM_CTRL_CMPMODE1_MASK));
 119:.\Generated_Source\PSoC5/SERVO_PWM.c ****         SERVO_PWM_CONTROL = ctrl | SERVO_PWM_DEFAULT_COMPARE2_MODE |
 120:.\Generated_Source\PSoC5/SERVO_PWM.c ****                                    SERVO_PWM_DEFAULT_COMPARE1_MODE;
 121:.\Generated_Source\PSoC5/SERVO_PWM.c ****     #endif /* (SERVO_PWM_UsingFixedFunction) */
 122:.\Generated_Source\PSoC5/SERVO_PWM.c **** 
 123:.\Generated_Source\PSoC5/SERVO_PWM.c ****     #if (!SERVO_PWM_UsingFixedFunction)
 124:.\Generated_Source\PSoC5/SERVO_PWM.c ****         #if (SERVO_PWM_Resolution == 8)
 125:.\Generated_Source\PSoC5/SERVO_PWM.c ****             /* Set FIFO 0 to 1 byte register for period*/
 126:.\Generated_Source\PSoC5/SERVO_PWM.c ****             SERVO_PWM_AUX_CONTROLDP0 |= (SERVO_PWM_AUX_CTRL_FIFO0_CLR);
 127:.\Generated_Source\PSoC5/SERVO_PWM.c ****         #else /* (SERVO_PWM_Resolution == 16)*/
 128:.\Generated_Source\PSoC5/SERVO_PWM.c ****             /* Set FIFO 0 to 1 byte register for period */
 129:.\Generated_Source\PSoC5/SERVO_PWM.c ****             SERVO_PWM_AUX_CONTROLDP0 |= (SERVO_PWM_AUX_CTRL_FIFO0_CLR);
 130:.\Generated_Source\PSoC5/SERVO_PWM.c ****             SERVO_PWM_AUX_CONTROLDP1 |= (SERVO_PWM_AUX_CTRL_FIFO0_CLR);
 131:.\Generated_Source\PSoC5/SERVO_PWM.c ****         #endif /* (SERVO_PWM_Resolution == 8) */
 132:.\Generated_Source\PSoC5/SERVO_PWM.c **** 
 133:.\Generated_Source\PSoC5/SERVO_PWM.c ****         SERVO_PWM_WriteCounter(SERVO_PWM_INIT_PERIOD_VALUE);
 134:.\Generated_Source\PSoC5/SERVO_PWM.c ****     #endif /* (!SERVO_PWM_UsingFixedFunction) */
 135:.\Generated_Source\PSoC5/SERVO_PWM.c **** 
 136:.\Generated_Source\PSoC5/SERVO_PWM.c ****     SERVO_PWM_WritePeriod(SERVO_PWM_INIT_PERIOD_VALUE);
 137:.\Generated_Source\PSoC5/SERVO_PWM.c **** 
 138:.\Generated_Source\PSoC5/SERVO_PWM.c ****         #if (SERVO_PWM_UseOneCompareMode)
 139:.\Generated_Source\PSoC5/SERVO_PWM.c ****             SERVO_PWM_WriteCompare(SERVO_PWM_INIT_COMPARE_VALUE1);
 140:.\Generated_Source\PSoC5/SERVO_PWM.c ****         #else
 141:.\Generated_Source\PSoC5/SERVO_PWM.c ****             SERVO_PWM_WriteCompare1(SERVO_PWM_INIT_COMPARE_VALUE1);
 142:.\Generated_Source\PSoC5/SERVO_PWM.c ****             SERVO_PWM_WriteCompare2(SERVO_PWM_INIT_COMPARE_VALUE2);
 143:.\Generated_Source\PSoC5/SERVO_PWM.c ****         #endif /* (SERVO_PWM_UseOneCompareMode) */
 144:.\Generated_Source\PSoC5/SERVO_PWM.c **** 
 145:.\Generated_Source\PSoC5/SERVO_PWM.c ****         #if (SERVO_PWM_KillModeMinTime)
ARM GAS  C:\Users\mitchell\AppData\Local\Temp\cc7lDLtl.s 			page 4


 146:.\Generated_Source\PSoC5/SERVO_PWM.c ****             SERVO_PWM_WriteKillTime(SERVO_PWM_MinimumKillTime);
 147:.\Generated_Source\PSoC5/SERVO_PWM.c ****         #endif /* (SERVO_PWM_KillModeMinTime) */
 148:.\Generated_Source\PSoC5/SERVO_PWM.c **** 
 149:.\Generated_Source\PSoC5/SERVO_PWM.c ****         #if (SERVO_PWM_DeadBandUsed)
 150:.\Generated_Source\PSoC5/SERVO_PWM.c ****             SERVO_PWM_WriteDeadTime(SERVO_PWM_INIT_DEAD_TIME);
 151:.\Generated_Source\PSoC5/SERVO_PWM.c ****         #endif /* (SERVO_PWM_DeadBandUsed) */
 152:.\Generated_Source\PSoC5/SERVO_PWM.c **** 
 153:.\Generated_Source\PSoC5/SERVO_PWM.c ****     #if (SERVO_PWM_UseStatus || SERVO_PWM_UsingFixedFunction)
 154:.\Generated_Source\PSoC5/SERVO_PWM.c ****         SERVO_PWM_SetInterruptMode(SERVO_PWM_INIT_INTERRUPTS_MODE);
 155:.\Generated_Source\PSoC5/SERVO_PWM.c ****     #endif /* (SERVO_PWM_UseStatus || SERVO_PWM_UsingFixedFunction) */
 156:.\Generated_Source\PSoC5/SERVO_PWM.c **** 
 157:.\Generated_Source\PSoC5/SERVO_PWM.c ****     #if (SERVO_PWM_UsingFixedFunction)
 158:.\Generated_Source\PSoC5/SERVO_PWM.c ****         /* Globally Enable the Fixed Function Block chosen */
 159:.\Generated_Source\PSoC5/SERVO_PWM.c ****         SERVO_PWM_GLOBAL_ENABLE |= SERVO_PWM_BLOCK_EN_MASK;
 160:.\Generated_Source\PSoC5/SERVO_PWM.c ****         /* Set the Interrupt source to come from the status register */
 161:.\Generated_Source\PSoC5/SERVO_PWM.c ****         SERVO_PWM_CONTROL2 |= SERVO_PWM_CTRL2_IRQ_SEL;
 162:.\Generated_Source\PSoC5/SERVO_PWM.c ****     #else
 163:.\Generated_Source\PSoC5/SERVO_PWM.c ****         #if(SERVO_PWM_UseStatus)
 164:.\Generated_Source\PSoC5/SERVO_PWM.c **** 
 165:.\Generated_Source\PSoC5/SERVO_PWM.c ****             /* CyEnterCriticalRegion and CyExitCriticalRegion are used to mark following region cri
 166:.\Generated_Source\PSoC5/SERVO_PWM.c ****             /* Enter Critical Region*/
 167:.\Generated_Source\PSoC5/SERVO_PWM.c ****             SERVO_PWM_interruptState = CyEnterCriticalSection();
 168:.\Generated_Source\PSoC5/SERVO_PWM.c ****             /* Use the interrupt output of the status register for IRQ output */
 169:.\Generated_Source\PSoC5/SERVO_PWM.c ****             SERVO_PWM_STATUS_AUX_CTRL |= SERVO_PWM_STATUS_ACTL_INT_EN_MASK;
 170:.\Generated_Source\PSoC5/SERVO_PWM.c **** 
 171:.\Generated_Source\PSoC5/SERVO_PWM.c ****              /* Exit Critical Region*/
 172:.\Generated_Source\PSoC5/SERVO_PWM.c ****             CyExitCriticalSection(SERVO_PWM_interruptState);
 173:.\Generated_Source\PSoC5/SERVO_PWM.c **** 
 174:.\Generated_Source\PSoC5/SERVO_PWM.c ****             /* Clear the FIFO to enable the SERVO_PWM_STATUS_FIFOFULL
 175:.\Generated_Source\PSoC5/SERVO_PWM.c ****                    bit to be set on FIFO full. */
 176:.\Generated_Source\PSoC5/SERVO_PWM.c ****             SERVO_PWM_ClearFIFO();
 177:.\Generated_Source\PSoC5/SERVO_PWM.c ****         #endif /* (SERVO_PWM_UseStatus) */
 178:.\Generated_Source\PSoC5/SERVO_PWM.c ****     #endif /* (SERVO_PWM_UsingFixedFunction) */
 179:.\Generated_Source\PSoC5/SERVO_PWM.c **** }
 180:.\Generated_Source\PSoC5/SERVO_PWM.c **** 
 181:.\Generated_Source\PSoC5/SERVO_PWM.c **** 
 182:.\Generated_Source\PSoC5/SERVO_PWM.c **** /*******************************************************************************
 183:.\Generated_Source\PSoC5/SERVO_PWM.c **** * Function Name: SERVO_PWM_Enable
 184:.\Generated_Source\PSoC5/SERVO_PWM.c **** ********************************************************************************
 185:.\Generated_Source\PSoC5/SERVO_PWM.c **** *
 186:.\Generated_Source\PSoC5/SERVO_PWM.c **** * Summary:
 187:.\Generated_Source\PSoC5/SERVO_PWM.c **** *  Enables the PWM block operation
 188:.\Generated_Source\PSoC5/SERVO_PWM.c **** *
 189:.\Generated_Source\PSoC5/SERVO_PWM.c **** * Parameters:
 190:.\Generated_Source\PSoC5/SERVO_PWM.c **** *  None
 191:.\Generated_Source\PSoC5/SERVO_PWM.c **** *
 192:.\Generated_Source\PSoC5/SERVO_PWM.c **** * Return:
 193:.\Generated_Source\PSoC5/SERVO_PWM.c **** *  None
 194:.\Generated_Source\PSoC5/SERVO_PWM.c **** *
 195:.\Generated_Source\PSoC5/SERVO_PWM.c **** * Side Effects:
 196:.\Generated_Source\PSoC5/SERVO_PWM.c **** *  This works only if software enable mode is chosen
 197:.\Generated_Source\PSoC5/SERVO_PWM.c **** *
 198:.\Generated_Source\PSoC5/SERVO_PWM.c **** *******************************************************************************/
 199:.\Generated_Source\PSoC5/SERVO_PWM.c **** void SERVO_PWM_Enable(void) 
 200:.\Generated_Source\PSoC5/SERVO_PWM.c **** {
  27              		.loc 1 200 0
  28              		.cfi_startproc
ARM GAS  C:\Users\mitchell\AppData\Local\Temp\cc7lDLtl.s 			page 5


  29              		@ args = 0, pretend = 0, frame = 0
  30              		@ frame_needed = 0, uses_anonymous_args = 0
  31              		@ link register save eliminated.
 201:.\Generated_Source\PSoC5/SERVO_PWM.c ****     /* Globally Enable the Fixed Function Block chosen */
 202:.\Generated_Source\PSoC5/SERVO_PWM.c ****     #if (SERVO_PWM_UsingFixedFunction)
 203:.\Generated_Source\PSoC5/SERVO_PWM.c ****         SERVO_PWM_GLOBAL_ENABLE |= SERVO_PWM_BLOCK_EN_MASK;
 204:.\Generated_Source\PSoC5/SERVO_PWM.c ****         SERVO_PWM_GLOBAL_STBY_ENABLE |= SERVO_PWM_BLOCK_STBY_EN_MASK;
 205:.\Generated_Source\PSoC5/SERVO_PWM.c ****     #endif /* (SERVO_PWM_UsingFixedFunction) */
 206:.\Generated_Source\PSoC5/SERVO_PWM.c **** 
 207:.\Generated_Source\PSoC5/SERVO_PWM.c ****     /* Enable the PWM from the control register  */
 208:.\Generated_Source\PSoC5/SERVO_PWM.c ****     #if (SERVO_PWM_UseControl || SERVO_PWM_UsingFixedFunction)
 209:.\Generated_Source\PSoC5/SERVO_PWM.c ****         SERVO_PWM_CONTROL |= SERVO_PWM_CTRL_ENABLE;
  32              		.loc 1 209 0
  33 0000 024B     		ldr	r3, .L2
  34 0002 1A78     		ldrb	r2, [r3]	@ zero_extendqisi2
  35 0004 42F08002 		orr	r2, r2, #128
  36 0008 1A70     		strb	r2, [r3]
  37 000a 7047     		bx	lr
  38              	.L3:
  39              		.align	2
  40              	.L2:
  41 000c 70640040 		.word	1073767536
  42              		.cfi_endproc
  43              	.LFE2:
  44              		.size	SERVO_PWM_Enable, .-SERVO_PWM_Enable
  45              		.section	.text.SERVO_PWM_Stop,"ax",%progbits
  46              		.align	2
  47              		.global	SERVO_PWM_Stop
  48              		.thumb
  49              		.thumb_func
  50              		.type	SERVO_PWM_Stop, %function
  51              	SERVO_PWM_Stop:
  52              	.LFB3:
 210:.\Generated_Source\PSoC5/SERVO_PWM.c ****     #endif /* (SERVO_PWM_UseControl || SERVO_PWM_UsingFixedFunction) */
 211:.\Generated_Source\PSoC5/SERVO_PWM.c **** }
 212:.\Generated_Source\PSoC5/SERVO_PWM.c **** 
 213:.\Generated_Source\PSoC5/SERVO_PWM.c **** 
 214:.\Generated_Source\PSoC5/SERVO_PWM.c **** /*******************************************************************************
 215:.\Generated_Source\PSoC5/SERVO_PWM.c **** * Function Name: SERVO_PWM_Stop
 216:.\Generated_Source\PSoC5/SERVO_PWM.c **** ********************************************************************************
 217:.\Generated_Source\PSoC5/SERVO_PWM.c **** *
 218:.\Generated_Source\PSoC5/SERVO_PWM.c **** * Summary:
 219:.\Generated_Source\PSoC5/SERVO_PWM.c **** *  The stop function halts the PWM, but does not change any modes or disable
 220:.\Generated_Source\PSoC5/SERVO_PWM.c **** *  interrupts.
 221:.\Generated_Source\PSoC5/SERVO_PWM.c **** *
 222:.\Generated_Source\PSoC5/SERVO_PWM.c **** * Parameters:
 223:.\Generated_Source\PSoC5/SERVO_PWM.c **** *  None
 224:.\Generated_Source\PSoC5/SERVO_PWM.c **** *
 225:.\Generated_Source\PSoC5/SERVO_PWM.c **** * Return:
 226:.\Generated_Source\PSoC5/SERVO_PWM.c **** *  None
 227:.\Generated_Source\PSoC5/SERVO_PWM.c **** *
 228:.\Generated_Source\PSoC5/SERVO_PWM.c **** * Side Effects:
 229:.\Generated_Source\PSoC5/SERVO_PWM.c **** *  If the Enable mode is set to Hardware only then this function
 230:.\Generated_Source\PSoC5/SERVO_PWM.c **** *  has no effect on the operation of the PWM
 231:.\Generated_Source\PSoC5/SERVO_PWM.c **** *
 232:.\Generated_Source\PSoC5/SERVO_PWM.c **** *******************************************************************************/
 233:.\Generated_Source\PSoC5/SERVO_PWM.c **** void SERVO_PWM_Stop(void) 
ARM GAS  C:\Users\mitchell\AppData\Local\Temp\cc7lDLtl.s 			page 6


 234:.\Generated_Source\PSoC5/SERVO_PWM.c **** {
  53              		.loc 1 234 0
  54              		.cfi_startproc
  55              		@ args = 0, pretend = 0, frame = 0
  56              		@ frame_needed = 0, uses_anonymous_args = 0
  57              		@ link register save eliminated.
 235:.\Generated_Source\PSoC5/SERVO_PWM.c ****     #if (SERVO_PWM_UseControl || SERVO_PWM_UsingFixedFunction)
 236:.\Generated_Source\PSoC5/SERVO_PWM.c ****         SERVO_PWM_CONTROL &= ((uint8)(~SERVO_PWM_CTRL_ENABLE));
  58              		.loc 1 236 0
  59 0000 024B     		ldr	r3, .L5
  60 0002 1A78     		ldrb	r2, [r3]	@ zero_extendqisi2
  61 0004 02F07F02 		and	r2, r2, #127
  62 0008 1A70     		strb	r2, [r3]
  63 000a 7047     		bx	lr
  64              	.L6:
  65              		.align	2
  66              	.L5:
  67 000c 70640040 		.word	1073767536
  68              		.cfi_endproc
  69              	.LFE3:
  70              		.size	SERVO_PWM_Stop, .-SERVO_PWM_Stop
  71              		.section	.text.SERVO_PWM_WriteCounter,"ax",%progbits
  72              		.align	2
  73              		.global	SERVO_PWM_WriteCounter
  74              		.thumb
  75              		.thumb_func
  76              		.type	SERVO_PWM_WriteCounter, %function
  77              	SERVO_PWM_WriteCounter:
  78              	.LFB4:
 237:.\Generated_Source\PSoC5/SERVO_PWM.c ****     #endif /* (SERVO_PWM_UseControl || SERVO_PWM_UsingFixedFunction) */
 238:.\Generated_Source\PSoC5/SERVO_PWM.c **** 
 239:.\Generated_Source\PSoC5/SERVO_PWM.c ****     /* Globally disable the Fixed Function Block chosen */
 240:.\Generated_Source\PSoC5/SERVO_PWM.c ****     #if (SERVO_PWM_UsingFixedFunction)
 241:.\Generated_Source\PSoC5/SERVO_PWM.c ****         SERVO_PWM_GLOBAL_ENABLE &= ((uint8)(~SERVO_PWM_BLOCK_EN_MASK));
 242:.\Generated_Source\PSoC5/SERVO_PWM.c ****         SERVO_PWM_GLOBAL_STBY_ENABLE &= ((uint8)(~SERVO_PWM_BLOCK_STBY_EN_MASK));
 243:.\Generated_Source\PSoC5/SERVO_PWM.c ****     #endif /* (SERVO_PWM_UsingFixedFunction) */
 244:.\Generated_Source\PSoC5/SERVO_PWM.c **** }
 245:.\Generated_Source\PSoC5/SERVO_PWM.c **** 
 246:.\Generated_Source\PSoC5/SERVO_PWM.c **** #if (SERVO_PWM_UseOneCompareMode)
 247:.\Generated_Source\PSoC5/SERVO_PWM.c ****     #if (SERVO_PWM_CompareMode1SW)
 248:.\Generated_Source\PSoC5/SERVO_PWM.c **** 
 249:.\Generated_Source\PSoC5/SERVO_PWM.c **** 
 250:.\Generated_Source\PSoC5/SERVO_PWM.c ****         /*******************************************************************************
 251:.\Generated_Source\PSoC5/SERVO_PWM.c ****         * Function Name: SERVO_PWM_SetCompareMode
 252:.\Generated_Source\PSoC5/SERVO_PWM.c ****         ********************************************************************************
 253:.\Generated_Source\PSoC5/SERVO_PWM.c ****         *
 254:.\Generated_Source\PSoC5/SERVO_PWM.c ****         * Summary:
 255:.\Generated_Source\PSoC5/SERVO_PWM.c ****         *  This function writes the Compare Mode for the pwm output when in Dither mode,
 256:.\Generated_Source\PSoC5/SERVO_PWM.c ****         *  Center Align Mode or One Output Mode.
 257:.\Generated_Source\PSoC5/SERVO_PWM.c ****         *
 258:.\Generated_Source\PSoC5/SERVO_PWM.c ****         * Parameters:
 259:.\Generated_Source\PSoC5/SERVO_PWM.c ****         *  comparemode:  The new compare mode for the PWM output. Use the compare types
 260:.\Generated_Source\PSoC5/SERVO_PWM.c ****         *                defined in the H file as input arguments.
 261:.\Generated_Source\PSoC5/SERVO_PWM.c ****         *
 262:.\Generated_Source\PSoC5/SERVO_PWM.c ****         * Return:
 263:.\Generated_Source\PSoC5/SERVO_PWM.c ****         *  None
 264:.\Generated_Source\PSoC5/SERVO_PWM.c ****         *
ARM GAS  C:\Users\mitchell\AppData\Local\Temp\cc7lDLtl.s 			page 7


 265:.\Generated_Source\PSoC5/SERVO_PWM.c ****         *******************************************************************************/
 266:.\Generated_Source\PSoC5/SERVO_PWM.c ****         void SERVO_PWM_SetCompareMode(uint8 comparemode) 
 267:.\Generated_Source\PSoC5/SERVO_PWM.c ****         {
 268:.\Generated_Source\PSoC5/SERVO_PWM.c ****             #if(SERVO_PWM_UsingFixedFunction)
 269:.\Generated_Source\PSoC5/SERVO_PWM.c **** 
 270:.\Generated_Source\PSoC5/SERVO_PWM.c ****                 #if(0 != SERVO_PWM_CTRL_CMPMODE1_SHIFT)
 271:.\Generated_Source\PSoC5/SERVO_PWM.c ****                     uint8 comparemodemasked = ((uint8)((uint8)comparemode << SERVO_PWM_CTRL_CMPMODE
 272:.\Generated_Source\PSoC5/SERVO_PWM.c ****                 #else
 273:.\Generated_Source\PSoC5/SERVO_PWM.c ****                     uint8 comparemodemasked = comparemode;
 274:.\Generated_Source\PSoC5/SERVO_PWM.c ****                 #endif /* (0 != SERVO_PWM_CTRL_CMPMODE1_SHIFT) */
 275:.\Generated_Source\PSoC5/SERVO_PWM.c **** 
 276:.\Generated_Source\PSoC5/SERVO_PWM.c ****                 SERVO_PWM_CONTROL3 &= ((uint8)(~SERVO_PWM_CTRL_CMPMODE1_MASK)); /*Clear Existing Da
 277:.\Generated_Source\PSoC5/SERVO_PWM.c ****                 SERVO_PWM_CONTROL3 |= comparemodemasked;
 278:.\Generated_Source\PSoC5/SERVO_PWM.c **** 
 279:.\Generated_Source\PSoC5/SERVO_PWM.c ****             #elif (SERVO_PWM_UseControl)
 280:.\Generated_Source\PSoC5/SERVO_PWM.c **** 
 281:.\Generated_Source\PSoC5/SERVO_PWM.c ****                 #if(0 != SERVO_PWM_CTRL_CMPMODE1_SHIFT)
 282:.\Generated_Source\PSoC5/SERVO_PWM.c ****                     uint8 comparemode1masked = ((uint8)((uint8)comparemode << SERVO_PWM_CTRL_CMPMOD
 283:.\Generated_Source\PSoC5/SERVO_PWM.c ****                                                 SERVO_PWM_CTRL_CMPMODE1_MASK;
 284:.\Generated_Source\PSoC5/SERVO_PWM.c ****                 #else
 285:.\Generated_Source\PSoC5/SERVO_PWM.c ****                     uint8 comparemode1masked = comparemode & SERVO_PWM_CTRL_CMPMODE1_MASK;
 286:.\Generated_Source\PSoC5/SERVO_PWM.c ****                 #endif /* (0 != SERVO_PWM_CTRL_CMPMODE1_SHIFT) */
 287:.\Generated_Source\PSoC5/SERVO_PWM.c **** 
 288:.\Generated_Source\PSoC5/SERVO_PWM.c ****                 #if(0 != SERVO_PWM_CTRL_CMPMODE2_SHIFT)
 289:.\Generated_Source\PSoC5/SERVO_PWM.c ****                     uint8 comparemode2masked = ((uint8)((uint8)comparemode << SERVO_PWM_CTRL_CMPMOD
 290:.\Generated_Source\PSoC5/SERVO_PWM.c ****                                                SERVO_PWM_CTRL_CMPMODE2_MASK;
 291:.\Generated_Source\PSoC5/SERVO_PWM.c ****                 #else
 292:.\Generated_Source\PSoC5/SERVO_PWM.c ****                     uint8 comparemode2masked = comparemode & SERVO_PWM_CTRL_CMPMODE2_MASK;
 293:.\Generated_Source\PSoC5/SERVO_PWM.c ****                 #endif /* (0 != SERVO_PWM_CTRL_CMPMODE2_SHIFT) */
 294:.\Generated_Source\PSoC5/SERVO_PWM.c **** 
 295:.\Generated_Source\PSoC5/SERVO_PWM.c ****                 /*Clear existing mode */
 296:.\Generated_Source\PSoC5/SERVO_PWM.c ****                 SERVO_PWM_CONTROL &= ((uint8)(~(SERVO_PWM_CTRL_CMPMODE1_MASK |
 297:.\Generated_Source\PSoC5/SERVO_PWM.c ****                                             SERVO_PWM_CTRL_CMPMODE2_MASK)));
 298:.\Generated_Source\PSoC5/SERVO_PWM.c ****                 SERVO_PWM_CONTROL |= (comparemode1masked | comparemode2masked);
 299:.\Generated_Source\PSoC5/SERVO_PWM.c **** 
 300:.\Generated_Source\PSoC5/SERVO_PWM.c ****             #else
 301:.\Generated_Source\PSoC5/SERVO_PWM.c ****                 uint8 temp = comparemode;
 302:.\Generated_Source\PSoC5/SERVO_PWM.c ****             #endif /* (SERVO_PWM_UsingFixedFunction) */
 303:.\Generated_Source\PSoC5/SERVO_PWM.c ****         }
 304:.\Generated_Source\PSoC5/SERVO_PWM.c ****     #endif /* SERVO_PWM_CompareMode1SW */
 305:.\Generated_Source\PSoC5/SERVO_PWM.c **** 
 306:.\Generated_Source\PSoC5/SERVO_PWM.c **** #else /* UseOneCompareMode */
 307:.\Generated_Source\PSoC5/SERVO_PWM.c **** 
 308:.\Generated_Source\PSoC5/SERVO_PWM.c ****     #if (SERVO_PWM_CompareMode1SW)
 309:.\Generated_Source\PSoC5/SERVO_PWM.c **** 
 310:.\Generated_Source\PSoC5/SERVO_PWM.c **** 
 311:.\Generated_Source\PSoC5/SERVO_PWM.c ****         /*******************************************************************************
 312:.\Generated_Source\PSoC5/SERVO_PWM.c ****         * Function Name: SERVO_PWM_SetCompareMode1
 313:.\Generated_Source\PSoC5/SERVO_PWM.c ****         ********************************************************************************
 314:.\Generated_Source\PSoC5/SERVO_PWM.c ****         *
 315:.\Generated_Source\PSoC5/SERVO_PWM.c ****         * Summary:
 316:.\Generated_Source\PSoC5/SERVO_PWM.c ****         *  This function writes the Compare Mode for the pwm or pwm1 output
 317:.\Generated_Source\PSoC5/SERVO_PWM.c ****         *
 318:.\Generated_Source\PSoC5/SERVO_PWM.c ****         * Parameters:
 319:.\Generated_Source\PSoC5/SERVO_PWM.c ****         *  comparemode:  The new compare mode for the PWM output. Use the compare types
 320:.\Generated_Source\PSoC5/SERVO_PWM.c ****         *                defined in the H file as input arguments.
 321:.\Generated_Source\PSoC5/SERVO_PWM.c ****         *
ARM GAS  C:\Users\mitchell\AppData\Local\Temp\cc7lDLtl.s 			page 8


 322:.\Generated_Source\PSoC5/SERVO_PWM.c ****         * Return:
 323:.\Generated_Source\PSoC5/SERVO_PWM.c ****         *  None
 324:.\Generated_Source\PSoC5/SERVO_PWM.c ****         *
 325:.\Generated_Source\PSoC5/SERVO_PWM.c ****         *******************************************************************************/
 326:.\Generated_Source\PSoC5/SERVO_PWM.c ****         void SERVO_PWM_SetCompareMode1(uint8 comparemode) 
 327:.\Generated_Source\PSoC5/SERVO_PWM.c ****         {
 328:.\Generated_Source\PSoC5/SERVO_PWM.c ****             #if(0 != SERVO_PWM_CTRL_CMPMODE1_SHIFT)
 329:.\Generated_Source\PSoC5/SERVO_PWM.c ****                 uint8 comparemodemasked = ((uint8)((uint8)comparemode << SERVO_PWM_CTRL_CMPMODE1_SH
 330:.\Generated_Source\PSoC5/SERVO_PWM.c ****                                            SERVO_PWM_CTRL_CMPMODE1_MASK;
 331:.\Generated_Source\PSoC5/SERVO_PWM.c ****             #else
 332:.\Generated_Source\PSoC5/SERVO_PWM.c ****                 uint8 comparemodemasked = comparemode & SERVO_PWM_CTRL_CMPMODE1_MASK;
 333:.\Generated_Source\PSoC5/SERVO_PWM.c ****             #endif /* (0 != SERVO_PWM_CTRL_CMPMODE1_SHIFT) */
 334:.\Generated_Source\PSoC5/SERVO_PWM.c **** 
 335:.\Generated_Source\PSoC5/SERVO_PWM.c ****             #if (SERVO_PWM_UseControl)
 336:.\Generated_Source\PSoC5/SERVO_PWM.c ****                 SERVO_PWM_CONTROL &= ((uint8)(~SERVO_PWM_CTRL_CMPMODE1_MASK)); /*Clear existing mod
 337:.\Generated_Source\PSoC5/SERVO_PWM.c ****                 SERVO_PWM_CONTROL |= comparemodemasked;
 338:.\Generated_Source\PSoC5/SERVO_PWM.c ****             #endif /* (SERVO_PWM_UseControl) */
 339:.\Generated_Source\PSoC5/SERVO_PWM.c ****         }
 340:.\Generated_Source\PSoC5/SERVO_PWM.c ****     #endif /* SERVO_PWM_CompareMode1SW */
 341:.\Generated_Source\PSoC5/SERVO_PWM.c **** 
 342:.\Generated_Source\PSoC5/SERVO_PWM.c **** #if (SERVO_PWM_CompareMode2SW)
 343:.\Generated_Source\PSoC5/SERVO_PWM.c **** 
 344:.\Generated_Source\PSoC5/SERVO_PWM.c **** 
 345:.\Generated_Source\PSoC5/SERVO_PWM.c ****     /*******************************************************************************
 346:.\Generated_Source\PSoC5/SERVO_PWM.c ****     * Function Name: SERVO_PWM_SetCompareMode2
 347:.\Generated_Source\PSoC5/SERVO_PWM.c ****     ********************************************************************************
 348:.\Generated_Source\PSoC5/SERVO_PWM.c ****     *
 349:.\Generated_Source\PSoC5/SERVO_PWM.c ****     * Summary:
 350:.\Generated_Source\PSoC5/SERVO_PWM.c ****     *  This function writes the Compare Mode for the pwm or pwm2 output
 351:.\Generated_Source\PSoC5/SERVO_PWM.c ****     *
 352:.\Generated_Source\PSoC5/SERVO_PWM.c ****     * Parameters:
 353:.\Generated_Source\PSoC5/SERVO_PWM.c ****     *  comparemode:  The new compare mode for the PWM output. Use the compare types
 354:.\Generated_Source\PSoC5/SERVO_PWM.c ****     *                defined in the H file as input arguments.
 355:.\Generated_Source\PSoC5/SERVO_PWM.c ****     *
 356:.\Generated_Source\PSoC5/SERVO_PWM.c ****     * Return:
 357:.\Generated_Source\PSoC5/SERVO_PWM.c ****     *  None
 358:.\Generated_Source\PSoC5/SERVO_PWM.c ****     *
 359:.\Generated_Source\PSoC5/SERVO_PWM.c ****     *******************************************************************************/
 360:.\Generated_Source\PSoC5/SERVO_PWM.c ****     void SERVO_PWM_SetCompareMode2(uint8 comparemode) 
 361:.\Generated_Source\PSoC5/SERVO_PWM.c ****     {
 362:.\Generated_Source\PSoC5/SERVO_PWM.c **** 
 363:.\Generated_Source\PSoC5/SERVO_PWM.c ****         #if(0 != SERVO_PWM_CTRL_CMPMODE2_SHIFT)
 364:.\Generated_Source\PSoC5/SERVO_PWM.c ****             uint8 comparemodemasked = ((uint8)((uint8)comparemode << SERVO_PWM_CTRL_CMPMODE2_SHIFT)
 365:.\Generated_Source\PSoC5/SERVO_PWM.c ****                                                  SERVO_PWM_CTRL_CMPMODE2_MASK;
 366:.\Generated_Source\PSoC5/SERVO_PWM.c ****         #else
 367:.\Generated_Source\PSoC5/SERVO_PWM.c ****             uint8 comparemodemasked = comparemode & SERVO_PWM_CTRL_CMPMODE2_MASK;
 368:.\Generated_Source\PSoC5/SERVO_PWM.c ****         #endif /* (0 != SERVO_PWM_CTRL_CMPMODE2_SHIFT) */
 369:.\Generated_Source\PSoC5/SERVO_PWM.c **** 
 370:.\Generated_Source\PSoC5/SERVO_PWM.c ****         #if (SERVO_PWM_UseControl)
 371:.\Generated_Source\PSoC5/SERVO_PWM.c ****             SERVO_PWM_CONTROL &= ((uint8)(~SERVO_PWM_CTRL_CMPMODE2_MASK)); /*Clear existing mode */
 372:.\Generated_Source\PSoC5/SERVO_PWM.c ****             SERVO_PWM_CONTROL |= comparemodemasked;
 373:.\Generated_Source\PSoC5/SERVO_PWM.c ****         #endif /* (SERVO_PWM_UseControl) */
 374:.\Generated_Source\PSoC5/SERVO_PWM.c ****     }
 375:.\Generated_Source\PSoC5/SERVO_PWM.c ****     #endif /*SERVO_PWM_CompareMode2SW */
 376:.\Generated_Source\PSoC5/SERVO_PWM.c **** 
 377:.\Generated_Source\PSoC5/SERVO_PWM.c **** #endif /* UseOneCompareMode */
 378:.\Generated_Source\PSoC5/SERVO_PWM.c **** 
ARM GAS  C:\Users\mitchell\AppData\Local\Temp\cc7lDLtl.s 			page 9


 379:.\Generated_Source\PSoC5/SERVO_PWM.c **** 
 380:.\Generated_Source\PSoC5/SERVO_PWM.c **** #if (!SERVO_PWM_UsingFixedFunction)
 381:.\Generated_Source\PSoC5/SERVO_PWM.c **** 
 382:.\Generated_Source\PSoC5/SERVO_PWM.c **** 
 383:.\Generated_Source\PSoC5/SERVO_PWM.c ****     /*******************************************************************************
 384:.\Generated_Source\PSoC5/SERVO_PWM.c ****     * Function Name: SERVO_PWM_WriteCounter
 385:.\Generated_Source\PSoC5/SERVO_PWM.c ****     ********************************************************************************
 386:.\Generated_Source\PSoC5/SERVO_PWM.c ****     *
 387:.\Generated_Source\PSoC5/SERVO_PWM.c ****     * Summary:
 388:.\Generated_Source\PSoC5/SERVO_PWM.c ****     *  Writes a new counter value directly to the counter register. This will be
 389:.\Generated_Source\PSoC5/SERVO_PWM.c ****     *  implemented for that currently running period and only that period. This API
 390:.\Generated_Source\PSoC5/SERVO_PWM.c ****     *  is valid only for UDB implementation and not available for fixed function
 391:.\Generated_Source\PSoC5/SERVO_PWM.c ****     *  PWM implementation.
 392:.\Generated_Source\PSoC5/SERVO_PWM.c ****     *
 393:.\Generated_Source\PSoC5/SERVO_PWM.c ****     * Parameters:
 394:.\Generated_Source\PSoC5/SERVO_PWM.c ****     *  counter:  The period new period counter value.
 395:.\Generated_Source\PSoC5/SERVO_PWM.c ****     *
 396:.\Generated_Source\PSoC5/SERVO_PWM.c ****     * Return:
 397:.\Generated_Source\PSoC5/SERVO_PWM.c ****     *  None
 398:.\Generated_Source\PSoC5/SERVO_PWM.c ****     *
 399:.\Generated_Source\PSoC5/SERVO_PWM.c ****     * Side Effects:
 400:.\Generated_Source\PSoC5/SERVO_PWM.c ****     *  The PWM Period will be reloaded when a counter value will be a zero
 401:.\Generated_Source\PSoC5/SERVO_PWM.c ****     *
 402:.\Generated_Source\PSoC5/SERVO_PWM.c ****     *******************************************************************************/
 403:.\Generated_Source\PSoC5/SERVO_PWM.c ****     void SERVO_PWM_WriteCounter(uint8 counter) \
 404:.\Generated_Source\PSoC5/SERVO_PWM.c ****                                        
 405:.\Generated_Source\PSoC5/SERVO_PWM.c ****     {
  79              		.loc 1 405 0
  80              		.cfi_startproc
  81              		@ args = 0, pretend = 0, frame = 0
  82              		@ frame_needed = 0, uses_anonymous_args = 0
  83              		@ link register save eliminated.
  84              	.LVL0:
 406:.\Generated_Source\PSoC5/SERVO_PWM.c ****         CY_SET_REG8(SERVO_PWM_COUNTER_LSB_PTR, counter);
  85              		.loc 1 406 0
  86 0000 014B     		ldr	r3, .L8
  87 0002 1870     		strb	r0, [r3]
  88 0004 7047     		bx	lr
  89              	.L9:
  90 0006 00BF     		.align	2
  91              	.L8:
  92 0008 00640040 		.word	1073767424
  93              		.cfi_endproc
  94              	.LFE4:
  95              		.size	SERVO_PWM_WriteCounter, .-SERVO_PWM_WriteCounter
  96              		.section	.text.SERVO_PWM_ReadCounter,"ax",%progbits
  97              		.align	2
  98              		.global	SERVO_PWM_ReadCounter
  99              		.thumb
 100              		.thumb_func
 101              		.type	SERVO_PWM_ReadCounter, %function
 102              	SERVO_PWM_ReadCounter:
 103              	.LFB5:
 407:.\Generated_Source\PSoC5/SERVO_PWM.c ****     }
 408:.\Generated_Source\PSoC5/SERVO_PWM.c **** 
 409:.\Generated_Source\PSoC5/SERVO_PWM.c **** 
 410:.\Generated_Source\PSoC5/SERVO_PWM.c ****     /*******************************************************************************
ARM GAS  C:\Users\mitchell\AppData\Local\Temp\cc7lDLtl.s 			page 10


 411:.\Generated_Source\PSoC5/SERVO_PWM.c ****     * Function Name: SERVO_PWM_ReadCounter
 412:.\Generated_Source\PSoC5/SERVO_PWM.c ****     ********************************************************************************
 413:.\Generated_Source\PSoC5/SERVO_PWM.c ****     *
 414:.\Generated_Source\PSoC5/SERVO_PWM.c ****     * Summary:
 415:.\Generated_Source\PSoC5/SERVO_PWM.c ****     *  This function returns the current value of the counter.  It doesn't matter
 416:.\Generated_Source\PSoC5/SERVO_PWM.c ****     *  if the counter is enabled or running.
 417:.\Generated_Source\PSoC5/SERVO_PWM.c ****     *
 418:.\Generated_Source\PSoC5/SERVO_PWM.c ****     * Parameters:
 419:.\Generated_Source\PSoC5/SERVO_PWM.c ****     *  None
 420:.\Generated_Source\PSoC5/SERVO_PWM.c ****     *
 421:.\Generated_Source\PSoC5/SERVO_PWM.c ****     * Return:
 422:.\Generated_Source\PSoC5/SERVO_PWM.c ****     *  The current value of the counter.
 423:.\Generated_Source\PSoC5/SERVO_PWM.c ****     *
 424:.\Generated_Source\PSoC5/SERVO_PWM.c ****     *******************************************************************************/
 425:.\Generated_Source\PSoC5/SERVO_PWM.c ****     uint8 SERVO_PWM_ReadCounter(void) 
 426:.\Generated_Source\PSoC5/SERVO_PWM.c ****     {
 104              		.loc 1 426 0
 105              		.cfi_startproc
 106              		@ args = 0, pretend = 0, frame = 0
 107              		@ frame_needed = 0, uses_anonymous_args = 0
 108              		@ link register save eliminated.
 427:.\Generated_Source\PSoC5/SERVO_PWM.c ****         /* Force capture by reading Accumulator */
 428:.\Generated_Source\PSoC5/SERVO_PWM.c ****         /* Must first do a software capture to be able to read the counter */
 429:.\Generated_Source\PSoC5/SERVO_PWM.c ****         /* It is up to the user code to make sure there isn't already captured data in the FIFO */
 430:.\Generated_Source\PSoC5/SERVO_PWM.c ****           (void)CY_GET_REG8(SERVO_PWM_COUNTERCAP_LSB_PTR_8BIT);
 109              		.loc 1 430 0
 110 0000 024B     		ldr	r3, .L11
 111 0002 1B78     		ldrb	r3, [r3]	@ zero_extendqisi2
 431:.\Generated_Source\PSoC5/SERVO_PWM.c **** 
 432:.\Generated_Source\PSoC5/SERVO_PWM.c ****         /* Read the data from the FIFO */
 433:.\Generated_Source\PSoC5/SERVO_PWM.c ****         return (CY_GET_REG8(SERVO_PWM_CAPTURE_LSB_PTR));
 112              		.loc 1 433 0
 113 0004 024B     		ldr	r3, .L11+4
 114 0006 1878     		ldrb	r0, [r3]	@ zero_extendqisi2
 434:.\Generated_Source\PSoC5/SERVO_PWM.c ****     }
 115              		.loc 1 434 0
 116 0008 7047     		bx	lr
 117              	.L12:
 118 000a 00BF     		.align	2
 119              	.L11:
 120 000c 10640040 		.word	1073767440
 121 0010 50640040 		.word	1073767504
 122              		.cfi_endproc
 123              	.LFE5:
 124              		.size	SERVO_PWM_ReadCounter, .-SERVO_PWM_ReadCounter
 125              		.section	.text.SERVO_PWM_WritePeriod,"ax",%progbits
 126              		.align	2
 127              		.global	SERVO_PWM_WritePeriod
 128              		.thumb
 129              		.thumb_func
 130              		.type	SERVO_PWM_WritePeriod, %function
 131              	SERVO_PWM_WritePeriod:
 132              	.LFB7:
 435:.\Generated_Source\PSoC5/SERVO_PWM.c **** 
 436:.\Generated_Source\PSoC5/SERVO_PWM.c ****     #if (SERVO_PWM_UseStatus)
 437:.\Generated_Source\PSoC5/SERVO_PWM.c **** 
 438:.\Generated_Source\PSoC5/SERVO_PWM.c **** 
ARM GAS  C:\Users\mitchell\AppData\Local\Temp\cc7lDLtl.s 			page 11


 439:.\Generated_Source\PSoC5/SERVO_PWM.c ****         /*******************************************************************************
 440:.\Generated_Source\PSoC5/SERVO_PWM.c ****         * Function Name: SERVO_PWM_ClearFIFO
 441:.\Generated_Source\PSoC5/SERVO_PWM.c ****         ********************************************************************************
 442:.\Generated_Source\PSoC5/SERVO_PWM.c ****         *
 443:.\Generated_Source\PSoC5/SERVO_PWM.c ****         * Summary:
 444:.\Generated_Source\PSoC5/SERVO_PWM.c ****         *  This function clears all capture data from the capture FIFO
 445:.\Generated_Source\PSoC5/SERVO_PWM.c ****         *
 446:.\Generated_Source\PSoC5/SERVO_PWM.c ****         * Parameters:
 447:.\Generated_Source\PSoC5/SERVO_PWM.c ****         *  None
 448:.\Generated_Source\PSoC5/SERVO_PWM.c ****         *
 449:.\Generated_Source\PSoC5/SERVO_PWM.c ****         * Return:
 450:.\Generated_Source\PSoC5/SERVO_PWM.c ****         *  None
 451:.\Generated_Source\PSoC5/SERVO_PWM.c ****         *
 452:.\Generated_Source\PSoC5/SERVO_PWM.c ****         *******************************************************************************/
 453:.\Generated_Source\PSoC5/SERVO_PWM.c ****         void SERVO_PWM_ClearFIFO(void) 
 454:.\Generated_Source\PSoC5/SERVO_PWM.c ****         {
 455:.\Generated_Source\PSoC5/SERVO_PWM.c ****             while(0u != (SERVO_PWM_ReadStatusRegister() & SERVO_PWM_STATUS_FIFONEMPTY))
 456:.\Generated_Source\PSoC5/SERVO_PWM.c ****             {
 457:.\Generated_Source\PSoC5/SERVO_PWM.c ****                 (void)SERVO_PWM_ReadCapture();
 458:.\Generated_Source\PSoC5/SERVO_PWM.c ****             }
 459:.\Generated_Source\PSoC5/SERVO_PWM.c ****         }
 460:.\Generated_Source\PSoC5/SERVO_PWM.c **** 
 461:.\Generated_Source\PSoC5/SERVO_PWM.c ****     #endif /* SERVO_PWM_UseStatus */
 462:.\Generated_Source\PSoC5/SERVO_PWM.c **** 
 463:.\Generated_Source\PSoC5/SERVO_PWM.c **** #endif /* !SERVO_PWM_UsingFixedFunction */
 464:.\Generated_Source\PSoC5/SERVO_PWM.c **** 
 465:.\Generated_Source\PSoC5/SERVO_PWM.c **** 
 466:.\Generated_Source\PSoC5/SERVO_PWM.c **** /*******************************************************************************
 467:.\Generated_Source\PSoC5/SERVO_PWM.c **** * Function Name: SERVO_PWM_WritePeriod
 468:.\Generated_Source\PSoC5/SERVO_PWM.c **** ********************************************************************************
 469:.\Generated_Source\PSoC5/SERVO_PWM.c **** *
 470:.\Generated_Source\PSoC5/SERVO_PWM.c **** * Summary:
 471:.\Generated_Source\PSoC5/SERVO_PWM.c **** *  This function is used to change the period of the counter.  The new period
 472:.\Generated_Source\PSoC5/SERVO_PWM.c **** *  will be loaded the next time terminal count is detected.
 473:.\Generated_Source\PSoC5/SERVO_PWM.c **** *
 474:.\Generated_Source\PSoC5/SERVO_PWM.c **** * Parameters:
 475:.\Generated_Source\PSoC5/SERVO_PWM.c **** *  period:  Period value. May be between 1 and (2^Resolution)-1.  A value of 0
 476:.\Generated_Source\PSoC5/SERVO_PWM.c **** *           will result in the counter remaining at zero.
 477:.\Generated_Source\PSoC5/SERVO_PWM.c **** *
 478:.\Generated_Source\PSoC5/SERVO_PWM.c **** * Return:
 479:.\Generated_Source\PSoC5/SERVO_PWM.c **** *  None
 480:.\Generated_Source\PSoC5/SERVO_PWM.c **** *
 481:.\Generated_Source\PSoC5/SERVO_PWM.c **** *******************************************************************************/
 482:.\Generated_Source\PSoC5/SERVO_PWM.c **** void SERVO_PWM_WritePeriod(uint8 period) 
 483:.\Generated_Source\PSoC5/SERVO_PWM.c **** {
 133              		.loc 1 483 0
 134              		.cfi_startproc
 135              		@ args = 0, pretend = 0, frame = 0
 136              		@ frame_needed = 0, uses_anonymous_args = 0
 137              		@ link register save eliminated.
 138              	.LVL1:
 484:.\Generated_Source\PSoC5/SERVO_PWM.c ****     #if(SERVO_PWM_UsingFixedFunction)
 485:.\Generated_Source\PSoC5/SERVO_PWM.c ****         CY_SET_REG16(SERVO_PWM_PERIOD_LSB_PTR, (uint16)period);
 486:.\Generated_Source\PSoC5/SERVO_PWM.c ****     #else
 487:.\Generated_Source\PSoC5/SERVO_PWM.c ****         CY_SET_REG8(SERVO_PWM_PERIOD_LSB_PTR, period);
 139              		.loc 1 487 0
 140 0000 014B     		ldr	r3, .L14
ARM GAS  C:\Users\mitchell\AppData\Local\Temp\cc7lDLtl.s 			page 12


 141 0002 1870     		strb	r0, [r3]
 142 0004 7047     		bx	lr
 143              	.L15:
 144 0006 00BF     		.align	2
 145              	.L14:
 146 0008 30640040 		.word	1073767472
 147              		.cfi_endproc
 148              	.LFE7:
 149              		.size	SERVO_PWM_WritePeriod, .-SERVO_PWM_WritePeriod
 150              		.section	.text.SERVO_PWM_WriteCompare,"ax",%progbits
 151              		.align	2
 152              		.global	SERVO_PWM_WriteCompare
 153              		.thumb
 154              		.thumb_func
 155              		.type	SERVO_PWM_WriteCompare, %function
 156              	SERVO_PWM_WriteCompare:
 157              	.LFB8:
 488:.\Generated_Source\PSoC5/SERVO_PWM.c ****     #endif /* (SERVO_PWM_UsingFixedFunction) */
 489:.\Generated_Source\PSoC5/SERVO_PWM.c **** }
 490:.\Generated_Source\PSoC5/SERVO_PWM.c **** 
 491:.\Generated_Source\PSoC5/SERVO_PWM.c **** #if (SERVO_PWM_UseOneCompareMode)
 492:.\Generated_Source\PSoC5/SERVO_PWM.c **** 
 493:.\Generated_Source\PSoC5/SERVO_PWM.c **** 
 494:.\Generated_Source\PSoC5/SERVO_PWM.c ****     /*******************************************************************************
 495:.\Generated_Source\PSoC5/SERVO_PWM.c ****     * Function Name: SERVO_PWM_WriteCompare
 496:.\Generated_Source\PSoC5/SERVO_PWM.c ****     ********************************************************************************
 497:.\Generated_Source\PSoC5/SERVO_PWM.c ****     *
 498:.\Generated_Source\PSoC5/SERVO_PWM.c ****     * Summary:
 499:.\Generated_Source\PSoC5/SERVO_PWM.c ****     *  This funtion is used to change the compare1 value when the PWM is in Dither
 500:.\Generated_Source\PSoC5/SERVO_PWM.c ****     *  mode. The compare output will reflect the new value on the next UDB clock.
 501:.\Generated_Source\PSoC5/SERVO_PWM.c ****     *  The compare output will be driven high when the present counter value is
 502:.\Generated_Source\PSoC5/SERVO_PWM.c ****     *  compared to the compare value based on the compare mode defined in
 503:.\Generated_Source\PSoC5/SERVO_PWM.c ****     *  Dither Mode.
 504:.\Generated_Source\PSoC5/SERVO_PWM.c ****     *
 505:.\Generated_Source\PSoC5/SERVO_PWM.c ****     * Parameters:
 506:.\Generated_Source\PSoC5/SERVO_PWM.c ****     *  compare:  New compare value.
 507:.\Generated_Source\PSoC5/SERVO_PWM.c ****     *
 508:.\Generated_Source\PSoC5/SERVO_PWM.c ****     * Return:
 509:.\Generated_Source\PSoC5/SERVO_PWM.c ****     *  None
 510:.\Generated_Source\PSoC5/SERVO_PWM.c ****     *
 511:.\Generated_Source\PSoC5/SERVO_PWM.c ****     * Side Effects:
 512:.\Generated_Source\PSoC5/SERVO_PWM.c ****     *  This function is only available if the PWM mode parameter is set to
 513:.\Generated_Source\PSoC5/SERVO_PWM.c ****     *  Dither Mode, Center Aligned Mode or One Output Mode
 514:.\Generated_Source\PSoC5/SERVO_PWM.c ****     *
 515:.\Generated_Source\PSoC5/SERVO_PWM.c ****     *******************************************************************************/
 516:.\Generated_Source\PSoC5/SERVO_PWM.c ****     void SERVO_PWM_WriteCompare(uint8 compare) \
 517:.\Generated_Source\PSoC5/SERVO_PWM.c ****                                        
 518:.\Generated_Source\PSoC5/SERVO_PWM.c ****     {
 158              		.loc 1 518 0
 159              		.cfi_startproc
 160              		@ args = 0, pretend = 0, frame = 0
 161              		@ frame_needed = 0, uses_anonymous_args = 0
 162              		@ link register save eliminated.
 163              	.LVL2:
 519:.\Generated_Source\PSoC5/SERVO_PWM.c ****         #if(SERVO_PWM_UsingFixedFunction)
 520:.\Generated_Source\PSoC5/SERVO_PWM.c ****             CY_SET_REG16(SERVO_PWM_COMPARE1_LSB_PTR, (uint16)compare);
 521:.\Generated_Source\PSoC5/SERVO_PWM.c ****         #else
ARM GAS  C:\Users\mitchell\AppData\Local\Temp\cc7lDLtl.s 			page 13


 522:.\Generated_Source\PSoC5/SERVO_PWM.c ****             CY_SET_REG8(SERVO_PWM_COMPARE1_LSB_PTR, compare);
 164              		.loc 1 522 0
 165 0000 014B     		ldr	r3, .L17
 166 0002 1870     		strb	r0, [r3]
 167 0004 7047     		bx	lr
 168              	.L18:
 169 0006 00BF     		.align	2
 170              	.L17:
 171 0008 20640040 		.word	1073767456
 172              		.cfi_endproc
 173              	.LFE8:
 174              		.size	SERVO_PWM_WriteCompare, .-SERVO_PWM_WriteCompare
 175              		.section	.text.SERVO_PWM_SetInterruptMode,"ax",%progbits
 176              		.align	2
 177              		.global	SERVO_PWM_SetInterruptMode
 178              		.thumb
 179              		.thumb_func
 180              		.type	SERVO_PWM_SetInterruptMode, %function
 181              	SERVO_PWM_SetInterruptMode:
 182              	.LFB9:
 523:.\Generated_Source\PSoC5/SERVO_PWM.c ****         #endif /* (SERVO_PWM_UsingFixedFunction) */
 524:.\Generated_Source\PSoC5/SERVO_PWM.c **** 
 525:.\Generated_Source\PSoC5/SERVO_PWM.c ****         #if (SERVO_PWM_PWMMode == SERVO_PWM__B_PWM__DITHER)
 526:.\Generated_Source\PSoC5/SERVO_PWM.c ****             #if(SERVO_PWM_UsingFixedFunction)
 527:.\Generated_Source\PSoC5/SERVO_PWM.c ****                 CY_SET_REG16(SERVO_PWM_COMPARE2_LSB_PTR, (uint16)(compare + 1u));
 528:.\Generated_Source\PSoC5/SERVO_PWM.c ****             #else
 529:.\Generated_Source\PSoC5/SERVO_PWM.c ****                 CY_SET_REG8(SERVO_PWM_COMPARE2_LSB_PTR, (compare + 1u));
 530:.\Generated_Source\PSoC5/SERVO_PWM.c ****             #endif /* (SERVO_PWM_UsingFixedFunction) */
 531:.\Generated_Source\PSoC5/SERVO_PWM.c ****         #endif /* (SERVO_PWM_PWMMode == SERVO_PWM__B_PWM__DITHER) */
 532:.\Generated_Source\PSoC5/SERVO_PWM.c ****     }
 533:.\Generated_Source\PSoC5/SERVO_PWM.c **** 
 534:.\Generated_Source\PSoC5/SERVO_PWM.c **** 
 535:.\Generated_Source\PSoC5/SERVO_PWM.c **** #else
 536:.\Generated_Source\PSoC5/SERVO_PWM.c **** 
 537:.\Generated_Source\PSoC5/SERVO_PWM.c **** 
 538:.\Generated_Source\PSoC5/SERVO_PWM.c ****     /*******************************************************************************
 539:.\Generated_Source\PSoC5/SERVO_PWM.c ****     * Function Name: SERVO_PWM_WriteCompare1
 540:.\Generated_Source\PSoC5/SERVO_PWM.c ****     ********************************************************************************
 541:.\Generated_Source\PSoC5/SERVO_PWM.c ****     *
 542:.\Generated_Source\PSoC5/SERVO_PWM.c ****     * Summary:
 543:.\Generated_Source\PSoC5/SERVO_PWM.c ****     *  This funtion is used to change the compare1 value.  The compare output will
 544:.\Generated_Source\PSoC5/SERVO_PWM.c ****     *  reflect the new value on the next UDB clock.  The compare output will be
 545:.\Generated_Source\PSoC5/SERVO_PWM.c ****     *  driven high when the present counter value is less than or less than or
 546:.\Generated_Source\PSoC5/SERVO_PWM.c ****     *  equal to the compare register, depending on the mode.
 547:.\Generated_Source\PSoC5/SERVO_PWM.c ****     *
 548:.\Generated_Source\PSoC5/SERVO_PWM.c ****     * Parameters:
 549:.\Generated_Source\PSoC5/SERVO_PWM.c ****     *  compare:  New compare value.
 550:.\Generated_Source\PSoC5/SERVO_PWM.c ****     *
 551:.\Generated_Source\PSoC5/SERVO_PWM.c ****     * Return:
 552:.\Generated_Source\PSoC5/SERVO_PWM.c ****     *  None
 553:.\Generated_Source\PSoC5/SERVO_PWM.c ****     *
 554:.\Generated_Source\PSoC5/SERVO_PWM.c ****     *******************************************************************************/
 555:.\Generated_Source\PSoC5/SERVO_PWM.c ****     void SERVO_PWM_WriteCompare1(uint8 compare) \
 556:.\Generated_Source\PSoC5/SERVO_PWM.c ****                                         
 557:.\Generated_Source\PSoC5/SERVO_PWM.c ****     {
 558:.\Generated_Source\PSoC5/SERVO_PWM.c ****         #if(SERVO_PWM_UsingFixedFunction)
 559:.\Generated_Source\PSoC5/SERVO_PWM.c ****             CY_SET_REG16(SERVO_PWM_COMPARE1_LSB_PTR, (uint16)compare);
ARM GAS  C:\Users\mitchell\AppData\Local\Temp\cc7lDLtl.s 			page 14


 560:.\Generated_Source\PSoC5/SERVO_PWM.c ****         #else
 561:.\Generated_Source\PSoC5/SERVO_PWM.c ****             CY_SET_REG8(SERVO_PWM_COMPARE1_LSB_PTR, compare);
 562:.\Generated_Source\PSoC5/SERVO_PWM.c ****         #endif /* (SERVO_PWM_UsingFixedFunction) */
 563:.\Generated_Source\PSoC5/SERVO_PWM.c ****     }
 564:.\Generated_Source\PSoC5/SERVO_PWM.c **** 
 565:.\Generated_Source\PSoC5/SERVO_PWM.c **** 
 566:.\Generated_Source\PSoC5/SERVO_PWM.c ****     /*******************************************************************************
 567:.\Generated_Source\PSoC5/SERVO_PWM.c ****     * Function Name: SERVO_PWM_WriteCompare2
 568:.\Generated_Source\PSoC5/SERVO_PWM.c ****     ********************************************************************************
 569:.\Generated_Source\PSoC5/SERVO_PWM.c ****     *
 570:.\Generated_Source\PSoC5/SERVO_PWM.c ****     * Summary:
 571:.\Generated_Source\PSoC5/SERVO_PWM.c ****     *  This funtion is used to change the compare value, for compare1 output.
 572:.\Generated_Source\PSoC5/SERVO_PWM.c ****     *  The compare output will reflect the new value on the next UDB clock.
 573:.\Generated_Source\PSoC5/SERVO_PWM.c ****     *  The compare output will be driven high when the present counter value is
 574:.\Generated_Source\PSoC5/SERVO_PWM.c ****     *  less than or less than or equal to the compare register, depending on the
 575:.\Generated_Source\PSoC5/SERVO_PWM.c ****     *  mode.
 576:.\Generated_Source\PSoC5/SERVO_PWM.c ****     *
 577:.\Generated_Source\PSoC5/SERVO_PWM.c ****     * Parameters:
 578:.\Generated_Source\PSoC5/SERVO_PWM.c ****     *  compare:  New compare value.
 579:.\Generated_Source\PSoC5/SERVO_PWM.c ****     *
 580:.\Generated_Source\PSoC5/SERVO_PWM.c ****     * Return:
 581:.\Generated_Source\PSoC5/SERVO_PWM.c ****     *  None
 582:.\Generated_Source\PSoC5/SERVO_PWM.c ****     *
 583:.\Generated_Source\PSoC5/SERVO_PWM.c ****     *******************************************************************************/
 584:.\Generated_Source\PSoC5/SERVO_PWM.c ****     void SERVO_PWM_WriteCompare2(uint8 compare) \
 585:.\Generated_Source\PSoC5/SERVO_PWM.c ****                                         
 586:.\Generated_Source\PSoC5/SERVO_PWM.c ****     {
 587:.\Generated_Source\PSoC5/SERVO_PWM.c ****         #if(SERVO_PWM_UsingFixedFunction)
 588:.\Generated_Source\PSoC5/SERVO_PWM.c ****             CY_SET_REG16(SERVO_PWM_COMPARE2_LSB_PTR, compare);
 589:.\Generated_Source\PSoC5/SERVO_PWM.c ****         #else
 590:.\Generated_Source\PSoC5/SERVO_PWM.c ****             CY_SET_REG8(SERVO_PWM_COMPARE2_LSB_PTR, compare);
 591:.\Generated_Source\PSoC5/SERVO_PWM.c ****         #endif /* (SERVO_PWM_UsingFixedFunction) */
 592:.\Generated_Source\PSoC5/SERVO_PWM.c ****     }
 593:.\Generated_Source\PSoC5/SERVO_PWM.c **** #endif /* UseOneCompareMode */
 594:.\Generated_Source\PSoC5/SERVO_PWM.c **** 
 595:.\Generated_Source\PSoC5/SERVO_PWM.c **** #if (SERVO_PWM_DeadBandUsed)
 596:.\Generated_Source\PSoC5/SERVO_PWM.c **** 
 597:.\Generated_Source\PSoC5/SERVO_PWM.c **** 
 598:.\Generated_Source\PSoC5/SERVO_PWM.c ****     /*******************************************************************************
 599:.\Generated_Source\PSoC5/SERVO_PWM.c ****     * Function Name: SERVO_PWM_WriteDeadTime
 600:.\Generated_Source\PSoC5/SERVO_PWM.c ****     ********************************************************************************
 601:.\Generated_Source\PSoC5/SERVO_PWM.c ****     *
 602:.\Generated_Source\PSoC5/SERVO_PWM.c ****     * Summary:
 603:.\Generated_Source\PSoC5/SERVO_PWM.c ****     *  This function writes the dead-band counts to the corresponding register
 604:.\Generated_Source\PSoC5/SERVO_PWM.c ****     *
 605:.\Generated_Source\PSoC5/SERVO_PWM.c ****     * Parameters:
 606:.\Generated_Source\PSoC5/SERVO_PWM.c ****     *  deadtime:  Number of counts for dead time
 607:.\Generated_Source\PSoC5/SERVO_PWM.c ****     *
 608:.\Generated_Source\PSoC5/SERVO_PWM.c ****     * Return:
 609:.\Generated_Source\PSoC5/SERVO_PWM.c ****     *  None
 610:.\Generated_Source\PSoC5/SERVO_PWM.c ****     *
 611:.\Generated_Source\PSoC5/SERVO_PWM.c ****     *******************************************************************************/
 612:.\Generated_Source\PSoC5/SERVO_PWM.c ****     void SERVO_PWM_WriteDeadTime(uint8 deadtime) 
 613:.\Generated_Source\PSoC5/SERVO_PWM.c ****     {
 614:.\Generated_Source\PSoC5/SERVO_PWM.c ****         /* If using the Dead Band 1-255 mode then just write the register */
 615:.\Generated_Source\PSoC5/SERVO_PWM.c ****         #if(!SERVO_PWM_DeadBand2_4)
 616:.\Generated_Source\PSoC5/SERVO_PWM.c ****             CY_SET_REG8(SERVO_PWM_DEADBAND_COUNT_PTR, deadtime);
ARM GAS  C:\Users\mitchell\AppData\Local\Temp\cc7lDLtl.s 			page 15


 617:.\Generated_Source\PSoC5/SERVO_PWM.c ****         #else
 618:.\Generated_Source\PSoC5/SERVO_PWM.c ****             /* Otherwise the data has to be masked and offset */
 619:.\Generated_Source\PSoC5/SERVO_PWM.c ****             /* Clear existing data */
 620:.\Generated_Source\PSoC5/SERVO_PWM.c ****             SERVO_PWM_DEADBAND_COUNT &= ((uint8)(~SERVO_PWM_DEADBAND_COUNT_MASK));
 621:.\Generated_Source\PSoC5/SERVO_PWM.c **** 
 622:.\Generated_Source\PSoC5/SERVO_PWM.c ****             /* Set new dead time */
 623:.\Generated_Source\PSoC5/SERVO_PWM.c ****             #if(SERVO_PWM_DEADBAND_COUNT_SHIFT)
 624:.\Generated_Source\PSoC5/SERVO_PWM.c ****                 SERVO_PWM_DEADBAND_COUNT |= ((uint8)((uint8)deadtime << SERVO_PWM_DEADBAND_COUNT_SH
 625:.\Generated_Source\PSoC5/SERVO_PWM.c ****                                                     SERVO_PWM_DEADBAND_COUNT_MASK;
 626:.\Generated_Source\PSoC5/SERVO_PWM.c ****             #else
 627:.\Generated_Source\PSoC5/SERVO_PWM.c ****                 SERVO_PWM_DEADBAND_COUNT |= deadtime & SERVO_PWM_DEADBAND_COUNT_MASK;
 628:.\Generated_Source\PSoC5/SERVO_PWM.c ****             #endif /* (SERVO_PWM_DEADBAND_COUNT_SHIFT) */
 629:.\Generated_Source\PSoC5/SERVO_PWM.c **** 
 630:.\Generated_Source\PSoC5/SERVO_PWM.c ****         #endif /* (!SERVO_PWM_DeadBand2_4) */
 631:.\Generated_Source\PSoC5/SERVO_PWM.c ****     }
 632:.\Generated_Source\PSoC5/SERVO_PWM.c **** 
 633:.\Generated_Source\PSoC5/SERVO_PWM.c **** 
 634:.\Generated_Source\PSoC5/SERVO_PWM.c ****     /*******************************************************************************
 635:.\Generated_Source\PSoC5/SERVO_PWM.c ****     * Function Name: SERVO_PWM_ReadDeadTime
 636:.\Generated_Source\PSoC5/SERVO_PWM.c ****     ********************************************************************************
 637:.\Generated_Source\PSoC5/SERVO_PWM.c ****     *
 638:.\Generated_Source\PSoC5/SERVO_PWM.c ****     * Summary:
 639:.\Generated_Source\PSoC5/SERVO_PWM.c ****     *  This function reads the dead-band counts from the corresponding register
 640:.\Generated_Source\PSoC5/SERVO_PWM.c ****     *
 641:.\Generated_Source\PSoC5/SERVO_PWM.c ****     * Parameters:
 642:.\Generated_Source\PSoC5/SERVO_PWM.c ****     *  None
 643:.\Generated_Source\PSoC5/SERVO_PWM.c ****     *
 644:.\Generated_Source\PSoC5/SERVO_PWM.c ****     * Return:
 645:.\Generated_Source\PSoC5/SERVO_PWM.c ****     *  Dead Band Counts
 646:.\Generated_Source\PSoC5/SERVO_PWM.c ****     *
 647:.\Generated_Source\PSoC5/SERVO_PWM.c ****     *******************************************************************************/
 648:.\Generated_Source\PSoC5/SERVO_PWM.c ****     uint8 SERVO_PWM_ReadDeadTime(void) 
 649:.\Generated_Source\PSoC5/SERVO_PWM.c ****     {
 650:.\Generated_Source\PSoC5/SERVO_PWM.c ****         /* If using the Dead Band 1-255 mode then just read the register */
 651:.\Generated_Source\PSoC5/SERVO_PWM.c ****         #if(!SERVO_PWM_DeadBand2_4)
 652:.\Generated_Source\PSoC5/SERVO_PWM.c ****             return (CY_GET_REG8(SERVO_PWM_DEADBAND_COUNT_PTR));
 653:.\Generated_Source\PSoC5/SERVO_PWM.c ****         #else
 654:.\Generated_Source\PSoC5/SERVO_PWM.c **** 
 655:.\Generated_Source\PSoC5/SERVO_PWM.c ****             /* Otherwise the data has to be masked and offset */
 656:.\Generated_Source\PSoC5/SERVO_PWM.c ****             #if(SERVO_PWM_DEADBAND_COUNT_SHIFT)
 657:.\Generated_Source\PSoC5/SERVO_PWM.c ****                 return ((uint8)(((uint8)(SERVO_PWM_DEADBAND_COUNT & SERVO_PWM_DEADBAND_COUNT_MASK))
 658:.\Generated_Source\PSoC5/SERVO_PWM.c ****                                                                            SERVO_PWM_DEADBAND_COUNT
 659:.\Generated_Source\PSoC5/SERVO_PWM.c ****             #else
 660:.\Generated_Source\PSoC5/SERVO_PWM.c ****                 return (SERVO_PWM_DEADBAND_COUNT & SERVO_PWM_DEADBAND_COUNT_MASK);
 661:.\Generated_Source\PSoC5/SERVO_PWM.c ****             #endif /* (SERVO_PWM_DEADBAND_COUNT_SHIFT) */
 662:.\Generated_Source\PSoC5/SERVO_PWM.c ****         #endif /* (!SERVO_PWM_DeadBand2_4) */
 663:.\Generated_Source\PSoC5/SERVO_PWM.c ****     }
 664:.\Generated_Source\PSoC5/SERVO_PWM.c **** #endif /* DeadBandUsed */
 665:.\Generated_Source\PSoC5/SERVO_PWM.c **** 
 666:.\Generated_Source\PSoC5/SERVO_PWM.c **** #if (SERVO_PWM_UseStatus || SERVO_PWM_UsingFixedFunction)
 667:.\Generated_Source\PSoC5/SERVO_PWM.c **** 
 668:.\Generated_Source\PSoC5/SERVO_PWM.c **** 
 669:.\Generated_Source\PSoC5/SERVO_PWM.c ****     /*******************************************************************************
 670:.\Generated_Source\PSoC5/SERVO_PWM.c ****     * Function Name: SERVO_PWM_SetInterruptMode
 671:.\Generated_Source\PSoC5/SERVO_PWM.c ****     ********************************************************************************
 672:.\Generated_Source\PSoC5/SERVO_PWM.c ****     *
 673:.\Generated_Source\PSoC5/SERVO_PWM.c ****     * Summary:
ARM GAS  C:\Users\mitchell\AppData\Local\Temp\cc7lDLtl.s 			page 16


 674:.\Generated_Source\PSoC5/SERVO_PWM.c ****     *  This function configures the interrupts mask control of theinterrupt
 675:.\Generated_Source\PSoC5/SERVO_PWM.c ****     *  source status register.
 676:.\Generated_Source\PSoC5/SERVO_PWM.c ****     *
 677:.\Generated_Source\PSoC5/SERVO_PWM.c ****     * Parameters:
 678:.\Generated_Source\PSoC5/SERVO_PWM.c ****     *  uint8 interruptMode: Bit field containing the interrupt sources enabled
 679:.\Generated_Source\PSoC5/SERVO_PWM.c ****     *
 680:.\Generated_Source\PSoC5/SERVO_PWM.c ****     * Return:
 681:.\Generated_Source\PSoC5/SERVO_PWM.c ****     *  None
 682:.\Generated_Source\PSoC5/SERVO_PWM.c ****     *
 683:.\Generated_Source\PSoC5/SERVO_PWM.c ****     *******************************************************************************/
 684:.\Generated_Source\PSoC5/SERVO_PWM.c ****     void SERVO_PWM_SetInterruptMode(uint8 interruptMode) 
 685:.\Generated_Source\PSoC5/SERVO_PWM.c ****     {
 183              		.loc 1 685 0
 184              		.cfi_startproc
 185              		@ args = 0, pretend = 0, frame = 0
 186              		@ frame_needed = 0, uses_anonymous_args = 0
 187              		@ link register save eliminated.
 188              	.LVL3:
 686:.\Generated_Source\PSoC5/SERVO_PWM.c ****         CY_SET_REG8(SERVO_PWM_STATUS_MASK_PTR, interruptMode);
 189              		.loc 1 686 0
 190 0000 014B     		ldr	r3, .L20
 191 0002 1870     		strb	r0, [r3]
 192 0004 7047     		bx	lr
 193              	.L21:
 194 0006 00BF     		.align	2
 195              	.L20:
 196 0008 80640040 		.word	1073767552
 197              		.cfi_endproc
 198              	.LFE9:
 199              		.size	SERVO_PWM_SetInterruptMode, .-SERVO_PWM_SetInterruptMode
 200              		.section	.text.SERVO_PWM_ReadStatusRegister,"ax",%progbits
 201              		.align	2
 202              		.global	SERVO_PWM_ReadStatusRegister
 203              		.thumb
 204              		.thumb_func
 205              		.type	SERVO_PWM_ReadStatusRegister, %function
 206              	SERVO_PWM_ReadStatusRegister:
 207              	.LFB10:
 687:.\Generated_Source\PSoC5/SERVO_PWM.c ****     }
 688:.\Generated_Source\PSoC5/SERVO_PWM.c **** 
 689:.\Generated_Source\PSoC5/SERVO_PWM.c **** 
 690:.\Generated_Source\PSoC5/SERVO_PWM.c ****     /*******************************************************************************
 691:.\Generated_Source\PSoC5/SERVO_PWM.c ****     * Function Name: SERVO_PWM_ReadStatusRegister
 692:.\Generated_Source\PSoC5/SERVO_PWM.c ****     ********************************************************************************
 693:.\Generated_Source\PSoC5/SERVO_PWM.c ****     *
 694:.\Generated_Source\PSoC5/SERVO_PWM.c ****     * Summary:
 695:.\Generated_Source\PSoC5/SERVO_PWM.c ****     *  This function returns the current state of the status register.
 696:.\Generated_Source\PSoC5/SERVO_PWM.c ****     *
 697:.\Generated_Source\PSoC5/SERVO_PWM.c ****     * Parameters:
 698:.\Generated_Source\PSoC5/SERVO_PWM.c ****     *  None
 699:.\Generated_Source\PSoC5/SERVO_PWM.c ****     *
 700:.\Generated_Source\PSoC5/SERVO_PWM.c ****     * Return:
 701:.\Generated_Source\PSoC5/SERVO_PWM.c ****     *  uint8 : Current status register value. The status register bits are:
 702:.\Generated_Source\PSoC5/SERVO_PWM.c ****     *  [7:6] : Unused(0)
 703:.\Generated_Source\PSoC5/SERVO_PWM.c ****     *  [5]   : Kill event output
 704:.\Generated_Source\PSoC5/SERVO_PWM.c ****     *  [4]   : FIFO not empty
 705:.\Generated_Source\PSoC5/SERVO_PWM.c ****     *  [3]   : FIFO full
ARM GAS  C:\Users\mitchell\AppData\Local\Temp\cc7lDLtl.s 			page 17


 706:.\Generated_Source\PSoC5/SERVO_PWM.c ****     *  [2]   : Terminal count
 707:.\Generated_Source\PSoC5/SERVO_PWM.c ****     *  [1]   : Compare output 2
 708:.\Generated_Source\PSoC5/SERVO_PWM.c ****     *  [0]   : Compare output 1
 709:.\Generated_Source\PSoC5/SERVO_PWM.c ****     *
 710:.\Generated_Source\PSoC5/SERVO_PWM.c ****     *******************************************************************************/
 711:.\Generated_Source\PSoC5/SERVO_PWM.c ****     uint8 SERVO_PWM_ReadStatusRegister(void) 
 712:.\Generated_Source\PSoC5/SERVO_PWM.c ****     {
 208              		.loc 1 712 0
 209              		.cfi_startproc
 210              		@ args = 0, pretend = 0, frame = 0
 211              		@ frame_needed = 0, uses_anonymous_args = 0
 212              		@ link register save eliminated.
 713:.\Generated_Source\PSoC5/SERVO_PWM.c ****         return (CY_GET_REG8(SERVO_PWM_STATUS_PTR));
 213              		.loc 1 713 0
 214 0000 014B     		ldr	r3, .L23
 215 0002 1878     		ldrb	r0, [r3]	@ zero_extendqisi2
 714:.\Generated_Source\PSoC5/SERVO_PWM.c ****     }
 216              		.loc 1 714 0
 217 0004 7047     		bx	lr
 218              	.L24:
 219 0006 00BF     		.align	2
 220              	.L23:
 221 0008 60640040 		.word	1073767520
 222              		.cfi_endproc
 223              	.LFE10:
 224              		.size	SERVO_PWM_ReadStatusRegister, .-SERVO_PWM_ReadStatusRegister
 225              		.section	.text.SERVO_PWM_ReadControlRegister,"ax",%progbits
 226              		.align	2
 227              		.global	SERVO_PWM_ReadControlRegister
 228              		.thumb
 229              		.thumb_func
 230              		.type	SERVO_PWM_ReadControlRegister, %function
 231              	SERVO_PWM_ReadControlRegister:
 232              	.LFB11:
 715:.\Generated_Source\PSoC5/SERVO_PWM.c **** 
 716:.\Generated_Source\PSoC5/SERVO_PWM.c **** #endif /* (SERVO_PWM_UseStatus || SERVO_PWM_UsingFixedFunction) */
 717:.\Generated_Source\PSoC5/SERVO_PWM.c **** 
 718:.\Generated_Source\PSoC5/SERVO_PWM.c **** 
 719:.\Generated_Source\PSoC5/SERVO_PWM.c **** #if (SERVO_PWM_UseControl)
 720:.\Generated_Source\PSoC5/SERVO_PWM.c **** 
 721:.\Generated_Source\PSoC5/SERVO_PWM.c **** 
 722:.\Generated_Source\PSoC5/SERVO_PWM.c ****     /*******************************************************************************
 723:.\Generated_Source\PSoC5/SERVO_PWM.c ****     * Function Name: SERVO_PWM_ReadControlRegister
 724:.\Generated_Source\PSoC5/SERVO_PWM.c ****     ********************************************************************************
 725:.\Generated_Source\PSoC5/SERVO_PWM.c ****     *
 726:.\Generated_Source\PSoC5/SERVO_PWM.c ****     * Summary:
 727:.\Generated_Source\PSoC5/SERVO_PWM.c ****     *  Returns the current state of the control register. This API is available
 728:.\Generated_Source\PSoC5/SERVO_PWM.c ****     *  only if the control register is not removed.
 729:.\Generated_Source\PSoC5/SERVO_PWM.c ****     *
 730:.\Generated_Source\PSoC5/SERVO_PWM.c ****     * Parameters:
 731:.\Generated_Source\PSoC5/SERVO_PWM.c ****     *  None
 732:.\Generated_Source\PSoC5/SERVO_PWM.c ****     *
 733:.\Generated_Source\PSoC5/SERVO_PWM.c ****     * Return:
 734:.\Generated_Source\PSoC5/SERVO_PWM.c ****     *  uint8 : Current control register value
 735:.\Generated_Source\PSoC5/SERVO_PWM.c ****     *
 736:.\Generated_Source\PSoC5/SERVO_PWM.c ****     *******************************************************************************/
 737:.\Generated_Source\PSoC5/SERVO_PWM.c ****     uint8 SERVO_PWM_ReadControlRegister(void) 
ARM GAS  C:\Users\mitchell\AppData\Local\Temp\cc7lDLtl.s 			page 18


 738:.\Generated_Source\PSoC5/SERVO_PWM.c ****     {
 233              		.loc 1 738 0
 234              		.cfi_startproc
 235              		@ args = 0, pretend = 0, frame = 0
 236              		@ frame_needed = 0, uses_anonymous_args = 0
 237              		@ link register save eliminated.
 739:.\Generated_Source\PSoC5/SERVO_PWM.c ****         uint8 result;
 740:.\Generated_Source\PSoC5/SERVO_PWM.c **** 
 741:.\Generated_Source\PSoC5/SERVO_PWM.c ****         result = CY_GET_REG8(SERVO_PWM_CONTROL_PTR);
 238              		.loc 1 741 0
 239 0000 014B     		ldr	r3, .L26
 240 0002 1878     		ldrb	r0, [r3]	@ zero_extendqisi2
 241              	.LVL4:
 742:.\Generated_Source\PSoC5/SERVO_PWM.c ****         return (result);
 743:.\Generated_Source\PSoC5/SERVO_PWM.c ****     }
 242              		.loc 1 743 0
 243 0004 7047     		bx	lr
 244              	.L27:
 245 0006 00BF     		.align	2
 246              	.L26:
 247 0008 70640040 		.word	1073767536
 248              		.cfi_endproc
 249              	.LFE11:
 250              		.size	SERVO_PWM_ReadControlRegister, .-SERVO_PWM_ReadControlRegister
 251              		.section	.text.SERVO_PWM_WriteControlRegister,"ax",%progbits
 252              		.align	2
 253              		.global	SERVO_PWM_WriteControlRegister
 254              		.thumb
 255              		.thumb_func
 256              		.type	SERVO_PWM_WriteControlRegister, %function
 257              	SERVO_PWM_WriteControlRegister:
 258              	.LFB12:
 744:.\Generated_Source\PSoC5/SERVO_PWM.c **** 
 745:.\Generated_Source\PSoC5/SERVO_PWM.c **** 
 746:.\Generated_Source\PSoC5/SERVO_PWM.c ****     /*******************************************************************************
 747:.\Generated_Source\PSoC5/SERVO_PWM.c ****     * Function Name: SERVO_PWM_WriteControlRegister
 748:.\Generated_Source\PSoC5/SERVO_PWM.c ****     ********************************************************************************
 749:.\Generated_Source\PSoC5/SERVO_PWM.c ****     *
 750:.\Generated_Source\PSoC5/SERVO_PWM.c ****     * Summary:
 751:.\Generated_Source\PSoC5/SERVO_PWM.c ****     *  Sets the bit field of the control register. This API is available only if
 752:.\Generated_Source\PSoC5/SERVO_PWM.c ****     *  the control register is not removed.
 753:.\Generated_Source\PSoC5/SERVO_PWM.c ****     *
 754:.\Generated_Source\PSoC5/SERVO_PWM.c ****     * Parameters:
 755:.\Generated_Source\PSoC5/SERVO_PWM.c ****     *  uint8 control: Control register bit field, The status register bits are:
 756:.\Generated_Source\PSoC5/SERVO_PWM.c ****     *  [7]   : PWM Enable
 757:.\Generated_Source\PSoC5/SERVO_PWM.c ****     *  [6]   : Reset
 758:.\Generated_Source\PSoC5/SERVO_PWM.c ****     *  [5:3] : Compare Mode2
 759:.\Generated_Source\PSoC5/SERVO_PWM.c ****     *  [2:0] : Compare Mode2
 760:.\Generated_Source\PSoC5/SERVO_PWM.c ****     *
 761:.\Generated_Source\PSoC5/SERVO_PWM.c ****     * Return:
 762:.\Generated_Source\PSoC5/SERVO_PWM.c ****     *  None
 763:.\Generated_Source\PSoC5/SERVO_PWM.c ****     *
 764:.\Generated_Source\PSoC5/SERVO_PWM.c ****     *******************************************************************************/
 765:.\Generated_Source\PSoC5/SERVO_PWM.c ****     void SERVO_PWM_WriteControlRegister(uint8 control) 
 766:.\Generated_Source\PSoC5/SERVO_PWM.c ****     {
 259              		.loc 1 766 0
 260              		.cfi_startproc
ARM GAS  C:\Users\mitchell\AppData\Local\Temp\cc7lDLtl.s 			page 19


 261              		@ args = 0, pretend = 0, frame = 0
 262              		@ frame_needed = 0, uses_anonymous_args = 0
 263              		@ link register save eliminated.
 264              	.LVL5:
 767:.\Generated_Source\PSoC5/SERVO_PWM.c ****         CY_SET_REG8(SERVO_PWM_CONTROL_PTR, control);
 265              		.loc 1 767 0
 266 0000 014B     		ldr	r3, .L29
 267 0002 1870     		strb	r0, [r3]
 268 0004 7047     		bx	lr
 269              	.L30:
 270 0006 00BF     		.align	2
 271              	.L29:
 272 0008 70640040 		.word	1073767536
 273              		.cfi_endproc
 274              	.LFE12:
 275              		.size	SERVO_PWM_WriteControlRegister, .-SERVO_PWM_WriteControlRegister
 276              		.section	.text.SERVO_PWM_ReadCapture,"ax",%progbits
 277              		.align	2
 278              		.global	SERVO_PWM_ReadCapture
 279              		.thumb
 280              		.thumb_func
 281              		.type	SERVO_PWM_ReadCapture, %function
 282              	SERVO_PWM_ReadCapture:
 283              	.LFB13:
 768:.\Generated_Source\PSoC5/SERVO_PWM.c ****     }
 769:.\Generated_Source\PSoC5/SERVO_PWM.c **** 
 770:.\Generated_Source\PSoC5/SERVO_PWM.c **** #endif /* (SERVO_PWM_UseControl) */
 771:.\Generated_Source\PSoC5/SERVO_PWM.c **** 
 772:.\Generated_Source\PSoC5/SERVO_PWM.c **** 
 773:.\Generated_Source\PSoC5/SERVO_PWM.c **** #if (!SERVO_PWM_UsingFixedFunction)
 774:.\Generated_Source\PSoC5/SERVO_PWM.c **** 
 775:.\Generated_Source\PSoC5/SERVO_PWM.c **** 
 776:.\Generated_Source\PSoC5/SERVO_PWM.c ****     /*******************************************************************************
 777:.\Generated_Source\PSoC5/SERVO_PWM.c ****     * Function Name: SERVO_PWM_ReadCapture
 778:.\Generated_Source\PSoC5/SERVO_PWM.c ****     ********************************************************************************
 779:.\Generated_Source\PSoC5/SERVO_PWM.c ****     *
 780:.\Generated_Source\PSoC5/SERVO_PWM.c ****     * Summary:
 781:.\Generated_Source\PSoC5/SERVO_PWM.c ****     *  Reads the capture value from the capture FIFO.
 782:.\Generated_Source\PSoC5/SERVO_PWM.c ****     *
 783:.\Generated_Source\PSoC5/SERVO_PWM.c ****     * Parameters:
 784:.\Generated_Source\PSoC5/SERVO_PWM.c ****     *  None
 785:.\Generated_Source\PSoC5/SERVO_PWM.c ****     *
 786:.\Generated_Source\PSoC5/SERVO_PWM.c ****     * Return:
 787:.\Generated_Source\PSoC5/SERVO_PWM.c ****     *  uint8/uint16: The current capture value
 788:.\Generated_Source\PSoC5/SERVO_PWM.c ****     *
 789:.\Generated_Source\PSoC5/SERVO_PWM.c ****     *******************************************************************************/
 790:.\Generated_Source\PSoC5/SERVO_PWM.c ****     uint8 SERVO_PWM_ReadCapture(void) 
 791:.\Generated_Source\PSoC5/SERVO_PWM.c ****     {
 284              		.loc 1 791 0
 285              		.cfi_startproc
 286              		@ args = 0, pretend = 0, frame = 0
 287              		@ frame_needed = 0, uses_anonymous_args = 0
 288              		@ link register save eliminated.
 792:.\Generated_Source\PSoC5/SERVO_PWM.c ****         return (CY_GET_REG8(SERVO_PWM_CAPTURE_LSB_PTR));
 289              		.loc 1 792 0
 290 0000 014B     		ldr	r3, .L32
 291 0002 1878     		ldrb	r0, [r3]	@ zero_extendqisi2
ARM GAS  C:\Users\mitchell\AppData\Local\Temp\cc7lDLtl.s 			page 20


 793:.\Generated_Source\PSoC5/SERVO_PWM.c ****     }
 292              		.loc 1 793 0
 293 0004 7047     		bx	lr
 294              	.L33:
 295 0006 00BF     		.align	2
 296              	.L32:
 297 0008 50640040 		.word	1073767504
 298              		.cfi_endproc
 299              	.LFE13:
 300              		.size	SERVO_PWM_ReadCapture, .-SERVO_PWM_ReadCapture
 301              		.section	.text.SERVO_PWM_ClearFIFO,"ax",%progbits
 302              		.align	2
 303              		.global	SERVO_PWM_ClearFIFO
 304              		.thumb
 305              		.thumb_func
 306              		.type	SERVO_PWM_ClearFIFO, %function
 307              	SERVO_PWM_ClearFIFO:
 308              	.LFB6:
 454:.\Generated_Source\PSoC5/SERVO_PWM.c ****         {
 309              		.loc 1 454 0
 310              		.cfi_startproc
 311              		@ args = 0, pretend = 0, frame = 0
 312              		@ frame_needed = 0, uses_anonymous_args = 0
 313 0000 08B5     		push	{r3, lr}
 314              		.cfi_def_cfa_offset 8
 315              		.cfi_offset 3, -8
 316              		.cfi_offset 14, -4
 455:.\Generated_Source\PSoC5/SERVO_PWM.c ****             while(0u != (SERVO_PWM_ReadStatusRegister() & SERVO_PWM_STATUS_FIFONEMPTY))
 317              		.loc 1 455 0
 318 0002 01E0     		b	.L35
 319              	.L36:
 457:.\Generated_Source\PSoC5/SERVO_PWM.c ****                 (void)SERVO_PWM_ReadCapture();
 320              		.loc 1 457 0
 321 0004 FFF7FEFF 		bl	SERVO_PWM_ReadCapture
 322              	.LVL6:
 323              	.L35:
 455:.\Generated_Source\PSoC5/SERVO_PWM.c ****             while(0u != (SERVO_PWM_ReadStatusRegister() & SERVO_PWM_STATUS_FIFONEMPTY))
 324              		.loc 1 455 0 discriminator 1
 325 0008 FFF7FEFF 		bl	SERVO_PWM_ReadStatusRegister
 326              	.LVL7:
 327 000c 10F0100F 		tst	r0, #16
 328 0010 F8D1     		bne	.L36
 459:.\Generated_Source\PSoC5/SERVO_PWM.c ****         }
 329              		.loc 1 459 0
 330 0012 08BD     		pop	{r3, pc}
 331              		.cfi_endproc
 332              	.LFE6:
 333              		.size	SERVO_PWM_ClearFIFO, .-SERVO_PWM_ClearFIFO
 334              		.section	.text.SERVO_PWM_Init,"ax",%progbits
 335              		.align	2
 336              		.global	SERVO_PWM_Init
 337              		.thumb
 338              		.thumb_func
 339              		.type	SERVO_PWM_Init, %function
 340              	SERVO_PWM_Init:
 341              	.LFB1:
  85:.\Generated_Source\PSoC5/SERVO_PWM.c **** {
ARM GAS  C:\Users\mitchell\AppData\Local\Temp\cc7lDLtl.s 			page 21


 342              		.loc 1 85 0
 343              		.cfi_startproc
 344              		@ args = 0, pretend = 0, frame = 0
 345              		@ frame_needed = 0, uses_anonymous_args = 0
 346 0000 10B5     		push	{r4, lr}
 347              		.cfi_def_cfa_offset 8
 348              		.cfi_offset 4, -8
 349              		.cfi_offset 14, -4
 117:.\Generated_Source\PSoC5/SERVO_PWM.c ****         ctrl = SERVO_PWM_CONTROL & ((uint8)(~SERVO_PWM_CTRL_CMPMODE2_MASK)) &
 350              		.loc 1 117 0
 351 0002 114B     		ldr	r3, .L38
 352 0004 1A78     		ldrb	r2, [r3]	@ zero_extendqisi2
 353 0006 02F0C002 		and	r2, r2, #192
 354              	.LVL8:
 119:.\Generated_Source\PSoC5/SERVO_PWM.c ****         SERVO_PWM_CONTROL = ctrl | SERVO_PWM_DEFAULT_COMPARE2_MODE |
 355              		.loc 1 119 0
 356 000a 42F00902 		orr	r2, r2, #9
 357              	.LVL9:
 358 000e 1A70     		strb	r2, [r3]
 126:.\Generated_Source\PSoC5/SERVO_PWM.c ****             SERVO_PWM_AUX_CONTROLDP0 |= (SERVO_PWM_AUX_CTRL_FIFO0_CLR);
 359              		.loc 1 126 0
 360 0010 0E4C     		ldr	r4, .L38+4
 361 0012 2378     		ldrb	r3, [r4]	@ zero_extendqisi2
 362 0014 43F00103 		orr	r3, r3, #1
 363 0018 2370     		strb	r3, [r4]
 133:.\Generated_Source\PSoC5/SERVO_PWM.c ****         SERVO_PWM_WriteCounter(SERVO_PWM_INIT_PERIOD_VALUE);
 364              		.loc 1 133 0
 365 001a FE20     		movs	r0, #254
 366 001c FFF7FEFF 		bl	SERVO_PWM_WriteCounter
 367              	.LVL10:
 136:.\Generated_Source\PSoC5/SERVO_PWM.c ****     SERVO_PWM_WritePeriod(SERVO_PWM_INIT_PERIOD_VALUE);
 368              		.loc 1 136 0
 369 0020 FE20     		movs	r0, #254
 370 0022 FFF7FEFF 		bl	SERVO_PWM_WritePeriod
 371              	.LVL11:
 139:.\Generated_Source\PSoC5/SERVO_PWM.c ****             SERVO_PWM_WriteCompare(SERVO_PWM_INIT_COMPARE_VALUE1);
 372              		.loc 1 139 0
 373 0026 7F20     		movs	r0, #127
 374 0028 FFF7FEFF 		bl	SERVO_PWM_WriteCompare
 375              	.LVL12:
 154:.\Generated_Source\PSoC5/SERVO_PWM.c ****         SERVO_PWM_SetInterruptMode(SERVO_PWM_INIT_INTERRUPTS_MODE);
 376              		.loc 1 154 0
 377 002c 0020     		movs	r0, #0
 378 002e FFF7FEFF 		bl	SERVO_PWM_SetInterruptMode
 379              	.LVL13:
 167:.\Generated_Source\PSoC5/SERVO_PWM.c ****             SERVO_PWM_interruptState = CyEnterCriticalSection();
 380              		.loc 1 167 0
 381 0032 FFF7FEFF 		bl	CyEnterCriticalSection
 382              	.LVL14:
 169:.\Generated_Source\PSoC5/SERVO_PWM.c ****             SERVO_PWM_STATUS_AUX_CTRL |= SERVO_PWM_STATUS_ACTL_INT_EN_MASK;
 383              		.loc 1 169 0
 384 0036 2378     		ldrb	r3, [r4]	@ zero_extendqisi2
 385 0038 43F01003 		orr	r3, r3, #16
 386 003c 2370     		strb	r3, [r4]
 172:.\Generated_Source\PSoC5/SERVO_PWM.c ****             CyExitCriticalSection(SERVO_PWM_interruptState);
 387              		.loc 1 172 0
 388 003e FFF7FEFF 		bl	CyExitCriticalSection
ARM GAS  C:\Users\mitchell\AppData\Local\Temp\cc7lDLtl.s 			page 22


 389              	.LVL15:
 176:.\Generated_Source\PSoC5/SERVO_PWM.c ****             SERVO_PWM_ClearFIFO();
 390              		.loc 1 176 0
 391 0042 FFF7FEFF 		bl	SERVO_PWM_ClearFIFO
 392              	.LVL16:
 393 0046 10BD     		pop	{r4, pc}
 394              	.L39:
 395              		.align	2
 396              	.L38:
 397 0048 70640040 		.word	1073767536
 398 004c 90640040 		.word	1073767568
 399              		.cfi_endproc
 400              	.LFE1:
 401              		.size	SERVO_PWM_Init, .-SERVO_PWM_Init
 402              		.section	.text.SERVO_PWM_Start,"ax",%progbits
 403              		.align	2
 404              		.global	SERVO_PWM_Start
 405              		.thumb
 406              		.thumb_func
 407              		.type	SERVO_PWM_Start, %function
 408              	SERVO_PWM_Start:
 409              	.LFB0:
  56:.\Generated_Source\PSoC5/SERVO_PWM.c **** {
 410              		.loc 1 56 0
 411              		.cfi_startproc
 412              		@ args = 0, pretend = 0, frame = 0
 413              		@ frame_needed = 0, uses_anonymous_args = 0
 414 0000 08B5     		push	{r3, lr}
 415              		.cfi_def_cfa_offset 8
 416              		.cfi_offset 3, -8
 417              		.cfi_offset 14, -4
  58:.\Generated_Source\PSoC5/SERVO_PWM.c ****     if(SERVO_PWM_initVar == 0u)
 418              		.loc 1 58 0
 419 0002 054B     		ldr	r3, .L42
 420 0004 1B78     		ldrb	r3, [r3]	@ zero_extendqisi2
 421 0006 23B9     		cbnz	r3, .L41
  60:.\Generated_Source\PSoC5/SERVO_PWM.c ****         SERVO_PWM_Init();
 422              		.loc 1 60 0
 423 0008 FFF7FEFF 		bl	SERVO_PWM_Init
 424              	.LVL17:
  61:.\Generated_Source\PSoC5/SERVO_PWM.c ****         SERVO_PWM_initVar = 1u;
 425              		.loc 1 61 0
 426 000c 0122     		movs	r2, #1
 427 000e 024B     		ldr	r3, .L42
 428 0010 1A70     		strb	r2, [r3]
 429              	.L41:
  63:.\Generated_Source\PSoC5/SERVO_PWM.c ****     SERVO_PWM_Enable();
 430              		.loc 1 63 0
 431 0012 FFF7FEFF 		bl	SERVO_PWM_Enable
 432              	.LVL18:
 433 0016 08BD     		pop	{r3, pc}
 434              	.L43:
 435              		.align	2
 436              	.L42:
 437 0018 00000000 		.word	.LANCHOR0
 438              		.cfi_endproc
 439              	.LFE0:
ARM GAS  C:\Users\mitchell\AppData\Local\Temp\cc7lDLtl.s 			page 23


 440              		.size	SERVO_PWM_Start, .-SERVO_PWM_Start
 441              		.section	.text.SERVO_PWM_ReadCompare,"ax",%progbits
 442              		.align	2
 443              		.global	SERVO_PWM_ReadCompare
 444              		.thumb
 445              		.thumb_func
 446              		.type	SERVO_PWM_ReadCompare, %function
 447              	SERVO_PWM_ReadCompare:
 448              	.LFB14:
 794:.\Generated_Source\PSoC5/SERVO_PWM.c **** 
 795:.\Generated_Source\PSoC5/SERVO_PWM.c **** #endif /* (!SERVO_PWM_UsingFixedFunction) */
 796:.\Generated_Source\PSoC5/SERVO_PWM.c **** 
 797:.\Generated_Source\PSoC5/SERVO_PWM.c **** 
 798:.\Generated_Source\PSoC5/SERVO_PWM.c **** #if (SERVO_PWM_UseOneCompareMode)
 799:.\Generated_Source\PSoC5/SERVO_PWM.c **** 
 800:.\Generated_Source\PSoC5/SERVO_PWM.c **** 
 801:.\Generated_Source\PSoC5/SERVO_PWM.c ****     /*******************************************************************************
 802:.\Generated_Source\PSoC5/SERVO_PWM.c ****     * Function Name: SERVO_PWM_ReadCompare
 803:.\Generated_Source\PSoC5/SERVO_PWM.c ****     ********************************************************************************
 804:.\Generated_Source\PSoC5/SERVO_PWM.c ****     *
 805:.\Generated_Source\PSoC5/SERVO_PWM.c ****     * Summary:
 806:.\Generated_Source\PSoC5/SERVO_PWM.c ****     *  Reads the compare value for the compare output when the PWM Mode parameter is
 807:.\Generated_Source\PSoC5/SERVO_PWM.c ****     *  set to Dither mode, Center Aligned mode, or One Output mode.
 808:.\Generated_Source\PSoC5/SERVO_PWM.c ****     *
 809:.\Generated_Source\PSoC5/SERVO_PWM.c ****     * Parameters:
 810:.\Generated_Source\PSoC5/SERVO_PWM.c ****     *  None
 811:.\Generated_Source\PSoC5/SERVO_PWM.c ****     *
 812:.\Generated_Source\PSoC5/SERVO_PWM.c ****     * Return:
 813:.\Generated_Source\PSoC5/SERVO_PWM.c ****     *  uint8/uint16: Current compare value
 814:.\Generated_Source\PSoC5/SERVO_PWM.c ****     *
 815:.\Generated_Source\PSoC5/SERVO_PWM.c ****     *******************************************************************************/
 816:.\Generated_Source\PSoC5/SERVO_PWM.c ****     uint8 SERVO_PWM_ReadCompare(void) 
 817:.\Generated_Source\PSoC5/SERVO_PWM.c ****     {
 449              		.loc 1 817 0
 450              		.cfi_startproc
 451              		@ args = 0, pretend = 0, frame = 0
 452              		@ frame_needed = 0, uses_anonymous_args = 0
 453              		@ link register save eliminated.
 818:.\Generated_Source\PSoC5/SERVO_PWM.c ****         #if(SERVO_PWM_UsingFixedFunction)
 819:.\Generated_Source\PSoC5/SERVO_PWM.c ****             return ((uint8)CY_GET_REG16(SERVO_PWM_COMPARE1_LSB_PTR));
 820:.\Generated_Source\PSoC5/SERVO_PWM.c ****         #else
 821:.\Generated_Source\PSoC5/SERVO_PWM.c ****             return (CY_GET_REG8(SERVO_PWM_COMPARE1_LSB_PTR));
 454              		.loc 1 821 0
 455 0000 014B     		ldr	r3, .L45
 456 0002 1878     		ldrb	r0, [r3]	@ zero_extendqisi2
 822:.\Generated_Source\PSoC5/SERVO_PWM.c ****         #endif /* (SERVO_PWM_UsingFixedFunction) */
 823:.\Generated_Source\PSoC5/SERVO_PWM.c ****     }
 457              		.loc 1 823 0
 458 0004 7047     		bx	lr
 459              	.L46:
 460 0006 00BF     		.align	2
 461              	.L45:
 462 0008 20640040 		.word	1073767456
 463              		.cfi_endproc
 464              	.LFE14:
 465              		.size	SERVO_PWM_ReadCompare, .-SERVO_PWM_ReadCompare
 466              		.section	.text.SERVO_PWM_ReadPeriod,"ax",%progbits
ARM GAS  C:\Users\mitchell\AppData\Local\Temp\cc7lDLtl.s 			page 24


 467              		.align	2
 468              		.global	SERVO_PWM_ReadPeriod
 469              		.thumb
 470              		.thumb_func
 471              		.type	SERVO_PWM_ReadPeriod, %function
 472              	SERVO_PWM_ReadPeriod:
 473              	.LFB15:
 824:.\Generated_Source\PSoC5/SERVO_PWM.c **** 
 825:.\Generated_Source\PSoC5/SERVO_PWM.c **** #else
 826:.\Generated_Source\PSoC5/SERVO_PWM.c **** 
 827:.\Generated_Source\PSoC5/SERVO_PWM.c **** 
 828:.\Generated_Source\PSoC5/SERVO_PWM.c ****     /*******************************************************************************
 829:.\Generated_Source\PSoC5/SERVO_PWM.c ****     * Function Name: SERVO_PWM_ReadCompare1
 830:.\Generated_Source\PSoC5/SERVO_PWM.c ****     ********************************************************************************
 831:.\Generated_Source\PSoC5/SERVO_PWM.c ****     *
 832:.\Generated_Source\PSoC5/SERVO_PWM.c ****     * Summary:
 833:.\Generated_Source\PSoC5/SERVO_PWM.c ****     *  Reads the compare value for the compare1 output.
 834:.\Generated_Source\PSoC5/SERVO_PWM.c ****     *
 835:.\Generated_Source\PSoC5/SERVO_PWM.c ****     * Parameters:
 836:.\Generated_Source\PSoC5/SERVO_PWM.c ****     *  None
 837:.\Generated_Source\PSoC5/SERVO_PWM.c ****     *
 838:.\Generated_Source\PSoC5/SERVO_PWM.c ****     * Return:
 839:.\Generated_Source\PSoC5/SERVO_PWM.c ****     *  uint8/uint16: Current compare value.
 840:.\Generated_Source\PSoC5/SERVO_PWM.c ****     *
 841:.\Generated_Source\PSoC5/SERVO_PWM.c ****     *******************************************************************************/
 842:.\Generated_Source\PSoC5/SERVO_PWM.c ****     uint8 SERVO_PWM_ReadCompare1(void) 
 843:.\Generated_Source\PSoC5/SERVO_PWM.c ****     {
 844:.\Generated_Source\PSoC5/SERVO_PWM.c ****         return (CY_GET_REG8(SERVO_PWM_COMPARE1_LSB_PTR));
 845:.\Generated_Source\PSoC5/SERVO_PWM.c ****     }
 846:.\Generated_Source\PSoC5/SERVO_PWM.c **** 
 847:.\Generated_Source\PSoC5/SERVO_PWM.c **** 
 848:.\Generated_Source\PSoC5/SERVO_PWM.c ****     /*******************************************************************************
 849:.\Generated_Source\PSoC5/SERVO_PWM.c ****     * Function Name: SERVO_PWM_ReadCompare2
 850:.\Generated_Source\PSoC5/SERVO_PWM.c ****     ********************************************************************************
 851:.\Generated_Source\PSoC5/SERVO_PWM.c ****     *
 852:.\Generated_Source\PSoC5/SERVO_PWM.c ****     * Summary:
 853:.\Generated_Source\PSoC5/SERVO_PWM.c ****     *  Reads the compare value for the compare2 output.
 854:.\Generated_Source\PSoC5/SERVO_PWM.c ****     *
 855:.\Generated_Source\PSoC5/SERVO_PWM.c ****     * Parameters:
 856:.\Generated_Source\PSoC5/SERVO_PWM.c ****     *  None
 857:.\Generated_Source\PSoC5/SERVO_PWM.c ****     *
 858:.\Generated_Source\PSoC5/SERVO_PWM.c ****     * Return:
 859:.\Generated_Source\PSoC5/SERVO_PWM.c ****     *  uint8/uint16: Current compare value.
 860:.\Generated_Source\PSoC5/SERVO_PWM.c ****     *
 861:.\Generated_Source\PSoC5/SERVO_PWM.c ****     *******************************************************************************/
 862:.\Generated_Source\PSoC5/SERVO_PWM.c ****     uint8 SERVO_PWM_ReadCompare2(void) 
 863:.\Generated_Source\PSoC5/SERVO_PWM.c ****     {
 864:.\Generated_Source\PSoC5/SERVO_PWM.c ****         return (CY_GET_REG8(SERVO_PWM_COMPARE2_LSB_PTR));
 865:.\Generated_Source\PSoC5/SERVO_PWM.c ****     }
 866:.\Generated_Source\PSoC5/SERVO_PWM.c **** 
 867:.\Generated_Source\PSoC5/SERVO_PWM.c **** #endif /* (SERVO_PWM_UseOneCompareMode) */
 868:.\Generated_Source\PSoC5/SERVO_PWM.c **** 
 869:.\Generated_Source\PSoC5/SERVO_PWM.c **** 
 870:.\Generated_Source\PSoC5/SERVO_PWM.c **** /*******************************************************************************
 871:.\Generated_Source\PSoC5/SERVO_PWM.c **** * Function Name: SERVO_PWM_ReadPeriod
 872:.\Generated_Source\PSoC5/SERVO_PWM.c **** ********************************************************************************
 873:.\Generated_Source\PSoC5/SERVO_PWM.c **** *
ARM GAS  C:\Users\mitchell\AppData\Local\Temp\cc7lDLtl.s 			page 25


 874:.\Generated_Source\PSoC5/SERVO_PWM.c **** * Summary:
 875:.\Generated_Source\PSoC5/SERVO_PWM.c **** *  Reads the period value used by the PWM hardware.
 876:.\Generated_Source\PSoC5/SERVO_PWM.c **** *
 877:.\Generated_Source\PSoC5/SERVO_PWM.c **** * Parameters:
 878:.\Generated_Source\PSoC5/SERVO_PWM.c **** *  None
 879:.\Generated_Source\PSoC5/SERVO_PWM.c **** *
 880:.\Generated_Source\PSoC5/SERVO_PWM.c **** * Return:
 881:.\Generated_Source\PSoC5/SERVO_PWM.c **** *  uint8/16: Period value
 882:.\Generated_Source\PSoC5/SERVO_PWM.c **** *
 883:.\Generated_Source\PSoC5/SERVO_PWM.c **** *******************************************************************************/
 884:.\Generated_Source\PSoC5/SERVO_PWM.c **** uint8 SERVO_PWM_ReadPeriod(void) 
 885:.\Generated_Source\PSoC5/SERVO_PWM.c **** {
 474              		.loc 1 885 0
 475              		.cfi_startproc
 476              		@ args = 0, pretend = 0, frame = 0
 477              		@ frame_needed = 0, uses_anonymous_args = 0
 478              		@ link register save eliminated.
 886:.\Generated_Source\PSoC5/SERVO_PWM.c ****     #if(SERVO_PWM_UsingFixedFunction)
 887:.\Generated_Source\PSoC5/SERVO_PWM.c ****         return ((uint8)CY_GET_REG16(SERVO_PWM_PERIOD_LSB_PTR));
 888:.\Generated_Source\PSoC5/SERVO_PWM.c ****     #else
 889:.\Generated_Source\PSoC5/SERVO_PWM.c ****         return (CY_GET_REG8(SERVO_PWM_PERIOD_LSB_PTR));
 479              		.loc 1 889 0
 480 0000 014B     		ldr	r3, .L48
 481 0002 1878     		ldrb	r0, [r3]	@ zero_extendqisi2
 890:.\Generated_Source\PSoC5/SERVO_PWM.c ****     #endif /* (SERVO_PWM_UsingFixedFunction) */
 891:.\Generated_Source\PSoC5/SERVO_PWM.c **** }
 482              		.loc 1 891 0
 483 0004 7047     		bx	lr
 484              	.L49:
 485 0006 00BF     		.align	2
 486              	.L48:
 487 0008 30640040 		.word	1073767472
 488              		.cfi_endproc
 489              	.LFE15:
 490              		.size	SERVO_PWM_ReadPeriod, .-SERVO_PWM_ReadPeriod
 491              		.global	SERVO_PWM_initVar
 492              		.bss
 493              		.set	.LANCHOR0,. + 0
 494              		.type	SERVO_PWM_initVar, %object
 495              		.size	SERVO_PWM_initVar, 1
 496              	SERVO_PWM_initVar:
 497 0000 00       		.space	1
 498              		.text
 499              	.Letext0:
 500              		.file 2 ".\\Generated_Source\\PSoC5\\cytypes.h"
 501              		.file 3 ".\\Generated_Source\\PSoC5\\CyLib.h"