ARM GAS  C:\Users\mitchell\AppData\Local\Temp\ccpuU8Dz.s 			page 1


   1              		.syntax unified
   2              		.cpu cortex-m3
   3              		.fpu softvfp
   4              		.eabi_attribute 20, 1
   5              		.eabi_attribute 21, 1
   6              		.eabi_attribute 23, 3
   7              		.eabi_attribute 24, 1
   8              		.eabi_attribute 25, 1
   9              		.eabi_attribute 26, 1
  10              		.eabi_attribute 30, 1
  11              		.eabi_attribute 34, 1
  12              		.eabi_attribute 18, 4
  13              		.thumb
  14              		.file	"signal_processing.c"
  15              		.text
  16              	.Ltext0:
  17              		.cfi_sections	.debug_frame
  18              		.global	__aeabi_ui2f
  19              		.global	__aeabi_fdiv
  20              		.section	.text.convertToPercent,"ax",%progbits
  21              		.align	2
  22              		.global	convertToPercent
  23              		.thumb
  24              		.thumb_func
  25              		.type	convertToPercent, %function
  26              	convertToPercent:
  27              	.LFB0:
  28              		.file 1 ".\\signal_processing.c"
   1:.\signal_processing.c ****  /* ========================================
   2:.\signal_processing.c ****     A collection of functions that do the brunt
   3:.\signal_processing.c ****     of the I/O processing and calculation work
   4:.\signal_processing.c ****     needed for the E-Throttle.
   5:.\signal_processing.c **** 
   6:.\signal_processing.c ****     Author: Mitchell Mellone (mellom3@rpi.edu)
   7:.\signal_processing.c ****     Date Created: 12/28/15
   8:.\signal_processing.c ****     Most Recent Modification: 12/30/15
   9:.\signal_processing.c **** 
  10:.\signal_processing.c ****     Copyright (c) 2015 Rensselaer Motorsport
  11:.\signal_processing.c ****     Distributed under the MIT License.
  12:.\signal_processing.c ****     See "LICENSE" for more information.
  13:.\signal_processing.c ****  * ========================================
  14:.\signal_processing.c **** */
  15:.\signal_processing.c **** 
  16:.\signal_processing.c **** #include "signal_processing.h"
  17:.\signal_processing.c **** 
  18:.\signal_processing.c **** /*
  19:.\signal_processing.c **** parameters: count - The current count returned by
  20:.\signal_processing.c ****                    an ADC
  21:.\signal_processing.c ****             type - The type of sensor
  22:.\signal_processing.c **** return:     A percentage of the maximum possible count
  23:.\signal_processing.c ****             If the type is not defined it will return 0.0
  24:.\signal_processing.c **** */
  25:.\signal_processing.c **** float convertToPercent(uint16 count, sensor type) {
  29              		.loc 1 25 0
  30              		.cfi_startproc
  31              		@ args = 0, pretend = 0, frame = 0
  32              		@ frame_needed = 0, uses_anonymous_args = 0
ARM GAS  C:\Users\mitchell\AppData\Local\Temp\ccpuU8Dz.s 			page 2


  33              	.LVL0:
  34 0000 08B5     		push	{r3, lr}
  35              		.cfi_def_cfa_offset 8
  36              		.cfi_offset 3, -8
  37              		.cfi_offset 14, -4
  26:.\signal_processing.c ****     /* TODO:    check bounds on these percents, 
  27:.\signal_processing.c ****                 expecially the BRAKE case (sigdel 
  28:.\signal_processing.c ****                 ADC gave a little over MAX_BRAKE_COUNT 
  29:.\signal_processing.c ****                 in prelim. test)
  30:.\signal_processing.c ****     */
  31:.\signal_processing.c ****     float percent;
  32:.\signal_processing.c ****     switch (type) {
  38              		.loc 1 32 0
  39 0002 11B1     		cbz	r1, .L3
  40 0004 0129     		cmp	r1, #1
  41 0006 06D0     		beq	.L4
  42 0008 0BE0     		b	.L6
  43              	.L3:
  33:.\signal_processing.c ****         case TPS:
  34:.\signal_processing.c ****             percent = (float) count / MAX_TPS_COUNT;
  44              		.loc 1 34 0
  45 000a FFF7FEFF 		bl	__aeabi_ui2f
  46              	.LVL1:
  47 000e 0649     		ldr	r1, .L7
  48 0010 FFF7FEFF 		bl	__aeabi_fdiv
  49              	.LVL2:
  35:.\signal_processing.c ****             break;
  50              		.loc 1 35 0
  51 0014 08BD     		pop	{r3, pc}
  52              	.LVL3:
  53              	.L4:
  36:.\signal_processing.c ****         case APPS:
  37:.\signal_processing.c ****             percent = (float) count / MAX_APPS_COUNT;
  54              		.loc 1 37 0
  55 0016 FFF7FEFF 		bl	__aeabi_ui2f
  56              	.LVL4:
  57 001a 0349     		ldr	r1, .L7
  58 001c FFF7FEFF 		bl	__aeabi_fdiv
  59              	.LVL5:
  38:.\signal_processing.c ****             break;
  60              		.loc 1 38 0
  61 0020 08BD     		pop	{r3, pc}
  62              	.LVL6:
  63              	.L6:
  39:.\signal_processing.c ****         case BRAKE:
  40:.\signal_processing.c ****             percent = (float) count / MAX_BRAKE_COUNT;
  41:.\signal_processing.c ****         default:
  42:.\signal_processing.c ****             percent = 0.0;
  64              		.loc 1 42 0
  65 0022 0020     		movs	r0, #0
  66              	.LVL7:
  43:.\signal_processing.c ****     }
  44:.\signal_processing.c ****     return percent;
  45:.\signal_processing.c **** }
  67              		.loc 1 45 0
  68 0024 08BD     		pop	{r3, pc}
  69              	.L8:
ARM GAS  C:\Users\mitchell\AppData\Local\Temp\ccpuU8Dz.s 			page 3


  70 0026 00BF     		.align	2
  71              	.L7:
  72 0028 00F07F45 		.word	1166012416
  73              		.cfi_endproc
  74              	.LFE0:
  75              		.size	convertToPercent, .-convertToPercent
  76              		.section	.text.createErrorBuffer,"ax",%progbits
  77              		.align	2
  78              		.global	createErrorBuffer
  79              		.thumb
  80              		.thumb_func
  81              		.type	createErrorBuffer, %function
  82              	createErrorBuffer:
  83              	.LFB3:
  46:.\signal_processing.c **** 
  47:.\signal_processing.c **** /*
  48:.\signal_processing.c **** parameters: s0 - Percent that sensor 0 is open
  49:.\signal_processing.c ****             s1 - Percent that sensor 1 is open
  50:.\signal_processing.c **** effect:     Checks for implausibility, then averages 
  51:.\signal_processing.c ****             the values
  52:.\signal_processing.c **** return:     ERROR if there is an implausibility,
  53:.\signal_processing.c ****             The average of the sensors otherwise
  54:.\signal_processing.c **** */
  55:.\signal_processing.c **** float average(float s0, float s1) {
  56:.\signal_processing.c ****     if(localImplausibility(s0, s1) == ERROR) {
  57:.\signal_processing.c ****         return ERROR;
  58:.\signal_processing.c ****     }
  59:.\signal_processing.c ****     return ((s0 + s1) / 2.0);
  60:.\signal_processing.c **** }
  61:.\signal_processing.c **** 
  62:.\signal_processing.c **** /*
  63:.\signal_processing.c **** parameters: tpsPos - The current throttle percentage
  64:.\signal_processing.c ****             appsPos - The requested throttle percentage
  65:.\signal_processing.c **** effect:     Checks for implausability between the tps and apps
  66:.\signal_processing.c ****             signals, and then calculates the next position of
  67:.\signal_processing.c ****             the throttle actuator.
  68:.\signal_processing.c **** return:     ERROR if there is an implausibility, the next
  69:.\signal_processing.c ****             desired servo position otherwise.
  70:.\signal_processing.c **** */
  71:.\signal_processing.c **** 
  72:.\signal_processing.c **** float nextThrottlePosition(float requested_pos, float curr_pos, 
  73:.\signal_processing.c ****                            float prev_request, Error_Buffer * errs) {
  74:.\signal_processing.c ****     if (globalImplausibility(curr_pos, prev_request, errs) == ERROR) {
  75:.\signal_processing.c ****         return ERROR;
  76:.\signal_processing.c ****     }
  77:.\signal_processing.c ****     return requested_pos;
  78:.\signal_processing.c **** }
  79:.\signal_processing.c ****                         
  80:.\signal_processing.c **** /*
  81:.\signal_processing.c **** return: An Error_Buffer initialized with all 0.0s
  82:.\signal_processing.c **** */
  83:.\signal_processing.c **** Error_Buffer * createErrorBuffer() {
  84              		.loc 1 83 0
  85              		.cfi_startproc
  86              		@ args = 0, pretend = 0, frame = 0
  87              		@ frame_needed = 0, uses_anonymous_args = 0
  88 0000 10B5     		push	{r4, lr}
ARM GAS  C:\Users\mitchell\AppData\Local\Temp\ccpuU8Dz.s 			page 4


  89              		.cfi_def_cfa_offset 8
  90              		.cfi_offset 4, -8
  91              		.cfi_offset 14, -4
  84:.\signal_processing.c ****     Error_Buffer * eb = (Error_Buffer*)malloc(sizeof(Error_Buffer));
  92              		.loc 1 84 0
  93 0002 0C20     		movs	r0, #12
  94 0004 FFF7FEFF 		bl	malloc
  95              	.LVL8:
  96 0008 0446     		mov	r4, r0
  97              	.LVL9:
  85:.\signal_processing.c ****     eb->errQ = createQueue(ERROR_BUFFER_SIZE);
  98              		.loc 1 85 0
  99 000a C820     		movs	r0, #200
 100              	.LVL10:
 101 000c FFF7FEFF 		bl	createQueue
 102              	.LVL11:
 103 0010 2060     		str	r0, [r4]
  86:.\signal_processing.c ****     eb->sum = 0.0;
 104              		.loc 1 86 0
 105 0012 0023     		movs	r3, #0
 106 0014 6360     		str	r3, [r4, #4]	@ float
  87:.\signal_processing.c ****     eb->avg = 0.0;
 107              		.loc 1 87 0
 108 0016 A360     		str	r3, [r4, #8]	@ float
  88:.\signal_processing.c ****     return eb;
  89:.\signal_processing.c **** }
 109              		.loc 1 89 0
 110 0018 2046     		mov	r0, r4
 111 001a 10BD     		pop	{r4, pc}
 112              		.cfi_endproc
 113              	.LFE3:
 114              		.size	createErrorBuffer, .-createErrorBuffer
 115              		.global	__aeabi_fadd
 116              		.global	__aeabi_fsub
 117              		.section	.text.updateErrorBuffer,"ax",%progbits
 118              		.align	2
 119              		.global	updateErrorBuffer
 120              		.thumb
 121              		.thumb_func
 122              		.type	updateErrorBuffer, %function
 123              	updateErrorBuffer:
 124              	.LFB4:
  90:.\signal_processing.c **** 
  91:.\signal_processing.c **** /*
  92:.\signal_processing.c **** parameter:  eb - The Error_Buffer to update
  93:.\signal_processing.c ****             newErr - The new error to update it with
  94:.\signal_processing.c **** effect:     Adds the new error to the start of the queue
  95:.\signal_processing.c ****             Removes the least recent error
  96:.\signal_processing.c ****             Updates the sum and average accordingly
  97:.\signal_processing.c **** */
  98:.\signal_processing.c **** void updateErrorBuffer(Error_Buffer * eb, float newErr) {
 125              		.loc 1 98 0
 126              		.cfi_startproc
 127              		@ args = 0, pretend = 0, frame = 0
 128              		@ frame_needed = 0, uses_anonymous_args = 0
 129              	.LVL12:
 130 0000 38B5     		push	{r3, r4, r5, lr}
ARM GAS  C:\Users\mitchell\AppData\Local\Temp\ccpuU8Dz.s 			page 5


 131              		.cfi_def_cfa_offset 16
 132              		.cfi_offset 3, -16
 133              		.cfi_offset 4, -12
 134              		.cfi_offset 5, -8
 135              		.cfi_offset 14, -4
 136 0002 0446     		mov	r4, r0
 137 0004 0D46     		mov	r5, r1
  99:.\signal_processing.c ****     // Add newErr to sum
 100:.\signal_processing.c ****     eb->errQ->enq(newErr);
 138              		.loc 1 100 0
 139 0006 0368     		ldr	r3, [r0]
 140 0008 1B68     		ldr	r3, [r3]
 141 000a 0846     		mov	r0, r1
 142              	.LVL13:
 143 000c 9847     		blx	r3
 144              	.LVL14:
 101:.\signal_processing.c ****     eb->sum += newErr;
 145              		.loc 1 101 0
 146 000e 2846     		mov	r0, r5
 147 0010 6168     		ldr	r1, [r4, #4]	@ float
 148 0012 FFF7FEFF 		bl	__aeabi_fadd
 149              	.LVL15:
 150 0016 0546     		mov	r5, r0
 151              	.LVL16:
 152 0018 6060     		str	r0, [r4, #4]	@ float
 102:.\signal_processing.c ****     
 103:.\signal_processing.c ****     // Subtract the least recent error
 104:.\signal_processing.c ****     eb->sum -= eb->errQ->deq();
 153              		.loc 1 104 0
 154 001a 2368     		ldr	r3, [r4]
 155 001c 5B68     		ldr	r3, [r3, #4]
 156 001e 9847     		blx	r3
 157              	.LVL17:
 158 0020 0146     		mov	r1, r0
 159 0022 2846     		mov	r0, r5
 160 0024 FFF7FEFF 		bl	__aeabi_fsub
 161              	.LVL18:
 162 0028 6060     		str	r0, [r4, #4]	@ float
 105:.\signal_processing.c ****     
 106:.\signal_processing.c ****     // Update average
 107:.\signal_processing.c ****     eb->avg = eb->sum / ERROR_BUFFER_SIZE;
 163              		.loc 1 107 0
 164 002a 0249     		ldr	r1, .L11
 165 002c FFF7FEFF 		bl	__aeabi_fdiv
 166              	.LVL19:
 167 0030 A060     		str	r0, [r4, #8]	@ float
 168 0032 38BD     		pop	{r3, r4, r5, pc}
 169              	.LVL20:
 170              	.L12:
 171              		.align	2
 172              	.L11:
 173 0034 00004843 		.word	1128792064
 174              		.cfi_endproc
 175              	.LFE4:
 176              		.size	updateErrorBuffer, .-updateErrorBuffer
 177              		.global	__aeabi_f2d
 178              		.global	__aeabi_dcmplt
ARM GAS  C:\Users\mitchell\AppData\Local\Temp\ccpuU8Dz.s 			page 6


 179              		.global	__aeabi_dcmpgt
 180              		.section	.text.localImplausibility,"ax",%progbits
 181              		.align	2
 182              		.global	localImplausibility
 183              		.thumb
 184              		.thumb_func
 185              		.type	localImplausibility, %function
 186              	localImplausibility:
 187              	.LFB5:
 108:.\signal_processing.c **** }
 109:.\signal_processing.c **** 
 110:.\signal_processing.c **** /*
 111:.\signal_processing.c **** parameter:  sens_0 - The first sensor
 112:.\signal_processing.c ****             sens_1 - The second sensor
 113:.\signal_processing.c **** effect:     Checks to make sure both sensors are within 10% 
 114:.\signal_processing.c ****             of each other
 115:.\signal_processing.c **** return:     ERROR if there is an error, a non-error output
 116:.\signal_processing.c ****             otherwise
 117:.\signal_processing.c **** */
 118:.\signal_processing.c **** int localImplausibility(float sens_0, float sens_1) {
 188              		.loc 1 118 0
 189              		.cfi_startproc
 190              		@ args = 0, pretend = 0, frame = 0
 191              		@ frame_needed = 0, uses_anonymous_args = 0
 192              	.LVL21:
 193 0000 38B5     		push	{r3, r4, r5, lr}
 194              		.cfi_def_cfa_offset 16
 195              		.cfi_offset 3, -16
 196              		.cfi_offset 4, -12
 197              		.cfi_offset 5, -8
 198              		.cfi_offset 14, -4
 119:.\signal_processing.c ****     float diff = fabs(sens_0 - sens_1);
 199              		.loc 1 119 0
 200 0002 FFF7FEFF 		bl	__aeabi_fsub
 201              	.LVL22:
 202 0006 20F00040 		bic	r0, r0, #-2147483648
 203              	.LVL23:
 120:.\signal_processing.c ****     if (diff < 0.10 && diff > -0.10) {
 204              		.loc 1 120 0
 205 000a FFF7FEFF 		bl	__aeabi_f2d
 206              	.LVL24:
 207 000e 0446     		mov	r4, r0
 208 0010 0D46     		mov	r5, r1
 209 0012 0BA3     		adr	r3, .L20
 210 0014 D3E90023 		ldrd	r2, [r3]
 211 0018 FFF7FEFF 		bl	__aeabi_dcmplt
 212              	.LVL25:
 213 001c 50B1     		cbz	r0, .L19
 214              		.loc 1 120 0 is_stmt 0 discriminator 1
 215 001e 2046     		mov	r0, r4
 216 0020 2946     		mov	r1, r5
 217 0022 09A3     		adr	r3, .L20+8
 218 0024 D3E90023 		ldrd	r2, [r3]
 219 0028 FFF7FEFF 		bl	__aeabi_dcmpgt
 220              	.LVL26:
 221 002c 28B9     		cbnz	r0, .L17
 121:.\signal_processing.c ****         return 1;
ARM GAS  C:\Users\mitchell\AppData\Local\Temp\ccpuU8Dz.s 			page 7


 122:.\signal_processing.c ****     } else {
 123:.\signal_processing.c ****         return ERROR;
 222              		.loc 1 123 0 is_stmt 1
 223 002e 4FF0FF30 		mov	r0, #-1
 224 0032 38BD     		pop	{r3, r4, r5, pc}
 225              	.L19:
 226 0034 4FF0FF30 		mov	r0, #-1
 227 0038 38BD     		pop	{r3, r4, r5, pc}
 228              	.L17:
 121:.\signal_processing.c ****         return 1;
 229              		.loc 1 121 0
 230 003a 0120     		movs	r0, #1
 124:.\signal_processing.c ****     }
 125:.\signal_processing.c **** }
 231              		.loc 1 125 0
 232 003c 38BD     		pop	{r3, r4, r5, pc}
 233              	.L21:
 234 003e 00BF     		.align	3
 235              	.L20:
 236 0040 9A999999 		.word	-1717986918
 237 0044 9999B93F 		.word	1069128089
 238 0048 9A999999 		.word	-1717986918
 239 004c 9999B9BF 		.word	-1078355559
 240              		.cfi_endproc
 241              	.LFE5:
 242              		.size	localImplausibility, .-localImplausibility
 243              		.global	__aeabi_fmul
 244              		.section	.text.average,"ax",%progbits
 245              		.align	2
 246              		.global	average
 247              		.thumb
 248              		.thumb_func
 249              		.type	average, %function
 250              	average:
 251              	.LFB1:
  55:.\signal_processing.c **** float average(float s0, float s1) {
 252              		.loc 1 55 0
 253              		.cfi_startproc
 254              		@ args = 0, pretend = 0, frame = 0
 255              		@ frame_needed = 0, uses_anonymous_args = 0
 256              	.LVL27:
 257 0000 38B5     		push	{r3, r4, r5, lr}
 258              		.cfi_def_cfa_offset 16
 259              		.cfi_offset 3, -16
 260              		.cfi_offset 4, -12
 261              		.cfi_offset 5, -8
 262              		.cfi_offset 14, -4
 263 0002 0546     		mov	r5, r0
 264 0004 0C46     		mov	r4, r1
  56:.\signal_processing.c ****     if(localImplausibility(s0, s1) == ERROR) {
 265              		.loc 1 56 0
 266 0006 FFF7FEFF 		bl	localImplausibility
 267              	.LVL28:
 268 000a B0F1FF3F 		cmp	r0, #-1
 269 000e 08D0     		beq	.L24
  59:.\signal_processing.c ****     return ((s0 + s1) / 2.0);
 270              		.loc 1 59 0
ARM GAS  C:\Users\mitchell\AppData\Local\Temp\ccpuU8Dz.s 			page 8


 271 0010 2846     		mov	r0, r5
 272 0012 2146     		mov	r1, r4
 273 0014 FFF7FEFF 		bl	__aeabi_fadd
 274              	.LVL29:
 275 0018 4FF07C51 		mov	r1, #1056964608
 276 001c FFF7FEFF 		bl	__aeabi_fmul
 277              	.LVL30:
 278 0020 38BD     		pop	{r3, r4, r5, pc}
 279              	.LVL31:
 280              	.L24:
  57:.\signal_processing.c ****         return ERROR;
 281              		.loc 1 57 0
 282 0022 0148     		ldr	r0, .L25
  60:.\signal_processing.c **** }
 283              		.loc 1 60 0
 284 0024 38BD     		pop	{r3, r4, r5, pc}
 285              	.LVL32:
 286              	.L26:
 287 0026 00BF     		.align	2
 288              	.L25:
 289 0028 000080BF 		.word	-1082130432
 290              		.cfi_endproc
 291              	.LFE1:
 292              		.size	average, .-average
 293              		.section	.text.globalImplausibility,"ax",%progbits
 294              		.align	2
 295              		.global	globalImplausibility
 296              		.thumb
 297              		.thumb_func
 298              		.type	globalImplausibility, %function
 299              	globalImplausibility:
 300              	.LFB6:
 126:.\signal_processing.c **** 
 127:.\signal_processing.c **** /*
 128:.\signal_processing.c **** parameter:  curr_tps - The current TPS reading
 129:.\signal_processing.c ****             exp_tps - The expected TPS reading
 130:.\signal_processing.c **** effect:     Checks to make average error between current and
 131:.\signal_processing.c ****             expected TPS reading has not been greater than 10%
 132:.\signal_processing.c ****             for > 1 sec
 133:.\signal_processing.c **** return:     ERROR if there is an error, a non-error output
 134:.\signal_processing.c ****             otherwise
 135:.\signal_processing.c **** */
 136:.\signal_processing.c **** int globalImplausibility(float curr_tps, float expected_tps, 
 137:.\signal_processing.c ****                             Error_Buffer * eb) {
 301              		.loc 1 137 0
 302              		.cfi_startproc
 303              		@ args = 0, pretend = 0, frame = 0
 304              		@ frame_needed = 0, uses_anonymous_args = 0
 305              	.LVL33:
 306 0000 10B5     		push	{r4, lr}
 307              		.cfi_def_cfa_offset 8
 308              		.cfi_offset 4, -8
 309              		.cfi_offset 14, -4
 310 0002 1446     		mov	r4, r2
 138:.\signal_processing.c ****     float newErr = fabs(curr_tps - expected_tps);
 311              		.loc 1 138 0
 312 0004 FFF7FEFF 		bl	__aeabi_fsub
ARM GAS  C:\Users\mitchell\AppData\Local\Temp\ccpuU8Dz.s 			page 9


 313              	.LVL34:
 314 0008 20F00041 		bic	r1, r0, #-2147483648
 315              	.LVL35:
 139:.\signal_processing.c ****     updateErrorBuffer(eb, newErr);
 316              		.loc 1 139 0
 317 000c 2046     		mov	r0, r4
 318 000e FFF7FEFF 		bl	updateErrorBuffer
 319              	.LVL36:
 140:.\signal_processing.c ****     if (eb->avg > 0.10) {
 320              		.loc 1 140 0
 321 0012 A068     		ldr	r0, [r4, #8]	@ float
 322 0014 FFF7FEFF 		bl	__aeabi_f2d
 323              	.LVL37:
 324 0018 05A3     		adr	r3, .L33
 325 001a D3E90023 		ldrd	r2, [r3]
 326 001e FFF7FEFF 		bl	__aeabi_dcmpgt
 327              	.LVL38:
 328 0022 10B1     		cbz	r0, .L32
 141:.\signal_processing.c ****         return ERROR;
 329              		.loc 1 141 0
 330 0024 4FF0FF30 		mov	r0, #-1
 331 0028 10BD     		pop	{r4, pc}
 332              	.LVL39:
 333              	.L32:
 142:.\signal_processing.c ****     } else {
 143:.\signal_processing.c ****         return 1;
 334              		.loc 1 143 0
 335 002a 0120     		movs	r0, #1
 144:.\signal_processing.c ****     }
 145:.\signal_processing.c **** }
 336              		.loc 1 145 0
 337 002c 10BD     		pop	{r4, pc}
 338              	.LVL40:
 339              	.L34:
 340 002e 00BF     		.align	3
 341              	.L33:
 342 0030 9A999999 		.word	-1717986918
 343 0034 9999B93F 		.word	1069128089
 344              		.cfi_endproc
 345              	.LFE6:
 346              		.size	globalImplausibility, .-globalImplausibility
 347              		.section	.text.nextThrottlePosition,"ax",%progbits
 348              		.align	2
 349              		.global	nextThrottlePosition
 350              		.thumb
 351              		.thumb_func
 352              		.type	nextThrottlePosition, %function
 353              	nextThrottlePosition:
 354              	.LFB2:
  73:.\signal_processing.c ****                            float prev_request, Error_Buffer * errs) {
 355              		.loc 1 73 0
 356              		.cfi_startproc
 357              		@ args = 0, pretend = 0, frame = 0
 358              		@ frame_needed = 0, uses_anonymous_args = 0
 359              	.LVL41:
 360 0000 10B5     		push	{r4, lr}
 361              		.cfi_def_cfa_offset 8
ARM GAS  C:\Users\mitchell\AppData\Local\Temp\ccpuU8Dz.s 			page 10


 362              		.cfi_offset 4, -8
 363              		.cfi_offset 14, -4
 364 0002 0446     		mov	r4, r0
  74:.\signal_processing.c ****     if (globalImplausibility(curr_pos, prev_request, errs) == ERROR) {
 365              		.loc 1 74 0
 366 0004 0846     		mov	r0, r1
 367              	.LVL42:
 368 0006 1146     		mov	r1, r2
 369              	.LVL43:
 370 0008 1A46     		mov	r2, r3
 371              	.LVL44:
 372 000a FFF7FEFF 		bl	globalImplausibility
 373              	.LVL45:
 374 000e B0F1FF3F 		cmp	r0, #-1
 375 0012 01D1     		bne	.L37
  75:.\signal_processing.c ****         return ERROR;
 376              		.loc 1 75 0
 377 0014 0148     		ldr	r0, .L38
 378 0016 10BD     		pop	{r4, pc}
 379              	.LVL46:
 380              	.L37:
  77:.\signal_processing.c ****     return requested_pos;
 381              		.loc 1 77 0
 382 0018 2046     		mov	r0, r4
  78:.\signal_processing.c **** }
 383              		.loc 1 78 0
 384 001a 10BD     		pop	{r4, pc}
 385              	.LVL47:
 386              	.L39:
 387              		.align	2
 388              	.L38:
 389 001c 000080BF 		.word	-1082130432
 390              		.cfi_endproc
 391              	.LFE2:
 392              		.size	nextThrottlePosition, .-nextThrottlePosition
 393              		.text
 394              	.Letext0:
 395              		.file 2 "Generated_Source\\PSoC5/cytypes.h"
 396              		.file 3 "c:\\program files (x86)\\cypress\\psoc creator\\3.2\\psoc creator\\import\\gnu\\arm\\4.8.
 397              		.file 4 ".\\queue.h"
 398              		.file 5 ".\\signal_processing.h"
 399              		.file 6 "c:\\program files (x86)\\cypress\\psoc creator\\3.2\\psoc creator\\import\\gnu\\arm\\4.8.