ARM GAS  C:\Users\mitchell\AppData\Local\Temp\ccUMdrT9.s 			page 1


   1              		.syntax unified
   2              		.cpu cortex-m3
   3              		.fpu softvfp
   4              		.eabi_attribute 20, 1
   5              		.eabi_attribute 21, 1
   6              		.eabi_attribute 23, 3
   7              		.eabi_attribute 24, 1
   8              		.eabi_attribute 25, 1
   9              		.eabi_attribute 26, 1
  10              		.eabi_attribute 30, 1
  11              		.eabi_attribute 34, 1
  12              		.eabi_attribute 18, 4
  13              		.thumb
  14              		.file	"Timer_PM.c"
  15              		.text
  16              	.Ltext0:
  17              		.cfi_sections	.debug_frame
  18              		.section	.text.Timer_SaveConfig,"ax",%progbits
  19              		.align	2
  20              		.global	Timer_SaveConfig
  21              		.thumb
  22              		.thumb_func
  23              		.type	Timer_SaveConfig, %function
  24              	Timer_SaveConfig:
  25              	.LFB0:
  26              		.file 1 ".\\Generated_Source\\PSoC5\\Timer_PM.c"
   1:.\Generated_Source\PSoC5/Timer_PM.c **** /*******************************************************************************
   2:.\Generated_Source\PSoC5/Timer_PM.c **** * File Name: Timer_PM.c
   3:.\Generated_Source\PSoC5/Timer_PM.c **** * Version 2.70
   4:.\Generated_Source\PSoC5/Timer_PM.c **** *
   5:.\Generated_Source\PSoC5/Timer_PM.c **** *  Description:
   6:.\Generated_Source\PSoC5/Timer_PM.c **** *     This file provides the power management source code to API for the
   7:.\Generated_Source\PSoC5/Timer_PM.c **** *     Timer.
   8:.\Generated_Source\PSoC5/Timer_PM.c **** *
   9:.\Generated_Source\PSoC5/Timer_PM.c **** *   Note:
  10:.\Generated_Source\PSoC5/Timer_PM.c **** *     None
  11:.\Generated_Source\PSoC5/Timer_PM.c **** *
  12:.\Generated_Source\PSoC5/Timer_PM.c **** *******************************************************************************
  13:.\Generated_Source\PSoC5/Timer_PM.c **** * Copyright 2008-2014, Cypress Semiconductor Corporation.  All rights reserved.
  14:.\Generated_Source\PSoC5/Timer_PM.c **** * You may use this file only in accordance with the license, terms, conditions,
  15:.\Generated_Source\PSoC5/Timer_PM.c **** * disclaimers, and limitations in the end user license agreement accompanying
  16:.\Generated_Source\PSoC5/Timer_PM.c **** * the software package with which this file was provided.
  17:.\Generated_Source\PSoC5/Timer_PM.c **** ********************************************************************************/
  18:.\Generated_Source\PSoC5/Timer_PM.c **** 
  19:.\Generated_Source\PSoC5/Timer_PM.c **** #include "Timer.h"
  20:.\Generated_Source\PSoC5/Timer_PM.c **** 
  21:.\Generated_Source\PSoC5/Timer_PM.c **** static Timer_backupStruct Timer_backup;
  22:.\Generated_Source\PSoC5/Timer_PM.c **** 
  23:.\Generated_Source\PSoC5/Timer_PM.c **** 
  24:.\Generated_Source\PSoC5/Timer_PM.c **** /*******************************************************************************
  25:.\Generated_Source\PSoC5/Timer_PM.c **** * Function Name: Timer_SaveConfig
  26:.\Generated_Source\PSoC5/Timer_PM.c **** ********************************************************************************
  27:.\Generated_Source\PSoC5/Timer_PM.c **** *
  28:.\Generated_Source\PSoC5/Timer_PM.c **** * Summary:
  29:.\Generated_Source\PSoC5/Timer_PM.c **** *     Save the current user configuration
  30:.\Generated_Source\PSoC5/Timer_PM.c **** *
  31:.\Generated_Source\PSoC5/Timer_PM.c **** * Parameters:
ARM GAS  C:\Users\mitchell\AppData\Local\Temp\ccUMdrT9.s 			page 2


  32:.\Generated_Source\PSoC5/Timer_PM.c **** *  void
  33:.\Generated_Source\PSoC5/Timer_PM.c **** *
  34:.\Generated_Source\PSoC5/Timer_PM.c **** * Return:
  35:.\Generated_Source\PSoC5/Timer_PM.c **** *  void
  36:.\Generated_Source\PSoC5/Timer_PM.c **** *
  37:.\Generated_Source\PSoC5/Timer_PM.c **** * Global variables:
  38:.\Generated_Source\PSoC5/Timer_PM.c **** *  Timer_backup:  Variables of this global structure are modified to
  39:.\Generated_Source\PSoC5/Timer_PM.c **** *  store the values of non retention configuration registers when Sleep() API is
  40:.\Generated_Source\PSoC5/Timer_PM.c **** *  called.
  41:.\Generated_Source\PSoC5/Timer_PM.c **** *
  42:.\Generated_Source\PSoC5/Timer_PM.c **** *******************************************************************************/
  43:.\Generated_Source\PSoC5/Timer_PM.c **** void Timer_SaveConfig(void) 
  44:.\Generated_Source\PSoC5/Timer_PM.c **** {
  27              		.loc 1 44 0
  28              		.cfi_startproc
  29              		@ args = 0, pretend = 0, frame = 0
  30              		@ frame_needed = 0, uses_anonymous_args = 0
  31 0000 10B5     		push	{r4, lr}
  32              		.cfi_def_cfa_offset 8
  33              		.cfi_offset 4, -8
  34              		.cfi_offset 14, -4
  45:.\Generated_Source\PSoC5/Timer_PM.c ****     #if (!Timer_UsingFixedFunction)
  46:.\Generated_Source\PSoC5/Timer_PM.c ****         Timer_backup.TimerUdb = Timer_ReadCounter();
  35              		.loc 1 46 0
  36 0002 FFF7FEFF 		bl	Timer_ReadCounter
  37              	.LVL0:
  38 0006 044C     		ldr	r4, .L2
  39 0008 6060     		str	r0, [r4, #4]
  47:.\Generated_Source\PSoC5/Timer_PM.c ****         Timer_backup.InterruptMaskValue = Timer_STATUS_MASK;
  40              		.loc 1 47 0
  41 000a 044B     		ldr	r3, .L2+4
  42 000c 1B78     		ldrb	r3, [r3]	@ zero_extendqisi2
  43 000e 2372     		strb	r3, [r4, #8]
  48:.\Generated_Source\PSoC5/Timer_PM.c ****         #if (Timer_UsingHWCaptureCounter)
  49:.\Generated_Source\PSoC5/Timer_PM.c ****             Timer_backup.TimerCaptureCounter = Timer_ReadCaptureCount();
  50:.\Generated_Source\PSoC5/Timer_PM.c ****         #endif /* Back Up capture counter register  */
  51:.\Generated_Source\PSoC5/Timer_PM.c **** 
  52:.\Generated_Source\PSoC5/Timer_PM.c ****         #if(!Timer_UDB_CONTROL_REG_REMOVED)
  53:.\Generated_Source\PSoC5/Timer_PM.c ****             Timer_backup.TimerControlRegister = Timer_ReadControlRegister();
  44              		.loc 1 53 0
  45 0010 FFF7FEFF 		bl	Timer_ReadControlRegister
  46              	.LVL1:
  47 0014 6072     		strb	r0, [r4, #9]
  48 0016 10BD     		pop	{r4, pc}
  49              	.L3:
  50              		.align	2
  51              	.L2:
  52 0018 00000000 		.word	.LANCHOR0
  53 001c 85640040 		.word	1073767557
  54              		.cfi_endproc
  55              	.LFE0:
  56              		.size	Timer_SaveConfig, .-Timer_SaveConfig
  57              		.section	.text.Timer_RestoreConfig,"ax",%progbits
  58              		.align	2
  59              		.global	Timer_RestoreConfig
  60              		.thumb
  61              		.thumb_func
ARM GAS  C:\Users\mitchell\AppData\Local\Temp\ccUMdrT9.s 			page 3


  62              		.type	Timer_RestoreConfig, %function
  63              	Timer_RestoreConfig:
  64              	.LFB1:
  54:.\Generated_Source\PSoC5/Timer_PM.c ****         #endif /* Backup the enable state of the Timer component */
  55:.\Generated_Source\PSoC5/Timer_PM.c ****     #endif /* Backup non retention registers in UDB implementation. All fixed function registers ar
  56:.\Generated_Source\PSoC5/Timer_PM.c **** }
  57:.\Generated_Source\PSoC5/Timer_PM.c **** 
  58:.\Generated_Source\PSoC5/Timer_PM.c **** 
  59:.\Generated_Source\PSoC5/Timer_PM.c **** /*******************************************************************************
  60:.\Generated_Source\PSoC5/Timer_PM.c **** * Function Name: Timer_RestoreConfig
  61:.\Generated_Source\PSoC5/Timer_PM.c **** ********************************************************************************
  62:.\Generated_Source\PSoC5/Timer_PM.c **** *
  63:.\Generated_Source\PSoC5/Timer_PM.c **** * Summary:
  64:.\Generated_Source\PSoC5/Timer_PM.c **** *  Restores the current user configuration.
  65:.\Generated_Source\PSoC5/Timer_PM.c **** *
  66:.\Generated_Source\PSoC5/Timer_PM.c **** * Parameters:
  67:.\Generated_Source\PSoC5/Timer_PM.c **** *  void
  68:.\Generated_Source\PSoC5/Timer_PM.c **** *
  69:.\Generated_Source\PSoC5/Timer_PM.c **** * Return:
  70:.\Generated_Source\PSoC5/Timer_PM.c **** *  void
  71:.\Generated_Source\PSoC5/Timer_PM.c **** *
  72:.\Generated_Source\PSoC5/Timer_PM.c **** * Global variables:
  73:.\Generated_Source\PSoC5/Timer_PM.c **** *  Timer_backup:  Variables of this global structure are used to
  74:.\Generated_Source\PSoC5/Timer_PM.c **** *  restore the values of non retention registers on wakeup from sleep mode.
  75:.\Generated_Source\PSoC5/Timer_PM.c **** *
  76:.\Generated_Source\PSoC5/Timer_PM.c **** *******************************************************************************/
  77:.\Generated_Source\PSoC5/Timer_PM.c **** void Timer_RestoreConfig(void) 
  78:.\Generated_Source\PSoC5/Timer_PM.c **** {   
  65              		.loc 1 78 0
  66              		.cfi_startproc
  67              		@ args = 0, pretend = 0, frame = 0
  68              		@ frame_needed = 0, uses_anonymous_args = 0
  69 0000 10B5     		push	{r4, lr}
  70              		.cfi_def_cfa_offset 8
  71              		.cfi_offset 4, -8
  72              		.cfi_offset 14, -4
  79:.\Generated_Source\PSoC5/Timer_PM.c ****     #if (!Timer_UsingFixedFunction)
  80:.\Generated_Source\PSoC5/Timer_PM.c **** 
  81:.\Generated_Source\PSoC5/Timer_PM.c ****         Timer_WriteCounter(Timer_backup.TimerUdb);
  73              		.loc 1 81 0
  74 0002 054C     		ldr	r4, .L5
  75 0004 6068     		ldr	r0, [r4, #4]
  76 0006 FFF7FEFF 		bl	Timer_WriteCounter
  77              	.LVL2:
  82:.\Generated_Source\PSoC5/Timer_PM.c ****         Timer_STATUS_MASK =Timer_backup.InterruptMaskValue;
  78              		.loc 1 82 0
  79 000a 227A     		ldrb	r2, [r4, #8]	@ zero_extendqisi2
  80 000c 034B     		ldr	r3, .L5+4
  81 000e 1A70     		strb	r2, [r3]
  83:.\Generated_Source\PSoC5/Timer_PM.c ****         #if (Timer_UsingHWCaptureCounter)
  84:.\Generated_Source\PSoC5/Timer_PM.c ****             Timer_SetCaptureCount(Timer_backup.TimerCaptureCounter);
  85:.\Generated_Source\PSoC5/Timer_PM.c ****         #endif /* Restore Capture counter register*/
  86:.\Generated_Source\PSoC5/Timer_PM.c **** 
  87:.\Generated_Source\PSoC5/Timer_PM.c ****         #if(!Timer_UDB_CONTROL_REG_REMOVED)
  88:.\Generated_Source\PSoC5/Timer_PM.c ****             Timer_WriteControlRegister(Timer_backup.TimerControlRegister);
  82              		.loc 1 88 0
  83 0010 607A     		ldrb	r0, [r4, #9]	@ zero_extendqisi2
ARM GAS  C:\Users\mitchell\AppData\Local\Temp\ccUMdrT9.s 			page 4


  84 0012 FFF7FEFF 		bl	Timer_WriteControlRegister
  85              	.LVL3:
  86 0016 10BD     		pop	{r4, pc}
  87              	.L6:
  88              		.align	2
  89              	.L5:
  90 0018 00000000 		.word	.LANCHOR0
  91 001c 85640040 		.word	1073767557
  92              		.cfi_endproc
  93              	.LFE1:
  94              		.size	Timer_RestoreConfig, .-Timer_RestoreConfig
  95              		.section	.text.Timer_Sleep,"ax",%progbits
  96              		.align	2
  97              		.global	Timer_Sleep
  98              		.thumb
  99              		.thumb_func
 100              		.type	Timer_Sleep, %function
 101              	Timer_Sleep:
 102              	.LFB2:
  89:.\Generated_Source\PSoC5/Timer_PM.c ****         #endif /* Restore the enable state of the Timer component */
  90:.\Generated_Source\PSoC5/Timer_PM.c ****     #endif /* Restore non retention registers in the UDB implementation only */
  91:.\Generated_Source\PSoC5/Timer_PM.c **** }
  92:.\Generated_Source\PSoC5/Timer_PM.c **** 
  93:.\Generated_Source\PSoC5/Timer_PM.c **** 
  94:.\Generated_Source\PSoC5/Timer_PM.c **** /*******************************************************************************
  95:.\Generated_Source\PSoC5/Timer_PM.c **** * Function Name: Timer_Sleep
  96:.\Generated_Source\PSoC5/Timer_PM.c **** ********************************************************************************
  97:.\Generated_Source\PSoC5/Timer_PM.c **** *
  98:.\Generated_Source\PSoC5/Timer_PM.c **** * Summary:
  99:.\Generated_Source\PSoC5/Timer_PM.c **** *     Stop and Save the user configuration
 100:.\Generated_Source\PSoC5/Timer_PM.c **** *
 101:.\Generated_Source\PSoC5/Timer_PM.c **** * Parameters:
 102:.\Generated_Source\PSoC5/Timer_PM.c **** *  void
 103:.\Generated_Source\PSoC5/Timer_PM.c **** *
 104:.\Generated_Source\PSoC5/Timer_PM.c **** * Return:
 105:.\Generated_Source\PSoC5/Timer_PM.c **** *  void
 106:.\Generated_Source\PSoC5/Timer_PM.c **** *
 107:.\Generated_Source\PSoC5/Timer_PM.c **** * Global variables:
 108:.\Generated_Source\PSoC5/Timer_PM.c **** *  Timer_backup.TimerEnableState:  Is modified depending on the
 109:.\Generated_Source\PSoC5/Timer_PM.c **** *  enable state of the block before entering sleep mode.
 110:.\Generated_Source\PSoC5/Timer_PM.c **** *
 111:.\Generated_Source\PSoC5/Timer_PM.c **** *******************************************************************************/
 112:.\Generated_Source\PSoC5/Timer_PM.c **** void Timer_Sleep(void) 
 113:.\Generated_Source\PSoC5/Timer_PM.c **** {
 103              		.loc 1 113 0
 104              		.cfi_startproc
 105              		@ args = 0, pretend = 0, frame = 0
 106              		@ frame_needed = 0, uses_anonymous_args = 0
 107 0000 08B5     		push	{r3, lr}
 108              		.cfi_def_cfa_offset 8
 109              		.cfi_offset 3, -8
 110              		.cfi_offset 14, -4
 114:.\Generated_Source\PSoC5/Timer_PM.c ****     #if(!Timer_UDB_CONTROL_REG_REMOVED)
 115:.\Generated_Source\PSoC5/Timer_PM.c ****         /* Save Counter's enable state */
 116:.\Generated_Source\PSoC5/Timer_PM.c ****         if(Timer_CTRL_ENABLE == (Timer_CONTROL & Timer_CTRL_ENABLE))
 111              		.loc 1 116 0
 112 0002 084B     		ldr	r3, .L10
ARM GAS  C:\Users\mitchell\AppData\Local\Temp\ccUMdrT9.s 			page 5


 113 0004 1B78     		ldrb	r3, [r3]	@ zero_extendqisi2
 114 0006 13F0800F 		tst	r3, #128
 115 000a 03D0     		beq	.L8
 117:.\Generated_Source\PSoC5/Timer_PM.c ****         {
 118:.\Generated_Source\PSoC5/Timer_PM.c ****             /* Timer is enabled */
 119:.\Generated_Source\PSoC5/Timer_PM.c ****             Timer_backup.TimerEnableState = 1u;
 116              		.loc 1 119 0
 117 000c 0122     		movs	r2, #1
 118 000e 064B     		ldr	r3, .L10+4
 119 0010 1A70     		strb	r2, [r3]
 120 0012 02E0     		b	.L9
 121              	.L8:
 120:.\Generated_Source\PSoC5/Timer_PM.c ****         }
 121:.\Generated_Source\PSoC5/Timer_PM.c ****         else
 122:.\Generated_Source\PSoC5/Timer_PM.c ****         {
 123:.\Generated_Source\PSoC5/Timer_PM.c ****             /* Timer is disabled */
 124:.\Generated_Source\PSoC5/Timer_PM.c ****             Timer_backup.TimerEnableState = 0u;
 122              		.loc 1 124 0
 123 0014 0022     		movs	r2, #0
 124 0016 044B     		ldr	r3, .L10+4
 125 0018 1A70     		strb	r2, [r3]
 126              	.L9:
 125:.\Generated_Source\PSoC5/Timer_PM.c ****         }
 126:.\Generated_Source\PSoC5/Timer_PM.c ****     #endif /* Back up enable state from the Timer control register */
 127:.\Generated_Source\PSoC5/Timer_PM.c ****     Timer_Stop();
 127              		.loc 1 127 0
 128 001a FFF7FEFF 		bl	Timer_Stop
 129              	.LVL4:
 128:.\Generated_Source\PSoC5/Timer_PM.c ****     Timer_SaveConfig();
 130              		.loc 1 128 0
 131 001e FFF7FEFF 		bl	Timer_SaveConfig
 132              	.LVL5:
 133 0022 08BD     		pop	{r3, pc}
 134              	.L11:
 135              		.align	2
 136              	.L10:
 137 0024 72640040 		.word	1073767538
 138 0028 00000000 		.word	.LANCHOR0
 139              		.cfi_endproc
 140              	.LFE2:
 141              		.size	Timer_Sleep, .-Timer_Sleep
 142              		.section	.text.Timer_Wakeup,"ax",%progbits
 143              		.align	2
 144              		.global	Timer_Wakeup
 145              		.thumb
 146              		.thumb_func
 147              		.type	Timer_Wakeup, %function
 148              	Timer_Wakeup:
 149              	.LFB3:
 129:.\Generated_Source\PSoC5/Timer_PM.c **** }
 130:.\Generated_Source\PSoC5/Timer_PM.c **** 
 131:.\Generated_Source\PSoC5/Timer_PM.c **** 
 132:.\Generated_Source\PSoC5/Timer_PM.c **** /*******************************************************************************
 133:.\Generated_Source\PSoC5/Timer_PM.c **** * Function Name: Timer_Wakeup
 134:.\Generated_Source\PSoC5/Timer_PM.c **** ********************************************************************************
 135:.\Generated_Source\PSoC5/Timer_PM.c **** *
 136:.\Generated_Source\PSoC5/Timer_PM.c **** * Summary:
ARM GAS  C:\Users\mitchell\AppData\Local\Temp\ccUMdrT9.s 			page 6


 137:.\Generated_Source\PSoC5/Timer_PM.c **** *  Restores and enables the user configuration
 138:.\Generated_Source\PSoC5/Timer_PM.c **** *
 139:.\Generated_Source\PSoC5/Timer_PM.c **** * Parameters:
 140:.\Generated_Source\PSoC5/Timer_PM.c **** *  void
 141:.\Generated_Source\PSoC5/Timer_PM.c **** *
 142:.\Generated_Source\PSoC5/Timer_PM.c **** * Return:
 143:.\Generated_Source\PSoC5/Timer_PM.c **** *  void
 144:.\Generated_Source\PSoC5/Timer_PM.c **** *
 145:.\Generated_Source\PSoC5/Timer_PM.c **** * Global variables:
 146:.\Generated_Source\PSoC5/Timer_PM.c **** *  Timer_backup.enableState:  Is used to restore the enable state of
 147:.\Generated_Source\PSoC5/Timer_PM.c **** *  block on wakeup from sleep mode.
 148:.\Generated_Source\PSoC5/Timer_PM.c **** *
 149:.\Generated_Source\PSoC5/Timer_PM.c **** *******************************************************************************/
 150:.\Generated_Source\PSoC5/Timer_PM.c **** void Timer_Wakeup(void) 
 151:.\Generated_Source\PSoC5/Timer_PM.c **** {
 150              		.loc 1 151 0
 151              		.cfi_startproc
 152              		@ args = 0, pretend = 0, frame = 0
 153              		@ frame_needed = 0, uses_anonymous_args = 0
 154 0000 08B5     		push	{r3, lr}
 155              		.cfi_def_cfa_offset 8
 156              		.cfi_offset 3, -8
 157              		.cfi_offset 14, -4
 152:.\Generated_Source\PSoC5/Timer_PM.c ****     Timer_RestoreConfig();
 158              		.loc 1 152 0
 159 0002 FFF7FEFF 		bl	Timer_RestoreConfig
 160              	.LVL6:
 153:.\Generated_Source\PSoC5/Timer_PM.c ****     #if(!Timer_UDB_CONTROL_REG_REMOVED)
 154:.\Generated_Source\PSoC5/Timer_PM.c ****         if(Timer_backup.TimerEnableState == 1u)
 161              		.loc 1 154 0
 162 0006 034B     		ldr	r3, .L14
 163 0008 1B78     		ldrb	r3, [r3]	@ zero_extendqisi2
 164 000a 012B     		cmp	r3, #1
 165 000c 01D1     		bne	.L12
 155:.\Generated_Source\PSoC5/Timer_PM.c ****         {     /* Enable Timer's operation */
 156:.\Generated_Source\PSoC5/Timer_PM.c ****                 Timer_Enable();
 166              		.loc 1 156 0
 167 000e FFF7FEFF 		bl	Timer_Enable
 168              	.LVL7:
 169              	.L12:
 170 0012 08BD     		pop	{r3, pc}
 171              	.L15:
 172              		.align	2
 173              	.L14:
 174 0014 00000000 		.word	.LANCHOR0
 175              		.cfi_endproc
 176              	.LFE3:
 177              		.size	Timer_Wakeup, .-Timer_Wakeup
 178              		.bss
 179              		.align	2
 180              		.set	.LANCHOR0,. + 0
 181              		.type	Timer_backup, %object
 182              		.size	Timer_backup, 12
 183              	Timer_backup:
 184 0000 00000000 		.space	12
 184      00000000 
 184      00000000 
ARM GAS  C:\Users\mitchell\AppData\Local\Temp\ccUMdrT9.s 			page 7


 185              		.text
 186              	.Letext0:
 187              		.file 2 ".\\Generated_Source\\PSoC5\\cytypes.h"
 188              		.file 3 ".\\Generated_Source\\PSoC5\\Timer.h"