ARM GAS  C:\Users\mitchell\AppData\Local\Temp\cclqk7v6.s 			page 1


   1              		.cpu cortex-m0
   2              		.fpu softvfp
   3              		.eabi_attribute 20, 1
   4              		.eabi_attribute 21, 1
   5              		.eabi_attribute 23, 3
   6              		.eabi_attribute 24, 1
   7              		.eabi_attribute 25, 1
   8              		.eabi_attribute 26, 1
   9              		.eabi_attribute 30, 6
  10              		.eabi_attribute 34, 0
  11              		.eabi_attribute 18, 4
  12              		.code	16
  13              		.file	"CapSense_1_CSHL.c"
  14              		.text
  15              	.Ltext0:
  16              		.cfi_sections	.debug_frame
  17              		.global	CapSense_1_sensorBaseline
  18              		.bss
  19              		.align	2
  20              		.type	CapSense_1_sensorBaseline, %object
  21              		.size	CapSense_1_sensorBaseline, 10
  22              	CapSense_1_sensorBaseline:
  23 0000 00000000 		.space	10
  23      00000000 
  23      0000
  24              		.global	CapSense_1_sensorBaselineLow
  25 000a 0000     		.align	2
  26              		.type	CapSense_1_sensorBaselineLow, %object
  27              		.size	CapSense_1_sensorBaselineLow, 5
  28              	CapSense_1_sensorBaselineLow:
  29 000c 00000000 		.space	5
  29      00
  30              		.global	CapSense_1_sensorSignal
  31 0011 000000   		.align	2
  32              		.type	CapSense_1_sensorSignal, %object
  33              		.size	CapSense_1_sensorSignal, 5
  34              	CapSense_1_sensorSignal:
  35 0014 00000000 		.space	5
  35      00
  36              		.global	CapSense_1_sensorOnMask
  37 0019 000000   		.align	2
  38              		.type	CapSense_1_sensorOnMask, %object
  39              		.size	CapSense_1_sensorOnMask, 1
  40              	CapSense_1_sensorOnMask:
  41 001c 00       		.space	1
  42              		.comm	CapSense_1_lowBaselineResetCnt,5,4
  43              		.global	CapSense_1_lowBaselineReset
  44              		.data
  45              		.align	2
  46              		.type	CapSense_1_lowBaselineReset, %object
  47              		.size	CapSense_1_lowBaselineReset, 5
  48              	CapSense_1_lowBaselineReset:
  49 0000 05       		.byte	5
  50 0001 05       		.byte	5
  51 0002 05       		.byte	5
  52 0003 05       		.byte	5
  53 0004 05       		.byte	5
ARM GAS  C:\Users\mitchell\AppData\Local\Temp\cclqk7v6.s 			page 2


  54              		.global	CapSense_1_fingerThreshold
  55              		.section	.rodata
  56              		.align	2
  57              		.type	CapSense_1_fingerThreshold, %object
  58              		.size	CapSense_1_fingerThreshold, 1
  59              	CapSense_1_fingerThreshold:
  60 0000 64       		.byte	100
  61              		.global	CapSense_1_noiseThreshold
  62 0001 000000   		.align	2
  63              		.type	CapSense_1_noiseThreshold, %object
  64              		.size	CapSense_1_noiseThreshold, 1
  65              	CapSense_1_noiseThreshold:
  66 0004 14       		.byte	20
  67              		.global	CapSense_1_hysteresis
  68 0005 000000   		.align	2
  69              		.type	CapSense_1_hysteresis, %object
  70              		.size	CapSense_1_hysteresis, 1
  71              	CapSense_1_hysteresis:
  72 0008 00       		.space	1
  73              		.global	CapSense_1_debounce
  74 0009 000000   		.align	2
  75              		.type	CapSense_1_debounce, %object
  76              		.size	CapSense_1_debounce, 1
  77              	CapSense_1_debounce:
  78 000c 01       		.byte	1
  79              		.global	CapSense_1_rawDataIndex
  80 000d 000000   		.align	2
  81              		.type	CapSense_1_rawDataIndex, %object
  82              		.size	CapSense_1_rawDataIndex, 1
  83              	CapSense_1_rawDataIndex:
  84 0010 00       		.space	1
  85              		.global	CapSense_1_numberOfSensors
  86 0011 000000   		.align	2
  87              		.type	CapSense_1_numberOfSensors, %object
  88              		.size	CapSense_1_numberOfSensors, 1
  89              	CapSense_1_numberOfSensors:
  90 0014 05       		.byte	5
  91 0015 000000   		.align	2
  92              		.type	CapSense_1_centroidMult, %object
  93              		.size	CapSense_1_centroidMult, 2
  94              	CapSense_1_centroidMult:
  95 0018 C03F     		.short	16320
  96 001a 0000     		.align	2
  97              		.type	CapSense_1_posFiltersMask, %object
  98              		.size	CapSense_1_posFiltersMask, 1
  99              	CapSense_1_posFiltersMask:
 100 001c 08       		.byte	8
 101 001d 000000   		.data
 102 0005 000000   		.align	2
 103              		.type	CapSense_1_posFiltersData, %object
 104              		.size	CapSense_1_posFiltersData, 3
 105              	CapSense_1_posFiltersData:
 106 0008 01       		.byte	1
 107 0009 00       		.byte	0
 108 000a 00       		.byte	0
 109 000b 00       		.section	.text.CapSense_1_BaseInit,"ax",%progbits
 110              		.align	2
ARM GAS  C:\Users\mitchell\AppData\Local\Temp\cclqk7v6.s 			page 3


 111              		.global	CapSense_1_BaseInit
 112              		.code	16
 113              		.thumb_func
 114              		.type	CapSense_1_BaseInit, %function
 115              	CapSense_1_BaseInit:
 116              	.LFB33:
 117              		.file 1 ".\\Generated_Source\\PSoC4\\CapSense_1_CSHL.c"
   1:.\Generated_Source\PSoC4/CapSense_1_CSHL.c **** /*******************************************************************************
   2:.\Generated_Source\PSoC4/CapSense_1_CSHL.c **** * File Name: CapSense_1_CSHL.c
   3:.\Generated_Source\PSoC4/CapSense_1_CSHL.c **** * Version 2.20
   4:.\Generated_Source\PSoC4/CapSense_1_CSHL.c **** *
   5:.\Generated_Source\PSoC4/CapSense_1_CSHL.c **** * Description:
   6:.\Generated_Source\PSoC4/CapSense_1_CSHL.c **** *  This file provides the source code to the High Level APIs for the CapSesne
   7:.\Generated_Source\PSoC4/CapSense_1_CSHL.c **** *  CSD component.
   8:.\Generated_Source\PSoC4/CapSense_1_CSHL.c **** *
   9:.\Generated_Source\PSoC4/CapSense_1_CSHL.c **** * Note:
  10:.\Generated_Source\PSoC4/CapSense_1_CSHL.c **** *
  11:.\Generated_Source\PSoC4/CapSense_1_CSHL.c **** ********************************************************************************
  12:.\Generated_Source\PSoC4/CapSense_1_CSHL.c **** * Copyright 2014, Cypress Semiconductor Corporation.  All rights reserved.
  13:.\Generated_Source\PSoC4/CapSense_1_CSHL.c **** * You may use this file only in accordance with the license, terms, conditions,
  14:.\Generated_Source\PSoC4/CapSense_1_CSHL.c **** * disclaimers, and limitations in the end user license agreement accompanying
  15:.\Generated_Source\PSoC4/CapSense_1_CSHL.c **** * the software package with which this file was provided.
  16:.\Generated_Source\PSoC4/CapSense_1_CSHL.c **** *******************************************************************************/
  17:.\Generated_Source\PSoC4/CapSense_1_CSHL.c **** 
  18:.\Generated_Source\PSoC4/CapSense_1_CSHL.c **** #include "CapSense_1_CSHL.h"
  19:.\Generated_Source\PSoC4/CapSense_1_CSHL.c **** #include "CapSense_1_PVT.h"
  20:.\Generated_Source\PSoC4/CapSense_1_CSHL.c **** 
  21:.\Generated_Source\PSoC4/CapSense_1_CSHL.c **** /* SmartSense functions */
  22:.\Generated_Source\PSoC4/CapSense_1_CSHL.c **** #if (CapSense_1_TUNING_METHOD == CapSense_1__TUNING_AUTO)
  23:.\Generated_Source\PSoC4/CapSense_1_CSHL.c ****     extern void CapSense_1_UpdateThresholds(uint32 sensor);
  24:.\Generated_Source\PSoC4/CapSense_1_CSHL.c **** #endif /* (CapSense_1_TUNING_METHOD == CapSense_1__TUNING_AUTO) */
  25:.\Generated_Source\PSoC4/CapSense_1_CSHL.c **** 
  26:.\Generated_Source\PSoC4/CapSense_1_CSHL.c **** /* Storage of filters data */
  27:.\Generated_Source\PSoC4/CapSense_1_CSHL.c **** #if ( (0u != (CapSense_1_RAW_FILTER_MASK & CapSense_1_MEDIAN_FILTER)) || \
  28:.\Generated_Source\PSoC4/CapSense_1_CSHL.c ****       (0u != (CapSense_1_RAW_FILTER_MASK & CapSense_1_AVERAGING_FILTER)) )
  29:.\Generated_Source\PSoC4/CapSense_1_CSHL.c **** 
  30:.\Generated_Source\PSoC4/CapSense_1_CSHL.c ****     uint16 CapSense_1_rawFilterData1[CapSense_1_TOTAL_SENSOR_COUNT];
  31:.\Generated_Source\PSoC4/CapSense_1_CSHL.c ****     uint16 CapSense_1_rawFilterData2[CapSense_1_TOTAL_SENSOR_COUNT];
  32:.\Generated_Source\PSoC4/CapSense_1_CSHL.c **** 
  33:.\Generated_Source\PSoC4/CapSense_1_CSHL.c **** #elif ( (0u != (CapSense_1_RAW_FILTER_MASK & CapSense_1_IIR2_FILTER))   || \
  34:.\Generated_Source\PSoC4/CapSense_1_CSHL.c ****         (0u != (CapSense_1_RAW_FILTER_MASK & CapSense_1_IIR4_FILTER))   || \
  35:.\Generated_Source\PSoC4/CapSense_1_CSHL.c ****         (0u != (CapSense_1_RAW_FILTER_MASK & CapSense_1_JITTER_FILTER)) || \
  36:.\Generated_Source\PSoC4/CapSense_1_CSHL.c ****         (0u != (CapSense_1_RAW_FILTER_MASK & CapSense_1_IIR8_FILTER))   || \
  37:.\Generated_Source\PSoC4/CapSense_1_CSHL.c ****         (0u != (CapSense_1_RAW_FILTER_MASK & CapSense_1_IIR16_FILTER)) )
  38:.\Generated_Source\PSoC4/CapSense_1_CSHL.c ****         
  39:.\Generated_Source\PSoC4/CapSense_1_CSHL.c ****     uint16 CapSense_1_rawFilterData1[CapSense_1_TOTAL_SENSOR_COUNT];
  40:.\Generated_Source\PSoC4/CapSense_1_CSHL.c **** #endif  /* ( (CapSense_1_RAW_FILTER_MASK & CapSense_1_MEDIAN_FILTER) || \
  41:.\Generated_Source\PSoC4/CapSense_1_CSHL.c ****         *    (CapSense_1_RAW_FILTER_MASK & CapSense_1_AVERAGING_FILTER) )
  42:.\Generated_Source\PSoC4/CapSense_1_CSHL.c ****         */
  43:.\Generated_Source\PSoC4/CapSense_1_CSHL.c **** 
  44:.\Generated_Source\PSoC4/CapSense_1_CSHL.c **** extern uint16 CapSense_1_sensorRaw[CapSense_1_TOTAL_SENSOR_COUNT];
  45:.\Generated_Source\PSoC4/CapSense_1_CSHL.c **** extern uint8 CapSense_1_sensorEnableMask[CapSense_1_TOTAL_SENSOR_MASK];
  46:.\Generated_Source\PSoC4/CapSense_1_CSHL.c **** extern const uint8 CapSense_1_widgetNumber[CapSense_1_TOTAL_SENSOR_COUNT];
  47:.\Generated_Source\PSoC4/CapSense_1_CSHL.c **** 
  48:.\Generated_Source\PSoC4/CapSense_1_CSHL.c **** #if (CapSense_1_TUNING_METHOD != CapSense_1__TUNING_NONE)
  49:.\Generated_Source\PSoC4/CapSense_1_CSHL.c **** 	extern uint32 CapSense_1_widgetResolution[CapSense_1_RESOLUTIONS_TBL_SIZE];	
  50:.\Generated_Source\PSoC4/CapSense_1_CSHL.c **** #endif /* (CapSense_1_TUNING_METHOD != CapSense_1__TUNING_NONE) */
ARM GAS  C:\Users\mitchell\AppData\Local\Temp\cclqk7v6.s 			page 4


  51:.\Generated_Source\PSoC4/CapSense_1_CSHL.c **** 
  52:.\Generated_Source\PSoC4/CapSense_1_CSHL.c **** uint16 CapSense_1_sensorBaseline[CapSense_1_TOTAL_SENSOR_COUNT] = {0u};
  53:.\Generated_Source\PSoC4/CapSense_1_CSHL.c **** uint8 CapSense_1_sensorBaselineLow[CapSense_1_TOTAL_SENSOR_COUNT] = {0u};
  54:.\Generated_Source\PSoC4/CapSense_1_CSHL.c **** uint8 CapSense_1_sensorSignal[CapSense_1_TOTAL_SENSOR_COUNT] = {0u};
  55:.\Generated_Source\PSoC4/CapSense_1_CSHL.c **** uint8 CapSense_1_sensorOnMask[CapSense_1_TOTAL_SENSOR_MASK] = {0u};
  56:.\Generated_Source\PSoC4/CapSense_1_CSHL.c **** 
  57:.\Generated_Source\PSoC4/CapSense_1_CSHL.c **** uint8 CapSense_1_lowBaselineResetCnt[CapSense_1_TOTAL_SENSOR_COUNT];
  58:.\Generated_Source\PSoC4/CapSense_1_CSHL.c **** uint8 CapSense_1_lowBaselineReset[CapSense_1_TOTAL_SENSOR_COUNT] = {
  59:.\Generated_Source\PSoC4/CapSense_1_CSHL.c ****     5u, 5u, 5u, 5u, 5u, 
  60:.\Generated_Source\PSoC4/CapSense_1_CSHL.c **** };
  61:.\Generated_Source\PSoC4/CapSense_1_CSHL.c **** 
  62:.\Generated_Source\PSoC4/CapSense_1_CSHL.c **** 
  63:.\Generated_Source\PSoC4/CapSense_1_CSHL.c **** 
  64:.\Generated_Source\PSoC4/CapSense_1_CSHL.c **** #if (CapSense_1_TUNING_METHOD == CapSense_1__TUNING_AUTO)
  65:.\Generated_Source\PSoC4/CapSense_1_CSHL.c **** 	extern CapSense_1_CONFIG_TYPE_P4_v2_20 CapSense_1_config;
  66:.\Generated_Source\PSoC4/CapSense_1_CSHL.c **** #endif  /* (CapSense_1_TUNING_METHOD == CapSense_1__TUNING_AUTO) */
  67:.\Generated_Source\PSoC4/CapSense_1_CSHL.c **** 
  68:.\Generated_Source\PSoC4/CapSense_1_CSHL.c **** #if (CapSense_1_RAW_FILTER_MASK != 0u)
  69:.\Generated_Source\PSoC4/CapSense_1_CSHL.c **** uint8 CapSense_1_enableRawFilters = CapSense_1_RAW_FILTERS_ENABLED;
  70:.\Generated_Source\PSoC4/CapSense_1_CSHL.c **** #endif  /* (CapSense_1_RAW_FILTER_MASK != 0u) */
  71:.\Generated_Source\PSoC4/CapSense_1_CSHL.c **** 
  72:.\Generated_Source\PSoC4/CapSense_1_CSHL.c **** /* Generated by Customizer */
  73:.\Generated_Source\PSoC4/CapSense_1_CSHL.c **** const uint8 CapSense_1_fingerThreshold[] = {
  74:.\Generated_Source\PSoC4/CapSense_1_CSHL.c ****     100u, 
  75:.\Generated_Source\PSoC4/CapSense_1_CSHL.c **** };
  76:.\Generated_Source\PSoC4/CapSense_1_CSHL.c **** 
  77:.\Generated_Source\PSoC4/CapSense_1_CSHL.c **** const uint8 CapSense_1_noiseThreshold[] = {
  78:.\Generated_Source\PSoC4/CapSense_1_CSHL.c ****     20u, 
  79:.\Generated_Source\PSoC4/CapSense_1_CSHL.c **** };
  80:.\Generated_Source\PSoC4/CapSense_1_CSHL.c **** 
  81:.\Generated_Source\PSoC4/CapSense_1_CSHL.c **** const uint8 CapSense_1_hysteresis[] = {
  82:.\Generated_Source\PSoC4/CapSense_1_CSHL.c ****     0u, 
  83:.\Generated_Source\PSoC4/CapSense_1_CSHL.c **** };
  84:.\Generated_Source\PSoC4/CapSense_1_CSHL.c **** 
  85:.\Generated_Source\PSoC4/CapSense_1_CSHL.c **** const uint8 CapSense_1_debounce[] = {
  86:.\Generated_Source\PSoC4/CapSense_1_CSHL.c ****     1u, 
  87:.\Generated_Source\PSoC4/CapSense_1_CSHL.c **** };
  88:.\Generated_Source\PSoC4/CapSense_1_CSHL.c **** 
  89:.\Generated_Source\PSoC4/CapSense_1_CSHL.c **** const uint8 CapSense_1_rawDataIndex[] = {
  90:.\Generated_Source\PSoC4/CapSense_1_CSHL.c ****     0u, /* LinearSlider0__LS */
  91:.\Generated_Source\PSoC4/CapSense_1_CSHL.c **** };
  92:.\Generated_Source\PSoC4/CapSense_1_CSHL.c **** 
  93:.\Generated_Source\PSoC4/CapSense_1_CSHL.c **** const uint8 CapSense_1_numberOfSensors[] = {
  94:.\Generated_Source\PSoC4/CapSense_1_CSHL.c ****     5u, /* LinearSlider0__LS */
  95:.\Generated_Source\PSoC4/CapSense_1_CSHL.c **** };
  96:.\Generated_Source\PSoC4/CapSense_1_CSHL.c **** 
  97:.\Generated_Source\PSoC4/CapSense_1_CSHL.c **** static const uint16 CapSense_1_centroidMult[] = {
  98:.\Generated_Source\PSoC4/CapSense_1_CSHL.c ****     16320u, 
  99:.\Generated_Source\PSoC4/CapSense_1_CSHL.c **** };
 100:.\Generated_Source\PSoC4/CapSense_1_CSHL.c **** 
 101:.\Generated_Source\PSoC4/CapSense_1_CSHL.c **** static const uint8 CapSense_1_posFiltersMask[] = {
 102:.\Generated_Source\PSoC4/CapSense_1_CSHL.c ****     0x8u, 
 103:.\Generated_Source\PSoC4/CapSense_1_CSHL.c **** };
 104:.\Generated_Source\PSoC4/CapSense_1_CSHL.c **** 
 105:.\Generated_Source\PSoC4/CapSense_1_CSHL.c **** static uint8 CapSense_1_posFiltersData[] = {
 106:.\Generated_Source\PSoC4/CapSense_1_CSHL.c ****     1u, 0u, 0u, 
 107:.\Generated_Source\PSoC4/CapSense_1_CSHL.c **** };
ARM GAS  C:\Users\mitchell\AppData\Local\Temp\cclqk7v6.s 			page 5


 108:.\Generated_Source\PSoC4/CapSense_1_CSHL.c **** 
 109:.\Generated_Source\PSoC4/CapSense_1_CSHL.c **** 
 110:.\Generated_Source\PSoC4/CapSense_1_CSHL.c **** 
 111:.\Generated_Source\PSoC4/CapSense_1_CSHL.c **** 
 112:.\Generated_Source\PSoC4/CapSense_1_CSHL.c **** /*******************************************************************************
 113:.\Generated_Source\PSoC4/CapSense_1_CSHL.c **** * Function Name: CapSense_1_BaseInit
 114:.\Generated_Source\PSoC4/CapSense_1_CSHL.c **** ********************************************************************************
 115:.\Generated_Source\PSoC4/CapSense_1_CSHL.c **** *
 116:.\Generated_Source\PSoC4/CapSense_1_CSHL.c **** * Summary:
 117:.\Generated_Source\PSoC4/CapSense_1_CSHL.c **** *  Loads the CapSense_1_sensorBaseline[sensor] array element with an 
 118:.\Generated_Source\PSoC4/CapSense_1_CSHL.c **** *  initial value which is equal to the raw count value. 
 119:.\Generated_Source\PSoC4/CapSense_1_CSHL.c **** *  Resets to zero CapSense_1_sensorBaselineLow[sensor] and 
 120:.\Generated_Source\PSoC4/CapSense_1_CSHL.c **** *  CapSense_1_sensorSignal[sensor] array element.
 121:.\Generated_Source\PSoC4/CapSense_1_CSHL.c **** *  Loads the CapSense_1_rawFilterData2[sensor] and 
 122:.\Generated_Source\PSoC4/CapSense_1_CSHL.c **** *  CapSense_1_rawFilterData2[sensor] array element with an 
 123:.\Generated_Source\PSoC4/CapSense_1_CSHL.c **** *  initial value which is equal to the raw count value if the raw data filter is enabled.
 124:.\Generated_Source\PSoC4/CapSense_1_CSHL.c **** *
 125:.\Generated_Source\PSoC4/CapSense_1_CSHL.c **** * Parameters:
 126:.\Generated_Source\PSoC4/CapSense_1_CSHL.c **** *  sensor:  Sensor number.
 127:.\Generated_Source\PSoC4/CapSense_1_CSHL.c **** *
 128:.\Generated_Source\PSoC4/CapSense_1_CSHL.c **** * Return:
 129:.\Generated_Source\PSoC4/CapSense_1_CSHL.c **** *  None
 130:.\Generated_Source\PSoC4/CapSense_1_CSHL.c **** *
 131:.\Generated_Source\PSoC4/CapSense_1_CSHL.c **** * Global Variables:
 132:.\Generated_Source\PSoC4/CapSense_1_CSHL.c **** *  CapSense_1_sensorBaseline[]    - used to store the baseline value.
 133:.\Generated_Source\PSoC4/CapSense_1_CSHL.c **** *  CapSense_1_sensorBaselineLow[] - used to store the fraction byte of 
 134:.\Generated_Source\PSoC4/CapSense_1_CSHL.c **** *  the baseline value.
 135:.\Generated_Source\PSoC4/CapSense_1_CSHL.c **** *  CapSense_1_sensorSignal[]      - used to store a difference between 
 136:.\Generated_Source\PSoC4/CapSense_1_CSHL.c **** *  the current value of raw data and the previous value of the baseline.
 137:.\Generated_Source\PSoC4/CapSense_1_CSHL.c **** *  CapSense_1_rawFilterData1[]    - used to store a previous sample of 
 138:.\Generated_Source\PSoC4/CapSense_1_CSHL.c **** *  any enabled raw data filter.
 139:.\Generated_Source\PSoC4/CapSense_1_CSHL.c **** *  CapSense_1_rawFilterData2[]    - used to store before a previous sample
 140:.\Generated_Source\PSoC4/CapSense_1_CSHL.c **** *  of the enabled raw data filter. Required only for median or average filters.
 141:.\Generated_Source\PSoC4/CapSense_1_CSHL.c **** *
 142:.\Generated_Source\PSoC4/CapSense_1_CSHL.c **** * Side Effects:
 143:.\Generated_Source\PSoC4/CapSense_1_CSHL.c **** *  None
 144:.\Generated_Source\PSoC4/CapSense_1_CSHL.c **** * 
 145:.\Generated_Source\PSoC4/CapSense_1_CSHL.c **** *******************************************************************************/
 146:.\Generated_Source\PSoC4/CapSense_1_CSHL.c **** void CapSense_1_BaseInit(uint32 sensor)
 147:.\Generated_Source\PSoC4/CapSense_1_CSHL.c **** {
 118              		.loc 1 147 0
 119              		.cfi_startproc
 120 0000 80B5     		push	{r7, lr}
 121              		.cfi_def_cfa_offset 8
 122              		.cfi_offset 7, -8
 123              		.cfi_offset 14, -4
 124 0002 82B0     		sub	sp, sp, #8
 125              		.cfi_def_cfa_offset 16
 126 0004 00AF     		add	r7, sp, #0
 127              		.cfi_def_cfa_register 7
 128 0006 7860     		str	r0, [r7, #4]
 148:.\Generated_Source\PSoC4/CapSense_1_CSHL.c ****     #if ((CapSense_1_TOTAL_BUTTONS_COUNT) || (CapSense_1_TOTAL_MATRIX_BUTTONS_COUNT) || \
 149:.\Generated_Source\PSoC4/CapSense_1_CSHL.c ****          (CapSense_1_TOTAL_GENERICS_COUNT))
 150:.\Generated_Source\PSoC4/CapSense_1_CSHL.c ****         uint8 widget = CapSense_1_widgetNumber[sensor];
 151:.\Generated_Source\PSoC4/CapSense_1_CSHL.c ****     #endif /* ((CapSense_1_TOTAL_MATRIX_BUTTONS_COUNT) || (CapSense_1_TOTAL_MATRIX_BUTTONS_COUNT)) 
 152:.\Generated_Source\PSoC4/CapSense_1_CSHL.c ****     
 153:.\Generated_Source\PSoC4/CapSense_1_CSHL.c ****     #if (CapSense_1_TOTAL_MATRIX_BUTTONS_COUNT)
ARM GAS  C:\Users\mitchell\AppData\Local\Temp\cclqk7v6.s 			page 6


 154:.\Generated_Source\PSoC4/CapSense_1_CSHL.c ****         uint8 debounceIndex;
 155:.\Generated_Source\PSoC4/CapSense_1_CSHL.c ****     #endif  /* (CapSense_1_TOTAL_MATRIX_BUTTONS_COUNT) */
 156:.\Generated_Source\PSoC4/CapSense_1_CSHL.c ****     
 157:.\Generated_Source\PSoC4/CapSense_1_CSHL.c ****     #if (CapSense_1_TOTAL_GENERICS_COUNT)
 158:.\Generated_Source\PSoC4/CapSense_1_CSHL.c ****         /* Exclude generic widget */
 159:.\Generated_Source\PSoC4/CapSense_1_CSHL.c ****         if(widget < CapSense_1_END_OF_WIDGETS_INDEX)
 160:.\Generated_Source\PSoC4/CapSense_1_CSHL.c ****         {
 161:.\Generated_Source\PSoC4/CapSense_1_CSHL.c ****     #endif  /* CapSense_1_TOTAL_GENERICS_COUNT */
 162:.\Generated_Source\PSoC4/CapSense_1_CSHL.c ****     
 163:.\Generated_Source\PSoC4/CapSense_1_CSHL.c ****     /* Initialize Baseline */
 164:.\Generated_Source\PSoC4/CapSense_1_CSHL.c ****     CapSense_1_sensorBaseline[sensor] = CapSense_1_sensorRaw[sensor];
 129              		.loc 1 164 0
 130 0008 0A4B     		ldr	r3, .L2
 131 000a 7A68     		ldr	r2, [r7, #4]
 132 000c 5200     		lsl	r2, r2, #1
 133 000e D15A     		ldrh	r1, [r2, r3]
 134 0010 094B     		ldr	r3, .L2+4
 135 0012 7A68     		ldr	r2, [r7, #4]
 136 0014 5200     		lsl	r2, r2, #1
 137 0016 D152     		strh	r1, [r2, r3]
 165:.\Generated_Source\PSoC4/CapSense_1_CSHL.c ****     CapSense_1_sensorBaselineLow[sensor] = 0u;
 138              		.loc 1 165 0
 139 0018 084A     		ldr	r2, .L2+8
 140 001a 7B68     		ldr	r3, [r7, #4]
 141 001c D318     		add	r3, r2, r3
 142 001e 0022     		mov	r2, #0
 143 0020 1A70     		strb	r2, [r3]
 166:.\Generated_Source\PSoC4/CapSense_1_CSHL.c ****     CapSense_1_sensorSignal[sensor] = 0u;
 144              		.loc 1 166 0
 145 0022 074A     		ldr	r2, .L2+12
 146 0024 7B68     		ldr	r3, [r7, #4]
 147 0026 D318     		add	r3, r2, r3
 148 0028 0022     		mov	r2, #0
 149 002a 1A70     		strb	r2, [r3]
 167:.\Generated_Source\PSoC4/CapSense_1_CSHL.c ****         
 168:.\Generated_Source\PSoC4/CapSense_1_CSHL.c **** 
 169:.\Generated_Source\PSoC4/CapSense_1_CSHL.c ****     
 170:.\Generated_Source\PSoC4/CapSense_1_CSHL.c ****     #if ((0u != (CapSense_1_RAW_FILTER_MASK & CapSense_1_MEDIAN_FILTER)) ||\
 171:.\Generated_Source\PSoC4/CapSense_1_CSHL.c ****          (0u != (CapSense_1_RAW_FILTER_MASK & CapSense_1_AVERAGING_FILTER)))
 172:.\Generated_Source\PSoC4/CapSense_1_CSHL.c **** 
 173:.\Generated_Source\PSoC4/CapSense_1_CSHL.c ****         CapSense_1_rawFilterData1[sensor] = CapSense_1_sensorRaw[sensor];
 174:.\Generated_Source\PSoC4/CapSense_1_CSHL.c ****         CapSense_1_rawFilterData2[sensor] = CapSense_1_sensorRaw[sensor];
 175:.\Generated_Source\PSoC4/CapSense_1_CSHL.c ****     
 176:.\Generated_Source\PSoC4/CapSense_1_CSHL.c ****     #elif ((CapSense_1_RAW_FILTER_MASK & CapSense_1_IIR2_FILTER) ||\
 177:.\Generated_Source\PSoC4/CapSense_1_CSHL.c ****            (CapSense_1_RAW_FILTER_MASK & CapSense_1_IIR4_FILTER) ||\
 178:.\Generated_Source\PSoC4/CapSense_1_CSHL.c ****            (CapSense_1_RAW_FILTER_MASK & CapSense_1_JITTER_FILTER) ||\
 179:.\Generated_Source\PSoC4/CapSense_1_CSHL.c ****            (CapSense_1_RAW_FILTER_MASK & CapSense_1_IIR8_FILTER) ||\
 180:.\Generated_Source\PSoC4/CapSense_1_CSHL.c ****            (CapSense_1_RAW_FILTER_MASK & CapSense_1_IIR16_FILTER))
 181:.\Generated_Source\PSoC4/CapSense_1_CSHL.c ****             
 182:.\Generated_Source\PSoC4/CapSense_1_CSHL.c ****         CapSense_1_rawFilterData1[sensor] = CapSense_1_sensorRaw[sensor];
 183:.\Generated_Source\PSoC4/CapSense_1_CSHL.c ****     
 184:.\Generated_Source\PSoC4/CapSense_1_CSHL.c ****     #else
 185:.\Generated_Source\PSoC4/CapSense_1_CSHL.c ****         /* No Raw filters */
 186:.\Generated_Source\PSoC4/CapSense_1_CSHL.c ****     #endif  /* ((CapSense_1_RAW_FILTER_MASK & CapSense_1_MEDIAN_FILTER) || \
 187:.\Generated_Source\PSoC4/CapSense_1_CSHL.c ****             *   (CapSense_1_RAW_FILTER_MASK & CapSense_1_AVERAGING_FILTER))
 188:.\Generated_Source\PSoC4/CapSense_1_CSHL.c ****             */
 189:.\Generated_Source\PSoC4/CapSense_1_CSHL.c ****     
ARM GAS  C:\Users\mitchell\AppData\Local\Temp\cclqk7v6.s 			page 7


 190:.\Generated_Source\PSoC4/CapSense_1_CSHL.c ****     #if (CapSense_1_TOTAL_GENERICS_COUNT)
 191:.\Generated_Source\PSoC4/CapSense_1_CSHL.c ****         /* Exclude generic widget */
 192:.\Generated_Source\PSoC4/CapSense_1_CSHL.c ****         }
 193:.\Generated_Source\PSoC4/CapSense_1_CSHL.c ****     #endif  /* CapSense_1_TOTAL_GENERICS_COUNT */
 194:.\Generated_Source\PSoC4/CapSense_1_CSHL.c **** }
 150              		.loc 1 194 0
 151 002c BD46     		mov	sp, r7
 152 002e 02B0     		add	sp, sp, #8
 153              		@ sp needed
 154 0030 80BD     		pop	{r7, pc}
 155              	.L3:
 156 0032 C046     		.align	2
 157              	.L2:
 158 0034 00000000 		.word	CapSense_1_sensorRaw
 159 0038 00000000 		.word	CapSense_1_sensorBaseline
 160 003c 00000000 		.word	CapSense_1_sensorBaselineLow
 161 0040 00000000 		.word	CapSense_1_sensorSignal
 162              		.cfi_endproc
 163              	.LFE33:
 164              		.size	CapSense_1_BaseInit, .-CapSense_1_BaseInit
 165              		.section	.text.CapSense_1_InitializeSensorBaseline,"ax",%progbits
 166              		.align	2
 167              		.global	CapSense_1_InitializeSensorBaseline
 168              		.code	16
 169              		.thumb_func
 170              		.type	CapSense_1_InitializeSensorBaseline, %function
 171              	CapSense_1_InitializeSensorBaseline:
 172              	.LFB34:
 195:.\Generated_Source\PSoC4/CapSense_1_CSHL.c **** 
 196:.\Generated_Source\PSoC4/CapSense_1_CSHL.c **** 
 197:.\Generated_Source\PSoC4/CapSense_1_CSHL.c **** /*******************************************************************************
 198:.\Generated_Source\PSoC4/CapSense_1_CSHL.c **** * Function Name: CapSense_1_InitializeSensorBaseline
 199:.\Generated_Source\PSoC4/CapSense_1_CSHL.c **** ********************************************************************************
 200:.\Generated_Source\PSoC4/CapSense_1_CSHL.c **** *
 201:.\Generated_Source\PSoC4/CapSense_1_CSHL.c **** * Summary:
 202:.\Generated_Source\PSoC4/CapSense_1_CSHL.c **** *  Loads the CapSense_1_sensorBaseline[sensor] array element with an 
 203:.\Generated_Source\PSoC4/CapSense_1_CSHL.c **** *  initial value by scanning the selected sensor (one channel design) or a pair 
 204:.\Generated_Source\PSoC4/CapSense_1_CSHL.c **** *  of sensors (two channels designs). The raw count value is copied into the 
 205:.\Generated_Source\PSoC4/CapSense_1_CSHL.c **** *  baseline array for each sensor. The raw data filters are initialized if 
 206:.\Generated_Source\PSoC4/CapSense_1_CSHL.c **** *  enabled.
 207:.\Generated_Source\PSoC4/CapSense_1_CSHL.c **** *
 208:.\Generated_Source\PSoC4/CapSense_1_CSHL.c **** * Parameters:
 209:.\Generated_Source\PSoC4/CapSense_1_CSHL.c **** *  sensor:  Sensor number.
 210:.\Generated_Source\PSoC4/CapSense_1_CSHL.c **** *
 211:.\Generated_Source\PSoC4/CapSense_1_CSHL.c **** * Return:
 212:.\Generated_Source\PSoC4/CapSense_1_CSHL.c **** *  None
 213:.\Generated_Source\PSoC4/CapSense_1_CSHL.c **** *
 214:.\Generated_Source\PSoC4/CapSense_1_CSHL.c **** * Global Variables:
 215:.\Generated_Source\PSoC4/CapSense_1_CSHL.c **** *  None
 216:.\Generated_Source\PSoC4/CapSense_1_CSHL.c **** *
 217:.\Generated_Source\PSoC4/CapSense_1_CSHL.c **** * Side Effects:
 218:.\Generated_Source\PSoC4/CapSense_1_CSHL.c **** *  None
 219:.\Generated_Source\PSoC4/CapSense_1_CSHL.c **** * 
 220:.\Generated_Source\PSoC4/CapSense_1_CSHL.c **** *******************************************************************************/
 221:.\Generated_Source\PSoC4/CapSense_1_CSHL.c **** void CapSense_1_InitializeSensorBaseline(uint32 sensor)
 222:.\Generated_Source\PSoC4/CapSense_1_CSHL.c **** {
 173              		.loc 1 222 0
ARM GAS  C:\Users\mitchell\AppData\Local\Temp\cclqk7v6.s 			page 8


 174              		.cfi_startproc
 175 0000 80B5     		push	{r7, lr}
 176              		.cfi_def_cfa_offset 8
 177              		.cfi_offset 7, -8
 178              		.cfi_offset 14, -4
 179 0002 82B0     		sub	sp, sp, #8
 180              		.cfi_def_cfa_offset 16
 181 0004 00AF     		add	r7, sp, #0
 182              		.cfi_def_cfa_register 7
 183 0006 7860     		str	r0, [r7, #4]
 223:.\Generated_Source\PSoC4/CapSense_1_CSHL.c ****     /* Scan sensor */
 224:.\Generated_Source\PSoC4/CapSense_1_CSHL.c ****     CapSense_1_ScanSensor(sensor);
 184              		.loc 1 224 0
 185 0008 7B68     		ldr	r3, [r7, #4]
 186 000a 181C     		mov	r0, r3
 187 000c FFF7FEFF 		bl	CapSense_1_ScanSensor
 225:.\Generated_Source\PSoC4/CapSense_1_CSHL.c ****     while(CapSense_1_IsBusy() != 0u)
 188              		.loc 1 225 0
 189 0010 C046     		mov	r8, r8
 190              	.L5:
 191              		.loc 1 225 0 is_stmt 0 discriminator 1
 192 0012 FFF7FEFF 		bl	CapSense_1_IsBusy
 193 0016 031C     		mov	r3, r0
 194 0018 002B     		cmp	r3, #0
 195 001a FAD1     		bne	.L5
 226:.\Generated_Source\PSoC4/CapSense_1_CSHL.c ****     {
 227:.\Generated_Source\PSoC4/CapSense_1_CSHL.c ****         /* Wait while sensor is busy */
 228:.\Generated_Source\PSoC4/CapSense_1_CSHL.c ****     }
 229:.\Generated_Source\PSoC4/CapSense_1_CSHL.c ****     
 230:.\Generated_Source\PSoC4/CapSense_1_CSHL.c ****     /* Initialize Baseline, Signal and debounce counters */       
 231:.\Generated_Source\PSoC4/CapSense_1_CSHL.c ****     CapSense_1_BaseInit(sensor);
 196              		.loc 1 231 0 is_stmt 1
 197 001c 7B68     		ldr	r3, [r7, #4]
 198 001e 181C     		mov	r0, r3
 199 0020 FFF7FEFF 		bl	CapSense_1_BaseInit
 232:.\Generated_Source\PSoC4/CapSense_1_CSHL.c **** }
 200              		.loc 1 232 0
 201 0024 BD46     		mov	sp, r7
 202 0026 02B0     		add	sp, sp, #8
 203              		@ sp needed
 204 0028 80BD     		pop	{r7, pc}
 205              		.cfi_endproc
 206              	.LFE34:
 207              		.size	CapSense_1_InitializeSensorBaseline, .-CapSense_1_InitializeSensorBaseline
 208 002a C046     		.section	.text.CapSense_1_InitializeAllBaselines,"ax",%progbits
 209              		.align	2
 210              		.global	CapSense_1_InitializeAllBaselines
 211              		.code	16
 212              		.thumb_func
 213              		.type	CapSense_1_InitializeAllBaselines, %function
 214              	CapSense_1_InitializeAllBaselines:
 215              	.LFB35:
 233:.\Generated_Source\PSoC4/CapSense_1_CSHL.c **** 
 234:.\Generated_Source\PSoC4/CapSense_1_CSHL.c **** 
 235:.\Generated_Source\PSoC4/CapSense_1_CSHL.c **** /*******************************************************************************
 236:.\Generated_Source\PSoC4/CapSense_1_CSHL.c **** * Function Name: CapSense_1_InitializeAllBaselines
 237:.\Generated_Source\PSoC4/CapSense_1_CSHL.c **** ********************************************************************************
ARM GAS  C:\Users\mitchell\AppData\Local\Temp\cclqk7v6.s 			page 9


 238:.\Generated_Source\PSoC4/CapSense_1_CSHL.c **** *
 239:.\Generated_Source\PSoC4/CapSense_1_CSHL.c **** * Summary:
 240:.\Generated_Source\PSoC4/CapSense_1_CSHL.c **** *  Uses the CapSense_1_InitializeSensorBaseline function to load the 
 241:.\Generated_Source\PSoC4/CapSense_1_CSHL.c **** *  CapSense_1_sensorBaseline[] array with an initial values by scanning 
 242:.\Generated_Source\PSoC4/CapSense_1_CSHL.c **** *  all the sensors. The raw count values are copied into the baseline array for 
 243:.\Generated_Source\PSoC4/CapSense_1_CSHL.c **** *  all the sensors. The raw data filters are initialized if enabled.
 244:.\Generated_Source\PSoC4/CapSense_1_CSHL.c **** *
 245:.\Generated_Source\PSoC4/CapSense_1_CSHL.c **** * Parameters:
 246:.\Generated_Source\PSoC4/CapSense_1_CSHL.c **** *  None
 247:.\Generated_Source\PSoC4/CapSense_1_CSHL.c **** *
 248:.\Generated_Source\PSoC4/CapSense_1_CSHL.c **** * Return:
 249:.\Generated_Source\PSoC4/CapSense_1_CSHL.c **** *  None
 250:.\Generated_Source\PSoC4/CapSense_1_CSHL.c **** *
 251:.\Generated_Source\PSoC4/CapSense_1_CSHL.c **** * Global Variables:
 252:.\Generated_Source\PSoC4/CapSense_1_CSHL.c **** *  None
 253:.\Generated_Source\PSoC4/CapSense_1_CSHL.c **** *
 254:.\Generated_Source\PSoC4/CapSense_1_CSHL.c **** * Side Effects:
 255:.\Generated_Source\PSoC4/CapSense_1_CSHL.c **** *  None
 256:.\Generated_Source\PSoC4/CapSense_1_CSHL.c **** * 
 257:.\Generated_Source\PSoC4/CapSense_1_CSHL.c **** *******************************************************************************/
 258:.\Generated_Source\PSoC4/CapSense_1_CSHL.c **** void CapSense_1_InitializeAllBaselines(void)
 259:.\Generated_Source\PSoC4/CapSense_1_CSHL.c **** {
 216              		.loc 1 259 0
 217              		.cfi_startproc
 218 0000 80B5     		push	{r7, lr}
 219              		.cfi_def_cfa_offset 8
 220              		.cfi_offset 7, -8
 221              		.cfi_offset 14, -4
 222 0002 82B0     		sub	sp, sp, #8
 223              		.cfi_def_cfa_offset 16
 224 0004 00AF     		add	r7, sp, #0
 225              		.cfi_def_cfa_register 7
 260:.\Generated_Source\PSoC4/CapSense_1_CSHL.c ****     uint32 i;
 261:.\Generated_Source\PSoC4/CapSense_1_CSHL.c ****     
 262:.\Generated_Source\PSoC4/CapSense_1_CSHL.c **** 	for(i = 0u; i < CapSense_1_TOTAL_SCANSLOT_COUNT; i++)
 226              		.loc 1 262 0
 227 0006 0023     		mov	r3, #0
 228 0008 7B60     		str	r3, [r7, #4]
 229 000a 06E0     		b	.L7
 230              	.L8:
 263:.\Generated_Source\PSoC4/CapSense_1_CSHL.c **** 	{
 264:.\Generated_Source\PSoC4/CapSense_1_CSHL.c ****     	CapSense_1_InitializeSensorBaseline(i);
 231              		.loc 1 264 0 discriminator 2
 232 000c 7B68     		ldr	r3, [r7, #4]
 233 000e 181C     		mov	r0, r3
 234 0010 FFF7FEFF 		bl	CapSense_1_InitializeSensorBaseline
 262:.\Generated_Source\PSoC4/CapSense_1_CSHL.c **** 	for(i = 0u; i < CapSense_1_TOTAL_SCANSLOT_COUNT; i++)
 235              		.loc 1 262 0 discriminator 2
 236 0014 7B68     		ldr	r3, [r7, #4]
 237 0016 0133     		add	r3, r3, #1
 238 0018 7B60     		str	r3, [r7, #4]
 239              	.L7:
 262:.\Generated_Source\PSoC4/CapSense_1_CSHL.c **** 	for(i = 0u; i < CapSense_1_TOTAL_SCANSLOT_COUNT; i++)
 240              		.loc 1 262 0 is_stmt 0 discriminator 1
 241 001a 7B68     		ldr	r3, [r7, #4]
 242 001c 042B     		cmp	r3, #4
 243 001e F5D9     		bls	.L8
ARM GAS  C:\Users\mitchell\AppData\Local\Temp\cclqk7v6.s 			page 10


 265:.\Generated_Source\PSoC4/CapSense_1_CSHL.c **** 	}
 266:.\Generated_Source\PSoC4/CapSense_1_CSHL.c **** }
 244              		.loc 1 266 0 is_stmt 1
 245 0020 BD46     		mov	sp, r7
 246 0022 02B0     		add	sp, sp, #8
 247              		@ sp needed
 248 0024 80BD     		pop	{r7, pc}
 249              		.cfi_endproc
 250              	.LFE35:
 251              		.size	CapSense_1_InitializeAllBaselines, .-CapSense_1_InitializeAllBaselines
 252 0026 C046     		.section	.text.CapSense_1_InitializeEnabledBaselines,"ax",%progbits
 253              		.align	2
 254              		.global	CapSense_1_InitializeEnabledBaselines
 255              		.code	16
 256              		.thumb_func
 257              		.type	CapSense_1_InitializeEnabledBaselines, %function
 258              	CapSense_1_InitializeEnabledBaselines:
 259              	.LFB36:
 267:.\Generated_Source\PSoC4/CapSense_1_CSHL.c **** 
 268:.\Generated_Source\PSoC4/CapSense_1_CSHL.c **** 
 269:.\Generated_Source\PSoC4/CapSense_1_CSHL.c **** /*******************************************************************************
 270:.\Generated_Source\PSoC4/CapSense_1_CSHL.c **** * Function Name: CapSense_1_InitializeEnabledBaselines
 271:.\Generated_Source\PSoC4/CapSense_1_CSHL.c **** ********************************************************************************
 272:.\Generated_Source\PSoC4/CapSense_1_CSHL.c **** *
 273:.\Generated_Source\PSoC4/CapSense_1_CSHL.c **** * Summary:
 274:.\Generated_Source\PSoC4/CapSense_1_CSHL.c **** *  Scans all the enabled widgets and the raw count values are copied into the 
 275:.\Generated_Source\PSoC4/CapSense_1_CSHL.c **** *  baseline array for all the sensors enabled in the scanning process. The baselines 
 276:.\Generated_Source\PSoC4/CapSense_1_CSHL.c **** *  are initialized with zero values for sensors disabled from the scanning process. 
 277:.\Generated_Source\PSoC4/CapSense_1_CSHL.c **** *  The raw data filters are initialized if enabled.
 278:.\Generated_Source\PSoC4/CapSense_1_CSHL.c **** *
 279:.\Generated_Source\PSoC4/CapSense_1_CSHL.c **** * Parameters:
 280:.\Generated_Source\PSoC4/CapSense_1_CSHL.c **** *  None
 281:.\Generated_Source\PSoC4/CapSense_1_CSHL.c **** *
 282:.\Generated_Source\PSoC4/CapSense_1_CSHL.c **** * Return:
 283:.\Generated_Source\PSoC4/CapSense_1_CSHL.c **** *  None
 284:.\Generated_Source\PSoC4/CapSense_1_CSHL.c **** *
 285:.\Generated_Source\PSoC4/CapSense_1_CSHL.c **** * Global Variables:
 286:.\Generated_Source\PSoC4/CapSense_1_CSHL.c **** *  CapSense_1_sensorRaw[] - used to store the sensors raw data.
 287:.\Generated_Source\PSoC4/CapSense_1_CSHL.c **** *  CapSense_1_sensorEnableMask[ ] - used to store bit masks of the enabled sensors.
 288:.\Generated_Source\PSoC4/CapSense_1_CSHL.c **** *
 289:.\Generated_Source\PSoC4/CapSense_1_CSHL.c **** * Side Effects:
 290:.\Generated_Source\PSoC4/CapSense_1_CSHL.c **** *  None
 291:.\Generated_Source\PSoC4/CapSense_1_CSHL.c **** * 
 292:.\Generated_Source\PSoC4/CapSense_1_CSHL.c **** *******************************************************************************/
 293:.\Generated_Source\PSoC4/CapSense_1_CSHL.c **** void CapSense_1_InitializeEnabledBaselines(void)
 294:.\Generated_Source\PSoC4/CapSense_1_CSHL.c **** {
 260              		.loc 1 294 0
 261              		.cfi_startproc
 262 0000 80B5     		push	{r7, lr}
 263              		.cfi_def_cfa_offset 8
 264              		.cfi_offset 7, -8
 265              		.cfi_offset 14, -4
 266 0002 82B0     		sub	sp, sp, #8
 267              		.cfi_def_cfa_offset 16
 268 0004 00AF     		add	r7, sp, #0
 269              		.cfi_def_cfa_register 7
 295:.\Generated_Source\PSoC4/CapSense_1_CSHL.c ****     uint32 i;
ARM GAS  C:\Users\mitchell\AppData\Local\Temp\cclqk7v6.s 			page 11


 296:.\Generated_Source\PSoC4/CapSense_1_CSHL.c ****     uint32 isSensorEnabled;
 297:.\Generated_Source\PSoC4/CapSense_1_CSHL.c ****     
 298:.\Generated_Source\PSoC4/CapSense_1_CSHL.c ****     CapSense_1_ScanEnabledWidgets();
 270              		.loc 1 298 0
 271 0006 FFF7FEFF 		bl	CapSense_1_ScanEnabledWidgets
 299:.\Generated_Source\PSoC4/CapSense_1_CSHL.c ****     while(CapSense_1_IsBusy() != 0u)
 272              		.loc 1 299 0
 273 000a C046     		mov	r8, r8
 274              	.L10:
 275              		.loc 1 299 0 is_stmt 0 discriminator 1
 276 000c FFF7FEFF 		bl	CapSense_1_IsBusy
 277 0010 031C     		mov	r3, r0
 278 0012 002B     		cmp	r3, #0
 279 0014 FAD1     		bne	.L10
 300:.\Generated_Source\PSoC4/CapSense_1_CSHL.c ****     {
 301:.\Generated_Source\PSoC4/CapSense_1_CSHL.c ****         /* Wait while sensor is busy */
 302:.\Generated_Source\PSoC4/CapSense_1_CSHL.c ****     }
 303:.\Generated_Source\PSoC4/CapSense_1_CSHL.c ****     
 304:.\Generated_Source\PSoC4/CapSense_1_CSHL.c ****     for(i = 0u; i < CapSense_1_TOTAL_SENSOR_COUNT; i++)
 280              		.loc 1 304 0 is_stmt 1
 281 0016 0023     		mov	r3, #0
 282 0018 7B60     		str	r3, [r7, #4]
 283 001a 11E0     		b	.L11
 284              	.L13:
 305:.\Generated_Source\PSoC4/CapSense_1_CSHL.c ****     {
 306:.\Generated_Source\PSoC4/CapSense_1_CSHL.c ****         isSensorEnabled = CapSense_1_GetBitValue(CapSense_1_sensorEnableMask, i);
 285              		.loc 1 306 0
 286 001c 0B4A     		ldr	r2, .L14
 287 001e 7B68     		ldr	r3, [r7, #4]
 288 0020 101C     		mov	r0, r2
 289 0022 191C     		mov	r1, r3
 290 0024 FFF7FEFF 		bl	CapSense_1_GetBitValue
 291 0028 031C     		mov	r3, r0
 292 002a 3B60     		str	r3, [r7]
 307:.\Generated_Source\PSoC4/CapSense_1_CSHL.c ****         
 308:.\Generated_Source\PSoC4/CapSense_1_CSHL.c ****         /* Clear raw data if sensor is disabled from scanning process */
 309:.\Generated_Source\PSoC4/CapSense_1_CSHL.c ****         if(isSensorEnabled != 0u)
 293              		.loc 1 309 0
 294 002c 3B68     		ldr	r3, [r7]
 295 002e 002B     		cmp	r3, #0
 296 0030 03D0     		beq	.L12
 310:.\Generated_Source\PSoC4/CapSense_1_CSHL.c ****         {
 311:.\Generated_Source\PSoC4/CapSense_1_CSHL.c ****             /* Initialize baselines */
 312:.\Generated_Source\PSoC4/CapSense_1_CSHL.c ****             CapSense_1_BaseInit(i);
 297              		.loc 1 312 0
 298 0032 7B68     		ldr	r3, [r7, #4]
 299 0034 181C     		mov	r0, r3
 300 0036 FFF7FEFF 		bl	CapSense_1_BaseInit
 301              	.L12:
 304:.\Generated_Source\PSoC4/CapSense_1_CSHL.c ****     for(i = 0u; i < CapSense_1_TOTAL_SENSOR_COUNT; i++)
 302              		.loc 1 304 0
 303 003a 7B68     		ldr	r3, [r7, #4]
 304 003c 0133     		add	r3, r3, #1
 305 003e 7B60     		str	r3, [r7, #4]
 306              	.L11:
 304:.\Generated_Source\PSoC4/CapSense_1_CSHL.c ****     for(i = 0u; i < CapSense_1_TOTAL_SENSOR_COUNT; i++)
 307              		.loc 1 304 0 is_stmt 0 discriminator 1
ARM GAS  C:\Users\mitchell\AppData\Local\Temp\cclqk7v6.s 			page 12


 308 0040 7B68     		ldr	r3, [r7, #4]
 309 0042 042B     		cmp	r3, #4
 310 0044 EAD9     		bls	.L13
 313:.\Generated_Source\PSoC4/CapSense_1_CSHL.c ****         }
 314:.\Generated_Source\PSoC4/CapSense_1_CSHL.c ****     }
 315:.\Generated_Source\PSoC4/CapSense_1_CSHL.c **** }  
 311              		.loc 1 315 0 is_stmt 1
 312 0046 BD46     		mov	sp, r7
 313 0048 02B0     		add	sp, sp, #8
 314              		@ sp needed
 315 004a 80BD     		pop	{r7, pc}
 316              	.L15:
 317              		.align	2
 318              	.L14:
 319 004c 00000000 		.word	CapSense_1_sensorEnableMask
 320              		.cfi_endproc
 321              	.LFE36:
 322              		.size	CapSense_1_InitializeEnabledBaselines, .-CapSense_1_InitializeEnabledBaselines
 323              		.section	.text.CapSense_1_UpdateBaselineNoThreshold,"ax",%progbits
 324              		.align	2
 325              		.global	CapSense_1_UpdateBaselineNoThreshold
 326              		.code	16
 327              		.thumb_func
 328              		.type	CapSense_1_UpdateBaselineNoThreshold, %function
 329              	CapSense_1_UpdateBaselineNoThreshold:
 330              	.LFB37:
 316:.\Generated_Source\PSoC4/CapSense_1_CSHL.c **** 
 317:.\Generated_Source\PSoC4/CapSense_1_CSHL.c **** 
 318:.\Generated_Source\PSoC4/CapSense_1_CSHL.c **** /*******************************************************************************
 319:.\Generated_Source\PSoC4/CapSense_1_CSHL.c **** * Function Name: CapSense_1_UpdateBaselineNoThreshold
 320:.\Generated_Source\PSoC4/CapSense_1_CSHL.c **** ********************************************************************************
 321:.\Generated_Source\PSoC4/CapSense_1_CSHL.c **** *
 322:.\Generated_Source\PSoC4/CapSense_1_CSHL.c **** * Summary:
 323:.\Generated_Source\PSoC4/CapSense_1_CSHL.c **** *  Updates the CapSense_1_sensorBaseline[sensor] array element using the 
 324:.\Generated_Source\PSoC4/CapSense_1_CSHL.c **** *  LP filter with k = 256. The signal calculates the difference of count by 
 325:.\Generated_Source\PSoC4/CapSense_1_CSHL.c **** *  subtracting the previous baseline from the current raw count value and stores
 326:.\Generated_Source\PSoC4/CapSense_1_CSHL.c **** *  it in CapSense_1_sensorSignal[sensor]. 
 327:.\Generated_Source\PSoC4/CapSense_1_CSHL.c **** *  If the auto reset option is enabled, the baseline updated regards the noise threshold. 
 328:.\Generated_Source\PSoC4/CapSense_1_CSHL.c **** *  If the auto reset option is disabled, the baseline stops updating; baseline is loaded 
 329:.\Generated_Source\PSoC4/CapSense_1_CSHL.c **** *  with a raw count value if a signal is greater than zero and if signal is less 
 330:.\Generated_Source\PSoC4/CapSense_1_CSHL.c **** *  than noise threshold.
 331:.\Generated_Source\PSoC4/CapSense_1_CSHL.c **** *  Raw data filters are applied to the values if enabled before baseline 
 332:.\Generated_Source\PSoC4/CapSense_1_CSHL.c **** *  calculation.
 333:.\Generated_Source\PSoC4/CapSense_1_CSHL.c **** *
 334:.\Generated_Source\PSoC4/CapSense_1_CSHL.c **** *  This API does not update the thresholds in the Smartsense Mode.
 335:.\Generated_Source\PSoC4/CapSense_1_CSHL.c **** *
 336:.\Generated_Source\PSoC4/CapSense_1_CSHL.c **** * Parameters:
 337:.\Generated_Source\PSoC4/CapSense_1_CSHL.c **** *  sensor:  Sensor number.
 338:.\Generated_Source\PSoC4/CapSense_1_CSHL.c **** *
 339:.\Generated_Source\PSoC4/CapSense_1_CSHL.c **** * Return:
 340:.\Generated_Source\PSoC4/CapSense_1_CSHL.c **** *  None
 341:.\Generated_Source\PSoC4/CapSense_1_CSHL.c **** *
 342:.\Generated_Source\PSoC4/CapSense_1_CSHL.c **** * Global Variables:
 343:.\Generated_Source\PSoC4/CapSense_1_CSHL.c **** *  CapSense_1_widgetNumber[]  - stores widget numbers.
 344:.\Generated_Source\PSoC4/CapSense_1_CSHL.c **** *  CapSense_1_sensorBaseline[]    - used to store baseline value.
 345:.\Generated_Source\PSoC4/CapSense_1_CSHL.c **** *  CapSense_1_sensorBaselineLow[] - used to store fraction byte of 
 346:.\Generated_Source\PSoC4/CapSense_1_CSHL.c **** *  baseline value.
ARM GAS  C:\Users\mitchell\AppData\Local\Temp\cclqk7v6.s 			page 13


 347:.\Generated_Source\PSoC4/CapSense_1_CSHL.c **** *  CapSense_1_sensorSignal[]      - used to store difference between 
 348:.\Generated_Source\PSoC4/CapSense_1_CSHL.c **** *  current value of raw data and previous value of baseline.
 349:.\Generated_Source\PSoC4/CapSense_1_CSHL.c **** *  CapSense_1_rawFilterData1[]    - used to store previous sample of 
 350:.\Generated_Source\PSoC4/CapSense_1_CSHL.c **** *  any enabled raw data filter.
 351:.\Generated_Source\PSoC4/CapSense_1_CSHL.c **** *  CapSense_1_rawFilterData2[]    - used to store before previous sample
 352:.\Generated_Source\PSoC4/CapSense_1_CSHL.c **** *  of enabled raw data filter. Only required for median or average filters.
 353:.\Generated_Source\PSoC4/CapSense_1_CSHL.c **** * 
 354:.\Generated_Source\PSoC4/CapSense_1_CSHL.c **** * Side Effects:
 355:.\Generated_Source\PSoC4/CapSense_1_CSHL.c **** *  None
 356:.\Generated_Source\PSoC4/CapSense_1_CSHL.c **** * 
 357:.\Generated_Source\PSoC4/CapSense_1_CSHL.c **** *******************************************************************************/
 358:.\Generated_Source\PSoC4/CapSense_1_CSHL.c **** void CapSense_1_UpdateBaselineNoThreshold(uint32 sensor)
 359:.\Generated_Source\PSoC4/CapSense_1_CSHL.c **** {
 331              		.loc 1 359 0
 332              		.cfi_startproc
 333 0000 80B5     		push	{r7, lr}
 334              		.cfi_def_cfa_offset 8
 335              		.cfi_offset 7, -8
 336              		.cfi_offset 14, -4
 337 0002 86B0     		sub	sp, sp, #24
 338              		.cfi_def_cfa_offset 32
 339 0004 00AF     		add	r7, sp, #0
 340              		.cfi_def_cfa_register 7
 341 0006 7860     		str	r0, [r7, #4]
 360:.\Generated_Source\PSoC4/CapSense_1_CSHL.c ****     uint32 calc;
 361:.\Generated_Source\PSoC4/CapSense_1_CSHL.c **** 	uint32 sign;
 362:.\Generated_Source\PSoC4/CapSense_1_CSHL.c ****     uint16 tempRaw;
 363:.\Generated_Source\PSoC4/CapSense_1_CSHL.c ****     uint16 filteredRawData;
 364:.\Generated_Source\PSoC4/CapSense_1_CSHL.c ****     uint8 widget = CapSense_1_widgetNumber[sensor];
 342              		.loc 1 364 0
 343 0008 3B1C     		mov	r3, r7
 344 000a 1133     		add	r3, r3, #17
 345 000c 6249     		ldr	r1, .L28
 346 000e 7A68     		ldr	r2, [r7, #4]
 347 0010 8A18     		add	r2, r1, r2
 348 0012 1278     		ldrb	r2, [r2]
 349 0014 1A70     		strb	r2, [r3]
 365:.\Generated_Source\PSoC4/CapSense_1_CSHL.c ****     uint8 noiseThreshold = CapSense_1_noiseThreshold[widget];
 350              		.loc 1 365 0
 351 0016 3B1C     		mov	r3, r7
 352 0018 1033     		add	r3, r3, #16
 353 001a 1422     		mov	r2, #20
 354 001c 1A70     		strb	r2, [r3]
 366:.\Generated_Source\PSoC4/CapSense_1_CSHL.c ****     
 367:.\Generated_Source\PSoC4/CapSense_1_CSHL.c ****     #if (CapSense_1_TOTAL_GENERICS_COUNT)
 368:.\Generated_Source\PSoC4/CapSense_1_CSHL.c ****         /* Exclude generic widget */
 369:.\Generated_Source\PSoC4/CapSense_1_CSHL.c ****         if(widget < CapSense_1_END_OF_WIDGETS_INDEX)
 370:.\Generated_Source\PSoC4/CapSense_1_CSHL.c ****         {
 371:.\Generated_Source\PSoC4/CapSense_1_CSHL.c ****     #endif  /* CapSense_1_TOTAL_GENERICS_COUNT */
 372:.\Generated_Source\PSoC4/CapSense_1_CSHL.c ****     
 373:.\Generated_Source\PSoC4/CapSense_1_CSHL.c ****     filteredRawData = CapSense_1_sensorRaw[sensor];
 355              		.loc 1 373 0
 356 001e 3B1C     		mov	r3, r7
 357 0020 0E33     		add	r3, r3, #14
 358 0022 5E4A     		ldr	r2, .L28+4
 359 0024 7968     		ldr	r1, [r7, #4]
 360 0026 4900     		lsl	r1, r1, #1
ARM GAS  C:\Users\mitchell\AppData\Local\Temp\cclqk7v6.s 			page 14


 361 0028 8A5A     		ldrh	r2, [r1, r2]
 362 002a 1A80     		strh	r2, [r3]
 374:.\Generated_Source\PSoC4/CapSense_1_CSHL.c **** 
 375:.\Generated_Source\PSoC4/CapSense_1_CSHL.c **** 	#if (CapSense_1_RAW_FILTER_MASK != 0u)
 376:.\Generated_Source\PSoC4/CapSense_1_CSHL.c **** 	if(CapSense_1_enableRawFilters != 0u)
 377:.\Generated_Source\PSoC4/CapSense_1_CSHL.c **** 	{
 378:.\Generated_Source\PSoC4/CapSense_1_CSHL.c **** 		#if (CapSense_1_RAW_FILTER_MASK & CapSense_1_MEDIAN_FILTER)
 379:.\Generated_Source\PSoC4/CapSense_1_CSHL.c **** 			tempRaw = filteredRawData;
 380:.\Generated_Source\PSoC4/CapSense_1_CSHL.c **** 			filteredRawData = CapSense_1_MedianFilter(filteredRawData, CapSense_1_rawFilterData1[sensor], 
 381:.\Generated_Source\PSoC4/CapSense_1_CSHL.c **** 															CapSense_1_rawFilterData2[sensor]);
 382:.\Generated_Source\PSoC4/CapSense_1_CSHL.c **** 			CapSense_1_rawFilterData2[sensor] = CapSense_1_rawFilterData1[sensor];
 383:.\Generated_Source\PSoC4/CapSense_1_CSHL.c **** 			CapSense_1_rawFilterData1[sensor] = tempRaw;
 384:.\Generated_Source\PSoC4/CapSense_1_CSHL.c **** 			
 385:.\Generated_Source\PSoC4/CapSense_1_CSHL.c **** 		#elif (CapSense_1_RAW_FILTER_MASK & CapSense_1_AVERAGING_FILTER)
 386:.\Generated_Source\PSoC4/CapSense_1_CSHL.c **** 			tempRaw = filteredRawData;
 387:.\Generated_Source\PSoC4/CapSense_1_CSHL.c **** 			filteredRawData = CapSense_1_AveragingFilter(filteredRawData, CapSense_1_rawFilterData1[sensor],
 388:.\Generated_Source\PSoC4/CapSense_1_CSHL.c **** 															   CapSense_1_rawFilterData2[sensor]);
 389:.\Generated_Source\PSoC4/CapSense_1_CSHL.c **** 			CapSense_1_rawFilterData2[sensor] = CapSense_1_rawFilterData1[sensor];
 390:.\Generated_Source\PSoC4/CapSense_1_CSHL.c **** 			CapSense_1_rawFilterData1[sensor] = tempRaw;
 391:.\Generated_Source\PSoC4/CapSense_1_CSHL.c **** 			
 392:.\Generated_Source\PSoC4/CapSense_1_CSHL.c **** 		#elif (CapSense_1_RAW_FILTER_MASK & CapSense_1_IIR2_FILTER)
 393:.\Generated_Source\PSoC4/CapSense_1_CSHL.c **** 			filteredRawData = CapSense_1_IIR2Filter(filteredRawData, CapSense_1_rawFilterData1[sensor]);
 394:.\Generated_Source\PSoC4/CapSense_1_CSHL.c **** 			CapSense_1_rawFilterData1[sensor] = filteredRawData;
 395:.\Generated_Source\PSoC4/CapSense_1_CSHL.c **** 			
 396:.\Generated_Source\PSoC4/CapSense_1_CSHL.c **** 		#elif (CapSense_1_RAW_FILTER_MASK & CapSense_1_IIR4_FILTER)
 397:.\Generated_Source\PSoC4/CapSense_1_CSHL.c **** 			filteredRawData = CapSense_1_IIR4Filter(filteredRawData, CapSense_1_rawFilterData1[sensor]);
 398:.\Generated_Source\PSoC4/CapSense_1_CSHL.c **** 			CapSense_1_rawFilterData1[sensor] = filteredRawData;
 399:.\Generated_Source\PSoC4/CapSense_1_CSHL.c **** 				
 400:.\Generated_Source\PSoC4/CapSense_1_CSHL.c **** 		#elif (CapSense_1_RAW_FILTER_MASK & CapSense_1_JITTER_FILTER)
 401:.\Generated_Source\PSoC4/CapSense_1_CSHL.c **** 			filteredRawData = CapSense_1_JitterFilter(filteredRawData, CapSense_1_rawFilterData1[sensor]);
 402:.\Generated_Source\PSoC4/CapSense_1_CSHL.c **** 			CapSense_1_rawFilterData1[sensor] = filteredRawData;
 403:.\Generated_Source\PSoC4/CapSense_1_CSHL.c **** 			
 404:.\Generated_Source\PSoC4/CapSense_1_CSHL.c **** 		#elif (CapSense_1_RAW_FILTER_MASK & CapSense_1_IIR8_FILTER)
 405:.\Generated_Source\PSoC4/CapSense_1_CSHL.c **** 			filteredRawData = CapSense_1_IIR8Filter(filteredRawData, CapSense_1_rawFilterData1[sensor]);
 406:.\Generated_Source\PSoC4/CapSense_1_CSHL.c **** 			CapSense_1_rawFilterData1[sensor] = filteredRawData;
 407:.\Generated_Source\PSoC4/CapSense_1_CSHL.c **** 			
 408:.\Generated_Source\PSoC4/CapSense_1_CSHL.c **** 		#elif (CapSense_1_RAW_FILTER_MASK & CapSense_1_IIR16_FILTER)
 409:.\Generated_Source\PSoC4/CapSense_1_CSHL.c **** 			filteredRawData = CapSense_1_IIR16Filter(filteredRawData, CapSense_1_rawFilterData1[sensor]);
 410:.\Generated_Source\PSoC4/CapSense_1_CSHL.c **** 			CapSense_1_rawFilterData1[sensor] = filteredRawData;
 411:.\Generated_Source\PSoC4/CapSense_1_CSHL.c **** 			
 412:.\Generated_Source\PSoC4/CapSense_1_CSHL.c **** 		#else
 413:.\Generated_Source\PSoC4/CapSense_1_CSHL.c **** 			/* No Raw filters */
 414:.\Generated_Source\PSoC4/CapSense_1_CSHL.c **** 		#endif  /* (CapSense_1_RAW_FILTER_MASK & CapSense_1_MEDIAN_FILTER) */
 415:.\Generated_Source\PSoC4/CapSense_1_CSHL.c **** 	}
 416:.\Generated_Source\PSoC4/CapSense_1_CSHL.c **** 	#endif  /* (CapSense_1_RAW_FILTER_MASK != 0u) */
 417:.\Generated_Source\PSoC4/CapSense_1_CSHL.c **** 	
 418:.\Generated_Source\PSoC4/CapSense_1_CSHL.c **** 	#if (CapSense_1_TUNING_METHOD == CapSense_1__TUNING_AUTO)
 419:.\Generated_Source\PSoC4/CapSense_1_CSHL.c **** 	    MeasureNoiseEnvelope_P4_v2_20(&CapSense_1_config, (uint8)sensor, CapSense_1_sensorRaw);
 420:.\Generated_Source\PSoC4/CapSense_1_CSHL.c **** 	#endif /* (CapSense_1_TUNING_METHOD == CapSense_1__TUNING_AUTO) */
 421:.\Generated_Source\PSoC4/CapSense_1_CSHL.c **** 
 422:.\Generated_Source\PSoC4/CapSense_1_CSHL.c ****     /* Baseline calculation */
 423:.\Generated_Source\PSoC4/CapSense_1_CSHL.c ****     /* Calculate difference RawData[cur] - Baseline[prev] */
 424:.\Generated_Source\PSoC4/CapSense_1_CSHL.c ****     if(filteredRawData >= CapSense_1_sensorBaseline[sensor])
 363              		.loc 1 424 0
 364 002c 5C4B     		ldr	r3, .L28+8
 365 002e 7A68     		ldr	r2, [r7, #4]
 366 0030 5200     		lsl	r2, r2, #1
ARM GAS  C:\Users\mitchell\AppData\Local\Temp\cclqk7v6.s 			page 15


 367 0032 D35A     		ldrh	r3, [r2, r3]
 368 0034 3A1C     		mov	r2, r7
 369 0036 0E32     		add	r2, r2, #14
 370 0038 1288     		ldrh	r2, [r2]
 371 003a 9A42     		cmp	r2, r3
 372 003c 12D3     		bcc	.L17
 425:.\Generated_Source\PSoC4/CapSense_1_CSHL.c ****     {
 426:.\Generated_Source\PSoC4/CapSense_1_CSHL.c **** 		CapSense_1_lowBaselineResetCnt[sensor] = 0u;	
 373              		.loc 1 426 0
 374 003e 594A     		ldr	r2, .L28+12
 375 0040 7B68     		ldr	r3, [r7, #4]
 376 0042 D318     		add	r3, r2, r3
 377 0044 0022     		mov	r2, #0
 378 0046 1A70     		strb	r2, [r3]
 427:.\Generated_Source\PSoC4/CapSense_1_CSHL.c ****         tempRaw = filteredRawData - CapSense_1_sensorBaseline[sensor];
 379              		.loc 1 427 0
 380 0048 554B     		ldr	r3, .L28+8
 381 004a 7A68     		ldr	r2, [r7, #4]
 382 004c 5200     		lsl	r2, r2, #1
 383 004e D25A     		ldrh	r2, [r2, r3]
 384 0050 3B1C     		mov	r3, r7
 385 0052 1233     		add	r3, r3, #18
 386 0054 391C     		mov	r1, r7
 387 0056 0E31     		add	r1, r1, #14
 388 0058 0988     		ldrh	r1, [r1]
 389 005a 8A1A     		sub	r2, r1, r2
 390 005c 1A80     		strh	r2, [r3]
 428:.\Generated_Source\PSoC4/CapSense_1_CSHL.c ****         sign = 1u;    /* Positive difference - Calculate the Signal */
 391              		.loc 1 428 0
 392 005e 0123     		mov	r3, #1
 393 0060 7B61     		str	r3, [r7, #20]
 394 0062 0CE0     		b	.L18
 395              	.L17:
 429:.\Generated_Source\PSoC4/CapSense_1_CSHL.c ****     }
 430:.\Generated_Source\PSoC4/CapSense_1_CSHL.c ****     else
 431:.\Generated_Source\PSoC4/CapSense_1_CSHL.c ****     {
 432:.\Generated_Source\PSoC4/CapSense_1_CSHL.c ****         tempRaw = CapSense_1_sensorBaseline[sensor] - filteredRawData;
 396              		.loc 1 432 0
 397 0064 4E4B     		ldr	r3, .L28+8
 398 0066 7A68     		ldr	r2, [r7, #4]
 399 0068 5200     		lsl	r2, r2, #1
 400 006a D15A     		ldrh	r1, [r2, r3]
 401 006c 3B1C     		mov	r3, r7
 402 006e 1233     		add	r3, r3, #18
 403 0070 3A1C     		mov	r2, r7
 404 0072 0E32     		add	r2, r2, #14
 405 0074 1288     		ldrh	r2, [r2]
 406 0076 8A1A     		sub	r2, r1, r2
 407 0078 1A80     		strh	r2, [r3]
 433:.\Generated_Source\PSoC4/CapSense_1_CSHL.c ****         sign = 0u;    /* Negative difference - Do NOT calculate the Signal */
 408              		.loc 1 433 0
 409 007a 0023     		mov	r3, #0
 410 007c 7B61     		str	r3, [r7, #20]
 411              	.L18:
 434:.\Generated_Source\PSoC4/CapSense_1_CSHL.c ****     }
 435:.\Generated_Source\PSoC4/CapSense_1_CSHL.c **** 
 436:.\Generated_Source\PSoC4/CapSense_1_CSHL.c **** 	#if (CapSense_1_TUNING_METHOD != CapSense_1__TUNING_NONE)
ARM GAS  C:\Users\mitchell\AppData\Local\Temp\cclqk7v6.s 			page 16


 437:.\Generated_Source\PSoC4/CapSense_1_CSHL.c **** 	if((sign == 0u) && (tempRaw > (uint16) CapSense_1_negativeNoiseThreshold[widget]))
 438:.\Generated_Source\PSoC4/CapSense_1_CSHL.c **** 	#else
 439:.\Generated_Source\PSoC4/CapSense_1_CSHL.c **** 	if((sign == 0u) && (tempRaw > (uint16) CapSense_1_NEGATIVE_NOISE_THRESHOLD))
 412              		.loc 1 439 0
 413 007e 7B69     		ldr	r3, [r7, #20]
 414 0080 002B     		cmp	r3, #0
 415 0082 23D1     		bne	.L19
 416              		.loc 1 439 0 is_stmt 0 discriminator 1
 417 0084 3B1C     		mov	r3, r7
 418 0086 1233     		add	r3, r3, #18
 419 0088 1B88     		ldrh	r3, [r3]
 420 008a 142B     		cmp	r3, #20
 421 008c 1ED9     		bls	.L19
 440:.\Generated_Source\PSoC4/CapSense_1_CSHL.c **** 	#endif /* (CapSense_1_TUNING_METHOD != CapSense_1__TUNING_NONE) */ 
 441:.\Generated_Source\PSoC4/CapSense_1_CSHL.c ****     {
 442:.\Generated_Source\PSoC4/CapSense_1_CSHL.c ****         if(CapSense_1_lowBaselineResetCnt[sensor] >= CapSense_1_lowBaselineReset[sensor])
 422              		.loc 1 442 0 is_stmt 1
 423 008e 454A     		ldr	r2, .L28+12
 424 0090 7B68     		ldr	r3, [r7, #4]
 425 0092 D318     		add	r3, r2, r3
 426 0094 1A78     		ldrb	r2, [r3]
 427 0096 4449     		ldr	r1, .L28+16
 428 0098 7B68     		ldr	r3, [r7, #4]
 429 009a CB18     		add	r3, r1, r3
 430 009c 1B78     		ldrb	r3, [r3]
 431 009e 9A42     		cmp	r2, r3
 432 00a0 09D3     		bcc	.L20
 443:.\Generated_Source\PSoC4/CapSense_1_CSHL.c ****         {
 444:.\Generated_Source\PSoC4/CapSense_1_CSHL.c ****             CapSense_1_BaseInit(sensor);
 433              		.loc 1 444 0
 434 00a2 7B68     		ldr	r3, [r7, #4]
 435 00a4 181C     		mov	r0, r3
 436 00a6 FFF7FEFF 		bl	CapSense_1_BaseInit
 445:.\Generated_Source\PSoC4/CapSense_1_CSHL.c ****             CapSense_1_lowBaselineResetCnt[sensor] = 0u;
 437              		.loc 1 445 0
 438 00aa 3E4A     		ldr	r2, .L28+12
 439 00ac 7B68     		ldr	r3, [r7, #4]
 440 00ae D318     		add	r3, r2, r3
 441 00b0 0022     		mov	r2, #0
 442 00b2 1A70     		strb	r2, [r3]
 442:.\Generated_Source\PSoC4/CapSense_1_CSHL.c ****         if(CapSense_1_lowBaselineResetCnt[sensor] >= CapSense_1_lowBaselineReset[sensor])
 443              		.loc 1 442 0
 444 00b4 47E0     		b	.L22
 445              	.L20:
 446:.\Generated_Source\PSoC4/CapSense_1_CSHL.c ****         }
 447:.\Generated_Source\PSoC4/CapSense_1_CSHL.c ****         else
 448:.\Generated_Source\PSoC4/CapSense_1_CSHL.c ****         {
 449:.\Generated_Source\PSoC4/CapSense_1_CSHL.c ****             CapSense_1_lowBaselineResetCnt[sensor]++;
 446              		.loc 1 449 0
 447 00b6 3B4A     		ldr	r2, .L28+12
 448 00b8 7B68     		ldr	r3, [r7, #4]
 449 00ba D318     		add	r3, r2, r3
 450 00bc 1B78     		ldrb	r3, [r3]
 451 00be 0133     		add	r3, r3, #1
 452 00c0 DAB2     		uxtb	r2, r3
 453 00c2 3849     		ldr	r1, .L28+12
 454 00c4 7B68     		ldr	r3, [r7, #4]
ARM GAS  C:\Users\mitchell\AppData\Local\Temp\cclqk7v6.s 			page 17


 455 00c6 CB18     		add	r3, r1, r3
 456 00c8 1A70     		strb	r2, [r3]
 442:.\Generated_Source\PSoC4/CapSense_1_CSHL.c ****         if(CapSense_1_lowBaselineResetCnt[sensor] >= CapSense_1_lowBaselineReset[sensor])
 457              		.loc 1 442 0
 458 00ca 3CE0     		b	.L22
 459              	.L19:
 450:.\Generated_Source\PSoC4/CapSense_1_CSHL.c ****         }
 451:.\Generated_Source\PSoC4/CapSense_1_CSHL.c ****     }
 452:.\Generated_Source\PSoC4/CapSense_1_CSHL.c ****     else
 453:.\Generated_Source\PSoC4/CapSense_1_CSHL.c ****     {
 454:.\Generated_Source\PSoC4/CapSense_1_CSHL.c ****         #if (CapSense_1_AUTO_RESET == CapSense_1_AUTO_RESET_DISABLE)
 455:.\Generated_Source\PSoC4/CapSense_1_CSHL.c **** 		#if (CapSense_1_TUNING_METHOD != CapSense_1__TUNING_NONE)			
 456:.\Generated_Source\PSoC4/CapSense_1_CSHL.c **** 			/* Update Baseline if lower than noiseThreshold */
 457:.\Generated_Source\PSoC4/CapSense_1_CSHL.c **** 			if ( (tempRaw <= noiseThreshold) || 
 458:.\Generated_Source\PSoC4/CapSense_1_CSHL.c **** 			 ((tempRaw < (uint16) CapSense_1_negativeNoiseThreshold[widget])
 459:.\Generated_Source\PSoC4/CapSense_1_CSHL.c **** 			   && (sign == 0u)))
 460:.\Generated_Source\PSoC4/CapSense_1_CSHL.c **** 			{
 461:.\Generated_Source\PSoC4/CapSense_1_CSHL.c **** 		#else
 462:.\Generated_Source\PSoC4/CapSense_1_CSHL.c **** 			/* Update Baseline if lower than noiseThreshold */
 463:.\Generated_Source\PSoC4/CapSense_1_CSHL.c **** 			if ( (tempRaw <= noiseThreshold) || 
 460              		.loc 1 463 0
 461 00cc 3B1C     		mov	r3, r7
 462 00ce 1033     		add	r3, r3, #16
 463 00d0 1B78     		ldrb	r3, [r3]
 464 00d2 9BB2     		uxth	r3, r3
 465 00d4 3A1C     		mov	r2, r7
 466 00d6 1232     		add	r2, r2, #18
 467 00d8 1288     		ldrh	r2, [r2]
 468 00da 9A42     		cmp	r2, r3
 469 00dc 07D9     		bls	.L23
 470              		.loc 1 463 0 is_stmt 0 discriminator 1
 471 00de 3B1C     		mov	r3, r7
 472 00e0 1233     		add	r3, r3, #18
 473 00e2 1B88     		ldrh	r3, [r3]
 474 00e4 132B     		cmp	r3, #19
 475 00e6 2ED8     		bhi	.L22
 464:.\Generated_Source\PSoC4/CapSense_1_CSHL.c **** 				 ((tempRaw < (uint16) CapSense_1_NEGATIVE_NOISE_THRESHOLD)
 465:.\Generated_Source\PSoC4/CapSense_1_CSHL.c **** 				   && (sign == 0u)))
 476              		.loc 1 465 0 is_stmt 1
 477 00e8 7B69     		ldr	r3, [r7, #20]
 478 00ea 002B     		cmp	r3, #0
 479 00ec 2BD1     		bne	.L22
 480              	.L23:
 466:.\Generated_Source\PSoC4/CapSense_1_CSHL.c **** 			{
 467:.\Generated_Source\PSoC4/CapSense_1_CSHL.c **** 		#endif /* (CapSense_1_TUNING_METHOD != CapSense_1__TUNING_NONE) */ 
 468:.\Generated_Source\PSoC4/CapSense_1_CSHL.c ****         #endif /* (CapSense_1_AUTO_RESET == CapSense_1_AUTO_RESET_DISABLE) */
 469:.\Generated_Source\PSoC4/CapSense_1_CSHL.c ****                 /* Make full Baseline 23 bits */
 470:.\Generated_Source\PSoC4/CapSense_1_CSHL.c ****                 calc = (uint32) CapSense_1_sensorBaseline[sensor] << 8u;
 481              		.loc 1 470 0
 482 00ee 2C4B     		ldr	r3, .L28+8
 483 00f0 7A68     		ldr	r2, [r7, #4]
 484 00f2 5200     		lsl	r2, r2, #1
 485 00f4 D35A     		ldrh	r3, [r2, r3]
 486 00f6 1B02     		lsl	r3, r3, #8
 487 00f8 BB60     		str	r3, [r7, #8]
 471:.\Generated_Source\PSoC4/CapSense_1_CSHL.c ****                 calc |= (uint32) CapSense_1_sensorBaselineLow[sensor];
 488              		.loc 1 471 0
ARM GAS  C:\Users\mitchell\AppData\Local\Temp\cclqk7v6.s 			page 18


 489 00fa 2C4A     		ldr	r2, .L28+20
 490 00fc 7B68     		ldr	r3, [r7, #4]
 491 00fe D318     		add	r3, r2, r3
 492 0100 1B78     		ldrb	r3, [r3]
 493 0102 BA68     		ldr	r2, [r7, #8]
 494 0104 1343     		orr	r3, r2
 495 0106 BB60     		str	r3, [r7, #8]
 472:.\Generated_Source\PSoC4/CapSense_1_CSHL.c **** 
 473:.\Generated_Source\PSoC4/CapSense_1_CSHL.c ****                 /* Add Raw Data to Baseline */
 474:.\Generated_Source\PSoC4/CapSense_1_CSHL.c ****                 calc += filteredRawData;
 496              		.loc 1 474 0
 497 0108 3B1C     		mov	r3, r7
 498 010a 0E33     		add	r3, r3, #14
 499 010c 1B88     		ldrh	r3, [r3]
 500 010e BA68     		ldr	r2, [r7, #8]
 501 0110 D318     		add	r3, r2, r3
 502 0112 BB60     		str	r3, [r7, #8]
 475:.\Generated_Source\PSoC4/CapSense_1_CSHL.c **** 
 476:.\Generated_Source\PSoC4/CapSense_1_CSHL.c ****                 /* Sub the high Baseline */
 477:.\Generated_Source\PSoC4/CapSense_1_CSHL.c ****                 calc -= CapSense_1_sensorBaseline[sensor];
 503              		.loc 1 477 0
 504 0114 224B     		ldr	r3, .L28+8
 505 0116 7A68     		ldr	r2, [r7, #4]
 506 0118 5200     		lsl	r2, r2, #1
 507 011a D35A     		ldrh	r3, [r2, r3]
 508 011c BA68     		ldr	r2, [r7, #8]
 509 011e D31A     		sub	r3, r2, r3
 510 0120 BB60     		str	r3, [r7, #8]
 478:.\Generated_Source\PSoC4/CapSense_1_CSHL.c **** 
 479:.\Generated_Source\PSoC4/CapSense_1_CSHL.c ****                 /* Put Baseline and BaselineLow */
 480:.\Generated_Source\PSoC4/CapSense_1_CSHL.c ****                 CapSense_1_sensorBaseline[sensor] = ((uint16) (calc >> 8u));
 511              		.loc 1 480 0
 512 0122 BB68     		ldr	r3, [r7, #8]
 513 0124 1B0A     		lsr	r3, r3, #8
 514 0126 99B2     		uxth	r1, r3
 515 0128 1D4B     		ldr	r3, .L28+8
 516 012a 7A68     		ldr	r2, [r7, #4]
 517 012c 5200     		lsl	r2, r2, #1
 518 012e D152     		strh	r1, [r2, r3]
 481:.\Generated_Source\PSoC4/CapSense_1_CSHL.c ****                 CapSense_1_sensorBaselineLow[sensor] = ((uint8) calc);
 519              		.loc 1 481 0
 520 0130 BB68     		ldr	r3, [r7, #8]
 521 0132 DAB2     		uxtb	r2, r3
 522 0134 1D49     		ldr	r1, .L28+20
 523 0136 7B68     		ldr	r3, [r7, #4]
 524 0138 CB18     		add	r3, r1, r3
 525 013a 1A70     		strb	r2, [r3]
 482:.\Generated_Source\PSoC4/CapSense_1_CSHL.c **** 
 483:.\Generated_Source\PSoC4/CapSense_1_CSHL.c ****                 CapSense_1_lowBaselineResetCnt[sensor] = 0u;
 526              		.loc 1 483 0
 527 013c 194A     		ldr	r2, .L28+12
 528 013e 7B68     		ldr	r3, [r7, #4]
 529 0140 D318     		add	r3, r2, r3
 530 0142 0022     		mov	r2, #0
 531 0144 1A70     		strb	r2, [r3]
 532              	.L22:
 484:.\Generated_Source\PSoC4/CapSense_1_CSHL.c ****         #if (CapSense_1_AUTO_RESET == CapSense_1_AUTO_RESET_DISABLE)
ARM GAS  C:\Users\mitchell\AppData\Local\Temp\cclqk7v6.s 			page 19


 485:.\Generated_Source\PSoC4/CapSense_1_CSHL.c ****             }
 486:.\Generated_Source\PSoC4/CapSense_1_CSHL.c ****         #endif /* (CapSense_1_AUTO_RESET == CapSense_1_AUTO_RESET_DISABLE) */
 487:.\Generated_Source\PSoC4/CapSense_1_CSHL.c ****     }
 488:.\Generated_Source\PSoC4/CapSense_1_CSHL.c **** 
 489:.\Generated_Source\PSoC4/CapSense_1_CSHL.c ****     /* Calculate Signal if positive difference > noiseThreshold */
 490:.\Generated_Source\PSoC4/CapSense_1_CSHL.c ****     if((tempRaw > (uint16) noiseThreshold) && (sign != 0u))
 533              		.loc 1 490 0
 534 0146 3B1C     		mov	r3, r7
 535 0148 1033     		add	r3, r3, #16
 536 014a 1B78     		ldrb	r3, [r3]
 537 014c 9BB2     		uxth	r3, r3
 538 014e 3A1C     		mov	r2, r7
 539 0150 1232     		add	r2, r2, #18
 540 0152 1288     		ldrh	r2, [r2]
 541 0154 9A42     		cmp	r2, r3
 542 0156 16D9     		bls	.L24
 543              		.loc 1 490 0 is_stmt 0 discriminator 1
 544 0158 7B69     		ldr	r3, [r7, #20]
 545 015a 002B     		cmp	r3, #0
 546 015c 13D0     		beq	.L24
 491:.\Generated_Source\PSoC4/CapSense_1_CSHL.c ****     {
 492:.\Generated_Source\PSoC4/CapSense_1_CSHL.c ****         #if (CapSense_1_SIGNAL_SIZE == CapSense_1_SIGNAL_SIZE_UINT8)
 493:.\Generated_Source\PSoC4/CapSense_1_CSHL.c ****             /* Over flow defence for uint8 */
 494:.\Generated_Source\PSoC4/CapSense_1_CSHL.c ****             if (tempRaw > 0xFFu)
 547              		.loc 1 494 0 is_stmt 1
 548 015e 3B1C     		mov	r3, r7
 549 0160 1233     		add	r3, r3, #18
 550 0162 1B88     		ldrh	r3, [r3]
 551 0164 FF2B     		cmp	r3, #255
 552 0166 05D9     		bls	.L25
 495:.\Generated_Source\PSoC4/CapSense_1_CSHL.c ****             {
 496:.\Generated_Source\PSoC4/CapSense_1_CSHL.c ****                 CapSense_1_sensorSignal[sensor] = 0xFFu;
 553              		.loc 1 496 0
 554 0168 114A     		ldr	r2, .L28+24
 555 016a 7B68     		ldr	r3, [r7, #4]
 556 016c D318     		add	r3, r2, r3
 557 016e FF22     		mov	r2, #255
 558 0170 1A70     		strb	r2, [r3]
 494:.\Generated_Source\PSoC4/CapSense_1_CSHL.c ****             if (tempRaw > 0xFFu)
 559              		.loc 1 494 0
 560 0172 0DE0     		b	.L16
 561              	.L25:
 497:.\Generated_Source\PSoC4/CapSense_1_CSHL.c ****             }    
 498:.\Generated_Source\PSoC4/CapSense_1_CSHL.c ****             else 
 499:.\Generated_Source\PSoC4/CapSense_1_CSHL.c ****             {
 500:.\Generated_Source\PSoC4/CapSense_1_CSHL.c ****                 CapSense_1_sensorSignal[sensor] = ((uint8) tempRaw);
 562              		.loc 1 500 0
 563 0174 3B1C     		mov	r3, r7
 564 0176 1233     		add	r3, r3, #18
 565 0178 1B88     		ldrh	r3, [r3]
 566 017a DAB2     		uxtb	r2, r3
 567 017c 0C49     		ldr	r1, .L28+24
 568 017e 7B68     		ldr	r3, [r7, #4]
 569 0180 CB18     		add	r3, r1, r3
 570 0182 1A70     		strb	r2, [r3]
 494:.\Generated_Source\PSoC4/CapSense_1_CSHL.c ****             if (tempRaw > 0xFFu)
 571              		.loc 1 494 0
ARM GAS  C:\Users\mitchell\AppData\Local\Temp\cclqk7v6.s 			page 20


 572 0184 04E0     		b	.L16
 573              	.L24:
 501:.\Generated_Source\PSoC4/CapSense_1_CSHL.c ****             }
 502:.\Generated_Source\PSoC4/CapSense_1_CSHL.c ****         #else
 503:.\Generated_Source\PSoC4/CapSense_1_CSHL.c ****             CapSense_1_sensorSignal[sensor] = ((uint16) tempRaw);
 504:.\Generated_Source\PSoC4/CapSense_1_CSHL.c ****         #endif  /* (CapSense_1_SIGNAL_SIZE == CapSense_1_SIGNAL_SIZE_UINT8) */
 505:.\Generated_Source\PSoC4/CapSense_1_CSHL.c ****     }
 506:.\Generated_Source\PSoC4/CapSense_1_CSHL.c ****     else
 507:.\Generated_Source\PSoC4/CapSense_1_CSHL.c ****     {
 508:.\Generated_Source\PSoC4/CapSense_1_CSHL.c ****         /* Signal is zero */
 509:.\Generated_Source\PSoC4/CapSense_1_CSHL.c ****         CapSense_1_sensorSignal[sensor] = 0u;
 574              		.loc 1 509 0
 575 0186 0A4A     		ldr	r2, .L28+24
 576 0188 7B68     		ldr	r3, [r7, #4]
 577 018a D318     		add	r3, r2, r3
 578 018c 0022     		mov	r2, #0
 579 018e 1A70     		strb	r2, [r3]
 580              	.L16:
 510:.\Generated_Source\PSoC4/CapSense_1_CSHL.c ****     }
 511:.\Generated_Source\PSoC4/CapSense_1_CSHL.c **** 
 512:.\Generated_Source\PSoC4/CapSense_1_CSHL.c ****     #if (CapSense_1_TOTAL_GENERICS_COUNT)
 513:.\Generated_Source\PSoC4/CapSense_1_CSHL.c ****         /* Exclude generic widget */
 514:.\Generated_Source\PSoC4/CapSense_1_CSHL.c ****         }
 515:.\Generated_Source\PSoC4/CapSense_1_CSHL.c ****     #endif  /* CapSense_1_TOTAL_GENERICS_COUNT */
 516:.\Generated_Source\PSoC4/CapSense_1_CSHL.c **** }
 581              		.loc 1 516 0
 582 0190 BD46     		mov	sp, r7
 583 0192 06B0     		add	sp, sp, #24
 584              		@ sp needed
 585 0194 80BD     		pop	{r7, pc}
 586              	.L29:
 587 0196 C046     		.align	2
 588              	.L28:
 589 0198 00000000 		.word	CapSense_1_widgetNumber
 590 019c 00000000 		.word	CapSense_1_sensorRaw
 591 01a0 00000000 		.word	CapSense_1_sensorBaseline
 592 01a4 00000000 		.word	CapSense_1_lowBaselineResetCnt
 593 01a8 00000000 		.word	CapSense_1_lowBaselineReset
 594 01ac 00000000 		.word	CapSense_1_sensorBaselineLow
 595 01b0 00000000 		.word	CapSense_1_sensorSignal
 596              		.cfi_endproc
 597              	.LFE37:
 598              		.size	CapSense_1_UpdateBaselineNoThreshold, .-CapSense_1_UpdateBaselineNoThreshold
 599              		.section	.text.CapSense_1_UpdateSensorBaseline,"ax",%progbits
 600              		.align	2
 601              		.global	CapSense_1_UpdateSensorBaseline
 602              		.code	16
 603              		.thumb_func
 604              		.type	CapSense_1_UpdateSensorBaseline, %function
 605              	CapSense_1_UpdateSensorBaseline:
 606              	.LFB38:
 517:.\Generated_Source\PSoC4/CapSense_1_CSHL.c **** 
 518:.\Generated_Source\PSoC4/CapSense_1_CSHL.c **** 
 519:.\Generated_Source\PSoC4/CapSense_1_CSHL.c **** /*******************************************************************************
 520:.\Generated_Source\PSoC4/CapSense_1_CSHL.c **** * Function Name: CapSense_1_UpdateSensorBaseline
 521:.\Generated_Source\PSoC4/CapSense_1_CSHL.c **** ********************************************************************************
 522:.\Generated_Source\PSoC4/CapSense_1_CSHL.c **** *
ARM GAS  C:\Users\mitchell\AppData\Local\Temp\cclqk7v6.s 			page 21


 523:.\Generated_Source\PSoC4/CapSense_1_CSHL.c **** * Summary:
 524:.\Generated_Source\PSoC4/CapSense_1_CSHL.c **** *  Updates the CapSense_1_sensorBaseline[sensor] array element using the 
 525:.\Generated_Source\PSoC4/CapSense_1_CSHL.c **** *  LP filter with k = 256. The signal calculates the difference of count by 
 526:.\Generated_Source\PSoC4/CapSense_1_CSHL.c **** *  subtracting the previous baseline from the current raw count value and stores
 527:.\Generated_Source\PSoC4/CapSense_1_CSHL.c **** *  it in CapSense_1_sensorSignal[sensor]. 
 528:.\Generated_Source\PSoC4/CapSense_1_CSHL.c **** *  If the auto reset option is enabled, the baseline updated regards the noise threshold. 
 529:.\Generated_Source\PSoC4/CapSense_1_CSHL.c **** *  If the auto reset option is disabled, the baseline stops updating. 
 530:.\Generated_Source\PSoC4/CapSense_1_CSHL.c **** *  Baseline is loaded with raw count value if a signal is greater than zero and  
 531:.\Generated_Source\PSoC4/CapSense_1_CSHL.c **** *  if signal is less than noise threshold.
 532:.\Generated_Source\PSoC4/CapSense_1_CSHL.c **** *  Raw data filters are applied to the values if enabled before baseline 
 533:.\Generated_Source\PSoC4/CapSense_1_CSHL.c **** *  calculation.
 534:.\Generated_Source\PSoC4/CapSense_1_CSHL.c **** *  This API updates the thresholds in the Smartsense Mode.
 535:.\Generated_Source\PSoC4/CapSense_1_CSHL.c **** *
 536:.\Generated_Source\PSoC4/CapSense_1_CSHL.c **** * Parameters:
 537:.\Generated_Source\PSoC4/CapSense_1_CSHL.c **** *  sensor:  Sensor number.
 538:.\Generated_Source\PSoC4/CapSense_1_CSHL.c **** *
 539:.\Generated_Source\PSoC4/CapSense_1_CSHL.c **** * Return:
 540:.\Generated_Source\PSoC4/CapSense_1_CSHL.c **** *  None
 541:.\Generated_Source\PSoC4/CapSense_1_CSHL.c **** *
 542:.\Generated_Source\PSoC4/CapSense_1_CSHL.c **** * Global Variables:
 543:.\Generated_Source\PSoC4/CapSense_1_CSHL.c **** *  CapSense_1_widgetNumber[]  - stores widget numbers.
 544:.\Generated_Source\PSoC4/CapSense_1_CSHL.c **** * 
 545:.\Generated_Source\PSoC4/CapSense_1_CSHL.c **** * Side Effects:
 546:.\Generated_Source\PSoC4/CapSense_1_CSHL.c **** *  None
 547:.\Generated_Source\PSoC4/CapSense_1_CSHL.c **** * 
 548:.\Generated_Source\PSoC4/CapSense_1_CSHL.c **** *******************************************************************************/
 549:.\Generated_Source\PSoC4/CapSense_1_CSHL.c ****  void CapSense_1_UpdateSensorBaseline(uint32 sensor)
 550:.\Generated_Source\PSoC4/CapSense_1_CSHL.c **** {
 607              		.loc 1 550 0
 608              		.cfi_startproc
 609 0000 80B5     		push	{r7, lr}
 610              		.cfi_def_cfa_offset 8
 611              		.cfi_offset 7, -8
 612              		.cfi_offset 14, -4
 613 0002 82B0     		sub	sp, sp, #8
 614              		.cfi_def_cfa_offset 16
 615 0004 00AF     		add	r7, sp, #0
 616              		.cfi_def_cfa_register 7
 617 0006 7860     		str	r0, [r7, #4]
 551:.\Generated_Source\PSoC4/CapSense_1_CSHL.c ****     #if (CapSense_1_TOTAL_GENERICS_COUNT)
 552:.\Generated_Source\PSoC4/CapSense_1_CSHL.c **** 		uint32 widget;
 553:.\Generated_Source\PSoC4/CapSense_1_CSHL.c **** 		
 554:.\Generated_Source\PSoC4/CapSense_1_CSHL.c **** 		widget = CapSense_1_widgetNumber[sensor];
 555:.\Generated_Source\PSoC4/CapSense_1_CSHL.c **** 	
 556:.\Generated_Source\PSoC4/CapSense_1_CSHL.c ****         /* Exclude generic widget */
 557:.\Generated_Source\PSoC4/CapSense_1_CSHL.c ****         if(widget < CapSense_1_END_OF_WIDGETS_INDEX)
 558:.\Generated_Source\PSoC4/CapSense_1_CSHL.c ****         {
 559:.\Generated_Source\PSoC4/CapSense_1_CSHL.c ****     #endif  /* CapSense_1_TOTAL_GENERICS_COUNT */
 560:.\Generated_Source\PSoC4/CapSense_1_CSHL.c **** 
 561:.\Generated_Source\PSoC4/CapSense_1_CSHL.c ****     #if (CapSense_1_TUNING_METHOD == CapSense_1__TUNING_AUTO)
 562:.\Generated_Source\PSoC4/CapSense_1_CSHL.c ****     	CapSense_1_UpdateThresholds(sensor);
 563:.\Generated_Source\PSoC4/CapSense_1_CSHL.c ****     #endif /* (CapSense_1_TUNING_METHOD == CapSense_1__TUNING_AUTO) */
 564:.\Generated_Source\PSoC4/CapSense_1_CSHL.c **** 
 565:.\Generated_Source\PSoC4/CapSense_1_CSHL.c ****     CapSense_1_UpdateBaselineNoThreshold(sensor);
 618              		.loc 1 565 0
 619 0008 7B68     		ldr	r3, [r7, #4]
 620 000a 181C     		mov	r0, r3
ARM GAS  C:\Users\mitchell\AppData\Local\Temp\cclqk7v6.s 			page 22


 621 000c FFF7FEFF 		bl	CapSense_1_UpdateBaselineNoThreshold
 566:.\Generated_Source\PSoC4/CapSense_1_CSHL.c ****     
 567:.\Generated_Source\PSoC4/CapSense_1_CSHL.c ****     #if (CapSense_1_TOTAL_GENERICS_COUNT)
 568:.\Generated_Source\PSoC4/CapSense_1_CSHL.c ****         /* Exclude generic widget */
 569:.\Generated_Source\PSoC4/CapSense_1_CSHL.c ****         }
 570:.\Generated_Source\PSoC4/CapSense_1_CSHL.c ****     #endif  /* CapSense_1_TOTAL_GENERICS_COUNT */
 571:.\Generated_Source\PSoC4/CapSense_1_CSHL.c **** }
 622              		.loc 1 571 0
 623 0010 BD46     		mov	sp, r7
 624 0012 02B0     		add	sp, sp, #8
 625              		@ sp needed
 626 0014 80BD     		pop	{r7, pc}
 627              		.cfi_endproc
 628              	.LFE38:
 629              		.size	CapSense_1_UpdateSensorBaseline, .-CapSense_1_UpdateSensorBaseline
 630 0016 C046     		.section	.text.CapSense_1_UpdateEnabledBaselines,"ax",%progbits
 631              		.align	2
 632              		.global	CapSense_1_UpdateEnabledBaselines
 633              		.code	16
 634              		.thumb_func
 635              		.type	CapSense_1_UpdateEnabledBaselines, %function
 636              	CapSense_1_UpdateEnabledBaselines:
 637              	.LFB39:
 572:.\Generated_Source\PSoC4/CapSense_1_CSHL.c **** 
 573:.\Generated_Source\PSoC4/CapSense_1_CSHL.c **** 
 574:.\Generated_Source\PSoC4/CapSense_1_CSHL.c **** /*******************************************************************************
 575:.\Generated_Source\PSoC4/CapSense_1_CSHL.c **** * Function Name: CapSense_1_UpdateEnabledBaselines
 576:.\Generated_Source\PSoC4/CapSense_1_CSHL.c **** ********************************************************************************
 577:.\Generated_Source\PSoC4/CapSense_1_CSHL.c **** *
 578:.\Generated_Source\PSoC4/CapSense_1_CSHL.c **** * Summary:
 579:.\Generated_Source\PSoC4/CapSense_1_CSHL.c **** *  Checks CapSense_1_sensorEnableMask[] array and calls the 
 580:.\Generated_Source\PSoC4/CapSense_1_CSHL.c **** *  CapSense_1_UpdateSensorBaseline function to update the baselines 
 581:.\Generated_Source\PSoC4/CapSense_1_CSHL.c **** *  for the enabled sensors.
 582:.\Generated_Source\PSoC4/CapSense_1_CSHL.c **** *
 583:.\Generated_Source\PSoC4/CapSense_1_CSHL.c **** * Parameters:
 584:.\Generated_Source\PSoC4/CapSense_1_CSHL.c **** *  None
 585:.\Generated_Source\PSoC4/CapSense_1_CSHL.c **** *
 586:.\Generated_Source\PSoC4/CapSense_1_CSHL.c **** * Return:
 587:.\Generated_Source\PSoC4/CapSense_1_CSHL.c **** *  None
 588:.\Generated_Source\PSoC4/CapSense_1_CSHL.c **** *
 589:.\Generated_Source\PSoC4/CapSense_1_CSHL.c **** * Global Variables:
 590:.\Generated_Source\PSoC4/CapSense_1_CSHL.c **** *  CapSense_1_sensorEnableMask[] - used to store the sensor scanning 
 591:.\Generated_Source\PSoC4/CapSense_1_CSHL.c **** *  state.
 592:.\Generated_Source\PSoC4/CapSense_1_CSHL.c **** *  CapSense_1_sensorEnableMask[0] contains the masked bits for sensors 
 593:.\Generated_Source\PSoC4/CapSense_1_CSHL.c **** *   0 through 7 (sensor 0 is bit 0, sensor 1 is bit 1).
 594:.\Generated_Source\PSoC4/CapSense_1_CSHL.c **** *  CapSense_1_sensorEnableMask[1] contains the masked bits for 
 595:.\Generated_Source\PSoC4/CapSense_1_CSHL.c **** *  sensors 8 through 15 (if needed), and so on.
 596:.\Generated_Source\PSoC4/CapSense_1_CSHL.c **** *  0 - sensor doesn't scan by CapSense_1_ScanEnabledWidgets().
 597:.\Generated_Source\PSoC4/CapSense_1_CSHL.c **** *  1 - sensor scans by CapSense_1_ScanEnabledWidgets().
 598:.\Generated_Source\PSoC4/CapSense_1_CSHL.c **** * 
 599:.\Generated_Source\PSoC4/CapSense_1_CSHL.c **** * Side Effects:
 600:.\Generated_Source\PSoC4/CapSense_1_CSHL.c **** *  None
 601:.\Generated_Source\PSoC4/CapSense_1_CSHL.c **** * 
 602:.\Generated_Source\PSoC4/CapSense_1_CSHL.c **** *******************************************************************************/
 603:.\Generated_Source\PSoC4/CapSense_1_CSHL.c ****  void CapSense_1_UpdateEnabledBaselines(void)
 604:.\Generated_Source\PSoC4/CapSense_1_CSHL.c **** {
 638              		.loc 1 604 0
ARM GAS  C:\Users\mitchell\AppData\Local\Temp\cclqk7v6.s 			page 23


 639              		.cfi_startproc
 640 0000 80B5     		push	{r7, lr}
 641              		.cfi_def_cfa_offset 8
 642              		.cfi_offset 7, -8
 643              		.cfi_offset 14, -4
 644 0002 82B0     		sub	sp, sp, #8
 645              		.cfi_def_cfa_offset 16
 646 0004 00AF     		add	r7, sp, #0
 647              		.cfi_def_cfa_register 7
 605:.\Generated_Source\PSoC4/CapSense_1_CSHL.c ****     uint32 i;
 606:.\Generated_Source\PSoC4/CapSense_1_CSHL.c ****     uint32 isSensorEnabled;
 607:.\Generated_Source\PSoC4/CapSense_1_CSHL.c ****     
 608:.\Generated_Source\PSoC4/CapSense_1_CSHL.c ****     for(i = 0u; i < CapSense_1_TOTAL_SENSOR_COUNT; i++)
 648              		.loc 1 608 0
 649 0006 0023     		mov	r3, #0
 650 0008 7B60     		str	r3, [r7, #4]
 651 000a 11E0     		b	.L32
 652              	.L34:
 609:.\Generated_Source\PSoC4/CapSense_1_CSHL.c ****     {
 610:.\Generated_Source\PSoC4/CapSense_1_CSHL.c ****         isSensorEnabled = CapSense_1_GetBitValue(CapSense_1_sensorEnableMask, i);
 653              		.loc 1 610 0
 654 000c 0B4A     		ldr	r2, .L35
 655 000e 7B68     		ldr	r3, [r7, #4]
 656 0010 101C     		mov	r0, r2
 657 0012 191C     		mov	r1, r3
 658 0014 FFF7FEFF 		bl	CapSense_1_GetBitValue
 659 0018 031C     		mov	r3, r0
 660 001a 3B60     		str	r3, [r7]
 611:.\Generated_Source\PSoC4/CapSense_1_CSHL.c ****         
 612:.\Generated_Source\PSoC4/CapSense_1_CSHL.c ****         if(0u != isSensorEnabled)
 661              		.loc 1 612 0
 662 001c 3B68     		ldr	r3, [r7]
 663 001e 002B     		cmp	r3, #0
 664 0020 03D0     		beq	.L33
 613:.\Generated_Source\PSoC4/CapSense_1_CSHL.c ****         {
 614:.\Generated_Source\PSoC4/CapSense_1_CSHL.c ****             CapSense_1_UpdateSensorBaseline(i);
 665              		.loc 1 614 0
 666 0022 7B68     		ldr	r3, [r7, #4]
 667 0024 181C     		mov	r0, r3
 668 0026 FFF7FEFF 		bl	CapSense_1_UpdateSensorBaseline
 669              	.L33:
 608:.\Generated_Source\PSoC4/CapSense_1_CSHL.c ****     for(i = 0u; i < CapSense_1_TOTAL_SENSOR_COUNT; i++)
 670              		.loc 1 608 0
 671 002a 7B68     		ldr	r3, [r7, #4]
 672 002c 0133     		add	r3, r3, #1
 673 002e 7B60     		str	r3, [r7, #4]
 674              	.L32:
 608:.\Generated_Source\PSoC4/CapSense_1_CSHL.c ****     for(i = 0u; i < CapSense_1_TOTAL_SENSOR_COUNT; i++)
 675              		.loc 1 608 0 is_stmt 0 discriminator 1
 676 0030 7B68     		ldr	r3, [r7, #4]
 677 0032 042B     		cmp	r3, #4
 678 0034 EAD9     		bls	.L34
 615:.\Generated_Source\PSoC4/CapSense_1_CSHL.c ****         }
 616:.\Generated_Source\PSoC4/CapSense_1_CSHL.c ****     }
 617:.\Generated_Source\PSoC4/CapSense_1_CSHL.c **** }
 679              		.loc 1 617 0 is_stmt 1
 680 0036 BD46     		mov	sp, r7
ARM GAS  C:\Users\mitchell\AppData\Local\Temp\cclqk7v6.s 			page 24


 681 0038 02B0     		add	sp, sp, #8
 682              		@ sp needed
 683 003a 80BD     		pop	{r7, pc}
 684              	.L36:
 685              		.align	2
 686              	.L35:
 687 003c 00000000 		.word	CapSense_1_sensorEnableMask
 688              		.cfi_endproc
 689              	.LFE39:
 690              		.size	CapSense_1_UpdateEnabledBaselines, .-CapSense_1_UpdateEnabledBaselines
 691              		.section	.text.CapSense_1_UpdateWidgetBaseline,"ax",%progbits
 692              		.align	2
 693              		.global	CapSense_1_UpdateWidgetBaseline
 694              		.code	16
 695              		.thumb_func
 696              		.type	CapSense_1_UpdateWidgetBaseline, %function
 697              	CapSense_1_UpdateWidgetBaseline:
 698              	.LFB40:
 618:.\Generated_Source\PSoC4/CapSense_1_CSHL.c **** 
 619:.\Generated_Source\PSoC4/CapSense_1_CSHL.c **** /*******************************************************************************
 620:.\Generated_Source\PSoC4/CapSense_1_CSHL.c **** * Function Name: CapSense_1_UpdateWidgetBaseline
 621:.\Generated_Source\PSoC4/CapSense_1_CSHL.c **** ********************************************************************************
 622:.\Generated_Source\PSoC4/CapSense_1_CSHL.c **** *
 623:.\Generated_Source\PSoC4/CapSense_1_CSHL.c **** * Summary:
 624:.\Generated_Source\PSoC4/CapSense_1_CSHL.c **** *  Checks CapSense_1_sensorEnableMask[] array and calls the 
 625:.\Generated_Source\PSoC4/CapSense_1_CSHL.c **** *  CapSense_1_UpdateSensorBaseline function to update the baselines 
 626:.\Generated_Source\PSoC4/CapSense_1_CSHL.c **** *  for the enabled sensors that belong to widget.
 627:.\Generated_Source\PSoC4/CapSense_1_CSHL.c **** *
 628:.\Generated_Source\PSoC4/CapSense_1_CSHL.c **** * Parameters:
 629:.\Generated_Source\PSoC4/CapSense_1_CSHL.c **** *  widget:  Widget number.
 630:.\Generated_Source\PSoC4/CapSense_1_CSHL.c **** *
 631:.\Generated_Source\PSoC4/CapSense_1_CSHL.c **** * Return:
 632:.\Generated_Source\PSoC4/CapSense_1_CSHL.c **** *  None
 633:.\Generated_Source\PSoC4/CapSense_1_CSHL.c **** *
 634:.\Generated_Source\PSoC4/CapSense_1_CSHL.c **** * Global Variables:
 635:.\Generated_Source\PSoC4/CapSense_1_CSHL.c **** *  CapSense_1_sensorEnableMask[] - used to store the sensor scanning 
 636:.\Generated_Source\PSoC4/CapSense_1_CSHL.c **** *  state.
 637:.\Generated_Source\PSoC4/CapSense_1_CSHL.c **** *  CapSense_1_sensorEnableMask[0] contains the masked bits for sensors 
 638:.\Generated_Source\PSoC4/CapSense_1_CSHL.c **** *   0 through 7 (sensor 0 is bit 0, sensor 1 is bit 1).
 639:.\Generated_Source\PSoC4/CapSense_1_CSHL.c **** *  CapSense_1_sensorEnableMask[1] contains the masked bits for 
 640:.\Generated_Source\PSoC4/CapSense_1_CSHL.c **** *  sensors 8 through 15 (if needed), and so on.
 641:.\Generated_Source\PSoC4/CapSense_1_CSHL.c **** *  0 - sensor doesn't scan by CapSense_1_ScanEnabledWidgets().
 642:.\Generated_Source\PSoC4/CapSense_1_CSHL.c **** *  1 - sensor scans by CapSense_1_ScanEnabledWidgets().
 643:.\Generated_Source\PSoC4/CapSense_1_CSHL.c **** * 
 644:.\Generated_Source\PSoC4/CapSense_1_CSHL.c **** * Side Effects:
 645:.\Generated_Source\PSoC4/CapSense_1_CSHL.c **** *  None
 646:.\Generated_Source\PSoC4/CapSense_1_CSHL.c **** * 
 647:.\Generated_Source\PSoC4/CapSense_1_CSHL.c **** *******************************************************************************/
 648:.\Generated_Source\PSoC4/CapSense_1_CSHL.c **** void CapSense_1_UpdateWidgetBaseline(uint32 widget)
 649:.\Generated_Source\PSoC4/CapSense_1_CSHL.c **** {
 699              		.loc 1 649 0
 700              		.cfi_startproc
 701 0000 80B5     		push	{r7, lr}
 702              		.cfi_def_cfa_offset 8
 703              		.cfi_offset 7, -8
 704              		.cfi_offset 14, -4
 705 0002 88B0     		sub	sp, sp, #32
ARM GAS  C:\Users\mitchell\AppData\Local\Temp\cclqk7v6.s 			page 25


 706              		.cfi_def_cfa_offset 40
 707 0004 00AF     		add	r7, sp, #0
 708              		.cfi_def_cfa_register 7
 709 0006 7860     		str	r0, [r7, #4]
 650:.\Generated_Source\PSoC4/CapSense_1_CSHL.c ****     uint32 sensorsPerWidget;
 651:.\Generated_Source\PSoC4/CapSense_1_CSHL.c ****     uint32 firstSensor;
 652:.\Generated_Source\PSoC4/CapSense_1_CSHL.c ****     uint32 lastSensor;
 653:.\Generated_Source\PSoC4/CapSense_1_CSHL.c ****     uint32 i;
 654:.\Generated_Source\PSoC4/CapSense_1_CSHL.c ****     uint32 isSensorEnabled;
 655:.\Generated_Source\PSoC4/CapSense_1_CSHL.c ****     
 656:.\Generated_Source\PSoC4/CapSense_1_CSHL.c **** 	/* Get number of sensors in widget */
 657:.\Generated_Source\PSoC4/CapSense_1_CSHL.c **** 	sensorsPerWidget = CapSense_1_numberOfSensors[widget];
 710              		.loc 1 657 0
 711 0008 0523     		mov	r3, #5
 712 000a BB61     		str	r3, [r7, #24]
 658:.\Generated_Source\PSoC4/CapSense_1_CSHL.c **** 
 659:.\Generated_Source\PSoC4/CapSense_1_CSHL.c **** 	/* Get first sensor in widget */
 660:.\Generated_Source\PSoC4/CapSense_1_CSHL.c **** 	firstSensor = CapSense_1_rawDataIndex[widget];
 713              		.loc 1 660 0
 714 000c 0023     		mov	r3, #0
 715 000e 7B61     		str	r3, [r7, #20]
 661:.\Generated_Source\PSoC4/CapSense_1_CSHL.c **** 	
 662:.\Generated_Source\PSoC4/CapSense_1_CSHL.c **** 	/* Get last sensor in widget */
 663:.\Generated_Source\PSoC4/CapSense_1_CSHL.c **** 	lastSensor = (CapSense_1_rawDataIndex[widget] + sensorsPerWidget);
 716              		.loc 1 663 0
 717 0010 0023     		mov	r3, #0
 718 0012 1A1C     		mov	r2, r3
 719 0014 BB69     		ldr	r3, [r7, #24]
 720 0016 D318     		add	r3, r2, r3
 721 0018 3B61     		str	r3, [r7, #16]
 664:.\Generated_Source\PSoC4/CapSense_1_CSHL.c **** 	
 665:.\Generated_Source\PSoC4/CapSense_1_CSHL.c ****     for(i = firstSensor; i < lastSensor; i++)
 722              		.loc 1 665 0
 723 001a 7B69     		ldr	r3, [r7, #20]
 724 001c FB61     		str	r3, [r7, #28]
 725 001e 11E0     		b	.L38
 726              	.L40:
 666:.\Generated_Source\PSoC4/CapSense_1_CSHL.c ****     {
 667:.\Generated_Source\PSoC4/CapSense_1_CSHL.c ****         isSensorEnabled = CapSense_1_GetBitValue(CapSense_1_sensorEnableMask, i);
 727              		.loc 1 667 0
 728 0020 0C4A     		ldr	r2, .L41
 729 0022 FB69     		ldr	r3, [r7, #28]
 730 0024 101C     		mov	r0, r2
 731 0026 191C     		mov	r1, r3
 732 0028 FFF7FEFF 		bl	CapSense_1_GetBitValue
 733 002c 031C     		mov	r3, r0
 734 002e FB60     		str	r3, [r7, #12]
 668:.\Generated_Source\PSoC4/CapSense_1_CSHL.c ****         
 669:.\Generated_Source\PSoC4/CapSense_1_CSHL.c ****         if(0u != isSensorEnabled)
 735              		.loc 1 669 0
 736 0030 FB68     		ldr	r3, [r7, #12]
 737 0032 002B     		cmp	r3, #0
 738 0034 03D0     		beq	.L39
 670:.\Generated_Source\PSoC4/CapSense_1_CSHL.c ****         {
 671:.\Generated_Source\PSoC4/CapSense_1_CSHL.c ****             CapSense_1_UpdateSensorBaseline(i);
 739              		.loc 1 671 0
 740 0036 FB69     		ldr	r3, [r7, #28]
ARM GAS  C:\Users\mitchell\AppData\Local\Temp\cclqk7v6.s 			page 26


 741 0038 181C     		mov	r0, r3
 742 003a FFF7FEFF 		bl	CapSense_1_UpdateSensorBaseline
 743              	.L39:
 665:.\Generated_Source\PSoC4/CapSense_1_CSHL.c ****     for(i = firstSensor; i < lastSensor; i++)
 744              		.loc 1 665 0
 745 003e FB69     		ldr	r3, [r7, #28]
 746 0040 0133     		add	r3, r3, #1
 747 0042 FB61     		str	r3, [r7, #28]
 748              	.L38:
 665:.\Generated_Source\PSoC4/CapSense_1_CSHL.c ****     for(i = firstSensor; i < lastSensor; i++)
 749              		.loc 1 665 0 is_stmt 0 discriminator 1
 750 0044 FA69     		ldr	r2, [r7, #28]
 751 0046 3B69     		ldr	r3, [r7, #16]
 752 0048 9A42     		cmp	r2, r3
 753 004a E9D3     		bcc	.L40
 672:.\Generated_Source\PSoC4/CapSense_1_CSHL.c ****         }
 673:.\Generated_Source\PSoC4/CapSense_1_CSHL.c ****     }
 674:.\Generated_Source\PSoC4/CapSense_1_CSHL.c **** }
 754              		.loc 1 674 0 is_stmt 1
 755 004c BD46     		mov	sp, r7
 756 004e 08B0     		add	sp, sp, #32
 757              		@ sp needed
 758 0050 80BD     		pop	{r7, pc}
 759              	.L42:
 760 0052 C046     		.align	2
 761              	.L41:
 762 0054 00000000 		.word	CapSense_1_sensorEnableMask
 763              		.cfi_endproc
 764              	.LFE40:
 765              		.size	CapSense_1_UpdateWidgetBaseline, .-CapSense_1_UpdateWidgetBaseline
 766              		.section	.text.CapSense_1_GetBaselineData,"ax",%progbits
 767              		.align	2
 768              		.global	CapSense_1_GetBaselineData
 769              		.code	16
 770              		.thumb_func
 771              		.type	CapSense_1_GetBaselineData, %function
 772              	CapSense_1_GetBaselineData:
 773              	.LFB41:
 675:.\Generated_Source\PSoC4/CapSense_1_CSHL.c **** 
 676:.\Generated_Source\PSoC4/CapSense_1_CSHL.c **** 
 677:.\Generated_Source\PSoC4/CapSense_1_CSHL.c **** /*******************************************************************************
 678:.\Generated_Source\PSoC4/CapSense_1_CSHL.c **** * Function Name: CapSense_1_GetBaselineData
 679:.\Generated_Source\PSoC4/CapSense_1_CSHL.c **** ********************************************************************************
 680:.\Generated_Source\PSoC4/CapSense_1_CSHL.c **** *
 681:.\Generated_Source\PSoC4/CapSense_1_CSHL.c **** * Summary:
 682:.\Generated_Source\PSoC4/CapSense_1_CSHL.c **** *  This function reads the sensor baseline from the component.
 683:.\Generated_Source\PSoC4/CapSense_1_CSHL.c **** *
 684:.\Generated_Source\PSoC4/CapSense_1_CSHL.c **** * Parameters:
 685:.\Generated_Source\PSoC4/CapSense_1_CSHL.c **** *  sensor:  Sensor number.
 686:.\Generated_Source\PSoC4/CapSense_1_CSHL.c **** *
 687:.\Generated_Source\PSoC4/CapSense_1_CSHL.c **** * Return:
 688:.\Generated_Source\PSoC4/CapSense_1_CSHL.c **** *  This API returns the baseline value of the sensor indicated by an argument.
 689:.\Generated_Source\PSoC4/CapSense_1_CSHL.c **** *
 690:.\Generated_Source\PSoC4/CapSense_1_CSHL.c **** * Global Variables:
 691:.\Generated_Source\PSoC4/CapSense_1_CSHL.c **** *  CapSense_1_sensorBaseline[] - the array with an initial values by scanning
 692:.\Generated_Source\PSoC4/CapSense_1_CSHL.c **** * 
 693:.\Generated_Source\PSoC4/CapSense_1_CSHL.c **** * Side Effects:
ARM GAS  C:\Users\mitchell\AppData\Local\Temp\cclqk7v6.s 			page 27


 694:.\Generated_Source\PSoC4/CapSense_1_CSHL.c **** *  None
 695:.\Generated_Source\PSoC4/CapSense_1_CSHL.c **** *
 696:.\Generated_Source\PSoC4/CapSense_1_CSHL.c **** *******************************************************************************/
 697:.\Generated_Source\PSoC4/CapSense_1_CSHL.c **** uint16 CapSense_1_GetBaselineData(uint32 sensor)
 698:.\Generated_Source\PSoC4/CapSense_1_CSHL.c **** {
 774              		.loc 1 698 0
 775              		.cfi_startproc
 776 0000 80B5     		push	{r7, lr}
 777              		.cfi_def_cfa_offset 8
 778              		.cfi_offset 7, -8
 779              		.cfi_offset 14, -4
 780 0002 82B0     		sub	sp, sp, #8
 781              		.cfi_def_cfa_offset 16
 782 0004 00AF     		add	r7, sp, #0
 783              		.cfi_def_cfa_register 7
 784 0006 7860     		str	r0, [r7, #4]
 699:.\Generated_Source\PSoC4/CapSense_1_CSHL.c **** 	return (CapSense_1_sensorBaseline[sensor]);
 785              		.loc 1 699 0
 786 0008 034B     		ldr	r3, .L45
 787 000a 7A68     		ldr	r2, [r7, #4]
 788 000c 5200     		lsl	r2, r2, #1
 789 000e D35A     		ldrh	r3, [r2, r3]
 700:.\Generated_Source\PSoC4/CapSense_1_CSHL.c **** }
 790              		.loc 1 700 0
 791 0010 181C     		mov	r0, r3
 792 0012 BD46     		mov	sp, r7
 793 0014 02B0     		add	sp, sp, #8
 794              		@ sp needed
 795 0016 80BD     		pop	{r7, pc}
 796              	.L46:
 797              		.align	2
 798              	.L45:
 799 0018 00000000 		.word	CapSense_1_sensorBaseline
 800              		.cfi_endproc
 801              	.LFE41:
 802              		.size	CapSense_1_GetBaselineData, .-CapSense_1_GetBaselineData
 803              		.section	.text.CapSense_1_SetBaselineData,"ax",%progbits
 804              		.align	2
 805              		.global	CapSense_1_SetBaselineData
 806              		.code	16
 807              		.thumb_func
 808              		.type	CapSense_1_SetBaselineData, %function
 809              	CapSense_1_SetBaselineData:
 810              	.LFB42:
 701:.\Generated_Source\PSoC4/CapSense_1_CSHL.c **** 
 702:.\Generated_Source\PSoC4/CapSense_1_CSHL.c **** 
 703:.\Generated_Source\PSoC4/CapSense_1_CSHL.c **** /*******************************************************************************
 704:.\Generated_Source\PSoC4/CapSense_1_CSHL.c **** * Function Name: CapSense_1_SetBaselineData
 705:.\Generated_Source\PSoC4/CapSense_1_CSHL.c **** ********************************************************************************
 706:.\Generated_Source\PSoC4/CapSense_1_CSHL.c **** *
 707:.\Generated_Source\PSoC4/CapSense_1_CSHL.c **** * Summary:
 708:.\Generated_Source\PSoC4/CapSense_1_CSHL.c **** *  This API writes the data value passed as an argument to the sensor baseline array.
 709:.\Generated_Source\PSoC4/CapSense_1_CSHL.c **** *
 710:.\Generated_Source\PSoC4/CapSense_1_CSHL.c **** * Parameters:
 711:.\Generated_Source\PSoC4/CapSense_1_CSHL.c **** *  sensor:  Sensor number.
 712:.\Generated_Source\PSoC4/CapSense_1_CSHL.c **** *  data:    Sensor baseline.
 713:.\Generated_Source\PSoC4/CapSense_1_CSHL.c **** *
ARM GAS  C:\Users\mitchell\AppData\Local\Temp\cclqk7v6.s 			page 28


 714:.\Generated_Source\PSoC4/CapSense_1_CSHL.c **** * Return:
 715:.\Generated_Source\PSoC4/CapSense_1_CSHL.c **** *  None.
 716:.\Generated_Source\PSoC4/CapSense_1_CSHL.c **** *
 717:.\Generated_Source\PSoC4/CapSense_1_CSHL.c **** * Global Variables:
 718:.\Generated_Source\PSoC4/CapSense_1_CSHL.c **** *  CapSense_1_sensorBaseline[] - the array with initial values by scanning
 719:.\Generated_Source\PSoC4/CapSense_1_CSHL.c **** * 
 720:.\Generated_Source\PSoC4/CapSense_1_CSHL.c **** * Side Effects:
 721:.\Generated_Source\PSoC4/CapSense_1_CSHL.c **** *  None
 722:.\Generated_Source\PSoC4/CapSense_1_CSHL.c **** *
 723:.\Generated_Source\PSoC4/CapSense_1_CSHL.c **** *******************************************************************************/
 724:.\Generated_Source\PSoC4/CapSense_1_CSHL.c **** void CapSense_1_SetBaselineData(uint32 sensor, uint16 data)
 725:.\Generated_Source\PSoC4/CapSense_1_CSHL.c **** {
 811              		.loc 1 725 0
 812              		.cfi_startproc
 813 0000 80B5     		push	{r7, lr}
 814              		.cfi_def_cfa_offset 8
 815              		.cfi_offset 7, -8
 816              		.cfi_offset 14, -4
 817 0002 82B0     		sub	sp, sp, #8
 818              		.cfi_def_cfa_offset 16
 819 0004 00AF     		add	r7, sp, #0
 820              		.cfi_def_cfa_register 7
 821 0006 7860     		str	r0, [r7, #4]
 822 0008 0A1C     		mov	r2, r1
 823 000a BB1C     		add	r3, r7, #2
 824 000c 1A80     		strh	r2, [r3]
 726:.\Generated_Source\PSoC4/CapSense_1_CSHL.c **** 	CapSense_1_sensorBaseline[sensor] = data;
 825              		.loc 1 726 0
 826 000e 044B     		ldr	r3, .L48
 827 0010 7A68     		ldr	r2, [r7, #4]
 828 0012 5200     		lsl	r2, r2, #1
 829 0014 B91C     		add	r1, r7, #2
 830 0016 0988     		ldrh	r1, [r1]
 831 0018 D152     		strh	r1, [r2, r3]
 727:.\Generated_Source\PSoC4/CapSense_1_CSHL.c **** }
 832              		.loc 1 727 0
 833 001a BD46     		mov	sp, r7
 834 001c 02B0     		add	sp, sp, #8
 835              		@ sp needed
 836 001e 80BD     		pop	{r7, pc}
 837              	.L49:
 838              		.align	2
 839              	.L48:
 840 0020 00000000 		.word	CapSense_1_sensorBaseline
 841              		.cfi_endproc
 842              	.LFE42:
 843              		.size	CapSense_1_SetBaselineData, .-CapSense_1_SetBaselineData
 844              		.section	.text.CapSense_1_GetDiffCountData,"ax",%progbits
 845              		.align	2
 846              		.global	CapSense_1_GetDiffCountData
 847              		.code	16
 848              		.thumb_func
 849              		.type	CapSense_1_GetDiffCountData, %function
 850              	CapSense_1_GetDiffCountData:
 851              	.LFB43:
 728:.\Generated_Source\PSoC4/CapSense_1_CSHL.c **** 
 729:.\Generated_Source\PSoC4/CapSense_1_CSHL.c **** 
ARM GAS  C:\Users\mitchell\AppData\Local\Temp\cclqk7v6.s 			page 29


 730:.\Generated_Source\PSoC4/CapSense_1_CSHL.c **** /*******************************************************************************
 731:.\Generated_Source\PSoC4/CapSense_1_CSHL.c **** * Function Name: CapSense_1_GetDiffCountData
 732:.\Generated_Source\PSoC4/CapSense_1_CSHL.c **** ********************************************************************************
 733:.\Generated_Source\PSoC4/CapSense_1_CSHL.c **** *
 734:.\Generated_Source\PSoC4/CapSense_1_CSHL.c **** * Summary:
 735:.\Generated_Source\PSoC4/CapSense_1_CSHL.c **** *  This function returns the Sensor Signal from the component.
 736:.\Generated_Source\PSoC4/CapSense_1_CSHL.c **** *
 737:.\Generated_Source\PSoC4/CapSense_1_CSHL.c **** * Parameters:
 738:.\Generated_Source\PSoC4/CapSense_1_CSHL.c **** *  sensor:  Sensor number.
 739:.\Generated_Source\PSoC4/CapSense_1_CSHL.c **** *
 740:.\Generated_Source\PSoC4/CapSense_1_CSHL.c **** * Return:
 741:.\Generated_Source\PSoC4/CapSense_1_CSHL.c **** *  This API returns the difference count value of the sensor indicated by the 
 742:.\Generated_Source\PSoC4/CapSense_1_CSHL.c **** *  argument. 
 743:.\Generated_Source\PSoC4/CapSense_1_CSHL.c **** *
 744:.\Generated_Source\PSoC4/CapSense_1_CSHL.c **** * Global Variables:
 745:.\Generated_Source\PSoC4/CapSense_1_CSHL.c **** *  CapSense_1_sensorSignal[] - the array with difference counts for sensors
 746:.\Generated_Source\PSoC4/CapSense_1_CSHL.c **** * 
 747:.\Generated_Source\PSoC4/CapSense_1_CSHL.c **** * Side Effects:
 748:.\Generated_Source\PSoC4/CapSense_1_CSHL.c **** *  None
 749:.\Generated_Source\PSoC4/CapSense_1_CSHL.c **** *
 750:.\Generated_Source\PSoC4/CapSense_1_CSHL.c **** *******************************************************************************/
 751:.\Generated_Source\PSoC4/CapSense_1_CSHL.c **** uint8 CapSense_1_GetDiffCountData(uint32 sensor)
 752:.\Generated_Source\PSoC4/CapSense_1_CSHL.c **** {
 852              		.loc 1 752 0
 853              		.cfi_startproc
 854 0000 80B5     		push	{r7, lr}
 855              		.cfi_def_cfa_offset 8
 856              		.cfi_offset 7, -8
 857              		.cfi_offset 14, -4
 858 0002 82B0     		sub	sp, sp, #8
 859              		.cfi_def_cfa_offset 16
 860 0004 00AF     		add	r7, sp, #0
 861              		.cfi_def_cfa_register 7
 862 0006 7860     		str	r0, [r7, #4]
 753:.\Generated_Source\PSoC4/CapSense_1_CSHL.c **** 	return (CapSense_1_sensorSignal[sensor]);
 863              		.loc 1 753 0
 864 0008 034A     		ldr	r2, .L52
 865 000a 7B68     		ldr	r3, [r7, #4]
 866 000c D318     		add	r3, r2, r3
 867 000e 1B78     		ldrb	r3, [r3]
 754:.\Generated_Source\PSoC4/CapSense_1_CSHL.c **** }
 868              		.loc 1 754 0
 869 0010 181C     		mov	r0, r3
 870 0012 BD46     		mov	sp, r7
 871 0014 02B0     		add	sp, sp, #8
 872              		@ sp needed
 873 0016 80BD     		pop	{r7, pc}
 874              	.L53:
 875              		.align	2
 876              	.L52:
 877 0018 00000000 		.word	CapSense_1_sensorSignal
 878              		.cfi_endproc
 879              	.LFE43:
 880              		.size	CapSense_1_GetDiffCountData, .-CapSense_1_GetDiffCountData
 881              		.section	.text.CapSense_1_SetDiffCountData,"ax",%progbits
 882              		.align	2
 883              		.global	CapSense_1_SetDiffCountData
ARM GAS  C:\Users\mitchell\AppData\Local\Temp\cclqk7v6.s 			page 30


 884              		.code	16
 885              		.thumb_func
 886              		.type	CapSense_1_SetDiffCountData, %function
 887              	CapSense_1_SetDiffCountData:
 888              	.LFB44:
 755:.\Generated_Source\PSoC4/CapSense_1_CSHL.c **** 
 756:.\Generated_Source\PSoC4/CapSense_1_CSHL.c **** 
 757:.\Generated_Source\PSoC4/CapSense_1_CSHL.c **** /*******************************************************************************
 758:.\Generated_Source\PSoC4/CapSense_1_CSHL.c **** * Function Name: CapSense_1_SetDiffCountData
 759:.\Generated_Source\PSoC4/CapSense_1_CSHL.c **** ********************************************************************************
 760:.\Generated_Source\PSoC4/CapSense_1_CSHL.c **** *
 761:.\Generated_Source\PSoC4/CapSense_1_CSHL.c **** * Summary:
 762:.\Generated_Source\PSoC4/CapSense_1_CSHL.c **** *  This API writes the data value passed as an argument to the sensor signal array.
 763:.\Generated_Source\PSoC4/CapSense_1_CSHL.c **** *
 764:.\Generated_Source\PSoC4/CapSense_1_CSHL.c **** * Parameters:
 765:.\Generated_Source\PSoC4/CapSense_1_CSHL.c **** *  sensor:  Sensor number.
 766:.\Generated_Source\PSoC4/CapSense_1_CSHL.c **** *  value:   Sensor signal.
 767:.\Generated_Source\PSoC4/CapSense_1_CSHL.c **** *
 768:.\Generated_Source\PSoC4/CapSense_1_CSHL.c **** * Return:
 769:.\Generated_Source\PSoC4/CapSense_1_CSHL.c **** *  None. 
 770:.\Generated_Source\PSoC4/CapSense_1_CSHL.c **** *
 771:.\Generated_Source\PSoC4/CapSense_1_CSHL.c **** * Global Variables:
 772:.\Generated_Source\PSoC4/CapSense_1_CSHL.c **** *  CapSense_1_sensorSignal[] - the array with difference counts for sensors
 773:.\Generated_Source\PSoC4/CapSense_1_CSHL.c **** * 
 774:.\Generated_Source\PSoC4/CapSense_1_CSHL.c **** * Side Effects:
 775:.\Generated_Source\PSoC4/CapSense_1_CSHL.c **** *  None
 776:.\Generated_Source\PSoC4/CapSense_1_CSHL.c **** *
 777:.\Generated_Source\PSoC4/CapSense_1_CSHL.c **** *******************************************************************************/
 778:.\Generated_Source\PSoC4/CapSense_1_CSHL.c **** void CapSense_1_SetDiffCountData(uint32 sensor, uint8 value)
 779:.\Generated_Source\PSoC4/CapSense_1_CSHL.c **** {
 889              		.loc 1 779 0
 890              		.cfi_startproc
 891 0000 80B5     		push	{r7, lr}
 892              		.cfi_def_cfa_offset 8
 893              		.cfi_offset 7, -8
 894              		.cfi_offset 14, -4
 895 0002 82B0     		sub	sp, sp, #8
 896              		.cfi_def_cfa_offset 16
 897 0004 00AF     		add	r7, sp, #0
 898              		.cfi_def_cfa_register 7
 899 0006 7860     		str	r0, [r7, #4]
 900 0008 0A1C     		mov	r2, r1
 901 000a FB1C     		add	r3, r7, #3
 902 000c 1A70     		strb	r2, [r3]
 780:.\Generated_Source\PSoC4/CapSense_1_CSHL.c ****     CapSense_1_sensorSignal[sensor] = value;
 903              		.loc 1 780 0
 904 000e 044A     		ldr	r2, .L55
 905 0010 7B68     		ldr	r3, [r7, #4]
 906 0012 D318     		add	r3, r2, r3
 907 0014 FA1C     		add	r2, r7, #3
 908 0016 1278     		ldrb	r2, [r2]
 909 0018 1A70     		strb	r2, [r3]
 781:.\Generated_Source\PSoC4/CapSense_1_CSHL.c **** }
 910              		.loc 1 781 0
 911 001a BD46     		mov	sp, r7
 912 001c 02B0     		add	sp, sp, #8
 913              		@ sp needed
ARM GAS  C:\Users\mitchell\AppData\Local\Temp\cclqk7v6.s 			page 31


 914 001e 80BD     		pop	{r7, pc}
 915              	.L56:
 916              		.align	2
 917              	.L55:
 918 0020 00000000 		.word	CapSense_1_sensorSignal
 919              		.cfi_endproc
 920              	.LFE44:
 921              		.size	CapSense_1_SetDiffCountData, .-CapSense_1_SetDiffCountData
 922              		.section	.text.CapSense_1_GetFingerThreshold,"ax",%progbits
 923              		.align	2
 924              		.global	CapSense_1_GetFingerThreshold
 925              		.code	16
 926              		.thumb_func
 927              		.type	CapSense_1_GetFingerThreshold, %function
 928              	CapSense_1_GetFingerThreshold:
 929              	.LFB45:
 782:.\Generated_Source\PSoC4/CapSense_1_CSHL.c **** 
 783:.\Generated_Source\PSoC4/CapSense_1_CSHL.c **** 
 784:.\Generated_Source\PSoC4/CapSense_1_CSHL.c **** /*******************************************************************************
 785:.\Generated_Source\PSoC4/CapSense_1_CSHL.c **** * Function Name: CapSense_1_GetFingerThreshold
 786:.\Generated_Source\PSoC4/CapSense_1_CSHL.c **** ********************************************************************************
 787:.\Generated_Source\PSoC4/CapSense_1_CSHL.c **** *
 788:.\Generated_Source\PSoC4/CapSense_1_CSHL.c **** * Summary:
 789:.\Generated_Source\PSoC4/CapSense_1_CSHL.c **** *  This function reads the finger threshold from the component.
 790:.\Generated_Source\PSoC4/CapSense_1_CSHL.c **** *
 791:.\Generated_Source\PSoC4/CapSense_1_CSHL.c **** * Parameters:
 792:.\Generated_Source\PSoC4/CapSense_1_CSHL.c **** *  widget:  widget number.
 793:.\Generated_Source\PSoC4/CapSense_1_CSHL.c **** *
 794:.\Generated_Source\PSoC4/CapSense_1_CSHL.c **** * Return:
 795:.\Generated_Source\PSoC4/CapSense_1_CSHL.c **** *  This API returns the finger threshold of the widget indicated by the argument. 
 796:.\Generated_Source\PSoC4/CapSense_1_CSHL.c **** *
 797:.\Generated_Source\PSoC4/CapSense_1_CSHL.c **** * Global Variables:
 798:.\Generated_Source\PSoC4/CapSense_1_CSHL.c **** *  CapSense_1_fingerThreshold[] - This array contains the level of signal 
 799:.\Generated_Source\PSoC4/CapSense_1_CSHL.c **** *  for each widget that is determined if a finger is present on the widget.
 800:.\Generated_Source\PSoC4/CapSense_1_CSHL.c **** *
 801:.\Generated_Source\PSoC4/CapSense_1_CSHL.c **** * Side Effects:
 802:.\Generated_Source\PSoC4/CapSense_1_CSHL.c **** *  None
 803:.\Generated_Source\PSoC4/CapSense_1_CSHL.c **** *
 804:.\Generated_Source\PSoC4/CapSense_1_CSHL.c **** *******************************************************************************/
 805:.\Generated_Source\PSoC4/CapSense_1_CSHL.c **** uint8 CapSense_1_GetFingerThreshold(uint32 widget)
 806:.\Generated_Source\PSoC4/CapSense_1_CSHL.c **** {
 930              		.loc 1 806 0
 931              		.cfi_startproc
 932 0000 80B5     		push	{r7, lr}
 933              		.cfi_def_cfa_offset 8
 934              		.cfi_offset 7, -8
 935              		.cfi_offset 14, -4
 936 0002 82B0     		sub	sp, sp, #8
 937              		.cfi_def_cfa_offset 16
 938 0004 00AF     		add	r7, sp, #0
 939              		.cfi_def_cfa_register 7
 940 0006 7860     		str	r0, [r7, #4]
 807:.\Generated_Source\PSoC4/CapSense_1_CSHL.c **** 	return(CapSense_1_fingerThreshold[widget]);
 941              		.loc 1 807 0
 942 0008 6423     		mov	r3, #100
 808:.\Generated_Source\PSoC4/CapSense_1_CSHL.c **** }
 943              		.loc 1 808 0
ARM GAS  C:\Users\mitchell\AppData\Local\Temp\cclqk7v6.s 			page 32


 944 000a 181C     		mov	r0, r3
 945 000c BD46     		mov	sp, r7
 946 000e 02B0     		add	sp, sp, #8
 947              		@ sp needed
 948 0010 80BD     		pop	{r7, pc}
 949              		.cfi_endproc
 950              	.LFE45:
 951              		.size	CapSense_1_GetFingerThreshold, .-CapSense_1_GetFingerThreshold
 952 0012 C046     		.section	.text.CapSense_1_GetNoiseThreshold,"ax",%progbits
 953              		.align	2
 954              		.global	CapSense_1_GetNoiseThreshold
 955              		.code	16
 956              		.thumb_func
 957              		.type	CapSense_1_GetNoiseThreshold, %function
 958              	CapSense_1_GetNoiseThreshold:
 959              	.LFB46:
 809:.\Generated_Source\PSoC4/CapSense_1_CSHL.c **** 
 810:.\Generated_Source\PSoC4/CapSense_1_CSHL.c **** 
 811:.\Generated_Source\PSoC4/CapSense_1_CSHL.c **** /*******************************************************************************
 812:.\Generated_Source\PSoC4/CapSense_1_CSHL.c **** * Function Name: CapSense_1_GetNoiseThreshold
 813:.\Generated_Source\PSoC4/CapSense_1_CSHL.c **** ********************************************************************************
 814:.\Generated_Source\PSoC4/CapSense_1_CSHL.c **** *
 815:.\Generated_Source\PSoC4/CapSense_1_CSHL.c **** * Summary:
 816:.\Generated_Source\PSoC4/CapSense_1_CSHL.c **** *  This function reads the noise threshold from the component.
 817:.\Generated_Source\PSoC4/CapSense_1_CSHL.c **** *
 818:.\Generated_Source\PSoC4/CapSense_1_CSHL.c **** * Parameters:
 819:.\Generated_Source\PSoC4/CapSense_1_CSHL.c **** *  widget:  widget number.
 820:.\Generated_Source\PSoC4/CapSense_1_CSHL.c **** *
 821:.\Generated_Source\PSoC4/CapSense_1_CSHL.c **** * Return:
 822:.\Generated_Source\PSoC4/CapSense_1_CSHL.c **** *  This API returns the noise threshold of the widget indicated by the argument. 
 823:.\Generated_Source\PSoC4/CapSense_1_CSHL.c **** *
 824:.\Generated_Source\PSoC4/CapSense_1_CSHL.c **** * Global Variables:
 825:.\Generated_Source\PSoC4/CapSense_1_CSHL.c **** *  CapSense_1_noiseThreshold[] - This array contains the level of signal 
 826:.\Generated_Source\PSoC4/CapSense_1_CSHL.c **** *  for each widget that determines the level of noise in the capacitive scan.
 827:.\Generated_Source\PSoC4/CapSense_1_CSHL.c **** * 
 828:.\Generated_Source\PSoC4/CapSense_1_CSHL.c **** * Side Effects:
 829:.\Generated_Source\PSoC4/CapSense_1_CSHL.c **** *  None
 830:.\Generated_Source\PSoC4/CapSense_1_CSHL.c **** *
 831:.\Generated_Source\PSoC4/CapSense_1_CSHL.c **** *******************************************************************************/
 832:.\Generated_Source\PSoC4/CapSense_1_CSHL.c **** uint8 CapSense_1_GetNoiseThreshold(uint32 widget)
 833:.\Generated_Source\PSoC4/CapSense_1_CSHL.c **** {
 960              		.loc 1 833 0
 961              		.cfi_startproc
 962 0000 80B5     		push	{r7, lr}
 963              		.cfi_def_cfa_offset 8
 964              		.cfi_offset 7, -8
 965              		.cfi_offset 14, -4
 966 0002 82B0     		sub	sp, sp, #8
 967              		.cfi_def_cfa_offset 16
 968 0004 00AF     		add	r7, sp, #0
 969              		.cfi_def_cfa_register 7
 970 0006 7860     		str	r0, [r7, #4]
 834:.\Generated_Source\PSoC4/CapSense_1_CSHL.c **** 	return (CapSense_1_noiseThreshold[widget]);
 971              		.loc 1 834 0
 972 0008 1423     		mov	r3, #20
 835:.\Generated_Source\PSoC4/CapSense_1_CSHL.c **** }
 973              		.loc 1 835 0
ARM GAS  C:\Users\mitchell\AppData\Local\Temp\cclqk7v6.s 			page 33


 974 000a 181C     		mov	r0, r3
 975 000c BD46     		mov	sp, r7
 976 000e 02B0     		add	sp, sp, #8
 977              		@ sp needed
 978 0010 80BD     		pop	{r7, pc}
 979              		.cfi_endproc
 980              	.LFE46:
 981              		.size	CapSense_1_GetNoiseThreshold, .-CapSense_1_GetNoiseThreshold
 982 0012 C046     		.section	.text.CapSense_1_GetFingerHysteresis,"ax",%progbits
 983              		.align	2
 984              		.global	CapSense_1_GetFingerHysteresis
 985              		.code	16
 986              		.thumb_func
 987              		.type	CapSense_1_GetFingerHysteresis, %function
 988              	CapSense_1_GetFingerHysteresis:
 989              	.LFB47:
 836:.\Generated_Source\PSoC4/CapSense_1_CSHL.c **** 
 837:.\Generated_Source\PSoC4/CapSense_1_CSHL.c **** 
 838:.\Generated_Source\PSoC4/CapSense_1_CSHL.c **** /*******************************************************************************
 839:.\Generated_Source\PSoC4/CapSense_1_CSHL.c **** * Function Name: CapSense_1_GetFingerHysteresis
 840:.\Generated_Source\PSoC4/CapSense_1_CSHL.c **** ********************************************************************************
 841:.\Generated_Source\PSoC4/CapSense_1_CSHL.c **** *
 842:.\Generated_Source\PSoC4/CapSense_1_CSHL.c **** * Summary:
 843:.\Generated_Source\PSoC4/CapSense_1_CSHL.c **** *  This function reads the Hysteresis value from the component.
 844:.\Generated_Source\PSoC4/CapSense_1_CSHL.c **** *
 845:.\Generated_Source\PSoC4/CapSense_1_CSHL.c **** * Parameters:
 846:.\Generated_Source\PSoC4/CapSense_1_CSHL.c **** *  widget:  widget number.
 847:.\Generated_Source\PSoC4/CapSense_1_CSHL.c **** *
 848:.\Generated_Source\PSoC4/CapSense_1_CSHL.c **** * Return:
 849:.\Generated_Source\PSoC4/CapSense_1_CSHL.c **** *  This API returns the Hysteresis of the widget indicated by the argument. 
 850:.\Generated_Source\PSoC4/CapSense_1_CSHL.c **** *
 851:.\Generated_Source\PSoC4/CapSense_1_CSHL.c **** * Global Variables:
 852:.\Generated_Source\PSoC4/CapSense_1_CSHL.c **** *  CapSense_1_hysteresis[] - This array contains the hysteresis value 
 853:.\Generated_Source\PSoC4/CapSense_1_CSHL.c **** *   for each widget.
 854:.\Generated_Source\PSoC4/CapSense_1_CSHL.c **** *  CapSense_1_widgetNumberSld - structure with dynamic sliders' parameters.
 855:.\Generated_Source\PSoC4/CapSense_1_CSHL.c **** *
 856:.\Generated_Source\PSoC4/CapSense_1_CSHL.c **** * Side Effects:
 857:.\Generated_Source\PSoC4/CapSense_1_CSHL.c **** *  None
 858:.\Generated_Source\PSoC4/CapSense_1_CSHL.c **** *
 859:.\Generated_Source\PSoC4/CapSense_1_CSHL.c **** *******************************************************************************/
 860:.\Generated_Source\PSoC4/CapSense_1_CSHL.c **** uint8 CapSense_1_GetFingerHysteresis(uint32 widget)
 861:.\Generated_Source\PSoC4/CapSense_1_CSHL.c **** {
 990              		.loc 1 861 0
 991              		.cfi_startproc
 992 0000 80B5     		push	{r7, lr}
 993              		.cfi_def_cfa_offset 8
 994              		.cfi_offset 7, -8
 995              		.cfi_offset 14, -4
 996 0002 82B0     		sub	sp, sp, #8
 997              		.cfi_def_cfa_offset 16
 998 0004 00AF     		add	r7, sp, #0
 999              		.cfi_def_cfa_register 7
 1000 0006 7860     		str	r0, [r7, #4]
 862:.\Generated_Source\PSoC4/CapSense_1_CSHL.c **** 	return(CapSense_1_hysteresis[widget]);
 1001              		.loc 1 862 0
 1002 0008 0023     		mov	r3, #0
 863:.\Generated_Source\PSoC4/CapSense_1_CSHL.c **** }
ARM GAS  C:\Users\mitchell\AppData\Local\Temp\cclqk7v6.s 			page 34


 1003              		.loc 1 863 0
 1004 000a 181C     		mov	r0, r3
 1005 000c BD46     		mov	sp, r7
 1006 000e 02B0     		add	sp, sp, #8
 1007              		@ sp needed
 1008 0010 80BD     		pop	{r7, pc}
 1009              		.cfi_endproc
 1010              	.LFE47:
 1011              		.size	CapSense_1_GetFingerHysteresis, .-CapSense_1_GetFingerHysteresis
 1012 0012 C046     		.section	.text.CapSense_1_GetNegativeNoiseThreshold,"ax",%progbits
 1013              		.align	2
 1014              		.global	CapSense_1_GetNegativeNoiseThreshold
 1015              		.code	16
 1016              		.thumb_func
 1017              		.type	CapSense_1_GetNegativeNoiseThreshold, %function
 1018              	CapSense_1_GetNegativeNoiseThreshold:
 1019              	.LFB48:
 864:.\Generated_Source\PSoC4/CapSense_1_CSHL.c **** 
 865:.\Generated_Source\PSoC4/CapSense_1_CSHL.c **** 
 866:.\Generated_Source\PSoC4/CapSense_1_CSHL.c **** /*******************************************************************************
 867:.\Generated_Source\PSoC4/CapSense_1_CSHL.c **** * Function Name: CapSense_1_GetNegativeNoiseThreshold
 868:.\Generated_Source\PSoC4/CapSense_1_CSHL.c **** ********************************************************************************
 869:.\Generated_Source\PSoC4/CapSense_1_CSHL.c **** *
 870:.\Generated_Source\PSoC4/CapSense_1_CSHL.c **** * Summary:
 871:.\Generated_Source\PSoC4/CapSense_1_CSHL.c **** *  This function reads the negative noise threshold from the component.
 872:.\Generated_Source\PSoC4/CapSense_1_CSHL.c **** *
 873:.\Generated_Source\PSoC4/CapSense_1_CSHL.c **** * Parameters: 
 874:.\Generated_Source\PSoC4/CapSense_1_CSHL.c **** *  None.
 875:.\Generated_Source\PSoC4/CapSense_1_CSHL.c **** *
 876:.\Generated_Source\PSoC4/CapSense_1_CSHL.c **** * Return Value: 
 877:.\Generated_Source\PSoC4/CapSense_1_CSHL.c **** *  This API returns the negative noise threshold
 878:.\Generated_Source\PSoC4/CapSense_1_CSHL.c **** *
 879:.\Generated_Source\PSoC4/CapSense_1_CSHL.c **** * Global Variables:
 880:.\Generated_Source\PSoC4/CapSense_1_CSHL.c **** *  CapSense_1_negativeNoiseThreshold - This variable specifies the negative 
 881:.\Generated_Source\PSoC4/CapSense_1_CSHL.c **** *   difference between the raw count and baseline levels for Baseline resetting
 882:.\Generated_Source\PSoC4/CapSense_1_CSHL.c **** *   to the raw count level.
 883:.\Generated_Source\PSoC4/CapSense_1_CSHL.c **** * 
 884:.\Generated_Source\PSoC4/CapSense_1_CSHL.c **** * Side Effects:
 885:.\Generated_Source\PSoC4/CapSense_1_CSHL.c **** *  None
 886:.\Generated_Source\PSoC4/CapSense_1_CSHL.c **** *
 887:.\Generated_Source\PSoC4/CapSense_1_CSHL.c **** *******************************************************************************/
 888:.\Generated_Source\PSoC4/CapSense_1_CSHL.c **** uint8 CapSense_1_GetNegativeNoiseThreshold(uint32 widget)
 889:.\Generated_Source\PSoC4/CapSense_1_CSHL.c **** {
 1020              		.loc 1 889 0
 1021              		.cfi_startproc
 1022 0000 80B5     		push	{r7, lr}
 1023              		.cfi_def_cfa_offset 8
 1024              		.cfi_offset 7, -8
 1025              		.cfi_offset 14, -4
 1026 0002 82B0     		sub	sp, sp, #8
 1027              		.cfi_def_cfa_offset 16
 1028 0004 00AF     		add	r7, sp, #0
 1029              		.cfi_def_cfa_register 7
 1030 0006 7860     		str	r0, [r7, #4]
 890:.\Generated_Source\PSoC4/CapSense_1_CSHL.c **** #if (CapSense_1_TUNING_METHOD != CapSense_1__TUNING_NONE)
 891:.\Generated_Source\PSoC4/CapSense_1_CSHL.c **** 	return(CapSense_1_negativeNoiseThreshold[widget]);
 892:.\Generated_Source\PSoC4/CapSense_1_CSHL.c **** #else
ARM GAS  C:\Users\mitchell\AppData\Local\Temp\cclqk7v6.s 			page 35


 893:.\Generated_Source\PSoC4/CapSense_1_CSHL.c **** 	return(CapSense_1_NEGATIVE_NOISE_THRESHOLD);
 1031              		.loc 1 893 0
 1032 0008 1423     		mov	r3, #20
 894:.\Generated_Source\PSoC4/CapSense_1_CSHL.c **** #endif /* (CapSense_1_TUNING_METHOD != CapSense_1__TUNING_NONE) */ 
 895:.\Generated_Source\PSoC4/CapSense_1_CSHL.c **** }
 1033              		.loc 1 895 0
 1034 000a 181C     		mov	r0, r3
 1035 000c BD46     		mov	sp, r7
 1036 000e 02B0     		add	sp, sp, #8
 1037              		@ sp needed
 1038 0010 80BD     		pop	{r7, pc}
 1039              		.cfi_endproc
 1040              	.LFE48:
 1041              		.size	CapSense_1_GetNegativeNoiseThreshold, .-CapSense_1_GetNegativeNoiseThreshold
 1042 0012 C046     		.section	.text.CapSense_1_CheckIsSensorActive,"ax",%progbits
 1043              		.align	2
 1044              		.global	CapSense_1_CheckIsSensorActive
 1045              		.code	16
 1046              		.thumb_func
 1047              		.type	CapSense_1_CheckIsSensorActive, %function
 1048              	CapSense_1_CheckIsSensorActive:
 1049              	.LFB49:
 896:.\Generated_Source\PSoC4/CapSense_1_CSHL.c **** 
 897:.\Generated_Source\PSoC4/CapSense_1_CSHL.c **** 
 898:.\Generated_Source\PSoC4/CapSense_1_CSHL.c **** #if(CapSense_1_TUNING_METHOD != CapSense_1__TUNING_NONE)
 899:.\Generated_Source\PSoC4/CapSense_1_CSHL.c **** 	/*******************************************************************************
 900:.\Generated_Source\PSoC4/CapSense_1_CSHL.c **** 	* Function Name: CapSense_1_SetFingerThreshold
 901:.\Generated_Source\PSoC4/CapSense_1_CSHL.c **** 	********************************************************************************
 902:.\Generated_Source\PSoC4/CapSense_1_CSHL.c **** 	*
 903:.\Generated_Source\PSoC4/CapSense_1_CSHL.c **** 	* Summary:
 904:.\Generated_Source\PSoC4/CapSense_1_CSHL.c **** 	*  This API sets the finger threshold value for a widget. 
 905:.\Generated_Source\PSoC4/CapSense_1_CSHL.c **** 	*
 906:.\Generated_Source\PSoC4/CapSense_1_CSHL.c **** 	* Parameters: 
 907:.\Generated_Source\PSoC4/CapSense_1_CSHL.c **** 	*  sensorNumber:  widget index. 
 908:.\Generated_Source\PSoC4/CapSense_1_CSHL.c **** 	*  value:  Finger threshold value for the widget.
 909:.\Generated_Source\PSoC4/CapSense_1_CSHL.c **** 	*
 910:.\Generated_Source\PSoC4/CapSense_1_CSHL.c **** 	* Return Value: 
 911:.\Generated_Source\PSoC4/CapSense_1_CSHL.c **** 	*  None
 912:.\Generated_Source\PSoC4/CapSense_1_CSHL.c **** 	*
 913:.\Generated_Source\PSoC4/CapSense_1_CSHL.c **** 	* Global Variables:
 914:.\Generated_Source\PSoC4/CapSense_1_CSHL.c **** 	*  CapSense_1_fingerThreshold[] - This array contains the level of signal 
 915:.\Generated_Source\PSoC4/CapSense_1_CSHL.c **** 	*   for each widget that determines if a finger is present on the widget.
 916:.\Generated_Source\PSoC4/CapSense_1_CSHL.c **** 	* 
 917:.\Generated_Source\PSoC4/CapSense_1_CSHL.c **** 	* Side Effects:
 918:.\Generated_Source\PSoC4/CapSense_1_CSHL.c **** 	*  None
 919:.\Generated_Source\PSoC4/CapSense_1_CSHL.c **** 	*
 920:.\Generated_Source\PSoC4/CapSense_1_CSHL.c **** 	*******************************************************************************/
 921:.\Generated_Source\PSoC4/CapSense_1_CSHL.c **** 	void CapSense_1_SetFingerThreshold(uint32 widget, uint8 value)
 922:.\Generated_Source\PSoC4/CapSense_1_CSHL.c **** 	{	
 923:.\Generated_Source\PSoC4/CapSense_1_CSHL.c **** 		CapSense_1_fingerThreshold[widget] = value;
 924:.\Generated_Source\PSoC4/CapSense_1_CSHL.c **** 	}
 925:.\Generated_Source\PSoC4/CapSense_1_CSHL.c **** 
 926:.\Generated_Source\PSoC4/CapSense_1_CSHL.c **** 
 927:.\Generated_Source\PSoC4/CapSense_1_CSHL.c **** 	/*******************************************************************************
 928:.\Generated_Source\PSoC4/CapSense_1_CSHL.c **** 	* Function Name: CapSense_1_SetNoiseThreshold
 929:.\Generated_Source\PSoC4/CapSense_1_CSHL.c **** 	********************************************************************************
 930:.\Generated_Source\PSoC4/CapSense_1_CSHL.c **** 	*
ARM GAS  C:\Users\mitchell\AppData\Local\Temp\cclqk7v6.s 			page 36


 931:.\Generated_Source\PSoC4/CapSense_1_CSHL.c **** 	* Summary:
 932:.\Generated_Source\PSoC4/CapSense_1_CSHL.c **** 	*  This API sets the Noise Threshold value for each widget.
 933:.\Generated_Source\PSoC4/CapSense_1_CSHL.c **** 	*
 934:.\Generated_Source\PSoC4/CapSense_1_CSHL.c **** 	* Parameters:
 935:.\Generated_Source\PSoC4/CapSense_1_CSHL.c **** 	*  widget:  Sensor index number.
 936:.\Generated_Source\PSoC4/CapSense_1_CSHL.c **** 	*  value:   Noise Threshold value for widget.
 937:.\Generated_Source\PSoC4/CapSense_1_CSHL.c **** 	*
 938:.\Generated_Source\PSoC4/CapSense_1_CSHL.c **** 	* Return Value: 
 939:.\Generated_Source\PSoC4/CapSense_1_CSHL.c **** 	*  None
 940:.\Generated_Source\PSoC4/CapSense_1_CSHL.c **** 	*
 941:.\Generated_Source\PSoC4/CapSense_1_CSHL.c **** 	* Global Variables:
 942:.\Generated_Source\PSoC4/CapSense_1_CSHL.c **** 	*  CapSense_1_noiseThreshold[] - This array contains the level of signal 
 943:.\Generated_Source\PSoC4/CapSense_1_CSHL.c **** 	*   for each widget that determines the level of noise in the capacitive scan.
 944:.\Generated_Source\PSoC4/CapSense_1_CSHL.c **** 	* 
 945:.\Generated_Source\PSoC4/CapSense_1_CSHL.c **** 	* Side Effects:
 946:.\Generated_Source\PSoC4/CapSense_1_CSHL.c **** 	*  None
 947:.\Generated_Source\PSoC4/CapSense_1_CSHL.c **** 	*
 948:.\Generated_Source\PSoC4/CapSense_1_CSHL.c **** 	*******************************************************************************/
 949:.\Generated_Source\PSoC4/CapSense_1_CSHL.c **** 	void CapSense_1_SetNoiseThreshold(uint32 widget, uint8 value)
 950:.\Generated_Source\PSoC4/CapSense_1_CSHL.c **** 	{
 951:.\Generated_Source\PSoC4/CapSense_1_CSHL.c **** 		CapSense_1_noiseThreshold[widget] = value;
 952:.\Generated_Source\PSoC4/CapSense_1_CSHL.c **** 	}
 953:.\Generated_Source\PSoC4/CapSense_1_CSHL.c **** 
 954:.\Generated_Source\PSoC4/CapSense_1_CSHL.c **** 
 955:.\Generated_Source\PSoC4/CapSense_1_CSHL.c **** 	/*******************************************************************************
 956:.\Generated_Source\PSoC4/CapSense_1_CSHL.c **** 	* Function Name: CapSense_1_SetFingerHysteresis
 957:.\Generated_Source\PSoC4/CapSense_1_CSHL.c **** 	********************************************************************************
 958:.\Generated_Source\PSoC4/CapSense_1_CSHL.c **** 	*
 959:.\Generated_Source\PSoC4/CapSense_1_CSHL.c **** 	* Summary:
 960:.\Generated_Source\PSoC4/CapSense_1_CSHL.c **** 	*  This API sets the Hysteresis value of a widget
 961:.\Generated_Source\PSoC4/CapSense_1_CSHL.c **** 	*
 962:.\Generated_Source\PSoC4/CapSense_1_CSHL.c **** 	* Parameters: 
 963:.\Generated_Source\PSoC4/CapSense_1_CSHL.c **** 	*  value:  Hysteresis value for widgets.
 964:.\Generated_Source\PSoC4/CapSense_1_CSHL.c **** 	*  widget:  widget number
 965:.\Generated_Source\PSoC4/CapSense_1_CSHL.c **** 	*
 966:.\Generated_Source\PSoC4/CapSense_1_CSHL.c **** 	* Return Value: 
 967:.\Generated_Source\PSoC4/CapSense_1_CSHL.c **** 	*  None
 968:.\Generated_Source\PSoC4/CapSense_1_CSHL.c **** 	*
 969:.\Generated_Source\PSoC4/CapSense_1_CSHL.c **** 	* Global Variables:
 970:.\Generated_Source\PSoC4/CapSense_1_CSHL.c **** 	*  CapSense_1_hysteresis[] - This array contains the hysteresis value for each widget.
 971:.\Generated_Source\PSoC4/CapSense_1_CSHL.c **** 	*  CapSense_1_widgetNumberSld - structure with dynamic sliders' parameters.
 972:.\Generated_Source\PSoC4/CapSense_1_CSHL.c **** 	*
 973:.\Generated_Source\PSoC4/CapSense_1_CSHL.c **** 	* Side Effects:
 974:.\Generated_Source\PSoC4/CapSense_1_CSHL.c **** 	*  None
 975:.\Generated_Source\PSoC4/CapSense_1_CSHL.c **** 	*
 976:.\Generated_Source\PSoC4/CapSense_1_CSHL.c **** 	*******************************************************************************/
 977:.\Generated_Source\PSoC4/CapSense_1_CSHL.c **** 	void CapSense_1_SetFingerHysteresis(uint32 widget, uint8 value)
 978:.\Generated_Source\PSoC4/CapSense_1_CSHL.c **** 	{
 979:.\Generated_Source\PSoC4/CapSense_1_CSHL.c **** 		CapSense_1_hysteresis[widget] = value;
 980:.\Generated_Source\PSoC4/CapSense_1_CSHL.c **** 	}
 981:.\Generated_Source\PSoC4/CapSense_1_CSHL.c **** 
 982:.\Generated_Source\PSoC4/CapSense_1_CSHL.c **** 
 983:.\Generated_Source\PSoC4/CapSense_1_CSHL.c **** 	/*******************************************************************************
 984:.\Generated_Source\PSoC4/CapSense_1_CSHL.c **** 	* Function Name: CapSense_1_SetNegativeNoiseThreshold
 985:.\Generated_Source\PSoC4/CapSense_1_CSHL.c **** 	********************************************************************************
 986:.\Generated_Source\PSoC4/CapSense_1_CSHL.c **** 	*
 987:.\Generated_Source\PSoC4/CapSense_1_CSHL.c **** 	* Summary:
ARM GAS  C:\Users\mitchell\AppData\Local\Temp\cclqk7v6.s 			page 37


 988:.\Generated_Source\PSoC4/CapSense_1_CSHL.c **** 	*  This API sets the Negative Noise Threshold value of a widget
 989:.\Generated_Source\PSoC4/CapSense_1_CSHL.c **** 	*
 990:.\Generated_Source\PSoC4/CapSense_1_CSHL.c **** 	* Parameters: 
 991:.\Generated_Source\PSoC4/CapSense_1_CSHL.c **** 	*  value:  Negative Noise Threshold value for widgets.
 992:.\Generated_Source\PSoC4/CapSense_1_CSHL.c **** 	*  widget: widget number
 993:.\Generated_Source\PSoC4/CapSense_1_CSHL.c **** 	*
 994:.\Generated_Source\PSoC4/CapSense_1_CSHL.c **** 	* Return Value: 
 995:.\Generated_Source\PSoC4/CapSense_1_CSHL.c **** 	*  None
 996:.\Generated_Source\PSoC4/CapSense_1_CSHL.c **** 	*
 997:.\Generated_Source\PSoC4/CapSense_1_CSHL.c **** 	* Global Variables:
 998:.\Generated_Source\PSoC4/CapSense_1_CSHL.c **** 	*  CapSense_1_negativeNoiseThreshold  - This parameter specifies the negative 
 999:.\Generated_Source\PSoC4/CapSense_1_CSHL.c **** 	*   difference between the raw count and baseline levels for Baseline resetting to 
1000:.\Generated_Source\PSoC4/CapSense_1_CSHL.c **** 	*   the raw count level.
1001:.\Generated_Source\PSoC4/CapSense_1_CSHL.c **** 	* 
1002:.\Generated_Source\PSoC4/CapSense_1_CSHL.c **** 	* Side Effects:
1003:.\Generated_Source\PSoC4/CapSense_1_CSHL.c **** 	*  None
1004:.\Generated_Source\PSoC4/CapSense_1_CSHL.c **** 	*
1005:.\Generated_Source\PSoC4/CapSense_1_CSHL.c **** 	*******************************************************************************/
1006:.\Generated_Source\PSoC4/CapSense_1_CSHL.c **** 	void CapSense_1_SetNegativeNoiseThreshold(uint32 widget, uint8 value)
1007:.\Generated_Source\PSoC4/CapSense_1_CSHL.c **** 	{
1008:.\Generated_Source\PSoC4/CapSense_1_CSHL.c **** 		CapSense_1_negativeNoiseThreshold[widget] = value;
1009:.\Generated_Source\PSoC4/CapSense_1_CSHL.c **** 	}
1010:.\Generated_Source\PSoC4/CapSense_1_CSHL.c **** 
1011:.\Generated_Source\PSoC4/CapSense_1_CSHL.c **** 
1012:.\Generated_Source\PSoC4/CapSense_1_CSHL.c **** 	/*******************************************************************************
1013:.\Generated_Source\PSoC4/CapSense_1_CSHL.c **** 	* Function Name: CapSense_1_SetDebounce
1014:.\Generated_Source\PSoC4/CapSense_1_CSHL.c **** 	********************************************************************************
1015:.\Generated_Source\PSoC4/CapSense_1_CSHL.c **** 	*
1016:.\Generated_Source\PSoC4/CapSense_1_CSHL.c **** 	* Summary:
1017:.\Generated_Source\PSoC4/CapSense_1_CSHL.c **** 	*  This API sets the debounce value for a widget.
1018:.\Generated_Source\PSoC4/CapSense_1_CSHL.c **** 	*
1019:.\Generated_Source\PSoC4/CapSense_1_CSHL.c **** 	* Parameters: 
1020:.\Generated_Source\PSoC4/CapSense_1_CSHL.c **** 	*  value:  Debounce value for widget.
1021:.\Generated_Source\PSoC4/CapSense_1_CSHL.c **** 	*  widget: widget index.
1022:.\Generated_Source\PSoC4/CapSense_1_CSHL.c **** 	*
1023:.\Generated_Source\PSoC4/CapSense_1_CSHL.c **** 	* Return Value: 
1024:.\Generated_Source\PSoC4/CapSense_1_CSHL.c **** 	*  None
1025:.\Generated_Source\PSoC4/CapSense_1_CSHL.c **** 	*
1026:.\Generated_Source\PSoC4/CapSense_1_CSHL.c **** 	* Global Variables:
1027:.\Generated_Source\PSoC4/CapSense_1_CSHL.c **** 	*  CapSense_1_debounce[] - This array contains the debounce value for each widget.
1028:.\Generated_Source\PSoC4/CapSense_1_CSHL.c **** 	*  CapSense_1_widgetNumberSld - structure with dynamic sliders' parameters.
1029:.\Generated_Source\PSoC4/CapSense_1_CSHL.c **** 	*
1030:.\Generated_Source\PSoC4/CapSense_1_CSHL.c **** 	* Side Effects:
1031:.\Generated_Source\PSoC4/CapSense_1_CSHL.c **** 	*  None
1032:.\Generated_Source\PSoC4/CapSense_1_CSHL.c **** 	*
1033:.\Generated_Source\PSoC4/CapSense_1_CSHL.c **** 	*******************************************************************************/
1034:.\Generated_Source\PSoC4/CapSense_1_CSHL.c **** 	void CapSense_1_SetDebounce(uint32 widget, uint8 value)
1035:.\Generated_Source\PSoC4/CapSense_1_CSHL.c **** 	{
1036:.\Generated_Source\PSoC4/CapSense_1_CSHL.c **** 		CapSense_1_debounce[widget] = value;
1037:.\Generated_Source\PSoC4/CapSense_1_CSHL.c **** 	}
1038:.\Generated_Source\PSoC4/CapSense_1_CSHL.c **** 
1039:.\Generated_Source\PSoC4/CapSense_1_CSHL.c **** 
1040:.\Generated_Source\PSoC4/CapSense_1_CSHL.c **** 	/*******************************************************************************
1041:.\Generated_Source\PSoC4/CapSense_1_CSHL.c **** 	* Function Name: CapSense_1_SetLowBaselineReset
1042:.\Generated_Source\PSoC4/CapSense_1_CSHL.c **** 	********************************************************************************
1043:.\Generated_Source\PSoC4/CapSense_1_CSHL.c **** 	*
1044:.\Generated_Source\PSoC4/CapSense_1_CSHL.c **** 	* Summary:
ARM GAS  C:\Users\mitchell\AppData\Local\Temp\cclqk7v6.s 			page 38


1045:.\Generated_Source\PSoC4/CapSense_1_CSHL.c **** 	*  This API sets the low baseline reset threshold value for the sensor.
1046:.\Generated_Source\PSoC4/CapSense_1_CSHL.c **** 	*
1047:.\Generated_Source\PSoC4/CapSense_1_CSHL.c **** 	* Parameters: 
1048:.\Generated_Source\PSoC4/CapSense_1_CSHL.c **** 	*  value: low baseline reset threshold value.
1049:.\Generated_Source\PSoC4/CapSense_1_CSHL.c **** 	*  sensor: Sensor index.
1050:.\Generated_Source\PSoC4/CapSense_1_CSHL.c **** 	*
1051:.\Generated_Source\PSoC4/CapSense_1_CSHL.c **** 	* Return Value: 
1052:.\Generated_Source\PSoC4/CapSense_1_CSHL.c **** 	*  None
1053:.\Generated_Source\PSoC4/CapSense_1_CSHL.c **** 	*
1054:.\Generated_Source\PSoC4/CapSense_1_CSHL.c **** 	* Global Variables:
1055:.\Generated_Source\PSoC4/CapSense_1_CSHL.c **** 	*  CapSense_1_lowBaselineReset[] - This array contains the Baseline update 
1056:.\Generated_Source\PSoC4/CapSense_1_CSHL.c **** 	*  threshold value for each sensor.
1057:.\Generated_Source\PSoC4/CapSense_1_CSHL.c **** 	* 
1058:.\Generated_Source\PSoC4/CapSense_1_CSHL.c **** 	* Side Effects:
1059:.\Generated_Source\PSoC4/CapSense_1_CSHL.c **** 	*  None
1060:.\Generated_Source\PSoC4/CapSense_1_CSHL.c **** 	*
1061:.\Generated_Source\PSoC4/CapSense_1_CSHL.c **** 	*******************************************************************************/
1062:.\Generated_Source\PSoC4/CapSense_1_CSHL.c **** 	void CapSense_1_SetLowBaselineReset(uint32 sensor, uint8 value)
1063:.\Generated_Source\PSoC4/CapSense_1_CSHL.c **** 	{
1064:.\Generated_Source\PSoC4/CapSense_1_CSHL.c **** 		CapSense_1_lowBaselineReset[sensor] = value;
1065:.\Generated_Source\PSoC4/CapSense_1_CSHL.c **** 	}
1066:.\Generated_Source\PSoC4/CapSense_1_CSHL.c **** #endif /* (CapSense_1_TUNING_METHOD != CapSense_1__TUNING_NONE) */
1067:.\Generated_Source\PSoC4/CapSense_1_CSHL.c **** 
1068:.\Generated_Source\PSoC4/CapSense_1_CSHL.c **** 
1069:.\Generated_Source\PSoC4/CapSense_1_CSHL.c **** /*******************************************************************************
1070:.\Generated_Source\PSoC4/CapSense_1_CSHL.c **** * Function Name: CapSense_1_CheckIsSensorActive
1071:.\Generated_Source\PSoC4/CapSense_1_CSHL.c **** ********************************************************************************
1072:.\Generated_Source\PSoC4/CapSense_1_CSHL.c **** *
1073:.\Generated_Source\PSoC4/CapSense_1_CSHL.c **** * Summary:
1074:.\Generated_Source\PSoC4/CapSense_1_CSHL.c **** *  Compares the CapSense_1_sensorSignal[sensor] array element to the finger
1075:.\Generated_Source\PSoC4/CapSense_1_CSHL.c **** *  threshold of the widget it belongs to. The hysteresis and debounce are taken into 
1076:.\Generated_Source\PSoC4/CapSense_1_CSHL.c **** *  account. The hysteresis is added or subtracted from the finger threshold 
1077:.\Generated_Source\PSoC4/CapSense_1_CSHL.c **** *  based on whether the sensor is currently active. 
1078:.\Generated_Source\PSoC4/CapSense_1_CSHL.c **** *  If the sensor is active, the threshold is lowered by the hysteresis amount.
1079:.\Generated_Source\PSoC4/CapSense_1_CSHL.c **** *  If the sensor is inactive, the threshold is raised by the hysteresis amount.
1080:.\Generated_Source\PSoC4/CapSense_1_CSHL.c **** *  The debounce counter is added to the sensor active transition.
1081:.\Generated_Source\PSoC4/CapSense_1_CSHL.c **** *  This function updates the CapSense_1_sensorOnMask[] array element.
1082:.\Generated_Source\PSoC4/CapSense_1_CSHL.c **** *
1083:.\Generated_Source\PSoC4/CapSense_1_CSHL.c **** * Parameters:
1084:.\Generated_Source\PSoC4/CapSense_1_CSHL.c **** *  sensor:  Sensor number.
1085:.\Generated_Source\PSoC4/CapSense_1_CSHL.c **** *
1086:.\Generated_Source\PSoC4/CapSense_1_CSHL.c **** * Return:
1087:.\Generated_Source\PSoC4/CapSense_1_CSHL.c **** *  Returns sensor state 1 if active, 0 if not active.
1088:.\Generated_Source\PSoC4/CapSense_1_CSHL.c **** *
1089:.\Generated_Source\PSoC4/CapSense_1_CSHL.c **** * Global Variables:
1090:.\Generated_Source\PSoC4/CapSense_1_CSHL.c **** *  CapSense_1_sensorSignal[] - used to store the difference between 
1091:.\Generated_Source\PSoC4/CapSense_1_CSHL.c **** *  the current value of raw data and a previous value of the baseline.
1092:.\Generated_Source\PSoC4/CapSense_1_CSHL.c **** *  CapSense_1_debounceCounter[]   - used to store the current debounce 
1093:.\Generated_Source\PSoC4/CapSense_1_CSHL.c **** *  counter of the sensor. the widget which have this parameter are buttons, matrix 
1094:.\Generated_Source\PSoC4/CapSense_1_CSHL.c **** *  buttons, proximity, and guard. All other widgets don't have the  debounce parameter
1095:.\Generated_Source\PSoC4/CapSense_1_CSHL.c **** *  and use the last element of this array with value 0 (it means no debounce).
1096:.\Generated_Source\PSoC4/CapSense_1_CSHL.c **** *  CapSense_1_sensorOnMask[] - used to store the sensors on/off state.
1097:.\Generated_Source\PSoC4/CapSense_1_CSHL.c **** *  CapSense_1_sensorOnMask[0] contains the masked bits for sensors 
1098:.\Generated_Source\PSoC4/CapSense_1_CSHL.c **** *   0 through 7 (sensor 0 is bit 0, sensor 1 is bit 1).
1099:.\Generated_Source\PSoC4/CapSense_1_CSHL.c **** *  CapSense_1_sensorEnableMask[1] contains the masked bits for 
1100:.\Generated_Source\PSoC4/CapSense_1_CSHL.c **** *  sensors 8 through 15 (if needed), and so on.
1101:.\Generated_Source\PSoC4/CapSense_1_CSHL.c **** *  0 - sensor is inactive.
ARM GAS  C:\Users\mitchell\AppData\Local\Temp\cclqk7v6.s 			page 39


1102:.\Generated_Source\PSoC4/CapSense_1_CSHL.c **** *  1 - sensor is active.
1103:.\Generated_Source\PSoC4/CapSense_1_CSHL.c **** * 
1104:.\Generated_Source\PSoC4/CapSense_1_CSHL.c **** * Side Effects:
1105:.\Generated_Source\PSoC4/CapSense_1_CSHL.c **** *  None
1106:.\Generated_Source\PSoC4/CapSense_1_CSHL.c **** *
1107:.\Generated_Source\PSoC4/CapSense_1_CSHL.c **** *******************************************************************************/
1108:.\Generated_Source\PSoC4/CapSense_1_CSHL.c **** uint32 CapSense_1_CheckIsSensorActive(uint32 sensor)
1109:.\Generated_Source\PSoC4/CapSense_1_CSHL.c **** {	
 1050              		.loc 1 1109 0
 1051              		.cfi_startproc
 1052 0000 80B5     		push	{r7, lr}
 1053              		.cfi_def_cfa_offset 8
 1054              		.cfi_offset 7, -8
 1055              		.cfi_offset 14, -4
 1056 0002 84B0     		sub	sp, sp, #16
 1057              		.cfi_def_cfa_offset 24
 1058 0004 00AF     		add	r7, sp, #0
 1059              		.cfi_def_cfa_register 7
 1060 0006 7860     		str	r0, [r7, #4]
1110:.\Generated_Source\PSoC4/CapSense_1_CSHL.c **** 	uint8 widget;
1111:.\Generated_Source\PSoC4/CapSense_1_CSHL.c **** 	uint8 debounce;
1112:.\Generated_Source\PSoC4/CapSense_1_CSHL.c **** 	uint8 debounceIndex;
1113:.\Generated_Source\PSoC4/CapSense_1_CSHL.c **** 
1114:.\Generated_Source\PSoC4/CapSense_1_CSHL.c **** 	uint8 fingerThreshold;
1115:.\Generated_Source\PSoC4/CapSense_1_CSHL.c **** 	uint8 hysteresis;
1116:.\Generated_Source\PSoC4/CapSense_1_CSHL.c **** 	static uint8 CapSense_1_debounceCounter[] = {
1117:.\Generated_Source\PSoC4/CapSense_1_CSHL.c ****     0u, 
1118:.\Generated_Source\PSoC4/CapSense_1_CSHL.c **** };
1119:.\Generated_Source\PSoC4/CapSense_1_CSHL.c **** 
1120:.\Generated_Source\PSoC4/CapSense_1_CSHL.c **** 
1121:.\Generated_Source\PSoC4/CapSense_1_CSHL.c **** 	
1122:.\Generated_Source\PSoC4/CapSense_1_CSHL.c ****     /* Prepare to find debounce counter index */
1123:.\Generated_Source\PSoC4/CapSense_1_CSHL.c ****     widget = CapSense_1_widgetNumber[sensor];
 1061              		.loc 1 1123 0
 1062 0008 3B1C     		mov	r3, r7
 1063 000a 0F33     		add	r3, r3, #15
 1064 000c 3F49     		ldr	r1, .L74
 1065 000e 7A68     		ldr	r2, [r7, #4]
 1066 0010 8A18     		add	r2, r1, r2
 1067 0012 1278     		ldrb	r2, [r2]
 1068 0014 1A70     		strb	r2, [r3]
1124:.\Generated_Source\PSoC4/CapSense_1_CSHL.c **** 	
1125:.\Generated_Source\PSoC4/CapSense_1_CSHL.c ****     fingerThreshold = CapSense_1_fingerThreshold[widget];
 1069              		.loc 1 1125 0
 1070 0016 3B1C     		mov	r3, r7
 1071 0018 0E33     		add	r3, r3, #14
 1072 001a 6422     		mov	r2, #100
 1073 001c 1A70     		strb	r2, [r3]
1126:.\Generated_Source\PSoC4/CapSense_1_CSHL.c **** 	hysteresis = CapSense_1_hysteresis[widget];
 1074              		.loc 1 1126 0
 1075 001e 3B1C     		mov	r3, r7
 1076 0020 0D33     		add	r3, r3, #13
 1077 0022 0022     		mov	r2, #0
 1078 0024 1A70     		strb	r2, [r3]
1127:.\Generated_Source\PSoC4/CapSense_1_CSHL.c **** 	debounce = CapSense_1_debounce[widget];	
 1079              		.loc 1 1127 0
 1080 0026 3B1C     		mov	r3, r7
ARM GAS  C:\Users\mitchell\AppData\Local\Temp\cclqk7v6.s 			page 40


 1081 0028 0C33     		add	r3, r3, #12
 1082 002a 0122     		mov	r2, #1
 1083 002c 1A70     		strb	r2, [r3]
1128:.\Generated_Source\PSoC4/CapSense_1_CSHL.c **** 	
1129:.\Generated_Source\PSoC4/CapSense_1_CSHL.c **** 	    debounceIndex = CapSense_1_UNUSED_DEBOUNCE_COUNTER_INDEX;
 1084              		.loc 1 1129 0
 1085 002e 3B1C     		mov	r3, r7
 1086 0030 0B33     		add	r3, r3, #11
 1087 0032 0022     		mov	r2, #0
 1088 0034 1A70     		strb	r2, [r3]
1130:.\Generated_Source\PSoC4/CapSense_1_CSHL.c ****     CapSense_1_debounceCounter[debounceIndex] = 1u;
 1089              		.loc 1 1130 0
 1090 0036 3B1C     		mov	r3, r7
 1091 0038 0B33     		add	r3, r3, #11
 1092 003a 1B78     		ldrb	r3, [r3]
 1093 003c 344A     		ldr	r2, .L74+4
 1094 003e 0121     		mov	r1, #1
 1095 0040 D154     		strb	r1, [r2, r3]
1131:.\Generated_Source\PSoC4/CapSense_1_CSHL.c **** 
1132:.\Generated_Source\PSoC4/CapSense_1_CSHL.c **** 	
1133:.\Generated_Source\PSoC4/CapSense_1_CSHL.c ****     /* Was on */
1134:.\Generated_Source\PSoC4/CapSense_1_CSHL.c ****     if (0u != CapSense_1_GetBitValue(CapSense_1_sensorOnMask, sensor))
 1096              		.loc 1 1134 0
 1097 0042 344A     		ldr	r2, .L74+8
 1098 0044 7B68     		ldr	r3, [r7, #4]
 1099 0046 101C     		mov	r0, r2
 1100 0048 191C     		mov	r1, r3
 1101 004a FFF7FEFF 		bl	CapSense_1_GetBitValue
 1102 004e 031C     		mov	r3, r0
 1103 0050 002B     		cmp	r3, #0
 1104 0052 1DD0     		beq	.L66
1135:.\Generated_Source\PSoC4/CapSense_1_CSHL.c ****     {
1136:.\Generated_Source\PSoC4/CapSense_1_CSHL.c ****         /* Hysteresis minus */
1137:.\Generated_Source\PSoC4/CapSense_1_CSHL.c ****         if (CapSense_1_sensorSignal[sensor] < (fingerThreshold - hysteresis))
 1105              		.loc 1 1137 0
 1106 0054 304A     		ldr	r2, .L74+12
 1107 0056 7B68     		ldr	r3, [r7, #4]
 1108 0058 D318     		add	r3, r2, r3
 1109 005a 1B78     		ldrb	r3, [r3]
 1110 005c 1A1C     		mov	r2, r3
 1111 005e 3B1C     		mov	r3, r7
 1112 0060 0E33     		add	r3, r3, #14
 1113 0062 1978     		ldrb	r1, [r3]
 1114 0064 3B1C     		mov	r3, r7
 1115 0066 0D33     		add	r3, r3, #13
 1116 0068 1B78     		ldrb	r3, [r3]
 1117 006a CB1A     		sub	r3, r1, r3
 1118 006c 9A42     		cmp	r2, r3
 1119 006e 3DDA     		bge	.L68
1138:.\Generated_Source\PSoC4/CapSense_1_CSHL.c ****         {
1139:.\Generated_Source\PSoC4/CapSense_1_CSHL.c **** 	   		CapSense_1_SetBitValue(CapSense_1_sensorOnMask, sensor, 0u);
 1120              		.loc 1 1139 0
 1121 0070 284A     		ldr	r2, .L74+8
 1122 0072 7B68     		ldr	r3, [r7, #4]
 1123 0074 101C     		mov	r0, r2
 1124 0076 191C     		mov	r1, r3
 1125 0078 0022     		mov	r2, #0
ARM GAS  C:\Users\mitchell\AppData\Local\Temp\cclqk7v6.s 			page 41


 1126 007a FFF7FEFF 		bl	CapSense_1_SetBitValue
1140:.\Generated_Source\PSoC4/CapSense_1_CSHL.c **** 			/* Sensor inactive - reset Debounce counter */
1141:.\Generated_Source\PSoC4/CapSense_1_CSHL.c ****             CapSense_1_debounceCounter[debounceIndex] = debounce;
 1127              		.loc 1 1141 0
 1128 007e 3B1C     		mov	r3, r7
 1129 0080 0B33     		add	r3, r3, #11
 1130 0082 1B78     		ldrb	r3, [r3]
 1131 0084 224A     		ldr	r2, .L74+4
 1132 0086 391C     		mov	r1, r7
 1133 0088 0C31     		add	r1, r1, #12
 1134 008a 0978     		ldrb	r1, [r1]
 1135 008c D154     		strb	r1, [r2, r3]
 1136 008e 2DE0     		b	.L68
 1137              	.L66:
1142:.\Generated_Source\PSoC4/CapSense_1_CSHL.c ****         }
1143:.\Generated_Source\PSoC4/CapSense_1_CSHL.c ****     }
1144:.\Generated_Source\PSoC4/CapSense_1_CSHL.c ****     else    /* Was off */
1145:.\Generated_Source\PSoC4/CapSense_1_CSHL.c ****     {
1146:.\Generated_Source\PSoC4/CapSense_1_CSHL.c ****         /* Hysteresis plus */
1147:.\Generated_Source\PSoC4/CapSense_1_CSHL.c ****         if (CapSense_1_sensorSignal[sensor] >= (fingerThreshold + hysteresis))
 1138              		.loc 1 1147 0
 1139 0090 214A     		ldr	r2, .L74+12
 1140 0092 7B68     		ldr	r3, [r7, #4]
 1141 0094 D318     		add	r3, r2, r3
 1142 0096 1B78     		ldrb	r3, [r3]
 1143 0098 1A1C     		mov	r2, r3
 1144 009a 3B1C     		mov	r3, r7
 1145 009c 0E33     		add	r3, r3, #14
 1146 009e 1978     		ldrb	r1, [r3]
 1147 00a0 3B1C     		mov	r3, r7
 1148 00a2 0D33     		add	r3, r3, #13
 1149 00a4 1B78     		ldrb	r3, [r3]
 1150 00a6 CB18     		add	r3, r1, r3
 1151 00a8 9A42     		cmp	r2, r3
 1152 00aa 17DB     		blt	.L69
1148:.\Generated_Source\PSoC4/CapSense_1_CSHL.c ****         {
1149:.\Generated_Source\PSoC4/CapSense_1_CSHL.c **** 			CapSense_1_debounceCounter[debounceIndex]--;
 1153              		.loc 1 1149 0
 1154 00ac 3B1C     		mov	r3, r7
 1155 00ae 0B33     		add	r3, r3, #11
 1156 00b0 1B78     		ldrb	r3, [r3]
 1157 00b2 174A     		ldr	r2, .L74+4
 1158 00b4 D25C     		ldrb	r2, [r2, r3]
 1159 00b6 013A     		sub	r2, r2, #1
 1160 00b8 D1B2     		uxtb	r1, r2
 1161 00ba 154A     		ldr	r2, .L74+4
 1162 00bc D154     		strb	r1, [r2, r3]
1150:.\Generated_Source\PSoC4/CapSense_1_CSHL.c ****             /* Sensor active, decrement debounce counter */
1151:.\Generated_Source\PSoC4/CapSense_1_CSHL.c ****             if(CapSense_1_debounceCounter[debounceIndex] == 0u)
 1163              		.loc 1 1151 0
 1164 00be 3B1C     		mov	r3, r7
 1165 00c0 0B33     		add	r3, r3, #11
 1166 00c2 1B78     		ldrb	r3, [r3]
 1167 00c4 124A     		ldr	r2, .L74+4
 1168 00c6 D35C     		ldrb	r3, [r2, r3]
 1169 00c8 002B     		cmp	r3, #0
 1170 00ca 0FD1     		bne	.L68
ARM GAS  C:\Users\mitchell\AppData\Local\Temp\cclqk7v6.s 			page 42


1152:.\Generated_Source\PSoC4/CapSense_1_CSHL.c ****             {
1153:.\Generated_Source\PSoC4/CapSense_1_CSHL.c ****                 CapSense_1_SetBitValue(CapSense_1_sensorOnMask, sensor, 1u); 
 1171              		.loc 1 1153 0
 1172 00cc 114A     		ldr	r2, .L74+8
 1173 00ce 7B68     		ldr	r3, [r7, #4]
 1174 00d0 101C     		mov	r0, r2
 1175 00d2 191C     		mov	r1, r3
 1176 00d4 0122     		mov	r2, #1
 1177 00d6 FFF7FEFF 		bl	CapSense_1_SetBitValue
 1178 00da 07E0     		b	.L68
 1179              	.L69:
1154:.\Generated_Source\PSoC4/CapSense_1_CSHL.c ****             }
1155:.\Generated_Source\PSoC4/CapSense_1_CSHL.c ****         }
1156:.\Generated_Source\PSoC4/CapSense_1_CSHL.c ****         else
1157:.\Generated_Source\PSoC4/CapSense_1_CSHL.c ****         {
1158:.\Generated_Source\PSoC4/CapSense_1_CSHL.c ****             /* Sensor inactive - reset Debounce counter */
1159:.\Generated_Source\PSoC4/CapSense_1_CSHL.c ****             CapSense_1_debounceCounter[debounceIndex] = debounce;
 1180              		.loc 1 1159 0
 1181 00dc 3B1C     		mov	r3, r7
 1182 00de 0B33     		add	r3, r3, #11
 1183 00e0 1B78     		ldrb	r3, [r3]
 1184 00e2 0B4A     		ldr	r2, .L74+4
 1185 00e4 391C     		mov	r1, r7
 1186 00e6 0C31     		add	r1, r1, #12
 1187 00e8 0978     		ldrb	r1, [r1]
 1188 00ea D154     		strb	r1, [r2, r3]
 1189              	.L68:
1160:.\Generated_Source\PSoC4/CapSense_1_CSHL.c ****         }
1161:.\Generated_Source\PSoC4/CapSense_1_CSHL.c ****     }
1162:.\Generated_Source\PSoC4/CapSense_1_CSHL.c ****     
1163:.\Generated_Source\PSoC4/CapSense_1_CSHL.c ****     return ((uint32)((0u != CapSense_1_GetBitValue(CapSense_1_sensorOnMask, sensor)) ? 1u : 0u));
 1190              		.loc 1 1163 0
 1191 00ec 094A     		ldr	r2, .L74+8
 1192 00ee 7B68     		ldr	r3, [r7, #4]
 1193 00f0 101C     		mov	r0, r2
 1194 00f2 191C     		mov	r1, r3
 1195 00f4 FFF7FEFF 		bl	CapSense_1_GetBitValue
 1196 00f8 031C     		mov	r3, r0
 1197 00fa 002B     		cmp	r3, #0
 1198 00fc 01D0     		beq	.L71
 1199              		.loc 1 1163 0 is_stmt 0 discriminator 1
 1200 00fe 0123     		mov	r3, #1
 1201 0100 00E0     		b	.L72
 1202              	.L71:
 1203              		.loc 1 1163 0 discriminator 2
 1204 0102 0023     		mov	r3, #0
 1205              	.L72:
1164:.\Generated_Source\PSoC4/CapSense_1_CSHL.c **** }
 1206              		.loc 1 1164 0 is_stmt 1 discriminator 3
 1207 0104 181C     		mov	r0, r3
 1208 0106 BD46     		mov	sp, r7
 1209 0108 04B0     		add	sp, sp, #16
 1210              		@ sp needed
 1211 010a 80BD     		pop	{r7, pc}
 1212              	.L75:
 1213              		.align	2
 1214              	.L74:
ARM GAS  C:\Users\mitchell\AppData\Local\Temp\cclqk7v6.s 			page 43


 1215 010c 00000000 		.word	CapSense_1_widgetNumber
 1216 0110 20000000 		.word	CapSense_1_debounceCounter.5275
 1217 0114 00000000 		.word	CapSense_1_sensorOnMask
 1218 0118 00000000 		.word	CapSense_1_sensorSignal
 1219              		.cfi_endproc
 1220              	.LFE49:
 1221              		.size	CapSense_1_CheckIsSensorActive, .-CapSense_1_CheckIsSensorActive
 1222              		.section	.text.CapSense_1_CheckIsWidgetActive,"ax",%progbits
 1223              		.align	2
 1224              		.global	CapSense_1_CheckIsWidgetActive
 1225              		.code	16
 1226              		.thumb_func
 1227              		.type	CapSense_1_CheckIsWidgetActive, %function
 1228              	CapSense_1_CheckIsWidgetActive:
 1229              	.LFB50:
1165:.\Generated_Source\PSoC4/CapSense_1_CSHL.c **** 
1166:.\Generated_Source\PSoC4/CapSense_1_CSHL.c **** 
1167:.\Generated_Source\PSoC4/CapSense_1_CSHL.c **** /*******************************************************************************
1168:.\Generated_Source\PSoC4/CapSense_1_CSHL.c **** * Function Name: CapSense_1_CheckIsWidgetActive
1169:.\Generated_Source\PSoC4/CapSense_1_CSHL.c **** ********************************************************************************
1170:.\Generated_Source\PSoC4/CapSense_1_CSHL.c **** *
1171:.\Generated_Source\PSoC4/CapSense_1_CSHL.c **** * Summary:
1172:.\Generated_Source\PSoC4/CapSense_1_CSHL.c **** *  Compares the CapSense_sensorSignal[] array element to the finger threshold of 
1173:.\Generated_Source\PSoC4/CapSense_1_CSHL.c **** * the widget it belongs to. The hysteresis and debounce are taken into account. 
1174:.\Generated_Source\PSoC4/CapSense_1_CSHL.c **** * The hysteresis is added or subtracted from the finger threshold based on whether
1175:.\Generated_Source\PSoC4/CapSense_1_CSHL.c **** *  the sensor is currently active. If the sensor is active, the threshold is 
1176:.\Generated_Source\PSoC4/CapSense_1_CSHL.c **** *  lowered by the hysteresis amount. If the sensor is inactive, the threshold 
1177:.\Generated_Source\PSoC4/CapSense_1_CSHL.c **** *  is raised by the hysteresis amount. 
1178:.\Generated_Source\PSoC4/CapSense_1_CSHL.c **** * The debounce counter added to the sensor active transition. 
1179:.\Generated_Source\PSoC4/CapSense_1_CSHL.c **** * This function updates CapSense_sensorOnMask[] array element
1180:.\Generated_Source\PSoC4/CapSense_1_CSHL.c **** *
1181:.\Generated_Source\PSoC4/CapSense_1_CSHL.c **** * Parameters:
1182:.\Generated_Source\PSoC4/CapSense_1_CSHL.c **** *  widget:  widget number.
1183:.\Generated_Source\PSoC4/CapSense_1_CSHL.c **** *
1184:.\Generated_Source\PSoC4/CapSense_1_CSHL.c **** * Return:
1185:.\Generated_Source\PSoC4/CapSense_1_CSHL.c **** *  Returns widget sensor state 1 if one or more sensors within widget is/are 
1186:.\Generated_Source\PSoC4/CapSense_1_CSHL.c **** *  active, 0 if all sensors within widget are inactive.
1187:.\Generated_Source\PSoC4/CapSense_1_CSHL.c **** *
1188:.\Generated_Source\PSoC4/CapSense_1_CSHL.c **** * Global Variables:
1189:.\Generated_Source\PSoC4/CapSense_1_CSHL.c **** *  rawDataIndex[]: Contains the  1st sensor position in the widget
1190:.\Generated_Source\PSoC4/CapSense_1_CSHL.c **** * 
1191:.\Generated_Source\PSoC4/CapSense_1_CSHL.c **** * Side Effects:
1192:.\Generated_Source\PSoC4/CapSense_1_CSHL.c **** *  None
1193:.\Generated_Source\PSoC4/CapSense_1_CSHL.c **** *
1194:.\Generated_Source\PSoC4/CapSense_1_CSHL.c **** *******************************************************************************/
1195:.\Generated_Source\PSoC4/CapSense_1_CSHL.c **** uint32 CapSense_1_CheckIsWidgetActive(uint32 widget)
1196:.\Generated_Source\PSoC4/CapSense_1_CSHL.c **** {
 1230              		.loc 1 1196 0
 1231              		.cfi_startproc
 1232 0000 80B5     		push	{r7, lr}
 1233              		.cfi_def_cfa_offset 8
 1234              		.cfi_offset 7, -8
 1235              		.cfi_offset 14, -4
 1236 0002 86B0     		sub	sp, sp, #24
 1237              		.cfi_def_cfa_offset 32
 1238 0004 00AF     		add	r7, sp, #0
 1239              		.cfi_def_cfa_register 7
ARM GAS  C:\Users\mitchell\AppData\Local\Temp\cclqk7v6.s 			page 44


 1240 0006 7860     		str	r0, [r7, #4]
1197:.\Generated_Source\PSoC4/CapSense_1_CSHL.c ****     uint32 rawIndex = (uint32)CapSense_1_rawDataIndex[widget];
 1241              		.loc 1 1197 0
 1242 0008 0023     		mov	r3, #0
 1243 000a 7B61     		str	r3, [r7, #20]
1198:.\Generated_Source\PSoC4/CapSense_1_CSHL.c ****     uint32 numOfSensors = (uint32)CapSense_1_numberOfSensors[widget] + rawIndex;
 1244              		.loc 1 1198 0
 1245 000c 0523     		mov	r3, #5
 1246 000e 1A1C     		mov	r2, r3
 1247 0010 7B69     		ldr	r3, [r7, #20]
 1248 0012 D318     		add	r3, r2, r3
 1249 0014 FB60     		str	r3, [r7, #12]
1199:.\Generated_Source\PSoC4/CapSense_1_CSHL.c ****     uint32 state = 0u;
 1250              		.loc 1 1199 0
 1251 0016 0023     		mov	r3, #0
 1252 0018 3B61     		str	r3, [r7, #16]
 1253              	.L78:
1200:.\Generated_Source\PSoC4/CapSense_1_CSHL.c **** 
1201:.\Generated_Source\PSoC4/CapSense_1_CSHL.c ****     /* Check all sensors of widget */
1202:.\Generated_Source\PSoC4/CapSense_1_CSHL.c ****     do
1203:.\Generated_Source\PSoC4/CapSense_1_CSHL.c ****     {
1204:.\Generated_Source\PSoC4/CapSense_1_CSHL.c ****         if(CapSense_1_CheckIsSensorActive((uint32)rawIndex) != 0u)
 1254              		.loc 1 1204 0
 1255 001a 7B69     		ldr	r3, [r7, #20]
 1256 001c 181C     		mov	r0, r3
 1257 001e FFF7FEFF 		bl	CapSense_1_CheckIsSensorActive
 1258 0022 031C     		mov	r3, r0
 1259 0024 002B     		cmp	r3, #0
 1260 0026 01D0     		beq	.L77
1205:.\Generated_Source\PSoC4/CapSense_1_CSHL.c ****         {
1206:.\Generated_Source\PSoC4/CapSense_1_CSHL.c ****             state = CapSense_1_SENSOR_IS_ACTIVE;
 1261              		.loc 1 1206 0
 1262 0028 0123     		mov	r3, #1
 1263 002a 3B61     		str	r3, [r7, #16]
 1264              	.L77:
1207:.\Generated_Source\PSoC4/CapSense_1_CSHL.c ****         }
1208:.\Generated_Source\PSoC4/CapSense_1_CSHL.c ****         rawIndex++;
 1265              		.loc 1 1208 0
 1266 002c 7B69     		ldr	r3, [r7, #20]
 1267 002e 0133     		add	r3, r3, #1
 1268 0030 7B61     		str	r3, [r7, #20]
1209:.\Generated_Source\PSoC4/CapSense_1_CSHL.c ****     }
1210:.\Generated_Source\PSoC4/CapSense_1_CSHL.c ****     while(rawIndex < numOfSensors);
 1269              		.loc 1 1210 0
 1270 0032 7A69     		ldr	r2, [r7, #20]
 1271 0034 FB68     		ldr	r3, [r7, #12]
 1272 0036 9A42     		cmp	r2, r3
 1273 0038 EFD3     		bcc	.L78
1211:.\Generated_Source\PSoC4/CapSense_1_CSHL.c ****     
1212:.\Generated_Source\PSoC4/CapSense_1_CSHL.c **** 
1213:.\Generated_Source\PSoC4/CapSense_1_CSHL.c ****     
1214:.\Generated_Source\PSoC4/CapSense_1_CSHL.c ****     return state;
 1274              		.loc 1 1214 0
 1275 003a 3B69     		ldr	r3, [r7, #16]
1215:.\Generated_Source\PSoC4/CapSense_1_CSHL.c **** }
 1276              		.loc 1 1215 0
 1277 003c 181C     		mov	r0, r3
ARM GAS  C:\Users\mitchell\AppData\Local\Temp\cclqk7v6.s 			page 45


 1278 003e BD46     		mov	sp, r7
 1279 0040 06B0     		add	sp, sp, #24
 1280              		@ sp needed
 1281 0042 80BD     		pop	{r7, pc}
 1282              		.cfi_endproc
 1283              	.LFE50:
 1284              		.size	CapSense_1_CheckIsWidgetActive, .-CapSense_1_CheckIsWidgetActive
 1285              		.section	.text.CapSense_1_CheckIsAnyWidgetActive,"ax",%progbits
 1286              		.align	2
 1287              		.global	CapSense_1_CheckIsAnyWidgetActive
 1288              		.code	16
 1289              		.thumb_func
 1290              		.type	CapSense_1_CheckIsAnyWidgetActive, %function
 1291              	CapSense_1_CheckIsAnyWidgetActive:
 1292              	.LFB51:
1216:.\Generated_Source\PSoC4/CapSense_1_CSHL.c **** 
1217:.\Generated_Source\PSoC4/CapSense_1_CSHL.c **** 
1218:.\Generated_Source\PSoC4/CapSense_1_CSHL.c **** /*******************************************************************************
1219:.\Generated_Source\PSoC4/CapSense_1_CSHL.c **** * Function Name: CapSense_1_CheckIsAnyWidgetActive
1220:.\Generated_Source\PSoC4/CapSense_1_CSHL.c **** ********************************************************************************
1221:.\Generated_Source\PSoC4/CapSense_1_CSHL.c **** *
1222:.\Generated_Source\PSoC4/CapSense_1_CSHL.c **** * Summary:
1223:.\Generated_Source\PSoC4/CapSense_1_CSHL.c **** *  Compares all the sensors of the CapSense_1_Signal[] array to their finger 
1224:.\Generated_Source\PSoC4/CapSense_1_CSHL.c **** *  threshold. Calls CapSense_1_CheckIsWidgetActive() for each widget so 
1225:.\Generated_Source\PSoC4/CapSense_1_CSHL.c **** *  the CapSense_1_sensorOnMask[] array is up to date after calling this 
1226:.\Generated_Source\PSoC4/CapSense_1_CSHL.c **** *  function.
1227:.\Generated_Source\PSoC4/CapSense_1_CSHL.c **** *
1228:.\Generated_Source\PSoC4/CapSense_1_CSHL.c **** * Parameters:
1229:.\Generated_Source\PSoC4/CapSense_1_CSHL.c **** *  widget:  widget number.
1230:.\Generated_Source\PSoC4/CapSense_1_CSHL.c **** *
1231:.\Generated_Source\PSoC4/CapSense_1_CSHL.c **** * Return:
1232:.\Generated_Source\PSoC4/CapSense_1_CSHL.c **** *  Returns 1 if any widget is active, 0 none of widgets are active.
1233:.\Generated_Source\PSoC4/CapSense_1_CSHL.c **** *
1234:.\Generated_Source\PSoC4/CapSense_1_CSHL.c **** * Global Variables:
1235:.\Generated_Source\PSoC4/CapSense_1_CSHL.c **** *  None
1236:.\Generated_Source\PSoC4/CapSense_1_CSHL.c **** * 
1237:.\Generated_Source\PSoC4/CapSense_1_CSHL.c **** * Side Effects:
1238:.\Generated_Source\PSoC4/CapSense_1_CSHL.c **** *  None
1239:.\Generated_Source\PSoC4/CapSense_1_CSHL.c **** *
1240:.\Generated_Source\PSoC4/CapSense_1_CSHL.c **** *******************************************************************************/
1241:.\Generated_Source\PSoC4/CapSense_1_CSHL.c **** uint32 CapSense_1_CheckIsAnyWidgetActive(void)
1242:.\Generated_Source\PSoC4/CapSense_1_CSHL.c **** {
 1293              		.loc 1 1242 0
 1294              		.cfi_startproc
 1295 0000 80B5     		push	{r7, lr}
 1296              		.cfi_def_cfa_offset 8
 1297              		.cfi_offset 7, -8
 1298              		.cfi_offset 14, -4
 1299 0002 82B0     		sub	sp, sp, #8
 1300              		.cfi_def_cfa_offset 16
 1301 0004 00AF     		add	r7, sp, #0
 1302              		.cfi_def_cfa_register 7
1243:.\Generated_Source\PSoC4/CapSense_1_CSHL.c **** 
1244:.\Generated_Source\PSoC4/CapSense_1_CSHL.c **** 	    uint32 i;
1245:.\Generated_Source\PSoC4/CapSense_1_CSHL.c ****     uint32 state = 0u;
 1303              		.loc 1 1245 0
 1304 0006 0023     		mov	r3, #0
ARM GAS  C:\Users\mitchell\AppData\Local\Temp\cclqk7v6.s 			page 46


 1305 0008 3B60     		str	r3, [r7]
1246:.\Generated_Source\PSoC4/CapSense_1_CSHL.c ****     
1247:.\Generated_Source\PSoC4/CapSense_1_CSHL.c ****     for(i = 0u; i < CapSense_1_TOTAL_WIDGET_COUNT; i++)
 1306              		.loc 1 1247 0
 1307 000a 0023     		mov	r3, #0
 1308 000c 7B60     		str	r3, [r7, #4]
 1309 000e 0BE0     		b	.L81
 1310              	.L83:
1248:.\Generated_Source\PSoC4/CapSense_1_CSHL.c ****     {
1249:.\Generated_Source\PSoC4/CapSense_1_CSHL.c ****         if (CapSense_1_CheckIsWidgetActive(i) != 0u)
 1311              		.loc 1 1249 0
 1312 0010 7B68     		ldr	r3, [r7, #4]
 1313 0012 181C     		mov	r0, r3
 1314 0014 FFF7FEFF 		bl	CapSense_1_CheckIsWidgetActive
 1315 0018 031C     		mov	r3, r0
 1316 001a 002B     		cmp	r3, #0
 1317 001c 01D0     		beq	.L82
1250:.\Generated_Source\PSoC4/CapSense_1_CSHL.c ****         {
1251:.\Generated_Source\PSoC4/CapSense_1_CSHL.c ****             state = CapSense_1_WIDGET_IS_ACTIVE;
 1318              		.loc 1 1251 0
 1319 001e 0123     		mov	r3, #1
 1320 0020 3B60     		str	r3, [r7]
 1321              	.L82:
1247:.\Generated_Source\PSoC4/CapSense_1_CSHL.c ****     for(i = 0u; i < CapSense_1_TOTAL_WIDGET_COUNT; i++)
 1322              		.loc 1 1247 0
 1323 0022 7B68     		ldr	r3, [r7, #4]
 1324 0024 0133     		add	r3, r3, #1
 1325 0026 7B60     		str	r3, [r7, #4]
 1326              	.L81:
1247:.\Generated_Source\PSoC4/CapSense_1_CSHL.c ****     for(i = 0u; i < CapSense_1_TOTAL_WIDGET_COUNT; i++)
 1327              		.loc 1 1247 0 is_stmt 0 discriminator 1
 1328 0028 7B68     		ldr	r3, [r7, #4]
 1329 002a 002B     		cmp	r3, #0
 1330 002c F0D0     		beq	.L83
1252:.\Generated_Source\PSoC4/CapSense_1_CSHL.c ****         }
1253:.\Generated_Source\PSoC4/CapSense_1_CSHL.c ****     }
1254:.\Generated_Source\PSoC4/CapSense_1_CSHL.c ****     
1255:.\Generated_Source\PSoC4/CapSense_1_CSHL.c **** 
1256:.\Generated_Source\PSoC4/CapSense_1_CSHL.c **** 
1257:.\Generated_Source\PSoC4/CapSense_1_CSHL.c ****     return state;
 1331              		.loc 1 1257 0 is_stmt 1
 1332 002e 3B68     		ldr	r3, [r7]
1258:.\Generated_Source\PSoC4/CapSense_1_CSHL.c **** }
 1333              		.loc 1 1258 0
 1334 0030 181C     		mov	r0, r3
 1335 0032 BD46     		mov	sp, r7
 1336 0034 02B0     		add	sp, sp, #8
 1337              		@ sp needed
 1338 0036 80BD     		pop	{r7, pc}
 1339              		.cfi_endproc
 1340              	.LFE51:
 1341              		.size	CapSense_1_CheckIsAnyWidgetActive, .-CapSense_1_CheckIsAnyWidgetActive
 1342              		.section	.text.CapSense_1_EnableWidget,"ax",%progbits
 1343              		.align	2
 1344              		.global	CapSense_1_EnableWidget
 1345              		.code	16
 1346              		.thumb_func
ARM GAS  C:\Users\mitchell\AppData\Local\Temp\cclqk7v6.s 			page 47


 1347              		.type	CapSense_1_EnableWidget, %function
 1348              	CapSense_1_EnableWidget:
 1349              	.LFB52:
1259:.\Generated_Source\PSoC4/CapSense_1_CSHL.c **** 
1260:.\Generated_Source\PSoC4/CapSense_1_CSHL.c **** 
1261:.\Generated_Source\PSoC4/CapSense_1_CSHL.c **** /*******************************************************************************
1262:.\Generated_Source\PSoC4/CapSense_1_CSHL.c **** * Function Name: CapSense_1_EnableWidget
1263:.\Generated_Source\PSoC4/CapSense_1_CSHL.c **** ********************************************************************************
1264:.\Generated_Source\PSoC4/CapSense_1_CSHL.c **** *
1265:.\Generated_Source\PSoC4/CapSense_1_CSHL.c **** * Summary:
1266:.\Generated_Source\PSoC4/CapSense_1_CSHL.c **** *  Enables all the widget elements (sensors) to the scanning process.
1267:.\Generated_Source\PSoC4/CapSense_1_CSHL.c **** *
1268:.\Generated_Source\PSoC4/CapSense_1_CSHL.c **** * Parameters:
1269:.\Generated_Source\PSoC4/CapSense_1_CSHL.c **** *  widget:  widget number.
1270:.\Generated_Source\PSoC4/CapSense_1_CSHL.c **** *
1271:.\Generated_Source\PSoC4/CapSense_1_CSHL.c **** * Return:
1272:.\Generated_Source\PSoC4/CapSense_1_CSHL.c **** *  None
1273:.\Generated_Source\PSoC4/CapSense_1_CSHL.c **** *
1274:.\Generated_Source\PSoC4/CapSense_1_CSHL.c **** * Global Variables:
1275:.\Generated_Source\PSoC4/CapSense_1_CSHL.c **** *  CapSense_1_sensorEnableMask[] - used to store the sensor scanning 
1276:.\Generated_Source\PSoC4/CapSense_1_CSHL.c **** *  state.
1277:.\Generated_Source\PSoC4/CapSense_1_CSHL.c **** *  CapSense_1_sensorEnableMask[0] contains the masked bits for sensors 
1278:.\Generated_Source\PSoC4/CapSense_1_CSHL.c **** *  0 through 7 (sensor 0 is bit 0, sensor 1 is bit 1).
1279:.\Generated_Source\PSoC4/CapSense_1_CSHL.c **** *  CapSense_1_sensorEnableMask[1] contains the masked bits for 
1280:.\Generated_Source\PSoC4/CapSense_1_CSHL.c **** *  sensors 8 through 15 (if needed), and so on.
1281:.\Generated_Source\PSoC4/CapSense_1_CSHL.c **** *  0 - sensor doesn't scan by CapSense_1_ScanEnabledWidgets().
1282:.\Generated_Source\PSoC4/CapSense_1_CSHL.c **** *  1 - sensor scans by CapSense_1_ScanEnabledWidgets().
1283:.\Generated_Source\PSoC4/CapSense_1_CSHL.c **** * 
1284:.\Generated_Source\PSoC4/CapSense_1_CSHL.c **** * Side Effects:
1285:.\Generated_Source\PSoC4/CapSense_1_CSHL.c **** *  None
1286:.\Generated_Source\PSoC4/CapSense_1_CSHL.c **** *
1287:.\Generated_Source\PSoC4/CapSense_1_CSHL.c **** *******************************************************************************/
1288:.\Generated_Source\PSoC4/CapSense_1_CSHL.c **** void CapSense_1_EnableWidget(uint32 widget)
1289:.\Generated_Source\PSoC4/CapSense_1_CSHL.c **** {
 1350              		.loc 1 1289 0
 1351              		.cfi_startproc
 1352 0000 80B5     		push	{r7, lr}
 1353              		.cfi_def_cfa_offset 8
 1354              		.cfi_offset 7, -8
 1355              		.cfi_offset 14, -4
 1356 0002 84B0     		sub	sp, sp, #16
 1357              		.cfi_def_cfa_offset 24
 1358 0004 00AF     		add	r7, sp, #0
 1359              		.cfi_def_cfa_register 7
 1360 0006 7860     		str	r0, [r7, #4]
1290:.\Generated_Source\PSoC4/CapSense_1_CSHL.c **** 
1291:.\Generated_Source\PSoC4/CapSense_1_CSHL.c ****     uint8 rawIndex = CapSense_1_rawDataIndex[widget];
 1361              		.loc 1 1291 0
 1362 0008 3B1C     		mov	r3, r7
 1363 000a 0F33     		add	r3, r3, #15
 1364 000c 0022     		mov	r2, #0
 1365 000e 1A70     		strb	r2, [r3]
1292:.\Generated_Source\PSoC4/CapSense_1_CSHL.c ****     uint8 numOfSensors = CapSense_1_numberOfSensors[widget] + rawIndex;
 1366              		.loc 1 1292 0
 1367 0010 0521     		mov	r1, #5
 1368 0012 3B1C     		mov	r3, r7
 1369 0014 0E33     		add	r3, r3, #14
ARM GAS  C:\Users\mitchell\AppData\Local\Temp\cclqk7v6.s 			page 48


 1370 0016 3A1C     		mov	r2, r7
 1371 0018 0F32     		add	r2, r2, #15
 1372 001a 1278     		ldrb	r2, [r2]
 1373 001c 8A18     		add	r2, r1, r2
 1374 001e 1A70     		strb	r2, [r3]
 1375              	.L86:
1293:.\Generated_Source\PSoC4/CapSense_1_CSHL.c ****     
1294:.\Generated_Source\PSoC4/CapSense_1_CSHL.c ****     /* Enable all sensors of widget */
1295:.\Generated_Source\PSoC4/CapSense_1_CSHL.c ****     do
1296:.\Generated_Source\PSoC4/CapSense_1_CSHL.c ****     {
1297:.\Generated_Source\PSoC4/CapSense_1_CSHL.c ****         CapSense_1_SetBitValue(CapSense_1_sensorEnableMask, (uint32)rawIndex, 1u);
 1376              		.loc 1 1297 0 discriminator 1
 1377 0020 3B1C     		mov	r3, r7
 1378 0022 0F33     		add	r3, r3, #15
 1379 0024 1B78     		ldrb	r3, [r3]
 1380 0026 0C4A     		ldr	r2, .L87
 1381 0028 101C     		mov	r0, r2
 1382 002a 191C     		mov	r1, r3
 1383 002c 0122     		mov	r2, #1
 1384 002e FFF7FEFF 		bl	CapSense_1_SetBitValue
1298:.\Generated_Source\PSoC4/CapSense_1_CSHL.c ****         rawIndex++;
 1385              		.loc 1 1298 0 discriminator 1
 1386 0032 3B1C     		mov	r3, r7
 1387 0034 0F33     		add	r3, r3, #15
 1388 0036 1A78     		ldrb	r2, [r3]
 1389 0038 3B1C     		mov	r3, r7
 1390 003a 0F33     		add	r3, r3, #15
 1391 003c 0132     		add	r2, r2, #1
 1392 003e 1A70     		strb	r2, [r3]
1299:.\Generated_Source\PSoC4/CapSense_1_CSHL.c ****     }
1300:.\Generated_Source\PSoC4/CapSense_1_CSHL.c ****     while(rawIndex < numOfSensors);
 1393              		.loc 1 1300 0 discriminator 1
 1394 0040 3A1C     		mov	r2, r7
 1395 0042 0F32     		add	r2, r2, #15
 1396 0044 3B1C     		mov	r3, r7
 1397 0046 0E33     		add	r3, r3, #14
 1398 0048 1278     		ldrb	r2, [r2]
 1399 004a 1B78     		ldrb	r3, [r3]
 1400 004c 9A42     		cmp	r2, r3
 1401 004e E7D3     		bcc	.L86
1301:.\Generated_Source\PSoC4/CapSense_1_CSHL.c **** }
 1402              		.loc 1 1301 0
 1403 0050 BD46     		mov	sp, r7
 1404 0052 04B0     		add	sp, sp, #16
 1405              		@ sp needed
 1406 0054 80BD     		pop	{r7, pc}
 1407              	.L88:
 1408 0056 C046     		.align	2
 1409              	.L87:
 1410 0058 00000000 		.word	CapSense_1_sensorEnableMask
 1411              		.cfi_endproc
 1412              	.LFE52:
 1413              		.size	CapSense_1_EnableWidget, .-CapSense_1_EnableWidget
 1414              		.section	.text.CapSense_1_DisableWidget,"ax",%progbits
 1415              		.align	2
 1416              		.global	CapSense_1_DisableWidget
 1417              		.code	16
ARM GAS  C:\Users\mitchell\AppData\Local\Temp\cclqk7v6.s 			page 49


 1418              		.thumb_func
 1419              		.type	CapSense_1_DisableWidget, %function
 1420              	CapSense_1_DisableWidget:
 1421              	.LFB53:
1302:.\Generated_Source\PSoC4/CapSense_1_CSHL.c **** 
1303:.\Generated_Source\PSoC4/CapSense_1_CSHL.c **** 
1304:.\Generated_Source\PSoC4/CapSense_1_CSHL.c **** /*******************************************************************************
1305:.\Generated_Source\PSoC4/CapSense_1_CSHL.c **** * Function Name: CapSense_1_DisableWidget
1306:.\Generated_Source\PSoC4/CapSense_1_CSHL.c **** ********************************************************************************
1307:.\Generated_Source\PSoC4/CapSense_1_CSHL.c **** *
1308:.\Generated_Source\PSoC4/CapSense_1_CSHL.c **** * Summary:
1309:.\Generated_Source\PSoC4/CapSense_1_CSHL.c **** *  Disables all the widget elements (sensors) from the scanning process.
1310:.\Generated_Source\PSoC4/CapSense_1_CSHL.c **** *
1311:.\Generated_Source\PSoC4/CapSense_1_CSHL.c **** * Parameters:
1312:.\Generated_Source\PSoC4/CapSense_1_CSHL.c **** *  widget:  widget number.
1313:.\Generated_Source\PSoC4/CapSense_1_CSHL.c **** *
1314:.\Generated_Source\PSoC4/CapSense_1_CSHL.c **** * Return:
1315:.\Generated_Source\PSoC4/CapSense_1_CSHL.c **** *  None
1316:.\Generated_Source\PSoC4/CapSense_1_CSHL.c **** *
1317:.\Generated_Source\PSoC4/CapSense_1_CSHL.c **** * Global Variables:
1318:.\Generated_Source\PSoC4/CapSense_1_CSHL.c **** *  CapSense_1_sensorEnableMask[] - used to store the sensor scanning 
1319:.\Generated_Source\PSoC4/CapSense_1_CSHL.c **** *  state.
1320:.\Generated_Source\PSoC4/CapSense_1_CSHL.c **** *  CapSense_1_sensorEnableMask[0] contains the masked bits for sensors 
1321:.\Generated_Source\PSoC4/CapSense_1_CSHL.c **** *  0 through 7 (sensor 0 is bit 0, sensor 1 is bit 1).
1322:.\Generated_Source\PSoC4/CapSense_1_CSHL.c **** *  CapSense_1_sensorEnableMask[1] contains the masked bits for 
1323:.\Generated_Source\PSoC4/CapSense_1_CSHL.c **** *  sensors 8 through 15 (if needed), and so on.
1324:.\Generated_Source\PSoC4/CapSense_1_CSHL.c **** *  0 - sensor isn't scanned by CapSense_1_ScanEnabledWidgets().
1325:.\Generated_Source\PSoC4/CapSense_1_CSHL.c **** *  1 - sensor is scanned by CapSense_1_ScanEnabledWidgets().
1326:.\Generated_Source\PSoC4/CapSense_1_CSHL.c **** * 
1327:.\Generated_Source\PSoC4/CapSense_1_CSHL.c **** * Side Effects:
1328:.\Generated_Source\PSoC4/CapSense_1_CSHL.c **** *  None
1329:.\Generated_Source\PSoC4/CapSense_1_CSHL.c **** *
1330:.\Generated_Source\PSoC4/CapSense_1_CSHL.c **** *******************************************************************************/
1331:.\Generated_Source\PSoC4/CapSense_1_CSHL.c **** void CapSense_1_DisableWidget(uint32 widget)
1332:.\Generated_Source\PSoC4/CapSense_1_CSHL.c **** {
 1422              		.loc 1 1332 0
 1423              		.cfi_startproc
 1424 0000 80B5     		push	{r7, lr}
 1425              		.cfi_def_cfa_offset 8
 1426              		.cfi_offset 7, -8
 1427              		.cfi_offset 14, -4
 1428 0002 84B0     		sub	sp, sp, #16
 1429              		.cfi_def_cfa_offset 24
 1430 0004 00AF     		add	r7, sp, #0
 1431              		.cfi_def_cfa_register 7
 1432 0006 7860     		str	r0, [r7, #4]
1333:.\Generated_Source\PSoC4/CapSense_1_CSHL.c ****     uint8 rawIndex = CapSense_1_rawDataIndex[widget];
 1433              		.loc 1 1333 0
 1434 0008 3B1C     		mov	r3, r7
 1435 000a 0F33     		add	r3, r3, #15
 1436 000c 0022     		mov	r2, #0
 1437 000e 1A70     		strb	r2, [r3]
1334:.\Generated_Source\PSoC4/CapSense_1_CSHL.c ****     uint8 numOfSensors = CapSense_1_numberOfSensors[widget] + rawIndex;
 1438              		.loc 1 1334 0
 1439 0010 0521     		mov	r1, #5
 1440 0012 3B1C     		mov	r3, r7
 1441 0014 0E33     		add	r3, r3, #14
ARM GAS  C:\Users\mitchell\AppData\Local\Temp\cclqk7v6.s 			page 50


 1442 0016 3A1C     		mov	r2, r7
 1443 0018 0F32     		add	r2, r2, #15
 1444 001a 1278     		ldrb	r2, [r2]
 1445 001c 8A18     		add	r2, r1, r2
 1446 001e 1A70     		strb	r2, [r3]
 1447              	.L90:
1335:.\Generated_Source\PSoC4/CapSense_1_CSHL.c ****    
1336:.\Generated_Source\PSoC4/CapSense_1_CSHL.c ****     /* Disable all sensors of widget */
1337:.\Generated_Source\PSoC4/CapSense_1_CSHL.c ****     do
1338:.\Generated_Source\PSoC4/CapSense_1_CSHL.c ****     {
1339:.\Generated_Source\PSoC4/CapSense_1_CSHL.c **** 
1340:.\Generated_Source\PSoC4/CapSense_1_CSHL.c ****         CapSense_1_SetBitValue(CapSense_1_sensorEnableMask, (uint32)rawIndex, 0u);
 1448              		.loc 1 1340 0 discriminator 1
 1449 0020 3B1C     		mov	r3, r7
 1450 0022 0F33     		add	r3, r3, #15
 1451 0024 1B78     		ldrb	r3, [r3]
 1452 0026 0C4A     		ldr	r2, .L91
 1453 0028 101C     		mov	r0, r2
 1454 002a 191C     		mov	r1, r3
 1455 002c 0022     		mov	r2, #0
 1456 002e FFF7FEFF 		bl	CapSense_1_SetBitValue
1341:.\Generated_Source\PSoC4/CapSense_1_CSHL.c ****         rawIndex++;
 1457              		.loc 1 1341 0 discriminator 1
 1458 0032 3B1C     		mov	r3, r7
 1459 0034 0F33     		add	r3, r3, #15
 1460 0036 1A78     		ldrb	r2, [r3]
 1461 0038 3B1C     		mov	r3, r7
 1462 003a 0F33     		add	r3, r3, #15
 1463 003c 0132     		add	r2, r2, #1
 1464 003e 1A70     		strb	r2, [r3]
1342:.\Generated_Source\PSoC4/CapSense_1_CSHL.c ****     }
1343:.\Generated_Source\PSoC4/CapSense_1_CSHL.c ****     while(rawIndex < numOfSensors);
 1465              		.loc 1 1343 0 discriminator 1
 1466 0040 3A1C     		mov	r2, r7
 1467 0042 0F32     		add	r2, r2, #15
 1468 0044 3B1C     		mov	r3, r7
 1469 0046 0E33     		add	r3, r3, #14
 1470 0048 1278     		ldrb	r2, [r2]
 1471 004a 1B78     		ldrb	r3, [r3]
 1472 004c 9A42     		cmp	r2, r3
 1473 004e E7D3     		bcc	.L90
1344:.\Generated_Source\PSoC4/CapSense_1_CSHL.c **** }
 1474              		.loc 1 1344 0
 1475 0050 BD46     		mov	sp, r7
 1476 0052 04B0     		add	sp, sp, #16
 1477              		@ sp needed
 1478 0054 80BD     		pop	{r7, pc}
 1479              	.L92:
 1480 0056 C046     		.align	2
 1481              	.L91:
 1482 0058 00000000 		.word	CapSense_1_sensorEnableMask
 1483              		.cfi_endproc
 1484              	.LFE53:
 1485              		.size	CapSense_1_DisableWidget, .-CapSense_1_DisableWidget
 1486              		.section	.text.CapSense_1_FindMaximum,"ax",%progbits
 1487              		.align	2
 1488              		.global	CapSense_1_FindMaximum
ARM GAS  C:\Users\mitchell\AppData\Local\Temp\cclqk7v6.s 			page 51


 1489              		.code	16
 1490              		.thumb_func
 1491              		.type	CapSense_1_FindMaximum, %function
 1492              	CapSense_1_FindMaximum:
 1493              	.LFB54:
1345:.\Generated_Source\PSoC4/CapSense_1_CSHL.c **** 
1346:.\Generated_Source\PSoC4/CapSense_1_CSHL.c **** 
1347:.\Generated_Source\PSoC4/CapSense_1_CSHL.c **** #if(CapSense_1_TOTAL_CENTROIDS_BASIC_COUNT)
1348:.\Generated_Source\PSoC4/CapSense_1_CSHL.c ****     /*******************************************************************************
1349:.\Generated_Source\PSoC4/CapSense_1_CSHL.c ****     * Function Name: CapSense_1_FindMaximum
1350:.\Generated_Source\PSoC4/CapSense_1_CSHL.c ****     ********************************************************************************
1351:.\Generated_Source\PSoC4/CapSense_1_CSHL.c ****     *
1352:.\Generated_Source\PSoC4/CapSense_1_CSHL.c ****     * Summary:
1353:.\Generated_Source\PSoC4/CapSense_1_CSHL.c ****     *  Finds the index of the maximum element within a defined centroid. Checks 
1354:.\Generated_Source\PSoC4/CapSense_1_CSHL.c ****     *  CapSense_1_sensorSignal[] within a defined centroid and 
1355:.\Generated_Source\PSoC4/CapSense_1_CSHL.c ****     *  returns the index of the maximum element. The values below the finger threshold are 
1356:.\Generated_Source\PSoC4/CapSense_1_CSHL.c ****     *  ignored.
1357:.\Generated_Source\PSoC4/CapSense_1_CSHL.c ****     *  The centroid is defined by offset of the first element and a number of elements - count.
1358:.\Generated_Source\PSoC4/CapSense_1_CSHL.c ****     *  The diplexed centroid requires at least two consecutive elements above
1359:.\Generated_Source\PSoC4/CapSense_1_CSHL.c ****     *  FingerThreshold to find the index of the maximum element.
1360:.\Generated_Source\PSoC4/CapSense_1_CSHL.c ****     * 
1361:.\Generated_Source\PSoC4/CapSense_1_CSHL.c ****     * Parameters:
1362:.\Generated_Source\PSoC4/CapSense_1_CSHL.c ****     *  offset:  Start index of centroid in CapSense_1_sensorSignal[] array.
1363:.\Generated_Source\PSoC4/CapSense_1_CSHL.c ****     *  count:   number of elements within centroid.
1364:.\Generated_Source\PSoC4/CapSense_1_CSHL.c ****     *  fingerThreshold:  Finger threshold.
1365:.\Generated_Source\PSoC4/CapSense_1_CSHL.c ****     *  diplex:   pointer to diplex table.
1366:.\Generated_Source\PSoC4/CapSense_1_CSHL.c ****     * 
1367:.\Generated_Source\PSoC4/CapSense_1_CSHL.c ****     * Return:
1368:.\Generated_Source\PSoC4/CapSense_1_CSHL.c ****     *  Returns the index of the maximum element within a defined centroid.
1369:.\Generated_Source\PSoC4/CapSense_1_CSHL.c ****     *  If the index of the maximum element isn't found it returns 0xFF.
1370:.\Generated_Source\PSoC4/CapSense_1_CSHL.c **** 	*
1371:.\Generated_Source\PSoC4/CapSense_1_CSHL.c **** 	* Global Variables:
1372:.\Generated_Source\PSoC4/CapSense_1_CSHL.c **** 	*  CapSense_1_startOfSlider[] - contains the index of the first slider element
1373:.\Generated_Source\PSoC4/CapSense_1_CSHL.c **** 	* 
1374:.\Generated_Source\PSoC4/CapSense_1_CSHL.c **** 	* Side Effects: 
1375:.\Generated_Source\PSoC4/CapSense_1_CSHL.c **** 	*  None
1376:.\Generated_Source\PSoC4/CapSense_1_CSHL.c **** 	* 
1377:.\Generated_Source\PSoC4/CapSense_1_CSHL.c ****     *******************************************************************************/
1378:.\Generated_Source\PSoC4/CapSense_1_CSHL.c **** 	#if (CapSense_1_IS_DIPLEX_SLIDER)
1379:.\Generated_Source\PSoC4/CapSense_1_CSHL.c **** 		uint8 CapSense_1_FindMaximum(uint8 offset, uint8 count, uint8 fingerThreshold, const uint8 *diple
1380:.\Generated_Source\PSoC4/CapSense_1_CSHL.c **** 	#else 
1381:.\Generated_Source\PSoC4/CapSense_1_CSHL.c **** 		uint8 CapSense_1_FindMaximum(uint8 offset, uint8 count, uint8 fingerThreshold)
1382:.\Generated_Source\PSoC4/CapSense_1_CSHL.c **** 	#endif /* (CapSense_1_IS_DIPLEX_SLIDER) */
1383:.\Generated_Source\PSoC4/CapSense_1_CSHL.c ****     {
 1494              		.loc 1 1383 0
 1495              		.cfi_startproc
 1496 0000 80B5     		push	{r7, lr}
 1497              		.cfi_def_cfa_offset 8
 1498              		.cfi_offset 7, -8
 1499              		.cfi_offset 14, -4
 1500 0002 84B0     		sub	sp, sp, #16
 1501              		.cfi_def_cfa_offset 24
 1502 0004 00AF     		add	r7, sp, #0
 1503              		.cfi_def_cfa_register 7
 1504 0006 FB1D     		add	r3, r7, #7
 1505 0008 1870     		strb	r0, [r3]
 1506 000a BB1D     		add	r3, r7, #6
ARM GAS  C:\Users\mitchell\AppData\Local\Temp\cclqk7v6.s 			page 52


 1507 000c 1970     		strb	r1, [r3]
 1508 000e 7B1D     		add	r3, r7, #5
 1509 0010 1A70     		strb	r2, [r3]
1384:.\Generated_Source\PSoC4/CapSense_1_CSHL.c ****         uint8 i;
1385:.\Generated_Source\PSoC4/CapSense_1_CSHL.c ****         #if (CapSense_1_IS_DIPLEX_SLIDER)        
1386:.\Generated_Source\PSoC4/CapSense_1_CSHL.c ****             uint8 curPos = 0u;
1387:.\Generated_Source\PSoC4/CapSense_1_CSHL.c ****             /* No centroid at Start */
1388:.\Generated_Source\PSoC4/CapSense_1_CSHL.c ****             uint8 curCntrdSize = 0u;
1389:.\Generated_Source\PSoC4/CapSense_1_CSHL.c ****             uint8 curCtrdStartPos = CapSense_1_MAXIMUM_CENTROID;
1390:.\Generated_Source\PSoC4/CapSense_1_CSHL.c ****             /* Biggest centroid is zero */
1391:.\Generated_Source\PSoC4/CapSense_1_CSHL.c ****             uint8 biggestCtrdSize = 0u;
1392:.\Generated_Source\PSoC4/CapSense_1_CSHL.c ****             uint8 biggestCtrdStartPos = 0u;
1393:.\Generated_Source\PSoC4/CapSense_1_CSHL.c ****         #endif /* (CapSense_1_IS_DIPLEX_SLIDER) */
1394:.\Generated_Source\PSoC4/CapSense_1_CSHL.c ****         uint8 maximum = CapSense_1_MAXIMUM_CENTROID;
 1510              		.loc 1 1394 0
 1511 0012 3B1C     		mov	r3, r7
 1512 0014 0E33     		add	r3, r3, #14
 1513 0016 FF22     		mov	r2, #255
 1514 0018 1A70     		strb	r2, [r3]
1395:.\Generated_Source\PSoC4/CapSense_1_CSHL.c **** 		
1396:.\Generated_Source\PSoC4/CapSense_1_CSHL.c ****         uint8 temp = 0u;
 1515              		.loc 1 1396 0
 1516 001a 3B1C     		mov	r3, r7
 1517 001c 0D33     		add	r3, r3, #13
 1518 001e 0022     		mov	r2, #0
 1519 0020 1A70     		strb	r2, [r3]
1397:.\Generated_Source\PSoC4/CapSense_1_CSHL.c ****         uint8 *startOfSlider = &CapSense_1_sensorSignal[offset];
 1520              		.loc 1 1397 0
 1521 0022 FB1D     		add	r3, r7, #7
 1522 0024 1A78     		ldrb	r2, [r3]
 1523 0026 204B     		ldr	r3, .L98
 1524 0028 D318     		add	r3, r2, r3
 1525 002a BB60     		str	r3, [r7, #8]
1398:.\Generated_Source\PSoC4/CapSense_1_CSHL.c **** 
1399:.\Generated_Source\PSoC4/CapSense_1_CSHL.c ****         #if (CapSense_1_IS_DIPLEX_SLIDER)        
1400:.\Generated_Source\PSoC4/CapSense_1_CSHL.c ****             if(diplex != 0u)
1401:.\Generated_Source\PSoC4/CapSense_1_CSHL.c ****             {
1402:.\Generated_Source\PSoC4/CapSense_1_CSHL.c ****                 /* Initialize */
1403:.\Generated_Source\PSoC4/CapSense_1_CSHL.c ****                 i = 0u;
1404:.\Generated_Source\PSoC4/CapSense_1_CSHL.c ****                 
1405:.\Generated_Source\PSoC4/CapSense_1_CSHL.c ****                 /* Make slider x2 as Diplexed */
1406:.\Generated_Source\PSoC4/CapSense_1_CSHL.c ****                 count <<= 1u;
1407:.\Generated_Source\PSoC4/CapSense_1_CSHL.c ****                 while(1u)
1408:.\Generated_Source\PSoC4/CapSense_1_CSHL.c ****                 { 
1409:.\Generated_Source\PSoC4/CapSense_1_CSHL.c ****                     if (startOfSlider[curPos] > 0u)    /* Looking for centroids */
1410:.\Generated_Source\PSoC4/CapSense_1_CSHL.c ****                     {
1411:.\Generated_Source\PSoC4/CapSense_1_CSHL.c ****                         if (curCtrdStartPos == CapSense_1_MAXIMUM_CENTROID)
1412:.\Generated_Source\PSoC4/CapSense_1_CSHL.c ****                         {
1413:.\Generated_Source\PSoC4/CapSense_1_CSHL.c ****                             /* Start of centroid */
1414:.\Generated_Source\PSoC4/CapSense_1_CSHL.c ****                             curCtrdStartPos = i;
1415:.\Generated_Source\PSoC4/CapSense_1_CSHL.c ****                             curCntrdSize++;
1416:.\Generated_Source\PSoC4/CapSense_1_CSHL.c ****                         }
1417:.\Generated_Source\PSoC4/CapSense_1_CSHL.c ****                         else
1418:.\Generated_Source\PSoC4/CapSense_1_CSHL.c ****                         {
1419:.\Generated_Source\PSoC4/CapSense_1_CSHL.c ****                             curCntrdSize++;
1420:.\Generated_Source\PSoC4/CapSense_1_CSHL.c ****                         }
1421:.\Generated_Source\PSoC4/CapSense_1_CSHL.c ****                     }
ARM GAS  C:\Users\mitchell\AppData\Local\Temp\cclqk7v6.s 			page 53


1422:.\Generated_Source\PSoC4/CapSense_1_CSHL.c ****                     else   /* Select biggest and indicate zero start */
1423:.\Generated_Source\PSoC4/CapSense_1_CSHL.c ****                     {          
1424:.\Generated_Source\PSoC4/CapSense_1_CSHL.c ****                         if(curCntrdSize > 0u)
1425:.\Generated_Source\PSoC4/CapSense_1_CSHL.c ****                         {
1426:.\Generated_Source\PSoC4/CapSense_1_CSHL.c ****                             /* We are at the end of current */
1427:.\Generated_Source\PSoC4/CapSense_1_CSHL.c ****                             if(curCntrdSize > biggestCtrdSize)
1428:.\Generated_Source\PSoC4/CapSense_1_CSHL.c ****                             {
1429:.\Generated_Source\PSoC4/CapSense_1_CSHL.c ****                                 biggestCtrdSize = curCntrdSize;
1430:.\Generated_Source\PSoC4/CapSense_1_CSHL.c ****                                 biggestCtrdStartPos = curCtrdStartPos;
1431:.\Generated_Source\PSoC4/CapSense_1_CSHL.c ****                             }
1432:.\Generated_Source\PSoC4/CapSense_1_CSHL.c ****                             
1433:.\Generated_Source\PSoC4/CapSense_1_CSHL.c ****                             curCntrdSize = 0u;
1434:.\Generated_Source\PSoC4/CapSense_1_CSHL.c ****                             curCtrdStartPos = CapSense_1_MAXIMUM_CENTROID;
1435:.\Generated_Source\PSoC4/CapSense_1_CSHL.c ****                         }
1436:.\Generated_Source\PSoC4/CapSense_1_CSHL.c ****                     }
1437:.\Generated_Source\PSoC4/CapSense_1_CSHL.c ****                     
1438:.\Generated_Source\PSoC4/CapSense_1_CSHL.c ****                     i++; 
1439:.\Generated_Source\PSoC4/CapSense_1_CSHL.c ****                     curPos = diplex[i];
1440:.\Generated_Source\PSoC4/CapSense_1_CSHL.c ****                     if(i == count)
1441:.\Generated_Source\PSoC4/CapSense_1_CSHL.c ****                     {
1442:.\Generated_Source\PSoC4/CapSense_1_CSHL.c ****                         break;
1443:.\Generated_Source\PSoC4/CapSense_1_CSHL.c ****                     }            
1444:.\Generated_Source\PSoC4/CapSense_1_CSHL.c ****                 }
1445:.\Generated_Source\PSoC4/CapSense_1_CSHL.c ****                     
1446:.\Generated_Source\PSoC4/CapSense_1_CSHL.c ****                     /* Find biggest centroid if two are same size, last one wins
1447:.\Generated_Source\PSoC4/CapSense_1_CSHL.c ****                        We are at the end of current */
1448:.\Generated_Source\PSoC4/CapSense_1_CSHL.c ****                 if (curCntrdSize >= biggestCtrdSize) 
1449:.\Generated_Source\PSoC4/CapSense_1_CSHL.c ****                 {
1450:.\Generated_Source\PSoC4/CapSense_1_CSHL.c ****                     biggestCtrdSize = curCntrdSize;
1451:.\Generated_Source\PSoC4/CapSense_1_CSHL.c ****                     biggestCtrdStartPos = curCtrdStartPos;
1452:.\Generated_Source\PSoC4/CapSense_1_CSHL.c ****                 }
1453:.\Generated_Source\PSoC4/CapSense_1_CSHL.c ****             }
1454:.\Generated_Source\PSoC4/CapSense_1_CSHL.c ****             else
1455:.\Generated_Source\PSoC4/CapSense_1_CSHL.c ****             {
1456:.\Generated_Source\PSoC4/CapSense_1_CSHL.c ****                 /* Without diplexing */ 
1457:.\Generated_Source\PSoC4/CapSense_1_CSHL.c ****                 biggestCtrdSize = count;
1458:.\Generated_Source\PSoC4/CapSense_1_CSHL.c ****             }
1459:.\Generated_Source\PSoC4/CapSense_1_CSHL.c ****                         
1460:.\Generated_Source\PSoC4/CapSense_1_CSHL.c **** 
1461:.\Generated_Source\PSoC4/CapSense_1_CSHL.c ****             /* Check centroid size */
1462:.\Generated_Source\PSoC4/CapSense_1_CSHL.c ****             #if (CapSense_1_IS_NON_DIPLEX_SLIDER)
1463:.\Generated_Source\PSoC4/CapSense_1_CSHL.c ****                 if((biggestCtrdSize >= 2u) || ((biggestCtrdSize == 1u) && (diplex == 0u)))
1464:.\Generated_Source\PSoC4/CapSense_1_CSHL.c ****             #else                    
1465:.\Generated_Source\PSoC4/CapSense_1_CSHL.c ****                 if(biggestCtrdSize >= 2u)
1466:.\Generated_Source\PSoC4/CapSense_1_CSHL.c ****             #endif /* (CapSense_1_IS_NON_DIPLEX_SLIDER) */
1467:.\Generated_Source\PSoC4/CapSense_1_CSHL.c ****                 {
1468:.\Generated_Source\PSoC4/CapSense_1_CSHL.c ****                     for (i = biggestCtrdStartPos; i < (biggestCtrdStartPos + biggestCtrdSize); i++)
1469:.\Generated_Source\PSoC4/CapSense_1_CSHL.c ****                     {
1470:.\Generated_Source\PSoC4/CapSense_1_CSHL.c ****                         #if (CapSense_1_IS_DIPLEX_SLIDER && CapSense_1_IS_NON_DIPLEX_SLIDER)
1471:.\Generated_Source\PSoC4/CapSense_1_CSHL.c ****                             if (diplex == 0u)
1472:.\Generated_Source\PSoC4/CapSense_1_CSHL.c ****                             {
1473:.\Generated_Source\PSoC4/CapSense_1_CSHL.c ****                                 curPos = i;
1474:.\Generated_Source\PSoC4/CapSense_1_CSHL.c ****                             }
1475:.\Generated_Source\PSoC4/CapSense_1_CSHL.c ****                             else
1476:.\Generated_Source\PSoC4/CapSense_1_CSHL.c ****                             {
1477:.\Generated_Source\PSoC4/CapSense_1_CSHL.c ****                                 curPos = diplex[i];
1478:.\Generated_Source\PSoC4/CapSense_1_CSHL.c ****                             }                    
ARM GAS  C:\Users\mitchell\AppData\Local\Temp\cclqk7v6.s 			page 54


1479:.\Generated_Source\PSoC4/CapSense_1_CSHL.c ****                         #elif (CapSense_1_IS_DIPLEX_SLIDER)                    
1480:.\Generated_Source\PSoC4/CapSense_1_CSHL.c ****                             curPos = diplex[i];                    
1481:.\Generated_Source\PSoC4/CapSense_1_CSHL.c ****                         #endif /* (CapSense_1_IS_DIPLEX_SLIDER && CapSense_1_IS_NON_DIPLEX_SLIDER) 
1482:.\Generated_Source\PSoC4/CapSense_1_CSHL.c ****                         /* Looking for greater element within centroid */
1483:.\Generated_Source\PSoC4/CapSense_1_CSHL.c ****                         if(startOfSlider[curPos] > fingerThreshold)
1484:.\Generated_Source\PSoC4/CapSense_1_CSHL.c ****                         {
1485:.\Generated_Source\PSoC4/CapSense_1_CSHL.c ****                             if(startOfSlider[curPos] > temp)
1486:.\Generated_Source\PSoC4/CapSense_1_CSHL.c ****                             {
1487:.\Generated_Source\PSoC4/CapSense_1_CSHL.c ****                                 maximum = i;
1488:.\Generated_Source\PSoC4/CapSense_1_CSHL.c ****                                 temp = startOfSlider[curPos];
1489:.\Generated_Source\PSoC4/CapSense_1_CSHL.c ****                             }
1490:.\Generated_Source\PSoC4/CapSense_1_CSHL.c ****                         }
1491:.\Generated_Source\PSoC4/CapSense_1_CSHL.c ****                     }
1492:.\Generated_Source\PSoC4/CapSense_1_CSHL.c ****                 } 
1493:.\Generated_Source\PSoC4/CapSense_1_CSHL.c ****         #else
1494:.\Generated_Source\PSoC4/CapSense_1_CSHL.c ****             for (i = 0u; i < count; i++)
 1526              		.loc 1 1494 0
 1527 002c 3B1C     		mov	r3, r7
 1528 002e 0F33     		add	r3, r3, #15
 1529 0030 0022     		mov	r2, #0
 1530 0032 1A70     		strb	r2, [r3]
 1531 0034 2AE0     		b	.L94
 1532              	.L96:
1495:.\Generated_Source\PSoC4/CapSense_1_CSHL.c ****             {                      
1496:.\Generated_Source\PSoC4/CapSense_1_CSHL.c ****                 /* Looking for greater element within centroid */
1497:.\Generated_Source\PSoC4/CapSense_1_CSHL.c ****                 if(startOfSlider[i] > fingerThreshold)
 1533              		.loc 1 1497 0
 1534 0036 3B1C     		mov	r3, r7
 1535 0038 0F33     		add	r3, r3, #15
 1536 003a 1B78     		ldrb	r3, [r3]
 1537 003c BA68     		ldr	r2, [r7, #8]
 1538 003e D318     		add	r3, r2, r3
 1539 0040 1B78     		ldrb	r3, [r3]
 1540 0042 7A1D     		add	r2, r7, #5
 1541 0044 1278     		ldrb	r2, [r2]
 1542 0046 9A42     		cmp	r2, r3
 1543 0048 19D2     		bcs	.L95
1498:.\Generated_Source\PSoC4/CapSense_1_CSHL.c ****                 {
1499:.\Generated_Source\PSoC4/CapSense_1_CSHL.c ****                     if(startOfSlider[i] > temp)
 1544              		.loc 1 1499 0
 1545 004a 3B1C     		mov	r3, r7
 1546 004c 0F33     		add	r3, r3, #15
 1547 004e 1B78     		ldrb	r3, [r3]
 1548 0050 BA68     		ldr	r2, [r7, #8]
 1549 0052 D318     		add	r3, r2, r3
 1550 0054 1B78     		ldrb	r3, [r3]
 1551 0056 3A1C     		mov	r2, r7
 1552 0058 0D32     		add	r2, r2, #13
 1553 005a 1278     		ldrb	r2, [r2]
 1554 005c 9A42     		cmp	r2, r3
 1555 005e 0ED2     		bcs	.L95
1500:.\Generated_Source\PSoC4/CapSense_1_CSHL.c ****                     {
1501:.\Generated_Source\PSoC4/CapSense_1_CSHL.c ****                         maximum = i;
 1556              		.loc 1 1501 0
 1557 0060 3B1C     		mov	r3, r7
 1558 0062 0E33     		add	r3, r3, #14
 1559 0064 3A1C     		mov	r2, r7
ARM GAS  C:\Users\mitchell\AppData\Local\Temp\cclqk7v6.s 			page 55


 1560 0066 0F32     		add	r2, r2, #15
 1561 0068 1278     		ldrb	r2, [r2]
 1562 006a 1A70     		strb	r2, [r3]
1502:.\Generated_Source\PSoC4/CapSense_1_CSHL.c ****                         temp = startOfSlider[i];
 1563              		.loc 1 1502 0
 1564 006c 3B1C     		mov	r3, r7
 1565 006e 0F33     		add	r3, r3, #15
 1566 0070 1B78     		ldrb	r3, [r3]
 1567 0072 BA68     		ldr	r2, [r7, #8]
 1568 0074 D218     		add	r2, r2, r3
 1569 0076 3B1C     		mov	r3, r7
 1570 0078 0D33     		add	r3, r3, #13
 1571 007a 1278     		ldrb	r2, [r2]
 1572 007c 1A70     		strb	r2, [r3]
 1573              	.L95:
1494:.\Generated_Source\PSoC4/CapSense_1_CSHL.c ****             for (i = 0u; i < count; i++)
 1574              		.loc 1 1494 0
 1575 007e 3B1C     		mov	r3, r7
 1576 0080 0F33     		add	r3, r3, #15
 1577 0082 1A78     		ldrb	r2, [r3]
 1578 0084 3B1C     		mov	r3, r7
 1579 0086 0F33     		add	r3, r3, #15
 1580 0088 0132     		add	r2, r2, #1
 1581 008a 1A70     		strb	r2, [r3]
 1582              	.L94:
1494:.\Generated_Source\PSoC4/CapSense_1_CSHL.c ****             for (i = 0u; i < count; i++)
 1583              		.loc 1 1494 0 is_stmt 0 discriminator 1
 1584 008c 3A1C     		mov	r2, r7
 1585 008e 0F32     		add	r2, r2, #15
 1586 0090 BB1D     		add	r3, r7, #6
 1587 0092 1278     		ldrb	r2, [r2]
 1588 0094 1B78     		ldrb	r3, [r3]
 1589 0096 9A42     		cmp	r2, r3
 1590 0098 CDD3     		bcc	.L96
1503:.\Generated_Source\PSoC4/CapSense_1_CSHL.c ****                     }
1504:.\Generated_Source\PSoC4/CapSense_1_CSHL.c ****                 }
1505:.\Generated_Source\PSoC4/CapSense_1_CSHL.c ****             }    
1506:.\Generated_Source\PSoC4/CapSense_1_CSHL.c ****         #endif /* (CapSense_1_IS_DIPLEX_SLIDER) */
1507:.\Generated_Source\PSoC4/CapSense_1_CSHL.c ****         return (maximum);
 1591              		.loc 1 1507 0 is_stmt 1
 1592 009a 3B1C     		mov	r3, r7
 1593 009c 0E33     		add	r3, r3, #14
 1594 009e 1B78     		ldrb	r3, [r3]
1508:.\Generated_Source\PSoC4/CapSense_1_CSHL.c ****     }
 1595              		.loc 1 1508 0
 1596 00a0 181C     		mov	r0, r3
 1597 00a2 BD46     		mov	sp, r7
 1598 00a4 04B0     		add	sp, sp, #16
 1599              		@ sp needed
 1600 00a6 80BD     		pop	{r7, pc}
 1601              	.L99:
 1602              		.align	2
 1603              	.L98:
 1604 00a8 00000000 		.word	CapSense_1_sensorSignal
 1605              		.cfi_endproc
 1606              	.LFE54:
 1607              		.size	CapSense_1_FindMaximum, .-CapSense_1_FindMaximum
ARM GAS  C:\Users\mitchell\AppData\Local\Temp\cclqk7v6.s 			page 56


 1608              		.global	__aeabi_idiv
 1609              		.section	.text.CapSense_1_CalcCentroid,"ax",%progbits
 1610              		.align	2
 1611              		.global	CapSense_1_CalcCentroid
 1612              		.code	16
 1613              		.thumb_func
 1614              		.type	CapSense_1_CalcCentroid, %function
 1615              	CapSense_1_CalcCentroid:
 1616              	.LFB55:
1509:.\Generated_Source\PSoC4/CapSense_1_CSHL.c ****     
1510:.\Generated_Source\PSoC4/CapSense_1_CSHL.c ****     
1511:.\Generated_Source\PSoC4/CapSense_1_CSHL.c ****     /*******************************************************************************
1512:.\Generated_Source\PSoC4/CapSense_1_CSHL.c ****     * Function Name: CapSense_1_CalcCentroid
1513:.\Generated_Source\PSoC4/CapSense_1_CSHL.c ****     ********************************************************************************
1514:.\Generated_Source\PSoC4/CapSense_1_CSHL.c ****     *
1515:.\Generated_Source\PSoC4/CapSense_1_CSHL.c ****     * Summary:
1516:.\Generated_Source\PSoC4/CapSense_1_CSHL.c ****     *  Returns a position value calculated according to the index of the maximum element and API
1517:.\Generated_Source\PSoC4/CapSense_1_CSHL.c ****     *  resolution.
1518:.\Generated_Source\PSoC4/CapSense_1_CSHL.c ****     *
1519:.\Generated_Source\PSoC4/CapSense_1_CSHL.c ****     * Parameters:
1520:.\Generated_Source\PSoC4/CapSense_1_CSHL.c ****     *  type:  widget type.
1521:.\Generated_Source\PSoC4/CapSense_1_CSHL.c ****     *  diplex:  pointer to diplex table.
1522:.\Generated_Source\PSoC4/CapSense_1_CSHL.c ****     *  maximum:  Index of maximum element within centroid.
1523:.\Generated_Source\PSoC4/CapSense_1_CSHL.c ****     *  offset:   Start index of centroid in CapSense_1_sensorSignal[] array.
1524:.\Generated_Source\PSoC4/CapSense_1_CSHL.c ****     *  count:    Number of elements within centroid.
1525:.\Generated_Source\PSoC4/CapSense_1_CSHL.c ****     *  resolution:  multiplicator calculated according to centroid type and
1526:.\Generated_Source\PSoC4/CapSense_1_CSHL.c ****     *  API resolution.
1527:.\Generated_Source\PSoC4/CapSense_1_CSHL.c ****     *  noiseThreshold:  Noise threshold.
1528:.\Generated_Source\PSoC4/CapSense_1_CSHL.c ****     * 
1529:.\Generated_Source\PSoC4/CapSense_1_CSHL.c ****     * Return:
1530:.\Generated_Source\PSoC4/CapSense_1_CSHL.c ****     *  Returns a position value of the slider.
1531:.\Generated_Source\PSoC4/CapSense_1_CSHL.c **** 	*
1532:.\Generated_Source\PSoC4/CapSense_1_CSHL.c **** 	* Side Effects: 
1533:.\Generated_Source\PSoC4/CapSense_1_CSHL.c **** 	*  None
1534:.\Generated_Source\PSoC4/CapSense_1_CSHL.c **** 	* 
1535:.\Generated_Source\PSoC4/CapSense_1_CSHL.c ****     *******************************************************************************/
1536:.\Generated_Source\PSoC4/CapSense_1_CSHL.c **** #if (CapSense_1_TOTAL_TRACKPAD_GESTURES_COUNT > 0u)
1537:.\Generated_Source\PSoC4/CapSense_1_CSHL.c ****     uint8 CapSense_1_CalcCentroid(uint8 maximum, uint8 offset, 
1538:.\Generated_Source\PSoC4/CapSense_1_CSHL.c ****                                         uint8 count, uint32 resolution, uint8 noiseThreshold)
1539:.\Generated_Source\PSoC4/CapSense_1_CSHL.c **** #else								
1540:.\Generated_Source\PSoC4/CapSense_1_CSHL.c ****     uint8 CapSense_1_CalcCentroid(uint8 maximum, uint8 offset, 
1541:.\Generated_Source\PSoC4/CapSense_1_CSHL.c ****                                         uint8 count, uint16 resolution, uint8 noiseThreshold)						
1542:.\Generated_Source\PSoC4/CapSense_1_CSHL.c **** #endif /* (CapSense_1_TOTAL_TRACKPAD_GESTURES_COUNT > 0u) */
1543:.\Generated_Source\PSoC4/CapSense_1_CSHL.c ****     {
 1617              		.loc 1 1543 0
 1618              		.cfi_startproc
 1619 0000 90B5     		push	{r4, r7, lr}
 1620              		.cfi_def_cfa_offset 12
 1621              		.cfi_offset 4, -12
 1622              		.cfi_offset 7, -8
 1623              		.cfi_offset 14, -4
 1624 0002 89B0     		sub	sp, sp, #36
 1625              		.cfi_def_cfa_offset 48
 1626 0004 00AF     		add	r7, sp, #0
 1627              		.cfi_def_cfa_register 7
 1628 0006 041C     		mov	r4, r0
 1629 0008 081C     		mov	r0, r1
ARM GAS  C:\Users\mitchell\AppData\Local\Temp\cclqk7v6.s 			page 57


 1630 000a 111C     		mov	r1, r2
 1631 000c 1A1C     		mov	r2, r3
 1632 000e FB1D     		add	r3, r7, #7
 1633 0010 1C70     		strb	r4, [r3]
 1634 0012 BB1D     		add	r3, r7, #6
 1635 0014 1870     		strb	r0, [r3]
 1636 0016 7B1D     		add	r3, r7, #5
 1637 0018 1970     		strb	r1, [r3]
 1638 001a BB1C     		add	r3, r7, #2
 1639 001c 1A80     		strh	r2, [r3]
1544:.\Generated_Source\PSoC4/CapSense_1_CSHL.c ****         #if ((CapSense_1_TOTAL_LINEAR_SLIDERS_COUNT > 0u) || (CapSense_1_TOTAL_TOUCH_PADS_BASIC_COU
1545:.\Generated_Source\PSoC4/CapSense_1_CSHL.c ****             uint8 posPrev;
1546:.\Generated_Source\PSoC4/CapSense_1_CSHL.c ****             uint8 posNext;
1547:.\Generated_Source\PSoC4/CapSense_1_CSHL.c ****         #endif /* ((CapSense_1_TOTAL_LINEAR_SLIDERS_COUNT>0u) || (CapSense_1_TOTAL_TOUCH_PADS_BASIC
1548:.\Generated_Source\PSoC4/CapSense_1_CSHL.c ****         
1549:.\Generated_Source\PSoC4/CapSense_1_CSHL.c ****         /* Helps during centroid calculation */
1550:.\Generated_Source\PSoC4/CapSense_1_CSHL.c ****         #if (CapSense_1_TOTAL_CENTROIDS_BASIC_COUNT)
1551:.\Generated_Source\PSoC4/CapSense_1_CSHL.c **** 		    static uint8 CapSense_1_centroid[3u];
1552:.\Generated_Source\PSoC4/CapSense_1_CSHL.c ****         #endif  /* (CapSense_1_TOTAL_CENTROIDS_BASIC_COUNT) */
1553:.\Generated_Source\PSoC4/CapSense_1_CSHL.c ****                
1554:.\Generated_Source\PSoC4/CapSense_1_CSHL.c ****         #if (CapSense_1_IS_DIPLEX_SLIDER)                
1555:.\Generated_Source\PSoC4/CapSense_1_CSHL.c ****             uint8 pos;
1556:.\Generated_Source\PSoC4/CapSense_1_CSHL.c ****         #endif /* (CapSense_1_IS_DIPLEX_SLIDER) */
1557:.\Generated_Source\PSoC4/CapSense_1_CSHL.c **** 
1558:.\Generated_Source\PSoC4/CapSense_1_CSHL.c ****         uint8 position;
1559:.\Generated_Source\PSoC4/CapSense_1_CSHL.c ****         uint32 numerator;
1560:.\Generated_Source\PSoC4/CapSense_1_CSHL.c ****         int32 denominator;
1561:.\Generated_Source\PSoC4/CapSense_1_CSHL.c **** 		
1562:.\Generated_Source\PSoC4/CapSense_1_CSHL.c **** 		uint8  *startOfSlider = &CapSense_1_sensorSignal[offset];
 1640              		.loc 1 1562 0
 1641 001e BB1D     		add	r3, r7, #6
 1642 0020 1A78     		ldrb	r2, [r3]
 1643 0022 5A4B     		ldr	r3, .L110
 1644 0024 D318     		add	r3, r2, r3
 1645 0026 BB61     		str	r3, [r7, #24]
1563:.\Generated_Source\PSoC4/CapSense_1_CSHL.c **** 		
1564:.\Generated_Source\PSoC4/CapSense_1_CSHL.c ****         #if ((CapSense_1_TOTAL_LINEAR_SLIDERS_COUNT > 0u) || (CapSense_1_TOTAL_TOUCH_PADS_BASIC_COU
1565:.\Generated_Source\PSoC4/CapSense_1_CSHL.c ****             posPrev = 0u;
 1646              		.loc 1 1565 0
 1647 0028 3B1C     		mov	r3, r7
 1648 002a 1F33     		add	r3, r3, #31
 1649 002c 0022     		mov	r2, #0
 1650 002e 1A70     		strb	r2, [r3]
1566:.\Generated_Source\PSoC4/CapSense_1_CSHL.c ****         #endif /* ((CapSense_1_TOTAL_LINEAR_SLIDERS_COUNT>0u) || (CapSense_1_TOTAL_TOUCH_PADS_BASIC
1567:.\Generated_Source\PSoC4/CapSense_1_CSHL.c ****      
1568:.\Generated_Source\PSoC4/CapSense_1_CSHL.c ****         #if (CapSense_1_ADD_SLIDER_TYPE)
1569:.\Generated_Source\PSoC4/CapSense_1_CSHL.c ****             if(type == CapSense_1_TYPE_RADIAL_SLIDER)
1570:.\Generated_Source\PSoC4/CapSense_1_CSHL.c ****             {
1571:.\Generated_Source\PSoC4/CapSense_1_CSHL.c ****         #endif /* (CapSense_1_ADD_SLIDER_TYPE) */
1572:.\Generated_Source\PSoC4/CapSense_1_CSHL.c **** 
1573:.\Generated_Source\PSoC4/CapSense_1_CSHL.c ****             #if (CapSense_1_TOTAL_RADIAL_SLIDERS_COUNT > 0u)                
1574:.\Generated_Source\PSoC4/CapSense_1_CSHL.c ****                 /* Copy Signal to the centroid array */
1575:.\Generated_Source\PSoC4/CapSense_1_CSHL.c ****                 CapSense_1_centroid[CapSense_1_POS] = startOfSlider[maximum];
1576:.\Generated_Source\PSoC4/CapSense_1_CSHL.c ****                  
1577:.\Generated_Source\PSoC4/CapSense_1_CSHL.c ****                 /* Check borders for ROTARY Slider */
1578:.\Generated_Source\PSoC4/CapSense_1_CSHL.c ****                 if (maximum == 0u)                   /* Start of centroid */
1579:.\Generated_Source\PSoC4/CapSense_1_CSHL.c ****                 { 
ARM GAS  C:\Users\mitchell\AppData\Local\Temp\cclqk7v6.s 			page 58


1580:.\Generated_Source\PSoC4/CapSense_1_CSHL.c ****                     CapSense_1_centroid[CapSense_1_POS_PREV] = startOfSlider[count - 1u];
1581:.\Generated_Source\PSoC4/CapSense_1_CSHL.c ****                     CapSense_1_centroid[CapSense_1_POS_NEXT] = startOfSlider[1u];
1582:.\Generated_Source\PSoC4/CapSense_1_CSHL.c ****                 }
1583:.\Generated_Source\PSoC4/CapSense_1_CSHL.c ****                 else if (maximum == (count - 1u))    /* End of centroid */
1584:.\Generated_Source\PSoC4/CapSense_1_CSHL.c ****                 {
1585:.\Generated_Source\PSoC4/CapSense_1_CSHL.c ****                     CapSense_1_centroid[CapSense_1_POS_PREV] = startOfSlider[maximum - 1u];
1586:.\Generated_Source\PSoC4/CapSense_1_CSHL.c ****                     CapSense_1_centroid[CapSense_1_POS_NEXT] = startOfSlider[0u];
1587:.\Generated_Source\PSoC4/CapSense_1_CSHL.c ****                 }
1588:.\Generated_Source\PSoC4/CapSense_1_CSHL.c ****                 else                                /* Not first Not last */
1589:.\Generated_Source\PSoC4/CapSense_1_CSHL.c ****                 {
1590:.\Generated_Source\PSoC4/CapSense_1_CSHL.c ****                     CapSense_1_centroid[CapSense_1_POS_PREV] = startOfSlider[maximum - 1u];
1591:.\Generated_Source\PSoC4/CapSense_1_CSHL.c ****                     CapSense_1_centroid[CapSense_1_POS_NEXT] = startOfSlider[maximum + 1u];
1592:.\Generated_Source\PSoC4/CapSense_1_CSHL.c ****                 }
1593:.\Generated_Source\PSoC4/CapSense_1_CSHL.c ****             #endif /* (CapSense_1_TOTAL_RADIAL_SLIDERS_COUNT > 0u) */
1594:.\Generated_Source\PSoC4/CapSense_1_CSHL.c **** 
1595:.\Generated_Source\PSoC4/CapSense_1_CSHL.c ****         #if (CapSense_1_ADD_SLIDER_TYPE)
1596:.\Generated_Source\PSoC4/CapSense_1_CSHL.c ****             }
1597:.\Generated_Source\PSoC4/CapSense_1_CSHL.c ****             else
1598:.\Generated_Source\PSoC4/CapSense_1_CSHL.c ****             {
1599:.\Generated_Source\PSoC4/CapSense_1_CSHL.c ****         #endif /* (CapSense_1_ADD_SLIDER_TYPE) */
1600:.\Generated_Source\PSoC4/CapSense_1_CSHL.c **** 
1601:.\Generated_Source\PSoC4/CapSense_1_CSHL.c ****             #if ((CapSense_1_TOTAL_LINEAR_SLIDERS_COUNT > 0u) || (CapSense_1_TOTAL_TOUCH_PADS_BASIC
1602:.\Generated_Source\PSoC4/CapSense_1_CSHL.c ****                 #if (CapSense_1_IS_DIPLEX_SLIDER && CapSense_1_IS_NON_DIPLEX_SLIDER)               
1603:.\Generated_Source\PSoC4/CapSense_1_CSHL.c ****                     /* Calculate next and previous near to maximum */
1604:.\Generated_Source\PSoC4/CapSense_1_CSHL.c ****                     if(diplex == 0u)
1605:.\Generated_Source\PSoC4/CapSense_1_CSHL.c ****                     {
1606:.\Generated_Source\PSoC4/CapSense_1_CSHL.c ****                         pos     = maximum;
1607:.\Generated_Source\PSoC4/CapSense_1_CSHL.c ****                         posPrev = maximum - 1u;
1608:.\Generated_Source\PSoC4/CapSense_1_CSHL.c ****                         posNext = maximum + 1u; 
1609:.\Generated_Source\PSoC4/CapSense_1_CSHL.c ****                     }
1610:.\Generated_Source\PSoC4/CapSense_1_CSHL.c ****                     else
1611:.\Generated_Source\PSoC4/CapSense_1_CSHL.c ****                     {
1612:.\Generated_Source\PSoC4/CapSense_1_CSHL.c ****                         pos     = diplex[maximum];
1613:.\Generated_Source\PSoC4/CapSense_1_CSHL.c ****                         posPrev = diplex[maximum - 1u];
1614:.\Generated_Source\PSoC4/CapSense_1_CSHL.c ****                         posNext = diplex[maximum + 1u];
1615:.\Generated_Source\PSoC4/CapSense_1_CSHL.c ****                         count <<= 1u;
1616:.\Generated_Source\PSoC4/CapSense_1_CSHL.c ****                     }                    
1617:.\Generated_Source\PSoC4/CapSense_1_CSHL.c ****                 #elif (CapSense_1_IS_DIPLEX_SLIDER)
1618:.\Generated_Source\PSoC4/CapSense_1_CSHL.c ****                     /* Calculate next and previous near to maximum */
1619:.\Generated_Source\PSoC4/CapSense_1_CSHL.c ****                     pos     = diplex[maximum];
1620:.\Generated_Source\PSoC4/CapSense_1_CSHL.c ****                     posPrev = diplex[maximum - 1u];
1621:.\Generated_Source\PSoC4/CapSense_1_CSHL.c ****                     posNext = diplex[maximum + 1u];
1622:.\Generated_Source\PSoC4/CapSense_1_CSHL.c ****                     count <<= 1u;                    
1623:.\Generated_Source\PSoC4/CapSense_1_CSHL.c ****                 #else                    
1624:.\Generated_Source\PSoC4/CapSense_1_CSHL.c ****                     /* Calculate next and previous near to maximum */
1625:.\Generated_Source\PSoC4/CapSense_1_CSHL.c ****                     if (maximum >= 1u)
 1651              		.loc 1 1625 0
 1652 0030 FB1D     		add	r3, r7, #7
 1653 0032 1B78     		ldrb	r3, [r3]
 1654 0034 002B     		cmp	r3, #0
 1655 0036 05D0     		beq	.L101
1626:.\Generated_Source\PSoC4/CapSense_1_CSHL.c ****                     {
1627:.\Generated_Source\PSoC4/CapSense_1_CSHL.c ****                         posPrev = maximum - 1u;
 1656              		.loc 1 1627 0
 1657 0038 3B1C     		mov	r3, r7
 1658 003a 1F33     		add	r3, r3, #31
 1659 003c FA1D     		add	r2, r7, #7
ARM GAS  C:\Users\mitchell\AppData\Local\Temp\cclqk7v6.s 			page 59


 1660 003e 1278     		ldrb	r2, [r2]
 1661 0040 013A     		sub	r2, r2, #1
 1662 0042 1A70     		strb	r2, [r3]
 1663              	.L101:
1628:.\Generated_Source\PSoC4/CapSense_1_CSHL.c ****                     }
1629:.\Generated_Source\PSoC4/CapSense_1_CSHL.c ****                     posNext = maximum + 1u;
 1664              		.loc 1 1629 0
 1665 0044 3B1C     		mov	r3, r7
 1666 0046 1733     		add	r3, r3, #23
 1667 0048 FA1D     		add	r2, r7, #7
 1668 004a 1278     		ldrb	r2, [r2]
 1669 004c 0132     		add	r2, r2, #1
 1670 004e 1A70     		strb	r2, [r3]
1630:.\Generated_Source\PSoC4/CapSense_1_CSHL.c ****                 #endif /* (CapSense_1_IS_DIPLEX_SLIDER && CapSense_1_IS_NON_DIPLEX_SLIDER) */
1631:.\Generated_Source\PSoC4/CapSense_1_CSHL.c ****                         
1632:.\Generated_Source\PSoC4/CapSense_1_CSHL.c ****                 /* Copy Signal to the centroid array */
1633:.\Generated_Source\PSoC4/CapSense_1_CSHL.c ****                 #if (CapSense_1_IS_DIPLEX_SLIDER)
1634:.\Generated_Source\PSoC4/CapSense_1_CSHL.c ****                     CapSense_1_centroid[CapSense_1_POS] = startOfSlider[pos];
1635:.\Generated_Source\PSoC4/CapSense_1_CSHL.c ****                 #else
1636:.\Generated_Source\PSoC4/CapSense_1_CSHL.c ****                     CapSense_1_centroid[CapSense_1_POS] = startOfSlider[maximum];
 1671              		.loc 1 1636 0
 1672 0050 FB1D     		add	r3, r7, #7
 1673 0052 1B78     		ldrb	r3, [r3]
 1674 0054 BA69     		ldr	r2, [r7, #24]
 1675 0056 D318     		add	r3, r2, r3
 1676 0058 1A78     		ldrb	r2, [r3]
 1677 005a 4D4B     		ldr	r3, .L110+4
 1678 005c 5A70     		strb	r2, [r3, #1]
1637:.\Generated_Source\PSoC4/CapSense_1_CSHL.c ****                 #endif /* (CapSense_1_IS_DIPLEX_SLIDER) */
1638:.\Generated_Source\PSoC4/CapSense_1_CSHL.c ****                     
1639:.\Generated_Source\PSoC4/CapSense_1_CSHL.c ****                 /* Check borders for LINEAR Slider */
1640:.\Generated_Source\PSoC4/CapSense_1_CSHL.c ****                 if (maximum == 0u)                   /* Start of centroid */
 1679              		.loc 1 1640 0
 1680 005e FB1D     		add	r3, r7, #7
 1681 0060 1B78     		ldrb	r3, [r3]
 1682 0062 002B     		cmp	r3, #0
 1683 0064 0BD1     		bne	.L102
1641:.\Generated_Source\PSoC4/CapSense_1_CSHL.c ****                 { 
1642:.\Generated_Source\PSoC4/CapSense_1_CSHL.c ****                     CapSense_1_centroid[CapSense_1_POS_PREV] = 0u;
 1684              		.loc 1 1642 0
 1685 0066 4A4B     		ldr	r3, .L110+4
 1686 0068 0022     		mov	r2, #0
 1687 006a 1A70     		strb	r2, [r3]
1643:.\Generated_Source\PSoC4/CapSense_1_CSHL.c ****                     CapSense_1_centroid[CapSense_1_POS_NEXT] = startOfSlider[posNext];
 1688              		.loc 1 1643 0
 1689 006c 3B1C     		mov	r3, r7
 1690 006e 1733     		add	r3, r3, #23
 1691 0070 1B78     		ldrb	r3, [r3]
 1692 0072 BA69     		ldr	r2, [r7, #24]
 1693 0074 D318     		add	r3, r2, r3
 1694 0076 1A78     		ldrb	r2, [r3]
 1695 0078 454B     		ldr	r3, .L110+4
 1696 007a 9A70     		strb	r2, [r3, #2]
 1697 007c 22E0     		b	.L103
 1698              	.L102:
1644:.\Generated_Source\PSoC4/CapSense_1_CSHL.c ****                 }
1645:.\Generated_Source\PSoC4/CapSense_1_CSHL.c ****                 else if (maximum == ((count) - 1u)) /* End of centroid */
ARM GAS  C:\Users\mitchell\AppData\Local\Temp\cclqk7v6.s 			page 60


 1699              		.loc 1 1645 0
 1700 007e FB1D     		add	r3, r7, #7
 1701 0080 1A78     		ldrb	r2, [r3]
 1702 0082 7B1D     		add	r3, r7, #5
 1703 0084 1B78     		ldrb	r3, [r3]
 1704 0086 013B     		sub	r3, r3, #1
 1705 0088 9A42     		cmp	r2, r3
 1706 008a 0BD1     		bne	.L104
1646:.\Generated_Source\PSoC4/CapSense_1_CSHL.c ****                 {
1647:.\Generated_Source\PSoC4/CapSense_1_CSHL.c ****                     CapSense_1_centroid[CapSense_1_POS_PREV] = startOfSlider[posPrev];
 1707              		.loc 1 1647 0
 1708 008c 3B1C     		mov	r3, r7
 1709 008e 1F33     		add	r3, r3, #31
 1710 0090 1B78     		ldrb	r3, [r3]
 1711 0092 BA69     		ldr	r2, [r7, #24]
 1712 0094 D318     		add	r3, r2, r3
 1713 0096 1A78     		ldrb	r2, [r3]
 1714 0098 3D4B     		ldr	r3, .L110+4
 1715 009a 1A70     		strb	r2, [r3]
1648:.\Generated_Source\PSoC4/CapSense_1_CSHL.c ****                     CapSense_1_centroid[CapSense_1_POS_NEXT] = 0u;
 1716              		.loc 1 1648 0
 1717 009c 3C4B     		ldr	r3, .L110+4
 1718 009e 0022     		mov	r2, #0
 1719 00a0 9A70     		strb	r2, [r3, #2]
 1720 00a2 0FE0     		b	.L103
 1721              	.L104:
1649:.\Generated_Source\PSoC4/CapSense_1_CSHL.c ****                 }
1650:.\Generated_Source\PSoC4/CapSense_1_CSHL.c ****                 else                                /* Not first Not last */
1651:.\Generated_Source\PSoC4/CapSense_1_CSHL.c ****                 {
1652:.\Generated_Source\PSoC4/CapSense_1_CSHL.c ****                     CapSense_1_centroid[CapSense_1_POS_PREV] = startOfSlider[posPrev];
 1722              		.loc 1 1652 0
 1723 00a4 3B1C     		mov	r3, r7
 1724 00a6 1F33     		add	r3, r3, #31
 1725 00a8 1B78     		ldrb	r3, [r3]
 1726 00aa BA69     		ldr	r2, [r7, #24]
 1727 00ac D318     		add	r3, r2, r3
 1728 00ae 1A78     		ldrb	r2, [r3]
 1729 00b0 374B     		ldr	r3, .L110+4
 1730 00b2 1A70     		strb	r2, [r3]
1653:.\Generated_Source\PSoC4/CapSense_1_CSHL.c ****                     CapSense_1_centroid[CapSense_1_POS_NEXT] = startOfSlider[posNext];
 1731              		.loc 1 1653 0
 1732 00b4 3B1C     		mov	r3, r7
 1733 00b6 1733     		add	r3, r3, #23
 1734 00b8 1B78     		ldrb	r3, [r3]
 1735 00ba BA69     		ldr	r2, [r7, #24]
 1736 00bc D318     		add	r3, r2, r3
 1737 00be 1A78     		ldrb	r2, [r3]
 1738 00c0 334B     		ldr	r3, .L110+4
 1739 00c2 9A70     		strb	r2, [r3, #2]
 1740              	.L103:
1654:.\Generated_Source\PSoC4/CapSense_1_CSHL.c ****                 }
1655:.\Generated_Source\PSoC4/CapSense_1_CSHL.c ****             #endif /* ((CapSense_1_TOTAL_LINEAR_SLIDERS_COUNT>0u)||(CapSense_1_TOTAL_TOUCH_PADS_BAS
1656:.\Generated_Source\PSoC4/CapSense_1_CSHL.c **** 
1657:.\Generated_Source\PSoC4/CapSense_1_CSHL.c ****         #if (CapSense_1_ADD_SLIDER_TYPE)
1658:.\Generated_Source\PSoC4/CapSense_1_CSHL.c ****             }
1659:.\Generated_Source\PSoC4/CapSense_1_CSHL.c ****         #endif /* (CapSense_1_ADD_SLIDER_TYPE) */
1660:.\Generated_Source\PSoC4/CapSense_1_CSHL.c ****     
ARM GAS  C:\Users\mitchell\AppData\Local\Temp\cclqk7v6.s 			page 61


1661:.\Generated_Source\PSoC4/CapSense_1_CSHL.c ****         /* Subtract noiseThreshold */
1662:.\Generated_Source\PSoC4/CapSense_1_CSHL.c ****         if(CapSense_1_centroid[CapSense_1_POS_PREV] > noiseThreshold)
 1741              		.loc 1 1662 0
 1742 00c4 324B     		ldr	r3, .L110+4
 1743 00c6 1B78     		ldrb	r3, [r3]
 1744 00c8 3A1C     		mov	r2, r7
 1745 00ca 3032     		add	r2, r2, #48
 1746 00cc 1278     		ldrb	r2, [r2]
 1747 00ce 9A42     		cmp	r2, r3
 1748 00d0 09D2     		bcs	.L105
1663:.\Generated_Source\PSoC4/CapSense_1_CSHL.c ****         {
1664:.\Generated_Source\PSoC4/CapSense_1_CSHL.c ****             CapSense_1_centroid[CapSense_1_POS_PREV] -= noiseThreshold;
 1749              		.loc 1 1664 0
 1750 00d2 2F4B     		ldr	r3, .L110+4
 1751 00d4 1A78     		ldrb	r2, [r3]
 1752 00d6 3B1C     		mov	r3, r7
 1753 00d8 3033     		add	r3, r3, #48
 1754 00da 1B78     		ldrb	r3, [r3]
 1755 00dc D31A     		sub	r3, r2, r3
 1756 00de DAB2     		uxtb	r2, r3
 1757 00e0 2B4B     		ldr	r3, .L110+4
 1758 00e2 1A70     		strb	r2, [r3]
 1759 00e4 02E0     		b	.L106
 1760              	.L105:
1665:.\Generated_Source\PSoC4/CapSense_1_CSHL.c ****         }
1666:.\Generated_Source\PSoC4/CapSense_1_CSHL.c ****         else
1667:.\Generated_Source\PSoC4/CapSense_1_CSHL.c ****         {
1668:.\Generated_Source\PSoC4/CapSense_1_CSHL.c ****             CapSense_1_centroid[CapSense_1_POS_PREV] = 0u;
 1761              		.loc 1 1668 0
 1762 00e6 2A4B     		ldr	r3, .L110+4
 1763 00e8 0022     		mov	r2, #0
 1764 00ea 1A70     		strb	r2, [r3]
 1765              	.L106:
1669:.\Generated_Source\PSoC4/CapSense_1_CSHL.c ****         }
1670:.\Generated_Source\PSoC4/CapSense_1_CSHL.c ****         
1671:.\Generated_Source\PSoC4/CapSense_1_CSHL.c ****         /* Maximum always greater than fingerThreshold, so greater than noiseThreshold */
1672:.\Generated_Source\PSoC4/CapSense_1_CSHL.c ****         CapSense_1_centroid[CapSense_1_POS] -= noiseThreshold;
 1766              		.loc 1 1672 0
 1767 00ec 284B     		ldr	r3, .L110+4
 1768 00ee 5A78     		ldrb	r2, [r3, #1]
 1769 00f0 3B1C     		mov	r3, r7
 1770 00f2 3033     		add	r3, r3, #48
 1771 00f4 1B78     		ldrb	r3, [r3]
 1772 00f6 D31A     		sub	r3, r2, r3
 1773 00f8 DAB2     		uxtb	r2, r3
 1774 00fa 254B     		ldr	r3, .L110+4
 1775 00fc 5A70     		strb	r2, [r3, #1]
1673:.\Generated_Source\PSoC4/CapSense_1_CSHL.c ****         
1674:.\Generated_Source\PSoC4/CapSense_1_CSHL.c ****         /* Subtract noiseThreshold */
1675:.\Generated_Source\PSoC4/CapSense_1_CSHL.c ****         if(CapSense_1_centroid[CapSense_1_POS_NEXT] > noiseThreshold)
 1776              		.loc 1 1675 0
 1777 00fe 244B     		ldr	r3, .L110+4
 1778 0100 9B78     		ldrb	r3, [r3, #2]
 1779 0102 3A1C     		mov	r2, r7
 1780 0104 3032     		add	r2, r2, #48
 1781 0106 1278     		ldrb	r2, [r2]
 1782 0108 9A42     		cmp	r2, r3
ARM GAS  C:\Users\mitchell\AppData\Local\Temp\cclqk7v6.s 			page 62


 1783 010a 09D2     		bcs	.L107
1676:.\Generated_Source\PSoC4/CapSense_1_CSHL.c ****         {
1677:.\Generated_Source\PSoC4/CapSense_1_CSHL.c ****             CapSense_1_centroid[CapSense_1_POS_NEXT] -= noiseThreshold;
 1784              		.loc 1 1677 0
 1785 010c 204B     		ldr	r3, .L110+4
 1786 010e 9A78     		ldrb	r2, [r3, #2]
 1787 0110 3B1C     		mov	r3, r7
 1788 0112 3033     		add	r3, r3, #48
 1789 0114 1B78     		ldrb	r3, [r3]
 1790 0116 D31A     		sub	r3, r2, r3
 1791 0118 DAB2     		uxtb	r2, r3
 1792 011a 1D4B     		ldr	r3, .L110+4
 1793 011c 9A70     		strb	r2, [r3, #2]
 1794 011e 02E0     		b	.L108
 1795              	.L107:
1678:.\Generated_Source\PSoC4/CapSense_1_CSHL.c ****         }
1679:.\Generated_Source\PSoC4/CapSense_1_CSHL.c ****         else
1680:.\Generated_Source\PSoC4/CapSense_1_CSHL.c ****         {
1681:.\Generated_Source\PSoC4/CapSense_1_CSHL.c ****             CapSense_1_centroid[CapSense_1_POS_NEXT] = 0u;
 1796              		.loc 1 1681 0
 1797 0120 1B4B     		ldr	r3, .L110+4
 1798 0122 0022     		mov	r2, #0
 1799 0124 9A70     		strb	r2, [r3, #2]
 1800              	.L108:
1682:.\Generated_Source\PSoC4/CapSense_1_CSHL.c ****         }
1683:.\Generated_Source\PSoC4/CapSense_1_CSHL.c ****         
1684:.\Generated_Source\PSoC4/CapSense_1_CSHL.c ****         
1685:.\Generated_Source\PSoC4/CapSense_1_CSHL.c ****         /* Si+1 - Si-1 */
1686:.\Generated_Source\PSoC4/CapSense_1_CSHL.c ****         numerator = (uint32) CapSense_1_centroid[CapSense_1_POS_NEXT] -
 1801              		.loc 1 1686 0
 1802 0126 1A4B     		ldr	r3, .L110+4
 1803 0128 9B78     		ldrb	r3, [r3, #2]
 1804 012a 1A1C     		mov	r2, r3
1687:.\Generated_Source\PSoC4/CapSense_1_CSHL.c ****                     (uint32) CapSense_1_centroid[CapSense_1_POS_PREV];
 1805              		.loc 1 1687 0
 1806 012c 184B     		ldr	r3, .L110+4
 1807 012e 1B78     		ldrb	r3, [r3]
1686:.\Generated_Source\PSoC4/CapSense_1_CSHL.c ****         numerator = (uint32) CapSense_1_centroid[CapSense_1_POS_NEXT] -
 1808              		.loc 1 1686 0
 1809 0130 D31A     		sub	r3, r2, r3
 1810 0132 3B61     		str	r3, [r7, #16]
1688:.\Generated_Source\PSoC4/CapSense_1_CSHL.c **** 
1689:.\Generated_Source\PSoC4/CapSense_1_CSHL.c ****         /* Si+1 + Si + Si-1 */
1690:.\Generated_Source\PSoC4/CapSense_1_CSHL.c ****         denominator = (int32) CapSense_1_centroid[CapSense_1_POS_PREV] + 
 1811              		.loc 1 1690 0
 1812 0134 164B     		ldr	r3, .L110+4
 1813 0136 1B78     		ldrb	r3, [r3]
 1814 0138 1A1C     		mov	r2, r3
1691:.\Generated_Source\PSoC4/CapSense_1_CSHL.c ****                       (int32) CapSense_1_centroid[CapSense_1_POS] + 
 1815              		.loc 1 1691 0
 1816 013a 154B     		ldr	r3, .L110+4
 1817 013c 5B78     		ldrb	r3, [r3, #1]
1690:.\Generated_Source\PSoC4/CapSense_1_CSHL.c ****         denominator = (int32) CapSense_1_centroid[CapSense_1_POS_PREV] + 
 1818              		.loc 1 1690 0
 1819 013e D218     		add	r2, r2, r3
1692:.\Generated_Source\PSoC4/CapSense_1_CSHL.c ****                       (int32) CapSense_1_centroid[CapSense_1_POS_NEXT];
 1820              		.loc 1 1692 0
ARM GAS  C:\Users\mitchell\AppData\Local\Temp\cclqk7v6.s 			page 63


 1821 0140 134B     		ldr	r3, .L110+4
 1822 0142 9B78     		ldrb	r3, [r3, #2]
1690:.\Generated_Source\PSoC4/CapSense_1_CSHL.c ****         denominator = (int32) CapSense_1_centroid[CapSense_1_POS_PREV] + 
 1823              		.loc 1 1690 0
 1824 0144 D318     		add	r3, r2, r3
 1825 0146 FB60     		str	r3, [r7, #12]
1693:.\Generated_Source\PSoC4/CapSense_1_CSHL.c ****         
1694:.\Generated_Source\PSoC4/CapSense_1_CSHL.c ****         /* (numerator/denominator) + maximum */
1695:.\Generated_Source\PSoC4/CapSense_1_CSHL.c ****         denominator = (((int32)(uint32)((uint32)numerator << 8u)/denominator) + (int32)(uint32)((ui
 1826              		.loc 1 1695 0
 1827 0148 3B69     		ldr	r3, [r7, #16]
 1828 014a 1B02     		lsl	r3, r3, #8
 1829 014c 181C     		mov	r0, r3
 1830 014e F968     		ldr	r1, [r7, #12]
 1831 0150 FFF7FEFF 		bl	__aeabi_idiv
 1832 0154 031C     		mov	r3, r0
 1833 0156 1A1C     		mov	r2, r3
 1834 0158 FB1D     		add	r3, r7, #7
 1835 015a 1B78     		ldrb	r3, [r3]
 1836 015c 1B02     		lsl	r3, r3, #8
 1837 015e D318     		add	r3, r2, r3
 1838 0160 FB60     		str	r3, [r7, #12]
1696:.\Generated_Source\PSoC4/CapSense_1_CSHL.c **** 
1697:.\Generated_Source\PSoC4/CapSense_1_CSHL.c ****         #if(CapSense_1_TOTAL_RADIAL_SLIDERS_COUNT > 0u)
1698:.\Generated_Source\PSoC4/CapSense_1_CSHL.c ****             /* Only required for RADIAL Slider */
1699:.\Generated_Source\PSoC4/CapSense_1_CSHL.c ****             if(denominator < 0)
1700:.\Generated_Source\PSoC4/CapSense_1_CSHL.c ****             {
1701:.\Generated_Source\PSoC4/CapSense_1_CSHL.c ****                 denominator += (int32)((uint16)((uint16) count << 8u));
1702:.\Generated_Source\PSoC4/CapSense_1_CSHL.c ****             }
1703:.\Generated_Source\PSoC4/CapSense_1_CSHL.c ****         #endif /* (CapSense_1_TOTAL_RADIAL_SLIDERS_COUNT > 0u) */
1704:.\Generated_Source\PSoC4/CapSense_1_CSHL.c ****         
1705:.\Generated_Source\PSoC4/CapSense_1_CSHL.c ****         denominator *= (int16)resolution;
 1839              		.loc 1 1705 0
 1840 0162 BB1C     		add	r3, r7, #2
 1841 0164 1B88     		ldrh	r3, [r3]
 1842 0166 1AB2     		sxth	r2, r3
 1843 0168 FB68     		ldr	r3, [r7, #12]
 1844 016a 5343     		mul	r3, r2
 1845 016c FB60     		str	r3, [r7, #12]
1706:.\Generated_Source\PSoC4/CapSense_1_CSHL.c ****         
1707:.\Generated_Source\PSoC4/CapSense_1_CSHL.c ****         /* Round result and put it to uint8 */
1708:.\Generated_Source\PSoC4/CapSense_1_CSHL.c ****         position = ((uint8) HI16((uint32)denominator + CapSense_1_CENTROID_ROUND_VALUE));
 1846              		.loc 1 1708 0
 1847 016e FB68     		ldr	r3, [r7, #12]
 1848 0170 FE22     		mov	r2, #254
 1849 0172 D201     		lsl	r2, r2, #7
 1850 0174 9B18     		add	r3, r3, r2
 1851 0176 1A0C     		lsr	r2, r3, #16
 1852 0178 3B1C     		mov	r3, r7
 1853 017a 0B33     		add	r3, r3, #11
 1854 017c 1A70     		strb	r2, [r3]
1709:.\Generated_Source\PSoC4/CapSense_1_CSHL.c **** 
1710:.\Generated_Source\PSoC4/CapSense_1_CSHL.c ****         return (position);
 1855              		.loc 1 1710 0
 1856 017e 3B1C     		mov	r3, r7
 1857 0180 0B33     		add	r3, r3, #11
 1858 0182 1B78     		ldrb	r3, [r3]
ARM GAS  C:\Users\mitchell\AppData\Local\Temp\cclqk7v6.s 			page 64


1711:.\Generated_Source\PSoC4/CapSense_1_CSHL.c ****     }    
 1859              		.loc 1 1711 0
 1860 0184 181C     		mov	r0, r3
 1861 0186 BD46     		mov	sp, r7
 1862 0188 09B0     		add	sp, sp, #36
 1863              		@ sp needed
 1864 018a 90BD     		pop	{r4, r7, pc}
 1865              	.L111:
 1866              		.align	2
 1867              	.L110:
 1868 018c 00000000 		.word	CapSense_1_sensorSignal
 1869 0190 24000000 		.word	CapSense_1_centroid.5327
 1870              		.cfi_endproc
 1871              	.LFE55:
 1872              		.size	CapSense_1_CalcCentroid, .-CapSense_1_CalcCentroid
 1873              		.section	.text.CapSense_1_GetCentroidPos,"ax",%progbits
 1874              		.align	2
 1875              		.global	CapSense_1_GetCentroidPos
 1876              		.code	16
 1877              		.thumb_func
 1878              		.type	CapSense_1_GetCentroidPos, %function
 1879              	CapSense_1_GetCentroidPos:
 1880              	.LFB56:
1712:.\Generated_Source\PSoC4/CapSense_1_CSHL.c **** #endif /* (CapSense_1_TOTAL_CENTROIDS_BASIC_COUNT) */
1713:.\Generated_Source\PSoC4/CapSense_1_CSHL.c **** 
1714:.\Generated_Source\PSoC4/CapSense_1_CSHL.c **** 
1715:.\Generated_Source\PSoC4/CapSense_1_CSHL.c **** #if((CapSense_1_TOTAL_RADIAL_SLIDERS_COUNT > 0u) || (CapSense_1_TOTAL_LINEAR_SLIDERS_COUNT > 0u))
1716:.\Generated_Source\PSoC4/CapSense_1_CSHL.c ****     /*******************************************************************************
1717:.\Generated_Source\PSoC4/CapSense_1_CSHL.c ****     * Function Name: CapSense_1_GetCentroidPos
1718:.\Generated_Source\PSoC4/CapSense_1_CSHL.c ****     ********************************************************************************
1719:.\Generated_Source\PSoC4/CapSense_1_CSHL.c ****     *
1720:.\Generated_Source\PSoC4/CapSense_1_CSHL.c ****     * Summary:
1721:.\Generated_Source\PSoC4/CapSense_1_CSHL.c ****     *  Checks the CapSense_1_Signal[ ] array for a centroid within
1722:.\Generated_Source\PSoC4/CapSense_1_CSHL.c ****     *  a slider specified range. The centroid position is calculated according to the resolution
1723:.\Generated_Source\PSoC4/CapSense_1_CSHL.c ****     *  specified in the CapSense customizer. The position filters are applied to the
1724:.\Generated_Source\PSoC4/CapSense_1_CSHL.c ****     *  result if enabled.
1725:.\Generated_Source\PSoC4/CapSense_1_CSHL.c ****     *
1726:.\Generated_Source\PSoC4/CapSense_1_CSHL.c ****     * Parameters:
1727:.\Generated_Source\PSoC4/CapSense_1_CSHL.c ****     *  widget:  Widget number.
1728:.\Generated_Source\PSoC4/CapSense_1_CSHL.c ****     *  For every linear slider widget there are defines in this format:
1729:.\Generated_Source\PSoC4/CapSense_1_CSHL.c ****     *  #define CapSense_1_"widget_name"__LS           5
1730:.\Generated_Source\PSoC4/CapSense_1_CSHL.c ****     * 
1731:.\Generated_Source\PSoC4/CapSense_1_CSHL.c ****     * Return:
1732:.\Generated_Source\PSoC4/CapSense_1_CSHL.c ****     *  Returns a position value of the linear slider.
1733:.\Generated_Source\PSoC4/CapSense_1_CSHL.c **** 	*
1734:.\Generated_Source\PSoC4/CapSense_1_CSHL.c **** 	* Global Variables:
1735:.\Generated_Source\PSoC4/CapSense_1_CSHL.c **** 	*  None
1736:.\Generated_Source\PSoC4/CapSense_1_CSHL.c **** 	*
1737:.\Generated_Source\PSoC4/CapSense_1_CSHL.c ****     * Side Effects:
1738:.\Generated_Source\PSoC4/CapSense_1_CSHL.c ****     *  If any sensor within the slider widget is active, the function returns values
1739:.\Generated_Source\PSoC4/CapSense_1_CSHL.c ****     *  from zero to the API resolution value set in the CapSense customizer. If no
1740:.\Generated_Source\PSoC4/CapSense_1_CSHL.c ****     *  sensors are active, the function returns 0xFFFF. If an error occurs during
1741:.\Generated_Source\PSoC4/CapSense_1_CSHL.c ****     *  execution of the centroid/diplexing algorithm, the function returns 0xFFFF.
1742:.\Generated_Source\PSoC4/CapSense_1_CSHL.c ****     *  There are no checks of the widget type argument provided to this function.
1743:.\Generated_Source\PSoC4/CapSense_1_CSHL.c ****     *  The unproper widget type provided will cause unexpected position calculations.
1744:.\Generated_Source\PSoC4/CapSense_1_CSHL.c ****     *
1745:.\Generated_Source\PSoC4/CapSense_1_CSHL.c ****     * Note:
ARM GAS  C:\Users\mitchell\AppData\Local\Temp\cclqk7v6.s 			page 65


1746:.\Generated_Source\PSoC4/CapSense_1_CSHL.c ****     *  If noise counts on the slider segments are greater than the noise
1747:.\Generated_Source\PSoC4/CapSense_1_CSHL.c ****     *  threshold, this subroutine may generate a false centroid result. The noise
1748:.\Generated_Source\PSoC4/CapSense_1_CSHL.c ****     *  threshold should be set carefully (high enough above the noise level) so
1749:.\Generated_Source\PSoC4/CapSense_1_CSHL.c ****     *  that noise will not generate a false centroid.
1750:.\Generated_Source\PSoC4/CapSense_1_CSHL.c ****     *******************************************************************************/
1751:.\Generated_Source\PSoC4/CapSense_1_CSHL.c ****     uint16 CapSense_1_GetCentroidPos(uint32 widget)
1752:.\Generated_Source\PSoC4/CapSense_1_CSHL.c ****     {
 1881              		.loc 1 1752 0
 1882              		.cfi_startproc
 1883 0000 90B5     		push	{r4, r7, lr}
 1884              		.cfi_def_cfa_offset 12
 1885              		.cfi_offset 4, -12
 1886              		.cfi_offset 7, -8
 1887              		.cfi_offset 14, -4
 1888 0002 87B0     		sub	sp, sp, #28
 1889              		.cfi_def_cfa_offset 40
 1890 0004 02AF     		add	r7, sp, #8
 1891              		.cfi_def_cfa 7, 32
 1892 0006 7860     		str	r0, [r7, #4]
1753:.\Generated_Source\PSoC4/CapSense_1_CSHL.c ****         #if (CapSense_1_IS_DIPLEX_SLIDER)
1754:.\Generated_Source\PSoC4/CapSense_1_CSHL.c ****             const uint8 *diplex;
1755:.\Generated_Source\PSoC4/CapSense_1_CSHL.c ****         #endif /* (CapSense_1_IS_DIPLEX_SLIDER) */
1756:.\Generated_Source\PSoC4/CapSense_1_CSHL.c ****                 
1757:.\Generated_Source\PSoC4/CapSense_1_CSHL.c ****         #if (0u != CapSense_1_LINEAR_SLIDERS_POS_FILTERS_MASK)
1758:.\Generated_Source\PSoC4/CapSense_1_CSHL.c ****             uint8 posIndex;
1759:.\Generated_Source\PSoC4/CapSense_1_CSHL.c ****             uint8 firstTimeIndex = CapSense_1_posFiltersData[widget];
 1893              		.loc 1 1759 0
 1894 0008 3B1C     		mov	r3, r7
 1895 000a 0D33     		add	r3, r3, #13
 1896 000c 4A49     		ldr	r1, .L118
 1897 000e 7A68     		ldr	r2, [r7, #4]
 1898 0010 8A18     		add	r2, r1, r2
 1899 0012 1278     		ldrb	r2, [r2]
 1900 0014 1A70     		strb	r2, [r3]
1760:.\Generated_Source\PSoC4/CapSense_1_CSHL.c ****             uint8 posFiltersMask = CapSense_1_posFiltersMask[widget];  
 1901              		.loc 1 1760 0
 1902 0016 3B1C     		mov	r3, r7
 1903 0018 0C33     		add	r3, r3, #12
 1904 001a 0822     		mov	r2, #8
 1905 001c 1A70     		strb	r2, [r3]
1761:.\Generated_Source\PSoC4/CapSense_1_CSHL.c ****         #endif /* (0u != CapSense_1_LINEAR_SLIDERS_POS_FILTERS_MASK) */
1762:.\Generated_Source\PSoC4/CapSense_1_CSHL.c **** 
1763:.\Generated_Source\PSoC4/CapSense_1_CSHL.c ****         #if ((0u != (CapSense_1_MEDIAN_FILTER & CapSense_1_LINEAR_SLIDERS_POS_FILTERS_MASK)) || \
1764:.\Generated_Source\PSoC4/CapSense_1_CSHL.c ****              (0u != (CapSense_1_AVERAGING_FILTER & CapSense_1_LINEAR_SLIDERS_POS_FILTERS_MASK)))
1765:.\Generated_Source\PSoC4/CapSense_1_CSHL.c ****             uint8 tempPos;
1766:.\Generated_Source\PSoC4/CapSense_1_CSHL.c ****         #endif /* ((0u != (CapSense_1_MEDIAN_FILTER & CapSense_1_LINEAR_SLIDERS_POS_FILTERS_MASK)) 
1767:.\Generated_Source\PSoC4/CapSense_1_CSHL.c ****                *   (0u != (CapSense_1_AVERAGING_FILTER & CapSense_1_LINEAR_SLIDERS_POS_FILTERS_MASK
1768:.\Generated_Source\PSoC4/CapSense_1_CSHL.c ****                */
1769:.\Generated_Source\PSoC4/CapSense_1_CSHL.c **** 
1770:.\Generated_Source\PSoC4/CapSense_1_CSHL.c ****         uint8 maximum;
1771:.\Generated_Source\PSoC4/CapSense_1_CSHL.c ****         uint16 position;
1772:.\Generated_Source\PSoC4/CapSense_1_CSHL.c ****         uint8 offset = CapSense_1_rawDataIndex[widget];
 1906              		.loc 1 1772 0
 1907 001e 3B1C     		mov	r3, r7
 1908 0020 0B33     		add	r3, r3, #11
 1909 0022 0022     		mov	r2, #0
 1910 0024 1A70     		strb	r2, [r3]
ARM GAS  C:\Users\mitchell\AppData\Local\Temp\cclqk7v6.s 			page 66


1773:.\Generated_Source\PSoC4/CapSense_1_CSHL.c ****         uint8 count = CapSense_1_numberOfSensors[widget];
 1911              		.loc 1 1773 0
 1912 0026 3B1C     		mov	r3, r7
 1913 0028 0A33     		add	r3, r3, #10
 1914 002a 0522     		mov	r2, #5
 1915 002c 1A70     		strb	r2, [r3]
1774:.\Generated_Source\PSoC4/CapSense_1_CSHL.c ****                         
1775:.\Generated_Source\PSoC4/CapSense_1_CSHL.c ****         #if (CapSense_1_IS_DIPLEX_SLIDER)
1776:.\Generated_Source\PSoC4/CapSense_1_CSHL.c ****             if(widget < CapSense_1_TOTAL_DIPLEXED_SLIDERS_COUNT)
1777:.\Generated_Source\PSoC4/CapSense_1_CSHL.c ****             {
1778:.\Generated_Source\PSoC4/CapSense_1_CSHL.c ****                 maximum = CapSense_1_diplexTable[widget];
1779:.\Generated_Source\PSoC4/CapSense_1_CSHL.c ****                 diplex = &CapSense_1_diplexTable[maximum];
1780:.\Generated_Source\PSoC4/CapSense_1_CSHL.c ****             }
1781:.\Generated_Source\PSoC4/CapSense_1_CSHL.c ****             else
1782:.\Generated_Source\PSoC4/CapSense_1_CSHL.c ****             {
1783:.\Generated_Source\PSoC4/CapSense_1_CSHL.c ****                 diplex = 0u;
1784:.\Generated_Source\PSoC4/CapSense_1_CSHL.c ****             }
1785:.\Generated_Source\PSoC4/CapSense_1_CSHL.c ****         #endif /* (CapSense_1_IS_DIPLEX_SLIDER) */
1786:.\Generated_Source\PSoC4/CapSense_1_CSHL.c **** 
1787:.\Generated_Source\PSoC4/CapSense_1_CSHL.c **** 		/* Find Maximum within centroid */      
1788:.\Generated_Source\PSoC4/CapSense_1_CSHL.c **** 		#if (CapSense_1_IS_DIPLEX_SLIDER)        
1789:.\Generated_Source\PSoC4/CapSense_1_CSHL.c **** 			maximum = CapSense_1_FindMaximum(offset, count, (uint8)CapSense_1_fingerThreshold[widget], diple
1790:.\Generated_Source\PSoC4/CapSense_1_CSHL.c **** 		#else
1791:.\Generated_Source\PSoC4/CapSense_1_CSHL.c **** 			maximum = CapSense_1_FindMaximum(offset, count, (uint8)CapSense_1_fingerThreshold[widget]);
 1916              		.loc 1 1791 0
 1917 002e 6423     		mov	r3, #100
 1918 0030 3C1C     		mov	r4, r7
 1919 0032 0934     		add	r4, r4, #9
 1920 0034 3A1C     		mov	r2, r7
 1921 0036 0B32     		add	r2, r2, #11
 1922 0038 1178     		ldrb	r1, [r2]
 1923 003a 3A1C     		mov	r2, r7
 1924 003c 0A32     		add	r2, r2, #10
 1925 003e 1278     		ldrb	r2, [r2]
 1926 0040 081C     		mov	r0, r1
 1927 0042 111C     		mov	r1, r2
 1928 0044 1A1C     		mov	r2, r3
 1929 0046 FFF7FEFF 		bl	CapSense_1_FindMaximum
 1930 004a 031C     		mov	r3, r0
 1931 004c 2370     		strb	r3, [r4]
1792:.\Generated_Source\PSoC4/CapSense_1_CSHL.c **** 		#endif /* (CapSense_1_IS_DIPLEX_SLIDER) */
1793:.\Generated_Source\PSoC4/CapSense_1_CSHL.c **** 
1794:.\Generated_Source\PSoC4/CapSense_1_CSHL.c ****         if (maximum != 0xFFu)
 1932              		.loc 1 1794 0
 1933 004e 3B1C     		mov	r3, r7
 1934 0050 0933     		add	r3, r3, #9
 1935 0052 1B78     		ldrb	r3, [r3]
 1936 0054 FF2B     		cmp	r3, #255
 1937 0056 57D0     		beq	.L113
1795:.\Generated_Source\PSoC4/CapSense_1_CSHL.c ****         {
1796:.\Generated_Source\PSoC4/CapSense_1_CSHL.c ****             /* Calculate centroid */
1797:.\Generated_Source\PSoC4/CapSense_1_CSHL.c ****             position = (uint16) CapSense_1_CalcCentroid(maximum, 
 1938              		.loc 1 1797 0
 1939 0058 FF23     		mov	r3, #255
 1940 005a 9B01     		lsl	r3, r3, #6
 1941 005c 1424     		mov	r4, #20
 1942 005e 3A1C     		mov	r2, r7
ARM GAS  C:\Users\mitchell\AppData\Local\Temp\cclqk7v6.s 			page 67


 1943 0060 0932     		add	r2, r2, #9
 1944 0062 1078     		ldrb	r0, [r2]
 1945 0064 3A1C     		mov	r2, r7
 1946 0066 0B32     		add	r2, r2, #11
 1947 0068 1178     		ldrb	r1, [r2]
 1948 006a 3A1C     		mov	r2, r7
 1949 006c 0A32     		add	r2, r2, #10
 1950 006e 1278     		ldrb	r2, [r2]
 1951 0070 0094     		str	r4, [sp]
 1952 0072 FFF7FEFF 		bl	CapSense_1_CalcCentroid
 1953 0076 031C     		mov	r3, r0
 1954 0078 1A1C     		mov	r2, r3
 1955 007a 3B1C     		mov	r3, r7
 1956 007c 0E33     		add	r3, r3, #14
 1957 007e 1A80     		strh	r2, [r3]
1798:.\Generated_Source\PSoC4/CapSense_1_CSHL.c ****                          offset, count, CapSense_1_centroidMult[widget], CapSense_1_noiseThreshold[
1799:.\Generated_Source\PSoC4/CapSense_1_CSHL.c **** 
1800:.\Generated_Source\PSoC4/CapSense_1_CSHL.c ****             #if (0u != CapSense_1_LINEAR_SLIDERS_POS_FILTERS_MASK)
1801:.\Generated_Source\PSoC4/CapSense_1_CSHL.c ****                 /* Check if this linear slider has enabled filters */
1802:.\Generated_Source\PSoC4/CapSense_1_CSHL.c ****                 if (0u != (posFiltersMask & CapSense_1_ANY_POS_FILTER))
 1958              		.loc 1 1802 0
 1959 0080 3B1C     		mov	r3, r7
 1960 0082 0C33     		add	r3, r3, #12
 1961 0084 1A78     		ldrb	r2, [r3]
 1962 0086 1F23     		mov	r3, #31
 1963 0088 1340     		and	r3, r2
 1964 008a 4ED0     		beq	.L116
1803:.\Generated_Source\PSoC4/CapSense_1_CSHL.c ****                 {
1804:.\Generated_Source\PSoC4/CapSense_1_CSHL.c ****                     /* Calculate position to store filters data */
1805:.\Generated_Source\PSoC4/CapSense_1_CSHL.c ****                     posIndex  = firstTimeIndex + 1u;
 1965              		.loc 1 1805 0
 1966 008c 3B1C     		mov	r3, r7
 1967 008e 0833     		add	r3, r3, #8
 1968 0090 3A1C     		mov	r2, r7
 1969 0092 0D32     		add	r2, r2, #13
 1970 0094 1278     		ldrb	r2, [r2]
 1971 0096 0132     		add	r2, r2, #1
 1972 0098 1A70     		strb	r2, [r3]
1806:.\Generated_Source\PSoC4/CapSense_1_CSHL.c ****                     
1807:.\Generated_Source\PSoC4/CapSense_1_CSHL.c ****                     if (0u == CapSense_1_posFiltersData[firstTimeIndex])
 1973              		.loc 1 1807 0
 1974 009a 3B1C     		mov	r3, r7
 1975 009c 0D33     		add	r3, r3, #13
 1976 009e 1B78     		ldrb	r3, [r3]
 1977 00a0 254A     		ldr	r2, .L118
 1978 00a2 D35C     		ldrb	r3, [r2, r3]
 1979 00a4 002B     		cmp	r3, #0
 1980 00a6 0FD1     		bne	.L115
1808:.\Generated_Source\PSoC4/CapSense_1_CSHL.c ****                     {
1809:.\Generated_Source\PSoC4/CapSense_1_CSHL.c ****                         /* Init filters */
1810:.\Generated_Source\PSoC4/CapSense_1_CSHL.c ****                         CapSense_1_posFiltersData[posIndex] = (uint8) position;
 1981              		.loc 1 1810 0
 1982 00a8 3B1C     		mov	r3, r7
 1983 00aa 0833     		add	r3, r3, #8
 1984 00ac 1B78     		ldrb	r3, [r3]
 1985 00ae 3A1C     		mov	r2, r7
 1986 00b0 0E32     		add	r2, r2, #14
ARM GAS  C:\Users\mitchell\AppData\Local\Temp\cclqk7v6.s 			page 68


 1987 00b2 1288     		ldrh	r2, [r2]
 1988 00b4 D1B2     		uxtb	r1, r2
 1989 00b6 204A     		ldr	r2, .L118
 1990 00b8 D154     		strb	r1, [r2, r3]
1811:.\Generated_Source\PSoC4/CapSense_1_CSHL.c ****                         #if ((0u != (CapSense_1_MEDIAN_FILTER & \
1812:.\Generated_Source\PSoC4/CapSense_1_CSHL.c ****                                      CapSense_1_LINEAR_SLIDERS_POS_FILTERS_MASK)) || \
1813:.\Generated_Source\PSoC4/CapSense_1_CSHL.c ****                              (0u != (CapSense_1_AVERAGING_FILTER & \
1814:.\Generated_Source\PSoC4/CapSense_1_CSHL.c ****                                      CapSense_1_LINEAR_SLIDERS_POS_FILTERS_MASK)))
1815:.\Generated_Source\PSoC4/CapSense_1_CSHL.c **** 
1816:.\Generated_Source\PSoC4/CapSense_1_CSHL.c ****                             if ( (0u != (posFiltersMask & CapSense_1_MEDIAN_FILTER)) || 
1817:.\Generated_Source\PSoC4/CapSense_1_CSHL.c ****                                  (0u != (posFiltersMask & CapSense_1_AVERAGING_FILTER)) )
1818:.\Generated_Source\PSoC4/CapSense_1_CSHL.c ****                             {
1819:.\Generated_Source\PSoC4/CapSense_1_CSHL.c ****                                 CapSense_1_posFiltersData[posIndex + 1u] = (uint8) position;
1820:.\Generated_Source\PSoC4/CapSense_1_CSHL.c ****                             }
1821:.\Generated_Source\PSoC4/CapSense_1_CSHL.c ****                         #endif /* ((0u != (CapSense_1_MEDIAN_FILTER & \
1822:.\Generated_Source\PSoC4/CapSense_1_CSHL.c ****                                *           CapSense_1_LINEAR_SLIDERS_POS_FILTERS_MASK)) || \
1823:.\Generated_Source\PSoC4/CapSense_1_CSHL.c ****                                *   (0u != (CapSense_1_AVERAGING_FILTER & \
1824:.\Generated_Source\PSoC4/CapSense_1_CSHL.c ****                                *           CapSense_1_LINEAR_SLIDERS_POS_FILTERS_MASK)))
1825:.\Generated_Source\PSoC4/CapSense_1_CSHL.c ****                                */
1826:.\Generated_Source\PSoC4/CapSense_1_CSHL.c ****                         
1827:.\Generated_Source\PSoC4/CapSense_1_CSHL.c ****                         CapSense_1_posFiltersData[firstTimeIndex] = 1u;
 1991              		.loc 1 1827 0
 1992 00ba 3B1C     		mov	r3, r7
 1993 00bc 0D33     		add	r3, r3, #13
 1994 00be 1B78     		ldrb	r3, [r3]
 1995 00c0 1D4A     		ldr	r2, .L118
 1996 00c2 0121     		mov	r1, #1
 1997 00c4 D154     		strb	r1, [r2, r3]
 1998 00c6 30E0     		b	.L116
 1999              	.L115:
1828:.\Generated_Source\PSoC4/CapSense_1_CSHL.c ****                     }
1829:.\Generated_Source\PSoC4/CapSense_1_CSHL.c ****                     else
1830:.\Generated_Source\PSoC4/CapSense_1_CSHL.c ****                     {
1831:.\Generated_Source\PSoC4/CapSense_1_CSHL.c ****                         /* Do filtering */
1832:.\Generated_Source\PSoC4/CapSense_1_CSHL.c ****                         #if (0u != (CapSense_1_MEDIAN_FILTER & CapSense_1_LINEAR_SLIDERS_POS_FILTER
1833:.\Generated_Source\PSoC4/CapSense_1_CSHL.c ****                             if (0u != (posFiltersMask & CapSense_1_MEDIAN_FILTER))
1834:.\Generated_Source\PSoC4/CapSense_1_CSHL.c ****                             {
1835:.\Generated_Source\PSoC4/CapSense_1_CSHL.c ****                                 tempPos = (uint8) position;
1836:.\Generated_Source\PSoC4/CapSense_1_CSHL.c ****                                 position = CapSense_1_MedianFilter(position,
1837:.\Generated_Source\PSoC4/CapSense_1_CSHL.c ****                                                                 (uint16)CapSense_1_posFiltersData[p
1838:.\Generated_Source\PSoC4/CapSense_1_CSHL.c ****                                                                 (uint16)CapSense_1_posFiltersData[p
1839:.\Generated_Source\PSoC4/CapSense_1_CSHL.c ****                                 CapSense_1_posFiltersData[posIndex + 1u] =
1840:.\Generated_Source\PSoC4/CapSense_1_CSHL.c ****                                                                              CapSense_1_posFiltersD
1841:.\Generated_Source\PSoC4/CapSense_1_CSHL.c ****                                 CapSense_1_posFiltersData[posIndex] = tempPos;
1842:.\Generated_Source\PSoC4/CapSense_1_CSHL.c ****                             }
1843:.\Generated_Source\PSoC4/CapSense_1_CSHL.c ****                         #endif /*(0u != (CapSense_1_MEDIAN_FILTER &
1844:.\Generated_Source\PSoC4/CapSense_1_CSHL.c ****                                *         CapSense_1_LINEAR_SLIDERS_POS_FILTERS_MASK))
1845:.\Generated_Source\PSoC4/CapSense_1_CSHL.c ****                                */
1846:.\Generated_Source\PSoC4/CapSense_1_CSHL.c **** 
1847:.\Generated_Source\PSoC4/CapSense_1_CSHL.c ****                         #if(0u!=(CapSense_1_AVERAGING_FILTER & CapSense_1_LINEAR_SLIDERS_POS_FILTER
1848:.\Generated_Source\PSoC4/CapSense_1_CSHL.c ****                             if (0u != (posFiltersMask & CapSense_1_AVERAGING_FILTER)) 
1849:.\Generated_Source\PSoC4/CapSense_1_CSHL.c ****                             {
1850:.\Generated_Source\PSoC4/CapSense_1_CSHL.c ****                                 tempPos = (uint8) position;
1851:.\Generated_Source\PSoC4/CapSense_1_CSHL.c ****                                 position = CapSense_1_AveragingFilter(position,
1852:.\Generated_Source\PSoC4/CapSense_1_CSHL.c ****                                                                 (uint16)CapSense_1_posFiltersData[p
1853:.\Generated_Source\PSoC4/CapSense_1_CSHL.c ****                                                                 (uint16)CapSense_1_posFiltersData[p
1854:.\Generated_Source\PSoC4/CapSense_1_CSHL.c ****                                 CapSense_1_posFiltersData[posIndex+1u]=CapSense_1_posFiltersData[po
ARM GAS  C:\Users\mitchell\AppData\Local\Temp\cclqk7v6.s 			page 69


1855:.\Generated_Source\PSoC4/CapSense_1_CSHL.c ****                                 CapSense_1_posFiltersData[posIndex] = tempPos;
1856:.\Generated_Source\PSoC4/CapSense_1_CSHL.c ****                             }
1857:.\Generated_Source\PSoC4/CapSense_1_CSHL.c ****                         #endif /* (0u != (CapSense_1_AVERAGING_FILTER & \
1858:.\Generated_Source\PSoC4/CapSense_1_CSHL.c ****                                *           CapSense_1_LINEAR_SLIDERS_POS_FILTERS_MASK))
1859:.\Generated_Source\PSoC4/CapSense_1_CSHL.c ****                                */
1860:.\Generated_Source\PSoC4/CapSense_1_CSHL.c **** 
1861:.\Generated_Source\PSoC4/CapSense_1_CSHL.c ****                         #if (0u != (CapSense_1_IIR2_FILTER & CapSense_1_LINEAR_SLIDERS_POS_FILTERS_
1862:.\Generated_Source\PSoC4/CapSense_1_CSHL.c ****                             if (0u != (posFiltersMask & CapSense_1_IIR2_FILTER)) 
1863:.\Generated_Source\PSoC4/CapSense_1_CSHL.c ****                             {
1864:.\Generated_Source\PSoC4/CapSense_1_CSHL.c ****                                 position = CapSense_1_IIR2Filter(position,
1865:.\Generated_Source\PSoC4/CapSense_1_CSHL.c ****                                                                     (uint16)CapSense_1_posFiltersDa
1866:.\Generated_Source\PSoC4/CapSense_1_CSHL.c ****                                 CapSense_1_posFiltersData[posIndex] = (uint8) position;
1867:.\Generated_Source\PSoC4/CapSense_1_CSHL.c ****                             }
1868:.\Generated_Source\PSoC4/CapSense_1_CSHL.c ****                         #endif /* (0u != (CapSense_1_IIR2_FILTER & \
1869:.\Generated_Source\PSoC4/CapSense_1_CSHL.c ****                                *          CapSense_1_LINEAR_SLIDERS_POS_FILTERS_MASK))
1870:.\Generated_Source\PSoC4/CapSense_1_CSHL.c ****                                */
1871:.\Generated_Source\PSoC4/CapSense_1_CSHL.c **** 
1872:.\Generated_Source\PSoC4/CapSense_1_CSHL.c ****                         #if (0u != (CapSense_1_IIR4_FILTER & CapSense_1_LINEAR_SLIDERS_POS_FILTERS_
