ARM GAS  C:\Users\mitchell\AppData\Local\Temp\cc4apumG.s 			page 1


   1              		.cpu cortex-m0
   2              		.fpu softvfp
   3              		.eabi_attribute 20, 1
   4              		.eabi_attribute 21, 1
   5              		.eabi_attribute 23, 3
   6              		.eabi_attribute 24, 1
   7              		.eabi_attribute 25, 1
   8              		.eabi_attribute 26, 1
   9              		.eabi_attribute 30, 6
  10              		.eabi_attribute 34, 0
  11              		.eabi_attribute 18, 4
  12              		.code	16
  13              		.file	"CapSense_1_TunerHelper.c"
  14              		.text
  15              	.Ltext0:
  16              		.cfi_sections	.debug_frame
  17              		.section	.text.CapSense_1_TunerStart,"ax",%progbits
  18              		.align	2
  19              		.global	CapSense_1_TunerStart
  20              		.code	16
  21              		.thumb_func
  22              		.type	CapSense_1_TunerStart, %function
  23              	CapSense_1_TunerStart:
  24              	.LFB33:
  25              		.file 1 ".\\Generated_Source\\PSoC4\\CapSense_1_TunerHelper.c"
   1:.\Generated_Source\PSoC4/CapSense_1_TunerHelper.c **** /*******************************************************************************
   2:.\Generated_Source\PSoC4/CapSense_1_TunerHelper.c **** * File Name: CapSense_1_TunerHelper.c
   3:.\Generated_Source\PSoC4/CapSense_1_TunerHelper.c **** * Version 2.20
   4:.\Generated_Source\PSoC4/CapSense_1_TunerHelper.c **** *
   5:.\Generated_Source\PSoC4/CapSense_1_TunerHelper.c **** * Description:
   6:.\Generated_Source\PSoC4/CapSense_1_TunerHelper.c **** *  This file provides the source code of the Tuner helper APIs for the CapSense CSD 
   7:.\Generated_Source\PSoC4/CapSense_1_TunerHelper.c **** *  component.
   8:.\Generated_Source\PSoC4/CapSense_1_TunerHelper.c **** *
   9:.\Generated_Source\PSoC4/CapSense_1_TunerHelper.c **** * Note:
  10:.\Generated_Source\PSoC4/CapSense_1_TunerHelper.c **** *
  11:.\Generated_Source\PSoC4/CapSense_1_TunerHelper.c **** ********************************************************************************
  12:.\Generated_Source\PSoC4/CapSense_1_TunerHelper.c **** * Copyright 2014, Cypress Semiconductor Corporation.  All rights reserved.
  13:.\Generated_Source\PSoC4/CapSense_1_TunerHelper.c **** * You may use this file only in accordance with the license, terms, conditions,
  14:.\Generated_Source\PSoC4/CapSense_1_TunerHelper.c **** * disclaimers, and limitations in the end user license agreement accompanying
  15:.\Generated_Source\PSoC4/CapSense_1_TunerHelper.c **** * the software package with which this file was provided.
  16:.\Generated_Source\PSoC4/CapSense_1_TunerHelper.c **** *******************************************************************************/
  17:.\Generated_Source\PSoC4/CapSense_1_TunerHelper.c **** 
  18:.\Generated_Source\PSoC4/CapSense_1_TunerHelper.c **** #include "CapSense_1_TunerHelper.h"
  19:.\Generated_Source\PSoC4/CapSense_1_TunerHelper.c **** 
  20:.\Generated_Source\PSoC4/CapSense_1_TunerHelper.c **** #if (CapSense_1_TUNER_API_GENERATE)
  21:.\Generated_Source\PSoC4/CapSense_1_TunerHelper.c ****     #include "SCB.h"
  22:.\Generated_Source\PSoC4/CapSense_1_TunerHelper.c ****     #include "SCB_EZI2C.h"
  23:.\Generated_Source\PSoC4/CapSense_1_TunerHelper.c ****     volatile CapSense_1_MAILBOXES CapSense_1_mailboxesComm;
  24:.\Generated_Source\PSoC4/CapSense_1_TunerHelper.c **** #endif  /* (CapSense_1_TUNER_API_GENERATE) */
  25:.\Generated_Source\PSoC4/CapSense_1_TunerHelper.c **** 
  26:.\Generated_Source\PSoC4/CapSense_1_TunerHelper.c **** /* `#START CapSense_1_TunerHelper_HEADER` */
  27:.\Generated_Source\PSoC4/CapSense_1_TunerHelper.c **** 
  28:.\Generated_Source\PSoC4/CapSense_1_TunerHelper.c **** /* `#END` */
  29:.\Generated_Source\PSoC4/CapSense_1_TunerHelper.c **** 
  30:.\Generated_Source\PSoC4/CapSense_1_TunerHelper.c **** /*******************************************************************************
  31:.\Generated_Source\PSoC4/CapSense_1_TunerHelper.c **** * Function Name: CapSense_1_TunerStart
  32:.\Generated_Source\PSoC4/CapSense_1_TunerHelper.c **** ********************************************************************************
ARM GAS  C:\Users\mitchell\AppData\Local\Temp\cc4apumG.s 			page 2


  33:.\Generated_Source\PSoC4/CapSense_1_TunerHelper.c **** *
  34:.\Generated_Source\PSoC4/CapSense_1_TunerHelper.c **** * Summary:
  35:.\Generated_Source\PSoC4/CapSense_1_TunerHelper.c **** *  Initializes the CapSense CSD component and EzI2C communication component to use
  36:.\Generated_Source\PSoC4/CapSense_1_TunerHelper.c **** *  a mailbox data structure for communication with the Tuner GUI.
  37:.\Generated_Source\PSoC4/CapSense_1_TunerHelper.c **** *  Start the scanning, after initialization is complete.
  38:.\Generated_Source\PSoC4/CapSense_1_TunerHelper.c **** *
  39:.\Generated_Source\PSoC4/CapSense_1_TunerHelper.c **** * Parameters:
  40:.\Generated_Source\PSoC4/CapSense_1_TunerHelper.c **** *  None
  41:.\Generated_Source\PSoC4/CapSense_1_TunerHelper.c **** *
  42:.\Generated_Source\PSoC4/CapSense_1_TunerHelper.c **** * Return:
  43:.\Generated_Source\PSoC4/CapSense_1_TunerHelper.c **** *  None
  44:.\Generated_Source\PSoC4/CapSense_1_TunerHelper.c **** *
  45:.\Generated_Source\PSoC4/CapSense_1_TunerHelper.c **** * Global Variables:
  46:.\Generated_Source\PSoC4/CapSense_1_TunerHelper.c **** *  None
  47:.\Generated_Source\PSoC4/CapSense_1_TunerHelper.c **** *
  48:.\Generated_Source\PSoC4/CapSense_1_TunerHelper.c **** *******************************************************************************/
  49:.\Generated_Source\PSoC4/CapSense_1_TunerHelper.c **** void CapSense_1_TunerStart(void)
  50:.\Generated_Source\PSoC4/CapSense_1_TunerHelper.c **** {
  26              		.loc 1 50 0
  27              		.cfi_startproc
  28 0000 80B5     		push	{r7, lr}
  29              		.cfi_def_cfa_offset 8
  30              		.cfi_offset 7, -8
  31              		.cfi_offset 14, -4
  32 0002 00AF     		add	r7, sp, #0
  33              		.cfi_def_cfa_register 7
  51:.\Generated_Source\PSoC4/CapSense_1_TunerHelper.c ****     #if (0u != CapSense_1_TUNER_API_GENERATE)
  52:.\Generated_Source\PSoC4/CapSense_1_TunerHelper.c **** 		
  53:.\Generated_Source\PSoC4/CapSense_1_TunerHelper.c ****         /* Init mbx and quick check */
  54:.\Generated_Source\PSoC4/CapSense_1_TunerHelper.c ****         CapSense_1_InitMailbox(&CapSense_1_mailboxesComm.csdMailbox);
  55:.\Generated_Source\PSoC4/CapSense_1_TunerHelper.c ****         CapSense_1_mailboxesComm.numMailBoxes = CapSense_1_DEFAULT_MAILBOXES_NUMBER;
  56:.\Generated_Source\PSoC4/CapSense_1_TunerHelper.c ****         
  57:.\Generated_Source\PSoC4/CapSense_1_TunerHelper.c ****         /* Start CapSense and baselines */
  58:.\Generated_Source\PSoC4/CapSense_1_TunerHelper.c ****         CapSense_1_Start();
  59:.\Generated_Source\PSoC4/CapSense_1_TunerHelper.c ****         
  60:.\Generated_Source\PSoC4/CapSense_1_TunerHelper.c ****         /* Initialize baselines */
  61:.\Generated_Source\PSoC4/CapSense_1_TunerHelper.c **** 		#if(0u != CapSense_1_CSHL_API_GENERATE)
  62:.\Generated_Source\PSoC4/CapSense_1_TunerHelper.c **** 	        CapSense_1_InitializeEnabledBaselines();
  63:.\Generated_Source\PSoC4/CapSense_1_TunerHelper.c **** 		#endif /* (0u != CapSense_1_CSHL_API_GENERATE) */
  64:.\Generated_Source\PSoC4/CapSense_1_TunerHelper.c **** 		
  65:.\Generated_Source\PSoC4/CapSense_1_TunerHelper.c ****         /* Start EzI2C, clears buf pointers */
  66:.\Generated_Source\PSoC4/CapSense_1_TunerHelper.c ****         SCB_Start();
  67:.\Generated_Source\PSoC4/CapSense_1_TunerHelper.c **** 		
  68:.\Generated_Source\PSoC4/CapSense_1_TunerHelper.c ****         /* Setup EzI2C buffers */
  69:.\Generated_Source\PSoC4/CapSense_1_TunerHelper.c ****         SCB_EzI2CSetBuffer1(sizeof(CapSense_1_mailboxesComm), sizeof(CapSense_1_mailboxesComm),
  70:.\Generated_Source\PSoC4/CapSense_1_TunerHelper.c ****                                       			   (volatile uint8 *) &CapSense_1_mailboxesComm);
  71:.\Generated_Source\PSoC4/CapSense_1_TunerHelper.c ****         
  72:.\Generated_Source\PSoC4/CapSense_1_TunerHelper.c ****         /* Starts scan all enabled sensors */
  73:.\Generated_Source\PSoC4/CapSense_1_TunerHelper.c ****         CapSense_1_ScanEnabledWidgets();
  74:.\Generated_Source\PSoC4/CapSense_1_TunerHelper.c ****     
  75:.\Generated_Source\PSoC4/CapSense_1_TunerHelper.c ****     #endif  /* (0u != CapSense_1_TUNER_API_GENERATE) */
  76:.\Generated_Source\PSoC4/CapSense_1_TunerHelper.c **** }
  34              		.loc 1 76 0
  35 0004 BD46     		mov	sp, r7
  36              		@ sp needed
  37 0006 80BD     		pop	{r7, pc}
  38              		.cfi_endproc
ARM GAS  C:\Users\mitchell\AppData\Local\Temp\cc4apumG.s 			page 3


  39              	.LFE33:
  40              		.size	CapSense_1_TunerStart, .-CapSense_1_TunerStart
  41              		.section	.text.CapSense_1_TunerComm,"ax",%progbits
  42              		.align	2
  43              		.global	CapSense_1_TunerComm
  44              		.code	16
  45              		.thumb_func
  46              		.type	CapSense_1_TunerComm, %function
  47              	CapSense_1_TunerComm:
  48              	.LFB34:
  77:.\Generated_Source\PSoC4/CapSense_1_TunerHelper.c **** 
  78:.\Generated_Source\PSoC4/CapSense_1_TunerHelper.c **** 
  79:.\Generated_Source\PSoC4/CapSense_1_TunerHelper.c **** /*******************************************************************************
  80:.\Generated_Source\PSoC4/CapSense_1_TunerHelper.c **** * Function Name: CapSense_1_TunerComm
  81:.\Generated_Source\PSoC4/CapSense_1_TunerHelper.c **** ********************************************************************************
  82:.\Generated_Source\PSoC4/CapSense_1_TunerHelper.c **** *
  83:.\Generated_Source\PSoC4/CapSense_1_TunerHelper.c **** * Summary:
  84:.\Generated_Source\PSoC4/CapSense_1_TunerHelper.c **** *  This function is blocking. It waits till scanning loop is completed and applies
  85:.\Generated_Source\PSoC4/CapSense_1_TunerHelper.c **** *  the new parameters from the Tuner GUI if available (the manual tuning mode only). Updates
  86:.\Generated_Source\PSoC4/CapSense_1_TunerHelper.c **** *  the enabled baselines and state of widgets. Waits while the Tuner GUI reports that 
  87:.\Generated_Source\PSoC4/CapSense_1_TunerHelper.c **** *  the mailbox content  could be modified. Then loads the report data into the outbox 
  88:.\Generated_Source\PSoC4/CapSense_1_TunerHelper.c **** *  and sets a busy flag. Starts a new scanning loop.
  89:.\Generated_Source\PSoC4/CapSense_1_TunerHelper.c **** *  
  90:.\Generated_Source\PSoC4/CapSense_1_TunerHelper.c **** * Parameters:
  91:.\Generated_Source\PSoC4/CapSense_1_TunerHelper.c **** *  None
  92:.\Generated_Source\PSoC4/CapSense_1_TunerHelper.c **** *
  93:.\Generated_Source\PSoC4/CapSense_1_TunerHelper.c **** * Return:
  94:.\Generated_Source\PSoC4/CapSense_1_TunerHelper.c **** *  None
  95:.\Generated_Source\PSoC4/CapSense_1_TunerHelper.c **** *
  96:.\Generated_Source\PSoC4/CapSense_1_TunerHelper.c **** * Global Variables:
  97:.\Generated_Source\PSoC4/CapSense_1_TunerHelper.c **** *  None
  98:.\Generated_Source\PSoC4/CapSense_1_TunerHelper.c **** *
  99:.\Generated_Source\PSoC4/CapSense_1_TunerHelper.c **** *******************************************************************************/
 100:.\Generated_Source\PSoC4/CapSense_1_TunerHelper.c **** void CapSense_1_TunerComm(void)
 101:.\Generated_Source\PSoC4/CapSense_1_TunerHelper.c **** {
  49              		.loc 1 101 0
  50              		.cfi_startproc
  51 0000 80B5     		push	{r7, lr}
  52              		.cfi_def_cfa_offset 8
  53              		.cfi_offset 7, -8
  54              		.cfi_offset 14, -4
  55 0002 00AF     		add	r7, sp, #0
  56              		.cfi_def_cfa_register 7
 102:.\Generated_Source\PSoC4/CapSense_1_TunerHelper.c ****     #if (0u != CapSense_1_TUNER_API_GENERATE)
 103:.\Generated_Source\PSoC4/CapSense_1_TunerHelper.c ****         if (0u == CapSense_1_IsBusy())
 104:.\Generated_Source\PSoC4/CapSense_1_TunerHelper.c ****         {   
 105:.\Generated_Source\PSoC4/CapSense_1_TunerHelper.c ****             /* Apply new settings */
 106:.\Generated_Source\PSoC4/CapSense_1_TunerHelper.c ****             #if((CapSense_1_TUNING_METHOD != CapSense_1__TUNING_NONE) &&\
 107:.\Generated_Source\PSoC4/CapSense_1_TunerHelper.c **** 				(0u != CapSense_1_TOTAL_TRACKPAD_GESTURES_COUNT) ||\
 108:.\Generated_Source\PSoC4/CapSense_1_TunerHelper.c **** 		        (CapSense_1_TUNING_METHOD == CapSense_1__TUNING_MANUAL)) 
 109:.\Generated_Source\PSoC4/CapSense_1_TunerHelper.c ****      
 110:.\Generated_Source\PSoC4/CapSense_1_TunerHelper.c **** 				CapSense_1_ReadMessage(&CapSense_1_mailboxesComm.csdMailbox);
 111:.\Generated_Source\PSoC4/CapSense_1_TunerHelper.c **** 				
 112:.\Generated_Source\PSoC4/CapSense_1_TunerHelper.c ****             #endif  /* ((CapSense_1_TUNING_METHOD != CapSense_1__TUNING_NONE) &&\
 113:.\Generated_Source\PSoC4/CapSense_1_TunerHelper.c **** 						(0u != CapSense_1_TOTAL_TRACKPAD_GESTURES_COUNT) ||\
 114:.\Generated_Source\PSoC4/CapSense_1_TunerHelper.c **** 		                (CapSense_1_TUNING_METHOD == CapSense_1__TUNING_MANUAL)) */
 115:.\Generated_Source\PSoC4/CapSense_1_TunerHelper.c **** 			
ARM GAS  C:\Users\mitchell\AppData\Local\Temp\cc4apumG.s 			page 4


 116:.\Generated_Source\PSoC4/CapSense_1_TunerHelper.c **** 			#if(0u != CapSense_1_CSHL_API_GENERATE)
 117:.\Generated_Source\PSoC4/CapSense_1_TunerHelper.c **** 				/* Update all baselines and process all widgets */
 118:.\Generated_Source\PSoC4/CapSense_1_TunerHelper.c ****             	CapSense_1_UpdateEnabledBaselines();
 119:.\Generated_Source\PSoC4/CapSense_1_TunerHelper.c ****             	CapSense_1_ProcessAllWidgets(&CapSense_1_mailboxesComm.csdMailbox.outbox);
 120:.\Generated_Source\PSoC4/CapSense_1_TunerHelper.c **** 			#endif /* (0u != CapSense_1_CSHL_API_GENERATE) */
 121:.\Generated_Source\PSoC4/CapSense_1_TunerHelper.c **** 			
 122:.\Generated_Source\PSoC4/CapSense_1_TunerHelper.c ****             CapSense_1_PostMessage(&CapSense_1_mailboxesComm.csdMailbox);
 123:.\Generated_Source\PSoC4/CapSense_1_TunerHelper.c **** 			
 124:.\Generated_Source\PSoC4/CapSense_1_TunerHelper.c ****             /* Enable EZI2C interrupts, after scan complete */
 125:.\Generated_Source\PSoC4/CapSense_1_TunerHelper.c ****             SCB_EnableInt();
 126:.\Generated_Source\PSoC4/CapSense_1_TunerHelper.c **** 
 127:.\Generated_Source\PSoC4/CapSense_1_TunerHelper.c ****             while((CapSense_1_mailboxesComm.csdMailbox.type != CapSense_1_TYPE_ID) ||
 128:.\Generated_Source\PSoC4/CapSense_1_TunerHelper.c **** 			      (0u != (SCB_EzI2CGetActivity() & SCB_EZI2C_STATUS_BUSY))){}
 129:.\Generated_Source\PSoC4/CapSense_1_TunerHelper.c ****             
 130:.\Generated_Source\PSoC4/CapSense_1_TunerHelper.c ****             /* Disable EZI2C interrupts, while scanning */
 131:.\Generated_Source\PSoC4/CapSense_1_TunerHelper.c ****             SCB_DisableInt();
 132:.\Generated_Source\PSoC4/CapSense_1_TunerHelper.c ****             
 133:.\Generated_Source\PSoC4/CapSense_1_TunerHelper.c ****             /* Start scan all sensors */
 134:.\Generated_Source\PSoC4/CapSense_1_TunerHelper.c ****             CapSense_1_ScanEnabledWidgets();
 135:.\Generated_Source\PSoC4/CapSense_1_TunerHelper.c ****         }
 136:.\Generated_Source\PSoC4/CapSense_1_TunerHelper.c ****     #endif /* (0u != CapSense_1_TUNER_API_GENERATE) */
 137:.\Generated_Source\PSoC4/CapSense_1_TunerHelper.c **** }
  57              		.loc 1 137 0
  58 0004 BD46     		mov	sp, r7
  59              		@ sp needed
  60 0006 80BD     		pop	{r7, pc}
  61              		.cfi_endproc
  62              	.LFE34:
  63              		.size	CapSense_1_TunerComm, .-CapSense_1_TunerComm
  64              		.text
  65              	.Letext0: