ARM GAS  C:\Users\mitchell\AppData\Local\Temp\cc5pMFOa.s 			page 1


   1              		.cpu cortex-m0
   2              		.fpu softvfp
   3              		.eabi_attribute 20, 1
   4              		.eabi_attribute 21, 1
   5              		.eabi_attribute 23, 3
   6              		.eabi_attribute 24, 1
   7              		.eabi_attribute 25, 1
   8              		.eabi_attribute 26, 1
   9              		.eabi_attribute 30, 6
  10              		.eabi_attribute 34, 0
  11              		.eabi_attribute 18, 4
  12              		.code	16
  13              		.file	"CapSense_1.c"
  14              		.text
  15              	.Ltext0:
  16              		.cfi_sections	.debug_frame
  17              		.global	CapSense_1_csdStatusVar
  18              		.bss
  19              		.type	CapSense_1_csdStatusVar, %object
  20              		.size	CapSense_1_csdStatusVar, 1
  21              	CapSense_1_csdStatusVar:
  22 0000 00       		.space	1
  23              		.global	CapSense_1_sensorIndex
  24              		.type	CapSense_1_sensorIndex, %object
  25              		.size	CapSense_1_sensorIndex, 1
  26              	CapSense_1_sensorIndex:
  27 0001 00       		.space	1
  28              		.global	CapSense_1_sensorRaw
  29 0002 0000     		.align	2
  30              		.type	CapSense_1_sensorRaw, %object
  31              		.size	CapSense_1_sensorRaw, 10
  32              	CapSense_1_sensorRaw:
  33 0004 00000000 		.space	10
  33      00000000 
  33      0000
  34              		.comm	CapSense_1_csdTrim1,1,1
  35              		.comm	CapSense_1_unscannedSnsDriveMode,5,4
  36              		.comm	CapSense_1_sensorEnableMaskBackup,1,4
  37              		.global	CapSense_1_sensorEnableMask
  38              		.data
  39              		.align	2
  40              		.type	CapSense_1_sensorEnableMask, %object
  41              		.size	CapSense_1_sensorEnableMask, 1
  42              	CapSense_1_sensorEnableMask:
  43 0000 1F       		.byte	31
  44              		.global	CapSense_1_pcTable
  45 0001 000000   		.align	2
  46              		.type	CapSense_1_pcTable, %object
  47              		.size	CapSense_1_pcTable, 20
  48              	CapSense_1_pcTable:
  49 0004 08010440 		.word	1074004232
  50 0008 08010440 		.word	1074004232
  51 000c 08010440 		.word	1074004232
  52 0010 08010440 		.word	1074004232
  53 0014 08010440 		.word	1074004232
  54              		.global	CapSense_1_portTable
  55              		.section	.rodata
ARM GAS  C:\Users\mitchell\AppData\Local\Temp\cc5pMFOa.s 			page 2


  56              		.align	2
  57              		.type	CapSense_1_portTable, %object
  58              		.size	CapSense_1_portTable, 5
  59              	CapSense_1_portTable:
  60 0000 01       		.byte	1
  61 0001 01       		.byte	1
  62 0002 01       		.byte	1
  63 0003 01       		.byte	1
  64 0004 01       		.byte	1
  65              		.global	CapSense_1_maskTable
  66 0005 000000   		.align	2
  67              		.type	CapSense_1_maskTable, %object
  68              		.size	CapSense_1_maskTable, 20
  69              	CapSense_1_maskTable:
  70 0008 02000000 		.word	2
  71 000c 04000000 		.word	4
  72 0010 08000000 		.word	8
  73 0014 10000000 		.word	16
  74 0018 20000000 		.word	32
  75              		.global	CapSense_1_pinShiftTbl
  76              		.align	2
  77              		.type	CapSense_1_pinShiftTbl, %object
  78              		.size	CapSense_1_pinShiftTbl, 5
  79              	CapSense_1_pinShiftTbl:
  80 001c 01       		.byte	1
  81 001d 02       		.byte	2
  82 001e 03       		.byte	3
  83 001f 04       		.byte	4
  84 0020 05       		.byte	5
  85              		.global	CapSense_1_modulationIDAC
  86 0021 000000   		.align	2
  87              		.type	CapSense_1_modulationIDAC, %object
  88              		.size	CapSense_1_modulationIDAC, 5
  89              	CapSense_1_modulationIDAC:
  90 0024 3C       		.byte	60
  91 0025 78       		.byte	120
  92 0026 78       		.byte	120
  93 0027 78       		.byte	120
  94 0028 78       		.byte	120
  95              		.global	CapSense_1_widgetResolution
  96 0029 000000   		.align	2
  97              		.type	CapSense_1_widgetResolution, %object
  98              		.size	CapSense_1_widgetResolution, 4
  99              	CapSense_1_widgetResolution:
 100 002c 0000FF0F 		.word	268369920
 101              		.global	CapSense_1_senseClkDividerVal
 102              		.type	CapSense_1_senseClkDividerVal, %object
 103              		.size	CapSense_1_senseClkDividerVal, 1
 104              	CapSense_1_senseClkDividerVal:
 105 0030 01       		.byte	1
 106              		.global	CapSense_1_sampleClkDividerVal
 107              		.type	CapSense_1_sampleClkDividerVal, %object
 108              		.size	CapSense_1_sampleClkDividerVal, 1
 109              	CapSense_1_sampleClkDividerVal:
 110 0031 0C       		.byte	12
 111              		.global	CapSense_1_widgetNumber
 112 0032 0000     		.align	2
ARM GAS  C:\Users\mitchell\AppData\Local\Temp\cc5pMFOa.s 			page 3


 113              		.type	CapSense_1_widgetNumber, %object
 114              		.size	CapSense_1_widgetNumber, 5
 115              	CapSense_1_widgetNumber:
 116 0034 00000000 		.space	5
 116      00
 117              		.global	CapSense_1_prtSelTbl
 118 0039 000000   		.align	2
 119              		.type	CapSense_1_prtSelTbl, %object
 120              		.size	CapSense_1_prtSelTbl, 20
 121              	CapSense_1_prtSelTbl:
 122 003c 00000140 		.word	1073807360
 123 0040 04000140 		.word	1073807364
 124 0044 08000140 		.word	1073807368
 125 0048 0C000140 		.word	1073807372
 126 004c 10000140 		.word	1073807376
 127              		.global	CapSense_1_prtCfgTbl
 128              		.align	2
 129              		.type	CapSense_1_prtCfgTbl, %object
 130              		.size	CapSense_1_prtCfgTbl, 20
 131              	CapSense_1_prtCfgTbl:
 132 0050 08000440 		.word	1074003976
 133 0054 08010440 		.word	1074004232
 134 0058 08020440 		.word	1074004488
 135 005c 08030440 		.word	1074004744
 136 0060 08040440 		.word	1074005000
 137              		.global	CapSense_1_prtDRTbl
 138              		.align	2
 139              		.type	CapSense_1_prtDRTbl, %object
 140              		.size	CapSense_1_prtDRTbl, 20
 141              	CapSense_1_prtDRTbl:
 142 0064 00000440 		.word	1074003968
 143 0068 00010440 		.word	1074004224
 144 006c 00020440 		.word	1074004480
 145 0070 00030440 		.word	1074004736
 146 0074 00040440 		.word	1074004992
 147              		.section	.text.CapSense_1_Init,"ax",%progbits
 148              		.align	2
 149              		.global	CapSense_1_Init
 150              		.code	16
 151              		.thumb_func
 152              		.type	CapSense_1_Init, %function
 153              	CapSense_1_Init:
 154              	.LFB33:
 155              		.file 1 ".\\Generated_Source\\PSoC4\\CapSense_1.c"
   1:.\Generated_Source\PSoC4/CapSense_1.c **** /*******************************************************************************
   2:.\Generated_Source\PSoC4/CapSense_1.c **** * File Name: CapSense_1.c
   3:.\Generated_Source\PSoC4/CapSense_1.c **** * Version 2.20
   4:.\Generated_Source\PSoC4/CapSense_1.c **** *
   5:.\Generated_Source\PSoC4/CapSense_1.c **** * Description:
   6:.\Generated_Source\PSoC4/CapSense_1.c **** *  This file provides the source code for scanning APIs for the CapSense CSD 
   7:.\Generated_Source\PSoC4/CapSense_1.c **** *  component.
   8:.\Generated_Source\PSoC4/CapSense_1.c **** *
   9:.\Generated_Source\PSoC4/CapSense_1.c **** * Note:
  10:.\Generated_Source\PSoC4/CapSense_1.c **** *
  11:.\Generated_Source\PSoC4/CapSense_1.c **** ********************************************************************************
  12:.\Generated_Source\PSoC4/CapSense_1.c **** * Copyright 2014, Cypress Semiconductor Corporation.  All rights reserved.
  13:.\Generated_Source\PSoC4/CapSense_1.c **** * You may use this file only in accordance with the license, terms, conditions,
ARM GAS  C:\Users\mitchell\AppData\Local\Temp\cc5pMFOa.s 			page 4


  14:.\Generated_Source\PSoC4/CapSense_1.c **** * disclaimers, and limitations in the end user license agreement accompanying
  15:.\Generated_Source\PSoC4/CapSense_1.c **** * the software package with which this file was provided.
  16:.\Generated_Source\PSoC4/CapSense_1.c **** *******************************************************************************/
  17:.\Generated_Source\PSoC4/CapSense_1.c **** 
  18:.\Generated_Source\PSoC4/CapSense_1.c **** #include "CapSense_1.h"
  19:.\Generated_Source\PSoC4/CapSense_1.c **** #include "CapSense_1_PVT.h"
  20:.\Generated_Source\PSoC4/CapSense_1.c **** #include "cypins.h"
  21:.\Generated_Source\PSoC4/CapSense_1.c **** 
  22:.\Generated_Source\PSoC4/CapSense_1.c **** #if(0u != CapSense_1_CSHL_API_GENERATE)
  23:.\Generated_Source\PSoC4/CapSense_1.c **** 	#include "CapSense_1_CSHL.h"
  24:.\Generated_Source\PSoC4/CapSense_1.c **** #endif /* (0u != CapSense_1_CSHL_API_GENERATE) */
  25:.\Generated_Source\PSoC4/CapSense_1.c **** 
  26:.\Generated_Source\PSoC4/CapSense_1.c **** /* This definition is intended to prevent unexpected linker error. 
  27:.\Generated_Source\PSoC4/CapSense_1.c ****    For more details please see the IAR Technical Note 49981 */
  28:.\Generated_Source\PSoC4/CapSense_1.c **** #if defined(__ICCARM__)
  29:.\Generated_Source\PSoC4/CapSense_1.c **** 	extern void CapSense_1_EnableSensor(uint32 sensor);
  30:.\Generated_Source\PSoC4/CapSense_1.c **** 	extern void CapSense_1_DisableSensor(uint32 sensor);
  31:.\Generated_Source\PSoC4/CapSense_1.c **** #endif /* (__ICCARM__) */	
  32:.\Generated_Source\PSoC4/CapSense_1.c **** 
  33:.\Generated_Source\PSoC4/CapSense_1.c **** /* SmartSense functions */
  34:.\Generated_Source\PSoC4/CapSense_1.c **** #if (CapSense_1_TUNING_METHOD == CapSense_1__TUNING_AUTO)
  35:.\Generated_Source\PSoC4/CapSense_1.c ****     uint8 CapSense_1_lowLevelTuningDone = 0u;
  36:.\Generated_Source\PSoC4/CapSense_1.c **** 	uint8 scanSpeedTbl[((CapSense_1_TOTAL_SENSOR_COUNT - 1u) / 8u) + 1u];
  37:.\Generated_Source\PSoC4/CapSense_1.c **** #endif /* (CapSense_1_TUNING_METHOD == CapSense_1__TUNING_AUTO) */
  38:.\Generated_Source\PSoC4/CapSense_1.c **** 
  39:.\Generated_Source\PSoC4/CapSense_1.c **** #if(CapSense_1_PRS_OPTIONS != CapSense_1__PRS_NONE)
  40:.\Generated_Source\PSoC4/CapSense_1.c **** 	uint8 CapSense_1_prescalersTuningDone = 0u;
  41:.\Generated_Source\PSoC4/CapSense_1.c **** #endif /* (CapSense_1_PRS_OPTIONS == CapSense_1__PRS_NONE) */
  42:.\Generated_Source\PSoC4/CapSense_1.c ****             
  43:.\Generated_Source\PSoC4/CapSense_1.c **** /* Global software variables */
  44:.\Generated_Source\PSoC4/CapSense_1.c **** volatile uint8 CapSense_1_csdStatusVar = 0u;   /* CapSense CSD status, variable */
  45:.\Generated_Source\PSoC4/CapSense_1.c **** volatile uint8 CapSense_1_sensorIndex = 0u;    /* Index of scannig sensor */
  46:.\Generated_Source\PSoC4/CapSense_1.c **** 
  47:.\Generated_Source\PSoC4/CapSense_1.c **** /* Global array of Raw Counts */
  48:.\Generated_Source\PSoC4/CapSense_1.c **** uint16 CapSense_1_sensorRaw[CapSense_1_TOTAL_SENSOR_COUNT] = {0u};
  49:.\Generated_Source\PSoC4/CapSense_1.c **** 
  50:.\Generated_Source\PSoC4/CapSense_1.c **** /* Backup variables for trim registers*/
  51:.\Generated_Source\PSoC4/CapSense_1.c **** #if (CapSense_1_IDAC1_POLARITY == CapSense_1__IDAC_SINK)
  52:.\Generated_Source\PSoC4/CapSense_1.c **** 	uint8 CapSense_1_csdTrim2;   
  53:.\Generated_Source\PSoC4/CapSense_1.c **** #else
  54:.\Generated_Source\PSoC4/CapSense_1.c ****     uint8 CapSense_1_csdTrim1;	
  55:.\Generated_Source\PSoC4/CapSense_1.c **** #endif /* (CapSense_1_IDAC1_POLARITY == CapSense_1__IDAC_SINK) */
  56:.\Generated_Source\PSoC4/CapSense_1.c **** 
  57:.\Generated_Source\PSoC4/CapSense_1.c **** /* Global array of un-scanned sensors state */
  58:.\Generated_Source\PSoC4/CapSense_1.c **** uint8 CapSense_1_unscannedSnsDriveMode[CapSense_1_TOTAL_SENSOR_COUNT];
  59:.\Generated_Source\PSoC4/CapSense_1.c **** 
  60:.\Generated_Source\PSoC4/CapSense_1.c **** /* Backup array for CapSense_1_sensorEnableMask */
  61:.\Generated_Source\PSoC4/CapSense_1.c **** uint8 CapSense_1_sensorEnableMaskBackup[(((CapSense_1_TOTAL_SENSOR_COUNT - 1u) / 8u) + 1u)];
  62:.\Generated_Source\PSoC4/CapSense_1.c **** 
  63:.\Generated_Source\PSoC4/CapSense_1.c **** /* Configured constants and arrays by Customizer */
  64:.\Generated_Source\PSoC4/CapSense_1.c **** uint8 CapSense_1_sensorEnableMask[(((CapSense_1_TOTAL_SENSOR_COUNT - 1u) / 8u) + 1u)] = {
  65:.\Generated_Source\PSoC4/CapSense_1.c **** 0x1Fu, };
  66:.\Generated_Source\PSoC4/CapSense_1.c **** 
  67:.\Generated_Source\PSoC4/CapSense_1.c **** reg32 * CapSense_1_pcTable[] = {
  68:.\Generated_Source\PSoC4/CapSense_1.c ****     (reg32 *)CapSense_1_Sns__LinearSlider0_e0__LS__PC, 
  69:.\Generated_Source\PSoC4/CapSense_1.c ****     (reg32 *)CapSense_1_Sns__LinearSlider0_e1__LS__PC, 
  70:.\Generated_Source\PSoC4/CapSense_1.c ****     (reg32 *)CapSense_1_Sns__LinearSlider0_e2__LS__PC, 
ARM GAS  C:\Users\mitchell\AppData\Local\Temp\cc5pMFOa.s 			page 5


  71:.\Generated_Source\PSoC4/CapSense_1.c ****     (reg32 *)CapSense_1_Sns__LinearSlider0_e3__LS__PC, 
  72:.\Generated_Source\PSoC4/CapSense_1.c ****     (reg32 *)CapSense_1_Sns__LinearSlider0_e4__LS__PC, 
  73:.\Generated_Source\PSoC4/CapSense_1.c **** };
  74:.\Generated_Source\PSoC4/CapSense_1.c **** 
  75:.\Generated_Source\PSoC4/CapSense_1.c **** const uint8 CapSense_1_portTable[] = {
  76:.\Generated_Source\PSoC4/CapSense_1.c ****     CapSense_1_Sns__LinearSlider0_e0__LS__PORT, 
  77:.\Generated_Source\PSoC4/CapSense_1.c ****     CapSense_1_Sns__LinearSlider0_e1__LS__PORT, 
  78:.\Generated_Source\PSoC4/CapSense_1.c ****     CapSense_1_Sns__LinearSlider0_e2__LS__PORT, 
  79:.\Generated_Source\PSoC4/CapSense_1.c ****     CapSense_1_Sns__LinearSlider0_e3__LS__PORT, 
  80:.\Generated_Source\PSoC4/CapSense_1.c ****     CapSense_1_Sns__LinearSlider0_e4__LS__PORT, 
  81:.\Generated_Source\PSoC4/CapSense_1.c **** };
  82:.\Generated_Source\PSoC4/CapSense_1.c **** 
  83:.\Generated_Source\PSoC4/CapSense_1.c **** const uint32 CapSense_1_maskTable[] = {
  84:.\Generated_Source\PSoC4/CapSense_1.c ****     CapSense_1_Sns__LinearSlider0_e0__LS__MASK, 
  85:.\Generated_Source\PSoC4/CapSense_1.c ****     CapSense_1_Sns__LinearSlider0_e1__LS__MASK, 
  86:.\Generated_Source\PSoC4/CapSense_1.c ****     CapSense_1_Sns__LinearSlider0_e2__LS__MASK, 
  87:.\Generated_Source\PSoC4/CapSense_1.c ****     CapSense_1_Sns__LinearSlider0_e3__LS__MASK, 
  88:.\Generated_Source\PSoC4/CapSense_1.c ****     CapSense_1_Sns__LinearSlider0_e4__LS__MASK, 
  89:.\Generated_Source\PSoC4/CapSense_1.c **** };
  90:.\Generated_Source\PSoC4/CapSense_1.c **** 
  91:.\Generated_Source\PSoC4/CapSense_1.c **** const uint8 CapSense_1_pinShiftTbl[] = {
  92:.\Generated_Source\PSoC4/CapSense_1.c ****     (uint8) CapSense_1_Sns__LinearSlider0_e0__LS__SHIFT, 
  93:.\Generated_Source\PSoC4/CapSense_1.c ****     (uint8) CapSense_1_Sns__LinearSlider0_e1__LS__SHIFT, 
  94:.\Generated_Source\PSoC4/CapSense_1.c ****     (uint8) CapSense_1_Sns__LinearSlider0_e2__LS__SHIFT, 
  95:.\Generated_Source\PSoC4/CapSense_1.c ****     (uint8) CapSense_1_Sns__LinearSlider0_e3__LS__SHIFT, 
  96:.\Generated_Source\PSoC4/CapSense_1.c ****     (uint8) CapSense_1_Sns__LinearSlider0_e4__LS__SHIFT, 
  97:.\Generated_Source\PSoC4/CapSense_1.c **** };
  98:.\Generated_Source\PSoC4/CapSense_1.c **** 
  99:.\Generated_Source\PSoC4/CapSense_1.c **** const uint8 CapSense_1_modulationIDAC[CapSense_1_TOTAL_SENSOR_COUNT] = {
 100:.\Generated_Source\PSoC4/CapSense_1.c ****     60u, 120u, 120u, 120u, 120u, 
 101:.\Generated_Source\PSoC4/CapSense_1.c **** };
 102:.\Generated_Source\PSoC4/CapSense_1.c **** const uint32 CapSense_1_widgetResolution[CapSense_1_RESOLUTIONS_TBL_SIZE] = {
 103:.\Generated_Source\PSoC4/CapSense_1.c ****     CapSense_1_RESOLUTION_12_BITS,
 104:.\Generated_Source\PSoC4/CapSense_1.c **** };
 105:.\Generated_Source\PSoC4/CapSense_1.c **** 
 106:.\Generated_Source\PSoC4/CapSense_1.c **** const uint8 CapSense_1_senseClkDividerVal = 1u;
 107:.\Generated_Source\PSoC4/CapSense_1.c **** const uint8 CapSense_1_sampleClkDividerVal = 12u;
 108:.\Generated_Source\PSoC4/CapSense_1.c **** 
 109:.\Generated_Source\PSoC4/CapSense_1.c **** const uint8 CapSense_1_widgetNumber[CapSense_1_TOTAL_SENSOR_COUNT] = {
 110:.\Generated_Source\PSoC4/CapSense_1.c ****     0u, 0u, 0u, 0u, 0u, /* LinearSlider0__LS */
 111:.\Generated_Source\PSoC4/CapSense_1.c **** };
 112:.\Generated_Source\PSoC4/CapSense_1.c **** 
 113:.\Generated_Source\PSoC4/CapSense_1.c **** 
 114:.\Generated_Source\PSoC4/CapSense_1.c **** 
 115:.\Generated_Source\PSoC4/CapSense_1.c **** reg32* const CapSense_1_prtSelTbl[] = {
 116:.\Generated_Source\PSoC4/CapSense_1.c **** /* CY_PSOC4_4000 is default*/
 117:.\Generated_Source\PSoC4/CapSense_1.c **** 	((reg32 *) CYREG_HSIOM_PORT_SEL0),
 118:.\Generated_Source\PSoC4/CapSense_1.c **** 	((reg32 *) CYREG_HSIOM_PORT_SEL1),
 119:.\Generated_Source\PSoC4/CapSense_1.c **** 	((reg32 *) CYREG_HSIOM_PORT_SEL2),
 120:.\Generated_Source\PSoC4/CapSense_1.c **** 	((reg32 *) CYREG_HSIOM_PORT_SEL3),
 121:.\Generated_Source\PSoC4/CapSense_1.c **** #if (CapSense_1_CFG_REG_TBL_SIZE == 5u)
 122:.\Generated_Source\PSoC4/CapSense_1.c **** 	((reg32 *) CYREG_HSIOM_PORT_SEL4)
 123:.\Generated_Source\PSoC4/CapSense_1.c **** #elif(CapSense_1_CFG_REG_TBL_SIZE == 6u)
 124:.\Generated_Source\PSoC4/CapSense_1.c **** 	((reg32 *) CYREG_HSIOM_PORT_SEL4),
 125:.\Generated_Source\PSoC4/CapSense_1.c **** 	((reg32 *) CYREG_HSIOM_PORT_SEL5)
 126:.\Generated_Source\PSoC4/CapSense_1.c **** #elif(CapSense_1_CFG_REG_TBL_SIZE == 8u)
 127:.\Generated_Source\PSoC4/CapSense_1.c **** 	((reg32 *) CYREG_HSIOM_PORT_SEL4),
ARM GAS  C:\Users\mitchell\AppData\Local\Temp\cc5pMFOa.s 			page 6


 128:.\Generated_Source\PSoC4/CapSense_1.c **** 	((reg32 *) CYREG_HSIOM_PORT_SEL5),
 129:.\Generated_Source\PSoC4/CapSense_1.c **** 	((reg32 *) CYREG_HSIOM_PORT_SEL6),
 130:.\Generated_Source\PSoC4/CapSense_1.c **** 	((reg32 *) CYREG_HSIOM_PORT_SEL7)
 131:.\Generated_Source\PSoC4/CapSense_1.c **** #endif /* (CY_PSOC4_4200) */
 132:.\Generated_Source\PSoC4/CapSense_1.c **** };
 133:.\Generated_Source\PSoC4/CapSense_1.c **** 
 134:.\Generated_Source\PSoC4/CapSense_1.c **** reg32* const CapSense_1_prtCfgTbl[] = {
 135:.\Generated_Source\PSoC4/CapSense_1.c **** /* CY_PSOC4_4000 is default*/
 136:.\Generated_Source\PSoC4/CapSense_1.c **** 	((reg32 *) CYREG_PRT0_PC),
 137:.\Generated_Source\PSoC4/CapSense_1.c **** 	((reg32 *) CYREG_PRT1_PC),
 138:.\Generated_Source\PSoC4/CapSense_1.c **** 	((reg32 *) CYREG_PRT2_PC),
 139:.\Generated_Source\PSoC4/CapSense_1.c **** 	((reg32 *) CYREG_PRT3_PC),
 140:.\Generated_Source\PSoC4/CapSense_1.c **** #if (CapSense_1_CFG_REG_TBL_SIZE == 5u)
 141:.\Generated_Source\PSoC4/CapSense_1.c **** 	((reg32 *) CYREG_PRT4_PC)
 142:.\Generated_Source\PSoC4/CapSense_1.c **** #elif(CapSense_1_CFG_REG_TBL_SIZE == 6u)
 143:.\Generated_Source\PSoC4/CapSense_1.c **** 	((reg32 *) CYREG_PRT4_PC),
 144:.\Generated_Source\PSoC4/CapSense_1.c **** 	((reg32 *) CYREG_PRT5_PC)
 145:.\Generated_Source\PSoC4/CapSense_1.c **** #elif(CapSense_1_CFG_REG_TBL_SIZE == 8u)
 146:.\Generated_Source\PSoC4/CapSense_1.c **** 	((reg32 *) CYREG_PRT4_PC),
 147:.\Generated_Source\PSoC4/CapSense_1.c **** 	((reg32 *) CYREG_PRT5_PC),
 148:.\Generated_Source\PSoC4/CapSense_1.c **** 	((reg32 *) CYREG_PRT6_PC),
 149:.\Generated_Source\PSoC4/CapSense_1.c **** 	((reg32 *) CYREG_PRT7_PC)
 150:.\Generated_Source\PSoC4/CapSense_1.c **** #endif /* (CY_PSOC4_4200) */	
 151:.\Generated_Source\PSoC4/CapSense_1.c **** };
 152:.\Generated_Source\PSoC4/CapSense_1.c **** 
 153:.\Generated_Source\PSoC4/CapSense_1.c **** reg32* const CapSense_1_prtDRTbl[] = {
 154:.\Generated_Source\PSoC4/CapSense_1.c **** /* CY_PSOC4_4000 is default*/
 155:.\Generated_Source\PSoC4/CapSense_1.c **** 	((reg32 *) CYREG_PRT0_DR),
 156:.\Generated_Source\PSoC4/CapSense_1.c **** 	((reg32 *) CYREG_PRT1_DR),
 157:.\Generated_Source\PSoC4/CapSense_1.c **** 	((reg32 *) CYREG_PRT2_DR),
 158:.\Generated_Source\PSoC4/CapSense_1.c **** 	((reg32 *) CYREG_PRT3_DR),
 159:.\Generated_Source\PSoC4/CapSense_1.c **** #if (CapSense_1_CFG_REG_TBL_SIZE == 5u)
 160:.\Generated_Source\PSoC4/CapSense_1.c **** 	((reg32 *) CYREG_PRT4_DR)
 161:.\Generated_Source\PSoC4/CapSense_1.c **** #elif(CapSense_1_CFG_REG_TBL_SIZE == 6u)
 162:.\Generated_Source\PSoC4/CapSense_1.c **** 	((reg32 *) CYREG_PRT4_DR),
 163:.\Generated_Source\PSoC4/CapSense_1.c **** 	((reg32 *) CYREG_PRT5_DR),
 164:.\Generated_Source\PSoC4/CapSense_1.c **** #elif(CapSense_1_CFG_REG_TBL_SIZE == 8u)
 165:.\Generated_Source\PSoC4/CapSense_1.c **** 	((reg32 *) CYREG_PRT4_DR),
 166:.\Generated_Source\PSoC4/CapSense_1.c **** 	((reg32 *) CYREG_PRT5_DR),
 167:.\Generated_Source\PSoC4/CapSense_1.c **** 	((reg32 *) CYREG_PRT6_DR),
 168:.\Generated_Source\PSoC4/CapSense_1.c **** 	((reg32 *) CYREG_PRT7_DR),
 169:.\Generated_Source\PSoC4/CapSense_1.c **** #endif /* (CY_PSOC4_4200) */	
 170:.\Generated_Source\PSoC4/CapSense_1.c **** };
 171:.\Generated_Source\PSoC4/CapSense_1.c ****     
 172:.\Generated_Source\PSoC4/CapSense_1.c **** 
 173:.\Generated_Source\PSoC4/CapSense_1.c **** /*******************************************************************************
 174:.\Generated_Source\PSoC4/CapSense_1.c **** * Function Name: CapSense_1_Init
 175:.\Generated_Source\PSoC4/CapSense_1.c **** ********************************************************************************
 176:.\Generated_Source\PSoC4/CapSense_1.c **** *
 177:.\Generated_Source\PSoC4/CapSense_1.c **** * Summary:
 178:.\Generated_Source\PSoC4/CapSense_1.c **** *  API initializes default CapSense configuration provided by the customizer that defines 
 179:.\Generated_Source\PSoC4/CapSense_1.c **** *  the mode of component operations and resets all the sensors to an inactive state.
 180:.\Generated_Source\PSoC4/CapSense_1.c **** *
 181:.\Generated_Source\PSoC4/CapSense_1.c **** * Parameters:
 182:.\Generated_Source\PSoC4/CapSense_1.c **** *  None
 183:.\Generated_Source\PSoC4/CapSense_1.c **** *
 184:.\Generated_Source\PSoC4/CapSense_1.c **** * Return:
ARM GAS  C:\Users\mitchell\AppData\Local\Temp\cc5pMFOa.s 			page 7


 185:.\Generated_Source\PSoC4/CapSense_1.c **** *  None
 186:.\Generated_Source\PSoC4/CapSense_1.c **** *
 187:.\Generated_Source\PSoC4/CapSense_1.c **** * Global Variables:
 188:.\Generated_Source\PSoC4/CapSense_1.c **** *  CapSense_1_immunityIndex - defines immunity level.
 189:.\Generated_Source\PSoC4/CapSense_1.c **** *
 190:.\Generated_Source\PSoC4/CapSense_1.c **** * Side Effects:
 191:.\Generated_Source\PSoC4/CapSense_1.c **** *  None
 192:.\Generated_Source\PSoC4/CapSense_1.c **** * 
 193:.\Generated_Source\PSoC4/CapSense_1.c **** *******************************************************************************/
 194:.\Generated_Source\PSoC4/CapSense_1.c **** void CapSense_1_Init(void)
 195:.\Generated_Source\PSoC4/CapSense_1.c **** {   
 156              		.loc 1 195 0
 157              		.cfi_startproc
 158 0000 80B5     		push	{r7, lr}
 159              		.cfi_def_cfa_offset 8
 160              		.cfi_offset 7, -8
 161              		.cfi_offset 14, -4
 162 0002 82B0     		sub	sp, sp, #8
 163              		.cfi_def_cfa_offset 16
 164 0004 00AF     		add	r7, sp, #0
 165              		.cfi_def_cfa_register 7
 196:.\Generated_Source\PSoC4/CapSense_1.c **** 	uint32 curSensor;
 197:.\Generated_Source\PSoC4/CapSense_1.c **** 	
 198:.\Generated_Source\PSoC4/CapSense_1.c **** 	#if(CapSense_1_IS_SHIELD_ENABLE)
 199:.\Generated_Source\PSoC4/CapSense_1.c **** 		
 200:.\Generated_Source\PSoC4/CapSense_1.c **** 		#if((CapSense_1_CSH_TANK_PREGARGE_OPTION == CapSense_1__CAPPRIOBUF) || (0u != CapSense_1_CSH_TANK
 201:.\Generated_Source\PSoC4/CapSense_1.c **** 			uint32 newRegValue;
 202:.\Generated_Source\PSoC4/CapSense_1.c **** 			
 203:.\Generated_Source\PSoC4/CapSense_1.c **** 			newRegValue = CapSense_1_CTANK_CONNECTION_REG;
 204:.\Generated_Source\PSoC4/CapSense_1.c **** 	        newRegValue &= ~(CapSense_1_CSD_CTANK_CONNECTION_MASK);
 205:.\Generated_Source\PSoC4/CapSense_1.c **** 			newRegValue |= CapSense_1_CSD_CTANK_TO_AMUXBUS_B;
 206:.\Generated_Source\PSoC4/CapSense_1.c **** 	        CapSense_1_CTANK_CONNECTION_REG = newRegValue;
 207:.\Generated_Source\PSoC4/CapSense_1.c **** 			
 208:.\Generated_Source\PSoC4/CapSense_1.c **** 			#if(CapSense_1_CSH_TANK_PREGARGE_OPTION == CapSense_1__CAPPRIOBUF)
 209:.\Generated_Source\PSoC4/CapSense_1.c **** 				newRegValue = CapSense_1_CTANK_PORT_PC_REG;
 210:.\Generated_Source\PSoC4/CapSense_1.c **** 		        newRegValue &= ~(CapSense_1_CSD_CTANK_PC_MASK);
 211:.\Generated_Source\PSoC4/CapSense_1.c **** 				newRegValue |= CapSense_1_CTANK_PC_STRONG_MODE;
 212:.\Generated_Source\PSoC4/CapSense_1.c **** 		        CapSense_1_CTANK_PORT_PC_REG = newRegValue;
 213:.\Generated_Source\PSoC4/CapSense_1.c **** 				
 214:.\Generated_Source\PSoC4/CapSense_1.c **** 				newRegValue = CapSense_1_CTANK_PORT_DR_REG;
 215:.\Generated_Source\PSoC4/CapSense_1.c **** 		        newRegValue &= ~(CapSense_1_CTANK_DR_MASK);
 216:.\Generated_Source\PSoC4/CapSense_1.c **** 				newRegValue |= CapSense_1_CTANK_DR_CONFIG;
 217:.\Generated_Source\PSoC4/CapSense_1.c **** 		        CapSense_1_CTANK_PORT_DR_REG = newRegValue;
 218:.\Generated_Source\PSoC4/CapSense_1.c **** 			#endif /* (CapSense_1_CSH_TANK_PREGARGE_OPTION == CapSense_1__CAPPRIOBUF) */
 219:.\Generated_Source\PSoC4/CapSense_1.c **** 	        
 220:.\Generated_Source\PSoC4/CapSense_1.c **** 		#endif /* ((CapSense_1_CSH_TANK_PREGARGE_OPTION == CapSense_1__CAPPRIOBUF) || (CapSense_1_CSH_TAN
 221:.\Generated_Source\PSoC4/CapSense_1.c **** 		
 222:.\Generated_Source\PSoC4/CapSense_1.c **** 		CapSense_1_EnableShieldElectrode((uint32)CapSense_1_SHIELD_PIN_NUMBER, (uint32)CapSense_1_SHIELD_
 223:.\Generated_Source\PSoC4/CapSense_1.c **** 		
 224:.\Generated_Source\PSoC4/CapSense_1.c **** 	#endif /* (CapSense_1_IS_SHIELD_ENABLE) */
 225:.\Generated_Source\PSoC4/CapSense_1.c **** 	
 226:.\Generated_Source\PSoC4/CapSense_1.c **** 	for(curSensor = 0u; curSensor < CapSense_1_TOTAL_SENSOR_COUNT; curSensor++)
 166              		.loc 1 226 0
 167 0006 0023     		mov	r3, #0
 168 0008 7B60     		str	r3, [r7, #4]
 169 000a 07E0     		b	.L2
 170              	.L3:
ARM GAS  C:\Users\mitchell\AppData\Local\Temp\cc5pMFOa.s 			page 8


 227:.\Generated_Source\PSoC4/CapSense_1.c **** 	{
 228:.\Generated_Source\PSoC4/CapSense_1.c **** 		CapSense_1_unscannedSnsDriveMode[curSensor] = CapSense_1_CONNECT_INACTIVE_SNS;
 171              		.loc 1 228 0 discriminator 2
 172 000c 0A4A     		ldr	r2, .L4
 173 000e 7B68     		ldr	r3, [r7, #4]
 174 0010 D318     		add	r3, r2, r3
 175 0012 0022     		mov	r2, #0
 176 0014 1A70     		strb	r2, [r3]
 226:.\Generated_Source\PSoC4/CapSense_1.c **** 	for(curSensor = 0u; curSensor < CapSense_1_TOTAL_SENSOR_COUNT; curSensor++)
 177              		.loc 1 226 0 discriminator 2
 178 0016 7B68     		ldr	r3, [r7, #4]
 179 0018 0133     		add	r3, r3, #1
 180 001a 7B60     		str	r3, [r7, #4]
 181              	.L2:
 226:.\Generated_Source\PSoC4/CapSense_1.c **** 	for(curSensor = 0u; curSensor < CapSense_1_TOTAL_SENSOR_COUNT; curSensor++)
 182              		.loc 1 226 0 is_stmt 0 discriminator 1
 183 001c 7B68     		ldr	r3, [r7, #4]
 184 001e 042B     		cmp	r3, #4
 185 0020 F4D9     		bls	.L3
 229:.\Generated_Source\PSoC4/CapSense_1.c **** 	}
 230:.\Generated_Source\PSoC4/CapSense_1.c ****     
 231:.\Generated_Source\PSoC4/CapSense_1.c **** 	CapSense_1_CsdHwBlockInit();
 186              		.loc 1 231 0 is_stmt 1
 187 0022 FFF7FEFF 		bl	CapSense_1_CsdHwBlockInit
 232:.\Generated_Source\PSoC4/CapSense_1.c ****     CapSense_1_SetShieldDelay(CapSense_1_SHIELD_DELAY );
 188              		.loc 1 232 0
 189 0026 0020     		mov	r0, #0
 190 0028 FFF7FEFF 		bl	CapSense_1_SetShieldDelay
 233:.\Generated_Source\PSoC4/CapSense_1.c **** 	
 234:.\Generated_Source\PSoC4/CapSense_1.c **** 	/* Clear all sensors */
 235:.\Generated_Source\PSoC4/CapSense_1.c ****     CapSense_1_ClearSensors();
 191              		.loc 1 235 0
 192 002c FFF7FEFF 		bl	CapSense_1_ClearSensors
 236:.\Generated_Source\PSoC4/CapSense_1.c **** }
 193              		.loc 1 236 0
 194 0030 BD46     		mov	sp, r7
 195 0032 02B0     		add	sp, sp, #8
 196              		@ sp needed
 197 0034 80BD     		pop	{r7, pc}
 198              	.L5:
 199 0036 C046     		.align	2
 200              	.L4:
 201 0038 00000000 		.word	CapSense_1_unscannedSnsDriveMode
 202              		.cfi_endproc
 203              	.LFE33:
 204              		.size	CapSense_1_Init, .-CapSense_1_Init
 205              		.section	.text.CapSense_1_CsdHwBlockInit,"ax",%progbits
 206              		.align	2
 207              		.global	CapSense_1_CsdHwBlockInit
 208              		.code	16
 209              		.thumb_func
 210              		.type	CapSense_1_CsdHwBlockInit, %function
 211              	CapSense_1_CsdHwBlockInit:
 212              	.LFB34:
 237:.\Generated_Source\PSoC4/CapSense_1.c **** 
 238:.\Generated_Source\PSoC4/CapSense_1.c **** /*******************************************************************************
 239:.\Generated_Source\PSoC4/CapSense_1.c **** * Function Name: CapSense_1_CsdHwBlockInit
ARM GAS  C:\Users\mitchell\AppData\Local\Temp\cc5pMFOa.s 			page 9


 240:.\Generated_Source\PSoC4/CapSense_1.c **** ********************************************************************************
 241:.\Generated_Source\PSoC4/CapSense_1.c **** *
 242:.\Generated_Source\PSoC4/CapSense_1.c **** * Summary:
 243:.\Generated_Source\PSoC4/CapSense_1.c **** *  Initialises the hardware parameters of the CSD block 
 244:.\Generated_Source\PSoC4/CapSense_1.c **** *
 245:.\Generated_Source\PSoC4/CapSense_1.c **** * Parameters:
 246:.\Generated_Source\PSoC4/CapSense_1.c **** *  None
 247:.\Generated_Source\PSoC4/CapSense_1.c **** *
 248:.\Generated_Source\PSoC4/CapSense_1.c **** * Return:
 249:.\Generated_Source\PSoC4/CapSense_1.c **** *  None
 250:.\Generated_Source\PSoC4/CapSense_1.c **** *
 251:.\Generated_Source\PSoC4/CapSense_1.c **** * Global Variables:
 252:.\Generated_Source\PSoC4/CapSense_1.c **** *  CapSense_1_csdTrim1 - Contains IDAC trim register value for Sourcing Mode.
 253:.\Generated_Source\PSoC4/CapSense_1.c **** *  CapSense_1_csdTrim2 - Contains IDAC trim register value for Sinking Mode.
 254:.\Generated_Source\PSoC4/CapSense_1.c **** *
 255:.\Generated_Source\PSoC4/CapSense_1.c **** * Side Effects:
 256:.\Generated_Source\PSoC4/CapSense_1.c **** *  None
 257:.\Generated_Source\PSoC4/CapSense_1.c **** * 
 258:.\Generated_Source\PSoC4/CapSense_1.c **** *******************************************************************************/
 259:.\Generated_Source\PSoC4/CapSense_1.c **** void CapSense_1_CsdHwBlockInit(void)
 260:.\Generated_Source\PSoC4/CapSense_1.c **** {
 213              		.loc 1 260 0
 214              		.cfi_startproc
 215 0000 80B5     		push	{r7, lr}
 216              		.cfi_def_cfa_offset 8
 217              		.cfi_offset 7, -8
 218              		.cfi_offset 14, -4
 219 0002 82B0     		sub	sp, sp, #8
 220              		.cfi_def_cfa_offset 16
 221 0004 00AF     		add	r7, sp, #0
 222              		.cfi_def_cfa_register 7
 261:.\Generated_Source\PSoC4/CapSense_1.c **** 	uint32 newRegValue;
 262:.\Generated_Source\PSoC4/CapSense_1.c **** 	
 263:.\Generated_Source\PSoC4/CapSense_1.c **** 	    /* Set trim registers for CSD Mode */
 264:.\Generated_Source\PSoC4/CapSense_1.c ****     #if (CapSense_1_IDAC1_POLARITY == CapSense_1__IDAC_SINK)
 265:.\Generated_Source\PSoC4/CapSense_1.c **** 		/* iDAC1 Sinking Mode */ 
 266:.\Generated_Source\PSoC4/CapSense_1.c **** 		CapSense_1_csdTrim2 = (uint8)CapSense_1_CSD_TRIM2_REG;
 267:.\Generated_Source\PSoC4/CapSense_1.c **** 		newRegValue = CapSense_1_csdTrim2;
 268:.\Generated_Source\PSoC4/CapSense_1.c **** 		newRegValue &= CapSense_1_CSD_IDAC1_TRIM_MASK;
 269:.\Generated_Source\PSoC4/CapSense_1.c **** 		newRegValue |= (uint32)((uint32)CapSense_1_SFLASH_CSD_TRIM2_REG & (uint32)CapSense_1_CSFLASH_TRIM
 270:.\Generated_Source\PSoC4/CapSense_1.c **** 		
 271:.\Generated_Source\PSoC4/CapSense_1.c **** 		#if (CapSense_1_IDAC_CNT == 2u)
 272:.\Generated_Source\PSoC4/CapSense_1.c **** 		    /* iDAC2 Sinking Mode */ 
 273:.\Generated_Source\PSoC4/CapSense_1.c **** 			newRegValue &= CapSense_1_CSD_IDAC2_TRIM_MASK;
 274:.\Generated_Source\PSoC4/CapSense_1.c **** 			newRegValue |= (uint32)((uint32)CapSense_1_SFLASH_CSD_TRIM2_REG & (uint32)CapSense_1_CSFLASH_TRI
 275:.\Generated_Source\PSoC4/CapSense_1.c **** 		#endif /* (CapSense_1_IDAC_CNT == 2u) */
 276:.\Generated_Source\PSoC4/CapSense_1.c **** 		CapSense_1_CSD_TRIM2_REG = newRegValue;
 277:.\Generated_Source\PSoC4/CapSense_1.c ****     #else   
 278:.\Generated_Source\PSoC4/CapSense_1.c **** 		/* iDAC1 Sourcing Mode */ 
 279:.\Generated_Source\PSoC4/CapSense_1.c **** 		CapSense_1_csdTrim1 = (uint8)CapSense_1_CSD_TRIM1_REG;
 223              		.loc 1 279 0
 224 0006 274B     		ldr	r3, .L7
 225 0008 1B68     		ldr	r3, [r3]
 226 000a DAB2     		uxtb	r2, r3
 227 000c 264B     		ldr	r3, .L7+4
 228 000e 1A70     		strb	r2, [r3]
 280:.\Generated_Source\PSoC4/CapSense_1.c **** 		newRegValue = CapSense_1_csdTrim1;
ARM GAS  C:\Users\mitchell\AppData\Local\Temp\cc5pMFOa.s 			page 10


 229              		.loc 1 280 0
 230 0010 254B     		ldr	r3, .L7+4
 231 0012 1B78     		ldrb	r3, [r3]
 232 0014 7B60     		str	r3, [r7, #4]
 281:.\Generated_Source\PSoC4/CapSense_1.c **** 		newRegValue &= CapSense_1_CSD_IDAC1_TRIM_MASK;
 233              		.loc 1 281 0
 234 0016 7B68     		ldr	r3, [r7, #4]
 235 0018 0F22     		mov	r2, #15
 236 001a 9343     		bic	r3, r2
 237 001c 7B60     		str	r3, [r7, #4]
 282:.\Generated_Source\PSoC4/CapSense_1.c **** 		newRegValue |= (uint32)((uint32)CapSense_1_SFLASH_CSD_TRIM1_REG & (uint32)CapSense_1_CSFLASH_TRIM
 238              		.loc 1 282 0
 239 001e 234B     		ldr	r3, .L7+8
 240 0020 1B78     		ldrb	r3, [r3]
 241 0022 DBB2     		uxtb	r3, r3
 242 0024 1A1C     		mov	r2, r3
 243 0026 0F23     		mov	r3, #15
 244 0028 1340     		and	r3, r2
 245 002a 7A68     		ldr	r2, [r7, #4]
 246 002c 1343     		orr	r3, r2
 247 002e 7B60     		str	r3, [r7, #4]
 283:.\Generated_Source\PSoC4/CapSense_1.c **** 		#if (CapSense_1_IDAC_CNT == 2u)
 284:.\Generated_Source\PSoC4/CapSense_1.c **** 		     /* iDAC2 Sourcing Mode */ 
 285:.\Generated_Source\PSoC4/CapSense_1.c **** 			newRegValue &= CapSense_1_CSD_IDAC2_TRIM_MASK;
 286:.\Generated_Source\PSoC4/CapSense_1.c **** 			newRegValue |= (uint32)((uint32)CapSense_1_SFLASH_CSD_TRIM1_REG & (uint32)CapSense_1_CSFLASH_TRI
 287:.\Generated_Source\PSoC4/CapSense_1.c **** 		#endif		
 288:.\Generated_Source\PSoC4/CapSense_1.c **** 		CapSense_1_CSD_TRIM1_REG = newRegValue;
 248              		.loc 1 288 0
 249 0030 1C4B     		ldr	r3, .L7
 250 0032 7A68     		ldr	r2, [r7, #4]
 251 0034 1A60     		str	r2, [r3]
 289:.\Generated_Source\PSoC4/CapSense_1.c ****     #endif /* (CapSense_1_IDAC1_POLARITY == CapSense_1__IDAC_SINK) */
 290:.\Generated_Source\PSoC4/CapSense_1.c **** 	
 291:.\Generated_Source\PSoC4/CapSense_1.c **** 	/* Configure CSD and IDAC */
 292:.\Generated_Source\PSoC4/CapSense_1.c **** 	#if (CapSense_1_IDAC_CNT > 1u)
 293:.\Generated_Source\PSoC4/CapSense_1.c **** 		CapSense_1_CSD_IDAC_REG = CapSense_1_DEFAULT_CSD_IDAC_CONFIG;
 294:.\Generated_Source\PSoC4/CapSense_1.c **** 		CapSense_1_CSD_CFG_REG = CapSense_1_DEFAULT_CSD_CONFIG;
 295:.\Generated_Source\PSoC4/CapSense_1.c **** 	#else
 296:.\Generated_Source\PSoC4/CapSense_1.c **** 		CapSense_1_CSD_IDAC_REG &= ~(CapSense_1_CSD_IDAC1_MODE_MASK  | CapSense_1_CSD_IDAC1_DATA_MASK);
 252              		.loc 1 296 0
 253 0036 1E4B     		ldr	r3, .L7+12
 254 0038 1D4A     		ldr	r2, .L7+12
 255 003a 1268     		ldr	r2, [r2]
 256 003c 920A     		lsr	r2, r2, #10
 257 003e 9202     		lsl	r2, r2, #10
 258 0040 1A60     		str	r2, [r3]
 297:.\Generated_Source\PSoC4/CapSense_1.c **** 		CapSense_1_CSD_IDAC_REG |= CapSense_1_DEFAULT_CSD_IDAC_CONFIG;
 259              		.loc 1 297 0
 260 0042 1B4B     		ldr	r3, .L7+12
 261 0044 1A4A     		ldr	r2, .L7+12
 262 0046 1268     		ldr	r2, [r2]
 263 0048 8021     		mov	r1, #128
 264 004a 8900     		lsl	r1, r1, #2
 265 004c 0A43     		orr	r2, r1
 266 004e 1A60     		str	r2, [r3]
 298:.\Generated_Source\PSoC4/CapSense_1.c **** 		
 299:.\Generated_Source\PSoC4/CapSense_1.c **** 		CapSense_1_CSD_CFG_REG &= ~(CapSense_1_CSD_CONFIG_MASK);
ARM GAS  C:\Users\mitchell\AppData\Local\Temp\cc5pMFOa.s 			page 11


 267              		.loc 1 299 0
 268 0050 184B     		ldr	r3, .L7+16
 269 0052 184A     		ldr	r2, .L7+16
 270 0054 1168     		ldr	r1, [r2]
 271 0056 184A     		ldr	r2, .L7+20
 272 0058 0A40     		and	r2, r1
 273 005a 1A60     		str	r2, [r3]
 300:.\Generated_Source\PSoC4/CapSense_1.c **** 		CapSense_1_CSD_CFG_REG |= (CapSense_1_DEFAULT_CSD_CONFIG);
 274              		.loc 1 300 0
 275 005c 154B     		ldr	r3, .L7+16
 276 005e 154A     		ldr	r2, .L7+16
 277 0060 1268     		ldr	r2, [r2]
 278 0062 1649     		ldr	r1, .L7+24
 279 0064 0A43     		orr	r2, r1
 280 0066 1A60     		str	r2, [r3]
 301:.\Generated_Source\PSoC4/CapSense_1.c **** 	#endif /* (CapSense_1_IDAC_CNT > 1u) */
 302:.\Generated_Source\PSoC4/CapSense_1.c **** 	
 303:.\Generated_Source\PSoC4/CapSense_1.c **** 	
 304:.\Generated_Source\PSoC4/CapSense_1.c **** 	/* Connect Cmod to AMUX bus */ 
 305:.\Generated_Source\PSoC4/CapSense_1.c **** 	newRegValue = CapSense_1_CMOD_CONNECTION_REG; 
 281              		.loc 1 305 0
 282 0068 154B     		ldr	r3, .L7+28
 283 006a 1B68     		ldr	r3, [r3]
 284 006c 7B60     		str	r3, [r7, #4]
 306:.\Generated_Source\PSoC4/CapSense_1.c ****     newRegValue &= ~(CapSense_1_CSD_CMOD_CONNECTION_MASK);
 285              		.loc 1 306 0
 286 006e 7A68     		ldr	r2, [r7, #4]
 287 0070 144B     		ldr	r3, .L7+32
 288 0072 1340     		and	r3, r2
 289 0074 7B60     		str	r3, [r7, #4]
 307:.\Generated_Source\PSoC4/CapSense_1.c ****     newRegValue |= CapSense_1_CSD_CMOD_TO_AMUXBUS_A;
 290              		.loc 1 307 0
 291 0076 7B68     		ldr	r3, [r7, #4]
 292 0078 C022     		mov	r2, #192
 293 007a D200     		lsl	r2, r2, #3
 294 007c 1343     		orr	r3, r2
 295 007e 7B60     		str	r3, [r7, #4]
 308:.\Generated_Source\PSoC4/CapSense_1.c ****     CapSense_1_CMOD_CONNECTION_REG = newRegValue;
 296              		.loc 1 308 0
 297 0080 0F4B     		ldr	r3, .L7+28
 298 0082 7A68     		ldr	r2, [r7, #4]
 299 0084 1A60     		str	r2, [r3]
 309:.\Generated_Source\PSoC4/CapSense_1.c **** 	
 310:.\Generated_Source\PSoC4/CapSense_1.c **** 	/* Configure Dead Band PWM if it is enabled */
 311:.\Generated_Source\PSoC4/CapSense_1.c **** 	#if(CapSense_1_CSD_4B_PWM_MODE != CapSense_1__PWM_OFF)
 312:.\Generated_Source\PSoC4/CapSense_1.c **** 		CapSense_1_CSD_4B_PWM_REG = CapSense_1_DEFAULT_CSD_4B_PWM_CONFIG;
 313:.\Generated_Source\PSoC4/CapSense_1.c **** 	#endif /* (CapSense_1_CSD_4B_PWM_MODE != CapSense_1__PWM_OFF) */
 314:.\Generated_Source\PSoC4/CapSense_1.c **** 
 315:.\Generated_Source\PSoC4/CapSense_1.c **** 	/* Setup ISR */
 316:.\Generated_Source\PSoC4/CapSense_1.c **** 	CyIntDisable(CapSense_1_ISR_NUMBER);
 300              		.loc 1 316 0
 301 0086 0F20     		mov	r0, #15
 302 0088 FFF7FEFF 		bl	CyIntDisable
 317:.\Generated_Source\PSoC4/CapSense_1.c **** 	#if !defined(CY_EXTERNAL_INTERRUPT_CONFIG)		
 318:.\Generated_Source\PSoC4/CapSense_1.c **** 	    (void)CyIntSetVector(CapSense_1_ISR_NUMBER, &CapSense_1_ISR);
 303              		.loc 1 318 0
 304 008c 0E4B     		ldr	r3, .L7+36
ARM GAS  C:\Users\mitchell\AppData\Local\Temp\cc5pMFOa.s 			page 12


 305 008e 0F20     		mov	r0, #15
 306 0090 191C     		mov	r1, r3
 307 0092 FFF7FEFF 		bl	CyIntSetVector
 319:.\Generated_Source\PSoC4/CapSense_1.c **** 	    CyIntSetPriority(CapSense_1_ISR_NUMBER, CapSense_1_ISR_PRIORITY);
 308              		.loc 1 319 0
 309 0096 0F20     		mov	r0, #15
 310 0098 0321     		mov	r1, #3
 311 009a FFF7FEFF 		bl	CyIntSetPriority
 320:.\Generated_Source\PSoC4/CapSense_1.c **** 	#endif /* (CY_EXTERNAL_INTERRUPT_CONFIG) */
 321:.\Generated_Source\PSoC4/CapSense_1.c **** }
 312              		.loc 1 321 0
 313 009e BD46     		mov	sp, r7
 314 00a0 02B0     		add	sp, sp, #8
 315              		@ sp needed
 316 00a2 80BD     		pop	{r7, pc}
 317              	.L8:
 318              		.align	2
 319              	.L7:
 320 00a4 00FF0840 		.word	1074331392
 321 00a8 00000000 		.word	CapSense_1_csdTrim1
 322 00ac 62F1FF0F 		.word	268431714
 323 00b0 08000840 		.word	1074266120
 324 00b4 04000840 		.word	1074266116
 325 00b8 37D75EFE 		.word	-27338953
 326 00bc 0008A001 		.word	27265024
 327 00c0 10000140 		.word	1073807376
 328 00c4 FFF0FFFF 		.word	-3841
 329 00c8 00000000 		.word	CapSense_1_ISR
 330              		.cfi_endproc
 331              	.LFE34:
 332              		.size	CapSense_1_CsdHwBlockInit, .-CapSense_1_CsdHwBlockInit
 333              		.section	.text.CapSense_1_Enable,"ax",%progbits
 334              		.align	2
 335              		.global	CapSense_1_Enable
 336              		.code	16
 337              		.thumb_func
 338              		.type	CapSense_1_Enable, %function
 339              	CapSense_1_Enable:
 340              	.LFB35:
 322:.\Generated_Source\PSoC4/CapSense_1.c **** 
 323:.\Generated_Source\PSoC4/CapSense_1.c **** 
 324:.\Generated_Source\PSoC4/CapSense_1.c **** /*******************************************************************************
 325:.\Generated_Source\PSoC4/CapSense_1.c **** * Function Name: CapSense_1_Enable
 326:.\Generated_Source\PSoC4/CapSense_1.c **** ********************************************************************************
 327:.\Generated_Source\PSoC4/CapSense_1.c **** *
 328:.\Generated_Source\PSoC4/CapSense_1.c **** * Summary:
 329:.\Generated_Source\PSoC4/CapSense_1.c **** *  Enables the CSD block and related resources to an active mode.
 330:.\Generated_Source\PSoC4/CapSense_1.c **** *
 331:.\Generated_Source\PSoC4/CapSense_1.c **** * Parameters:
 332:.\Generated_Source\PSoC4/CapSense_1.c **** *  None
 333:.\Generated_Source\PSoC4/CapSense_1.c **** *
 334:.\Generated_Source\PSoC4/CapSense_1.c **** * Return:
 335:.\Generated_Source\PSoC4/CapSense_1.c **** *  None
 336:.\Generated_Source\PSoC4/CapSense_1.c **** *
 337:.\Generated_Source\PSoC4/CapSense_1.c **** * Global Variables:
 338:.\Generated_Source\PSoC4/CapSense_1.c **** *  None.
 339:.\Generated_Source\PSoC4/CapSense_1.c **** *
ARM GAS  C:\Users\mitchell\AppData\Local\Temp\cc5pMFOa.s 			page 13


 340:.\Generated_Source\PSoC4/CapSense_1.c **** * Side Effects:
 341:.\Generated_Source\PSoC4/CapSense_1.c **** *  None
 342:.\Generated_Source\PSoC4/CapSense_1.c **** * 
 343:.\Generated_Source\PSoC4/CapSense_1.c **** *******************************************************************************/
 344:.\Generated_Source\PSoC4/CapSense_1.c **** void CapSense_1_Enable(void)
 345:.\Generated_Source\PSoC4/CapSense_1.c **** {
 341              		.loc 1 345 0
 342              		.cfi_startproc
 343 0000 80B5     		push	{r7, lr}
 344              		.cfi_def_cfa_offset 8
 345              		.cfi_offset 7, -8
 346              		.cfi_offset 14, -4
 347 0002 82B0     		sub	sp, sp, #8
 348              		.cfi_def_cfa_offset 16
 349 0004 00AF     		add	r7, sp, #0
 350              		.cfi_def_cfa_register 7
 346:.\Generated_Source\PSoC4/CapSense_1.c ****     uint32 newRegValue;
 347:.\Generated_Source\PSoC4/CapSense_1.c ****     
 348:.\Generated_Source\PSoC4/CapSense_1.c ****     /* Enable Clocks */
 349:.\Generated_Source\PSoC4/CapSense_1.c **** 	CapSense_1_SenseClk_Stop();
 351              		.loc 1 349 0
 352 0006 FFF7FEFF 		bl	CapSense_1_SenseClk_Stop
 350:.\Generated_Source\PSoC4/CapSense_1.c **** 	CapSense_1_SampleClk_Stop();
 353              		.loc 1 350 0
 354 000a FFF7FEFF 		bl	CapSense_1_SampleClk_Stop
 351:.\Generated_Source\PSoC4/CapSense_1.c **** 	
 352:.\Generated_Source\PSoC4/CapSense_1.c **** 	CapSense_1_SampleClk_SetDividerValue((uint16)CapSense_1_INITIAL_CLK_DIVIDER);
 355              		.loc 1 352 0
 356 000e 0020     		mov	r0, #0
 357 0010 0021     		mov	r1, #0
 358 0012 FFF7FEFF 		bl	CapSense_1_SampleClk_SetFractionalDividerRegister
 353:.\Generated_Source\PSoC4/CapSense_1.c **** 	CapSense_1_SenseClk_SetDividerValue((uint16)CapSense_1_INITIAL_CLK_DIVIDER);
 359              		.loc 1 353 0
 360 0016 0020     		mov	r0, #0
 361 0018 0021     		mov	r1, #0
 362 001a FFF7FEFF 		bl	CapSense_1_SenseClk_SetFractionalDividerRegister
 354:.\Generated_Source\PSoC4/CapSense_1.c **** 	
 355:.\Generated_Source\PSoC4/CapSense_1.c **** 	#if (0u == CapSense_1_IS_M0S8PERI_BLOCK)
 356:.\Generated_Source\PSoC4/CapSense_1.c **** 		CapSense_1_SenseClk_Start();
 363              		.loc 1 356 0
 364 001e FFF7FEFF 		bl	CapSense_1_SenseClk_Start
 357:.\Generated_Source\PSoC4/CapSense_1.c **** 		CapSense_1_SampleClk_Start();
 365              		.loc 1 357 0
 366 0022 FFF7FEFF 		bl	CapSense_1_SampleClk_Start
 358:.\Generated_Source\PSoC4/CapSense_1.c **** 	#else
 359:.\Generated_Source\PSoC4/CapSense_1.c **** 		CapSense_1_SampleClk_Start();
 360:.\Generated_Source\PSoC4/CapSense_1.c **** 		CapSense_1_SenseClk_StartEx(CapSense_1_SampleClk__DIV_ID);
 361:.\Generated_Source\PSoC4/CapSense_1.c **** 	#endif /* (0u == CapSense_1_IS_M0S8PERI_BLOCK) */
 362:.\Generated_Source\PSoC4/CapSense_1.c **** 	
 363:.\Generated_Source\PSoC4/CapSense_1.c **** 	/* Enable the CSD block */
 364:.\Generated_Source\PSoC4/CapSense_1.c ****     newRegValue = CapSense_1_CSD_CFG_REG;
 367              		.loc 1 364 0
 368 0026 084B     		ldr	r3, .L10
 369 0028 1B68     		ldr	r3, [r3]
 370 002a 7B60     		str	r3, [r7, #4]
 365:.\Generated_Source\PSoC4/CapSense_1.c ****     newRegValue |= (CapSense_1_CSD_CFG_ENABLE | CapSense_1_CSD_CFG_SENSE_COMP_EN 
 371              		.loc 1 365 0
ARM GAS  C:\Users\mitchell\AppData\Local\Temp\cc5pMFOa.s 			page 14


 372 002c 7B68     		ldr	r3, [r7, #4]
 373 002e 074A     		ldr	r2, .L10+4
 374 0030 1343     		orr	r3, r2
 375 0032 7B60     		str	r3, [r7, #4]
 366:.\Generated_Source\PSoC4/CapSense_1.c ****                                                    | CapSense_1_CSD_CFG_SENSE_EN);    
 367:.\Generated_Source\PSoC4/CapSense_1.c ****     CapSense_1_CSD_CFG_REG = newRegValue;
 376              		.loc 1 367 0
 377 0034 044B     		ldr	r3, .L10
 378 0036 7A68     		ldr	r2, [r7, #4]
 379 0038 1A60     		str	r2, [r3]
 368:.\Generated_Source\PSoC4/CapSense_1.c **** 
 369:.\Generated_Source\PSoC4/CapSense_1.c ****     /* Enable interrupt */
 370:.\Generated_Source\PSoC4/CapSense_1.c ****     CyIntEnable(CapSense_1_ISR_NUMBER);
 380              		.loc 1 370 0
 381 003a 0F20     		mov	r0, #15
 382 003c FFF7FEFF 		bl	CyIntEnable
 371:.\Generated_Source\PSoC4/CapSense_1.c **** }
 383              		.loc 1 371 0
 384 0040 BD46     		mov	sp, r7
 385 0042 02B0     		add	sp, sp, #8
 386              		@ sp needed
 387 0044 80BD     		pop	{r7, pc}
 388              	.L11:
 389 0046 C046     		.align	2
 390              	.L10:
 391 0048 04000840 		.word	1074266116
 392 004c 00100880 		.word	-2146955264
 393              		.cfi_endproc
 394              	.LFE35:
 395              		.size	CapSense_1_Enable, .-CapSense_1_Enable
 396              		.section	.text.CapSense_1_Start,"ax",%progbits
 397              		.align	2
 398              		.global	CapSense_1_Start
 399              		.code	16
 400              		.thumb_func
 401              		.type	CapSense_1_Start, %function
 402              	CapSense_1_Start:
 403              	.LFB36:
 372:.\Generated_Source\PSoC4/CapSense_1.c **** 
 373:.\Generated_Source\PSoC4/CapSense_1.c **** 
 374:.\Generated_Source\PSoC4/CapSense_1.c **** /*******************************************************************************
 375:.\Generated_Source\PSoC4/CapSense_1.c **** * Function Name: CapSense_1_Start
 376:.\Generated_Source\PSoC4/CapSense_1.c **** ********************************************************************************
 377:.\Generated_Source\PSoC4/CapSense_1.c **** *
 378:.\Generated_Source\PSoC4/CapSense_1.c **** * Summary:
 379:.\Generated_Source\PSoC4/CapSense_1.c **** *  This is the preferred method to begin the component operation. CapSense_Start() 
 380:.\Generated_Source\PSoC4/CapSense_1.c **** *  calls the CapSense_Init() function, and then calls the CapSense_Enable() 
 381:.\Generated_Source\PSoC4/CapSense_1.c **** *  function. Initializes the registers and starts the CSD method of the CapSense 
 382:.\Generated_Source\PSoC4/CapSense_1.c **** *  component. Resets all the sensors to an inactive state. Enables interrupts for 
 383:.\Generated_Source\PSoC4/CapSense_1.c **** *  sensors scanning. When the SmartSense tuning mode is selected, the tuning procedure
 384:.\Generated_Source\PSoC4/CapSense_1.c **** *  is applied for all the sensors. The CapSense_Start() routine must be called before 
 385:.\Generated_Source\PSoC4/CapSense_1.c **** *  any other API routines.
 386:.\Generated_Source\PSoC4/CapSense_1.c **** *
 387:.\Generated_Source\PSoC4/CapSense_1.c **** * Parameters:
 388:.\Generated_Source\PSoC4/CapSense_1.c **** *  None
 389:.\Generated_Source\PSoC4/CapSense_1.c **** *
 390:.\Generated_Source\PSoC4/CapSense_1.c **** * Return:
ARM GAS  C:\Users\mitchell\AppData\Local\Temp\cc5pMFOa.s 			page 15


 391:.\Generated_Source\PSoC4/CapSense_1.c **** *  None
 392:.\Generated_Source\PSoC4/CapSense_1.c **** *
 393:.\Generated_Source\PSoC4/CapSense_1.c **** * Global Variables:
 394:.\Generated_Source\PSoC4/CapSense_1.c **** *   CapSense_1_initVar - used to check the initial configuration, 
 395:.\Generated_Source\PSoC4/CapSense_1.c **** *   modified on the first function call.
 396:.\Generated_Source\PSoC4/CapSense_1.c **** *  CapSense_1_lowLevelTuningDone - Used to notify the Tuner GUI that 
 397:.\Generated_Source\PSoC4/CapSense_1.c **** *   tuning of the scanning parameters is done. 
 398:.\Generated_Source\PSoC4/CapSense_1.c **** *
 399:.\Generated_Source\PSoC4/CapSense_1.c **** * Side Effects:
 400:.\Generated_Source\PSoC4/CapSense_1.c **** *  None
 401:.\Generated_Source\PSoC4/CapSense_1.c **** * 
 402:.\Generated_Source\PSoC4/CapSense_1.c **** *******************************************************************************/
 403:.\Generated_Source\PSoC4/CapSense_1.c **** void CapSense_1_Start(void)
 404:.\Generated_Source\PSoC4/CapSense_1.c **** {
 404              		.loc 1 404 0
 405              		.cfi_startproc
 406 0000 80B5     		push	{r7, lr}
 407              		.cfi_def_cfa_offset 8
 408              		.cfi_offset 7, -8
 409              		.cfi_offset 14, -4
 410 0002 00AF     		add	r7, sp, #0
 411              		.cfi_def_cfa_register 7
 405:.\Generated_Source\PSoC4/CapSense_1.c **** 
 406:.\Generated_Source\PSoC4/CapSense_1.c **** 	static uint8 CapSense_1_initVar = 0u;
 407:.\Generated_Source\PSoC4/CapSense_1.c **** 
 408:.\Generated_Source\PSoC4/CapSense_1.c **** 	#if((0u != CapSense_1_AUTOCALIBRATION_ENABLE) && (CapSense_1_TUNING_METHOD != CapSense_1__TUNING_A
 409:.\Generated_Source\PSoC4/CapSense_1.c **** 		uint32 curSensor;
 410:.\Generated_Source\PSoC4/CapSense_1.c **** 		uint32 rawLevel;
 411:.\Generated_Source\PSoC4/CapSense_1.c **** 		uint32 widget;
 412:.\Generated_Source\PSoC4/CapSense_1.c ****     #endif /* ((0u != CapSense_1_AUTOCALIBRATION_ENABLE) && (CapSense_1_TUNING_METHOD != CapSense_1
 413:.\Generated_Source\PSoC4/CapSense_1.c **** 	
 414:.\Generated_Source\PSoC4/CapSense_1.c ****     if (CapSense_1_initVar == 0u)
 412              		.loc 1 414 0
 413 0004 094B     		ldr	r3, .L14
 414 0006 1B78     		ldrb	r3, [r3]
 415 0008 002B     		cmp	r3, #0
 416 000a 04D1     		bne	.L13
 415:.\Generated_Source\PSoC4/CapSense_1.c ****     {
 416:.\Generated_Source\PSoC4/CapSense_1.c ****         CapSense_1_Init();
 417              		.loc 1 416 0
 418 000c FFF7FEFF 		bl	CapSense_1_Init
 417:.\Generated_Source\PSoC4/CapSense_1.c ****         CapSense_1_initVar = 1u;
 419              		.loc 1 417 0
 420 0010 064B     		ldr	r3, .L14
 421 0012 0122     		mov	r2, #1
 422 0014 1A70     		strb	r2, [r3]
 423              	.L13:
 418:.\Generated_Source\PSoC4/CapSense_1.c ****     }
 419:.\Generated_Source\PSoC4/CapSense_1.c ****     CapSense_1_Enable();
 424              		.loc 1 419 0
 425 0016 FFF7FEFF 		bl	CapSense_1_Enable
 420:.\Generated_Source\PSoC4/CapSense_1.c **** 	
 421:.\Generated_Source\PSoC4/CapSense_1.c ****     /* AutoTunning start */
 422:.\Generated_Source\PSoC4/CapSense_1.c ****     #if(CapSense_1_TUNING_METHOD == CapSense_1__TUNING_AUTO)
 423:.\Generated_Source\PSoC4/CapSense_1.c **** 		#if(0u != CapSense_1_CSHL_API_GENERATE)
 424:.\Generated_Source\PSoC4/CapSense_1.c **** 	        CapSense_1_AutoTune();
 425:.\Generated_Source\PSoC4/CapSense_1.c **** 	        CapSense_1_lowLevelTuningDone = 1u;
ARM GAS  C:\Users\mitchell\AppData\Local\Temp\cc5pMFOa.s 			page 16


 426:.\Generated_Source\PSoC4/CapSense_1.c **** 		#endif /* (0u != CapSense_1_CSHL_API_GENERATE) */
 427:.\Generated_Source\PSoC4/CapSense_1.c **** 	#else
 428:.\Generated_Source\PSoC4/CapSense_1.c **** 		#if(0u != CapSense_1_AUTOCALIBRATION_ENABLE)
 429:.\Generated_Source\PSoC4/CapSense_1.c **** 			
 430:.\Generated_Source\PSoC4/CapSense_1.c **** 			#if(CapSense_1_IDAC_CNT > 1u)
 431:.\Generated_Source\PSoC4/CapSense_1.c **** 				CapSense_1_CSD_IDAC_REG &= ~(CapSense_1_CSD_IDAC2_MODE_MASK);	
 432:.\Generated_Source\PSoC4/CapSense_1.c **** 			#endif /* (CapSense_1_IDAC_CNT > 1u) */
 433:.\Generated_Source\PSoC4/CapSense_1.c **** 			
 434:.\Generated_Source\PSoC4/CapSense_1.c **** 			for(curSensor = 0u; curSensor < CapSense_1_TOTAL_SCANSLOT_COUNT; curSensor++)
 435:.\Generated_Source\PSoC4/CapSense_1.c **** 			{
 436:.\Generated_Source\PSoC4/CapSense_1.c **** 				widget = CapSense_1_widgetNumber[curSensor];
 437:.\Generated_Source\PSoC4/CapSense_1.c **** 				rawLevel = CapSense_1_widgetResolution[widget] >> CapSense_1_RESOLUTION_OFFSET;
 438:.\Generated_Source\PSoC4/CapSense_1.c **** 				
 439:.\Generated_Source\PSoC4/CapSense_1.c **** 				/* Calibration level should be equal to 85% from scanning resolution */
 440:.\Generated_Source\PSoC4/CapSense_1.c **** 				rawLevel = (rawLevel * 85u) / 100u;
 441:.\Generated_Source\PSoC4/CapSense_1.c **** 				
 442:.\Generated_Source\PSoC4/CapSense_1.c **** 				CapSense_1_CalibrateSensor(curSensor, rawLevel, CapSense_1_modulationIDAC);
 443:.\Generated_Source\PSoC4/CapSense_1.c **** 			}
 444:.\Generated_Source\PSoC4/CapSense_1.c **** 
 445:.\Generated_Source\PSoC4/CapSense_1.c **** 			#if(0u != CapSense_1_TOTAL_CENTROIDS_COUNT) 
 446:.\Generated_Source\PSoC4/CapSense_1.c **** 				CapSense_1_NormalizeWidgets(CapSense_1_END_OF_WIDGETS_INDEX, CapSense_1_modulationIDAC);
 447:.\Generated_Source\PSoC4/CapSense_1.c **** 			#endif /* (0u != CapSense_1_TOTAL_CENTROIDS_COUNT)  */
 448:.\Generated_Source\PSoC4/CapSense_1.c **** 
 449:.\Generated_Source\PSoC4/CapSense_1.c **** 			#if(CapSense_1_IDAC_CNT > 1u)
 450:.\Generated_Source\PSoC4/CapSense_1.c **** 				for(curSensor = 0u; curSensor < CapSense_1_TOTAL_SCANSLOT_COUNT; curSensor++)
 451:.\Generated_Source\PSoC4/CapSense_1.c **** 			    {
 452:.\Generated_Source\PSoC4/CapSense_1.c **** 					CapSense_1_compensationIDAC[curSensor] = CapSense_1_modulationIDAC[curSensor] / 2u;
 453:.\Generated_Source\PSoC4/CapSense_1.c **** 					CapSense_1_modulationIDAC[curSensor] = (CapSense_1_modulationIDAC[curSensor] + 1u) / 2u;
 454:.\Generated_Source\PSoC4/CapSense_1.c **** 			    }
 455:.\Generated_Source\PSoC4/CapSense_1.c **** 				CapSense_1_CSD_IDAC_REG |= CapSense_1_CSD_IDAC2_MODE_FIXED;
 456:.\Generated_Source\PSoC4/CapSense_1.c **** 			#endif /* (CapSense_1_IDAC_CNT > 1u) */
 457:.\Generated_Source\PSoC4/CapSense_1.c **** 			
 458:.\Generated_Source\PSoC4/CapSense_1.c ****         #endif /* (0u != CapSense_1_AUTOCALIBRATION_ENABLE) */ 
 459:.\Generated_Source\PSoC4/CapSense_1.c **** 					
 460:.\Generated_Source\PSoC4/CapSense_1.c ****     #endif /* ((CapSense_1_TUNING_METHOD == CapSense_1__TUNING_AUTO) */	
 461:.\Generated_Source\PSoC4/CapSense_1.c **** 	
 462:.\Generated_Source\PSoC4/CapSense_1.c **** 	/* Initialize Advanced Centroid */
 463:.\Generated_Source\PSoC4/CapSense_1.c **** 	#if(CapSense_1_TOTAL_TRACKPAD_GESTURES_COUNT > 0u)
 464:.\Generated_Source\PSoC4/CapSense_1.c **** 		CapSense_1_AdvancedCentroidInit();
 465:.\Generated_Source\PSoC4/CapSense_1.c **** 	#endif /* (CapSense_1_TOTAL_TRACKPAD_GESTURES_COUNT > 0u) */
 466:.\Generated_Source\PSoC4/CapSense_1.c **** 	
 467:.\Generated_Source\PSoC4/CapSense_1.c **** 	/* Connect sense comparator input to AMUXA */
 468:.\Generated_Source\PSoC4/CapSense_1.c **** 	CapSense_1_CSD_CFG_REG |= CapSense_1_CSD_CFG_SENSE_INSEL;
 426              		.loc 1 468 0
 427 001a 054B     		ldr	r3, .L14+4
 428 001c 044A     		ldr	r2, .L14+4
 429 001e 1268     		ldr	r2, [r2]
 430 0020 8021     		mov	r1, #128
 431 0022 C903     		lsl	r1, r1, #15
 432 0024 0A43     		orr	r2, r1
 433 0026 1A60     		str	r2, [r3]
 469:.\Generated_Source\PSoC4/CapSense_1.c **** }
 434              		.loc 1 469 0
 435 0028 BD46     		mov	sp, r7
 436              		@ sp needed
 437 002a 80BD     		pop	{r7, pc}
 438              	.L15:
ARM GAS  C:\Users\mitchell\AppData\Local\Temp\cc5pMFOa.s 			page 17


 439              		.align	2
 440              	.L14:
 441 002c 0E000000 		.word	CapSense_1_initVar.5202
 442 0030 04000840 		.word	1074266116
 443              		.cfi_endproc
 444              	.LFE36:
 445              		.size	CapSense_1_Start, .-CapSense_1_Start
 446              		.section	.text.CapSense_1_Stop,"ax",%progbits
 447              		.align	2
 448              		.global	CapSense_1_Stop
 449              		.code	16
 450              		.thumb_func
 451              		.type	CapSense_1_Stop, %function
 452              	CapSense_1_Stop:
 453              	.LFB37:
 470:.\Generated_Source\PSoC4/CapSense_1.c **** 
 471:.\Generated_Source\PSoC4/CapSense_1.c **** 
 472:.\Generated_Source\PSoC4/CapSense_1.c **** /*******************************************************************************
 473:.\Generated_Source\PSoC4/CapSense_1.c **** * Function Name: CapSense_1_Stop
 474:.\Generated_Source\PSoC4/CapSense_1.c **** ********************************************************************************
 475:.\Generated_Source\PSoC4/CapSense_1.c **** *
 476:.\Generated_Source\PSoC4/CapSense_1.c **** * Summary:
 477:.\Generated_Source\PSoC4/CapSense_1.c **** *  Stops the sensor scanning, disables component interrupts, and resets all the 
 478:.\Generated_Source\PSoC4/CapSense_1.c **** *  sensors to an inactive state. Disables the Active mode power template bits for
 479:.\Generated_Source\PSoC4/CapSense_1.c **** *  the subcomponents used within CapSense.
 480:.\Generated_Source\PSoC4/CapSense_1.c **** *
 481:.\Generated_Source\PSoC4/CapSense_1.c **** * Parameters:
 482:.\Generated_Source\PSoC4/CapSense_1.c **** *  None
 483:.\Generated_Source\PSoC4/CapSense_1.c **** *
 484:.\Generated_Source\PSoC4/CapSense_1.c **** * Return:
 485:.\Generated_Source\PSoC4/CapSense_1.c **** *  None
 486:.\Generated_Source\PSoC4/CapSense_1.c **** *
 487:.\Generated_Source\PSoC4/CapSense_1.c **** * Global Variables:
 488:.\Generated_Source\PSoC4/CapSense_1.c **** *  CapSense_1_csdTrim1 - Contains the IDAC trim register value for the Sourcing Mode.
 489:.\Generated_Source\PSoC4/CapSense_1.c **** *  CapSense_1_csdTrim2 - Contains the IDAC trim register value for vSinking Mode.
 490:.\Generated_Source\PSoC4/CapSense_1.c **** *
 491:.\Generated_Source\PSoC4/CapSense_1.c **** * Side Effects:
 492:.\Generated_Source\PSoC4/CapSense_1.c **** *  This function should be called after scans are completed.
 493:.\Generated_Source\PSoC4/CapSense_1.c **** *
 494:.\Generated_Source\PSoC4/CapSense_1.c **** *******************************************************************************/
 495:.\Generated_Source\PSoC4/CapSense_1.c **** void CapSense_1_Stop(void)
 496:.\Generated_Source\PSoC4/CapSense_1.c **** {
 454              		.loc 1 496 0
 455              		.cfi_startproc
 456 0000 80B5     		push	{r7, lr}
 457              		.cfi_def_cfa_offset 8
 458              		.cfi_offset 7, -8
 459              		.cfi_offset 14, -4
 460 0002 00AF     		add	r7, sp, #0
 461              		.cfi_def_cfa_register 7
 497:.\Generated_Source\PSoC4/CapSense_1.c ****     /* Disable interrupt */
 498:.\Generated_Source\PSoC4/CapSense_1.c ****     CyIntDisable(CapSense_1_ISR_NUMBER);
 462              		.loc 1 498 0
 463 0004 0F20     		mov	r0, #15
 464 0006 FFF7FEFF 		bl	CyIntDisable
 499:.\Generated_Source\PSoC4/CapSense_1.c **** 	
 500:.\Generated_Source\PSoC4/CapSense_1.c **** 	CapSense_1_CSD_CFG_REG &= ~(CapSense_1_CSD_CFG_SENSE_COMP_EN | CapSense_1_CSD_CFG_SENSE_EN);
ARM GAS  C:\Users\mitchell\AppData\Local\Temp\cc5pMFOa.s 			page 18


 465              		.loc 1 500 0
 466 000a 064B     		ldr	r3, .L17
 467 000c 054A     		ldr	r2, .L17
 468 000e 1168     		ldr	r1, [r2]
 469 0010 054A     		ldr	r2, .L17+4
 470 0012 0A40     		and	r2, r1
 471 0014 1A60     		str	r2, [r3]
 501:.\Generated_Source\PSoC4/CapSense_1.c **** 	
 502:.\Generated_Source\PSoC4/CapSense_1.c **** 	#if(CapSense_1_IDAC_CNT == 2u)
 503:.\Generated_Source\PSoC4/CapSense_1.c **** 		CapSense_1_CSD_CFG_REG &= ~(CapSense_1_CSD_CFG_ENABLE);
 504:.\Generated_Source\PSoC4/CapSense_1.c **** 	#endif /* (CapSense_1_IDAC_CNT == 2u) */
 505:.\Generated_Source\PSoC4/CapSense_1.c **** 
 506:.\Generated_Source\PSoC4/CapSense_1.c ****     /* Disable the Clocks */
 507:.\Generated_Source\PSoC4/CapSense_1.c ****     CapSense_1_SenseClk_Stop();
 472              		.loc 1 507 0
 473 0016 FFF7FEFF 		bl	CapSense_1_SenseClk_Stop
 508:.\Generated_Source\PSoC4/CapSense_1.c ****     CapSense_1_SampleClk_Stop();
 474              		.loc 1 508 0
 475 001a FFF7FEFF 		bl	CapSense_1_SampleClk_Stop
 509:.\Generated_Source\PSoC4/CapSense_1.c **** }
 476              		.loc 1 509 0
 477 001e BD46     		mov	sp, r7
 478              		@ sp needed
 479 0020 80BD     		pop	{r7, pc}
 480              	.L18:
 481 0022 C046     		.align	2
 482              	.L17:
 483 0024 04000840 		.word	1074266116
 484 0028 FFEFF7FF 		.word	-528385
 485              		.cfi_endproc
 486              	.LFE37:
 487              		.size	CapSense_1_Stop, .-CapSense_1_Stop
 488              		.section	.text.CapSense_1_FindNextSensor,"ax",%progbits
 489              		.align	2
 490              		.global	CapSense_1_FindNextSensor
 491              		.code	16
 492              		.thumb_func
 493              		.type	CapSense_1_FindNextSensor, %function
 494              	CapSense_1_FindNextSensor:
 495              	.LFB38:
 510:.\Generated_Source\PSoC4/CapSense_1.c **** 
 511:.\Generated_Source\PSoC4/CapSense_1.c **** 
 512:.\Generated_Source\PSoC4/CapSense_1.c **** /*******************************************************************************
 513:.\Generated_Source\PSoC4/CapSense_1.c **** * Function Name: CapSense_1_FindNextSensor
 514:.\Generated_Source\PSoC4/CapSense_1.c **** ********************************************************************************
 515:.\Generated_Source\PSoC4/CapSense_1.c **** *
 516:.\Generated_Source\PSoC4/CapSense_1.c **** * Summary:
 517:.\Generated_Source\PSoC4/CapSense_1.c **** *  Finds the next sensor to scan. 
 518:.\Generated_Source\PSoC4/CapSense_1.c **** *
 519:.\Generated_Source\PSoC4/CapSense_1.c **** * Parameters:
 520:.\Generated_Source\PSoC4/CapSense_1.c **** *  snsIndex:  Current index of sensor.
 521:.\Generated_Source\PSoC4/CapSense_1.c **** *
 522:.\Generated_Source\PSoC4/CapSense_1.c **** * Return:
 523:.\Generated_Source\PSoC4/CapSense_1.c **** *  Returns the next sensor index to scan.
 524:.\Generated_Source\PSoC4/CapSense_1.c **** *
 525:.\Generated_Source\PSoC4/CapSense_1.c **** * Global Variables:
 526:.\Generated_Source\PSoC4/CapSense_1.c **** *  CapSense_1_sensorEnableMask[] - used to store bit masks of the enabled sensors.
ARM GAS  C:\Users\mitchell\AppData\Local\Temp\cc5pMFOa.s 			page 19


 527:.\Generated_Source\PSoC4/CapSense_1.c **** *
 528:.\Generated_Source\PSoC4/CapSense_1.c **** * Side Effects:
 529:.\Generated_Source\PSoC4/CapSense_1.c **** *  This function affects the  current scanning and should not
 530:.\Generated_Source\PSoC4/CapSense_1.c **** *  be used outside the component.
 531:.\Generated_Source\PSoC4/CapSense_1.c **** *
 532:.\Generated_Source\PSoC4/CapSense_1.c **** *******************************************************************************/
 533:.\Generated_Source\PSoC4/CapSense_1.c **** uint8 CapSense_1_FindNextSensor(uint8 snsIndex)
 534:.\Generated_Source\PSoC4/CapSense_1.c **** {
 496              		.loc 1 534 0
 497              		.cfi_startproc
 498 0000 80B5     		push	{r7, lr}
 499              		.cfi_def_cfa_offset 8
 500              		.cfi_offset 7, -8
 501              		.cfi_offset 14, -4
 502 0002 84B0     		sub	sp, sp, #16
 503              		.cfi_def_cfa_offset 24
 504 0004 00AF     		add	r7, sp, #0
 505              		.cfi_def_cfa_register 7
 506 0006 021C     		mov	r2, r0
 507 0008 FB1D     		add	r3, r7, #7
 508 000a 1A70     		strb	r2, [r3]
 509              	.L22:
 535:.\Generated_Source\PSoC4/CapSense_1.c ****     uint32 enableFlag;
 536:.\Generated_Source\PSoC4/CapSense_1.c ****     
 537:.\Generated_Source\PSoC4/CapSense_1.c ****     /* Check if sensor enabled */
 538:.\Generated_Source\PSoC4/CapSense_1.c ****     do
 539:.\Generated_Source\PSoC4/CapSense_1.c ****     {
 540:.\Generated_Source\PSoC4/CapSense_1.c ****         /* Proceed with next sensor */
 541:.\Generated_Source\PSoC4/CapSense_1.c ****         snsIndex++;
 510              		.loc 1 541 0
 511 000c FB1D     		add	r3, r7, #7
 512 000e 1A78     		ldrb	r2, [r3]
 513 0010 FB1D     		add	r3, r7, #7
 514 0012 0132     		add	r2, r2, #1
 515 0014 1A70     		strb	r2, [r3]
 542:.\Generated_Source\PSoC4/CapSense_1.c ****         if(snsIndex == CapSense_1_TOTAL_SENSOR_COUNT)
 516              		.loc 1 542 0
 517 0016 FB1D     		add	r3, r7, #7
 518 0018 1B78     		ldrb	r3, [r3]
 519 001a 052B     		cmp	r3, #5
 520 001c 00D1     		bne	.L20
 543:.\Generated_Source\PSoC4/CapSense_1.c ****         {
 544:.\Generated_Source\PSoC4/CapSense_1.c ****             break;
 521              		.loc 1 544 0
 522 001e 0BE0     		b	.L21
 523              	.L20:
 545:.\Generated_Source\PSoC4/CapSense_1.c ****         }
 546:.\Generated_Source\PSoC4/CapSense_1.c ****         enableFlag = CapSense_1_GetBitValue(CapSense_1_sensorEnableMask, (uint32)snsIndex);
 524              		.loc 1 546 0
 525 0020 FB1D     		add	r3, r7, #7
 526 0022 1B78     		ldrb	r3, [r3]
 527 0024 074A     		ldr	r2, .L24
 528 0026 101C     		mov	r0, r2
 529 0028 191C     		mov	r1, r3
 530 002a FFF7FEFF 		bl	CapSense_1_GetBitValue
 531 002e 031C     		mov	r3, r0
 532 0030 FB60     		str	r3, [r7, #12]
ARM GAS  C:\Users\mitchell\AppData\Local\Temp\cc5pMFOa.s 			page 20


 547:.\Generated_Source\PSoC4/CapSense_1.c ****     }    
 548:.\Generated_Source\PSoC4/CapSense_1.c ****     while(enableFlag == 0u);
 533              		.loc 1 548 0
 534 0032 FB68     		ldr	r3, [r7, #12]
 535 0034 002B     		cmp	r3, #0
 536 0036 E9D0     		beq	.L22
 537              	.L21:
 549:.\Generated_Source\PSoC4/CapSense_1.c ****     
 550:.\Generated_Source\PSoC4/CapSense_1.c ****     return ((uint8)snsIndex);
 538              		.loc 1 550 0
 539 0038 FB1D     		add	r3, r7, #7
 540 003a 1B78     		ldrb	r3, [r3]
 551:.\Generated_Source\PSoC4/CapSense_1.c **** }
 541              		.loc 1 551 0
 542 003c 181C     		mov	r0, r3
 543 003e BD46     		mov	sp, r7
 544 0040 04B0     		add	sp, sp, #16
 545              		@ sp needed
 546 0042 80BD     		pop	{r7, pc}
 547              	.L25:
 548              		.align	2
 549              	.L24:
 550 0044 00000000 		.word	CapSense_1_sensorEnableMask
 551              		.cfi_endproc
 552              	.LFE38:
 553              		.size	CapSense_1_FindNextSensor, .-CapSense_1_FindNextSensor
 554              		.section	.text.CapSense_1_ScanSensor,"ax",%progbits
 555              		.align	2
 556              		.global	CapSense_1_ScanSensor
 557              		.code	16
 558              		.thumb_func
 559              		.type	CapSense_1_ScanSensor, %function
 560              	CapSense_1_ScanSensor:
 561              	.LFB39:
 552:.\Generated_Source\PSoC4/CapSense_1.c **** 
 553:.\Generated_Source\PSoC4/CapSense_1.c **** 
 554:.\Generated_Source\PSoC4/CapSense_1.c **** /*******************************************************************************
 555:.\Generated_Source\PSoC4/CapSense_1.c **** * Function Name: CapSense_1_ScanSensor
 556:.\Generated_Source\PSoC4/CapSense_1.c **** ********************************************************************************
 557:.\Generated_Source\PSoC4/CapSense_1.c **** *
 558:.\Generated_Source\PSoC4/CapSense_1.c **** * Summary:
 559:.\Generated_Source\PSoC4/CapSense_1.c **** *  Sets the scan settings and starts scanning a sensor. After scanning is complete,
 560:.\Generated_Source\PSoC4/CapSense_1.c **** *  the ISR copies the measured sensor raw data to the global raw sensor array. 
 561:.\Generated_Source\PSoC4/CapSense_1.c **** *  Use of the ISR ensures this function is non-blocking. 
 562:.\Generated_Source\PSoC4/CapSense_1.c **** *  Each sensor has a unique number within the sensor array. 
 563:.\Generated_Source\PSoC4/CapSense_1.c **** *  This number is assigned by the CapSense customizer in sequence.
 564:.\Generated_Source\PSoC4/CapSense_1.c **** *
 565:.\Generated_Source\PSoC4/CapSense_1.c **** * Parameters:
 566:.\Generated_Source\PSoC4/CapSense_1.c **** *  sensor:  Sensor number.
 567:.\Generated_Source\PSoC4/CapSense_1.c **** *
 568:.\Generated_Source\PSoC4/CapSense_1.c **** * Return:
 569:.\Generated_Source\PSoC4/CapSense_1.c **** *  None
 570:.\Generated_Source\PSoC4/CapSense_1.c **** *
 571:.\Generated_Source\PSoC4/CapSense_1.c **** * Global Variables:
 572:.\Generated_Source\PSoC4/CapSense_1.c **** *  CapSense_1_csdStatusVar - used to provide the status and mode of the scanning process. 
 573:.\Generated_Source\PSoC4/CapSense_1.c **** *  Sets the busy status(scan in progress) and mode of scan as single scan.
 574:.\Generated_Source\PSoC4/CapSense_1.c **** *  CapSense_1_sensorIndex - used to store a sensor scanning sensor number.
ARM GAS  C:\Users\mitchell\AppData\Local\Temp\cc5pMFOa.s 			page 21


 575:.\Generated_Source\PSoC4/CapSense_1.c **** *  Sets to the provided sensor argument.
 576:.\Generated_Source\PSoC4/CapSense_1.c **** *
 577:.\Generated_Source\PSoC4/CapSense_1.c **** * Side Effects:
 578:.\Generated_Source\PSoC4/CapSense_1.c **** *  None
 579:.\Generated_Source\PSoC4/CapSense_1.c **** * 
 580:.\Generated_Source\PSoC4/CapSense_1.c **** *******************************************************************************/
 581:.\Generated_Source\PSoC4/CapSense_1.c **** void CapSense_1_ScanSensor(uint32 sensor)
 582:.\Generated_Source\PSoC4/CapSense_1.c **** {
 562              		.loc 1 582 0
 563              		.cfi_startproc
 564 0000 80B5     		push	{r7, lr}
 565              		.cfi_def_cfa_offset 8
 566              		.cfi_offset 7, -8
 567              		.cfi_offset 14, -4
 568 0002 82B0     		sub	sp, sp, #8
 569              		.cfi_def_cfa_offset 16
 570 0004 00AF     		add	r7, sp, #0
 571              		.cfi_def_cfa_register 7
 572 0006 7860     		str	r0, [r7, #4]
 583:.\Generated_Source\PSoC4/CapSense_1.c ****     /* Clears status/control variable and set sensorIndex */
 584:.\Generated_Source\PSoC4/CapSense_1.c ****     CapSense_1_csdStatusVar = 0u;
 573              		.loc 1 584 0
 574 0008 084B     		ldr	r3, .L27
 575 000a 0022     		mov	r2, #0
 576 000c 1A70     		strb	r2, [r3]
 585:.\Generated_Source\PSoC4/CapSense_1.c ****     CapSense_1_sensorIndex = (uint8)sensor;
 577              		.loc 1 585 0
 578 000e 7B68     		ldr	r3, [r7, #4]
 579 0010 DAB2     		uxtb	r2, r3
 580 0012 074B     		ldr	r3, .L27+4
 581 0014 1A70     		strb	r2, [r3]
 586:.\Generated_Source\PSoC4/CapSense_1.c ****     
 587:.\Generated_Source\PSoC4/CapSense_1.c ****     /* Start of sensor scan */
 588:.\Generated_Source\PSoC4/CapSense_1.c ****     CapSense_1_csdStatusVar = (CapSense_1_SW_STS_BUSY | CapSense_1_SW_CTRL_SINGLE_SCAN);
 582              		.loc 1 588 0
 583 0016 054B     		ldr	r3, .L27
 584 0018 8122     		mov	r2, #129
 585 001a 1A70     		strb	r2, [r3]
 589:.\Generated_Source\PSoC4/CapSense_1.c ****     CapSense_1_PreScan(sensor);
 586              		.loc 1 589 0
 587 001c 7B68     		ldr	r3, [r7, #4]
 588 001e 181C     		mov	r0, r3
 589 0020 FFF7FEFF 		bl	CapSense_1_PreScan
 590:.\Generated_Source\PSoC4/CapSense_1.c **** }
 590              		.loc 1 590 0
 591 0024 BD46     		mov	sp, r7
 592 0026 02B0     		add	sp, sp, #8
 593              		@ sp needed
 594 0028 80BD     		pop	{r7, pc}
 595              	.L28:
 596 002a C046     		.align	2
 597              	.L27:
 598 002c 00000000 		.word	CapSense_1_csdStatusVar
 599 0030 00000000 		.word	CapSense_1_sensorIndex
 600              		.cfi_endproc
 601              	.LFE39:
 602              		.size	CapSense_1_ScanSensor, .-CapSense_1_ScanSensor
ARM GAS  C:\Users\mitchell\AppData\Local\Temp\cc5pMFOa.s 			page 22


 603              		.section	.text.CapSense_1_ScanWidget,"ax",%progbits
 604              		.align	2
 605              		.global	CapSense_1_ScanWidget
 606              		.code	16
 607              		.thumb_func
 608              		.type	CapSense_1_ScanWidget, %function
 609              	CapSense_1_ScanWidget:
 610              	.LFB40:
 591:.\Generated_Source\PSoC4/CapSense_1.c **** 
 592:.\Generated_Source\PSoC4/CapSense_1.c **** 
 593:.\Generated_Source\PSoC4/CapSense_1.c **** #if(0u != CapSense_1_CSHL_API_GENERATE)
 594:.\Generated_Source\PSoC4/CapSense_1.c **** /*******************************************************************************
 595:.\Generated_Source\PSoC4/CapSense_1.c **** * Function Name: CapSense_1_ScanWidget
 596:.\Generated_Source\PSoC4/CapSense_1.c **** ********************************************************************************
 597:.\Generated_Source\PSoC4/CapSense_1.c **** *
 598:.\Generated_Source\PSoC4/CapSense_1.c **** * Summary:
 599:.\Generated_Source\PSoC4/CapSense_1.c **** *  Sets the scan settings and starts scanning a widget.
 600:.\Generated_Source\PSoC4/CapSense_1.c **** *
 601:.\Generated_Source\PSoC4/CapSense_1.c **** * Parameters:
 602:.\Generated_Source\PSoC4/CapSense_1.c **** *  uint32 widget: Widget number.
 603:.\Generated_Source\PSoC4/CapSense_1.c **** *
 604:.\Generated_Source\PSoC4/CapSense_1.c **** * Return:
 605:.\Generated_Source\PSoC4/CapSense_1.c **** *  None
 606:.\Generated_Source\PSoC4/CapSense_1.c **** *
 607:.\Generated_Source\PSoC4/CapSense_1.c **** * Global Variables:
 608:.\Generated_Source\PSoC4/CapSense_1.c **** *  CapSense_1_csdStatusVar - used to provide the status and mode of the scanning process. 
 609:.\Generated_Source\PSoC4/CapSense_1.c **** *  Sets the busy status(scan in progress) and clears the single scan mode.
 610:.\Generated_Source\PSoC4/CapSense_1.c **** *  CapSense_1_sensorIndex - used to store a sensor scanning sensor number.
 611:.\Generated_Source\PSoC4/CapSense_1.c **** *  Sets to 0xFF and provided to function CapSense_1_FindNextSensor or
 612:.\Generated_Source\PSoC4/CapSense_1.c **** *  CapSense_1_sensorEnableMask[] - used to store bit masks of the enabled sensors.
 613:.\Generated_Source\PSoC4/CapSense_1.c **** *  CapSense_1_sensorEnableMaskBackup[] - used to backup bit masks of the enabled
 614:.\Generated_Source\PSoC4/CapSense_1.c **** *   sensors.
 615:.\Generated_Source\PSoC4/CapSense_1.c **** *
 616:.\Generated_Source\PSoC4/CapSense_1.c **** * Side Effects:
 617:.\Generated_Source\PSoC4/CapSense_1.c **** *  None
 618:.\Generated_Source\PSoC4/CapSense_1.c **** * 
 619:.\Generated_Source\PSoC4/CapSense_1.c **** *******************************************************************************/
 620:.\Generated_Source\PSoC4/CapSense_1.c **** void CapSense_1_ScanWidget(uint32 widget)
 621:.\Generated_Source\PSoC4/CapSense_1.c **** {
 611              		.loc 1 621 0
 612              		.cfi_startproc
 613 0000 80B5     		push	{r7, lr}
 614              		.cfi_def_cfa_offset 8
 615              		.cfi_offset 7, -8
 616              		.cfi_offset 14, -4
 617 0002 86B0     		sub	sp, sp, #24
 618              		.cfi_def_cfa_offset 32
 619 0004 00AF     		add	r7, sp, #0
 620              		.cfi_def_cfa_register 7
 621 0006 7860     		str	r0, [r7, #4]
 622:.\Generated_Source\PSoC4/CapSense_1.c ****     uint32 sensorsPerWidget;
 623:.\Generated_Source\PSoC4/CapSense_1.c ****     uint32 lastSensor;
 624:.\Generated_Source\PSoC4/CapSense_1.c ****     uint32 snsIndex;
 625:.\Generated_Source\PSoC4/CapSense_1.c **** 
 626:.\Generated_Source\PSoC4/CapSense_1.c **** 	/* Get first sensor in widget */
 627:.\Generated_Source\PSoC4/CapSense_1.c **** 	CapSense_1_sensorIndex = CapSense_1_rawDataIndex[widget];
 622              		.loc 1 627 0
ARM GAS  C:\Users\mitchell\AppData\Local\Temp\cc5pMFOa.s 			page 23


 623 0008 2E4A     		ldr	r2, .L38
 624 000a 7B68     		ldr	r3, [r7, #4]
 625 000c D318     		add	r3, r2, r3
 626 000e 1A78     		ldrb	r2, [r3]
 627 0010 2D4B     		ldr	r3, .L38+4
 628 0012 1A70     		strb	r2, [r3]
 628:.\Generated_Source\PSoC4/CapSense_1.c **** 	
 629:.\Generated_Source\PSoC4/CapSense_1.c **** 	/* Get number of sensors in widget */
 630:.\Generated_Source\PSoC4/CapSense_1.c **** 	sensorsPerWidget = CapSense_1_numberOfSensors[widget];
 629              		.loc 1 630 0
 630 0014 2D4A     		ldr	r2, .L38+8
 631 0016 7B68     		ldr	r3, [r7, #4]
 632 0018 D318     		add	r3, r2, r3
 633 001a 1B78     		ldrb	r3, [r3]
 634 001c 7B61     		str	r3, [r7, #20]
 631:.\Generated_Source\PSoC4/CapSense_1.c **** 	
 632:.\Generated_Source\PSoC4/CapSense_1.c **** 	/* Check if generic Sensor */
 633:.\Generated_Source\PSoC4/CapSense_1.c **** 	if(sensorsPerWidget == 0u)
 635              		.loc 1 633 0
 636 001e 7B69     		ldr	r3, [r7, #20]
 637 0020 002B     		cmp	r3, #0
 638 0022 01D1     		bne	.L30
 634:.\Generated_Source\PSoC4/CapSense_1.c **** 	{
 635:.\Generated_Source\PSoC4/CapSense_1.c **** 		sensorsPerWidget = 1u;
 639              		.loc 1 635 0
 640 0024 0123     		mov	r3, #1
 641 0026 7B61     		str	r3, [r7, #20]
 642              	.L30:
 636:.\Generated_Source\PSoC4/CapSense_1.c **** 	}
 637:.\Generated_Source\PSoC4/CapSense_1.c **** 	
 638:.\Generated_Source\PSoC4/CapSense_1.c **** 	/* Get last sensor in widget */
 639:.\Generated_Source\PSoC4/CapSense_1.c **** 	lastSensor = (CapSense_1_rawDataIndex[widget] + sensorsPerWidget) - 1u;
 643              		.loc 1 639 0
 644 0028 264A     		ldr	r2, .L38
 645 002a 7B68     		ldr	r3, [r7, #4]
 646 002c D318     		add	r3, r2, r3
 647 002e 1B78     		ldrb	r3, [r3]
 648 0030 1A1C     		mov	r2, r3
 649 0032 7B69     		ldr	r3, [r7, #20]
 650 0034 D318     		add	r3, r2, r3
 651 0036 013B     		sub	r3, r3, #1
 652 0038 FB60     		str	r3, [r7, #12]
 640:.\Generated_Source\PSoC4/CapSense_1.c **** 
 641:.\Generated_Source\PSoC4/CapSense_1.c **** 	/* Backup sensorEnableMask array */
 642:.\Generated_Source\PSoC4/CapSense_1.c **** 	for(snsIndex = 0u; snsIndex < CapSense_1_TOTAL_SENSOR_MASK; snsIndex++)
 653              		.loc 1 642 0
 654 003a 0023     		mov	r3, #0
 655 003c 3B61     		str	r3, [r7, #16]
 656 003e 0AE0     		b	.L31
 657              	.L32:
 643:.\Generated_Source\PSoC4/CapSense_1.c **** 	{
 644:.\Generated_Source\PSoC4/CapSense_1.c **** 		/* Backup sensorEnableMask array */
 645:.\Generated_Source\PSoC4/CapSense_1.c **** 		CapSense_1_sensorEnableMaskBackup[snsIndex] = CapSense_1_sensorEnableMask[snsIndex];
 658              		.loc 1 645 0 discriminator 2
 659 0040 234A     		ldr	r2, .L38+12
 660 0042 3B69     		ldr	r3, [r7, #16]
 661 0044 D318     		add	r3, r2, r3
ARM GAS  C:\Users\mitchell\AppData\Local\Temp\cc5pMFOa.s 			page 24


 662 0046 1A78     		ldrb	r2, [r3]
 663 0048 2249     		ldr	r1, .L38+16
 664 004a 3B69     		ldr	r3, [r7, #16]
 665 004c CB18     		add	r3, r1, r3
 666 004e 1A70     		strb	r2, [r3]
 642:.\Generated_Source\PSoC4/CapSense_1.c **** 	for(snsIndex = 0u; snsIndex < CapSense_1_TOTAL_SENSOR_MASK; snsIndex++)
 667              		.loc 1 642 0 discriminator 2
 668 0050 3B69     		ldr	r3, [r7, #16]
 669 0052 0133     		add	r3, r3, #1
 670 0054 3B61     		str	r3, [r7, #16]
 671              	.L31:
 642:.\Generated_Source\PSoC4/CapSense_1.c **** 	for(snsIndex = 0u; snsIndex < CapSense_1_TOTAL_SENSOR_MASK; snsIndex++)
 672              		.loc 1 642 0 is_stmt 0 discriminator 1
 673 0056 3B69     		ldr	r3, [r7, #16]
 674 0058 002B     		cmp	r3, #0
 675 005a F1D0     		beq	.L32
 646:.\Generated_Source\PSoC4/CapSense_1.c **** 	}
 647:.\Generated_Source\PSoC4/CapSense_1.c **** 
 648:.\Generated_Source\PSoC4/CapSense_1.c **** 	/* Update sensorEnableMask to scan the sensors that belong to widget */
 649:.\Generated_Source\PSoC4/CapSense_1.c **** 	for(snsIndex = 0u; snsIndex < CapSense_1_TOTAL_SENSOR_COUNT; snsIndex++)
 676              		.loc 1 649 0 is_stmt 1
 677 005c 0023     		mov	r3, #0
 678 005e 3B61     		str	r3, [r7, #16]
 679 0060 1CE0     		b	.L33
 680              	.L36:
 650:.\Generated_Source\PSoC4/CapSense_1.c **** 	{
 651:.\Generated_Source\PSoC4/CapSense_1.c **** 		/* Update sensorEnableMask array bits to scan the widget only */ 
 652:.\Generated_Source\PSoC4/CapSense_1.c **** 	    if((snsIndex >= CapSense_1_sensorIndex) && (snsIndex <= lastSensor))
 681              		.loc 1 652 0
 682 0062 194B     		ldr	r3, .L38+4
 683 0064 1B78     		ldrb	r3, [r3]
 684 0066 DBB2     		uxtb	r3, r3
 685 0068 1A1C     		mov	r2, r3
 686 006a 3B69     		ldr	r3, [r7, #16]
 687 006c 9A42     		cmp	r2, r3
 688 006e 0BD8     		bhi	.L34
 689              		.loc 1 652 0 is_stmt 0 discriminator 1
 690 0070 3A69     		ldr	r2, [r7, #16]
 691 0072 FB68     		ldr	r3, [r7, #12]
 692 0074 9A42     		cmp	r2, r3
 693 0076 07D8     		bhi	.L34
 653:.\Generated_Source\PSoC4/CapSense_1.c **** 		{
 654:.\Generated_Source\PSoC4/CapSense_1.c **** 		    /* Set sensor bit to scan */
 655:.\Generated_Source\PSoC4/CapSense_1.c **** 			CapSense_1_SetBitValue(CapSense_1_sensorEnableMask, snsIndex, 1u);
 694              		.loc 1 655 0 is_stmt 1
 695 0078 154A     		ldr	r2, .L38+12
 696 007a 3B69     		ldr	r3, [r7, #16]
 697 007c 101C     		mov	r0, r2
 698 007e 191C     		mov	r1, r3
 699 0080 0122     		mov	r2, #1
 700 0082 FFF7FEFF 		bl	CapSense_1_SetBitValue
 701 0086 06E0     		b	.L35
 702              	.L34:
 656:.\Generated_Source\PSoC4/CapSense_1.c **** 		}
 657:.\Generated_Source\PSoC4/CapSense_1.c **** 		else
 658:.\Generated_Source\PSoC4/CapSense_1.c **** 		{
 659:.\Generated_Source\PSoC4/CapSense_1.c **** 		    /* Reset sensor bit to do not scan */
ARM GAS  C:\Users\mitchell\AppData\Local\Temp\cc5pMFOa.s 			page 25


 660:.\Generated_Source\PSoC4/CapSense_1.c **** 		    CapSense_1_SetBitValue(CapSense_1_sensorEnableMask, snsIndex, 0u);
 703              		.loc 1 660 0
 704 0088 114A     		ldr	r2, .L38+12
 705 008a 3B69     		ldr	r3, [r7, #16]
 706 008c 101C     		mov	r0, r2
 707 008e 191C     		mov	r1, r3
 708 0090 0022     		mov	r2, #0
 709 0092 FFF7FEFF 		bl	CapSense_1_SetBitValue
 710              	.L35:
 649:.\Generated_Source\PSoC4/CapSense_1.c **** 	for(snsIndex = 0u; snsIndex < CapSense_1_TOTAL_SENSOR_COUNT; snsIndex++)
 711              		.loc 1 649 0
 712 0096 3B69     		ldr	r3, [r7, #16]
 713 0098 0133     		add	r3, r3, #1
 714 009a 3B61     		str	r3, [r7, #16]
 715              	.L33:
 649:.\Generated_Source\PSoC4/CapSense_1.c **** 	for(snsIndex = 0u; snsIndex < CapSense_1_TOTAL_SENSOR_COUNT; snsIndex++)
 716              		.loc 1 649 0 is_stmt 0 discriminator 1
 717 009c 3B69     		ldr	r3, [r7, #16]
 718 009e 042B     		cmp	r3, #4
 719 00a0 DFD9     		bls	.L36
 661:.\Generated_Source\PSoC4/CapSense_1.c **** 		}
 662:.\Generated_Source\PSoC4/CapSense_1.c **** 	}
 663:.\Generated_Source\PSoC4/CapSense_1.c **** 
 664:.\Generated_Source\PSoC4/CapSense_1.c ****     /* Check end of scan condition */
 665:.\Generated_Source\PSoC4/CapSense_1.c ****     if(CapSense_1_sensorIndex < CapSense_1_TOTAL_SENSOR_COUNT)
 720              		.loc 1 665 0 is_stmt 1
 721 00a2 094B     		ldr	r3, .L38+4
 722 00a4 1B78     		ldrb	r3, [r3]
 723 00a6 DBB2     		uxtb	r3, r3
 724 00a8 042B     		cmp	r3, #4
 725 00aa 08D8     		bhi	.L29
 666:.\Generated_Source\PSoC4/CapSense_1.c ****     {
 667:.\Generated_Source\PSoC4/CapSense_1.c **** 		/* Set widget busy bit in status/control variable*/ 
 668:.\Generated_Source\PSoC4/CapSense_1.c **** 		CapSense_1_csdStatusVar = (CapSense_1_SW_STS_BUSY | CapSense_1_SW_CTRL_WIDGET_SCAN);
 726              		.loc 1 668 0
 727 00ac 0A4B     		ldr	r3, .L38+20
 728 00ae 4122     		mov	r2, #65
 729 00b0 1A70     		strb	r2, [r3]
 669:.\Generated_Source\PSoC4/CapSense_1.c **** 		/* Scan first sensor of widget*/ 
 670:.\Generated_Source\PSoC4/CapSense_1.c ****         CapSense_1_PreScan((uint32)CapSense_1_sensorIndex);
 730              		.loc 1 670 0
 731 00b2 054B     		ldr	r3, .L38+4
 732 00b4 1B78     		ldrb	r3, [r3]
 733 00b6 DBB2     		uxtb	r3, r3
 734 00b8 181C     		mov	r0, r3
 735 00ba FFF7FEFF 		bl	CapSense_1_PreScan
 736              	.L29:
 671:.\Generated_Source\PSoC4/CapSense_1.c ****     }
 672:.\Generated_Source\PSoC4/CapSense_1.c **** }
 737              		.loc 1 672 0
 738 00be BD46     		mov	sp, r7
 739 00c0 06B0     		add	sp, sp, #24
 740              		@ sp needed
 741 00c2 80BD     		pop	{r7, pc}
 742              	.L39:
 743              		.align	2
 744              	.L38:
ARM GAS  C:\Users\mitchell\AppData\Local\Temp\cc5pMFOa.s 			page 26


 745 00c4 00000000 		.word	CapSense_1_rawDataIndex
 746 00c8 00000000 		.word	CapSense_1_sensorIndex
 747 00cc 00000000 		.word	CapSense_1_numberOfSensors
 748 00d0 00000000 		.word	CapSense_1_sensorEnableMask
 749 00d4 00000000 		.word	CapSense_1_sensorEnableMaskBackup
 750 00d8 00000000 		.word	CapSense_1_csdStatusVar
 751              		.cfi_endproc
 752              	.LFE40:
 753              		.size	CapSense_1_ScanWidget, .-CapSense_1_ScanWidget
 754              		.section	.text.CapSense_1_ScanEnabledWidgets,"ax",%progbits
 755              		.align	2
 756              		.global	CapSense_1_ScanEnabledWidgets
 757              		.code	16
 758              		.thumb_func
 759              		.type	CapSense_1_ScanEnabledWidgets, %function
 760              	CapSense_1_ScanEnabledWidgets:
 761              	.LFB41:
 673:.\Generated_Source\PSoC4/CapSense_1.c **** #endif /* (0u != CapSense_1_CSHL_API_GENERATE) */
 674:.\Generated_Source\PSoC4/CapSense_1.c **** 
 675:.\Generated_Source\PSoC4/CapSense_1.c **** 
 676:.\Generated_Source\PSoC4/CapSense_1.c **** /*******************************************************************************
 677:.\Generated_Source\PSoC4/CapSense_1.c **** * Function Name: CapSense_1_ScanEnableWidgets
 678:.\Generated_Source\PSoC4/CapSense_1.c **** ********************************************************************************
 679:.\Generated_Source\PSoC4/CapSense_1.c **** *
 680:.\Generated_Source\PSoC4/CapSense_1.c **** * Summary:
 681:.\Generated_Source\PSoC4/CapSense_1.c **** *  This is the preferred method to scan all of the enabled widgets. 
 682:.\Generated_Source\PSoC4/CapSense_1.c **** *  The API starts scanning a sensor within the enabled widgets. 
 683:.\Generated_Source\PSoC4/CapSense_1.c **** *  The ISR continues scanning the sensors until all the enabled widgets are scanned. 
 684:.\Generated_Source\PSoC4/CapSense_1.c **** *  Use of the ISR ensures this function is non-blocking.
 685:.\Generated_Source\PSoC4/CapSense_1.c **** *  All the widgets are enabled by default except proximity widgets. 
 686:.\Generated_Source\PSoC4/CapSense_1.c **** *  The proximity widgets must be manually enabled as their long scan time 
 687:.\Generated_Source\PSoC4/CapSense_1.c **** *  is incompatible with a fast response required of other widget types.
 688:.\Generated_Source\PSoC4/CapSense_1.c **** *
 689:.\Generated_Source\PSoC4/CapSense_1.c **** * Parameters:
 690:.\Generated_Source\PSoC4/CapSense_1.c **** *  None
 691:.\Generated_Source\PSoC4/CapSense_1.c **** *
 692:.\Generated_Source\PSoC4/CapSense_1.c **** * Return:
 693:.\Generated_Source\PSoC4/CapSense_1.c **** *  None
 694:.\Generated_Source\PSoC4/CapSense_1.c **** *
 695:.\Generated_Source\PSoC4/CapSense_1.c **** * Global Variables:
 696:.\Generated_Source\PSoC4/CapSense_1.c **** *  CapSense_1_csdStatusVar - used to provide the status and mode of the scanning process. 
 697:.\Generated_Source\PSoC4/CapSense_1.c **** *  Sets the busy status(scan in progress) and clears the single scan mode.
 698:.\Generated_Source\PSoC4/CapSense_1.c **** *  CapSense_1_sensorIndex - used to store a sensor scanning sensor number.
 699:.\Generated_Source\PSoC4/CapSense_1.c **** *  Sets to 0xFF and provided to function CapSense_1_FindNextSensor or
 700:.\Generated_Source\PSoC4/CapSense_1.c **** *
 701:.\Generated_Source\PSoC4/CapSense_1.c **** * Side Effects:
 702:.\Generated_Source\PSoC4/CapSense_1.c **** *  None
 703:.\Generated_Source\PSoC4/CapSense_1.c **** * 
 704:.\Generated_Source\PSoC4/CapSense_1.c **** *******************************************************************************/
 705:.\Generated_Source\PSoC4/CapSense_1.c **** void CapSense_1_ScanEnabledWidgets(void)
 706:.\Generated_Source\PSoC4/CapSense_1.c **** {
 762              		.loc 1 706 0
 763              		.cfi_startproc
 764 0000 80B5     		push	{r7, lr}
 765              		.cfi_def_cfa_offset 8
 766              		.cfi_offset 7, -8
 767              		.cfi_offset 14, -4
ARM GAS  C:\Users\mitchell\AppData\Local\Temp\cc5pMFOa.s 			page 27


 768 0002 00AF     		add	r7, sp, #0
 769              		.cfi_def_cfa_register 7
 707:.\Generated_Source\PSoC4/CapSense_1.c ****     /* Clears status/control variable and set sensorIndex */
 708:.\Generated_Source\PSoC4/CapSense_1.c ****     CapSense_1_csdStatusVar = 0u;
 770              		.loc 1 708 0
 771 0004 124B     		ldr	r3, .L42
 772 0006 0022     		mov	r2, #0
 773 0008 1A70     		strb	r2, [r3]
 709:.\Generated_Source\PSoC4/CapSense_1.c ****     CapSense_1_sensorIndex = 0xFFu;
 774              		.loc 1 709 0
 775 000a 124B     		ldr	r3, .L42+4
 776 000c FF22     		mov	r2, #255
 777 000e 1A70     		strb	r2, [r3]
 710:.\Generated_Source\PSoC4/CapSense_1.c ****     
 711:.\Generated_Source\PSoC4/CapSense_1.c ****     /* Find next sensor */
 712:.\Generated_Source\PSoC4/CapSense_1.c ****     CapSense_1_sensorIndex = (uint8)CapSense_1_FindNextSensor(CapSense_1_sensorIndex);
 778              		.loc 1 712 0
 779 0010 104B     		ldr	r3, .L42+4
 780 0012 1B78     		ldrb	r3, [r3]
 781 0014 DBB2     		uxtb	r3, r3
 782 0016 181C     		mov	r0, r3
 783 0018 FFF7FEFF 		bl	CapSense_1_FindNextSensor
 784 001c 031C     		mov	r3, r0
 785 001e 1A1C     		mov	r2, r3
 786 0020 0C4B     		ldr	r3, .L42+4
 787 0022 1A70     		strb	r2, [r3]
 713:.\Generated_Source\PSoC4/CapSense_1.c **** 
 714:.\Generated_Source\PSoC4/CapSense_1.c ****     /* Check end of scan condition */
 715:.\Generated_Source\PSoC4/CapSense_1.c ****     if(CapSense_1_sensorIndex < CapSense_1_TOTAL_SENSOR_COUNT)
 788              		.loc 1 715 0
 789 0024 0B4B     		ldr	r3, .L42+4
 790 0026 1B78     		ldrb	r3, [r3]
 791 0028 DBB2     		uxtb	r3, r3
 792 002a 042B     		cmp	r3, #4
 793 002c 0DD8     		bhi	.L40
 716:.\Generated_Source\PSoC4/CapSense_1.c ****     {
 717:.\Generated_Source\PSoC4/CapSense_1.c ****         CapSense_1_csdStatusVar |= CapSense_1_SW_STS_BUSY;
 794              		.loc 1 717 0
 795 002e 084B     		ldr	r3, .L42
 796 0030 1B78     		ldrb	r3, [r3]
 797 0032 DBB2     		uxtb	r3, r3
 798 0034 0122     		mov	r2, #1
 799 0036 1343     		orr	r3, r2
 800 0038 DAB2     		uxtb	r2, r3
 801 003a 054B     		ldr	r3, .L42
 802 003c 1A70     		strb	r2, [r3]
 718:.\Generated_Source\PSoC4/CapSense_1.c ****         CapSense_1_PreScan((uint32)CapSense_1_sensorIndex);
 803              		.loc 1 718 0
 804 003e 054B     		ldr	r3, .L42+4
 805 0040 1B78     		ldrb	r3, [r3]
 806 0042 DBB2     		uxtb	r3, r3
 807 0044 181C     		mov	r0, r3
 808 0046 FFF7FEFF 		bl	CapSense_1_PreScan
 809              	.L40:
 719:.\Generated_Source\PSoC4/CapSense_1.c ****     }
 720:.\Generated_Source\PSoC4/CapSense_1.c **** }
 810              		.loc 1 720 0
ARM GAS  C:\Users\mitchell\AppData\Local\Temp\cc5pMFOa.s 			page 28


 811 004a BD46     		mov	sp, r7
 812              		@ sp needed
 813 004c 80BD     		pop	{r7, pc}
 814              	.L43:
 815 004e C046     		.align	2
 816              	.L42:
 817 0050 00000000 		.word	CapSense_1_csdStatusVar
 818 0054 00000000 		.word	CapSense_1_sensorIndex
 819              		.cfi_endproc
 820              	.LFE41:
 821              		.size	CapSense_1_ScanEnabledWidgets, .-CapSense_1_ScanEnabledWidgets
 822              		.section	.text.CapSense_1_IsBusy,"ax",%progbits
 823              		.align	2
 824              		.global	CapSense_1_IsBusy
 825              		.code	16
 826              		.thumb_func
 827              		.type	CapSense_1_IsBusy, %function
 828              	CapSense_1_IsBusy:
 829              	.LFB42:
 721:.\Generated_Source\PSoC4/CapSense_1.c **** 
 722:.\Generated_Source\PSoC4/CapSense_1.c **** 
 723:.\Generated_Source\PSoC4/CapSense_1.c **** /*******************************************************************************
 724:.\Generated_Source\PSoC4/CapSense_1.c **** * Function Name: CapSense_1_IsBusy
 725:.\Generated_Source\PSoC4/CapSense_1.c **** ********************************************************************************
 726:.\Generated_Source\PSoC4/CapSense_1.c **** *
 727:.\Generated_Source\PSoC4/CapSense_1.c **** * Summary:
 728:.\Generated_Source\PSoC4/CapSense_1.c **** *  Returns the state of the CapSense component. 1 means that scanning in 
 729:.\Generated_Source\PSoC4/CapSense_1.c **** *  progress and 0 means that scanning is complete.
 730:.\Generated_Source\PSoC4/CapSense_1.c **** *
 731:.\Generated_Source\PSoC4/CapSense_1.c **** * Parameters:
 732:.\Generated_Source\PSoC4/CapSense_1.c **** *  None
 733:.\Generated_Source\PSoC4/CapSense_1.c **** *
 734:.\Generated_Source\PSoC4/CapSense_1.c **** * Return:
 735:.\Generated_Source\PSoC4/CapSense_1.c **** *  Returns the state of scanning. 1 - scanning in progress, 0 - scanning 
 736:.\Generated_Source\PSoC4/CapSense_1.c **** *  completed.
 737:.\Generated_Source\PSoC4/CapSense_1.c **** *
 738:.\Generated_Source\PSoC4/CapSense_1.c **** * Global Variables:
 739:.\Generated_Source\PSoC4/CapSense_1.c **** *  CapSense_1_csdStatusVar - used to provide the status and mode of the scanning process. 
 740:.\Generated_Source\PSoC4/CapSense_1.c **** *  Checks the busy status.
 741:.\Generated_Source\PSoC4/CapSense_1.c **** *
 742:.\Generated_Source\PSoC4/CapSense_1.c **** * Side Effects:
 743:.\Generated_Source\PSoC4/CapSense_1.c **** *  None
 744:.\Generated_Source\PSoC4/CapSense_1.c **** * 
 745:.\Generated_Source\PSoC4/CapSense_1.c **** *******************************************************************************/
 746:.\Generated_Source\PSoC4/CapSense_1.c **** uint32 CapSense_1_IsBusy(void)
 747:.\Generated_Source\PSoC4/CapSense_1.c **** {
 830              		.loc 1 747 0
 831              		.cfi_startproc
 832 0000 80B5     		push	{r7, lr}
 833              		.cfi_def_cfa_offset 8
 834              		.cfi_offset 7, -8
 835              		.cfi_offset 14, -4
 836 0002 00AF     		add	r7, sp, #0
 837              		.cfi_def_cfa_register 7
 748:.\Generated_Source\PSoC4/CapSense_1.c ****     return ((uint32)((0u != (CapSense_1_csdStatusVar & CapSense_1_SW_STS_BUSY)) ? 1u : 0u));
 838              		.loc 1 748 0
 839 0004 044B     		ldr	r3, .L46
ARM GAS  C:\Users\mitchell\AppData\Local\Temp\cc5pMFOa.s 			page 29


 840 0006 1B78     		ldrb	r3, [r3]
 841 0008 DBB2     		uxtb	r3, r3
 842 000a 1A1C     		mov	r2, r3
 843 000c 0123     		mov	r3, #1
 844 000e 1340     		and	r3, r2
 749:.\Generated_Source\PSoC4/CapSense_1.c **** }
 845              		.loc 1 749 0
 846 0010 181C     		mov	r0, r3
 847 0012 BD46     		mov	sp, r7
 848              		@ sp needed
 849 0014 80BD     		pop	{r7, pc}
 850              	.L47:
 851 0016 C046     		.align	2
 852              	.L46:
 853 0018 00000000 		.word	CapSense_1_csdStatusVar
 854              		.cfi_endproc
 855              	.LFE42:
 856              		.size	CapSense_1_IsBusy, .-CapSense_1_IsBusy
 857              		.section	.text.CapSense_1_ReadSensorRaw,"ax",%progbits
 858              		.align	2
 859              		.global	CapSense_1_ReadSensorRaw
 860              		.code	16
 861              		.thumb_func
 862              		.type	CapSense_1_ReadSensorRaw, %function
 863              	CapSense_1_ReadSensorRaw:
 864              	.LFB43:
 750:.\Generated_Source\PSoC4/CapSense_1.c **** 
 751:.\Generated_Source\PSoC4/CapSense_1.c **** 
 752:.\Generated_Source\PSoC4/CapSense_1.c **** /*******************************************************************************
 753:.\Generated_Source\PSoC4/CapSense_1.c **** * Function Name: CapSense_1_ReadSensorRaw
 754:.\Generated_Source\PSoC4/CapSense_1.c **** ********************************************************************************
 755:.\Generated_Source\PSoC4/CapSense_1.c **** *
 756:.\Generated_Source\PSoC4/CapSense_1.c **** * Summary:
 757:.\Generated_Source\PSoC4/CapSense_1.c **** *  Returns sensor raw data from the global CapSense_sensorRaw[ ] array. 
 758:.\Generated_Source\PSoC4/CapSense_1.c **** *  Each scan sensor has a unique number within the sensor array. 
 759:.\Generated_Source\PSoC4/CapSense_1.c **** *  This number is assigned by the CapSense customizer in sequence. 
 760:.\Generated_Source\PSoC4/CapSense_1.c **** *  Raw data can be used to perform calculations outside of the CapSense 
 761:.\Generated_Source\PSoC4/CapSense_1.c **** *  provided framework.
 762:.\Generated_Source\PSoC4/CapSense_1.c **** *
 763:.\Generated_Source\PSoC4/CapSense_1.c **** * Parameters:
 764:.\Generated_Source\PSoC4/CapSense_1.c **** *  sensor:  Sensor number.
 765:.\Generated_Source\PSoC4/CapSense_1.c **** *
 766:.\Generated_Source\PSoC4/CapSense_1.c **** * Return:
 767:.\Generated_Source\PSoC4/CapSense_1.c **** *  Returns the current raw data value for a defined sensor number.
 768:.\Generated_Source\PSoC4/CapSense_1.c **** *
 769:.\Generated_Source\PSoC4/CapSense_1.c **** * Global Variables:
 770:.\Generated_Source\PSoC4/CapSense_1.c **** *  CapSense_1_sensorRaw[] - used to store sensors raw data.
 771:.\Generated_Source\PSoC4/CapSense_1.c **** *
 772:.\Generated_Source\PSoC4/CapSense_1.c **** * Side Effects: 
 773:.\Generated_Source\PSoC4/CapSense_1.c **** *  None
 774:.\Generated_Source\PSoC4/CapSense_1.c **** *
 775:.\Generated_Source\PSoC4/CapSense_1.c **** *******************************************************************************/
 776:.\Generated_Source\PSoC4/CapSense_1.c **** uint16 CapSense_1_ReadSensorRaw(uint32 sensor)
 777:.\Generated_Source\PSoC4/CapSense_1.c **** {
 865              		.loc 1 777 0
 866              		.cfi_startproc
 867 0000 80B5     		push	{r7, lr}
ARM GAS  C:\Users\mitchell\AppData\Local\Temp\cc5pMFOa.s 			page 30


 868              		.cfi_def_cfa_offset 8
 869              		.cfi_offset 7, -8
 870              		.cfi_offset 14, -4
 871 0002 82B0     		sub	sp, sp, #8
 872              		.cfi_def_cfa_offset 16
 873 0004 00AF     		add	r7, sp, #0
 874              		.cfi_def_cfa_register 7
 875 0006 7860     		str	r0, [r7, #4]
 778:.\Generated_Source\PSoC4/CapSense_1.c ****     return CapSense_1_sensorRaw[sensor];
 876              		.loc 1 778 0
 877 0008 034B     		ldr	r3, .L50
 878 000a 7A68     		ldr	r2, [r7, #4]
 879 000c 5200     		lsl	r2, r2, #1
 880 000e D35A     		ldrh	r3, [r2, r3]
 779:.\Generated_Source\PSoC4/CapSense_1.c **** }
 881              		.loc 1 779 0
 882 0010 181C     		mov	r0, r3
 883 0012 BD46     		mov	sp, r7
 884 0014 02B0     		add	sp, sp, #8
 885              		@ sp needed
 886 0016 80BD     		pop	{r7, pc}
 887              	.L51:
 888              		.align	2
 889              	.L50:
 890 0018 00000000 		.word	CapSense_1_sensorRaw
 891              		.cfi_endproc
 892              	.LFE43:
 893              		.size	CapSense_1_ReadSensorRaw, .-CapSense_1_ReadSensorRaw
 894              		.section	.text.CapSense_1_WriteSensorRaw,"ax",%progbits
 895              		.align	2
 896              		.global	CapSense_1_WriteSensorRaw
 897              		.code	16
 898              		.thumb_func
 899              		.type	CapSense_1_WriteSensorRaw, %function
 900              	CapSense_1_WriteSensorRaw:
 901              	.LFB44:
 780:.\Generated_Source\PSoC4/CapSense_1.c **** 
 781:.\Generated_Source\PSoC4/CapSense_1.c **** 
 782:.\Generated_Source\PSoC4/CapSense_1.c **** /*******************************************************************************
 783:.\Generated_Source\PSoC4/CapSense_1.c **** * Function Name: CapSense_1_WriteSensorRaw
 784:.\Generated_Source\PSoC4/CapSense_1.c **** ********************************************************************************
 785:.\Generated_Source\PSoC4/CapSense_1.c **** *
 786:.\Generated_Source\PSoC4/CapSense_1.c **** * Summary:
 787:.\Generated_Source\PSoC4/CapSense_1.c **** *  This API writes the raw count value passed as an argument to the sensor Raw count array.
 788:.\Generated_Source\PSoC4/CapSense_1.c **** *
 789:.\Generated_Source\PSoC4/CapSense_1.c **** * Parameters:
 790:.\Generated_Source\PSoC4/CapSense_1.c **** *  sensor:  Sensor number.
 791:.\Generated_Source\PSoC4/CapSense_1.c **** *  value: Raw count value.
 792:.\Generated_Source\PSoC4/CapSense_1.c **** *
 793:.\Generated_Source\PSoC4/CapSense_1.c **** * Global Variables:
 794:.\Generated_Source\PSoC4/CapSense_1.c **** *  CapSense_1_sensorRaw[] - used to store sensors raw data.
 795:.\Generated_Source\PSoC4/CapSense_1.c **** *
 796:.\Generated_Source\PSoC4/CapSense_1.c **** * Return:
 797:.\Generated_Source\PSoC4/CapSense_1.c **** *  None
 798:.\Generated_Source\PSoC4/CapSense_1.c **** *
 799:.\Generated_Source\PSoC4/CapSense_1.c **** * Side Effects: 
 800:.\Generated_Source\PSoC4/CapSense_1.c **** *  None
ARM GAS  C:\Users\mitchell\AppData\Local\Temp\cc5pMFOa.s 			page 31


 801:.\Generated_Source\PSoC4/CapSense_1.c **** *
 802:.\Generated_Source\PSoC4/CapSense_1.c **** *******************************************************************************/
 803:.\Generated_Source\PSoC4/CapSense_1.c **** void CapSense_1_WriteSensorRaw(uint32 sensor, uint16 value)
 804:.\Generated_Source\PSoC4/CapSense_1.c **** {
 902              		.loc 1 804 0
 903              		.cfi_startproc
 904 0000 80B5     		push	{r7, lr}
 905              		.cfi_def_cfa_offset 8
 906              		.cfi_offset 7, -8
 907              		.cfi_offset 14, -4
 908 0002 82B0     		sub	sp, sp, #8
 909              		.cfi_def_cfa_offset 16
 910 0004 00AF     		add	r7, sp, #0
 911              		.cfi_def_cfa_register 7
 912 0006 7860     		str	r0, [r7, #4]
 913 0008 0A1C     		mov	r2, r1
 914 000a BB1C     		add	r3, r7, #2
 915 000c 1A80     		strh	r2, [r3]
 805:.\Generated_Source\PSoC4/CapSense_1.c **** 	CapSense_1_sensorRaw[sensor] = value;
 916              		.loc 1 805 0
 917 000e 044B     		ldr	r3, .L53
 918 0010 7A68     		ldr	r2, [r7, #4]
 919 0012 5200     		lsl	r2, r2, #1
 920 0014 B91C     		add	r1, r7, #2
 921 0016 0988     		ldrh	r1, [r1]
 922 0018 D152     		strh	r1, [r2, r3]
 806:.\Generated_Source\PSoC4/CapSense_1.c **** }
 923              		.loc 1 806 0
 924 001a BD46     		mov	sp, r7
 925 001c 02B0     		add	sp, sp, #8
 926              		@ sp needed
 927 001e 80BD     		pop	{r7, pc}
 928              	.L54:
 929              		.align	2
 930              	.L53:
 931 0020 00000000 		.word	CapSense_1_sensorRaw
 932              		.cfi_endproc
 933              	.LFE44:
 934              		.size	CapSense_1_WriteSensorRaw, .-CapSense_1_WriteSensorRaw
 935              		.section	.text.CapSense_1_GetScanResolution,"ax",%progbits
 936              		.align	2
 937              		.global	CapSense_1_GetScanResolution
 938              		.code	16
 939              		.thumb_func
 940              		.type	CapSense_1_GetScanResolution, %function
 941              	CapSense_1_GetScanResolution:
 942              	.LFB45:
 807:.\Generated_Source\PSoC4/CapSense_1.c **** 
 808:.\Generated_Source\PSoC4/CapSense_1.c **** 
 809:.\Generated_Source\PSoC4/CapSense_1.c **** #if (CapSense_1_TUNING_METHOD != CapSense_1__TUNING_NONE)
 810:.\Generated_Source\PSoC4/CapSense_1.c **** 	/*******************************************************************************
 811:.\Generated_Source\PSoC4/CapSense_1.c **** 	* Function Name: CapSense_1_SetScanResolution
 812:.\Generated_Source\PSoC4/CapSense_1.c **** 	********************************************************************************
 813:.\Generated_Source\PSoC4/CapSense_1.c **** 	*
 814:.\Generated_Source\PSoC4/CapSense_1.c **** 	* Summary:
 815:.\Generated_Source\PSoC4/CapSense_1.c **** 	*  Sets a value of the sensor scan resolution for a widget. 
 816:.\Generated_Source\PSoC4/CapSense_1.c **** 	*  The MIN resolution can be set 8-bit. The MAX Resolution can be set 16 bit.
ARM GAS  C:\Users\mitchell\AppData\Local\Temp\cc5pMFOa.s 			page 32


 817:.\Generated_Source\PSoC4/CapSense_1.c **** 	*  This function is not available for the tuning mode "None".
 818:.\Generated_Source\PSoC4/CapSense_1.c **** 	*
 819:.\Generated_Source\PSoC4/CapSense_1.c **** 	* Parameters:
 820:.\Generated_Source\PSoC4/CapSense_1.c **** 	*  widget:     Widget index.
 821:.\Generated_Source\PSoC4/CapSense_1.c **** 	*  resolution: Represents the resolution value. The following defines which are available in the
 822:.\Generated_Source\PSoC4/CapSense_1.c **** 	*			   CapSense_1.h file should be used:
 823:.\Generated_Source\PSoC4/CapSense_1.c **** 	*			   CapSense_1_RESOLUTION_6_BITS
 824:.\Generated_Source\PSoC4/CapSense_1.c **** 	*			   CapSense_1_RESOLUTION_7_BITS
 825:.\Generated_Source\PSoC4/CapSense_1.c **** 	*			   CapSense_1_RESOLUTION_8_BITS
 826:.\Generated_Source\PSoC4/CapSense_1.c **** 	*			   CapSense_1_RESOLUTION_9_BITS
 827:.\Generated_Source\PSoC4/CapSense_1.c **** 	*			   CapSense_1_RESOLUTION_10_BITS
 828:.\Generated_Source\PSoC4/CapSense_1.c **** 	*			   CapSense_1_RESOLUTION_11_BITS
 829:.\Generated_Source\PSoC4/CapSense_1.c **** 	*			   CapSense_1_RESOLUTION_12_BITS
 830:.\Generated_Source\PSoC4/CapSense_1.c **** 	*			   CapSense_1_RESOLUTION_13_BITS
 831:.\Generated_Source\PSoC4/CapSense_1.c **** 	*			   CapSense_1_RESOLUTION_14_BITS
 832:.\Generated_Source\PSoC4/CapSense_1.c **** 	*			   CapSense_1_RESOLUTION_15_BITS
 833:.\Generated_Source\PSoC4/CapSense_1.c **** 	*			   CapSense_1_RESOLUTION_16_BITS
 834:.\Generated_Source\PSoC4/CapSense_1.c **** 	*
 835:.\Generated_Source\PSoC4/CapSense_1.c **** 	* Return:
 836:.\Generated_Source\PSoC4/CapSense_1.c **** 	*  None
 837:.\Generated_Source\PSoC4/CapSense_1.c **** 	*
 838:.\Generated_Source\PSoC4/CapSense_1.c **** 	* Global Variables:
 839:.\Generated_Source\PSoC4/CapSense_1.c **** 	*  CapSense_1_widgetResolution[] - used to store scan resolution of each widget.
 840:.\Generated_Source\PSoC4/CapSense_1.c **** 	*
 841:.\Generated_Source\PSoC4/CapSense_1.c **** 	* Side Effects: 
 842:.\Generated_Source\PSoC4/CapSense_1.c **** 	*  None
 843:.\Generated_Source\PSoC4/CapSense_1.c **** 	*
 844:.\Generated_Source\PSoC4/CapSense_1.c **** 	*******************************************************************************/
 845:.\Generated_Source\PSoC4/CapSense_1.c **** 	void CapSense_1_SetScanResolution(uint32 widget, uint32 resolution)
 846:.\Generated_Source\PSoC4/CapSense_1.c **** 	{ 
 847:.\Generated_Source\PSoC4/CapSense_1.c ****         CapSense_1_widgetResolution[widget] = resolution;
 848:.\Generated_Source\PSoC4/CapSense_1.c **** 	}
 849:.\Generated_Source\PSoC4/CapSense_1.c **** #endif /* (CapSense_1_TUNING_METHOD != CapSense_1__TUNING_NONE) */
 850:.\Generated_Source\PSoC4/CapSense_1.c **** 
 851:.\Generated_Source\PSoC4/CapSense_1.c **** 
 852:.\Generated_Source\PSoC4/CapSense_1.c **** /*******************************************************************************
 853:.\Generated_Source\PSoC4/CapSense_1.c **** * Function Name: CapSense_1_GetScanResolution
 854:.\Generated_Source\PSoC4/CapSense_1.c **** ********************************************************************************
 855:.\Generated_Source\PSoC4/CapSense_1.c **** *
 856:.\Generated_Source\PSoC4/CapSense_1.c **** * Summary:
 857:.\Generated_Source\PSoC4/CapSense_1.c **** *  Returns the resolution value for the appropriate sensor.
 858:.\Generated_Source\PSoC4/CapSense_1.c **** *  This function is not available for tuning mode "None".
 859:.\Generated_Source\PSoC4/CapSense_1.c **** *
 860:.\Generated_Source\PSoC4/CapSense_1.c **** * Parameters:
 861:.\Generated_Source\PSoC4/CapSense_1.c **** *  widget:     Widget index.
 862:.\Generated_Source\PSoC4/CapSense_1.c **** *
 863:.\Generated_Source\PSoC4/CapSense_1.c **** * Return:
 864:.\Generated_Source\PSoC4/CapSense_1.c **** *  resolution: Returns the resolution value for the appropriate sensor. 
 865:.\Generated_Source\PSoC4/CapSense_1.c **** *              The resolution values are defined in the CapSense_1.h file 
 866:.\Generated_Source\PSoC4/CapSense_1.c **** *              The defines are encountered below:
 867:.\Generated_Source\PSoC4/CapSense_1.c **** *			   CapSense_1_RESOLUTION_6_BITS
 868:.\Generated_Source\PSoC4/CapSense_1.c **** *			   CapSense_1_RESOLUTION_7_BITS
 869:.\Generated_Source\PSoC4/CapSense_1.c **** *			   CapSense_1_RESOLUTION_8_BITS
 870:.\Generated_Source\PSoC4/CapSense_1.c **** *			   CapSense_1_RESOLUTION_9_BITS
 871:.\Generated_Source\PSoC4/CapSense_1.c **** *			   CapSense_1_RESOLUTION_10_BITS
 872:.\Generated_Source\PSoC4/CapSense_1.c **** *			   CapSense_1_RESOLUTION_11_BITS
 873:.\Generated_Source\PSoC4/CapSense_1.c **** *			   CapSense_1_RESOLUTION_12_BITS
ARM GAS  C:\Users\mitchell\AppData\Local\Temp\cc5pMFOa.s 			page 33


 874:.\Generated_Source\PSoC4/CapSense_1.c **** *			   CapSense_1_RESOLUTION_13_BITS
 875:.\Generated_Source\PSoC4/CapSense_1.c **** *			   CapSense_1_RESOLUTION_14_BITS
 876:.\Generated_Source\PSoC4/CapSense_1.c **** *			   CapSense_1_RESOLUTION_15_BITS
 877:.\Generated_Source\PSoC4/CapSense_1.c **** *			   CapSense_1_RESOLUTION_16_BITS
 878:.\Generated_Source\PSoC4/CapSense_1.c **** *
 879:.\Generated_Source\PSoC4/CapSense_1.c **** * Global Variables:
 880:.\Generated_Source\PSoC4/CapSense_1.c **** *  CapSense_1_widgetResolution[] - used to store scan resolution of every widget.
 881:.\Generated_Source\PSoC4/CapSense_1.c **** *
 882:.\Generated_Source\PSoC4/CapSense_1.c **** * Side Effects: 
 883:.\Generated_Source\PSoC4/CapSense_1.c **** *  None
 884:.\Generated_Source\PSoC4/CapSense_1.c **** *
 885:.\Generated_Source\PSoC4/CapSense_1.c **** *******************************************************************************/
 886:.\Generated_Source\PSoC4/CapSense_1.c **** uint32 CapSense_1_GetScanResolution(uint32 widget)
 887:.\Generated_Source\PSoC4/CapSense_1.c **** {
 943              		.loc 1 887 0
 944              		.cfi_startproc
 945 0000 80B5     		push	{r7, lr}
 946              		.cfi_def_cfa_offset 8
 947              		.cfi_offset 7, -8
 948              		.cfi_offset 14, -4
 949 0002 82B0     		sub	sp, sp, #8
 950              		.cfi_def_cfa_offset 16
 951 0004 00AF     		add	r7, sp, #0
 952              		.cfi_def_cfa_register 7
 953 0006 7860     		str	r0, [r7, #4]
 888:.\Generated_Source\PSoC4/CapSense_1.c **** 	return(CapSense_1_widgetResolution[widget]);
 954              		.loc 1 888 0
 955 0008 024B     		ldr	r3, .L57
 889:.\Generated_Source\PSoC4/CapSense_1.c **** }
 956              		.loc 1 889 0
 957 000a 181C     		mov	r0, r3
 958 000c BD46     		mov	sp, r7
 959 000e 02B0     		add	sp, sp, #8
 960              		@ sp needed
 961 0010 80BD     		pop	{r7, pc}
 962              	.L58:
 963 0012 C046     		.align	2
 964              	.L57:
 965 0014 0000FF0F 		.word	268369920
 966              		.cfi_endproc
 967              	.LFE45:
 968              		.size	CapSense_1_GetScanResolution, .-CapSense_1_GetScanResolution
 969              		.section	.text.CapSense_1_ClearSensors,"ax",%progbits
 970              		.align	2
 971              		.global	CapSense_1_ClearSensors
 972              		.code	16
 973              		.thumb_func
 974              		.type	CapSense_1_ClearSensors, %function
 975              	CapSense_1_ClearSensors:
 976              	.LFB46:
 890:.\Generated_Source\PSoC4/CapSense_1.c **** 
 891:.\Generated_Source\PSoC4/CapSense_1.c **** 
 892:.\Generated_Source\PSoC4/CapSense_1.c **** /*******************************************************************************
 893:.\Generated_Source\PSoC4/CapSense_1.c **** * Function Name: CapSense_1_ClearSensors
 894:.\Generated_Source\PSoC4/CapSense_1.c **** ********************************************************************************
 895:.\Generated_Source\PSoC4/CapSense_1.c **** *
 896:.\Generated_Source\PSoC4/CapSense_1.c **** * Summary:
ARM GAS  C:\Users\mitchell\AppData\Local\Temp\cc5pMFOa.s 			page 34


 897:.\Generated_Source\PSoC4/CapSense_1.c **** *  Resets all the sensors to the non-sampling state by sequentially disconnecting
 898:.\Generated_Source\PSoC4/CapSense_1.c **** *  all the sensors from Analog MUX Bus and putting them to an inactive state.
 899:.\Generated_Source\PSoC4/CapSense_1.c **** *
 900:.\Generated_Source\PSoC4/CapSense_1.c **** * Parameters:
 901:.\Generated_Source\PSoC4/CapSense_1.c **** *  None
 902:.\Generated_Source\PSoC4/CapSense_1.c **** *
 903:.\Generated_Source\PSoC4/CapSense_1.c **** * Return:
 904:.\Generated_Source\PSoC4/CapSense_1.c **** *  None
 905:.\Generated_Source\PSoC4/CapSense_1.c **** *
 906:.\Generated_Source\PSoC4/CapSense_1.c **** * Global Variables:
 907:.\Generated_Source\PSoC4/CapSense_1.c **** *  None
 908:.\Generated_Source\PSoC4/CapSense_1.c **** *
 909:.\Generated_Source\PSoC4/CapSense_1.c **** * Side Effects: 
 910:.\Generated_Source\PSoC4/CapSense_1.c **** *  None
 911:.\Generated_Source\PSoC4/CapSense_1.c **** *
 912:.\Generated_Source\PSoC4/CapSense_1.c **** *******************************************************************************/
 913:.\Generated_Source\PSoC4/CapSense_1.c **** void CapSense_1_ClearSensors(void)
 914:.\Generated_Source\PSoC4/CapSense_1.c **** {
 977              		.loc 1 914 0
 978              		.cfi_startproc
 979 0000 80B5     		push	{r7, lr}
 980              		.cfi_def_cfa_offset 8
 981              		.cfi_offset 7, -8
 982              		.cfi_offset 14, -4
 983 0002 82B0     		sub	sp, sp, #8
 984              		.cfi_def_cfa_offset 16
 985 0004 00AF     		add	r7, sp, #0
 986              		.cfi_def_cfa_register 7
 915:.\Generated_Source\PSoC4/CapSense_1.c **** 	uint32 snsIndex;
 916:.\Generated_Source\PSoC4/CapSense_1.c **** 	
 917:.\Generated_Source\PSoC4/CapSense_1.c ****     for (snsIndex = 0u; snsIndex < CapSense_1_TOTAL_SENSOR_COUNT; snsIndex++)
 987              		.loc 1 917 0
 988 0006 0023     		mov	r3, #0
 989 0008 7B60     		str	r3, [r7, #4]
 990 000a 06E0     		b	.L60
 991              	.L61:
 918:.\Generated_Source\PSoC4/CapSense_1.c ****     {
 919:.\Generated_Source\PSoC4/CapSense_1.c ****         CapSense_1_DisableScanSlot(snsIndex);
 992              		.loc 1 919 0 discriminator 2
 993 000c 7B68     		ldr	r3, [r7, #4]
 994 000e 181C     		mov	r0, r3
 995 0010 FFF7FEFF 		bl	CapSense_1_DisableSensor
 917:.\Generated_Source\PSoC4/CapSense_1.c ****     for (snsIndex = 0u; snsIndex < CapSense_1_TOTAL_SENSOR_COUNT; snsIndex++)
 996              		.loc 1 917 0 discriminator 2
 997 0014 7B68     		ldr	r3, [r7, #4]
 998 0016 0133     		add	r3, r3, #1
 999 0018 7B60     		str	r3, [r7, #4]
 1000              	.L60:
 917:.\Generated_Source\PSoC4/CapSense_1.c ****     for (snsIndex = 0u; snsIndex < CapSense_1_TOTAL_SENSOR_COUNT; snsIndex++)
 1001              		.loc 1 917 0 is_stmt 0 discriminator 1
 1002 001a 7B68     		ldr	r3, [r7, #4]
 1003 001c 042B     		cmp	r3, #4
 1004 001e F5D9     		bls	.L61
 920:.\Generated_Source\PSoC4/CapSense_1.c ****     }
 921:.\Generated_Source\PSoC4/CapSense_1.c **** }
 1005              		.loc 1 921 0 is_stmt 1
 1006 0020 BD46     		mov	sp, r7
ARM GAS  C:\Users\mitchell\AppData\Local\Temp\cc5pMFOa.s 			page 35


 1007 0022 02B0     		add	sp, sp, #8
 1008              		@ sp needed
 1009 0024 80BD     		pop	{r7, pc}
 1010              		.cfi_endproc
 1011              	.LFE46:
 1012              		.size	CapSense_1_ClearSensors, .-CapSense_1_ClearSensors
 1013 0026 C046     		.section	.text.CapSense_1_EnableSensor,"ax",%progbits
 1014              		.align	2
 1015              		.global	CapSense_1_EnableSensor
 1016              		.code	16
 1017              		.thumb_func
 1018              		.type	CapSense_1_EnableSensor, %function
 1019              	CapSense_1_EnableSensor:
 1020              	.LFB47:
 922:.\Generated_Source\PSoC4/CapSense_1.c **** 
 923:.\Generated_Source\PSoC4/CapSense_1.c **** 
 924:.\Generated_Source\PSoC4/CapSense_1.c **** #if (CapSense_1_IS_COMPLEX_SCANSLOTS)
 925:.\Generated_Source\PSoC4/CapSense_1.c ****     /*******************************************************************************
 926:.\Generated_Source\PSoC4/CapSense_1.c ****     * Function Name: CapSense_1_EnableScanSlot
 927:.\Generated_Source\PSoC4/CapSense_1.c ****     ********************************************************************************
 928:.\Generated_Source\PSoC4/CapSense_1.c ****     *
 929:.\Generated_Source\PSoC4/CapSense_1.c ****     * Summary:
 930:.\Generated_Source\PSoC4/CapSense_1.c ****     *  Configures the selected slot to measure during the next measurement 
 931:.\Generated_Source\PSoC4/CapSense_1.c ****     *  cycle. The corresponding pin/pins are set to Analog High-Z mode and 
 932:.\Generated_Source\PSoC4/CapSense_1.c ****     *  connected to the Analog Mux Bus. This also enables the comparator function.
 933:.\Generated_Source\PSoC4/CapSense_1.c ****     *
 934:.\Generated_Source\PSoC4/CapSense_1.c ****     * Parameters:
 935:.\Generated_Source\PSoC4/CapSense_1.c ****     *  slot:  Slot number.
 936:.\Generated_Source\PSoC4/CapSense_1.c ****     *
 937:.\Generated_Source\PSoC4/CapSense_1.c ****     * Return:
 938:.\Generated_Source\PSoC4/CapSense_1.c ****     *  None
 939:.\Generated_Source\PSoC4/CapSense_1.c ****     *
 940:.\Generated_Source\PSoC4/CapSense_1.c ****     * Global Constants:
 941:.\Generated_Source\PSoC4/CapSense_1.c ****     *  CapSense_1_portTable[]  - used to store the port number that pin 
 942:.\Generated_Source\PSoC4/CapSense_1.c ****     *  belongs to for each sensor.
 943:.\Generated_Source\PSoC4/CapSense_1.c ****     *  CapSense_1_maskTable[]  - used to store the pin within the port for 
 944:.\Generated_Source\PSoC4/CapSense_1.c ****     *  each sensor.
 945:.\Generated_Source\PSoC4/CapSense_1.c ****     *  CapSense_1_indexTable[] - used to store indexes of complex sensors.
 946:.\Generated_Source\PSoC4/CapSense_1.c ****     *  The offset and position in this array are stored in a port and mask table for 
 947:.\Generated_Source\PSoC4/CapSense_1.c ****     *  complex sensors.
 948:.\Generated_Source\PSoC4/CapSense_1.c ****     *  Bit 7 (msb) is used to define the sensor type: single or complex.
 949:.\Generated_Source\PSoC4/CapSense_1.c ****     *
 950:.\Generated_Source\PSoC4/CapSense_1.c **** 	* Side Effects: 
 951:.\Generated_Source\PSoC4/CapSense_1.c **** 	*  None
 952:.\Generated_Source\PSoC4/CapSense_1.c **** 	*
 953:.\Generated_Source\PSoC4/CapSense_1.c ****     *******************************************************************************/
 954:.\Generated_Source\PSoC4/CapSense_1.c ****     void CapSense_1_EnableScanSlot(uint32 slot)
 955:.\Generated_Source\PSoC4/CapSense_1.c ****     {
 956:.\Generated_Source\PSoC4/CapSense_1.c ****         uint8 j;
 957:.\Generated_Source\PSoC4/CapSense_1.c ****         uint8 snsNumber;
 958:.\Generated_Source\PSoC4/CapSense_1.c ****         const uint8 *index;
 959:.\Generated_Source\PSoC4/CapSense_1.c ****         /* Read sensor type: single or complex */
 960:.\Generated_Source\PSoC4/CapSense_1.c ****         uint8 snsType = CapSense_1_portTable[slot];
 961:.\Generated_Source\PSoC4/CapSense_1.c **** 
 962:.\Generated_Source\PSoC4/CapSense_1.c ****         /* Check if sensor is complex */
 963:.\Generated_Source\PSoC4/CapSense_1.c ****         if ((snsType & CapSense_1_COMPLEX_SS_FLAG) == 0u)
 964:.\Generated_Source\PSoC4/CapSense_1.c ****         {
ARM GAS  C:\Users\mitchell\AppData\Local\Temp\cc5pMFOa.s 			page 36


 965:.\Generated_Source\PSoC4/CapSense_1.c ****             /* Enable sensor (single) */
 966:.\Generated_Source\PSoC4/CapSense_1.c ****             CapSense_1_EnableSensor(slot);
 967:.\Generated_Source\PSoC4/CapSense_1.c ****         }
 968:.\Generated_Source\PSoC4/CapSense_1.c ****         else
 969:.\Generated_Source\PSoC4/CapSense_1.c ****         {
 970:.\Generated_Source\PSoC4/CapSense_1.c ****             /* Enable complex sensor */
 971:.\Generated_Source\PSoC4/CapSense_1.c ****             snsType &= ~CapSense_1_COMPLEX_SS_FLAG;
 972:.\Generated_Source\PSoC4/CapSense_1.c ****             index = &CapSense_1_indexTable[snsType];
 973:.\Generated_Source\PSoC4/CapSense_1.c ****             snsNumber = CapSense_1_maskTable[slot];
 974:.\Generated_Source\PSoC4/CapSense_1.c ****                         
 975:.\Generated_Source\PSoC4/CapSense_1.c ****             for (j = 0u; j < snsNumber; j++)
 976:.\Generated_Source\PSoC4/CapSense_1.c ****             {
 977:.\Generated_Source\PSoC4/CapSense_1.c ****                 CapSense_1_EnableSensor(index[j]);
 978:.\Generated_Source\PSoC4/CapSense_1.c ****             }
 979:.\Generated_Source\PSoC4/CapSense_1.c ****         }
 980:.\Generated_Source\PSoC4/CapSense_1.c ****     }
 981:.\Generated_Source\PSoC4/CapSense_1.c ****     
 982:.\Generated_Source\PSoC4/CapSense_1.c ****     
 983:.\Generated_Source\PSoC4/CapSense_1.c ****     /*******************************************************************************
 984:.\Generated_Source\PSoC4/CapSense_1.c ****     * Function Name: CapSense_1_DisableScanSlot
 985:.\Generated_Source\PSoC4/CapSense_1.c ****     ********************************************************************************
 986:.\Generated_Source\PSoC4/CapSense_1.c ****     *
 987:.\Generated_Source\PSoC4/CapSense_1.c ****     * Summary:
 988:.\Generated_Source\PSoC4/CapSense_1.c ****     *  Disables the selected slot. The corresponding pin/pins is/are disconnected 
 989:.\Generated_Source\PSoC4/CapSense_1.c ****     *  from the Analog Mux Bus and connected to GND, High_Z or Shield electrode.
 990:.\Generated_Source\PSoC4/CapSense_1.c ****     *
 991:.\Generated_Source\PSoC4/CapSense_1.c ****     * Parameters:
 992:.\Generated_Source\PSoC4/CapSense_1.c ****     *  slot:  Slot number.
 993:.\Generated_Source\PSoC4/CapSense_1.c ****     *
 994:.\Generated_Source\PSoC4/CapSense_1.c ****     * Return:
 995:.\Generated_Source\PSoC4/CapSense_1.c ****     *  None
 996:.\Generated_Source\PSoC4/CapSense_1.c ****     *
 997:.\Generated_Source\PSoC4/CapSense_1.c ****     * Global Variables:
 998:.\Generated_Source\PSoC4/CapSense_1.c ****     *  CapSense_1_portTable[]  - used to store the port number that pin 
 999:.\Generated_Source\PSoC4/CapSense_1.c ****     *  belongs to for each sensor.
1000:.\Generated_Source\PSoC4/CapSense_1.c ****     *  CapSense_1_maskTable[]  - used to store the pin within the port for 
1001:.\Generated_Source\PSoC4/CapSense_1.c ****     *  each sensor.
1002:.\Generated_Source\PSoC4/CapSense_1.c ****     *  CapSense_1_indexTable[] - used to store indexes of complex sensors.
1003:.\Generated_Source\PSoC4/CapSense_1.c ****     *  The offset and position in this array are stored in a port and mask table for 
1004:.\Generated_Source\PSoC4/CapSense_1.c ****     *  complex sensors.
1005:.\Generated_Source\PSoC4/CapSense_1.c ****     *  7bit(msb) is used to define the sensor type: single or complex.
1006:.\Generated_Source\PSoC4/CapSense_1.c ****     *
1007:.\Generated_Source\PSoC4/CapSense_1.c **** 	* Side Effects: 
1008:.\Generated_Source\PSoC4/CapSense_1.c **** 	*  None
1009:.\Generated_Source\PSoC4/CapSense_1.c **** 	*
1010:.\Generated_Source\PSoC4/CapSense_1.c ****     *******************************************************************************/
1011:.\Generated_Source\PSoC4/CapSense_1.c ****     void CapSense_1_DisableScanSlot(uint32 slot)
1012:.\Generated_Source\PSoC4/CapSense_1.c ****     {
1013:.\Generated_Source\PSoC4/CapSense_1.c ****         uint8 j;
1014:.\Generated_Source\PSoC4/CapSense_1.c ****         uint8 snsNumber;
1015:.\Generated_Source\PSoC4/CapSense_1.c ****         const uint8 *index;
1016:.\Generated_Source\PSoC4/CapSense_1.c **** 
1017:.\Generated_Source\PSoC4/CapSense_1.c ****         /* Read sensor type: single or complex */
1018:.\Generated_Source\PSoC4/CapSense_1.c ****         uint8 snsType = CapSense_1_portTable[slot];
1019:.\Generated_Source\PSoC4/CapSense_1.c ****         
1020:.\Generated_Source\PSoC4/CapSense_1.c ****         /* Check if sensor is complex */
1021:.\Generated_Source\PSoC4/CapSense_1.c ****         if ((snsType & CapSense_1_COMPLEX_SS_FLAG) == 0u)
ARM GAS  C:\Users\mitchell\AppData\Local\Temp\cc5pMFOa.s 			page 37


1022:.\Generated_Source\PSoC4/CapSense_1.c ****         {
1023:.\Generated_Source\PSoC4/CapSense_1.c ****             /* Disable sensor (single) */
1024:.\Generated_Source\PSoC4/CapSense_1.c ****             CapSense_1_DisableSensor(slot);
1025:.\Generated_Source\PSoC4/CapSense_1.c ****         }
1026:.\Generated_Source\PSoC4/CapSense_1.c ****         else
1027:.\Generated_Source\PSoC4/CapSense_1.c ****         {
1028:.\Generated_Source\PSoC4/CapSense_1.c ****             /* Disable complex sensor */
1029:.\Generated_Source\PSoC4/CapSense_1.c ****             snsType &= ~CapSense_1_COMPLEX_SS_FLAG;
1030:.\Generated_Source\PSoC4/CapSense_1.c ****             index = &CapSense_1_indexTable[snsType];
1031:.\Generated_Source\PSoC4/CapSense_1.c ****             snsNumber = CapSense_1_maskTable[slot];
1032:.\Generated_Source\PSoC4/CapSense_1.c ****                         
1033:.\Generated_Source\PSoC4/CapSense_1.c ****             for (j=0; j < snsNumber; j++)
1034:.\Generated_Source\PSoC4/CapSense_1.c ****             {
1035:.\Generated_Source\PSoC4/CapSense_1.c ****                 CapSense_1_DisableSensor(index[j]);
1036:.\Generated_Source\PSoC4/CapSense_1.c ****             }
1037:.\Generated_Source\PSoC4/CapSense_1.c ****         } 
1038:.\Generated_Source\PSoC4/CapSense_1.c ****     }
1039:.\Generated_Source\PSoC4/CapSense_1.c **** #endif  /* CapSense_1_IS_COMPLEX_SCANSLOTS */
1040:.\Generated_Source\PSoC4/CapSense_1.c **** 
1041:.\Generated_Source\PSoC4/CapSense_1.c **** 
1042:.\Generated_Source\PSoC4/CapSense_1.c **** /*******************************************************************************
1043:.\Generated_Source\PSoC4/CapSense_1.c **** * Function Name: CapSense_1_EnableSensor
1044:.\Generated_Source\PSoC4/CapSense_1.c **** ********************************************************************************
1045:.\Generated_Source\PSoC4/CapSense_1.c **** *
1046:.\Generated_Source\PSoC4/CapSense_1.c **** * Summary:
1047:.\Generated_Source\PSoC4/CapSense_1.c **** *  Configures the selected sensor to measure during the next measurement cycle.
1048:.\Generated_Source\PSoC4/CapSense_1.c **** *  The corresponding pins are set to Analog High-Z mode and connected to the
1049:.\Generated_Source\PSoC4/CapSense_1.c **** *  Analog Mux Bus. This also enables the comparator function.
1050:.\Generated_Source\PSoC4/CapSense_1.c **** *
1051:.\Generated_Source\PSoC4/CapSense_1.c **** * Parameters:
1052:.\Generated_Source\PSoC4/CapSense_1.c **** *  sensor:  Sensor number.
1053:.\Generated_Source\PSoC4/CapSense_1.c **** *
1054:.\Generated_Source\PSoC4/CapSense_1.c **** * Return:
1055:.\Generated_Source\PSoC4/CapSense_1.c **** *  None
1056:.\Generated_Source\PSoC4/CapSense_1.c **** *
1057:.\Generated_Source\PSoC4/CapSense_1.c **** * Global Variables:
1058:.\Generated_Source\PSoC4/CapSense_1.c **** *  CapSense_1_portTable[] - used to store the port number that pin 
1059:.\Generated_Source\PSoC4/CapSense_1.c **** *  belongs to for each sensor.
1060:.\Generated_Source\PSoC4/CapSense_1.c **** *  CapSense_1_pinShiftTbl[] - used to store position of pin that 
1061:.\Generated_Source\PSoC4/CapSense_1.c **** *  configured as sensor in port. 
1062:.\Generated_Source\PSoC4/CapSense_1.c **** *  CapSense_1_prtSelTbl[] - Contains pointers to the HSIOM 
1063:.\Generated_Source\PSoC4/CapSense_1.c **** *  registers for each port. 
1064:.\Generated_Source\PSoC4/CapSense_1.c **** *  CapSense_1_PrtCfgTb[] - Contains pointers to the port config 
1065:.\Generated_Source\PSoC4/CapSense_1.c **** *  registers for each port.
1066:.\Generated_Source\PSoC4/CapSense_1.c **** *
1067:.\Generated_Source\PSoC4/CapSense_1.c **** * Side Effects: 
1068:.\Generated_Source\PSoC4/CapSense_1.c **** *  None
1069:.\Generated_Source\PSoC4/CapSense_1.c **** *
1070:.\Generated_Source\PSoC4/CapSense_1.c **** *******************************************************************************/
1071:.\Generated_Source\PSoC4/CapSense_1.c **** void CapSense_1_EnableSensor(uint32 sensor)
1072:.\Generated_Source\PSoC4/CapSense_1.c **** {
 1021              		.loc 1 1072 0
 1022              		.cfi_startproc
 1023 0000 90B5     		push	{r4, r7, lr}
 1024              		.cfi_def_cfa_offset 12
 1025              		.cfi_offset 4, -12
 1026              		.cfi_offset 7, -8
ARM GAS  C:\Users\mitchell\AppData\Local\Temp\cc5pMFOa.s 			page 38


 1027              		.cfi_offset 14, -4
 1028 0002 87B0     		sub	sp, sp, #28
 1029              		.cfi_def_cfa_offset 40
 1030 0004 00AF     		add	r7, sp, #0
 1031              		.cfi_def_cfa_register 7
 1032 0006 7860     		str	r0, [r7, #4]
1073:.\Generated_Source\PSoC4/CapSense_1.c **** 	uint8  pinModeShift;
1074:.\Generated_Source\PSoC4/CapSense_1.c ****     uint8  pinHSIOMShift;
1075:.\Generated_Source\PSoC4/CapSense_1.c **** 	uint8 interruptState;
1076:.\Generated_Source\PSoC4/CapSense_1.c **** 	uint32 newRegisterValue;
1077:.\Generated_Source\PSoC4/CapSense_1.c ****     uint32 port;
1078:.\Generated_Source\PSoC4/CapSense_1.c **** 	
1079:.\Generated_Source\PSoC4/CapSense_1.c **** 	port = (uint32) CapSense_1_portTable[sensor];
 1033              		.loc 1 1079 0
 1034 0008 2C4A     		ldr	r2, .L63
 1035 000a 7B68     		ldr	r3, [r7, #4]
 1036 000c D318     		add	r3, r2, r3
 1037 000e 1B78     		ldrb	r3, [r3]
 1038 0010 7B61     		str	r3, [r7, #20]
1080:.\Generated_Source\PSoC4/CapSense_1.c ****     pinModeShift = CapSense_1_pinShiftTbl[sensor]  * CapSense_1_PC_PIN_CFG_SIZE;
 1039              		.loc 1 1080 0
 1040 0012 2B4A     		ldr	r2, .L63+4
 1041 0014 7B68     		ldr	r3, [r7, #4]
 1042 0016 D318     		add	r3, r2, r3
 1043 0018 1B78     		ldrb	r3, [r3]
 1044 001a 391C     		mov	r1, r7
 1045 001c 1331     		add	r1, r1, #19
 1046 001e 1A1C     		add	r2, r3, #0
 1047 0020 9218     		add	r2, r2, r2
 1048 0022 D318     		add	r3, r2, r3
 1049 0024 0B70     		strb	r3, [r1]
1081:.\Generated_Source\PSoC4/CapSense_1.c ****     pinHSIOMShift = CapSense_1_pinShiftTbl[sensor] * CapSense_1_HSIOM_PIN_CFG_SIZE;
 1050              		.loc 1 1081 0
 1051 0026 264A     		ldr	r2, .L63+4
 1052 0028 7B68     		ldr	r3, [r7, #4]
 1053 002a D318     		add	r3, r2, r3
 1054 002c 1A78     		ldrb	r2, [r3]
 1055 002e 3B1C     		mov	r3, r7
 1056 0030 1233     		add	r3, r3, #18
 1057 0032 9200     		lsl	r2, r2, #2
 1058 0034 1A70     		strb	r2, [r3]
1082:.\Generated_Source\PSoC4/CapSense_1.c **** 
1083:.\Generated_Source\PSoC4/CapSense_1.c **** 	interruptState = CyEnterCriticalSection();
 1059              		.loc 1 1083 0
 1060 0036 3C1C     		mov	r4, r7
 1061 0038 1134     		add	r4, r4, #17
 1062 003a FFF7FEFF 		bl	CyEnterCriticalSection
 1063 003e 031C     		mov	r3, r0
 1064 0040 2370     		strb	r3, [r4]
1084:.\Generated_Source\PSoC4/CapSense_1.c **** 	
1085:.\Generated_Source\PSoC4/CapSense_1.c **** 	newRegisterValue = *CapSense_1_prtSelTbl[port];
 1065              		.loc 1 1085 0
 1066 0042 204B     		ldr	r3, .L63+8
 1067 0044 7A69     		ldr	r2, [r7, #20]
 1068 0046 9200     		lsl	r2, r2, #2
 1069 0048 D358     		ldr	r3, [r2, r3]
 1070 004a 1B68     		ldr	r3, [r3]
ARM GAS  C:\Users\mitchell\AppData\Local\Temp\cc5pMFOa.s 			page 39


 1071 004c FB60     		str	r3, [r7, #12]
1086:.\Generated_Source\PSoC4/CapSense_1.c **** 	newRegisterValue &= ~(CapSense_1_CSD_HSIOM_MASK << pinHSIOMShift);
 1072              		.loc 1 1086 0
 1073 004e 3B1C     		mov	r3, r7
 1074 0050 1233     		add	r3, r3, #18
 1075 0052 1B78     		ldrb	r3, [r3]
 1076 0054 0F22     		mov	r2, #15
 1077 0056 111C     		mov	r1, r2
 1078 0058 9940     		lsl	r1, r1, r3
 1079 005a 0B1C     		mov	r3, r1
 1080 005c DA43     		mvn	r2, r3
 1081 005e FB68     		ldr	r3, [r7, #12]
 1082 0060 1340     		and	r3, r2
 1083 0062 FB60     		str	r3, [r7, #12]
1087:.\Generated_Source\PSoC4/CapSense_1.c **** 	newRegisterValue |= (uint32)((uint32)CapSense_1_CSD_SENSE_PORT_MODE << pinHSIOMShift);
 1084              		.loc 1 1087 0
 1085 0064 3B1C     		mov	r3, r7
 1086 0066 1233     		add	r3, r3, #18
 1087 0068 1B78     		ldrb	r3, [r3]
 1088 006a 0422     		mov	r2, #4
 1089 006c 141C     		mov	r4, r2
 1090 006e 9C40     		lsl	r4, r4, r3
 1091 0070 231C     		mov	r3, r4
 1092 0072 FA68     		ldr	r2, [r7, #12]
 1093 0074 1343     		orr	r3, r2
 1094 0076 FB60     		str	r3, [r7, #12]
1088:.\Generated_Source\PSoC4/CapSense_1.c ****    
1089:.\Generated_Source\PSoC4/CapSense_1.c ****     *CapSense_1_prtCfgTbl[port] &= (uint32)~((uint32)CapSense_1_CSD_PIN_MODE_MASK << pinModeShift);
 1095              		.loc 1 1089 0
 1096 0078 134B     		ldr	r3, .L63+12
 1097 007a 7A69     		ldr	r2, [r7, #20]
 1098 007c 9200     		lsl	r2, r2, #2
 1099 007e D358     		ldr	r3, [r2, r3]
 1100 0080 114A     		ldr	r2, .L63+12
 1101 0082 7969     		ldr	r1, [r7, #20]
 1102 0084 8900     		lsl	r1, r1, #2
 1103 0086 8A58     		ldr	r2, [r1, r2]
 1104 0088 1268     		ldr	r2, [r2]
 1105 008a 391C     		mov	r1, r7
 1106 008c 1331     		add	r1, r1, #19
 1107 008e 0978     		ldrb	r1, [r1]
 1108 0090 0720     		mov	r0, #7
 1109 0092 041C     		mov	r4, r0
 1110 0094 8C40     		lsl	r4, r4, r1
 1111 0096 211C     		mov	r1, r4
 1112 0098 C943     		mvn	r1, r1
 1113 009a 0A40     		and	r2, r1
 1114 009c 1A60     		str	r2, [r3]
1090:.\Generated_Source\PSoC4/CapSense_1.c ****     *CapSense_1_prtSelTbl[port] = newRegisterValue;
 1115              		.loc 1 1090 0
 1116 009e 094B     		ldr	r3, .L63+8
 1117 00a0 7A69     		ldr	r2, [r7, #20]
 1118 00a2 9200     		lsl	r2, r2, #2
 1119 00a4 D358     		ldr	r3, [r2, r3]
 1120 00a6 FA68     		ldr	r2, [r7, #12]
 1121 00a8 1A60     		str	r2, [r3]
1091:.\Generated_Source\PSoC4/CapSense_1.c **** 	
ARM GAS  C:\Users\mitchell\AppData\Local\Temp\cc5pMFOa.s 			page 40


1092:.\Generated_Source\PSoC4/CapSense_1.c **** 	CyExitCriticalSection(interruptState);
 1122              		.loc 1 1092 0
 1123 00aa 3B1C     		mov	r3, r7
 1124 00ac 1133     		add	r3, r3, #17
 1125 00ae 1B78     		ldrb	r3, [r3]
 1126 00b0 181C     		mov	r0, r3
 1127 00b2 FFF7FEFF 		bl	CyExitCriticalSection
1093:.\Generated_Source\PSoC4/CapSense_1.c **** }
 1128              		.loc 1 1093 0
 1129 00b6 BD46     		mov	sp, r7
 1130 00b8 07B0     		add	sp, sp, #28
 1131              		@ sp needed
 1132 00ba 90BD     		pop	{r4, r7, pc}
 1133              	.L64:
 1134              		.align	2
 1135              	.L63:
 1136 00bc 00000000 		.word	CapSense_1_portTable
 1137 00c0 00000000 		.word	CapSense_1_pinShiftTbl
 1138 00c4 00000000 		.word	CapSense_1_prtSelTbl
 1139 00c8 00000000 		.word	CapSense_1_prtCfgTbl
 1140              		.cfi_endproc
 1141              	.LFE47:
 1142              		.size	CapSense_1_EnableSensor, .-CapSense_1_EnableSensor
 1143              		.section	.text.CapSense_1_DisableSensor,"ax",%progbits
 1144              		.align	2
 1145              		.global	CapSense_1_DisableSensor
 1146              		.code	16
 1147              		.thumb_func
 1148              		.type	CapSense_1_DisableSensor, %function
 1149              	CapSense_1_DisableSensor:
 1150              	.LFB48:
1094:.\Generated_Source\PSoC4/CapSense_1.c **** 
1095:.\Generated_Source\PSoC4/CapSense_1.c **** 
1096:.\Generated_Source\PSoC4/CapSense_1.c **** /*******************************************************************************
1097:.\Generated_Source\PSoC4/CapSense_1.c **** * Function Name: CapSense_1_DisableSensor
1098:.\Generated_Source\PSoC4/CapSense_1.c **** ********************************************************************************
1099:.\Generated_Source\PSoC4/CapSense_1.c **** *
1100:.\Generated_Source\PSoC4/CapSense_1.c **** * Summary:
1101:.\Generated_Source\PSoC4/CapSense_1.c **** *  Disables the selected sensor. The corresponding pin is disconnected from the
1102:.\Generated_Source\PSoC4/CapSense_1.c **** *  Analog Mux Bus and connected to GND, High_Z or Shield electrode.
1103:.\Generated_Source\PSoC4/CapSense_1.c **** *
1104:.\Generated_Source\PSoC4/CapSense_1.c **** * Parameters:
1105:.\Generated_Source\PSoC4/CapSense_1.c **** *  sensor:  Sensor number
1106:.\Generated_Source\PSoC4/CapSense_1.c **** *
1107:.\Generated_Source\PSoC4/CapSense_1.c **** * Return:
1108:.\Generated_Source\PSoC4/CapSense_1.c **** *  None
1109:.\Generated_Source\PSoC4/CapSense_1.c **** *
1110:.\Generated_Source\PSoC4/CapSense_1.c **** * Global Variables:
1111:.\Generated_Source\PSoC4/CapSense_1.c **** *  CapSense_1_portTable[] - used to store the port number that pin 
1112:.\Generated_Source\PSoC4/CapSense_1.c **** *  belongs to for each sensor.
1113:.\Generated_Source\PSoC4/CapSense_1.c **** *  CapSense_1_pinShiftTbl[] - used to store position of pin that 
1114:.\Generated_Source\PSoC4/CapSense_1.c **** *  configured as a sensor in the port. 
1115:.\Generated_Source\PSoC4/CapSense_1.c **** *  CapSense_1_prtSelTbl[] - Contains pointers to the HSIOM 
1116:.\Generated_Source\PSoC4/CapSense_1.c **** *  registers for each port. 
1117:.\Generated_Source\PSoC4/CapSense_1.c **** *  CapSense_1_PrtCfgTb[] - Contains pointers to the port config 
1118:.\Generated_Source\PSoC4/CapSense_1.c **** *  registers for each port.
1119:.\Generated_Source\PSoC4/CapSense_1.c **** *
ARM GAS  C:\Users\mitchell\AppData\Local\Temp\cc5pMFOa.s 			page 41


1120:.\Generated_Source\PSoC4/CapSense_1.c **** * Side Effects: 
1121:.\Generated_Source\PSoC4/CapSense_1.c **** *  None
1122:.\Generated_Source\PSoC4/CapSense_1.c **** *
1123:.\Generated_Source\PSoC4/CapSense_1.c **** *******************************************************************************/
1124:.\Generated_Source\PSoC4/CapSense_1.c **** void CapSense_1_DisableSensor(uint32 sensor)
1125:.\Generated_Source\PSoC4/CapSense_1.c **** {
 1151              		.loc 1 1125 0
 1152              		.cfi_startproc
 1153 0000 90B5     		push	{r4, r7, lr}
 1154              		.cfi_def_cfa_offset 12
 1155              		.cfi_offset 4, -12
 1156              		.cfi_offset 7, -8
 1157              		.cfi_offset 14, -4
 1158 0002 89B0     		sub	sp, sp, #36
 1159              		.cfi_def_cfa_offset 48
 1160 0004 00AF     		add	r7, sp, #0
 1161              		.cfi_def_cfa_register 7
 1162 0006 7860     		str	r0, [r7, #4]
1126:.\Generated_Source\PSoC4/CapSense_1.c ****     uint8 interruptState;
1127:.\Generated_Source\PSoC4/CapSense_1.c **** 	uint32 newRegisterValue;
1128:.\Generated_Source\PSoC4/CapSense_1.c **** 	
1129:.\Generated_Source\PSoC4/CapSense_1.c ****     uint32 port = (uint32) CapSense_1_portTable[sensor];
 1163              		.loc 1 1129 0
 1164 0008 3F4A     		ldr	r2, .L68
 1165 000a 7B68     		ldr	r3, [r7, #4]
 1166 000c D318     		add	r3, r2, r3
 1167 000e 1B78     		ldrb	r3, [r3]
 1168 0010 7B61     		str	r3, [r7, #20]
1130:.\Generated_Source\PSoC4/CapSense_1.c ****     uint8  pinHSIOMShift = CapSense_1_pinShiftTbl[sensor] * CapSense_1_HSIOM_PIN_CFG_SIZE;
 1169              		.loc 1 1130 0
 1170 0012 3E4A     		ldr	r2, .L68+4
 1171 0014 7B68     		ldr	r3, [r7, #4]
 1172 0016 D318     		add	r3, r2, r3
 1173 0018 1A78     		ldrb	r2, [r3]
 1174 001a 3B1C     		mov	r3, r7
 1175 001c 1333     		add	r3, r3, #19
 1176 001e 9200     		lsl	r2, r2, #2
 1177 0020 1A70     		strb	r2, [r3]
1131:.\Generated_Source\PSoC4/CapSense_1.c ****     uint8  pinModeShift = CapSense_1_pinShiftTbl[sensor]  * CapSense_1_PC_PIN_CFG_SIZE;
 1178              		.loc 1 1131 0
 1179 0022 3A4A     		ldr	r2, .L68+4
 1180 0024 7B68     		ldr	r3, [r7, #4]
 1181 0026 D318     		add	r3, r2, r3
 1182 0028 1B78     		ldrb	r3, [r3]
 1183 002a 391C     		mov	r1, r7
 1184 002c 1231     		add	r1, r1, #18
 1185 002e 1A1C     		add	r2, r3, #0
 1186 0030 9218     		add	r2, r2, r2
 1187 0032 D318     		add	r3, r2, r3
 1188 0034 0B70     		strb	r3, [r1]
1132:.\Generated_Source\PSoC4/CapSense_1.c **** 
1133:.\Generated_Source\PSoC4/CapSense_1.c **** 	uint32 inactiveConnect = CapSense_1_SNS_HIZANALOG_CONNECT;
 1189              		.loc 1 1133 0
 1190 0036 0023     		mov	r3, #0
 1191 0038 FB61     		str	r3, [r7, #28]
1134:.\Generated_Source\PSoC4/CapSense_1.c **** 	uint32 sensorState = CapSense_1_unscannedSnsDriveMode[sensor];
 1192              		.loc 1 1134 0
ARM GAS  C:\Users\mitchell\AppData\Local\Temp\cc5pMFOa.s 			page 42


 1193 003a 354A     		ldr	r2, .L68+8
 1194 003c 7B68     		ldr	r3, [r7, #4]
 1195 003e D318     		add	r3, r2, r3
 1196 0040 1B78     		ldrb	r3, [r3]
 1197 0042 BB61     		str	r3, [r7, #24]
1135:.\Generated_Source\PSoC4/CapSense_1.c **** 
1136:.\Generated_Source\PSoC4/CapSense_1.c ****     *CapSense_1_prtSelTbl[port] &= ~(CapSense_1_CSD_HSIOM_MASK << pinHSIOMShift);
 1198              		.loc 1 1136 0
 1199 0044 334B     		ldr	r3, .L68+12
 1200 0046 7A69     		ldr	r2, [r7, #20]
 1201 0048 9200     		lsl	r2, r2, #2
 1202 004a D358     		ldr	r3, [r2, r3]
 1203 004c 314A     		ldr	r2, .L68+12
 1204 004e 7969     		ldr	r1, [r7, #20]
 1205 0050 8900     		lsl	r1, r1, #2
 1206 0052 8A58     		ldr	r2, [r1, r2]
 1207 0054 1268     		ldr	r2, [r2]
 1208 0056 391C     		mov	r1, r7
 1209 0058 1331     		add	r1, r1, #19
 1210 005a 0978     		ldrb	r1, [r1]
 1211 005c 0F20     		mov	r0, #15
 1212 005e 041C     		mov	r4, r0
 1213 0060 8C40     		lsl	r4, r4, r1
 1214 0062 211C     		mov	r1, r4
 1215 0064 C943     		mvn	r1, r1
 1216 0066 0A40     		and	r2, r1
 1217 0068 1A60     		str	r2, [r3]
1137:.\Generated_Source\PSoC4/CapSense_1.c **** 
1138:.\Generated_Source\PSoC4/CapSense_1.c **** 	#if(CapSense_1_IS_SHIELD_ENABLE != 0)
1139:.\Generated_Source\PSoC4/CapSense_1.c **** 	if(sensorState != (uint32)CapSense_1__SHIELD)
1140:.\Generated_Source\PSoC4/CapSense_1.c **** 	{
1141:.\Generated_Source\PSoC4/CapSense_1.c **** 	#else
1142:.\Generated_Source\PSoC4/CapSense_1.c **** 	    /* Connected to Ground if shield is disabled */
1143:.\Generated_Source\PSoC4/CapSense_1.c **** 	    if(sensorState == (uint32)CapSense_1__SHIELD)
 1218              		.loc 1 1143 0
 1219 006a BB69     		ldr	r3, [r7, #24]
 1220 006c 022B     		cmp	r3, #2
 1221 006e 01D1     		bne	.L66
1144:.\Generated_Source\PSoC4/CapSense_1.c **** 		{
1145:.\Generated_Source\PSoC4/CapSense_1.c **** 			sensorState = (uint32)CapSense_1__GROUND;
 1222              		.loc 1 1145 0
 1223 0070 0023     		mov	r3, #0
 1224 0072 BB61     		str	r3, [r7, #24]
 1225              	.L66:
1146:.\Generated_Source\PSoC4/CapSense_1.c **** 		}
1147:.\Generated_Source\PSoC4/CapSense_1.c **** 	#endif /* (CapSense_1_IS_SHIELD_ENABLE) */
1148:.\Generated_Source\PSoC4/CapSense_1.c **** 	    if(sensorState != (uint32)CapSense_1__HIZ_ANALOG)
 1226              		.loc 1 1148 0
 1227 0074 BB69     		ldr	r3, [r7, #24]
 1228 0076 012B     		cmp	r3, #1
 1229 0078 01D0     		beq	.L67
1149:.\Generated_Source\PSoC4/CapSense_1.c **** 		{   
1150:.\Generated_Source\PSoC4/CapSense_1.c **** 		    /* Connected to Ground */
1151:.\Generated_Source\PSoC4/CapSense_1.c **** 		    inactiveConnect = (uint32)CapSense_1_SNS_GROUND_CONNECT;
 1230              		.loc 1 1151 0
 1231 007a 0623     		mov	r3, #6
 1232 007c FB61     		str	r3, [r7, #28]
ARM GAS  C:\Users\mitchell\AppData\Local\Temp\cc5pMFOa.s 			page 43


 1233              	.L67:
1152:.\Generated_Source\PSoC4/CapSense_1.c **** 		}
1153:.\Generated_Source\PSoC4/CapSense_1.c **** 		
1154:.\Generated_Source\PSoC4/CapSense_1.c ****         interruptState = CyEnterCriticalSection();
 1234              		.loc 1 1154 0
 1235 007e 3C1C     		mov	r4, r7
 1236 0080 1134     		add	r4, r4, #17
 1237 0082 FFF7FEFF 		bl	CyEnterCriticalSection
 1238 0086 031C     		mov	r3, r0
 1239 0088 2370     		strb	r3, [r4]
1155:.\Generated_Source\PSoC4/CapSense_1.c **** 
1156:.\Generated_Source\PSoC4/CapSense_1.c ****         /* Set drive mode */
1157:.\Generated_Source\PSoC4/CapSense_1.c ****     	newRegisterValue = *CapSense_1_prtCfgTbl[port];
 1240              		.loc 1 1157 0
 1241 008a 234B     		ldr	r3, .L68+16
 1242 008c 7A69     		ldr	r2, [r7, #20]
 1243 008e 9200     		lsl	r2, r2, #2
 1244 0090 D358     		ldr	r3, [r2, r3]
 1245 0092 1B68     		ldr	r3, [r3]
 1246 0094 FB60     		str	r3, [r7, #12]
1158:.\Generated_Source\PSoC4/CapSense_1.c ****     	newRegisterValue &= ~(CapSense_1_CSD_PIN_MODE_MASK << pinModeShift);
 1247              		.loc 1 1158 0
 1248 0096 3B1C     		mov	r3, r7
 1249 0098 1233     		add	r3, r3, #18
 1250 009a 1B78     		ldrb	r3, [r3]
 1251 009c 0722     		mov	r2, #7
 1252 009e 111C     		mov	r1, r2
 1253 00a0 9940     		lsl	r1, r1, r3
 1254 00a2 0B1C     		mov	r3, r1
 1255 00a4 DA43     		mvn	r2, r3
 1256 00a6 FB68     		ldr	r3, [r7, #12]
 1257 00a8 1340     		and	r3, r2
 1258 00aa FB60     		str	r3, [r7, #12]
1159:.\Generated_Source\PSoC4/CapSense_1.c ****     	newRegisterValue |=  (uint32)(inactiveConnect << pinModeShift);
 1259              		.loc 1 1159 0
 1260 00ac 3B1C     		mov	r3, r7
 1261 00ae 1233     		add	r3, r3, #18
 1262 00b0 1B78     		ldrb	r3, [r3]
 1263 00b2 FA69     		ldr	r2, [r7, #28]
 1264 00b4 141C     		mov	r4, r2
 1265 00b6 9C40     		lsl	r4, r4, r3
 1266 00b8 231C     		mov	r3, r4
 1267 00ba FA68     		ldr	r2, [r7, #12]
 1268 00bc 1343     		orr	r3, r2
 1269 00be FB60     		str	r3, [r7, #12]
1160:.\Generated_Source\PSoC4/CapSense_1.c ****         *CapSense_1_prtCfgTbl[port] =  newRegisterValue;
 1270              		.loc 1 1160 0
 1271 00c0 154B     		ldr	r3, .L68+16
 1272 00c2 7A69     		ldr	r2, [r7, #20]
 1273 00c4 9200     		lsl	r2, r2, #2
 1274 00c6 D358     		ldr	r3, [r2, r3]
 1275 00c8 FA68     		ldr	r2, [r7, #12]
 1276 00ca 1A60     		str	r2, [r3]
1161:.\Generated_Source\PSoC4/CapSense_1.c ****         
1162:.\Generated_Source\PSoC4/CapSense_1.c ****         CyExitCriticalSection(interruptState);
 1277              		.loc 1 1162 0
 1278 00cc 3B1C     		mov	r3, r7
ARM GAS  C:\Users\mitchell\AppData\Local\Temp\cc5pMFOa.s 			page 44


 1279 00ce 1133     		add	r3, r3, #17
 1280 00d0 1B78     		ldrb	r3, [r3]
 1281 00d2 181C     		mov	r0, r3
 1282 00d4 FFF7FEFF 		bl	CyExitCriticalSection
1163:.\Generated_Source\PSoC4/CapSense_1.c **** 
1164:.\Generated_Source\PSoC4/CapSense_1.c ****     	*CapSense_1_prtDRTbl[port]  &=  (uint32)~(uint32)((uint32)1u << CapSense_1_pinShiftTbl[sensor]
 1283              		.loc 1 1164 0
 1284 00d8 104B     		ldr	r3, .L68+20
 1285 00da 7A69     		ldr	r2, [r7, #20]
 1286 00dc 9200     		lsl	r2, r2, #2
 1287 00de D358     		ldr	r3, [r2, r3]
 1288 00e0 0E4A     		ldr	r2, .L68+20
 1289 00e2 7969     		ldr	r1, [r7, #20]
 1290 00e4 8900     		lsl	r1, r1, #2
 1291 00e6 8A58     		ldr	r2, [r1, r2]
 1292 00e8 1268     		ldr	r2, [r2]
 1293 00ea 0848     		ldr	r0, .L68+4
 1294 00ec 7968     		ldr	r1, [r7, #4]
 1295 00ee 4118     		add	r1, r0, r1
 1296 00f0 0978     		ldrb	r1, [r1]
 1297 00f2 0120     		mov	r0, #1
 1298 00f4 041C     		mov	r4, r0
 1299 00f6 8C40     		lsl	r4, r4, r1
 1300 00f8 211C     		mov	r1, r4
 1301 00fa C943     		mvn	r1, r1
 1302 00fc 0A40     		and	r2, r1
 1303 00fe 1A60     		str	r2, [r3]
1165:.\Generated_Source\PSoC4/CapSense_1.c **** 	#if(CapSense_1_IS_SHIELD_ENABLE != 0)
1166:.\Generated_Source\PSoC4/CapSense_1.c **** 	}
1167:.\Generated_Source\PSoC4/CapSense_1.c **** 	else
1168:.\Generated_Source\PSoC4/CapSense_1.c **** 	{
1169:.\Generated_Source\PSoC4/CapSense_1.c **** 		/* Connect to Shield */
1170:.\Generated_Source\PSoC4/CapSense_1.c **** 		*CapSense_1_prtSelTbl[port] |= (CapSense_1_CSD_SHIELD_PORT_MODE << pinHSIOMShift);
1171:.\Generated_Source\PSoC4/CapSense_1.c **** 	}
1172:.\Generated_Source\PSoC4/CapSense_1.c **** 	#endif /* (CapSense_1_IS_SHIELD_ENABLE) */
1173:.\Generated_Source\PSoC4/CapSense_1.c **** }
 1304              		.loc 1 1173 0
 1305 0100 BD46     		mov	sp, r7
 1306 0102 09B0     		add	sp, sp, #36
 1307              		@ sp needed
 1308 0104 90BD     		pop	{r4, r7, pc}
 1309              	.L69:
 1310 0106 C046     		.align	2
 1311              	.L68:
 1312 0108 00000000 		.word	CapSense_1_portTable
 1313 010c 00000000 		.word	CapSense_1_pinShiftTbl
 1314 0110 00000000 		.word	CapSense_1_unscannedSnsDriveMode
 1315 0114 00000000 		.word	CapSense_1_prtSelTbl
 1316 0118 00000000 		.word	CapSense_1_prtCfgTbl
 1317 011c 00000000 		.word	CapSense_1_prtDRTbl
 1318              		.cfi_endproc
 1319              	.LFE48:
 1320              		.size	CapSense_1_DisableSensor, .-CapSense_1_DisableSensor
 1321              		.section	.text.CapSense_1_SetDriveModeAllPins,"ax",%progbits
 1322              		.align	2
 1323              		.global	CapSense_1_SetDriveModeAllPins
 1324              		.code	16
ARM GAS  C:\Users\mitchell\AppData\Local\Temp\cc5pMFOa.s 			page 45


 1325              		.thumb_func
 1326              		.type	CapSense_1_SetDriveModeAllPins, %function
 1327              	CapSense_1_SetDriveModeAllPins:
 1328              	.LFB49:
1174:.\Generated_Source\PSoC4/CapSense_1.c **** 
1175:.\Generated_Source\PSoC4/CapSense_1.c **** 
1176:.\Generated_Source\PSoC4/CapSense_1.c **** /*******************************************************************************
1177:.\Generated_Source\PSoC4/CapSense_1.c **** * Function Name: CapSense_1_SetDriveModeAllPins
1178:.\Generated_Source\PSoC4/CapSense_1.c **** ********************************************************************************
1179:.\Generated_Source\PSoC4/CapSense_1.c **** *
1180:.\Generated_Source\PSoC4/CapSense_1.c **** * Summary:
1181:.\Generated_Source\PSoC4/CapSense_1.c **** * This API sets the drive mode of port pins used by the CapSense
1182:.\Generated_Source\PSoC4/CapSense_1.c **** * component (sensors, guard, shield, shield tank and Cmod) to drive the 
1183:.\Generated_Source\PSoC4/CapSense_1.c **** * mode specified by the argument.
1184:.\Generated_Source\PSoC4/CapSense_1.c **** *
1185:.\Generated_Source\PSoC4/CapSense_1.c **** * Parameters:
1186:.\Generated_Source\PSoC4/CapSense_1.c **** *  driveMode:  Drive mode definition.
1187:.\Generated_Source\PSoC4/CapSense_1.c **** *
1188:.\Generated_Source\PSoC4/CapSense_1.c **** * Return:
1189:.\Generated_Source\PSoC4/CapSense_1.c **** *  None
1190:.\Generated_Source\PSoC4/CapSense_1.c **** *
1191:.\Generated_Source\PSoC4/CapSense_1.c **** * Global Variables:
1192:.\Generated_Source\PSoC4/CapSense_1.c **** *  CapSense_1_portTable[] - used to store the port number that pin 
1193:.\Generated_Source\PSoC4/CapSense_1.c **** *  belongs to for each sensor.
1194:.\Generated_Source\PSoC4/CapSense_1.c **** *  CapSense_1_pinShiftTbl[] - used to store position of pin that 
1195:.\Generated_Source\PSoC4/CapSense_1.c **** *  configured as a sensor in the port. 
1196:.\Generated_Source\PSoC4/CapSense_1.c **** *
1197:.\Generated_Source\PSoC4/CapSense_1.c **** * Side Effects: 
1198:.\Generated_Source\PSoC4/CapSense_1.c **** *  This API shall be called only after CapSense component is stopped.
1199:.\Generated_Source\PSoC4/CapSense_1.c **** *
1200:.\Generated_Source\PSoC4/CapSense_1.c **** *******************************************************************************/
1201:.\Generated_Source\PSoC4/CapSense_1.c **** void CapSense_1_SetDriveModeAllPins(uint32 driveMode)
1202:.\Generated_Source\PSoC4/CapSense_1.c **** {
 1329              		.loc 1 1202 0
 1330              		.cfi_startproc
 1331 0000 80B5     		push	{r7, lr}
 1332              		.cfi_def_cfa_offset 8
 1333              		.cfi_offset 7, -8
 1334              		.cfi_offset 14, -4
 1335 0002 86B0     		sub	sp, sp, #24
 1336              		.cfi_def_cfa_offset 32
 1337 0004 00AF     		add	r7, sp, #0
 1338              		.cfi_def_cfa_register 7
 1339 0006 7860     		str	r0, [r7, #4]
1203:.\Generated_Source\PSoC4/CapSense_1.c **** 	uint8 curSensor;
1204:.\Generated_Source\PSoC4/CapSense_1.c **** 	#if (CapSense_1_IS_COMPLEX_SCANSLOTS)
1205:.\Generated_Source\PSoC4/CapSense_1.c **** 		uint8 snsNumber;
1206:.\Generated_Source\PSoC4/CapSense_1.c **** 		uint8 snsType;
1207:.\Generated_Source\PSoC4/CapSense_1.c **** 	#endif  /* CapSense_1_IS_COMPLEX_SCANSLOTS */
1208:.\Generated_Source\PSoC4/CapSense_1.c **** 	uint32 prtNumberTmp;
1209:.\Generated_Source\PSoC4/CapSense_1.c **** 	uint32 pinNumberTmp;
1210:.\Generated_Source\PSoC4/CapSense_1.c **** 
1211:.\Generated_Source\PSoC4/CapSense_1.c **** 	for(curSensor = 0u; curSensor < CapSense_1_TOTAL_SENSOR_COUNT; curSensor++)
 1340              		.loc 1 1211 0
 1341 0008 3B1C     		mov	r3, r7
 1342 000a 1733     		add	r3, r3, #23
 1343 000c 0022     		mov	r2, #0
ARM GAS  C:\Users\mitchell\AppData\Local\Temp\cc5pMFOa.s 			page 46


 1344 000e 1A70     		strb	r2, [r3]
 1345 0010 1AE0     		b	.L71
 1346              	.L72:
1212:.\Generated_Source\PSoC4/CapSense_1.c **** 	{	
1213:.\Generated_Source\PSoC4/CapSense_1.c **** 		#if (CapSense_1_IS_COMPLEX_SCANSLOTS)
1214:.\Generated_Source\PSoC4/CapSense_1.c **** 			/* Read sensor type: single or complex */
1215:.\Generated_Source\PSoC4/CapSense_1.c **** 			snsType = CapSense_1_portTable[curSensor];
1216:.\Generated_Source\PSoC4/CapSense_1.c **** 		
1217:.\Generated_Source\PSoC4/CapSense_1.c **** 			/* Check if sensor is complex */
1218:.\Generated_Source\PSoC4/CapSense_1.c **** 			if ((snsType & CapSense_1_COMPLEX_SS_FLAG) == 0u)
1219:.\Generated_Source\PSoC4/CapSense_1.c **** 			{
1220:.\Generated_Source\PSoC4/CapSense_1.c **** 				/* The sensor is not complex */
1221:.\Generated_Source\PSoC4/CapSense_1.c **** 				snsNumber = curSensor;
1222:.\Generated_Source\PSoC4/CapSense_1.c **** 			}
1223:.\Generated_Source\PSoC4/CapSense_1.c **** 			else
1224:.\Generated_Source\PSoC4/CapSense_1.c **** 			{
1225:.\Generated_Source\PSoC4/CapSense_1.c **** 				/* Get dedicated sensor ID of the complex sensor */
1226:.\Generated_Source\PSoC4/CapSense_1.c **** 				snsType &= ~CapSense_1_COMPLEX_SS_FLAG;
1227:.\Generated_Source\PSoC4/CapSense_1.c **** 				snsNumber = CapSense_1_indexTable[snsType];
1228:.\Generated_Source\PSoC4/CapSense_1.c **** 			}
1229:.\Generated_Source\PSoC4/CapSense_1.c **** 
1230:.\Generated_Source\PSoC4/CapSense_1.c **** 			prtNumberTmp = CapSense_1_portTable[snsNumber];
1231:.\Generated_Source\PSoC4/CapSense_1.c **** 			pinNumberTmp = CapSense_1_pinShiftTbl[snsNumber];
1232:.\Generated_Source\PSoC4/CapSense_1.c **** 		#else
1233:.\Generated_Source\PSoC4/CapSense_1.c **** 			prtNumberTmp = CapSense_1_portTable[curSensor];
 1347              		.loc 1 1233 0 discriminator 2
 1348 0012 3B1C     		mov	r3, r7
 1349 0014 1733     		add	r3, r3, #23
 1350 0016 1B78     		ldrb	r3, [r3]
 1351 0018 124A     		ldr	r2, .L73
 1352 001a D35C     		ldrb	r3, [r2, r3]
 1353 001c 3B61     		str	r3, [r7, #16]
1234:.\Generated_Source\PSoC4/CapSense_1.c **** 			pinNumberTmp = CapSense_1_pinShiftTbl[curSensor];
 1354              		.loc 1 1234 0 discriminator 2
 1355 001e 3B1C     		mov	r3, r7
 1356 0020 1733     		add	r3, r3, #23
 1357 0022 1B78     		ldrb	r3, [r3]
 1358 0024 104A     		ldr	r2, .L73+4
 1359 0026 D35C     		ldrb	r3, [r2, r3]
 1360 0028 FB60     		str	r3, [r7, #12]
1235:.\Generated_Source\PSoC4/CapSense_1.c **** 		#endif  /* CapSense_1_IS_COMPLEX_SCANSLOTS */
1236:.\Generated_Source\PSoC4/CapSense_1.c **** 	
1237:.\Generated_Source\PSoC4/CapSense_1.c **** 		CapSense_1_SetPinDriveMode(driveMode, pinNumberTmp, prtNumberTmp);
 1361              		.loc 1 1237 0 discriminator 2
 1362 002a 7968     		ldr	r1, [r7, #4]
 1363 002c FA68     		ldr	r2, [r7, #12]
 1364 002e 3B69     		ldr	r3, [r7, #16]
 1365 0030 081C     		mov	r0, r1
 1366 0032 111C     		mov	r1, r2
 1367 0034 1A1C     		mov	r2, r3
 1368 0036 FFF7FEFF 		bl	CapSense_1_SetPinDriveMode
1211:.\Generated_Source\PSoC4/CapSense_1.c **** 	for(curSensor = 0u; curSensor < CapSense_1_TOTAL_SENSOR_COUNT; curSensor++)
 1369              		.loc 1 1211 0 discriminator 2
 1370 003a 3B1C     		mov	r3, r7
 1371 003c 1733     		add	r3, r3, #23
 1372 003e 1A78     		ldrb	r2, [r3]
 1373 0040 3B1C     		mov	r3, r7
ARM GAS  C:\Users\mitchell\AppData\Local\Temp\cc5pMFOa.s 			page 47


 1374 0042 1733     		add	r3, r3, #23
 1375 0044 0132     		add	r2, r2, #1
 1376 0046 1A70     		strb	r2, [r3]
 1377              	.L71:
1211:.\Generated_Source\PSoC4/CapSense_1.c **** 	for(curSensor = 0u; curSensor < CapSense_1_TOTAL_SENSOR_COUNT; curSensor++)
 1378              		.loc 1 1211 0 is_stmt 0 discriminator 1
 1379 0048 3B1C     		mov	r3, r7
 1380 004a 1733     		add	r3, r3, #23
 1381 004c 1B78     		ldrb	r3, [r3]
 1382 004e 042B     		cmp	r3, #4
 1383 0050 DFD9     		bls	.L72
1238:.\Generated_Source\PSoC4/CapSense_1.c **** 	}
1239:.\Generated_Source\PSoC4/CapSense_1.c **** 	
1240:.\Generated_Source\PSoC4/CapSense_1.c **** 	CapSense_1_SetPinDriveMode(driveMode, (uint32)CapSense_1_CMOD_PIN_NUMBER, (uint32)CapSense_1_CMOD_
 1384              		.loc 1 1240 0 is_stmt 1
 1385 0052 7B68     		ldr	r3, [r7, #4]
 1386 0054 181C     		mov	r0, r3
 1387 0056 0221     		mov	r1, #2
 1388 0058 0422     		mov	r2, #4
 1389 005a FFF7FEFF 		bl	CapSense_1_SetPinDriveMode
1241:.\Generated_Source\PSoC4/CapSense_1.c **** 	
1242:.\Generated_Source\PSoC4/CapSense_1.c **** 	#if(0u != CapSense_1_CSH_TANK_ENABLE)
1243:.\Generated_Source\PSoC4/CapSense_1.c **** 		CapSense_1_SetPinDriveMode(driveMode, (uint32)CapSense_1_CTANK_PIN_NUMBER, (uint32)CapSense_1_CTA
1244:.\Generated_Source\PSoC4/CapSense_1.c **** 	#endif /* (0u != CapSense_1_CSH_TANK_ENABLE) */	
1245:.\Generated_Source\PSoC4/CapSense_1.c **** 	
1246:.\Generated_Source\PSoC4/CapSense_1.c **** 	#if(0u != CapSense_1_IS_SHIELD_ENABLE)
1247:.\Generated_Source\PSoC4/CapSense_1.c **** 		CapSense_1_SetPinDriveMode(driveMode, (uint32)CapSense_1_SHIELD_PIN_NUMBER, (uint32)CapSense_1_SH
1248:.\Generated_Source\PSoC4/CapSense_1.c **** 	#endif /* (0u != CapSense_1_IS_SHIELD_ENABLE) */	
1249:.\Generated_Source\PSoC4/CapSense_1.c **** }
 1390              		.loc 1 1249 0
 1391 005e BD46     		mov	sp, r7
 1392 0060 06B0     		add	sp, sp, #24
 1393              		@ sp needed
 1394 0062 80BD     		pop	{r7, pc}
 1395              	.L74:
 1396              		.align	2
 1397              	.L73:
 1398 0064 00000000 		.word	CapSense_1_portTable
 1399 0068 00000000 		.word	CapSense_1_pinShiftTbl
 1400              		.cfi_endproc
 1401              	.LFE49:
 1402              		.size	CapSense_1_SetDriveModeAllPins, .-CapSense_1_SetDriveModeAllPins
 1403              		.section	.text.CapSense_1_RestoreDriveModeAllPins,"ax",%progbits
 1404              		.align	2
 1405              		.global	CapSense_1_RestoreDriveModeAllPins
 1406              		.code	16
 1407              		.thumb_func
 1408              		.type	CapSense_1_RestoreDriveModeAllPins, %function
 1409              	CapSense_1_RestoreDriveModeAllPins:
 1410              	.LFB50:
1250:.\Generated_Source\PSoC4/CapSense_1.c **** 
1251:.\Generated_Source\PSoC4/CapSense_1.c **** 
1252:.\Generated_Source\PSoC4/CapSense_1.c **** /*******************************************************************************
1253:.\Generated_Source\PSoC4/CapSense_1.c **** * Function Name: CapSense_1_RestoreDriveModeAllPins
1254:.\Generated_Source\PSoC4/CapSense_1.c **** ********************************************************************************
1255:.\Generated_Source\PSoC4/CapSense_1.c **** *
1256:.\Generated_Source\PSoC4/CapSense_1.c **** * Summary:
ARM GAS  C:\Users\mitchell\AppData\Local\Temp\cc5pMFOa.s 			page 48


1257:.\Generated_Source\PSoC4/CapSense_1.c **** *  This API restores the drive for all the CapSense port pins to the original
1258:.\Generated_Source\PSoC4/CapSense_1.c **** *  state.
1259:.\Generated_Source\PSoC4/CapSense_1.c **** *
1260:.\Generated_Source\PSoC4/CapSense_1.c **** * Parameters:
1261:.\Generated_Source\PSoC4/CapSense_1.c **** *  None
1262:.\Generated_Source\PSoC4/CapSense_1.c **** *
1263:.\Generated_Source\PSoC4/CapSense_1.c **** * Return:
1264:.\Generated_Source\PSoC4/CapSense_1.c **** *  None
1265:.\Generated_Source\PSoC4/CapSense_1.c **** *
1266:.\Generated_Source\PSoC4/CapSense_1.c **** * Global Variables:
1267:.\Generated_Source\PSoC4/CapSense_1.c **** *  CapSense_1_prtSelTbl[] - Contains pointers to the HSIOM 
1268:.\Generated_Source\PSoC4/CapSense_1.c **** *  registers for each port. 
1269:.\Generated_Source\PSoC4/CapSense_1.c **** *
1270:.\Generated_Source\PSoC4/CapSense_1.c **** * Side Effects: 
1271:.\Generated_Source\PSoC4/CapSense_1.c **** *  This API is called only after the CapSense component is stopped.
1272:.\Generated_Source\PSoC4/CapSense_1.c **** *
1273:.\Generated_Source\PSoC4/CapSense_1.c **** *******************************************************************************/
1274:.\Generated_Source\PSoC4/CapSense_1.c **** void CapSense_1_RestoreDriveModeAllPins(void)
1275:.\Generated_Source\PSoC4/CapSense_1.c **** {
 1411              		.loc 1 1275 0
 1412              		.cfi_startproc
 1413 0000 80B5     		push	{r7, lr}
 1414              		.cfi_def_cfa_offset 8
 1415              		.cfi_offset 7, -8
 1416              		.cfi_offset 14, -4
 1417 0002 82B0     		sub	sp, sp, #8
 1418              		.cfi_def_cfa_offset 16
 1419 0004 00AF     		add	r7, sp, #0
 1420              		.cfi_def_cfa_register 7
1276:.\Generated_Source\PSoC4/CapSense_1.c **** 	uint32 newRegisterValue;
1277:.\Generated_Source\PSoC4/CapSense_1.c **** 	
1278:.\Generated_Source\PSoC4/CapSense_1.c **** 	CapSense_1_SetDriveModeAllPins(CY_SYS_PINS_DM_ALG_HIZ);
 1421              		.loc 1 1278 0
 1422 0006 0020     		mov	r0, #0
 1423 0008 FFF7FEFF 		bl	CapSense_1_SetDriveModeAllPins
1279:.\Generated_Source\PSoC4/CapSense_1.c **** 	
1280:.\Generated_Source\PSoC4/CapSense_1.c **** 	newRegisterValue = CapSense_1_CMOD_CONNECTION_REG; 
 1424              		.loc 1 1280 0
 1425 000c 084B     		ldr	r3, .L76
 1426 000e 1B68     		ldr	r3, [r3]
 1427 0010 7B60     		str	r3, [r7, #4]
1281:.\Generated_Source\PSoC4/CapSense_1.c ****     newRegisterValue &= ~(CapSense_1_CSD_CMOD_CONNECTION_MASK);
 1428              		.loc 1 1281 0
 1429 0012 7A68     		ldr	r2, [r7, #4]
 1430 0014 074B     		ldr	r3, .L76+4
 1431 0016 1340     		and	r3, r2
 1432 0018 7B60     		str	r3, [r7, #4]
1282:.\Generated_Source\PSoC4/CapSense_1.c ****     newRegisterValue |= CapSense_1_CSD_CMOD_TO_AMUXBUS_A;
 1433              		.loc 1 1282 0
 1434 001a 7B68     		ldr	r3, [r7, #4]
 1435 001c C022     		mov	r2, #192
 1436 001e D200     		lsl	r2, r2, #3
 1437 0020 1343     		orr	r3, r2
 1438 0022 7B60     		str	r3, [r7, #4]
1283:.\Generated_Source\PSoC4/CapSense_1.c ****     CapSense_1_CMOD_CONNECTION_REG = newRegisterValue;
 1439              		.loc 1 1283 0
 1440 0024 024B     		ldr	r3, .L76
ARM GAS  C:\Users\mitchell\AppData\Local\Temp\cc5pMFOa.s 			page 49


 1441 0026 7A68     		ldr	r2, [r7, #4]
 1442 0028 1A60     		str	r2, [r3]
1284:.\Generated_Source\PSoC4/CapSense_1.c **** 	
1285:.\Generated_Source\PSoC4/CapSense_1.c **** 	#if(0u != CapSense_1_CSH_TANK_ENABLE)
1286:.\Generated_Source\PSoC4/CapSense_1.c **** 		newRegisterValue = CapSense_1_CTANK_CONNECTION_REG;
1287:.\Generated_Source\PSoC4/CapSense_1.c ****         newRegisterValue &= ~(CapSense_1_CSD_CTANK_CONNECTION_MASK);
1288:.\Generated_Source\PSoC4/CapSense_1.c **** 		newRegisterValue |= CapSense_1_CSD_CTANK_TO_AMUXBUS_B;
1289:.\Generated_Source\PSoC4/CapSense_1.c ****         CapSense_1_CTANK_CONNECTION_REG = newRegisterValue;
1290:.\Generated_Source\PSoC4/CapSense_1.c **** 	#endif/* (0u != CapSense_1_CSH_TANK_ENABLE) */
1291:.\Generated_Source\PSoC4/CapSense_1.c **** 	
1292:.\Generated_Source\PSoC4/CapSense_1.c **** 	#if(0u != CapSense_1_IS_SHIELD_ENABLE)
1293:.\Generated_Source\PSoC4/CapSense_1.c **** 		newRegisterValue = *CapSense_1_prtSelTbl[CapSense_1_SHIELD_PORT_NUMBER];
1294:.\Generated_Source\PSoC4/CapSense_1.c ****         newRegisterValue &= ~(CapSense_1_CSD_HSIOM_MASK << ((uint32)CapSense_1_SHIELD_PIN_NUMBER * 
1295:.\Generated_Source\PSoC4/CapSense_1.c ****         newRegisterValue |= (CapSense_1_CSD_SHIELD_PORT_MODE << ((uint32)CapSense_1_SHIELD_PIN_NUMB
1296:.\Generated_Source\PSoC4/CapSense_1.c ****         *CapSense_1_prtSelTbl[CapSense_1_SHIELD_PORT_NUMBER] = newRegisterValue;
1297:.\Generated_Source\PSoC4/CapSense_1.c **** 	#endif /* (0u != CapSense_1_IS_SHIELD_ENABLE) */	
1298:.\Generated_Source\PSoC4/CapSense_1.c **** }
 1443              		.loc 1 1298 0
 1444 002a BD46     		mov	sp, r7
 1445 002c 02B0     		add	sp, sp, #8
 1446              		@ sp needed
 1447 002e 80BD     		pop	{r7, pc}
 1448              	.L77:
 1449              		.align	2
 1450              	.L76:
 1451 0030 10000140 		.word	1073807376
 1452 0034 FFF0FFFF 		.word	-3841
 1453              		.cfi_endproc
 1454              	.LFE50:
 1455              		.size	CapSense_1_RestoreDriveModeAllPins, .-CapSense_1_RestoreDriveModeAllPins
 1456              		.section	.text.CapSense_1_SetPinDriveMode,"ax",%progbits
 1457              		.align	2
 1458              		.global	CapSense_1_SetPinDriveMode
 1459              		.code	16
 1460              		.thumb_func
 1461              		.type	CapSense_1_SetPinDriveMode, %function
 1462              	CapSense_1_SetPinDriveMode:
 1463              	.LFB51:
1299:.\Generated_Source\PSoC4/CapSense_1.c **** 
1300:.\Generated_Source\PSoC4/CapSense_1.c **** 
1301:.\Generated_Source\PSoC4/CapSense_1.c **** /*******************************************************************************
1302:.\Generated_Source\PSoC4/CapSense_1.c **** * Function Name: CapSense_1_SetPinDriveMode
1303:.\Generated_Source\PSoC4/CapSense_1.c **** ********************************************************************************
1304:.\Generated_Source\PSoC4/CapSense_1.c **** *
1305:.\Generated_Source\PSoC4/CapSense_1.c **** * Summary:
1306:.\Generated_Source\PSoC4/CapSense_1.c **** * This API sets the drive mode for the appropriate port/pin.
1307:.\Generated_Source\PSoC4/CapSense_1.c **** *
1308:.\Generated_Source\PSoC4/CapSense_1.c **** * Parameters:
1309:.\Generated_Source\PSoC4/CapSense_1.c **** *  driveMode:  Drive mode definition.
1310:.\Generated_Source\PSoC4/CapSense_1.c **** *  portNumber: contains port number (0, 1, 2).
1311:.\Generated_Source\PSoC4/CapSense_1.c **** *  pinNumber: contains pin number (0, 1, 2, ... , 7).
1312:.\Generated_Source\PSoC4/CapSense_1.c **** *
1313:.\Generated_Source\PSoC4/CapSense_1.c **** * Return:
1314:.\Generated_Source\PSoC4/CapSense_1.c **** *  None
1315:.\Generated_Source\PSoC4/CapSense_1.c **** *
1316:.\Generated_Source\PSoC4/CapSense_1.c **** * Global Variables:
1317:.\Generated_Source\PSoC4/CapSense_1.c **** *  CapSense_1_prtSelTbl[] - Contains pointers to the HSIOM 
ARM GAS  C:\Users\mitchell\AppData\Local\Temp\cc5pMFOa.s 			page 50


1318:.\Generated_Source\PSoC4/CapSense_1.c **** *  registers for each port. 
1319:.\Generated_Source\PSoC4/CapSense_1.c **** *  CapSense_1_prtCfgTb[] - Contains pointers to the port config 
1320:.\Generated_Source\PSoC4/CapSense_1.c **** *  registers for each port.
1321:.\Generated_Source\PSoC4/CapSense_1.c **** *
1322:.\Generated_Source\PSoC4/CapSense_1.c **** * Side Effects: 
1323:.\Generated_Source\PSoC4/CapSense_1.c **** *  This API is called only after CapSense component is stopped.
1324:.\Generated_Source\PSoC4/CapSense_1.c **** *
1325:.\Generated_Source\PSoC4/CapSense_1.c **** *******************************************************************************/
1326:.\Generated_Source\PSoC4/CapSense_1.c **** void CapSense_1_SetPinDriveMode(uint32 driveMode, uint32 pinNumber, uint32 portNumber)
1327:.\Generated_Source\PSoC4/CapSense_1.c **** {	
 1464              		.loc 1 1327 0
 1465              		.cfi_startproc
 1466 0000 80B5     		push	{r7, lr}
 1467              		.cfi_def_cfa_offset 8
 1468              		.cfi_offset 7, -8
 1469              		.cfi_offset 14, -4
 1470 0002 86B0     		sub	sp, sp, #24
 1471              		.cfi_def_cfa_offset 32
 1472 0004 00AF     		add	r7, sp, #0
 1473              		.cfi_def_cfa_register 7
 1474 0006 F860     		str	r0, [r7, #12]
 1475 0008 B960     		str	r1, [r7, #8]
 1476 000a 7A60     		str	r2, [r7, #4]
1328:.\Generated_Source\PSoC4/CapSense_1.c **** 	uint32  pinModeShift;
1329:.\Generated_Source\PSoC4/CapSense_1.c **** 	uint32 newRegisterValue;
1330:.\Generated_Source\PSoC4/CapSense_1.c **** 	
1331:.\Generated_Source\PSoC4/CapSense_1.c **** 	pinModeShift  = pinNumber * CapSense_1_PC_PIN_CFG_SIZE;
 1477              		.loc 1 1331 0
 1478 000c BA68     		ldr	r2, [r7, #8]
 1479 000e 131C     		mov	r3, r2
 1480 0010 5B00     		lsl	r3, r3, #1
 1481 0012 9B18     		add	r3, r3, r2
 1482 0014 7B61     		str	r3, [r7, #20]
1332:.\Generated_Source\PSoC4/CapSense_1.c **** 	
1333:.\Generated_Source\PSoC4/CapSense_1.c **** 	newRegisterValue = *CapSense_1_prtCfgTbl[portNumber];
 1483              		.loc 1 1333 0
 1484 0016 104B     		ldr	r3, .L79
 1485 0018 7A68     		ldr	r2, [r7, #4]
 1486 001a 9200     		lsl	r2, r2, #2
 1487 001c D358     		ldr	r3, [r2, r3]
 1488 001e 1B68     		ldr	r3, [r3]
 1489 0020 3B61     		str	r3, [r7, #16]
1334:.\Generated_Source\PSoC4/CapSense_1.c **** 	newRegisterValue &= ~(CapSense_1_CSD_PIN_MODE_MASK << pinModeShift);
 1490              		.loc 1 1334 0
 1491 0022 7B69     		ldr	r3, [r7, #20]
 1492 0024 0722     		mov	r2, #7
 1493 0026 111C     		mov	r1, r2
 1494 0028 9940     		lsl	r1, r1, r3
 1495 002a 0B1C     		mov	r3, r1
 1496 002c DA43     		mvn	r2, r3
 1497 002e 3B69     		ldr	r3, [r7, #16]
 1498 0030 1340     		and	r3, r2
 1499 0032 3B61     		str	r3, [r7, #16]
1335:.\Generated_Source\PSoC4/CapSense_1.c **** 	newRegisterValue |=  (uint32)((uint32)driveMode << pinModeShift);
 1500              		.loc 1 1335 0
 1501 0034 7B69     		ldr	r3, [r7, #20]
 1502 0036 FA68     		ldr	r2, [r7, #12]
ARM GAS  C:\Users\mitchell\AppData\Local\Temp\cc5pMFOa.s 			page 51


 1503 0038 111C     		mov	r1, r2
 1504 003a 9940     		lsl	r1, r1, r3
 1505 003c 0B1C     		mov	r3, r1
 1506 003e 3A69     		ldr	r2, [r7, #16]
 1507 0040 1343     		orr	r3, r2
 1508 0042 3B61     		str	r3, [r7, #16]
1336:.\Generated_Source\PSoC4/CapSense_1.c ****     *CapSense_1_prtCfgTbl[portNumber] =  newRegisterValue;
 1509              		.loc 1 1336 0
 1510 0044 044B     		ldr	r3, .L79
 1511 0046 7A68     		ldr	r2, [r7, #4]
 1512 0048 9200     		lsl	r2, r2, #2
 1513 004a D358     		ldr	r3, [r2, r3]
 1514 004c 3A69     		ldr	r2, [r7, #16]
 1515 004e 1A60     		str	r2, [r3]
1337:.\Generated_Source\PSoC4/CapSense_1.c **** }
 1516              		.loc 1 1337 0
 1517 0050 BD46     		mov	sp, r7
 1518 0052 06B0     		add	sp, sp, #24
 1519              		@ sp needed
 1520 0054 80BD     		pop	{r7, pc}
 1521              	.L80:
 1522 0056 C046     		.align	2
 1523              	.L79:
 1524 0058 00000000 		.word	CapSense_1_prtCfgTbl
 1525              		.cfi_endproc
 1526              	.LFE51:
 1527              		.size	CapSense_1_SetPinDriveMode, .-CapSense_1_SetPinDriveMode
 1528              		.section	.text.CapSense_1_PreScan,"ax",%progbits
 1529              		.align	2
 1530              		.global	CapSense_1_PreScan
 1531              		.code	16
 1532              		.thumb_func
 1533              		.type	CapSense_1_PreScan, %function
 1534              	CapSense_1_PreScan:
 1535              	.LFB52:
1338:.\Generated_Source\PSoC4/CapSense_1.c **** 
1339:.\Generated_Source\PSoC4/CapSense_1.c **** 
1340:.\Generated_Source\PSoC4/CapSense_1.c **** /*******************************************************************************
1341:.\Generated_Source\PSoC4/CapSense_1.c **** * Function Name: CapSense_1_PreScan
1342:.\Generated_Source\PSoC4/CapSense_1.c **** ********************************************************************************
1343:.\Generated_Source\PSoC4/CapSense_1.c **** *
1344:.\Generated_Source\PSoC4/CapSense_1.c **** * Summary:
1345:.\Generated_Source\PSoC4/CapSense_1.c **** *  Sets required settings, enables a sensor, removes Vref from AMUX and starts the 
1346:.\Generated_Source\PSoC4/CapSense_1.c **** *  scanning process of the sensor.
1347:.\Generated_Source\PSoC4/CapSense_1.c **** *
1348:.\Generated_Source\PSoC4/CapSense_1.c **** * Parameters:
1349:.\Generated_Source\PSoC4/CapSense_1.c **** *  sensor:  Sensor number.
1350:.\Generated_Source\PSoC4/CapSense_1.c **** *
1351:.\Generated_Source\PSoC4/CapSense_1.c **** * Return:
1352:.\Generated_Source\PSoC4/CapSense_1.c **** *  None
1353:.\Generated_Source\PSoC4/CapSense_1.c **** *
1354:.\Generated_Source\PSoC4/CapSense_1.c **** * Global Variables:
1355:.\Generated_Source\PSoC4/CapSense_1.c **** * CapSense_1_widgetNumber[] - This array contains numbers of widgets for each sensor.
1356:.\Generated_Source\PSoC4/CapSense_1.c **** * CapSense_1_widgetResolution[] - Contains the widget resolution.
1357:.\Generated_Source\PSoC4/CapSense_1.c **** *
1358:.\Generated_Source\PSoC4/CapSense_1.c **** * Side Effects: 
1359:.\Generated_Source\PSoC4/CapSense_1.c **** *  None
ARM GAS  C:\Users\mitchell\AppData\Local\Temp\cc5pMFOa.s 			page 52


1360:.\Generated_Source\PSoC4/CapSense_1.c **** *
1361:.\Generated_Source\PSoC4/CapSense_1.c **** *******************************************************************************/
1362:.\Generated_Source\PSoC4/CapSense_1.c **** void CapSense_1_PreScan(uint32 sensor)
1363:.\Generated_Source\PSoC4/CapSense_1.c **** {
 1536              		.loc 1 1363 0
 1537              		.cfi_startproc
 1538 0000 90B5     		push	{r4, r7, lr}
 1539              		.cfi_def_cfa_offset 12
 1540              		.cfi_offset 4, -12
 1541              		.cfi_offset 7, -8
 1542              		.cfi_offset 14, -4
 1543 0002 87B0     		sub	sp, sp, #28
 1544              		.cfi_def_cfa_offset 40
 1545 0004 00AF     		add	r7, sp, #0
 1546              		.cfi_def_cfa_register 7
 1547 0006 7860     		str	r0, [r7, #4]
1364:.\Generated_Source\PSoC4/CapSense_1.c ****     uint8 widget;
1365:.\Generated_Source\PSoC4/CapSense_1.c ****     uint8 interruptState;
1366:.\Generated_Source\PSoC4/CapSense_1.c **** 	uint32 newRegValue;
1367:.\Generated_Source\PSoC4/CapSense_1.c **** 	uint32 counterResolution;
1368:.\Generated_Source\PSoC4/CapSense_1.c **** 	
1369:.\Generated_Source\PSoC4/CapSense_1.c **** 	#if(CapSense_1_PRS_OPTIONS == CapSense_1__PRS_AUTO)
1370:.\Generated_Source\PSoC4/CapSense_1.c **** 		uint8 senseClkDivMath;
1371:.\Generated_Source\PSoC4/CapSense_1.c **** 		uint8 sampleClkDivMath;
1372:.\Generated_Source\PSoC4/CapSense_1.c **** 	#endif /* (CapSense_1_PRS_OPTIONS == CapSense_1__PRS_AUTO) */	
1373:.\Generated_Source\PSoC4/CapSense_1.c **** 	
1374:.\Generated_Source\PSoC4/CapSense_1.c **** 	#if ((CapSense_1_TUNING_METHOD == CapSense_1__TUNING_AUTO) &&\
1375:.\Generated_Source\PSoC4/CapSense_1.c **** 		 (0 != CapSense_1_IS_OVERSAMPLING_EN))
1376:.\Generated_Source\PSoC4/CapSense_1.c **** 		uint32 oversamplingFactor;
1377:.\Generated_Source\PSoC4/CapSense_1.c **** 	#endif /* ((CapSense_1_TUNING_METHOD == CapSense_1__TUNING_AUTO) &&\
1378:.\Generated_Source\PSoC4/CapSense_1.c **** 	           (0 != CapSense_1_IS_OVERSAMPLING_EN)) */
1379:.\Generated_Source\PSoC4/CapSense_1.c **** 
1380:.\Generated_Source\PSoC4/CapSense_1.c ****     /* Define widget sensor belongs to */
1381:.\Generated_Source\PSoC4/CapSense_1.c ****     widget = CapSense_1_widgetNumber[sensor];
 1548              		.loc 1 1381 0
 1549 0008 3B1C     		mov	r3, r7
 1550 000a 1733     		add	r3, r3, #23
 1551 000c 2949     		ldr	r1, .L82
 1552 000e 7A68     		ldr	r2, [r7, #4]
 1553 0010 8A18     		add	r2, r1, r2
 1554 0012 1278     		ldrb	r2, [r2]
 1555 0014 1A70     		strb	r2, [r3]
1382:.\Generated_Source\PSoC4/CapSense_1.c **** 
1383:.\Generated_Source\PSoC4/CapSense_1.c **** 	/* Recalculate Counter Resolution to MSB 16 bits */
1384:.\Generated_Source\PSoC4/CapSense_1.c **** 	counterResolution = CapSense_1_widgetResolution[widget];
 1556              		.loc 1 1384 0
 1557 0016 284B     		ldr	r3, .L82+4
 1558 0018 3B61     		str	r3, [r7, #16]
1385:.\Generated_Source\PSoC4/CapSense_1.c **** 	
1386:.\Generated_Source\PSoC4/CapSense_1.c **** 	#if ((CapSense_1_TUNING_METHOD == CapSense_1__TUNING_AUTO) &&\
1387:.\Generated_Source\PSoC4/CapSense_1.c **** 		 (0 != CapSense_1_IS_OVERSAMPLING_EN))
1388:.\Generated_Source\PSoC4/CapSense_1.c **** 	    oversamplingFactor = CapSense_1_GetBitValue(scanSpeedTbl, sensor);
1389:.\Generated_Source\PSoC4/CapSense_1.c **** 
1390:.\Generated_Source\PSoC4/CapSense_1.c **** 		if(counterResolution < CapSense_1_RESOLUTION_16_BITS)
1391:.\Generated_Source\PSoC4/CapSense_1.c **** 		{
1392:.\Generated_Source\PSoC4/CapSense_1.c **** 			counterResolution <<= oversamplingFactor;
1393:.\Generated_Source\PSoC4/CapSense_1.c **** 			counterResolution |= (uint32)(CapSense_1_RESOLUTION_8_BITS);
ARM GAS  C:\Users\mitchell\AppData\Local\Temp\cc5pMFOa.s 			page 53


1394:.\Generated_Source\PSoC4/CapSense_1.c **** 		}
1395:.\Generated_Source\PSoC4/CapSense_1.c **** 	#endif /* ((CapSense_1_TUNING_METHOD == CapSense_1__TUNING_AUTO) &&\
1396:.\Generated_Source\PSoC4/CapSense_1.c **** 	           (0 != CapSense_1_IS_OVERSAMPLING_EN)) */
1397:.\Generated_Source\PSoC4/CapSense_1.c **** 	
1398:.\Generated_Source\PSoC4/CapSense_1.c **** 	#if (0u != CapSense_1_IS_M0S8PERI_BLOCK)
1399:.\Generated_Source\PSoC4/CapSense_1.c **** 		CapSense_1_SenseClk_Stop();
1400:.\Generated_Source\PSoC4/CapSense_1.c **** 		CapSense_1_SampleClk_Stop();
1401:.\Generated_Source\PSoC4/CapSense_1.c **** 	#endif /* (0u != CapSense_1_IS_M0S8PERI_BLOCK) */
1402:.\Generated_Source\PSoC4/CapSense_1.c **** 
1403:.\Generated_Source\PSoC4/CapSense_1.c **** 	#if (0u != CapSense_1_MULTIPLE_FREQUENCY_SET)
1404:.\Generated_Source\PSoC4/CapSense_1.c **** 		CapSense_1_SampleClk_SetDividerValue((uint16)CapSense_1_sampleClkDividerVal[sensor]);
1405:.\Generated_Source\PSoC4/CapSense_1.c **** 		CapSense_1_SenseClk_SetDividerValue((uint16)CapSense_1_senseClkDividerVal[sensor]);
1406:.\Generated_Source\PSoC4/CapSense_1.c **** 	#else
1407:.\Generated_Source\PSoC4/CapSense_1.c **** 		CapSense_1_SampleClk_SetDividerValue((uint16)CapSense_1_sampleClkDividerVal);
 1559              		.loc 1 1407 0
 1560 001a 0C23     		mov	r3, #12
 1561 001c 013B     		sub	r3, r3, #1
 1562 001e 9BB2     		uxth	r3, r3
 1563 0020 181C     		mov	r0, r3
 1564 0022 0021     		mov	r1, #0
 1565 0024 FFF7FEFF 		bl	CapSense_1_SampleClk_SetFractionalDividerRegister
1408:.\Generated_Source\PSoC4/CapSense_1.c **** 		CapSense_1_SenseClk_SetDividerValue((uint16)CapSense_1_senseClkDividerVal);
 1566              		.loc 1 1408 0
 1567 0028 0123     		mov	r3, #1
 1568 002a 013B     		sub	r3, r3, #1
 1569 002c 9BB2     		uxth	r3, r3
 1570 002e 181C     		mov	r0, r3
 1571 0030 0021     		mov	r1, #0
 1572 0032 FFF7FEFF 		bl	CapSense_1_SenseClk_SetFractionalDividerRegister
1409:.\Generated_Source\PSoC4/CapSense_1.c **** 	#endif /* (0u != CapSense_1_MULTIPLE_FREQUENCY_SET) */
1410:.\Generated_Source\PSoC4/CapSense_1.c **** 
1411:.\Generated_Source\PSoC4/CapSense_1.c **** 	#if (0u != CapSense_1_IS_M0S8PERI_BLOCK)
1412:.\Generated_Source\PSoC4/CapSense_1.c **** 		CapSense_1_SampleClk_Start();
1413:.\Generated_Source\PSoC4/CapSense_1.c **** 		CapSense_1_SenseClk_StartEx(CapSense_1_SampleClk__DIV_ID);
1414:.\Generated_Source\PSoC4/CapSense_1.c **** 		
1415:.\Generated_Source\PSoC4/CapSense_1.c **** 		#if(CapSense_1_PRS_OPTIONS == CapSense_1__PRS_NONE)
1416:.\Generated_Source\PSoC4/CapSense_1.c **** 			CyIntDisable(CapSense_1_ISR_NUMBER);
1417:.\Generated_Source\PSoC4/CapSense_1.c **** 			CapSense_1_CSD_CNT_REG = CapSense_1_ONE_CYCLE;
1418:.\Generated_Source\PSoC4/CapSense_1.c **** 			while(0u != (CapSense_1_CSD_CNT_REG & CapSense_1_RESOLUTION_16_BITS))
1419:.\Generated_Source\PSoC4/CapSense_1.c **** 			{
1420:.\Generated_Source\PSoC4/CapSense_1.c **** 			/* Wait until scanning is complete */ 
1421:.\Generated_Source\PSoC4/CapSense_1.c **** 			}
1422:.\Generated_Source\PSoC4/CapSense_1.c **** 			CapSense_1_CSD_INTR_REG = 1u;
1423:.\Generated_Source\PSoC4/CapSense_1.c **** 			CyIntClearPending(CapSense_1_ISR_NUMBER);
1424:.\Generated_Source\PSoC4/CapSense_1.c **** 			CyIntEnable(CapSense_1_ISR_NUMBER); 
1425:.\Generated_Source\PSoC4/CapSense_1.c **** 		#endif /* CapSense_1_PRS_OPTIONS == CapSense_1__PRS_NONE */
1426:.\Generated_Source\PSoC4/CapSense_1.c **** 	#endif /* (0u != CapSense_1_IS_M0S8PERI_BLOCK) */
1427:.\Generated_Source\PSoC4/CapSense_1.c **** 
1428:.\Generated_Source\PSoC4/CapSense_1.c **** #if(CapSense_1_PRS_OPTIONS != CapSense_1__PRS_NONE)
1429:.\Generated_Source\PSoC4/CapSense_1.c **** 
1430:.\Generated_Source\PSoC4/CapSense_1.c **** 	#if(CapSense_1_TUNING_METHOD == CapSense_1__TUNING_AUTO)
1431:.\Generated_Source\PSoC4/CapSense_1.c **** 		if(CapSense_1_prescalersTuningDone != 0u)
1432:.\Generated_Source\PSoC4/CapSense_1.c **** 		{
1433:.\Generated_Source\PSoC4/CapSense_1.c **** 	#endif /* (CapSense_1_TUNING_METHOD == CapSense_1__TUNING_AUTO) */
1434:.\Generated_Source\PSoC4/CapSense_1.c **** 			
1435:.\Generated_Source\PSoC4/CapSense_1.c **** 			CyIntDisable(CapSense_1_ISR_NUMBER);
1436:.\Generated_Source\PSoC4/CapSense_1.c **** 			
ARM GAS  C:\Users\mitchell\AppData\Local\Temp\cc5pMFOa.s 			page 54


1437:.\Generated_Source\PSoC4/CapSense_1.c **** 			newRegValue = CapSense_1_CSD_CFG_REG;
1438:.\Generated_Source\PSoC4/CapSense_1.c **** 			newRegValue |= CapSense_1_CSD_CFG_PRS_SELECT;
1439:.\Generated_Source\PSoC4/CapSense_1.c **** 			
1440:.\Generated_Source\PSoC4/CapSense_1.c **** 			#if(CapSense_1_PRS_OPTIONS == CapSense_1__PRS_AUTO)
1441:.\Generated_Source\PSoC4/CapSense_1.c **** 				
1442:.\Generated_Source\PSoC4/CapSense_1.c **** 				newRegValue &= ~(CapSense_1_PRS_MODE_MASK);
1443:.\Generated_Source\PSoC4/CapSense_1.c **** 				
1444:.\Generated_Source\PSoC4/CapSense_1.c **** 				#if (0u != CapSense_1_MULTIPLE_FREQUENCY_SET)
1445:.\Generated_Source\PSoC4/CapSense_1.c **** 					senseClkDivMath = CapSense_1_senseClkDividerVal[sensor];
1446:.\Generated_Source\PSoC4/CapSense_1.c **** 					sampleClkDivMath = CapSense_1_sampleClkDividerVal[sensor];
1447:.\Generated_Source\PSoC4/CapSense_1.c **** 				#else
1448:.\Generated_Source\PSoC4/CapSense_1.c **** 					senseClkDivMath = CapSense_1_senseClkDividerVal;
1449:.\Generated_Source\PSoC4/CapSense_1.c **** 					sampleClkDivMath = CapSense_1_sampleClkDividerVal;
1450:.\Generated_Source\PSoC4/CapSense_1.c **** 				#endif /* ( CapSense_1_MULTIPLE_FREQUENCY_SET) */
1451:.\Generated_Source\PSoC4/CapSense_1.c **** 				
1452:.\Generated_Source\PSoC4/CapSense_1.c **** 				#if(0u == CapSense_1_IS_M0S8PERI_BLOCK)
1453:.\Generated_Source\PSoC4/CapSense_1.c **** 					senseClkDivMath *= sampleClkDivMath;
1454:.\Generated_Source\PSoC4/CapSense_1.c **** 				#endif /* (0u == CapSense_1_IS_M0S8PERI_BLOCK) */	
1455:.\Generated_Source\PSoC4/CapSense_1.c **** 				
1456:.\Generated_Source\PSoC4/CapSense_1.c **** 				if((senseClkDivMath * CapSense_1_RESOLUTION_12_BITS) <
1457:.\Generated_Source\PSoC4/CapSense_1.c **** 				   (sampleClkDivMath * CapSense_1_widgetResolution[widget]))
1458:.\Generated_Source\PSoC4/CapSense_1.c **** 				{
1459:.\Generated_Source\PSoC4/CapSense_1.c **** 					newRegValue |= CapSense_1_CSD_PRS_12_BIT;
1460:.\Generated_Source\PSoC4/CapSense_1.c **** 				}
1461:.\Generated_Source\PSoC4/CapSense_1.c **** 			#endif /* (CapSense_1_PRS_OPTIONS == CapSense_1__PRS_AUTO) */
1462:.\Generated_Source\PSoC4/CapSense_1.c **** 			
1463:.\Generated_Source\PSoC4/CapSense_1.c **** 			CapSense_1_CSD_CFG_REG = newRegValue;
1464:.\Generated_Source\PSoC4/CapSense_1.c **** 			
1465:.\Generated_Source\PSoC4/CapSense_1.c **** 			CyIntEnable(CapSense_1_ISR_NUMBER);
1466:.\Generated_Source\PSoC4/CapSense_1.c **** 			
1467:.\Generated_Source\PSoC4/CapSense_1.c **** 	#if(CapSense_1_TUNING_METHOD == CapSense_1__TUNING_AUTO)	
1468:.\Generated_Source\PSoC4/CapSense_1.c **** 		}
1469:.\Generated_Source\PSoC4/CapSense_1.c **** 	#endif /* (CapSense_1_PRS_OPTIONS != CapSense_1__PRS_NONE) */
1470:.\Generated_Source\PSoC4/CapSense_1.c **** 
1471:.\Generated_Source\PSoC4/CapSense_1.c **** #endif /* (CapSense_1_PRS_OPTIONS == CapSense_1__PRS_NONE) */
1472:.\Generated_Source\PSoC4/CapSense_1.c **** 	
1473:.\Generated_Source\PSoC4/CapSense_1.c **** 	/* Set Idac Value */
1474:.\Generated_Source\PSoC4/CapSense_1.c **** 	CyIntDisable(CapSense_1_ISR_NUMBER);
 1573              		.loc 1 1474 0
 1574 0036 0F20     		mov	r0, #15
 1575 0038 FFF7FEFF 		bl	CyIntDisable
1475:.\Generated_Source\PSoC4/CapSense_1.c ****     newRegValue = CapSense_1_CSD_IDAC_REG;
 1576              		.loc 1 1475 0
 1577 003c 1F4B     		ldr	r3, .L82+8
 1578 003e 1B68     		ldr	r3, [r3]
 1579 0040 FB60     		str	r3, [r7, #12]
1476:.\Generated_Source\PSoC4/CapSense_1.c ****  
1477:.\Generated_Source\PSoC4/CapSense_1.c **** #if (CapSense_1_IDAC_CNT == 1u)    
1478:.\Generated_Source\PSoC4/CapSense_1.c **** 	newRegValue &= ~(CapSense_1_CSD_IDAC1_DATA_MASK);
 1580              		.loc 1 1478 0
 1581 0042 FB68     		ldr	r3, [r7, #12]
 1582 0044 FF22     		mov	r2, #255
 1583 0046 9343     		bic	r3, r2
 1584 0048 FB60     		str	r3, [r7, #12]
1479:.\Generated_Source\PSoC4/CapSense_1.c **** 	newRegValue |= CapSense_1_modulationIDAC[sensor];
 1585              		.loc 1 1479 0
 1586 004a 1D4A     		ldr	r2, .L82+12
ARM GAS  C:\Users\mitchell\AppData\Local\Temp\cc5pMFOa.s 			page 55


 1587 004c 7B68     		ldr	r3, [r7, #4]
 1588 004e D318     		add	r3, r2, r3
 1589 0050 1B78     		ldrb	r3, [r3]
 1590 0052 FA68     		ldr	r2, [r7, #12]
 1591 0054 1343     		orr	r3, r2
 1592 0056 FB60     		str	r3, [r7, #12]
1480:.\Generated_Source\PSoC4/CapSense_1.c **** #else
1481:.\Generated_Source\PSoC4/CapSense_1.c **** 	newRegValue &= ~(CapSense_1_CSD_IDAC1_DATA_MASK | CapSense_1_CSD_IDAC2_DATA_MASK);
1482:.\Generated_Source\PSoC4/CapSense_1.c **** 	newRegValue |= (CapSense_1_modulationIDAC[sensor] | 
1483:.\Generated_Source\PSoC4/CapSense_1.c **** 							(uint32)((uint32)CapSense_1_compensationIDAC[sensor] <<
1484:.\Generated_Source\PSoC4/CapSense_1.c **** 							CapSense_1_CSD_IDAC2_DATA_OFFSET));                               
1485:.\Generated_Source\PSoC4/CapSense_1.c **** #endif /* (CapSense_1_IDAC_CNT == 1u) */
1486:.\Generated_Source\PSoC4/CapSense_1.c **** 	
1487:.\Generated_Source\PSoC4/CapSense_1.c **** 	CapSense_1_CSD_IDAC_REG = newRegValue;
 1593              		.loc 1 1487 0
 1594 0058 184B     		ldr	r3, .L82+8
 1595 005a FA68     		ldr	r2, [r7, #12]
 1596 005c 1A60     		str	r2, [r3]
1488:.\Generated_Source\PSoC4/CapSense_1.c **** 
1489:.\Generated_Source\PSoC4/CapSense_1.c **** #if(CapSense_1_CMOD_PREGARGE_OPTION == CapSense_1__CAPPRIOBUF)
1490:.\Generated_Source\PSoC4/CapSense_1.c **** 	newRegValue = CapSense_1_CMOD_CONNECTION_REG;
1491:.\Generated_Source\PSoC4/CapSense_1.c **** 	newRegValue &= ~(CapSense_1_CSD_CMOD_CONNECTION_MASK);
1492:.\Generated_Source\PSoC4/CapSense_1.c **** 	newRegValue |= CapSense_1_CSD_CMOD_TO_AMUXBUS_A;
1493:.\Generated_Source\PSoC4/CapSense_1.c **** 	CapSense_1_CMOD_CONNECTION_REG = newRegValue;
1494:.\Generated_Source\PSoC4/CapSense_1.c **** 	
1495:.\Generated_Source\PSoC4/CapSense_1.c **** 	newRegValue = CapSense_1_CMOD_PORT_PC_REG;
1496:.\Generated_Source\PSoC4/CapSense_1.c **** 	newRegValue &= ~(CapSense_1_CSD_CMOD_PC_MASK);
1497:.\Generated_Source\PSoC4/CapSense_1.c **** 	newRegValue |= CapSense_1_CMOD_PC_HIGH_Z_MODE;
1498:.\Generated_Source\PSoC4/CapSense_1.c **** 	CapSense_1_CMOD_PORT_PC_REG = newRegValue;
1499:.\Generated_Source\PSoC4/CapSense_1.c **** #endif /* (CapSense_1_CMOD_PREGARGE_OPTION == CapSense_1__CAPPRIOBUF) */
1500:.\Generated_Source\PSoC4/CapSense_1.c **** 
1501:.\Generated_Source\PSoC4/CapSense_1.c ****     /* Disconnect Vref Buffer from AMUX */
1502:.\Generated_Source\PSoC4/CapSense_1.c **** 	newRegValue = CapSense_1_CSD_CFG_REG;
 1597              		.loc 1 1502 0
 1598 005e 194B     		ldr	r3, .L82+16
 1599 0060 1B68     		ldr	r3, [r3]
 1600 0062 FB60     		str	r3, [r7, #12]
1503:.\Generated_Source\PSoC4/CapSense_1.c **** 	newRegValue &= ~(CapSense_1_PRECHARGE_CONFIG_MASK);
 1601              		.loc 1 1503 0
 1602 0064 FA68     		ldr	r2, [r7, #12]
 1603 0066 184B     		ldr	r3, .L82+20
 1604 0068 1340     		and	r3, r2
 1605 006a FB60     		str	r3, [r7, #12]
1504:.\Generated_Source\PSoC4/CapSense_1.c **** 	newRegValue |= CapSense_1_CTANK_PRECHARGE_CONFIG;
 1606              		.loc 1 1504 0
 1607 006c FB68     		ldr	r3, [r7, #12]
 1608 006e 174A     		ldr	r2, .L82+24
 1609 0070 1343     		orr	r3, r2
 1610 0072 FB60     		str	r3, [r7, #12]
1505:.\Generated_Source\PSoC4/CapSense_1.c **** 	
1506:.\Generated_Source\PSoC4/CapSense_1.c **** 	CyIntEnable(CapSense_1_ISR_NUMBER);
 1611              		.loc 1 1506 0
 1612 0074 0F20     		mov	r0, #15
 1613 0076 FFF7FEFF 		bl	CyIntEnable
1507:.\Generated_Source\PSoC4/CapSense_1.c **** 	
1508:.\Generated_Source\PSoC4/CapSense_1.c ****     /* Enable Sensor */
1509:.\Generated_Source\PSoC4/CapSense_1.c ****     CapSense_1_EnableScanSlot(sensor);
ARM GAS  C:\Users\mitchell\AppData\Local\Temp\cc5pMFOa.s 			page 56


 1614              		.loc 1 1509 0
 1615 007a 7B68     		ldr	r3, [r7, #4]
 1616 007c 181C     		mov	r0, r3
 1617 007e FFF7FEFF 		bl	CapSense_1_EnableSensor
1510:.\Generated_Source\PSoC4/CapSense_1.c ****     
1511:.\Generated_Source\PSoC4/CapSense_1.c **** 	interruptState = CyEnterCriticalSection();
 1618              		.loc 1 1511 0
 1619 0082 3C1C     		mov	r4, r7
 1620 0084 0B34     		add	r4, r4, #11
 1621 0086 FFF7FEFF 		bl	CyEnterCriticalSection
 1622 008a 031C     		mov	r3, r0
 1623 008c 2370     		strb	r3, [r4]
1512:.\Generated_Source\PSoC4/CapSense_1.c **** 	CapSense_1_CSD_CFG_REG = newRegValue;
 1624              		.loc 1 1512 0
 1625 008e 0D4B     		ldr	r3, .L82+16
 1626 0090 FA68     		ldr	r2, [r7, #12]
 1627 0092 1A60     		str	r2, [r3]
1513:.\Generated_Source\PSoC4/CapSense_1.c **** 	
1514:.\Generated_Source\PSoC4/CapSense_1.c **** 	/* `#START CapSense_1_PreSettlingDelay_Debug` */
1515:.\Generated_Source\PSoC4/CapSense_1.c **** 
1516:.\Generated_Source\PSoC4/CapSense_1.c **** 	/* `#END` */
1517:.\Generated_Source\PSoC4/CapSense_1.c **** 	
1518:.\Generated_Source\PSoC4/CapSense_1.c **** 	CyDelayCycles(CapSense_1_GLITCH_ELIMINATION_CYCLES);
 1628              		.loc 1 1518 0
 1629 0094 0020     		mov	r0, #0
 1630 0096 FFF7FEFF 		bl	CyDelayCycles
1519:.\Generated_Source\PSoC4/CapSense_1.c **** 	
1520:.\Generated_Source\PSoC4/CapSense_1.c **** 	/* `#START CapSense_1_PreScan_Debug` */
1521:.\Generated_Source\PSoC4/CapSense_1.c **** 
1522:.\Generated_Source\PSoC4/CapSense_1.c **** 	/* `#END` */
1523:.\Generated_Source\PSoC4/CapSense_1.c **** 	
1524:.\Generated_Source\PSoC4/CapSense_1.c ****     CapSense_1_CSD_CNT_REG = counterResolution;
 1631              		.loc 1 1524 0
 1632 009a 0D4B     		ldr	r3, .L82+28
 1633 009c 3A69     		ldr	r2, [r7, #16]
 1634 009e 1A60     		str	r2, [r3]
1525:.\Generated_Source\PSoC4/CapSense_1.c ****     CyExitCriticalSection(interruptState);
 1635              		.loc 1 1525 0
 1636 00a0 3B1C     		mov	r3, r7
 1637 00a2 0B33     		add	r3, r3, #11
 1638 00a4 1B78     		ldrb	r3, [r3]
 1639 00a6 181C     		mov	r0, r3
 1640 00a8 FFF7FEFF 		bl	CyExitCriticalSection
1526:.\Generated_Source\PSoC4/CapSense_1.c **** }
 1641              		.loc 1 1526 0
 1642 00ac BD46     		mov	sp, r7
 1643 00ae 07B0     		add	sp, sp, #28
 1644              		@ sp needed
 1645 00b0 90BD     		pop	{r4, r7, pc}
 1646              	.L83:
 1647 00b2 C046     		.align	2
 1648              	.L82:
 1649 00b4 00000000 		.word	CapSense_1_widgetNumber
 1650 00b8 0000FF0F 		.word	268369920
 1651 00bc 08000840 		.word	1074266120
 1652 00c0 00000000 		.word	CapSense_1_modulationIDAC
 1653 00c4 04000840 		.word	1074266116
ARM GAS  C:\Users\mitchell\AppData\Local\Temp\cc5pMFOa.s 			page 57


 1654 00c8 FF1FDFFF 		.word	-2154497
 1655 00cc 20E02000 		.word	2154528
 1656 00d0 0C000840 		.word	1074266124
 1657              		.cfi_endproc
 1658              	.LFE52:
 1659              		.size	CapSense_1_PreScan, .-CapSense_1_PreScan
 1660              		.section	.text.CapSense_1_PostScan,"ax",%progbits
 1661              		.align	2
 1662              		.global	CapSense_1_PostScan
 1663              		.code	16
 1664              		.thumb_func
 1665              		.type	CapSense_1_PostScan, %function
 1666              	CapSense_1_PostScan:
 1667              	.LFB53:
1527:.\Generated_Source\PSoC4/CapSense_1.c **** 
1528:.\Generated_Source\PSoC4/CapSense_1.c **** 
1529:.\Generated_Source\PSoC4/CapSense_1.c **** /*******************************************************************************
1530:.\Generated_Source\PSoC4/CapSense_1.c **** * Function Name: CapSense_1_PostScan
1531:.\Generated_Source\PSoC4/CapSense_1.c **** ********************************************************************************
1532:.\Generated_Source\PSoC4/CapSense_1.c **** *
1533:.\Generated_Source\PSoC4/CapSense_1.c **** * Summary:
1534:.\Generated_Source\PSoC4/CapSense_1.c **** *  Stores the results of measurement in the CapSense_1_sensorRaw[] array,
1535:.\Generated_Source\PSoC4/CapSense_1.c **** *  sets the scanning sensor in the non-sampling state, turns off Idac(Current Source IDAC),
1536:.\Generated_Source\PSoC4/CapSense_1.c **** *  disconnects the IDAC(Sink mode), and applies Vref on AMUX.
1537:.\Generated_Source\PSoC4/CapSense_1.c **** *
1538:.\Generated_Source\PSoC4/CapSense_1.c **** * Parameters:
1539:.\Generated_Source\PSoC4/CapSense_1.c **** *  sensor:  Sensor number.
1540:.\Generated_Source\PSoC4/CapSense_1.c **** *
1541:.\Generated_Source\PSoC4/CapSense_1.c **** * Return:
1542:.\Generated_Source\PSoC4/CapSense_1.c **** *  None
1543:.\Generated_Source\PSoC4/CapSense_1.c **** *
1544:.\Generated_Source\PSoC4/CapSense_1.c **** * Global Variables:
1545:.\Generated_Source\PSoC4/CapSense_1.c **** *  CapSense_1_sensorRaw[] - used to store sensors raw data.
1546:.\Generated_Source\PSoC4/CapSense_1.c **** *
1547:.\Generated_Source\PSoC4/CapSense_1.c **** * Side Effects: 
1548:.\Generated_Source\PSoC4/CapSense_1.c **** *  None
1549:.\Generated_Source\PSoC4/CapSense_1.c **** *
1550:.\Generated_Source\PSoC4/CapSense_1.c **** *******************************************************************************/
1551:.\Generated_Source\PSoC4/CapSense_1.c **** void CapSense_1_PostScan(uint32 sensor)
1552:.\Generated_Source\PSoC4/CapSense_1.c **** {	
 1668              		.loc 1 1552 0
 1669              		.cfi_startproc
 1670 0000 80B5     		push	{r7, lr}
 1671              		.cfi_def_cfa_offset 8
 1672              		.cfi_offset 7, -8
 1673              		.cfi_offset 14, -4
 1674 0002 84B0     		sub	sp, sp, #16
 1675              		.cfi_def_cfa_offset 24
 1676 0004 00AF     		add	r7, sp, #0
 1677              		.cfi_def_cfa_register 7
 1678 0006 7860     		str	r0, [r7, #4]
1553:.\Generated_Source\PSoC4/CapSense_1.c **** 	uint32 newRegValue;
1554:.\Generated_Source\PSoC4/CapSense_1.c **** #if ((CapSense_1_TUNING_METHOD == CapSense_1__TUNING_AUTO) &&\
1555:.\Generated_Source\PSoC4/CapSense_1.c **** 	 (0 != CapSense_1_IS_OVERSAMPLING_EN))
1556:.\Generated_Source\PSoC4/CapSense_1.c ****     uint32 oversamplingFactor;
1557:.\Generated_Source\PSoC4/CapSense_1.c ****     uint32 widget;
1558:.\Generated_Source\PSoC4/CapSense_1.c **** #endif /* ((CapSense_1_TUNING_METHOD == CapSense_1__TUNING_AUTO) &&\
ARM GAS  C:\Users\mitchell\AppData\Local\Temp\cc5pMFOa.s 			page 58


1559:.\Generated_Source\PSoC4/CapSense_1.c **** 		   (0 != CapSense_1_IS_OVERSAMPLING_EN)) */	
1560:.\Generated_Source\PSoC4/CapSense_1.c **** 
1561:.\Generated_Source\PSoC4/CapSense_1.c **** 	/* `#START CapSense_1_PostScan_Debug` */
1562:.\Generated_Source\PSoC4/CapSense_1.c **** 
1563:.\Generated_Source\PSoC4/CapSense_1.c **** 	/* `#END` */
1564:.\Generated_Source\PSoC4/CapSense_1.c **** 
1565:.\Generated_Source\PSoC4/CapSense_1.c **** 
1566:.\Generated_Source\PSoC4/CapSense_1.c ****     /* Read SlotResult from Raw Counter */
1567:.\Generated_Source\PSoC4/CapSense_1.c ****     CapSense_1_sensorRaw[sensor]  = (uint16)CapSense_1_CSD_CNT_REG;
 1679              		.loc 1 1567 0
 1680 0008 144B     		ldr	r3, .L85
 1681 000a 1B68     		ldr	r3, [r3]
 1682 000c 99B2     		uxth	r1, r3
 1683 000e 144B     		ldr	r3, .L85+4
 1684 0010 7A68     		ldr	r2, [r7, #4]
 1685 0012 5200     		lsl	r2, r2, #1
 1686 0014 D152     		strh	r1, [r2, r3]
1568:.\Generated_Source\PSoC4/CapSense_1.c **** 	
1569:.\Generated_Source\PSoC4/CapSense_1.c **** #if ((CapSense_1_TUNING_METHOD == CapSense_1__TUNING_AUTO) &&\
1570:.\Generated_Source\PSoC4/CapSense_1.c **** 	 (0 != CapSense_1_IS_OVERSAMPLING_EN))
1571:.\Generated_Source\PSoC4/CapSense_1.c **** 	widget = CapSense_1_widgetNumber[sensor];
1572:.\Generated_Source\PSoC4/CapSense_1.c **** 	if(CapSense_1_widgetResolution[widget] < CapSense_1_RESOLUTION_16_BITS)
1573:.\Generated_Source\PSoC4/CapSense_1.c **** 	{
1574:.\Generated_Source\PSoC4/CapSense_1.c **** 		oversamplingFactor = CapSense_1_GetBitValue(scanSpeedTbl, sensor);
1575:.\Generated_Source\PSoC4/CapSense_1.c **** 		CapSense_1_sensorRaw[sensor] >>= oversamplingFactor;
1576:.\Generated_Source\PSoC4/CapSense_1.c **** 	}
1577:.\Generated_Source\PSoC4/CapSense_1.c **** #endif /* ((CapSense_1_TUNING_METHOD == CapSense_1__TUNING_AUTO) &&\
1578:.\Generated_Source\PSoC4/CapSense_1.c **** 		   (0 != CapSense_1_IS_OVERSAMPLING_EN)) */
1579:.\Generated_Source\PSoC4/CapSense_1.c **** 
1580:.\Generated_Source\PSoC4/CapSense_1.c ****     /* Disable Sensor */
1581:.\Generated_Source\PSoC4/CapSense_1.c ****     CapSense_1_DisableScanSlot(sensor);
 1687              		.loc 1 1581 0
 1688 0016 7B68     		ldr	r3, [r7, #4]
 1689 0018 181C     		mov	r0, r3
 1690 001a FFF7FEFF 		bl	CapSense_1_DisableSensor
1582:.\Generated_Source\PSoC4/CapSense_1.c **** 
1583:.\Generated_Source\PSoC4/CapSense_1.c **** 	CyIntDisable(CapSense_1_ISR_NUMBER);
 1691              		.loc 1 1583 0
 1692 001e 0F20     		mov	r0, #15
 1693 0020 FFF7FEFF 		bl	CyIntDisable
1584:.\Generated_Source\PSoC4/CapSense_1.c **** 	
1585:.\Generated_Source\PSoC4/CapSense_1.c **** #if(CapSense_1_CMOD_PREGARGE_OPTION == CapSense_1__CAPPRIOBUF)
1586:.\Generated_Source\PSoC4/CapSense_1.c **** 	newRegValue = CapSense_1_CMOD_CONNECTION_REG;
1587:.\Generated_Source\PSoC4/CapSense_1.c **** 	newRegValue &= ~(CapSense_1_CSD_CMOD_CONNECTION_MASK);
1588:.\Generated_Source\PSoC4/CapSense_1.c **** 	newRegValue |= CapSense_1_CSD_CMOD_TO_AMUXBUS_B;
1589:.\Generated_Source\PSoC4/CapSense_1.c **** 	CapSense_1_CMOD_CONNECTION_REG = newRegValue;
1590:.\Generated_Source\PSoC4/CapSense_1.c **** 	
1591:.\Generated_Source\PSoC4/CapSense_1.c **** 	newRegValue = CapSense_1_CMOD_PORT_PC_REG;
1592:.\Generated_Source\PSoC4/CapSense_1.c **** 	newRegValue &= ~(CapSense_1_CSD_CMOD_PC_MASK);
1593:.\Generated_Source\PSoC4/CapSense_1.c **** 	newRegValue |= CapSense_1_CMOD_PC_STRONG_MODE;
1594:.\Generated_Source\PSoC4/CapSense_1.c **** 	CapSense_1_CMOD_PORT_PC_REG = newRegValue;
1595:.\Generated_Source\PSoC4/CapSense_1.c **** 		
1596:.\Generated_Source\PSoC4/CapSense_1.c **** 	newRegValue = CapSense_1_CMOD_PORT_DR_REG;
1597:.\Generated_Source\PSoC4/CapSense_1.c ****     newRegValue &= ~(CapSense_1_CMOD_DR_MASK);
1598:.\Generated_Source\PSoC4/CapSense_1.c **** 	newRegValue |= CapSense_1_CMOD_DR_CONFIG;
1599:.\Generated_Source\PSoC4/CapSense_1.c ****     CapSense_1_CMOD_PORT_DR_REG = newRegValue;    
1600:.\Generated_Source\PSoC4/CapSense_1.c **** #endif /* (CapSense_1_CMOD_PREGARGE_OPTION == CapSense_1__CAPPRIOBUF) */
ARM GAS  C:\Users\mitchell\AppData\Local\Temp\cc5pMFOa.s 			page 59


1601:.\Generated_Source\PSoC4/CapSense_1.c **** 	
1602:.\Generated_Source\PSoC4/CapSense_1.c **** 	/* Connect Vref Buffer to AMUX bus  */
1603:.\Generated_Source\PSoC4/CapSense_1.c **** 	newRegValue = CapSense_1_CSD_CFG_REG;
 1694              		.loc 1 1603 0
 1695 0024 0F4B     		ldr	r3, .L85+8
 1696 0026 1B68     		ldr	r3, [r3]
 1697 0028 FB60     		str	r3, [r7, #12]
1604:.\Generated_Source\PSoC4/CapSense_1.c **** 	newRegValue &= ~(CapSense_1_PRECHARGE_CONFIG_MASK);
 1698              		.loc 1 1604 0
 1699 002a FA68     		ldr	r2, [r7, #12]
 1700 002c 0E4B     		ldr	r3, .L85+12
 1701 002e 1340     		and	r3, r2
 1702 0030 FB60     		str	r3, [r7, #12]
1605:.\Generated_Source\PSoC4/CapSense_1.c **** 	newRegValue |= CapSense_1_CMOD_PRECHARGE_CONFIG;
 1703              		.loc 1 1605 0
 1704 0032 FB68     		ldr	r3, [r7, #12]
 1705 0034 A022     		mov	r2, #160
 1706 0036 1202     		lsl	r2, r2, #8
 1707 0038 1343     		orr	r3, r2
 1708 003a FB60     		str	r3, [r7, #12]
1606:.\Generated_Source\PSoC4/CapSense_1.c **** 	CapSense_1_CSD_CFG_REG = newRegValue;
 1709              		.loc 1 1606 0
 1710 003c 094B     		ldr	r3, .L85+8
 1711 003e FA68     		ldr	r2, [r7, #12]
 1712 0040 1A60     		str	r2, [r3]
1607:.\Generated_Source\PSoC4/CapSense_1.c **** 
1608:.\Generated_Source\PSoC4/CapSense_1.c **** 	/* Set Idac Value = 0 */
1609:.\Generated_Source\PSoC4/CapSense_1.c **** #if (CapSense_1_IDAC_CNT == 1u)   
1610:.\Generated_Source\PSoC4/CapSense_1.c **** 	CapSense_1_CSD_IDAC_REG &= ~(CapSense_1_CSD_IDAC1_DATA_MASK);
 1713              		.loc 1 1610 0
 1714 0042 0A4B     		ldr	r3, .L85+16
 1715 0044 094A     		ldr	r2, .L85+16
 1716 0046 1268     		ldr	r2, [r2]
 1717 0048 FF21     		mov	r1, #255
 1718 004a 8A43     		bic	r2, r1
 1719 004c 1A60     		str	r2, [r3]
1611:.\Generated_Source\PSoC4/CapSense_1.c **** #else
1612:.\Generated_Source\PSoC4/CapSense_1.c **** 	CapSense_1_CSD_IDAC_REG &= ~(CapSense_1_CSD_IDAC1_DATA_MASK | CapSense_1_CSD_IDAC2_DATA_MASK);    
1613:.\Generated_Source\PSoC4/CapSense_1.c **** #endif /* (CapSense_1_IDAC_CNT == 1u) */
1614:.\Generated_Source\PSoC4/CapSense_1.c **** 
1615:.\Generated_Source\PSoC4/CapSense_1.c **** 	CyIntEnable(CapSense_1_ISR_NUMBER);
 1720              		.loc 1 1615 0
 1721 004e 0F20     		mov	r0, #15
 1722 0050 FFF7FEFF 		bl	CyIntEnable
1616:.\Generated_Source\PSoC4/CapSense_1.c **** }
 1723              		.loc 1 1616 0
 1724 0054 BD46     		mov	sp, r7
 1725 0056 04B0     		add	sp, sp, #16
 1726              		@ sp needed
 1727 0058 80BD     		pop	{r7, pc}
 1728              	.L86:
 1729 005a C046     		.align	2
 1730              	.L85:
 1731 005c 0C000840 		.word	1074266124
 1732 0060 00000000 		.word	CapSense_1_sensorRaw
 1733 0064 04000840 		.word	1074266116
 1734 0068 FF1FDFFF 		.word	-2154497
ARM GAS  C:\Users\mitchell\AppData\Local\Temp\cc5pMFOa.s 			page 60


 1735 006c 08000840 		.word	1074266120
 1736              		.cfi_endproc
 1737              	.LFE53:
 1738              		.size	CapSense_1_PostScan, .-CapSense_1_PostScan
 1739              		.section	.text.CapSense_1_EnableShieldElectrode,"ax",%progbits
 1740              		.align	2
 1741              		.global	CapSense_1_EnableShieldElectrode
 1742              		.code	16
 1743              		.thumb_func
 1744              		.type	CapSense_1_EnableShieldElectrode, %function
 1745              	CapSense_1_EnableShieldElectrode:
 1746              	.LFB54:
1617:.\Generated_Source\PSoC4/CapSense_1.c **** 
1618:.\Generated_Source\PSoC4/CapSense_1.c **** 
1619:.\Generated_Source\PSoC4/CapSense_1.c **** /*******************************************************************************
1620:.\Generated_Source\PSoC4/CapSense_1.c **** * Function Name: CapSense_1_EnableShieldElectrode
1621:.\Generated_Source\PSoC4/CapSense_1.c **** ********************************************************************************
1622:.\Generated_Source\PSoC4/CapSense_1.c **** *
1623:.\Generated_Source\PSoC4/CapSense_1.c **** * Summary:
1624:.\Generated_Source\PSoC4/CapSense_1.c **** *  This API enables or disables the shield electrode on a specified port pin.
1625:.\Generated_Source\PSoC4/CapSense_1.c **** *
1626:.\Generated_Source\PSoC4/CapSense_1.c **** * Parameters:
1627:.\Generated_Source\PSoC4/CapSense_1.c **** *  portNumber: contains the shield electrode port number (0, 1, 2).
1628:.\Generated_Source\PSoC4/CapSense_1.c **** *  pinNumber: contains the shield electrode pin number (0, 1, 2, ... , 7).
1629:.\Generated_Source\PSoC4/CapSense_1.c **** *
1630:.\Generated_Source\PSoC4/CapSense_1.c **** * Return:
1631:.\Generated_Source\PSoC4/CapSense_1.c **** *  None
1632:.\Generated_Source\PSoC4/CapSense_1.c **** *
1633:.\Generated_Source\PSoC4/CapSense_1.c **** * Global Variables:
1634:.\Generated_Source\PSoC4/CapSense_1.c **** *  CapSense_1_prtCfgTbl[] - Contains pointers to the port config registers for each port.
1635:.\Generated_Source\PSoC4/CapSense_1.c **** *  CapSense_1_prtSelTbl[] - Contains pointers to the HSIOM registers for each port.
1636:.\Generated_Source\PSoC4/CapSense_1.c **** *
1637:.\Generated_Source\PSoC4/CapSense_1.c **** * Side Effects: 
1638:.\Generated_Source\PSoC4/CapSense_1.c **** *  None
1639:.\Generated_Source\PSoC4/CapSense_1.c **** *
1640:.\Generated_Source\PSoC4/CapSense_1.c **** *******************************************************************************/
1641:.\Generated_Source\PSoC4/CapSense_1.c **** void CapSense_1_EnableShieldElectrode(uint32 pinNumber, uint32 portNumber)
1642:.\Generated_Source\PSoC4/CapSense_1.c **** {
 1747              		.loc 1 1642 0
 1748              		.cfi_startproc
 1749 0000 90B5     		push	{r4, r7, lr}
 1750              		.cfi_def_cfa_offset 12
 1751              		.cfi_offset 4, -12
 1752              		.cfi_offset 7, -8
 1753              		.cfi_offset 14, -4
 1754 0002 85B0     		sub	sp, sp, #20
 1755              		.cfi_def_cfa_offset 32
 1756 0004 00AF     		add	r7, sp, #0
 1757              		.cfi_def_cfa_register 7
 1758 0006 7860     		str	r0, [r7, #4]
 1759 0008 3960     		str	r1, [r7]
1643:.\Generated_Source\PSoC4/CapSense_1.c **** 	uint32 newRegValue;
1644:.\Generated_Source\PSoC4/CapSense_1.c **** 	
1645:.\Generated_Source\PSoC4/CapSense_1.c **** 	*CapSense_1_prtCfgTbl[portNumber] &= ~(CapSense_1_CSD_PIN_MODE_MASK << (pinNumber * CapSense_1_PC_
 1760              		.loc 1 1645 0
 1761 000a 1B4B     		ldr	r3, .L88
 1762 000c 3A68     		ldr	r2, [r7]
ARM GAS  C:\Users\mitchell\AppData\Local\Temp\cc5pMFOa.s 			page 61


 1763 000e 9200     		lsl	r2, r2, #2
 1764 0010 D258     		ldr	r2, [r2, r3]
 1765 0012 194B     		ldr	r3, .L88
 1766 0014 3968     		ldr	r1, [r7]
 1767 0016 8900     		lsl	r1, r1, #2
 1768 0018 CB58     		ldr	r3, [r1, r3]
 1769 001a 1868     		ldr	r0, [r3]
 1770 001c 7968     		ldr	r1, [r7, #4]
 1771 001e 0B1C     		mov	r3, r1
 1772 0020 5B00     		lsl	r3, r3, #1
 1773 0022 5B18     		add	r3, r3, r1
 1774 0024 0721     		mov	r1, #7
 1775 0026 0C1C     		mov	r4, r1
 1776 0028 9C40     		lsl	r4, r4, r3
 1777 002a 231C     		mov	r3, r4
 1778 002c DB43     		mvn	r3, r3
 1779 002e 0340     		and	r3, r0
 1780 0030 1360     		str	r3, [r2]
1646:.\Generated_Source\PSoC4/CapSense_1.c **** 	newRegValue = *CapSense_1_prtSelTbl[portNumber];
 1781              		.loc 1 1646 0
 1782 0032 124B     		ldr	r3, .L88+4
 1783 0034 3A68     		ldr	r2, [r7]
 1784 0036 9200     		lsl	r2, r2, #2
 1785 0038 D358     		ldr	r3, [r2, r3]
 1786 003a 1B68     		ldr	r3, [r3]
 1787 003c FB60     		str	r3, [r7, #12]
1647:.\Generated_Source\PSoC4/CapSense_1.c ****     newRegValue &= ~(CapSense_1_CSD_HSIOM_MASK << (pinNumber * CapSense_1_HSIOM_PIN_CFG_SIZE));
 1788              		.loc 1 1647 0
 1789 003e 7B68     		ldr	r3, [r7, #4]
 1790 0040 9B00     		lsl	r3, r3, #2
 1791 0042 0F22     		mov	r2, #15
 1792 0044 111C     		mov	r1, r2
 1793 0046 9940     		lsl	r1, r1, r3
 1794 0048 0B1C     		mov	r3, r1
 1795 004a DA43     		mvn	r2, r3
 1796 004c FB68     		ldr	r3, [r7, #12]
 1797 004e 1340     		and	r3, r2
 1798 0050 FB60     		str	r3, [r7, #12]
1648:.\Generated_Source\PSoC4/CapSense_1.c ****     newRegValue |= (CapSense_1_CSD_SHIELD_PORT_MODE << (pinNumber * CapSense_1_HSIOM_PIN_CFG_SIZE))
 1799              		.loc 1 1648 0
 1800 0052 7B68     		ldr	r3, [r7, #4]
 1801 0054 9B00     		lsl	r3, r3, #2
 1802 0056 0522     		mov	r2, #5
 1803 0058 141C     		mov	r4, r2
 1804 005a 9C40     		lsl	r4, r4, r3
 1805 005c 231C     		mov	r3, r4
 1806 005e FA68     		ldr	r2, [r7, #12]
 1807 0060 1343     		orr	r3, r2
 1808 0062 FB60     		str	r3, [r7, #12]
1649:.\Generated_Source\PSoC4/CapSense_1.c ****     *CapSense_1_prtSelTbl[portNumber] = newRegValue;
 1809              		.loc 1 1649 0
 1810 0064 054B     		ldr	r3, .L88+4
 1811 0066 3A68     		ldr	r2, [r7]
 1812 0068 9200     		lsl	r2, r2, #2
 1813 006a D358     		ldr	r3, [r2, r3]
 1814 006c FA68     		ldr	r2, [r7, #12]
 1815 006e 1A60     		str	r2, [r3]
ARM GAS  C:\Users\mitchell\AppData\Local\Temp\cc5pMFOa.s 			page 62


1650:.\Generated_Source\PSoC4/CapSense_1.c **** }
 1816              		.loc 1 1650 0
 1817 0070 BD46     		mov	sp, r7
 1818 0072 05B0     		add	sp, sp, #20
 1819              		@ sp needed
 1820 0074 90BD     		pop	{r4, r7, pc}
 1821              	.L89:
 1822 0076 C046     		.align	2
 1823              	.L88:
 1824 0078 00000000 		.word	CapSense_1_prtCfgTbl
 1825 007c 00000000 		.word	CapSense_1_prtSelTbl
 1826              		.cfi_endproc
 1827              	.LFE54:
 1828              		.size	CapSense_1_EnableShieldElectrode, .-CapSense_1_EnableShieldElectrode
 1829              		.section	.text.CapSense_1_SetShieldDelay,"ax",%progbits
 1830              		.align	2
 1831              		.global	CapSense_1_SetShieldDelay
 1832              		.code	16
 1833              		.thumb_func
 1834              		.type	CapSense_1_SetShieldDelay, %function
 1835              	CapSense_1_SetShieldDelay:
 1836              	.LFB55:
1651:.\Generated_Source\PSoC4/CapSense_1.c **** 
1652:.\Generated_Source\PSoC4/CapSense_1.c **** 
1653:.\Generated_Source\PSoC4/CapSense_1.c **** /*******************************************************************************
1654:.\Generated_Source\PSoC4/CapSense_1.c **** * Function Name: CapSense_1_SetShieldDelay
1655:.\Generated_Source\PSoC4/CapSense_1.c **** ********************************************************************************
1656:.\Generated_Source\PSoC4/CapSense_1.c **** *
1657:.\Generated_Source\PSoC4/CapSense_1.c **** * Summary:
1658:.\Generated_Source\PSoC4/CapSense_1.c **** *  This API sets a shield delay.
1659:.\Generated_Source\PSoC4/CapSense_1.c **** *
1660:.\Generated_Source\PSoC4/CapSense_1.c **** * Parameters:
1661:.\Generated_Source\PSoC4/CapSense_1.c **** *  delay:  shield delay value:
1662:.\Generated_Source\PSoC4/CapSense_1.c **** *                               0 - no delay
1663:.\Generated_Source\PSoC4/CapSense_1.c **** *                               1 - 1 cycle delay
1664:.\Generated_Source\PSoC4/CapSense_1.c **** *                               2 - 2 cycles delay
1665:.\Generated_Source\PSoC4/CapSense_1.c **** *
1666:.\Generated_Source\PSoC4/CapSense_1.c **** * Return:
1667:.\Generated_Source\PSoC4/CapSense_1.c **** *  None
1668:.\Generated_Source\PSoC4/CapSense_1.c **** *
1669:.\Generated_Source\PSoC4/CapSense_1.c **** * Global Variables:
1670:.\Generated_Source\PSoC4/CapSense_1.c **** *  None
1671:.\Generated_Source\PSoC4/CapSense_1.c **** *
1672:.\Generated_Source\PSoC4/CapSense_1.c **** * Side Effects: 
1673:.\Generated_Source\PSoC4/CapSense_1.c **** *  None
1674:.\Generated_Source\PSoC4/CapSense_1.c **** *
1675:.\Generated_Source\PSoC4/CapSense_1.c **** *******************************************************************************/
1676:.\Generated_Source\PSoC4/CapSense_1.c **** void CapSense_1_SetShieldDelay(uint32 delay)
1677:.\Generated_Source\PSoC4/CapSense_1.c **** {
 1837              		.loc 1 1677 0
 1838              		.cfi_startproc
 1839 0000 80B5     		push	{r7, lr}
 1840              		.cfi_def_cfa_offset 8
 1841              		.cfi_offset 7, -8
 1842              		.cfi_offset 14, -4
 1843 0002 84B0     		sub	sp, sp, #16
 1844              		.cfi_def_cfa_offset 24
ARM GAS  C:\Users\mitchell\AppData\Local\Temp\cc5pMFOa.s 			page 63


 1845 0004 00AF     		add	r7, sp, #0
 1846              		.cfi_def_cfa_register 7
 1847 0006 7860     		str	r0, [r7, #4]
1678:.\Generated_Source\PSoC4/CapSense_1.c ****     uint32 newRegValue;
1679:.\Generated_Source\PSoC4/CapSense_1.c ****     
1680:.\Generated_Source\PSoC4/CapSense_1.c ****     delay &= 0x03u;
 1848              		.loc 1 1680 0
 1849 0008 7A68     		ldr	r2, [r7, #4]
 1850 000a 0323     		mov	r3, #3
 1851 000c 1340     		and	r3, r2
 1852 000e 7B60     		str	r3, [r7, #4]
1681:.\Generated_Source\PSoC4/CapSense_1.c ****     
1682:.\Generated_Source\PSoC4/CapSense_1.c ****     newRegValue = CapSense_1_CSD_CFG_REG;
 1853              		.loc 1 1682 0
 1854 0010 064B     		ldr	r3, .L91
 1855 0012 1B68     		ldr	r3, [r3]
 1856 0014 FB60     		str	r3, [r7, #12]
1683:.\Generated_Source\PSoC4/CapSense_1.c ****     newRegValue &= (uint32)(~(uint32)CapSense_1_SHIELD_DELAY);    
1684:.\Generated_Source\PSoC4/CapSense_1.c ****     newRegValue |= (delay << CapSense_1_CSD_CFG_SHIELD_DELAY_POS);    
 1857              		.loc 1 1684 0
 1858 0016 7B68     		ldr	r3, [r7, #4]
 1859 0018 5B02     		lsl	r3, r3, #9
 1860 001a FA68     		ldr	r2, [r7, #12]
 1861 001c 1343     		orr	r3, r2
 1862 001e FB60     		str	r3, [r7, #12]
1685:.\Generated_Source\PSoC4/CapSense_1.c ****     CapSense_1_CSD_CFG_REG = newRegValue;
 1863              		.loc 1 1685 0
 1864 0020 024B     		ldr	r3, .L91
 1865 0022 FA68     		ldr	r2, [r7, #12]
 1866 0024 1A60     		str	r2, [r3]
1686:.\Generated_Source\PSoC4/CapSense_1.c **** }
 1867              		.loc 1 1686 0
 1868 0026 BD46     		mov	sp, r7
 1869 0028 04B0     		add	sp, sp, #16
 1870              		@ sp needed
 1871 002a 80BD     		pop	{r7, pc}
 1872              	.L92:
 1873              		.align	2
 1874              	.L91:
 1875 002c 04000840 		.word	1074266116
 1876              		.cfi_endproc
 1877              	.LFE55:
 1878              		.size	CapSense_1_SetShieldDelay, .-CapSense_1_SetShieldDelay
 1879              		.section	.text.CapSense_1_ReadCurrentScanningSensor,"ax",%progbits
 1880              		.align	2
 1881              		.global	CapSense_1_ReadCurrentScanningSensor
 1882              		.code	16
 1883              		.thumb_func
 1884              		.type	CapSense_1_ReadCurrentScanningSensor, %function
 1885              	CapSense_1_ReadCurrentScanningSensor:
 1886              	.LFB56:
1687:.\Generated_Source\PSoC4/CapSense_1.c **** 
1688:.\Generated_Source\PSoC4/CapSense_1.c **** 
1689:.\Generated_Source\PSoC4/CapSense_1.c **** /*******************************************************************************
1690:.\Generated_Source\PSoC4/CapSense_1.c **** * Function Name: CapSense_1_ReadCurrentScanningSensor
1691:.\Generated_Source\PSoC4/CapSense_1.c **** ********************************************************************************
1692:.\Generated_Source\PSoC4/CapSense_1.c **** *
ARM GAS  C:\Users\mitchell\AppData\Local\Temp\cc5pMFOa.s 			page 64


1693:.\Generated_Source\PSoC4/CapSense_1.c **** * Summary:
1694:.\Generated_Source\PSoC4/CapSense_1.c **** *  This API returns scanning sensor number when sensor scan is in progress. 
1695:.\Generated_Source\PSoC4/CapSense_1.c **** *  When sensor scan is completed the API returns 
1696:.\Generated_Source\PSoC4/CapSense_1.c **** *  $INSTANCE_NAME`_NOT_SENSOR (0xFFFFFFFF) (when no sensor is scanned).
1697:.\Generated_Source\PSoC4/CapSense_1.c **** *
1698:.\Generated_Source\PSoC4/CapSense_1.c **** * Parameters:
1699:.\Generated_Source\PSoC4/CapSense_1.c **** *	None.
1700:.\Generated_Source\PSoC4/CapSense_1.c **** *
1701:.\Generated_Source\PSoC4/CapSense_1.c **** * Return:
1702:.\Generated_Source\PSoC4/CapSense_1.c **** *  Returns Sensor number if sensor is being scanned and 
1703:.\Generated_Source\PSoC4/CapSense_1.c **** *  $INSTANCE_NAME`_NOT_SENSOR (0xFFFFFFFF) if scanning is complete.
1704:.\Generated_Source\PSoC4/CapSense_1.c **** *
1705:.\Generated_Source\PSoC4/CapSense_1.c **** * Global Variables:
1706:.\Generated_Source\PSoC4/CapSense_1.c **** *  CapSense_1_sensorIndex - the sensor number is being scanned.
1707:.\Generated_Source\PSoC4/CapSense_1.c **** *
1708:.\Generated_Source\PSoC4/CapSense_1.c **** * Side Effects: 
1709:.\Generated_Source\PSoC4/CapSense_1.c **** *  None
1710:.\Generated_Source\PSoC4/CapSense_1.c **** *
1711:.\Generated_Source\PSoC4/CapSense_1.c **** *******************************************************************************/
1712:.\Generated_Source\PSoC4/CapSense_1.c **** uint32 CapSense_1_ReadCurrentScanningSensor(void)
1713:.\Generated_Source\PSoC4/CapSense_1.c **** {
 1887              		.loc 1 1713 0
 1888              		.cfi_startproc
 1889 0000 80B5     		push	{r7, lr}
 1890              		.cfi_def_cfa_offset 8
 1891              		.cfi_offset 7, -8
 1892              		.cfi_offset 14, -4
 1893 0002 00AF     		add	r7, sp, #0
 1894              		.cfi_def_cfa_register 7
1714:.\Generated_Source\PSoC4/CapSense_1.c ****     return ((uint32)(( 0u != (CapSense_1_csdStatusVar & CapSense_1_SW_STS_BUSY)) ? 
 1895              		.loc 1 1714 0
 1896 0004 074B     		ldr	r3, .L97
 1897 0006 1B78     		ldrb	r3, [r3]
 1898 0008 DBB2     		uxtb	r3, r3
 1899 000a 1A1C     		mov	r2, r3
 1900 000c 0123     		mov	r3, #1
 1901 000e 1340     		and	r3, r2
 1902 0010 03D0     		beq	.L94
 1903              		.loc 1 1714 0 is_stmt 0 discriminator 1
 1904 0012 054B     		ldr	r3, .L97+4
 1905 0014 1B78     		ldrb	r3, [r3]
 1906 0016 DBB2     		uxtb	r3, r3
 1907 0018 01E0     		b	.L95
 1908              	.L94:
 1909              		.loc 1 1714 0 discriminator 2
 1910 001a 0123     		mov	r3, #1
 1911 001c 5B42     		neg	r3, r3
 1912              	.L95:
1715:.\Generated_Source\PSoC4/CapSense_1.c ****                      CapSense_1_sensorIndex : CapSense_1_NOT_SENSOR));
1716:.\Generated_Source\PSoC4/CapSense_1.c **** }
 1913              		.loc 1 1716 0 is_stmt 1 discriminator 3
 1914 001e 181C     		mov	r0, r3
 1915 0020 BD46     		mov	sp, r7
 1916              		@ sp needed
 1917 0022 80BD     		pop	{r7, pc}
 1918              	.L98:
 1919              		.align	2
ARM GAS  C:\Users\mitchell\AppData\Local\Temp\cc5pMFOa.s 			page 65


 1920              	.L97:
 1921 0024 00000000 		.word	CapSense_1_csdStatusVar
 1922 0028 00000000 		.word	CapSense_1_sensorIndex
 1923              		.cfi_endproc
 1924              	.LFE56:
 1925              		.size	CapSense_1_ReadCurrentScanningSensor, .-CapSense_1_ReadCurrentScanningSensor
 1926              		.section	.text.CapSense_1_GetBitValue,"ax",%progbits
 1927              		.align	2
 1928              		.global	CapSense_1_GetBitValue
 1929              		.code	16
 1930              		.thumb_func
 1931              		.type	CapSense_1_GetBitValue, %function
 1932              	CapSense_1_GetBitValue:
 1933              	.LFB57:
1717:.\Generated_Source\PSoC4/CapSense_1.c **** 
1718:.\Generated_Source\PSoC4/CapSense_1.c **** 
1719:.\Generated_Source\PSoC4/CapSense_1.c **** /*******************************************************************************
1720:.\Generated_Source\PSoC4/CapSense_1.c **** * Function Name: CapSense_1_GetBitValue
1721:.\Generated_Source\PSoC4/CapSense_1.c **** ********************************************************************************
1722:.\Generated_Source\PSoC4/CapSense_1.c **** *
1723:.\Generated_Source\PSoC4/CapSense_1.c **** * Summary:
1724:.\Generated_Source\PSoC4/CapSense_1.c **** *  The API returns a bit status of the bit in the table array which contains the masks.
1725:.\Generated_Source\PSoC4/CapSense_1.c **** * 
1726:.\Generated_Source\PSoC4/CapSense_1.c **** * Parameters:
1727:.\Generated_Source\PSoC4/CapSense_1.c **** *  table[] - array with bit masks.
1728:.\Generated_Source\PSoC4/CapSense_1.c **** *  position - position of bit in the table[] array.
1729:.\Generated_Source\PSoC4/CapSense_1.c **** *
1730:.\Generated_Source\PSoC4/CapSense_1.c **** * Return:
1731:.\Generated_Source\PSoC4/CapSense_1.c **** *  0 - bit is not set; 1 - bit is set.
1732:.\Generated_Source\PSoC4/CapSense_1.c **** *
1733:.\Generated_Source\PSoC4/CapSense_1.c **** * Global Variables:
1734:.\Generated_Source\PSoC4/CapSense_1.c **** *  None
1735:.\Generated_Source\PSoC4/CapSense_1.c **** *
1736:.\Generated_Source\PSoC4/CapSense_1.c **** * Side Effects:
1737:.\Generated_Source\PSoC4/CapSense_1.c **** *  None
1738:.\Generated_Source\PSoC4/CapSense_1.c **** *
1739:.\Generated_Source\PSoC4/CapSense_1.c **** *******************************************************************************/
1740:.\Generated_Source\PSoC4/CapSense_1.c **** uint32 CapSense_1_GetBitValue(const uint8 table[], uint32 position)
1741:.\Generated_Source\PSoC4/CapSense_1.c **** {
 1934              		.loc 1 1741 0
 1935              		.cfi_startproc
 1936 0000 80B5     		push	{r7, lr}
 1937              		.cfi_def_cfa_offset 8
 1938              		.cfi_offset 7, -8
 1939              		.cfi_offset 14, -4
 1940 0002 84B0     		sub	sp, sp, #16
 1941              		.cfi_def_cfa_offset 24
 1942 0004 00AF     		add	r7, sp, #0
 1943              		.cfi_def_cfa_register 7
 1944 0006 7860     		str	r0, [r7, #4]
 1945 0008 3960     		str	r1, [r7]
1742:.\Generated_Source\PSoC4/CapSense_1.c ****     uint32 offset;
1743:.\Generated_Source\PSoC4/CapSense_1.c **** 	uint8 enMask;
1744:.\Generated_Source\PSoC4/CapSense_1.c **** 	
1745:.\Generated_Source\PSoC4/CapSense_1.c **** 	/* position is divided by 8 to calculate the element of the 
1746:.\Generated_Source\PSoC4/CapSense_1.c **** 	   table[] array that contains the enable bit 
1747:.\Generated_Source\PSoC4/CapSense_1.c **** 	   for an appropriate sensor.
ARM GAS  C:\Users\mitchell\AppData\Local\Temp\cc5pMFOa.s 			page 66


1748:.\Generated_Source\PSoC4/CapSense_1.c **** 	*/
1749:.\Generated_Source\PSoC4/CapSense_1.c **** 	offset = (position >> 3u);
 1946              		.loc 1 1749 0
 1947 000a 3B68     		ldr	r3, [r7]
 1948 000c DB08     		lsr	r3, r3, #3
 1949 000e FB60     		str	r3, [r7, #12]
1750:.\Generated_Source\PSoC4/CapSense_1.c **** 	
1751:.\Generated_Source\PSoC4/CapSense_1.c **** 	/* The enMask calculation for the appropriate sensor. Operation (position & 0x07u) 
1752:.\Generated_Source\PSoC4/CapSense_1.c **** 	   intends to calculate the enable bit offset for the 8-bit element of the 
1753:.\Generated_Source\PSoC4/CapSense_1.c **** 	   table[] array.
1754:.\Generated_Source\PSoC4/CapSense_1.c **** 	*/
1755:.\Generated_Source\PSoC4/CapSense_1.c **** 	enMask = 0x01u << (position & 0x07u);
 1950              		.loc 1 1755 0
 1951 0010 3A68     		ldr	r2, [r7]
 1952 0012 0723     		mov	r3, #7
 1953 0014 1340     		and	r3, r2
 1954 0016 0122     		mov	r2, #1
 1955 0018 9A40     		lsl	r2, r2, r3
 1956 001a 3B1C     		mov	r3, r7
 1957 001c 0B33     		add	r3, r3, #11
 1958 001e 1A70     		strb	r2, [r3]
1756:.\Generated_Source\PSoC4/CapSense_1.c ****     
1757:.\Generated_Source\PSoC4/CapSense_1.c ****     return ((0u !=(table[offset] & enMask)) ? 1Lu : 0Lu);
 1959              		.loc 1 1757 0
 1960 0020 7A68     		ldr	r2, [r7, #4]
 1961 0022 FB68     		ldr	r3, [r7, #12]
 1962 0024 D318     		add	r3, r2, r3
 1963 0026 1B78     		ldrb	r3, [r3]
 1964 0028 3A1C     		mov	r2, r7
 1965 002a 0B32     		add	r2, r2, #11
 1966 002c 1278     		ldrb	r2, [r2]
 1967 002e 1340     		and	r3, r2
 1968 0030 DBB2     		uxtb	r3, r3
 1969 0032 002B     		cmp	r3, #0
 1970 0034 01D0     		beq	.L100
 1971              		.loc 1 1757 0 is_stmt 0 discriminator 1
 1972 0036 0123     		mov	r3, #1
 1973 0038 00E0     		b	.L101
 1974              	.L100:
 1975              		.loc 1 1757 0 discriminator 2
 1976 003a 0023     		mov	r3, #0
 1977              	.L101:
1758:.\Generated_Source\PSoC4/CapSense_1.c **** }
 1978              		.loc 1 1758 0 is_stmt 1 discriminator 3
 1979 003c 181C     		mov	r0, r3
 1980 003e BD46     		mov	sp, r7
 1981 0040 04B0     		add	sp, sp, #16
 1982              		@ sp needed
 1983 0042 80BD     		pop	{r7, pc}
 1984              		.cfi_endproc
 1985              	.LFE57:
 1986              		.size	CapSense_1_GetBitValue, .-CapSense_1_GetBitValue
 1987              		.section	.text.CapSense_1_SetBitValue,"ax",%progbits
 1988              		.align	2
 1989              		.global	CapSense_1_SetBitValue
 1990              		.code	16
 1991              		.thumb_func
ARM GAS  C:\Users\mitchell\AppData\Local\Temp\cc5pMFOa.s 			page 67


 1992              		.type	CapSense_1_SetBitValue, %function
 1993              	CapSense_1_SetBitValue:
 1994              	.LFB58:
1759:.\Generated_Source\PSoC4/CapSense_1.c **** 
1760:.\Generated_Source\PSoC4/CapSense_1.c **** 
1761:.\Generated_Source\PSoC4/CapSense_1.c **** /*******************************************************************************
1762:.\Generated_Source\PSoC4/CapSense_1.c **** * Function Name: CapSense_1_SetBitValue
1763:.\Generated_Source\PSoC4/CapSense_1.c **** ********************************************************************************
1764:.\Generated_Source\PSoC4/CapSense_1.c **** *
1765:.\Generated_Source\PSoC4/CapSense_1.c **** * Summary:
1766:.\Generated_Source\PSoC4/CapSense_1.c **** *  The API sets a bit status of the bit in the table array which contains masks.
1767:.\Generated_Source\PSoC4/CapSense_1.c **** * 
1768:.\Generated_Source\PSoC4/CapSense_1.c **** * Parameters:
1769:.\Generated_Source\PSoC4/CapSense_1.c **** *  table[] - array with bit masks.
1770:.\Generated_Source\PSoC4/CapSense_1.c **** *  position - position of bit in the table[] array.
1771:.\Generated_Source\PSoC4/CapSense_1.c **** *  value: 0 - bit is not set; 1 - bit is set.
1772:.\Generated_Source\PSoC4/CapSense_1.c **** *
1773:.\Generated_Source\PSoC4/CapSense_1.c **** * Return:
1774:.\Generated_Source\PSoC4/CapSense_1.c **** *  None
1775:.\Generated_Source\PSoC4/CapSense_1.c **** *
1776:.\Generated_Source\PSoC4/CapSense_1.c **** * Global Variables:
1777:.\Generated_Source\PSoC4/CapSense_1.c **** *  None
1778:.\Generated_Source\PSoC4/CapSense_1.c **** *
1779:.\Generated_Source\PSoC4/CapSense_1.c **** * Side Effects:
1780:.\Generated_Source\PSoC4/CapSense_1.c **** *  None
1781:.\Generated_Source\PSoC4/CapSense_1.c **** *
1782:.\Generated_Source\PSoC4/CapSense_1.c **** *******************************************************************************/
1783:.\Generated_Source\PSoC4/CapSense_1.c **** void CapSense_1_SetBitValue(uint8 table[], uint32 position, uint32 value)
1784:.\Generated_Source\PSoC4/CapSense_1.c **** {
 1995              		.loc 1 1784 0
 1996              		.cfi_startproc
 1997 0000 80B5     		push	{r7, lr}
 1998              		.cfi_def_cfa_offset 8
 1999              		.cfi_offset 7, -8
 2000              		.cfi_offset 14, -4
 2001 0002 86B0     		sub	sp, sp, #24
 2002              		.cfi_def_cfa_offset 32
 2003 0004 00AF     		add	r7, sp, #0
 2004              		.cfi_def_cfa_register 7
 2005 0006 F860     		str	r0, [r7, #12]
 2006 0008 B960     		str	r1, [r7, #8]
 2007 000a 7A60     		str	r2, [r7, #4]
1785:.\Generated_Source\PSoC4/CapSense_1.c ****     uint32 offset;
1786:.\Generated_Source\PSoC4/CapSense_1.c **** 	uint8 enMask;
1787:.\Generated_Source\PSoC4/CapSense_1.c **** 	
1788:.\Generated_Source\PSoC4/CapSense_1.c **** 	/* position is divided by 8 to calculate the element of the 
1789:.\Generated_Source\PSoC4/CapSense_1.c **** 	   table[] array that contains the enable bit 
1790:.\Generated_Source\PSoC4/CapSense_1.c **** 	   for an appropriate sensor.
1791:.\Generated_Source\PSoC4/CapSense_1.c **** 	*/
1792:.\Generated_Source\PSoC4/CapSense_1.c **** 	offset = (position >> 3u);
 2008              		.loc 1 1792 0
 2009 000c BB68     		ldr	r3, [r7, #8]
 2010 000e DB08     		lsr	r3, r3, #3
 2011 0010 7B61     		str	r3, [r7, #20]
1793:.\Generated_Source\PSoC4/CapSense_1.c **** 	
1794:.\Generated_Source\PSoC4/CapSense_1.c **** 	/* The enMask calculation for the appropriate sensor. Operation (position & 0x07u) 
1795:.\Generated_Source\PSoC4/CapSense_1.c **** 	   intends to calculate the enable bit offset for the 8-bit element of the 
ARM GAS  C:\Users\mitchell\AppData\Local\Temp\cc5pMFOa.s 			page 68


1796:.\Generated_Source\PSoC4/CapSense_1.c **** 	   table[] array.
1797:.\Generated_Source\PSoC4/CapSense_1.c **** 	*/
1798:.\Generated_Source\PSoC4/CapSense_1.c **** 	enMask = 0x01u << (position & 0x07u);
 2012              		.loc 1 1798 0
 2013 0012 BA68     		ldr	r2, [r7, #8]
 2014 0014 0723     		mov	r3, #7
 2015 0016 1340     		and	r3, r2
 2016 0018 0122     		mov	r2, #1
 2017 001a 9A40     		lsl	r2, r2, r3
 2018 001c 3B1C     		mov	r3, r7
 2019 001e 1333     		add	r3, r3, #19
 2020 0020 1A70     		strb	r2, [r3]
1799:.\Generated_Source\PSoC4/CapSense_1.c **** 	
1800:.\Generated_Source\PSoC4/CapSense_1.c **** 	if(0u != value)
 2021              		.loc 1 1800 0
 2022 0022 7B68     		ldr	r3, [r7, #4]
 2023 0024 002B     		cmp	r3, #0
 2024 0026 0DD0     		beq	.L104
1801:.\Generated_Source\PSoC4/CapSense_1.c **** 	{
1802:.\Generated_Source\PSoC4/CapSense_1.c **** 		table[offset] |= enMask;
 2025              		.loc 1 1802 0
 2026 0028 FA68     		ldr	r2, [r7, #12]
 2027 002a 7B69     		ldr	r3, [r7, #20]
 2028 002c D318     		add	r3, r2, r3
 2029 002e F968     		ldr	r1, [r7, #12]
 2030 0030 7A69     		ldr	r2, [r7, #20]
 2031 0032 8A18     		add	r2, r1, r2
 2032 0034 1178     		ldrb	r1, [r2]
 2033 0036 3A1C     		mov	r2, r7
 2034 0038 1332     		add	r2, r2, #19
 2035 003a 1278     		ldrb	r2, [r2]
 2036 003c 0A43     		orr	r2, r1
 2037 003e D2B2     		uxtb	r2, r2
 2038 0040 1A70     		strb	r2, [r3]
 2039 0042 0EE0     		b	.L103
 2040              	.L104:
1803:.\Generated_Source\PSoC4/CapSense_1.c **** 	}
1804:.\Generated_Source\PSoC4/CapSense_1.c **** 	else
1805:.\Generated_Source\PSoC4/CapSense_1.c **** 	{
1806:.\Generated_Source\PSoC4/CapSense_1.c **** 		table[offset] &= (uint8)~(enMask);
 2041              		.loc 1 1806 0
 2042 0044 FA68     		ldr	r2, [r7, #12]
 2043 0046 7B69     		ldr	r3, [r7, #20]
 2044 0048 D318     		add	r3, r2, r3
 2045 004a F968     		ldr	r1, [r7, #12]
 2046 004c 7A69     		ldr	r2, [r7, #20]
 2047 004e 8A18     		add	r2, r1, r2
 2048 0050 1278     		ldrb	r2, [r2]
 2049 0052 391C     		mov	r1, r7
 2050 0054 1331     		add	r1, r1, #19
 2051 0056 0978     		ldrb	r1, [r1]
 2052 0058 C943     		mvn	r1, r1
 2053 005a C9B2     		uxtb	r1, r1
 2054 005c 0A40     		and	r2, r1
 2055 005e D2B2     		uxtb	r2, r2
 2056 0060 1A70     		strb	r2, [r3]
 2057              	.L103:
ARM GAS  C:\Users\mitchell\AppData\Local\Temp\cc5pMFOa.s 			page 69


1807:.\Generated_Source\PSoC4/CapSense_1.c **** 	}
1808:.\Generated_Source\PSoC4/CapSense_1.c **** }
 2058              		.loc 1 1808 0
 2059 0062 BD46     		mov	sp, r7
 2060 0064 06B0     		add	sp, sp, #24
 2061              		@ sp needed
 2062 0066 80BD     		pop	{r7, pc}
 2063              		.cfi_endproc
 2064              	.LFE58:
 2065              		.size	CapSense_1_SetBitValue, .-CapSense_1_SetBitValue
 2066              		.section	.text.CapSense_1_GetSenseClkDivider,"ax",%progbits
 2067              		.align	2
 2068              		.global	CapSense_1_GetSenseClkDivider
 2069              		.code	16
 2070              		.thumb_func
 2071              		.type	CapSense_1_GetSenseClkDivider, %function
 2072              	CapSense_1_GetSenseClkDivider:
 2073              	.LFB59:
1809:.\Generated_Source\PSoC4/CapSense_1.c **** 
1810:.\Generated_Source\PSoC4/CapSense_1.c **** 
1811:.\Generated_Source\PSoC4/CapSense_1.c **** 
1812:.\Generated_Source\PSoC4/CapSense_1.c **** /*******************************************************************************
1813:.\Generated_Source\PSoC4/CapSense_1.c **** * Function Name: CapSense_1_GetSenseClkDivider
1814:.\Generated_Source\PSoC4/CapSense_1.c **** ********************************************************************************
1815:.\Generated_Source\PSoC4/CapSense_1.c **** *
1816:.\Generated_Source\PSoC4/CapSense_1.c **** * Summary:
1817:.\Generated_Source\PSoC4/CapSense_1.c **** *  This API returns a value of the sense clock divider for the  sensor.
1818:.\Generated_Source\PSoC4/CapSense_1.c **** *
1819:.\Generated_Source\PSoC4/CapSense_1.c **** * Parameters:
1820:.\Generated_Source\PSoC4/CapSense_1.c **** *  sensor: sensor index. The index value can be 
1821:.\Generated_Source\PSoC4/CapSense_1.c **** *  from 0 to (CapSense_1_TOTAL_SENSOR_COUNT-1).
1822:.\Generated_Source\PSoC4/CapSense_1.c **** *
1823:.\Generated_Source\PSoC4/CapSense_1.c **** * Return:
1824:.\Generated_Source\PSoC4/CapSense_1.c **** *  This API returns the sense clock divider of the sensor. 
1825:.\Generated_Source\PSoC4/CapSense_1.c **** *
1826:.\Generated_Source\PSoC4/CapSense_1.c **** * Global Variables:
1827:.\Generated_Source\PSoC4/CapSense_1.c **** *  CapSense_1_senseClkDividerVal[] - stores the sense clock divider values.
1828:.\Generated_Source\PSoC4/CapSense_1.c **** * 
1829:.\Generated_Source\PSoC4/CapSense_1.c **** * Side Effects:
1830:.\Generated_Source\PSoC4/CapSense_1.c **** *  None
1831:.\Generated_Source\PSoC4/CapSense_1.c **** *
1832:.\Generated_Source\PSoC4/CapSense_1.c **** *******************************************************************************/
1833:.\Generated_Source\PSoC4/CapSense_1.c **** uint32 CapSense_1_GetSenseClkDivider(uint32 sensor)
1834:.\Generated_Source\PSoC4/CapSense_1.c **** {
 2074              		.loc 1 1834 0
 2075              		.cfi_startproc
 2076 0000 80B5     		push	{r7, lr}
 2077              		.cfi_def_cfa_offset 8
 2078              		.cfi_offset 7, -8
 2079              		.cfi_offset 14, -4
 2080 0002 82B0     		sub	sp, sp, #8
 2081              		.cfi_def_cfa_offset 16
 2082 0004 00AF     		add	r7, sp, #0
 2083              		.cfi_def_cfa_register 7
 2084 0006 7860     		str	r0, [r7, #4]
1835:.\Generated_Source\PSoC4/CapSense_1.c **** 	#if(0u != CapSense_1_MULTIPLE_FREQUENCY_SET)
1836:.\Generated_Source\PSoC4/CapSense_1.c **** 		return((uint32)CapSense_1_senseClkDividerVal[sensor]);
ARM GAS  C:\Users\mitchell\AppData\Local\Temp\cc5pMFOa.s 			page 70


1837:.\Generated_Source\PSoC4/CapSense_1.c **** 	#else
1838:.\Generated_Source\PSoC4/CapSense_1.c **** 		return((uint32)CapSense_1_senseClkDividerVal);
 2085              		.loc 1 1838 0
 2086 0008 0123     		mov	r3, #1
1839:.\Generated_Source\PSoC4/CapSense_1.c **** 	#endif /* (0u != CapSense_1_MULTIPLE_FREQUENCY_SET) */
1840:.\Generated_Source\PSoC4/CapSense_1.c **** }
 2087              		.loc 1 1840 0
 2088 000a 181C     		mov	r0, r3
 2089 000c BD46     		mov	sp, r7
 2090 000e 02B0     		add	sp, sp, #8
 2091              		@ sp needed
 2092 0010 80BD     		pop	{r7, pc}
 2093              		.cfi_endproc
 2094              	.LFE59:
 2095              		.size	CapSense_1_GetSenseClkDivider, .-CapSense_1_GetSenseClkDivider
 2096 0012 C046     		.section	.text.CapSense_1_GetModulatorClkDivider,"ax",%progbits
 2097              		.align	2
 2098              		.global	CapSense_1_GetModulatorClkDivider
 2099              		.code	16
 2100              		.thumb_func
 2101              		.type	CapSense_1_GetModulatorClkDivider, %function
 2102              	CapSense_1_GetModulatorClkDivider:
 2103              	.LFB60:
1841:.\Generated_Source\PSoC4/CapSense_1.c **** 
1842:.\Generated_Source\PSoC4/CapSense_1.c **** #if (CapSense_1_TUNING_METHOD != CapSense_1__TUNING_NONE)
1843:.\Generated_Source\PSoC4/CapSense_1.c **** 	/*******************************************************************************
1844:.\Generated_Source\PSoC4/CapSense_1.c **** 	* Function Name: CapSense_1_SetSenseClkDivider
1845:.\Generated_Source\PSoC4/CapSense_1.c **** 	********************************************************************************
1846:.\Generated_Source\PSoC4/CapSense_1.c **** 	*
1847:.\Generated_Source\PSoC4/CapSense_1.c **** 	* Summary:
1848:.\Generated_Source\PSoC4/CapSense_1.c **** 	*  This API sets a value of the sense clock divider for the  sensor. 
1849:.\Generated_Source\PSoC4/CapSense_1.c **** 	*
1850:.\Generated_Source\PSoC4/CapSense_1.c **** 	* Parameters:
1851:.\Generated_Source\PSoC4/CapSense_1.c **** 	*  sensor:  Sensor index.
1852:.\Generated_Source\PSoC4/CapSense_1.c **** 	*  senseClk: represents the sense clock value.
1853:.\Generated_Source\PSoC4/CapSense_1.c **** 	*
1854:.\Generated_Source\PSoC4/CapSense_1.c **** 	* Return:
1855:.\Generated_Source\PSoC4/CapSense_1.c **** 	*  None.
1856:.\Generated_Source\PSoC4/CapSense_1.c **** 	*
1857:.\Generated_Source\PSoC4/CapSense_1.c **** 	* Global Variables:
1858:.\Generated_Source\PSoC4/CapSense_1.c **** 	*  CapSense_1_senseClkDividerVal[] - stores the sense clock divider values.
1859:.\Generated_Source\PSoC4/CapSense_1.c **** 	* 
1860:.\Generated_Source\PSoC4/CapSense_1.c **** 	* Side Effects:
1861:.\Generated_Source\PSoC4/CapSense_1.c **** 	*  None
1862:.\Generated_Source\PSoC4/CapSense_1.c **** 	*
1863:.\Generated_Source\PSoC4/CapSense_1.c **** 	*******************************************************************************/
1864:.\Generated_Source\PSoC4/CapSense_1.c **** 	void CapSense_1_SetSenseClkDivider(uint32 sensor, uint32 senseClk)
1865:.\Generated_Source\PSoC4/CapSense_1.c **** 	{
1866:.\Generated_Source\PSoC4/CapSense_1.c **** 		#if(0u != CapSense_1_MULTIPLE_FREQUENCY_SET)
1867:.\Generated_Source\PSoC4/CapSense_1.c **** 			CapSense_1_senseClkDividerVal[sensor] = (uint8)senseClk;
1868:.\Generated_Source\PSoC4/CapSense_1.c **** 		#else
1869:.\Generated_Source\PSoC4/CapSense_1.c **** 			CapSense_1_senseClkDividerVal = (uint8)senseClk;
1870:.\Generated_Source\PSoC4/CapSense_1.c **** 		#endif /* (0u != CapSense_1_MULTIPLE_FREQUENCY_SET) */
1871:.\Generated_Source\PSoC4/CapSense_1.c **** 	}
1872:.\Generated_Source\PSoC4/CapSense_1.c **** #endif /* (CapSense_1_TUNING_METHOD != CapSense_1__TUNING_NONE) */
1873:.\Generated_Source\PSoC4/CapSense_1.c **** 
1874:.\Generated_Source\PSoC4/CapSense_1.c **** 
ARM GAS  C:\Users\mitchell\AppData\Local\Temp\cc5pMFOa.s 			page 71


1875:.\Generated_Source\PSoC4/CapSense_1.c **** /*******************************************************************************
1876:.\Generated_Source\PSoC4/CapSense_1.c **** * Function Name: CapSense_1_GetModulatorClkDivider
1877:.\Generated_Source\PSoC4/CapSense_1.c **** ********************************************************************************
1878:.\Generated_Source\PSoC4/CapSense_1.c **** *
1879:.\Generated_Source\PSoC4/CapSense_1.c **** * Summary:
1880:.\Generated_Source\PSoC4/CapSense_1.c **** *  This API returns a value of the modulator sample clock divider for the  sensor.
1881:.\Generated_Source\PSoC4/CapSense_1.c **** *
1882:.\Generated_Source\PSoC4/CapSense_1.c **** * Parameters:
1883:.\Generated_Source\PSoC4/CapSense_1.c **** *  sensor: sensor index. The value of index can be 
1884:.\Generated_Source\PSoC4/CapSense_1.c **** *  from 0 to (CapSense_1_TOTAL_SENSOR_COUNT-1).
1885:.\Generated_Source\PSoC4/CapSense_1.c **** *
1886:.\Generated_Source\PSoC4/CapSense_1.c **** * Return:
1887:.\Generated_Source\PSoC4/CapSense_1.c **** *  This API returns the modulator sample clock divider for the  sensor.
1888:.\Generated_Source\PSoC4/CapSense_1.c **** *
1889:.\Generated_Source\PSoC4/CapSense_1.c **** * Global Variables:
1890:.\Generated_Source\PSoC4/CapSense_1.c **** *  CapSense_1_sampleClkDividerVal[] - stores the modulator sample divider values.
1891:.\Generated_Source\PSoC4/CapSense_1.c **** * 
1892:.\Generated_Source\PSoC4/CapSense_1.c **** * Side Effects:
1893:.\Generated_Source\PSoC4/CapSense_1.c **** *  None
1894:.\Generated_Source\PSoC4/CapSense_1.c **** *
1895:.\Generated_Source\PSoC4/CapSense_1.c **** *******************************************************************************/
1896:.\Generated_Source\PSoC4/CapSense_1.c **** uint32 CapSense_1_GetModulatorClkDivider(uint32 sensor)
1897:.\Generated_Source\PSoC4/CapSense_1.c **** {
 2104              		.loc 1 1897 0
 2105              		.cfi_startproc
 2106 0000 80B5     		push	{r7, lr}
 2107              		.cfi_def_cfa_offset 8
 2108              		.cfi_offset 7, -8
 2109              		.cfi_offset 14, -4
 2110 0002 82B0     		sub	sp, sp, #8
 2111              		.cfi_def_cfa_offset 16
 2112 0004 00AF     		add	r7, sp, #0
 2113              		.cfi_def_cfa_register 7
 2114 0006 7860     		str	r0, [r7, #4]
1898:.\Generated_Source\PSoC4/CapSense_1.c **** 	#if(0u != CapSense_1_MULTIPLE_FREQUENCY_SET)
1899:.\Generated_Source\PSoC4/CapSense_1.c **** 		return((uint32)CapSense_1_sampleClkDividerVal[sensor]);
1900:.\Generated_Source\PSoC4/CapSense_1.c **** 	#else
1901:.\Generated_Source\PSoC4/CapSense_1.c **** 		return((uint32)CapSense_1_sampleClkDividerVal);
 2115              		.loc 1 1901 0
 2116 0008 0C23     		mov	r3, #12
1902:.\Generated_Source\PSoC4/CapSense_1.c **** 	#endif /* (0u != CapSense_1_MULTIPLE_FREQUENCY_SET) */
1903:.\Generated_Source\PSoC4/CapSense_1.c **** }
 2117              		.loc 1 1903 0
 2118 000a 181C     		mov	r0, r3
 2119 000c BD46     		mov	sp, r7
 2120 000e 02B0     		add	sp, sp, #8
 2121              		@ sp needed
 2122 0010 80BD     		pop	{r7, pc}
 2123              		.cfi_endproc
 2124              	.LFE60:
 2125              		.size	CapSense_1_GetModulatorClkDivider, .-CapSense_1_GetModulatorClkDivider
 2126 0012 C046     		.section	.text.CapSense_1_GetModulationIDAC,"ax",%progbits
 2127              		.align	2
 2128              		.global	CapSense_1_GetModulationIDAC
 2129              		.code	16
 2130              		.thumb_func
 2131              		.type	CapSense_1_GetModulationIDAC, %function
ARM GAS  C:\Users\mitchell\AppData\Local\Temp\cc5pMFOa.s 			page 72


 2132              	CapSense_1_GetModulationIDAC:
 2133              	.LFB61:
1904:.\Generated_Source\PSoC4/CapSense_1.c **** 
1905:.\Generated_Source\PSoC4/CapSense_1.c **** #if (CapSense_1_TUNING_METHOD != CapSense_1__TUNING_NONE)
1906:.\Generated_Source\PSoC4/CapSense_1.c **** 	/*******************************************************************************
1907:.\Generated_Source\PSoC4/CapSense_1.c **** 	* Function Name: CapSense_1_SetModulatorClkDivider
1908:.\Generated_Source\PSoC4/CapSense_1.c **** 	********************************************************************************
1909:.\Generated_Source\PSoC4/CapSense_1.c **** 	*
1910:.\Generated_Source\PSoC4/CapSense_1.c **** 	* Summary:
1911:.\Generated_Source\PSoC4/CapSense_1.c **** 	*  This API sets a value of the modulator sample clock divider for the  sensor.
1912:.\Generated_Source\PSoC4/CapSense_1.c **** 	*
1913:.\Generated_Source\PSoC4/CapSense_1.c **** 	* Parameters:
1914:.\Generated_Source\PSoC4/CapSense_1.c **** 	*  sensor:  Sensor index.
1915:.\Generated_Source\PSoC4/CapSense_1.c **** 	*  modulatorClk: represents the modulator sample clock value.
1916:.\Generated_Source\PSoC4/CapSense_1.c **** 	*
1917:.\Generated_Source\PSoC4/CapSense_1.c **** 	* Return:
1918:.\Generated_Source\PSoC4/CapSense_1.c **** 	*  None.
1919:.\Generated_Source\PSoC4/CapSense_1.c **** 	*
1920:.\Generated_Source\PSoC4/CapSense_1.c **** 	* Global Variables:
1921:.\Generated_Source\PSoC4/CapSense_1.c **** 	*  CapSense_1_sampleClkDividerVal[] - stores the modulator sample divider values.
1922:.\Generated_Source\PSoC4/CapSense_1.c **** 	* 
1923:.\Generated_Source\PSoC4/CapSense_1.c **** 	* Side Effects:
1924:.\Generated_Source\PSoC4/CapSense_1.c **** 	*  None
1925:.\Generated_Source\PSoC4/CapSense_1.c **** 	*
1926:.\Generated_Source\PSoC4/CapSense_1.c **** 	*******************************************************************************/
1927:.\Generated_Source\PSoC4/CapSense_1.c **** 	void CapSense_1_SetModulatorClkDivider(uint32 sensor, uint32 modulatorClk)
1928:.\Generated_Source\PSoC4/CapSense_1.c **** 	{
1929:.\Generated_Source\PSoC4/CapSense_1.c **** 		#if(0u != CapSense_1_MULTIPLE_FREQUENCY_SET)
1930:.\Generated_Source\PSoC4/CapSense_1.c **** 			CapSense_1_sampleClkDividerVal[sensor] = (uint8)modulatorClk;
1931:.\Generated_Source\PSoC4/CapSense_1.c **** 		#else
1932:.\Generated_Source\PSoC4/CapSense_1.c **** 			CapSense_1_sampleClkDividerVal = (uint8)modulatorClk;
1933:.\Generated_Source\PSoC4/CapSense_1.c **** 		#endif /* (0u != CapSense_1_MULTIPLE_FREQUENCY_SET) */
1934:.\Generated_Source\PSoC4/CapSense_1.c **** 	}
1935:.\Generated_Source\PSoC4/CapSense_1.c **** #endif /* (CapSense_1_TUNING_METHOD != CapSense_1__TUNING_NONE) */
1936:.\Generated_Source\PSoC4/CapSense_1.c **** 
1937:.\Generated_Source\PSoC4/CapSense_1.c **** /*******************************************************************************
1938:.\Generated_Source\PSoC4/CapSense_1.c **** * Function Name: CapSense_1_GetModulationIDAC
1939:.\Generated_Source\PSoC4/CapSense_1.c **** ********************************************************************************
1940:.\Generated_Source\PSoC4/CapSense_1.c **** *
1941:.\Generated_Source\PSoC4/CapSense_1.c **** * Summary:
1942:.\Generated_Source\PSoC4/CapSense_1.c **** *  This API returns a value of the modulation IDAC for the  sensor.
1943:.\Generated_Source\PSoC4/CapSense_1.c **** *
1944:.\Generated_Source\PSoC4/CapSense_1.c **** * Parameters:
1945:.\Generated_Source\PSoC4/CapSense_1.c **** *  sensor: sensor index. The index value can be 
1946:.\Generated_Source\PSoC4/CapSense_1.c **** *  from 0 to (CapSense_1_TOTAL_SENSOR_COUNT-1).
1947:.\Generated_Source\PSoC4/CapSense_1.c **** *
1948:.\Generated_Source\PSoC4/CapSense_1.c **** * Return:
1949:.\Generated_Source\PSoC4/CapSense_1.c **** *  This API returns the modulation IDAC of the sensor. 
1950:.\Generated_Source\PSoC4/CapSense_1.c **** *
1951:.\Generated_Source\PSoC4/CapSense_1.c **** * Global Variables:
1952:.\Generated_Source\PSoC4/CapSense_1.c **** *  CapSense_1_modulationIDAC[] - stores modulation IDAC values.
1953:.\Generated_Source\PSoC4/CapSense_1.c **** * 
1954:.\Generated_Source\PSoC4/CapSense_1.c **** * Side Effects:
1955:.\Generated_Source\PSoC4/CapSense_1.c **** *  None
1956:.\Generated_Source\PSoC4/CapSense_1.c **** *
1957:.\Generated_Source\PSoC4/CapSense_1.c **** *******************************************************************************/
1958:.\Generated_Source\PSoC4/CapSense_1.c **** uint32 CapSense_1_GetModulationIDAC(uint32 sensor)
ARM GAS  C:\Users\mitchell\AppData\Local\Temp\cc5pMFOa.s 			page 73


1959:.\Generated_Source\PSoC4/CapSense_1.c **** {
 2134              		.loc 1 1959 0
 2135              		.cfi_startproc
 2136 0000 80B5     		push	{r7, lr}
 2137              		.cfi_def_cfa_offset 8
 2138              		.cfi_offset 7, -8
 2139              		.cfi_offset 14, -4
 2140 0002 82B0     		sub	sp, sp, #8
 2141              		.cfi_def_cfa_offset 16
 2142 0004 00AF     		add	r7, sp, #0
 2143              		.cfi_def_cfa_register 7
 2144 0006 7860     		str	r0, [r7, #4]
1960:.\Generated_Source\PSoC4/CapSense_1.c **** 		return((uint32)CapSense_1_modulationIDAC[sensor]);
 2145              		.loc 1 1960 0
 2146 0008 034A     		ldr	r2, .L112
 2147 000a 7B68     		ldr	r3, [r7, #4]
 2148 000c D318     		add	r3, r2, r3
 2149 000e 1B78     		ldrb	r3, [r3]
1961:.\Generated_Source\PSoC4/CapSense_1.c **** }
 2150              		.loc 1 1961 0
 2151 0010 181C     		mov	r0, r3
 2152 0012 BD46     		mov	sp, r7
 2153 0014 02B0     		add	sp, sp, #8
 2154              		@ sp needed
 2155 0016 80BD     		pop	{r7, pc}
 2156              	.L113:
 2157              		.align	2
 2158              	.L112:
 2159 0018 00000000 		.word	CapSense_1_modulationIDAC
 2160              		.cfi_endproc
 2161              	.LFE61:
 2162              		.size	CapSense_1_GetModulationIDAC, .-CapSense_1_GetModulationIDAC
 2163              		.section	.text.CapSense_1_GetIDACRange,"ax",%progbits
 2164              		.align	2
 2165              		.global	CapSense_1_GetIDACRange
 2166              		.code	16
 2167              		.thumb_func
 2168              		.type	CapSense_1_GetIDACRange, %function
 2169              	CapSense_1_GetIDACRange:
 2170              	.LFB62:
1962:.\Generated_Source\PSoC4/CapSense_1.c **** 
1963:.\Generated_Source\PSoC4/CapSense_1.c **** #if (CapSense_1_TUNING_METHOD != CapSense_1__TUNING_NONE)
1964:.\Generated_Source\PSoC4/CapSense_1.c **** 	/*******************************************************************************
1965:.\Generated_Source\PSoC4/CapSense_1.c **** 	* Function Name: CapSense_1_SetModulationIDAC
1966:.\Generated_Source\PSoC4/CapSense_1.c **** 	********************************************************************************
1967:.\Generated_Source\PSoC4/CapSense_1.c **** 	*
1968:.\Generated_Source\PSoC4/CapSense_1.c **** 	* Summary:
1969:.\Generated_Source\PSoC4/CapSense_1.c **** 	*  This API sets a value of the modulation IDAC for the  sensor.
1970:.\Generated_Source\PSoC4/CapSense_1.c **** 	*
1971:.\Generated_Source\PSoC4/CapSense_1.c **** 	* Parameters:
1972:.\Generated_Source\PSoC4/CapSense_1.c **** 	*  sensor:  Sensor index.
1973:.\Generated_Source\PSoC4/CapSense_1.c **** 	*  compIdacValue: represents the modulation IDAC data register value.
1974:.\Generated_Source\PSoC4/CapSense_1.c **** 	*
1975:.\Generated_Source\PSoC4/CapSense_1.c **** 	* Return:
1976:.\Generated_Source\PSoC4/CapSense_1.c **** 	*  None.
1977:.\Generated_Source\PSoC4/CapSense_1.c **** 	*
1978:.\Generated_Source\PSoC4/CapSense_1.c **** 	* Global Variables:
ARM GAS  C:\Users\mitchell\AppData\Local\Temp\cc5pMFOa.s 			page 74


1979:.\Generated_Source\PSoC4/CapSense_1.c **** 	*  CapSense_1_modulationIDAC[] - array with modulation IDAC values
1980:.\Generated_Source\PSoC4/CapSense_1.c **** 	* 
1981:.\Generated_Source\PSoC4/CapSense_1.c **** 	* Side Effects:
1982:.\Generated_Source\PSoC4/CapSense_1.c **** 	*  None
1983:.\Generated_Source\PSoC4/CapSense_1.c **** 	*
1984:.\Generated_Source\PSoC4/CapSense_1.c **** 	*******************************************************************************/
1985:.\Generated_Source\PSoC4/CapSense_1.c **** 	void CapSense_1_SetModulationIDAC(uint32 sensor, uint32 modIdacValue)
1986:.\Generated_Source\PSoC4/CapSense_1.c **** 	{
1987:.\Generated_Source\PSoC4/CapSense_1.c **** 		CapSense_1_modulationIDAC[sensor] = (uint8)modIdacValue;
1988:.\Generated_Source\PSoC4/CapSense_1.c **** 	}
1989:.\Generated_Source\PSoC4/CapSense_1.c **** #endif /* (CapSense_1_TUNING_METHOD != CapSense_1__TUNING_NONE) */
1990:.\Generated_Source\PSoC4/CapSense_1.c **** 
1991:.\Generated_Source\PSoC4/CapSense_1.c **** 
1992:.\Generated_Source\PSoC4/CapSense_1.c **** #if(CapSense_1_IDAC_CNT > 1u)
1993:.\Generated_Source\PSoC4/CapSense_1.c **** 	/*******************************************************************************
1994:.\Generated_Source\PSoC4/CapSense_1.c **** 	* Function Name: CapSense_1_GetCompensationIDAC
1995:.\Generated_Source\PSoC4/CapSense_1.c **** 	********************************************************************************
1996:.\Generated_Source\PSoC4/CapSense_1.c **** 	*
1997:.\Generated_Source\PSoC4/CapSense_1.c **** 	* Summary:
1998:.\Generated_Source\PSoC4/CapSense_1.c **** 	*  This API returns a value of the compensation IDAC for the  sensor.
1999:.\Generated_Source\PSoC4/CapSense_1.c **** 	*
2000:.\Generated_Source\PSoC4/CapSense_1.c **** 	* Parameters:
2001:.\Generated_Source\PSoC4/CapSense_1.c **** 	*  sensor: sensor index. The index value can be 
2002:.\Generated_Source\PSoC4/CapSense_1.c **** 	*  from 0 to (CapSense_1_TOTAL_SENSOR_COUNT-1).
2003:.\Generated_Source\PSoC4/CapSense_1.c **** 	*
2004:.\Generated_Source\PSoC4/CapSense_1.c **** 	* Return:
2005:.\Generated_Source\PSoC4/CapSense_1.c **** 	*  This API returns the compensation IDAC of the sensor. 
2006:.\Generated_Source\PSoC4/CapSense_1.c **** 	*
2007:.\Generated_Source\PSoC4/CapSense_1.c **** 	* Global Variables:
2008:.\Generated_Source\PSoC4/CapSense_1.c **** 	*  CapSense_1_compensationIDAC[] - stores the compensation IDAC values.
2009:.\Generated_Source\PSoC4/CapSense_1.c **** 	* 
2010:.\Generated_Source\PSoC4/CapSense_1.c **** 	* Side Effects:
2011:.\Generated_Source\PSoC4/CapSense_1.c **** 	*  None
2012:.\Generated_Source\PSoC4/CapSense_1.c **** 	*
2013:.\Generated_Source\PSoC4/CapSense_1.c **** 	*******************************************************************************/
2014:.\Generated_Source\PSoC4/CapSense_1.c **** 	uint32 CapSense_1_GetCompensationIDAC(uint32 sensor)
2015:.\Generated_Source\PSoC4/CapSense_1.c **** 	{
2016:.\Generated_Source\PSoC4/CapSense_1.c **** 		return((uint32)CapSense_1_compensationIDAC[sensor]);
2017:.\Generated_Source\PSoC4/CapSense_1.c **** 	}
2018:.\Generated_Source\PSoC4/CapSense_1.c **** #endif /* (CapSense_1_IDAC_CNT > 1u) */
2019:.\Generated_Source\PSoC4/CapSense_1.c **** 
2020:.\Generated_Source\PSoC4/CapSense_1.c **** 
2021:.\Generated_Source\PSoC4/CapSense_1.c **** #if((CapSense_1_TUNING_METHOD != CapSense_1__TUNING_NONE) && (CapSense_1_IDAC_CNT > 1u))
2022:.\Generated_Source\PSoC4/CapSense_1.c **** 	/*******************************************************************************
2023:.\Generated_Source\PSoC4/CapSense_1.c **** 	* Function Name: CapSense_1_SetCompensationIDAC
2024:.\Generated_Source\PSoC4/CapSense_1.c **** 	********************************************************************************
2025:.\Generated_Source\PSoC4/CapSense_1.c **** 	*
2026:.\Generated_Source\PSoC4/CapSense_1.c **** 	* Summary:
2027:.\Generated_Source\PSoC4/CapSense_1.c **** 	*  This API sets a value of compensation IDAC for the  sensor.
2028:.\Generated_Source\PSoC4/CapSense_1.c **** 	*
2029:.\Generated_Source\PSoC4/CapSense_1.c **** 	* Parameters:
2030:.\Generated_Source\PSoC4/CapSense_1.c **** 	*  sensor:  Sensor index.
2031:.\Generated_Source\PSoC4/CapSense_1.c **** 	*  compIdacValue: represents the compensation IDAC data register value.
2032:.\Generated_Source\PSoC4/CapSense_1.c **** 	*
2033:.\Generated_Source\PSoC4/CapSense_1.c **** 	* Return:
2034:.\Generated_Source\PSoC4/CapSense_1.c **** 	*  None.
2035:.\Generated_Source\PSoC4/CapSense_1.c **** 	*
ARM GAS  C:\Users\mitchell\AppData\Local\Temp\cc5pMFOa.s 			page 75


2036:.\Generated_Source\PSoC4/CapSense_1.c **** 	* Global Variables:
2037:.\Generated_Source\PSoC4/CapSense_1.c **** 	*  CapSense_1_compensationIDAC[] - an array with compensation IDAC values
2038:.\Generated_Source\PSoC4/CapSense_1.c **** 	* 
2039:.\Generated_Source\PSoC4/CapSense_1.c **** 	* Side Effects:
2040:.\Generated_Source\PSoC4/CapSense_1.c **** 	*  None
2041:.\Generated_Source\PSoC4/CapSense_1.c **** 	*
2042:.\Generated_Source\PSoC4/CapSense_1.c **** 	*******************************************************************************/
2043:.\Generated_Source\PSoC4/CapSense_1.c **** 	void CapSense_1_SetCompensationIDAC(uint32 sensor, uint32 compIdacValue)
2044:.\Generated_Source\PSoC4/CapSense_1.c **** 	{
2045:.\Generated_Source\PSoC4/CapSense_1.c **** 		CapSense_1_compensationIDAC[sensor] = (uint8)compIdacValue;
2046:.\Generated_Source\PSoC4/CapSense_1.c **** 	}
2047:.\Generated_Source\PSoC4/CapSense_1.c **** #endif /* ((CapSense_1_TUNING_METHOD != CapSense_1__TUNING_NONE) && (CapSense_1_IDAC_CNT > 1u)) */
2048:.\Generated_Source\PSoC4/CapSense_1.c **** 
2049:.\Generated_Source\PSoC4/CapSense_1.c **** /*******************************************************************************
2050:.\Generated_Source\PSoC4/CapSense_1.c **** * Function Name: CapSense_1_GetIDACRange
2051:.\Generated_Source\PSoC4/CapSense_1.c **** ********************************************************************************
2052:.\Generated_Source\PSoC4/CapSense_1.c **** *
2053:.\Generated_Source\PSoC4/CapSense_1.c **** * Summary:
2054:.\Generated_Source\PSoC4/CapSense_1.c **** *  This API returns a value that indicates the IDAC range used by the 
2055:.\Generated_Source\PSoC4/CapSense_1.c **** *  component to scan sensors. The IDAC range is common for all the sensors.
2056:.\Generated_Source\PSoC4/CapSense_1.c **** *
2057:.\Generated_Source\PSoC4/CapSense_1.c **** * Parameters:
2058:.\Generated_Source\PSoC4/CapSense_1.c **** *  None
2059:.\Generated_Source\PSoC4/CapSense_1.c **** *
2060:.\Generated_Source\PSoC4/CapSense_1.c **** * Return:
2061:.\Generated_Source\PSoC4/CapSense_1.c **** *  This API Returns a value that indicates the IDAC range:
2062:.\Generated_Source\PSoC4/CapSense_1.c **** *      0 - IDAC range set to 4x
2063:.\Generated_Source\PSoC4/CapSense_1.c **** *      1 - IDAC range set to 8x
2064:.\Generated_Source\PSoC4/CapSense_1.c **** *
2065:.\Generated_Source\PSoC4/CapSense_1.c **** * Global Variables:
2066:.\Generated_Source\PSoC4/CapSense_1.c **** *  None
2067:.\Generated_Source\PSoC4/CapSense_1.c **** * 
2068:.\Generated_Source\PSoC4/CapSense_1.c **** * Side Effects:
2069:.\Generated_Source\PSoC4/CapSense_1.c **** *  None
2070:.\Generated_Source\PSoC4/CapSense_1.c **** *
2071:.\Generated_Source\PSoC4/CapSense_1.c **** *******************************************************************************/
2072:.\Generated_Source\PSoC4/CapSense_1.c **** uint32 CapSense_1_GetIDACRange(void)
2073:.\Generated_Source\PSoC4/CapSense_1.c **** {
 2171              		.loc 1 2073 0
 2172              		.cfi_startproc
 2173 0000 80B5     		push	{r7, lr}
 2174              		.cfi_def_cfa_offset 8
 2175              		.cfi_offset 7, -8
 2176              		.cfi_offset 14, -4
 2177 0002 00AF     		add	r7, sp, #0
 2178              		.cfi_def_cfa_register 7
2074:.\Generated_Source\PSoC4/CapSense_1.c **** 	return((0u != (CapSense_1_CSD_IDAC_REG & CapSense_1_CSD_IDAC1_RANGE_8X)) ? 1uL : 0uL);
 2179              		.loc 1 2074 0
 2180 0004 054B     		ldr	r3, .L118
 2181 0006 1A68     		ldr	r2, [r3]
 2182 0008 8023     		mov	r3, #128
 2183 000a DB00     		lsl	r3, r3, #3
 2184 000c 1340     		and	r3, r2
 2185 000e 01D0     		beq	.L115
 2186              		.loc 1 2074 0 is_stmt 0 discriminator 1
 2187 0010 0123     		mov	r3, #1
 2188 0012 00E0     		b	.L116
ARM GAS  C:\Users\mitchell\AppData\Local\Temp\cc5pMFOa.s 			page 76


 2189              	.L115:
 2190              		.loc 1 2074 0 discriminator 2
 2191 0014 0023     		mov	r3, #0
 2192              	.L116:
2075:.\Generated_Source\PSoC4/CapSense_1.c **** }
 2193              		.loc 1 2075 0 is_stmt 1 discriminator 3
 2194 0016 181C     		mov	r0, r3
 2195 0018 BD46     		mov	sp, r7
 2196              		@ sp needed
 2197 001a 80BD     		pop	{r7, pc}
 2198              	.L119:
 2199              		.align	2
 2200              	.L118:
 2201 001c 08000840 		.word	1074266120
 2202              		.cfi_endproc
 2203              	.LFE62:
 2204              		.size	CapSense_1_GetIDACRange, .-CapSense_1_GetIDACRange
 2205              		.section	.text.CapSense_1_SetUnscannedSensorState,"ax",%progbits
 2206              		.align	2
 2207              		.global	CapSense_1_SetUnscannedSensorState
 2208              		.code	16
 2209              		.thumb_func
 2210              		.type	CapSense_1_SetUnscannedSensorState, %function
 2211              	CapSense_1_SetUnscannedSensorState:
 2212              	.LFB63:
2076:.\Generated_Source\PSoC4/CapSense_1.c **** 
2077:.\Generated_Source\PSoC4/CapSense_1.c **** #if (CapSense_1_TUNING_METHOD != CapSense_1__TUNING_NONE)
2078:.\Generated_Source\PSoC4/CapSense_1.c **** 	/*******************************************************************************
2079:.\Generated_Source\PSoC4/CapSense_1.c **** 	* Function Name: CapSense_1_SetIDACRange
2080:.\Generated_Source\PSoC4/CapSense_1.c **** 	********************************************************************************
2081:.\Generated_Source\PSoC4/CapSense_1.c **** 	*
2082:.\Generated_Source\PSoC4/CapSense_1.c **** 	* Summary:
2083:.\Generated_Source\PSoC4/CapSense_1.c **** 	*  This API sets the IDAC range to the 4x (1.2uA/bit) or 8x (2.4uA/bit) mode.
2084:.\Generated_Source\PSoC4/CapSense_1.c ****     *  The IDAC range is common for all the sensors and common for the modulation and 
2085:.\Generated_Source\PSoC4/CapSense_1.c **** 	*  compensation IDACs.
2086:.\Generated_Source\PSoC4/CapSense_1.c **** 	*
2087:.\Generated_Source\PSoC4/CapSense_1.c **** 	* Parameters:
2088:.\Generated_Source\PSoC4/CapSense_1.c **** 	*  iDacRange:  represents value for IDAC range 
2089:.\Generated_Source\PSoC4/CapSense_1.c **** 	*  0 -  IDAC range set to 4x (1.2uA/bit)
2090:.\Generated_Source\PSoC4/CapSense_1.c **** 	*  1 or >1 - IDAC range set to 8x (2.4uA/bit)
2091:.\Generated_Source\PSoC4/CapSense_1.c **** 	*
2092:.\Generated_Source\PSoC4/CapSense_1.c **** 	* Return:
2093:.\Generated_Source\PSoC4/CapSense_1.c **** 	*  None.
2094:.\Generated_Source\PSoC4/CapSense_1.c **** 	*
2095:.\Generated_Source\PSoC4/CapSense_1.c **** 	* Global Variables:
2096:.\Generated_Source\PSoC4/CapSense_1.c **** 	*  None
2097:.\Generated_Source\PSoC4/CapSense_1.c **** 	* 
2098:.\Generated_Source\PSoC4/CapSense_1.c **** 	* Side Effects:
2099:.\Generated_Source\PSoC4/CapSense_1.c **** 	*  None
2100:.\Generated_Source\PSoC4/CapSense_1.c **** 	*
2101:.\Generated_Source\PSoC4/CapSense_1.c **** 	*******************************************************************************/
2102:.\Generated_Source\PSoC4/CapSense_1.c **** 	void CapSense_1_SetIDACRange(uint32 iDacRange)
2103:.\Generated_Source\PSoC4/CapSense_1.c **** 	{
2104:.\Generated_Source\PSoC4/CapSense_1.c **** 	    if(iDacRange != 0u)
2105:.\Generated_Source\PSoC4/CapSense_1.c **** 		{
2106:.\Generated_Source\PSoC4/CapSense_1.c **** 		    /*  IDAC range = 8x (2.4uA/bit) */ 
2107:.\Generated_Source\PSoC4/CapSense_1.c **** 		    CapSense_1_CSD_IDAC_REG |= (CapSense_1_CSD_IDAC1_RANGE_8X |\
ARM GAS  C:\Users\mitchell\AppData\Local\Temp\cc5pMFOa.s 			page 77


2108:.\Generated_Source\PSoC4/CapSense_1.c **** 											  CapSense_1_CSD_IDAC2_RANGE_8X);
2109:.\Generated_Source\PSoC4/CapSense_1.c **** 		}
2110:.\Generated_Source\PSoC4/CapSense_1.c **** 		else
2111:.\Generated_Source\PSoC4/CapSense_1.c **** 		{
2112:.\Generated_Source\PSoC4/CapSense_1.c **** 		    /*  IDAC range = 4x (1.2uA/bit) */ 
2113:.\Generated_Source\PSoC4/CapSense_1.c **** 		    /*  IDAC range = 8x (2.4uA/bit) */ 
2114:.\Generated_Source\PSoC4/CapSense_1.c **** 		    CapSense_1_CSD_IDAC_REG &= ~(CapSense_1_CSD_IDAC1_RANGE_8X |\
2115:.\Generated_Source\PSoC4/CapSense_1.c **** 											   CapSense_1_CSD_IDAC2_RANGE_8X);
2116:.\Generated_Source\PSoC4/CapSense_1.c **** 		}
2117:.\Generated_Source\PSoC4/CapSense_1.c **** 	}
2118:.\Generated_Source\PSoC4/CapSense_1.c **** #endif /* (CapSense_1_TUNING_METHOD != CapSense_1__TUNING_NONE) */
2119:.\Generated_Source\PSoC4/CapSense_1.c **** 
2120:.\Generated_Source\PSoC4/CapSense_1.c **** 
2121:.\Generated_Source\PSoC4/CapSense_1.c **** #if((0u != CapSense_1_AUTOCALIBRATION_ENABLE) || (CapSense_1_TUNING_METHOD == CapSense_1__TUNING_AU
2122:.\Generated_Source\PSoC4/CapSense_1.c **** 	/*******************************************************************************
2123:.\Generated_Source\PSoC4/CapSense_1.c **** 	* Function Name: CapSense_1_GetSensorRaw
2124:.\Generated_Source\PSoC4/CapSense_1.c **** 	********************************************************************************
2125:.\Generated_Source\PSoC4/CapSense_1.c **** 	*
2126:.\Generated_Source\PSoC4/CapSense_1.c **** 	* Summary:
2127:.\Generated_Source\PSoC4/CapSense_1.c **** 	*  The API updates and gets uprated raw data from the sensor.
2128:.\Generated_Source\PSoC4/CapSense_1.c **** 	*
2129:.\Generated_Source\PSoC4/CapSense_1.c **** 	* Parameters:
2130:.\Generated_Source\PSoC4/CapSense_1.c **** 	*  sensor - Sensor number.
2131:.\Generated_Source\PSoC4/CapSense_1.c **** 	*
2132:.\Generated_Source\PSoC4/CapSense_1.c **** 	* Return:
2133:.\Generated_Source\PSoC4/CapSense_1.c **** 	*  Returns the current raw data value for a defined sensor number.
2134:.\Generated_Source\PSoC4/CapSense_1.c **** 	*
2135:.\Generated_Source\PSoC4/CapSense_1.c **** 	* Global Variables:
2136:.\Generated_Source\PSoC4/CapSense_1.c **** 	*  None
2137:.\Generated_Source\PSoC4/CapSense_1.c **** 	*
2138:.\Generated_Source\PSoC4/CapSense_1.c **** 	* Side Effects:
2139:.\Generated_Source\PSoC4/CapSense_1.c **** 	*  None
2140:.\Generated_Source\PSoC4/CapSense_1.c **** 	*
2141:.\Generated_Source\PSoC4/CapSense_1.c **** 	*******************************************************************************/
2142:.\Generated_Source\PSoC4/CapSense_1.c **** 	uint16  CapSense_1_GetSensorRaw(uint32 sensor)
2143:.\Generated_Source\PSoC4/CapSense_1.c **** 	{
2144:.\Generated_Source\PSoC4/CapSense_1.c **** 		uint32 curSample;
2145:.\Generated_Source\PSoC4/CapSense_1.c **** 		uint32 avgVal = 0u;
2146:.\Generated_Source\PSoC4/CapSense_1.c **** 		
2147:.\Generated_Source\PSoC4/CapSense_1.c **** 		for(curSample = 0u; curSample < CapSense_1_AVG_SAMPLES_NUM; curSample++)
2148:.\Generated_Source\PSoC4/CapSense_1.c **** 		{
2149:.\Generated_Source\PSoC4/CapSense_1.c **** 	    
2150:.\Generated_Source\PSoC4/CapSense_1.c **** 			CapSense_1_ScanSensor((uint32)sensor);
2151:.\Generated_Source\PSoC4/CapSense_1.c **** 		    while(CapSense_1_IsBusy() == 1u)
2152:.\Generated_Source\PSoC4/CapSense_1.c **** 			{
2153:.\Generated_Source\PSoC4/CapSense_1.c **** 				/* Wait while sensor is busy */
2154:.\Generated_Source\PSoC4/CapSense_1.c **** 			}
2155:.\Generated_Source\PSoC4/CapSense_1.c **** 			avgVal += CapSense_1_ReadSensorRaw((uint32)sensor);
2156:.\Generated_Source\PSoC4/CapSense_1.c **** 		}
2157:.\Generated_Source\PSoC4/CapSense_1.c **** 	    
2158:.\Generated_Source\PSoC4/CapSense_1.c **** 	    return((uint16)(avgVal / CapSense_1_AVG_SAMPLES_NUM));
2159:.\Generated_Source\PSoC4/CapSense_1.c **** 	}
2160:.\Generated_Source\PSoC4/CapSense_1.c **** #endif /* ((0u != CapSense_1_AUTOCALIBRATION_ENABLE) && (CapSense_1_TUNING_METHOD == CapSense_1__TU
2161:.\Generated_Source\PSoC4/CapSense_1.c **** 
2162:.\Generated_Source\PSoC4/CapSense_1.c **** 
2163:.\Generated_Source\PSoC4/CapSense_1.c **** #if((0u != CapSense_1_AUTOCALIBRATION_ENABLE) && (CapSense_1_TUNING_METHOD != CapSense_1__TUNING_AU
2164:.\Generated_Source\PSoC4/CapSense_1.c **** 	/*******************************************************************************
ARM GAS  C:\Users\mitchell\AppData\Local\Temp\cc5pMFOa.s 			page 78


2165:.\Generated_Source\PSoC4/CapSense_1.c **** 	* Function Name: CapSense_1_CalibrateSensor
2166:.\Generated_Source\PSoC4/CapSense_1.c **** 	********************************************************************************
2167:.\Generated_Source\PSoC4/CapSense_1.c **** 	*
2168:.\Generated_Source\PSoC4/CapSense_1.c **** 	* Summary:
2169:.\Generated_Source\PSoC4/CapSense_1.c **** 	*  Computes the one sensor IDAC value, which provides the raw signal on
2170:.\Generated_Source\PSoC4/CapSense_1.c **** 	*  a specified level, with a specified prescaler, speed, and resolution.
2171:.\Generated_Source\PSoC4/CapSense_1.c **** 	*
2172:.\Generated_Source\PSoC4/CapSense_1.c **** 	* Parameters:
2173:.\Generated_Source\PSoC4/CapSense_1.c **** 	*  sensor - Sensor Number.
2174:.\Generated_Source\PSoC4/CapSense_1.c **** 	*
2175:.\Generated_Source\PSoC4/CapSense_1.c **** 	*  rawLevel -  Raw data level which should be reached during the calibration
2176:.\Generated_Source\PSoC4/CapSense_1.c **** 	*              procedure.
2177:.\Generated_Source\PSoC4/CapSense_1.c **** 	*
2178:.\Generated_Source\PSoC4/CapSense_1.c **** 	*  idacLevelsTbl - Pointer to the modulatorIdac data register configuration table.            
2179:.\Generated_Source\PSoC4/CapSense_1.c **** 	*
2180:.\Generated_Source\PSoC4/CapSense_1.c **** 	* Return:       
2181:.\Generated_Source\PSoC4/CapSense_1.c **** 	*  None
2182:.\Generated_Source\PSoC4/CapSense_1.c **** 	*
2183:.\Generated_Source\PSoC4/CapSense_1.c **** 	*******************************************************************************/
2184:.\Generated_Source\PSoC4/CapSense_1.c **** 	void CapSense_1_CalibrateSensor(uint32 sensor, uint32 rawLevel, uint8 idacLevelsTbl[])
2185:.\Generated_Source\PSoC4/CapSense_1.c **** 	{
2186:.\Generated_Source\PSoC4/CapSense_1.c **** 		uint8 mask;
2187:.\Generated_Source\PSoC4/CapSense_1.c **** 		uint16 rawData;
2188:.\Generated_Source\PSoC4/CapSense_1.c **** 		
2189:.\Generated_Source\PSoC4/CapSense_1.c **** 		rawData = 0u;
2190:.\Generated_Source\PSoC4/CapSense_1.c **** 		
2191:.\Generated_Source\PSoC4/CapSense_1.c **** 		mask = 0x80u;
2192:.\Generated_Source\PSoC4/CapSense_1.c **** 		/* Init IDAC for null Channel */
2193:.\Generated_Source\PSoC4/CapSense_1.c **** 		idacLevelsTbl[sensor] = 0x00u;
2194:.\Generated_Source\PSoC4/CapSense_1.c **** 		
2195:.\Generated_Source\PSoC4/CapSense_1.c **** 		do
2196:.\Generated_Source\PSoC4/CapSense_1.c **** 		{
2197:.\Generated_Source\PSoC4/CapSense_1.c **** 		    /* Set bit for null Channel */
2198:.\Generated_Source\PSoC4/CapSense_1.c **** 			idacLevelsTbl[sensor] |= mask;
2199:.\Generated_Source\PSoC4/CapSense_1.c **** 
2200:.\Generated_Source\PSoC4/CapSense_1.c **** 	        /* Scan null Channel and get Rawdata */
2201:.\Generated_Source\PSoC4/CapSense_1.c **** 			rawData = CapSense_1_GetSensorRaw(sensor);
2202:.\Generated_Source\PSoC4/CapSense_1.c **** 			
2203:.\Generated_Source\PSoC4/CapSense_1.c **** 			/* Decrease IDAC until Rawdata reaches rawLevel */ 
2204:.\Generated_Source\PSoC4/CapSense_1.c **** 			if(rawData < rawLevel)
2205:.\Generated_Source\PSoC4/CapSense_1.c **** 			{
2206:.\Generated_Source\PSoC4/CapSense_1.c **** 			    /* Reset bit for null Channel  */ 
2207:.\Generated_Source\PSoC4/CapSense_1.c **** 				idacLevelsTbl[sensor] &= (uint8)~mask;
2208:.\Generated_Source\PSoC4/CapSense_1.c **** 			}
2209:.\Generated_Source\PSoC4/CapSense_1.c **** 			
2210:.\Generated_Source\PSoC4/CapSense_1.c **** 			mask >>= 1u;
2211:.\Generated_Source\PSoC4/CapSense_1.c **** 		}
2212:.\Generated_Source\PSoC4/CapSense_1.c **** 		while(mask > 0u);
2213:.\Generated_Source\PSoC4/CapSense_1.c **** 		
2214:.\Generated_Source\PSoC4/CapSense_1.c **** 	}
2215:.\Generated_Source\PSoC4/CapSense_1.c **** #endif /* ((0u != CapSense_1_AUTOCALIBRATION_ENABLE) && (CapSense_1_TUNING_METHOD != CapSense_1__TU
2216:.\Generated_Source\PSoC4/CapSense_1.c **** 
2217:.\Generated_Source\PSoC4/CapSense_1.c **** 
2218:.\Generated_Source\PSoC4/CapSense_1.c **** /*******************************************************************************
2219:.\Generated_Source\PSoC4/CapSense_1.c **** * Function Name: CapSense_1_SetUnscannedSensorState
2220:.\Generated_Source\PSoC4/CapSense_1.c **** ********************************************************************************
2221:.\Generated_Source\PSoC4/CapSense_1.c **** *
ARM GAS  C:\Users\mitchell\AppData\Local\Temp\cc5pMFOa.s 			page 79


2222:.\Generated_Source\PSoC4/CapSense_1.c **** * Summary:
2223:.\Generated_Source\PSoC4/CapSense_1.c **** *  This API sets a state for un-scanned sensors. 
2224:.\Generated_Source\PSoC4/CapSense_1.c **** *  It is possible to set the state to Ground, High-Z, or the shield electrode. 
2225:.\Generated_Source\PSoC4/CapSense_1.c **** *  The un-scanned sensor can be connected to a shield electrode only if the shield is 
2226:.\Generated_Source\PSoC4/CapSense_1.c **** *  enabled. If the shield is disabled and this API is called with the parameter which
2227:.\Generated_Source\PSoC4/CapSense_1.c **** *  indicates the shield state, the un-scanned sensor will be connected to Ground.
2228:.\Generated_Source\PSoC4/CapSense_1.c **** *
2229:.\Generated_Source\PSoC4/CapSense_1.c **** * Parameters:
2230:.\Generated_Source\PSoC4/CapSense_1.c **** *  sensor - Sensor Number.
2231:.\Generated_Source\PSoC4/CapSense_1.c **** *  sensorState: This parameter indicates un-scanned sensor state:
2232:.\Generated_Source\PSoC4/CapSense_1.c **** *
2233:.\Generated_Source\PSoC4/CapSense_1.c **** *     CapSense_1__GROUND 0
2234:.\Generated_Source\PSoC4/CapSense_1.c **** *     CapSense_1__HIZ_ANALOG 1
2235:.\Generated_Source\PSoC4/CapSense_1.c **** *     CapSense_1__SHIELD 2
2236:.\Generated_Source\PSoC4/CapSense_1.c **** *
2237:.\Generated_Source\PSoC4/CapSense_1.c **** * Return:
2238:.\Generated_Source\PSoC4/CapSense_1.c **** *  None.
2239:.\Generated_Source\PSoC4/CapSense_1.c **** *
2240:.\Generated_Source\PSoC4/CapSense_1.c **** * Global Variables:
2241:.\Generated_Source\PSoC4/CapSense_1.c **** *  CapSense_1_unscannedSnsDriveMode[] - used to store the state for
2242:.\Generated_Source\PSoC4/CapSense_1.c **** *  un-scanned sensors.
2243:.\Generated_Source\PSoC4/CapSense_1.c **** * 
2244:.\Generated_Source\PSoC4/CapSense_1.c **** * Side Effects:
2245:.\Generated_Source\PSoC4/CapSense_1.c **** *  None
2246:.\Generated_Source\PSoC4/CapSense_1.c **** *
2247:.\Generated_Source\PSoC4/CapSense_1.c **** *******************************************************************************/
2248:.\Generated_Source\PSoC4/CapSense_1.c **** void CapSense_1_SetUnscannedSensorState(uint32 sensor, uint32 sensorState)
2249:.\Generated_Source\PSoC4/CapSense_1.c **** {
 2213              		.loc 1 2249 0
 2214              		.cfi_startproc
 2215 0000 80B5     		push	{r7, lr}
 2216              		.cfi_def_cfa_offset 8
 2217              		.cfi_offset 7, -8
 2218              		.cfi_offset 14, -4
 2219 0002 82B0     		sub	sp, sp, #8
 2220              		.cfi_def_cfa_offset 16
 2221 0004 00AF     		add	r7, sp, #0
 2222              		.cfi_def_cfa_register 7
 2223 0006 7860     		str	r0, [r7, #4]
 2224 0008 3960     		str	r1, [r7]
2250:.\Generated_Source\PSoC4/CapSense_1.c ****     CapSense_1_unscannedSnsDriveMode[sensor] = (uint8)sensorState;	
 2225              		.loc 1 2250 0
 2226 000a 3B68     		ldr	r3, [r7]
 2227 000c DAB2     		uxtb	r2, r3
 2228 000e 0349     		ldr	r1, .L121
 2229 0010 7B68     		ldr	r3, [r7, #4]
 2230 0012 CB18     		add	r3, r1, r3
 2231 0014 1A70     		strb	r2, [r3]
2251:.\Generated_Source\PSoC4/CapSense_1.c **** }
 2232              		.loc 1 2251 0
 2233 0016 BD46     		mov	sp, r7
 2234 0018 02B0     		add	sp, sp, #8
 2235              		@ sp needed
 2236 001a 80BD     		pop	{r7, pc}
 2237              	.L122:
 2238              		.align	2
 2239              	.L121:
ARM GAS  C:\Users\mitchell\AppData\Local\Temp\cc5pMFOa.s 			page 80


 2240 001c 00000000 		.word	CapSense_1_unscannedSnsDriveMode
 2241              		.cfi_endproc
 2242              	.LFE63:
 2243              		.size	CapSense_1_SetUnscannedSensorState, .-CapSense_1_SetUnscannedSensorState
 2244              		.section	.text.CapSense_1_NormalizeWidgets,"ax",%progbits
 2245              		.align	2
 2246              		.global	CapSense_1_NormalizeWidgets
 2247              		.code	16
 2248              		.thumb_func
 2249              		.type	CapSense_1_NormalizeWidgets, %function
 2250              	CapSense_1_NormalizeWidgets:
 2251              	.LFB64:
2252:.\Generated_Source\PSoC4/CapSense_1.c **** 
2253:.\Generated_Source\PSoC4/CapSense_1.c **** #if(0u != CapSense_1_TOTAL_CENTROIDS_COUNT) 
2254:.\Generated_Source\PSoC4/CapSense_1.c **** /*******************************************************************************
2255:.\Generated_Source\PSoC4/CapSense_1.c **** * Function Name: CapSense_1_NormalizeWidgets
2256:.\Generated_Source\PSoC4/CapSense_1.c **** ********************************************************************************
2257:.\Generated_Source\PSoC4/CapSense_1.c **** *
2258:.\Generated_Source\PSoC4/CapSense_1.c **** * Summary:
2259:.\Generated_Source\PSoC4/CapSense_1.c **** *  This API aligns all the parameters of the widget to the maximum parameter.
2260:.\Generated_Source\PSoC4/CapSense_1.c **** *
2261:.\Generated_Source\PSoC4/CapSense_1.c **** * Parameters:
2262:.\Generated_Source\PSoC4/CapSense_1.c **** *  uint32 widgetsNum: Number of widgets.
2263:.\Generated_Source\PSoC4/CapSense_1.c **** *  uint8 *dataPrt: pointer to array with widget parameters.	
2264:.\Generated_Source\PSoC4/CapSense_1.c **** *
2265:.\Generated_Source\PSoC4/CapSense_1.c **** * Return:
2266:.\Generated_Source\PSoC4/CapSense_1.c **** *  None
2267:.\Generated_Source\PSoC4/CapSense_1.c **** *
2268:.\Generated_Source\PSoC4/CapSense_1.c **** * Global Variables:
2269:.\Generated_Source\PSoC4/CapSense_1.c **** *  CapSense_1_numberOfSensors[] - Number of sensors in the widget.
2270:.\Generated_Source\PSoC4/CapSense_1.c **** *  CapSense_1_rawDataIndex[currentWidget] - Contains the  1st sensor
2271:.\Generated_Source\PSoC4/CapSense_1.c **** *  position in the widget.
2272:.\Generated_Source\PSoC4/CapSense_1.c **** *
2273:.\Generated_Source\PSoC4/CapSense_1.c **** * Side Effects:
2274:.\Generated_Source\PSoC4/CapSense_1.c **** *  None
2275:.\Generated_Source\PSoC4/CapSense_1.c **** *
2276:.\Generated_Source\PSoC4/CapSense_1.c **** *******************************************************************************/
2277:.\Generated_Source\PSoC4/CapSense_1.c **** void CapSense_1_NormalizeWidgets(uint32 widgetsNum, uint8 *dataPtr)
2278:.\Generated_Source\PSoC4/CapSense_1.c **** {
 2252              		.loc 1 2278 0
 2253              		.cfi_startproc
 2254 0000 80B5     		push	{r7, lr}
 2255              		.cfi_def_cfa_offset 8
 2256              		.cfi_offset 7, -8
 2257              		.cfi_offset 14, -4
 2258 0002 88B0     		sub	sp, sp, #32
 2259              		.cfi_def_cfa_offset 40
 2260 0004 00AF     		add	r7, sp, #0
 2261              		.cfi_def_cfa_register 7
 2262 0006 7860     		str	r0, [r7, #4]
 2263 0008 3960     		str	r1, [r7]
2279:.\Generated_Source\PSoC4/CapSense_1.c **** 	uint32 currentWidget;
2280:.\Generated_Source\PSoC4/CapSense_1.c **** 	uint32 currentSensor;
2281:.\Generated_Source\PSoC4/CapSense_1.c **** 	uint32 lastSensor;
2282:.\Generated_Source\PSoC4/CapSense_1.c **** 	uint32 sensorsPerWidget;
2283:.\Generated_Source\PSoC4/CapSense_1.c **** 	uint32 maxPerWidget;
2284:.\Generated_Source\PSoC4/CapSense_1.c **** 
ARM GAS  C:\Users\mitchell\AppData\Local\Temp\cc5pMFOa.s 			page 81


2285:.\Generated_Source\PSoC4/CapSense_1.c **** 	for(currentWidget = 0u; currentWidget < widgetsNum; currentWidget++)
 2264              		.loc 1 2285 0
 2265 000a 0023     		mov	r3, #0
 2266 000c FB61     		str	r3, [r7, #28]
 2267 000e 3AE0     		b	.L124
 2268              	.L130:
2286:.\Generated_Source\PSoC4/CapSense_1.c **** 	{
2287:.\Generated_Source\PSoC4/CapSense_1.c **** 		maxPerWidget = 0u;
 2269              		.loc 1 2287 0
 2270 0010 0023     		mov	r3, #0
 2271 0012 7B61     		str	r3, [r7, #20]
2288:.\Generated_Source\PSoC4/CapSense_1.c **** 		
2289:.\Generated_Source\PSoC4/CapSense_1.c **** 		sensorsPerWidget = CapSense_1_numberOfSensors[currentWidget];
 2272              		.loc 1 2289 0
 2273 0014 1F4A     		ldr	r2, .L131
 2274 0016 FB69     		ldr	r3, [r7, #28]
 2275 0018 D318     		add	r3, r2, r3
 2276 001a 1B78     		ldrb	r3, [r3]
 2277 001c 3B61     		str	r3, [r7, #16]
2290:.\Generated_Source\PSoC4/CapSense_1.c **** 		currentSensor = CapSense_1_rawDataIndex[currentWidget];
 2278              		.loc 1 2290 0
 2279 001e 1E4A     		ldr	r2, .L131+4
 2280 0020 FB69     		ldr	r3, [r7, #28]
 2281 0022 D318     		add	r3, r2, r3
 2282 0024 1B78     		ldrb	r3, [r3]
 2283 0026 BB61     		str	r3, [r7, #24]
2291:.\Generated_Source\PSoC4/CapSense_1.c **** 		lastSensor = currentSensor + sensorsPerWidget;
 2284              		.loc 1 2291 0
 2285 0028 BA69     		ldr	r2, [r7, #24]
 2286 002a 3B69     		ldr	r3, [r7, #16]
 2287 002c D318     		add	r3, r2, r3
 2288 002e FB60     		str	r3, [r7, #12]
2292:.\Generated_Source\PSoC4/CapSense_1.c **** 		
2293:.\Generated_Source\PSoC4/CapSense_1.c **** 		while(currentSensor < lastSensor)
 2289              		.loc 1 2293 0
 2290 0030 0FE0     		b	.L125
 2291              	.L127:
2294:.\Generated_Source\PSoC4/CapSense_1.c **** 		{
2295:.\Generated_Source\PSoC4/CapSense_1.c **** 			if(maxPerWidget < dataPtr[currentSensor])
 2292              		.loc 1 2295 0
 2293 0032 3A68     		ldr	r2, [r7]
 2294 0034 BB69     		ldr	r3, [r7, #24]
 2295 0036 D318     		add	r3, r2, r3
 2296 0038 1B78     		ldrb	r3, [r3]
 2297 003a 1A1C     		mov	r2, r3
 2298 003c 7B69     		ldr	r3, [r7, #20]
 2299 003e 9A42     		cmp	r2, r3
 2300 0040 04D9     		bls	.L126
2296:.\Generated_Source\PSoC4/CapSense_1.c **** 			{
2297:.\Generated_Source\PSoC4/CapSense_1.c **** 				maxPerWidget = dataPtr[currentSensor];
 2301              		.loc 1 2297 0
 2302 0042 3A68     		ldr	r2, [r7]
 2303 0044 BB69     		ldr	r3, [r7, #24]
 2304 0046 D318     		add	r3, r2, r3
 2305 0048 1B78     		ldrb	r3, [r3]
 2306 004a 7B61     		str	r3, [r7, #20]
 2307              	.L126:
ARM GAS  C:\Users\mitchell\AppData\Local\Temp\cc5pMFOa.s 			page 82


2298:.\Generated_Source\PSoC4/CapSense_1.c **** 			}
2299:.\Generated_Source\PSoC4/CapSense_1.c **** 			currentSensor++;
 2308              		.loc 1 2299 0
 2309 004c BB69     		ldr	r3, [r7, #24]
 2310 004e 0133     		add	r3, r3, #1
 2311 0050 BB61     		str	r3, [r7, #24]
 2312              	.L125:
2293:.\Generated_Source\PSoC4/CapSense_1.c **** 		while(currentSensor < lastSensor)
 2313              		.loc 1 2293 0 discriminator 1
 2314 0052 BA69     		ldr	r2, [r7, #24]
 2315 0054 FB68     		ldr	r3, [r7, #12]
 2316 0056 9A42     		cmp	r2, r3
 2317 0058 EBD3     		bcc	.L127
2300:.\Generated_Source\PSoC4/CapSense_1.c **** 		}
2301:.\Generated_Source\PSoC4/CapSense_1.c **** 		
2302:.\Generated_Source\PSoC4/CapSense_1.c **** 		currentSensor = CapSense_1_rawDataIndex[currentWidget];
 2318              		.loc 1 2302 0
 2319 005a 0F4A     		ldr	r2, .L131+4
 2320 005c FB69     		ldr	r3, [r7, #28]
 2321 005e D318     		add	r3, r2, r3
 2322 0060 1B78     		ldrb	r3, [r3]
 2323 0062 BB61     		str	r3, [r7, #24]
2303:.\Generated_Source\PSoC4/CapSense_1.c **** 		
2304:.\Generated_Source\PSoC4/CapSense_1.c **** 		while(currentSensor < lastSensor)
 2324              		.loc 1 2304 0
 2325 0064 08E0     		b	.L128
 2326              	.L129:
2305:.\Generated_Source\PSoC4/CapSense_1.c **** 		{
2306:.\Generated_Source\PSoC4/CapSense_1.c **** 			dataPtr[currentSensor] = (uint8)maxPerWidget;
 2327              		.loc 1 2306 0
 2328 0066 3A68     		ldr	r2, [r7]
 2329 0068 BB69     		ldr	r3, [r7, #24]
 2330 006a D318     		add	r3, r2, r3
 2331 006c 7A69     		ldr	r2, [r7, #20]
 2332 006e D2B2     		uxtb	r2, r2
 2333 0070 1A70     		strb	r2, [r3]
2307:.\Generated_Source\PSoC4/CapSense_1.c **** 			currentSensor++;
 2334              		.loc 1 2307 0
 2335 0072 BB69     		ldr	r3, [r7, #24]
 2336 0074 0133     		add	r3, r3, #1
 2337 0076 BB61     		str	r3, [r7, #24]
 2338              	.L128:
2304:.\Generated_Source\PSoC4/CapSense_1.c **** 		while(currentSensor < lastSensor)
 2339              		.loc 1 2304 0 discriminator 1
 2340 0078 BA69     		ldr	r2, [r7, #24]
 2341 007a FB68     		ldr	r3, [r7, #12]
 2342 007c 9A42     		cmp	r2, r3
 2343 007e F2D3     		bcc	.L129
2285:.\Generated_Source\PSoC4/CapSense_1.c **** 	for(currentWidget = 0u; currentWidget < widgetsNum; currentWidget++)
 2344              		.loc 1 2285 0
 2345 0080 FB69     		ldr	r3, [r7, #28]
 2346 0082 0133     		add	r3, r3, #1
 2347 0084 FB61     		str	r3, [r7, #28]
 2348              	.L124:
2285:.\Generated_Source\PSoC4/CapSense_1.c **** 	for(currentWidget = 0u; currentWidget < widgetsNum; currentWidget++)
 2349              		.loc 1 2285 0 is_stmt 0 discriminator 1
 2350 0086 FA69     		ldr	r2, [r7, #28]
ARM GAS  C:\Users\mitchell\AppData\Local\Temp\cc5pMFOa.s 			page 83


 2351 0088 7B68     		ldr	r3, [r7, #4]
 2352 008a 9A42     		cmp	r2, r3
 2353 008c C0D3     		bcc	.L130
2308:.\Generated_Source\PSoC4/CapSense_1.c **** 		}
2309:.\Generated_Source\PSoC4/CapSense_1.c **** 	}
2310:.\Generated_Source\PSoC4/CapSense_1.c **** }
 2354              		.loc 1 2310 0 is_stmt 1
 2355 008e BD46     		mov	sp, r7
 2356 0090 08B0     		add	sp, sp, #32
 2357              		@ sp needed
 2358 0092 80BD     		pop	{r7, pc}
 2359              	.L132:
 2360              		.align	2
 2361              	.L131:
 2362 0094 00000000 		.word	CapSense_1_numberOfSensors
 2363 0098 00000000 		.word	CapSense_1_rawDataIndex
 2364              		.cfi_endproc
 2365              	.LFE64:
 2366              		.size	CapSense_1_NormalizeWidgets, .-CapSense_1_NormalizeWidgets
 2367              		.bss
 2368              	CapSense_1_initVar.5202:
 2369 000e 00       		.space	1
 2370 000f 00       		.text
 2371              	.Letext0:
 2372              		.file 2 ".\\Generated_Source\\PSoC4\\cytypes.h"
 2373              		.file 3 ".\\Generated_Source\\PSoC4\\CapSense_1_CSHL.h"
 2374              		.section	.debug_info,"",%progbits
 2375              	.Ldebug_info0:
 2376 0000 0C0A0000 		.4byte	0xa0c
 2377 0004 0400     		.2byte	0x4
 2378 0006 00000000 		.4byte	.Ldebug_abbrev0
 2379 000a 04       		.byte	0x4
 2380 000b 01       		.uleb128 0x1
 2381 000c 4F050000 		.4byte	.LASF104
 2382 0010 01       		.byte	0x1
 2383 0011 39080000 		.4byte	.LASF105
 2384 0015 9D010000 		.4byte	.LASF106
 2385 0019 00000000 		.4byte	.Ldebug_ranges0+0
 2386 001d 00000000 		.4byte	0
 2387 0021 00000000 		.4byte	.Ldebug_line0
 2388 0025 02       		.uleb128 0x2
 2389 0026 01       		.byte	0x1
 2390 0027 06       		.byte	0x6
 2391 0028 E9000000 		.4byte	.LASF0
 2392 002c 02       		.uleb128 0x2
 2393 002d 01       		.byte	0x1
 2394 002e 08       		.byte	0x8
 2395 002f EE050000 		.4byte	.LASF1
 2396 0033 02       		.uleb128 0x2
 2397 0034 02       		.byte	0x2
 2398 0035 05       		.byte	0x5
 2399 0036 17060000 		.4byte	.LASF2
 2400 003a 02       		.uleb128 0x2
 2401 003b 02       		.byte	0x2
 2402 003c 07       		.byte	0x7
 2403 003d 69030000 		.4byte	.LASF3
 2404 0041 02       		.uleb128 0x2
ARM GAS  C:\Users\mitchell\AppData\Local\Temp\cc5pMFOa.s 			page 84


 2405 0042 04       		.byte	0x4
 2406 0043 05       		.byte	0x5
 2407 0044 59010000 		.4byte	.LASF4
 2408 0048 02       		.uleb128 0x2
 2409 0049 04       		.byte	0x4
 2410 004a 07       		.byte	0x7
 2411 004b 40030000 		.4byte	.LASF5
 2412 004f 02       		.uleb128 0x2
 2413 0050 08       		.byte	0x8
 2414 0051 05       		.byte	0x5
 2415 0052 DB000000 		.4byte	.LASF6
 2416 0056 02       		.uleb128 0x2
 2417 0057 08       		.byte	0x8
 2418 0058 07       		.byte	0x7
 2419 0059 92000000 		.4byte	.LASF7
 2420 005d 03       		.uleb128 0x3
 2421 005e 04       		.byte	0x4
 2422 005f 05       		.byte	0x5
 2423 0060 696E7400 		.ascii	"int\000"
 2424 0064 02       		.uleb128 0x2
 2425 0065 04       		.byte	0x4
 2426 0066 07       		.byte	0x7
 2427 0067 CD020000 		.4byte	.LASF8
 2428 006b 04       		.uleb128 0x4
 2429 006c 97010000 		.4byte	.LASF9
 2430 0070 02       		.byte	0x2
 2431 0071 C1       		.byte	0xc1
 2432 0072 2C000000 		.4byte	0x2c
 2433 0076 04       		.uleb128 0x4
 2434 0077 0A000000 		.4byte	.LASF10
 2435 007b 02       		.byte	0x2
 2436 007c C2       		.byte	0xc2
 2437 007d 3A000000 		.4byte	0x3a
 2438 0081 04       		.uleb128 0x4
 2439 0082 5C020000 		.4byte	.LASF11
 2440 0086 02       		.byte	0x2
 2441 0087 C3       		.byte	0xc3
 2442 0088 48000000 		.4byte	0x48
 2443 008c 02       		.uleb128 0x2
 2444 008d 04       		.byte	0x4
 2445 008e 04       		.byte	0x4
 2446 008f 49050000 		.4byte	.LASF12
 2447 0093 02       		.uleb128 0x2
 2448 0094 08       		.byte	0x8
 2449 0095 04       		.byte	0x4
 2450 0096 1C020000 		.4byte	.LASF13
 2451 009a 02       		.uleb128 0x2
 2452 009b 01       		.byte	0x1
 2453 009c 08       		.byte	0x8
 2454 009d 99060000 		.4byte	.LASF14
 2455 00a1 05       		.uleb128 0x5
 2456 00a2 D5050000 		.4byte	.LASF15
 2457 00a6 02       		.byte	0x2
 2458 00a7 6B01     		.2byte	0x16b
 2459 00a9 AD000000 		.4byte	0xad
 2460 00ad 06       		.uleb128 0x6
 2461 00ae 6B000000 		.4byte	0x6b
ARM GAS  C:\Users\mitchell\AppData\Local\Temp\cc5pMFOa.s 			page 85


 2462 00b2 05       		.uleb128 0x5
 2463 00b3 10040000 		.4byte	.LASF16
 2464 00b7 02       		.byte	0x2
 2465 00b8 6D01     		.2byte	0x16d
 2466 00ba BE000000 		.4byte	0xbe
 2467 00be 06       		.uleb128 0x6
 2468 00bf 81000000 		.4byte	0x81
 2469 00c3 02       		.uleb128 0x2
 2470 00c4 04       		.byte	0x4
 2471 00c5 07       		.byte	0x7
 2472 00c6 68040000 		.4byte	.LASF17
 2473 00ca 07       		.uleb128 0x7
 2474 00cb 04       		.byte	0x4
 2475 00cc 6B000000 		.4byte	0x6b
 2476 00d0 07       		.uleb128 0x7
 2477 00d1 04       		.byte	0x4
 2478 00d2 D6000000 		.4byte	0xd6
 2479 00d6 08       		.uleb128 0x8
 2480 00d7 6B000000 		.4byte	0x6b
 2481 00db 09       		.uleb128 0x9
 2482 00dc 23020000 		.4byte	.LASF18
 2483 00e0 01       		.byte	0x1
 2484 00e1 C2       		.byte	0xc2
 2485 00e2 00000000 		.4byte	.LFB33
 2486 00e6 3C000000 		.4byte	.LFE33-.LFB33
 2487 00ea 01       		.uleb128 0x1
 2488 00eb 9C       		.byte	0x9c
 2489 00ec FF000000 		.4byte	0xff
 2490 00f0 0A       		.uleb128 0xa
 2491 00f1 00000000 		.4byte	.LASF20
 2492 00f5 01       		.byte	0x1
 2493 00f6 C4       		.byte	0xc4
 2494 00f7 81000000 		.4byte	0x81
 2495 00fb 02       		.uleb128 0x2
 2496 00fc 91       		.byte	0x91
 2497 00fd 74       		.sleb128 -12
 2498 00fe 00       		.byte	0
 2499 00ff 0B       		.uleb128 0xb
 2500 0100 9A030000 		.4byte	.LASF19
 2501 0104 01       		.byte	0x1
 2502 0105 0301     		.2byte	0x103
 2503 0107 00000000 		.4byte	.LFB34
 2504 010b CC000000 		.4byte	.LFE34-.LFB34
 2505 010f 01       		.uleb128 0x1
 2506 0110 9C       		.byte	0x9c
 2507 0111 25010000 		.4byte	0x125
 2508 0115 0C       		.uleb128 0xc
 2509 0116 50020000 		.4byte	.LASF21
 2510 011a 01       		.byte	0x1
 2511 011b 0501     		.2byte	0x105
 2512 011d 81000000 		.4byte	0x81
 2513 0121 02       		.uleb128 0x2
 2514 0122 91       		.byte	0x91
 2515 0123 74       		.sleb128 -12
 2516 0124 00       		.byte	0
 2517 0125 0B       		.uleb128 0xb
 2518 0126 D4070000 		.4byte	.LASF22
ARM GAS  C:\Users\mitchell\AppData\Local\Temp\cc5pMFOa.s 			page 86


 2519 012a 01       		.byte	0x1
 2520 012b 5801     		.2byte	0x158
 2521 012d 00000000 		.4byte	.LFB35
 2522 0131 50000000 		.4byte	.LFE35-.LFB35
 2523 0135 01       		.uleb128 0x1
 2524 0136 9C       		.byte	0x9c
 2525 0137 4B010000 		.4byte	0x14b
 2526 013b 0C       		.uleb128 0xc
 2527 013c 50020000 		.4byte	.LASF21
 2528 0140 01       		.byte	0x1
 2529 0141 5A01     		.2byte	0x15a
 2530 0143 81000000 		.4byte	0x81
 2531 0147 02       		.uleb128 0x2
 2532 0148 91       		.byte	0x91
 2533 0149 74       		.sleb128 -12
 2534 014a 00       		.byte	0
 2535 014b 0B       		.uleb128 0xb
 2536 014c 98070000 		.4byte	.LASF23
 2537 0150 01       		.byte	0x1
 2538 0151 9301     		.2byte	0x193
 2539 0153 00000000 		.4byte	.LFB36
 2540 0157 34000000 		.4byte	.LFE36-.LFB36
 2541 015b 01       		.uleb128 0x1
 2542 015c 9C       		.byte	0x9c
 2543 015d 74010000 		.4byte	0x174
 2544 0161 0C       		.uleb128 0xc
 2545 0162 7F000000 		.4byte	.LASF24
 2546 0166 01       		.byte	0x1
 2547 0167 9601     		.2byte	0x196
 2548 0169 6B000000 		.4byte	0x6b
 2549 016d 05       		.uleb128 0x5
 2550 016e 03       		.byte	0x3
 2551 016f 0E000000 		.4byte	CapSense_1_initVar.5202
 2552 0173 00       		.byte	0
 2553 0174 0D       		.uleb128 0xd
 2554 0175 1A070000 		.4byte	.LASF33
 2555 0179 01       		.byte	0x1
 2556 017a EF01     		.2byte	0x1ef
 2557 017c 00000000 		.4byte	.LFB37
 2558 0180 2C000000 		.4byte	.LFE37-.LFB37
 2559 0184 01       		.uleb128 0x1
 2560 0185 9C       		.byte	0x9c
 2561 0186 0E       		.uleb128 0xe
 2562 0187 52060000 		.4byte	.LASF35
 2563 018b 01       		.byte	0x1
 2564 018c 1502     		.2byte	0x215
 2565 018e 6B000000 		.4byte	0x6b
 2566 0192 00000000 		.4byte	.LFB38
 2567 0196 48000000 		.4byte	.LFE38-.LFB38
 2568 019a 01       		.uleb128 0x1
 2569 019b 9C       		.byte	0x9c
 2570 019c BF010000 		.4byte	0x1bf
 2571 01a0 0F       		.uleb128 0xf
 2572 01a1 5E000000 		.4byte	.LASF27
 2573 01a5 01       		.byte	0x1
 2574 01a6 1502     		.2byte	0x215
 2575 01a8 6B000000 		.4byte	0x6b
ARM GAS  C:\Users\mitchell\AppData\Local\Temp\cc5pMFOa.s 			page 87


 2576 01ac 02       		.uleb128 0x2
 2577 01ad 91       		.byte	0x91
 2578 01ae 6F       		.sleb128 -17
 2579 01af 0C       		.uleb128 0xc
 2580 01b0 9E060000 		.4byte	.LASF25
 2581 01b4 01       		.byte	0x1
 2582 01b5 1702     		.2byte	0x217
 2583 01b7 81000000 		.4byte	0x81
 2584 01bb 02       		.uleb128 0x2
 2585 01bc 91       		.byte	0x91
 2586 01bd 74       		.sleb128 -12
 2587 01be 00       		.byte	0
 2588 01bf 0B       		.uleb128 0xb
 2589 01c0 63020000 		.4byte	.LASF26
 2590 01c4 01       		.byte	0x1
 2591 01c5 4502     		.2byte	0x245
 2592 01c7 00000000 		.4byte	.LFB39
 2593 01cb 34000000 		.4byte	.LFE39-.LFB39
 2594 01cf 01       		.uleb128 0x1
 2595 01d0 9C       		.byte	0x9c
 2596 01d1 E5010000 		.4byte	0x1e5
 2597 01d5 0F       		.uleb128 0xf
 2598 01d6 7C030000 		.4byte	.LASF28
 2599 01da 01       		.byte	0x1
 2600 01db 4502     		.2byte	0x245
 2601 01dd 81000000 		.4byte	0x81
 2602 01e1 02       		.uleb128 0x2
 2603 01e2 91       		.byte	0x91
 2604 01e3 74       		.sleb128 -12
 2605 01e4 00       		.byte	0
 2606 01e5 0B       		.uleb128 0xb
 2607 01e6 B2040000 		.4byte	.LASF29
 2608 01ea 01       		.byte	0x1
 2609 01eb 6C02     		.2byte	0x26c
 2610 01ed 00000000 		.4byte	.LFB40
 2611 01f1 DC000000 		.4byte	.LFE40-.LFB40
 2612 01f5 01       		.uleb128 0x1
 2613 01f6 9C       		.byte	0x9c
 2614 01f7 38020000 		.4byte	0x238
 2615 01fb 0F       		.uleb128 0xf
 2616 01fc 21060000 		.4byte	.LASF30
 2617 0200 01       		.byte	0x1
 2618 0201 6C02     		.2byte	0x26c
 2619 0203 81000000 		.4byte	0x81
 2620 0207 02       		.uleb128 0x2
 2621 0208 91       		.byte	0x91
 2622 0209 64       		.sleb128 -28
 2623 020a 0C       		.uleb128 0xc
 2624 020b 6C060000 		.4byte	.LASF31
 2625 020f 01       		.byte	0x1
 2626 0210 6E02     		.2byte	0x26e
 2627 0212 81000000 		.4byte	0x81
 2628 0216 02       		.uleb128 0x2
 2629 0217 91       		.byte	0x91
 2630 0218 74       		.sleb128 -12
 2631 0219 0C       		.uleb128 0xc
 2632 021a B5020000 		.4byte	.LASF32
ARM GAS  C:\Users\mitchell\AppData\Local\Temp\cc5pMFOa.s 			page 88


 2633 021e 01       		.byte	0x1
 2634 021f 6F02     		.2byte	0x26f
 2635 0221 81000000 		.4byte	0x81
 2636 0225 02       		.uleb128 0x2
 2637 0226 91       		.byte	0x91
 2638 0227 6C       		.sleb128 -20
 2639 0228 0C       		.uleb128 0xc
 2640 0229 5E000000 		.4byte	.LASF27
 2641 022d 01       		.byte	0x1
 2642 022e 7002     		.2byte	0x270
 2643 0230 81000000 		.4byte	0x81
 2644 0234 02       		.uleb128 0x2
 2645 0235 91       		.byte	0x91
 2646 0236 70       		.sleb128 -16
 2647 0237 00       		.byte	0
 2648 0238 0D       		.uleb128 0xd
 2649 0239 22030000 		.4byte	.LASF34
 2650 023d 01       		.byte	0x1
 2651 023e C102     		.2byte	0x2c1
 2652 0240 00000000 		.4byte	.LFB41
 2653 0244 58000000 		.4byte	.LFE41-.LFB41
 2654 0248 01       		.uleb128 0x1
 2655 0249 9C       		.byte	0x9c
 2656 024a 10       		.uleb128 0x10
 2657 024b B7060000 		.4byte	.LASF64
 2658 024f 01       		.byte	0x1
 2659 0250 EA02     		.2byte	0x2ea
 2660 0252 81000000 		.4byte	0x81
 2661 0256 00000000 		.4byte	.LFB42
 2662 025a 1C000000 		.4byte	.LFE42-.LFB42
 2663 025e 01       		.uleb128 0x1
 2664 025f 9C       		.byte	0x9c
 2665 0260 11       		.uleb128 0x11
 2666 0261 91020000 		.4byte	.LASF36
 2667 0265 01       		.byte	0x1
 2668 0266 0803     		.2byte	0x308
 2669 0268 76000000 		.4byte	0x76
 2670 026c 00000000 		.4byte	.LFB43
 2671 0270 1C000000 		.4byte	.LFE43-.LFB43
 2672 0274 01       		.uleb128 0x1
 2673 0275 9C       		.byte	0x9c
 2674 0276 8A020000 		.4byte	0x28a
 2675 027a 0F       		.uleb128 0xf
 2676 027b 7C030000 		.4byte	.LASF28
 2677 027f 01       		.byte	0x1
 2678 0280 0803     		.2byte	0x308
 2679 0282 81000000 		.4byte	0x81
 2680 0286 02       		.uleb128 0x2
 2681 0287 91       		.byte	0x91
 2682 0288 74       		.sleb128 -12
 2683 0289 00       		.byte	0
 2684 028a 12       		.uleb128 0x12
 2685 028b BA070000 		.4byte	.LASF37
 2686 028f 01       		.byte	0x1
 2687 0290 2303     		.2byte	0x323
 2688 0292 00000000 		.4byte	.LFB44
 2689 0296 24000000 		.4byte	.LFE44-.LFB44
ARM GAS  C:\Users\mitchell\AppData\Local\Temp\cc5pMFOa.s 			page 89


 2690 029a 01       		.uleb128 0x1
 2691 029b 9C       		.byte	0x9c
 2692 029c BF020000 		.4byte	0x2bf
 2693 02a0 0F       		.uleb128 0xf
 2694 02a1 7C030000 		.4byte	.LASF28
 2695 02a5 01       		.byte	0x1
 2696 02a6 2303     		.2byte	0x323
 2697 02a8 81000000 		.4byte	0x81
 2698 02ac 02       		.uleb128 0x2
 2699 02ad 91       		.byte	0x91
 2700 02ae 74       		.sleb128 -12
 2701 02af 0F       		.uleb128 0xf
 2702 02b0 AF020000 		.4byte	.LASF38
 2703 02b4 01       		.byte	0x1
 2704 02b5 2303     		.2byte	0x323
 2705 02b7 76000000 		.4byte	0x76
 2706 02bb 02       		.uleb128 0x2
 2707 02bc 91       		.byte	0x91
 2708 02bd 72       		.sleb128 -14
 2709 02be 00       		.byte	0
 2710 02bf 11       		.uleb128 0x11
 2711 02c0 19050000 		.4byte	.LASF39
 2712 02c4 01       		.byte	0x1
 2713 02c5 7603     		.2byte	0x376
 2714 02c7 81000000 		.4byte	0x81
 2715 02cb 00000000 		.4byte	.LFB45
 2716 02cf 18000000 		.4byte	.LFE45-.LFB45
 2717 02d3 01       		.uleb128 0x1
 2718 02d4 9C       		.byte	0x9c
 2719 02d5 E9020000 		.4byte	0x2e9
 2720 02d9 0F       		.uleb128 0xf
 2721 02da 21060000 		.4byte	.LASF30
 2722 02de 01       		.byte	0x1
 2723 02df 7603     		.2byte	0x376
 2724 02e1 81000000 		.4byte	0x81
 2725 02e5 02       		.uleb128 0x2
 2726 02e6 91       		.byte	0x91
 2727 02e7 74       		.sleb128 -12
 2728 02e8 00       		.byte	0
 2729 02e9 0B       		.uleb128 0xb
 2730 02ea E6070000 		.4byte	.LASF40
 2731 02ee 01       		.byte	0x1
 2732 02ef 9103     		.2byte	0x391
 2733 02f1 00000000 		.4byte	.LFB46
 2734 02f5 26000000 		.4byte	.LFE46-.LFB46
 2735 02f9 01       		.uleb128 0x1
 2736 02fa 9C       		.byte	0x9c
 2737 02fb 0F030000 		.4byte	0x30f
 2738 02ff 0C       		.uleb128 0xc
 2739 0300 5E000000 		.4byte	.LASF27
 2740 0304 01       		.byte	0x1
 2741 0305 9303     		.2byte	0x393
 2742 0307 81000000 		.4byte	0x81
 2743 030b 02       		.uleb128 0x2
 2744 030c 91       		.byte	0x91
 2745 030d 74       		.sleb128 -12
 2746 030e 00       		.byte	0
ARM GAS  C:\Users\mitchell\AppData\Local\Temp\cc5pMFOa.s 			page 90


 2747 030f 0B       		.uleb128 0xb
 2748 0310 DD060000 		.4byte	.LASF41
 2749 0314 01       		.byte	0x1
 2750 0315 2F04     		.2byte	0x42f
 2751 0317 00000000 		.4byte	.LFB47
 2752 031b CC000000 		.4byte	.LFE47-.LFB47
 2753 031f 01       		.uleb128 0x1
 2754 0320 9C       		.byte	0x9c
 2755 0321 80030000 		.4byte	0x380
 2756 0325 0F       		.uleb128 0xf
 2757 0326 7C030000 		.4byte	.LASF28
 2758 032a 01       		.byte	0x1
 2759 032b 2F04     		.2byte	0x42f
 2760 032d 81000000 		.4byte	0x81
 2761 0331 02       		.uleb128 0x2
 2762 0332 91       		.byte	0x91
 2763 0333 5C       		.sleb128 -36
 2764 0334 0C       		.uleb128 0xc
 2765 0335 CE000000 		.4byte	.LASF42
 2766 0339 01       		.byte	0x1
 2767 033a 3104     		.2byte	0x431
 2768 033c 6B000000 		.4byte	0x6b
 2769 0340 02       		.uleb128 0x2
 2770 0341 91       		.byte	0x91
 2771 0342 6B       		.sleb128 -21
 2772 0343 0C       		.uleb128 0xc
 2773 0344 FC050000 		.4byte	.LASF43
 2774 0348 01       		.byte	0x1
 2775 0349 3204     		.2byte	0x432
 2776 034b 6B000000 		.4byte	0x6b
 2777 034f 02       		.uleb128 0x2
 2778 0350 91       		.byte	0x91
 2779 0351 6A       		.sleb128 -22
 2780 0352 0C       		.uleb128 0xc
 2781 0353 F5000000 		.4byte	.LASF44
 2782 0357 01       		.byte	0x1
 2783 0358 3304     		.2byte	0x433
 2784 035a 6B000000 		.4byte	0x6b
 2785 035e 02       		.uleb128 0x2
 2786 035f 91       		.byte	0x91
 2787 0360 69       		.sleb128 -23
 2788 0361 0C       		.uleb128 0xc
 2789 0362 A9070000 		.4byte	.LASF45
 2790 0366 01       		.byte	0x1
 2791 0367 3404     		.2byte	0x434
 2792 0369 81000000 		.4byte	0x81
 2793 036d 02       		.uleb128 0x2
 2794 036e 91       		.byte	0x91
 2795 036f 64       		.sleb128 -28
 2796 0370 0C       		.uleb128 0xc
 2797 0371 AA020000 		.4byte	.LASF46
 2798 0375 01       		.byte	0x1
 2799 0376 3504     		.2byte	0x435
 2800 0378 81000000 		.4byte	0x81
 2801 037c 02       		.uleb128 0x2
 2802 037d 91       		.byte	0x91
 2803 037e 6C       		.sleb128 -20
ARM GAS  C:\Users\mitchell\AppData\Local\Temp\cc5pMFOa.s 			page 91


 2804 037f 00       		.byte	0
 2805 0380 0B       		.uleb128 0xb
 2806 0381 FE070000 		.4byte	.LASF47
 2807 0385 01       		.byte	0x1
 2808 0386 6404     		.2byte	0x464
 2809 0388 00000000 		.4byte	.LFB48
 2810 038c 20010000 		.4byte	.LFE48-.LFB48
 2811 0390 01       		.uleb128 0x1
 2812 0391 9C       		.byte	0x9c
 2813 0392 0F040000 		.4byte	0x40f
 2814 0396 0F       		.uleb128 0xf
 2815 0397 7C030000 		.4byte	.LASF28
 2816 039b 01       		.byte	0x1
 2817 039c 6404     		.2byte	0x464
 2818 039e 81000000 		.4byte	0x81
 2819 03a2 02       		.uleb128 0x2
 2820 03a3 91       		.byte	0x91
 2821 03a4 54       		.sleb128 -44
 2822 03a5 0C       		.uleb128 0xc
 2823 03a6 F5000000 		.4byte	.LASF44
 2824 03aa 01       		.byte	0x1
 2825 03ab 6604     		.2byte	0x466
 2826 03ad 6B000000 		.4byte	0x6b
 2827 03b1 02       		.uleb128 0x2
 2828 03b2 91       		.byte	0x91
 2829 03b3 61       		.sleb128 -31
 2830 03b4 0C       		.uleb128 0xc
 2831 03b5 A9070000 		.4byte	.LASF45
 2832 03b9 01       		.byte	0x1
 2833 03ba 6704     		.2byte	0x467
 2834 03bc 81000000 		.4byte	0x81
 2835 03c0 02       		.uleb128 0x2
 2836 03c1 91       		.byte	0x91
 2837 03c2 5C       		.sleb128 -36
 2838 03c3 0C       		.uleb128 0xc
 2839 03c4 AA020000 		.4byte	.LASF46
 2840 03c8 01       		.byte	0x1
 2841 03c9 6904     		.2byte	0x469
 2842 03cb 81000000 		.4byte	0x81
 2843 03cf 02       		.uleb128 0x2
 2844 03d0 91       		.byte	0x91
 2845 03d1 64       		.sleb128 -28
 2846 03d2 0C       		.uleb128 0xc
 2847 03d3 FC050000 		.4byte	.LASF43
 2848 03d7 01       		.byte	0x1
 2849 03d8 6A04     		.2byte	0x46a
 2850 03da 6B000000 		.4byte	0x6b
 2851 03de 02       		.uleb128 0x2
 2852 03df 91       		.byte	0x91
 2853 03e0 63       		.sleb128 -29
 2854 03e1 0C       		.uleb128 0xc
 2855 03e2 CE000000 		.4byte	.LASF42
 2856 03e6 01       		.byte	0x1
 2857 03e7 6B04     		.2byte	0x46b
 2858 03e9 6B000000 		.4byte	0x6b
 2859 03ed 02       		.uleb128 0x2
 2860 03ee 91       		.byte	0x91
ARM GAS  C:\Users\mitchell\AppData\Local\Temp\cc5pMFOa.s 			page 92


 2861 03ef 62       		.sleb128 -30
 2862 03f0 0C       		.uleb128 0xc
 2863 03f1 0C020000 		.4byte	.LASF48
 2864 03f5 01       		.byte	0x1
 2865 03f6 6D04     		.2byte	0x46d
 2866 03f8 81000000 		.4byte	0x81
 2867 03fc 02       		.uleb128 0x2
 2868 03fd 91       		.byte	0x91
 2869 03fe 6C       		.sleb128 -20
 2870 03ff 0C       		.uleb128 0xc
 2871 0400 28060000 		.4byte	.LASF49
 2872 0404 01       		.byte	0x1
 2873 0405 6E04     		.2byte	0x46e
 2874 0407 81000000 		.4byte	0x81
 2875 040b 02       		.uleb128 0x2
 2876 040c 91       		.byte	0x91
 2877 040d 68       		.sleb128 -24
 2878 040e 00       		.byte	0
 2879 040f 0B       		.uleb128 0xb
 2880 0410 49040000 		.4byte	.LASF50
 2881 0414 01       		.byte	0x1
 2882 0415 B104     		.2byte	0x4b1
 2883 0417 00000000 		.4byte	.LFB49
 2884 041b 6C000000 		.4byte	.LFE49-.LFB49
 2885 041f 01       		.uleb128 0x1
 2886 0420 9C       		.byte	0x9c
 2887 0421 62040000 		.4byte	0x462
 2888 0425 0F       		.uleb128 0xf
 2889 0426 86040000 		.4byte	.LASF51
 2890 042a 01       		.byte	0x1
 2891 042b B104     		.2byte	0x4b1
 2892 042d 81000000 		.4byte	0x81
 2893 0431 02       		.uleb128 0x2
 2894 0432 91       		.byte	0x91
 2895 0433 64       		.sleb128 -28
 2896 0434 0C       		.uleb128 0xc
 2897 0435 00000000 		.4byte	.LASF20
 2898 0439 01       		.byte	0x1
 2899 043a B304     		.2byte	0x4b3
 2900 043c 6B000000 		.4byte	0x6b
 2901 0440 02       		.uleb128 0x2
 2902 0441 91       		.byte	0x91
 2903 0442 77       		.sleb128 -9
 2904 0443 0C       		.uleb128 0xc
 2905 0444 C0020000 		.4byte	.LASF52
 2906 0448 01       		.byte	0x1
 2907 0449 B804     		.2byte	0x4b8
 2908 044b 81000000 		.4byte	0x81
 2909 044f 02       		.uleb128 0x2
 2910 0450 91       		.byte	0x91
 2911 0451 70       		.sleb128 -16
 2912 0452 0C       		.uleb128 0xc
 2913 0453 0A060000 		.4byte	.LASF53
 2914 0457 01       		.byte	0x1
 2915 0458 B904     		.2byte	0x4b9
 2916 045a 81000000 		.4byte	0x81
 2917 045e 02       		.uleb128 0x2
ARM GAS  C:\Users\mitchell\AppData\Local\Temp\cc5pMFOa.s 			page 93


 2918 045f 91       		.byte	0x91
 2919 0460 6C       		.sleb128 -20
 2920 0461 00       		.byte	0
 2921 0462 0B       		.uleb128 0xb
 2922 0463 04010000 		.4byte	.LASF54
 2923 0467 01       		.byte	0x1
 2924 0468 FA04     		.2byte	0x4fa
 2925 046a 00000000 		.4byte	.LFB50
 2926 046e 38000000 		.4byte	.LFE50-.LFB50
 2927 0472 01       		.uleb128 0x1
 2928 0473 9C       		.byte	0x9c
 2929 0474 88040000 		.4byte	0x488
 2930 0478 0C       		.uleb128 0xc
 2931 0479 A9070000 		.4byte	.LASF45
 2932 047d 01       		.byte	0x1
 2933 047e FC04     		.2byte	0x4fc
 2934 0480 81000000 		.4byte	0x81
 2935 0484 02       		.uleb128 0x2
 2936 0485 91       		.byte	0x91
 2937 0486 74       		.sleb128 -12
 2938 0487 00       		.byte	0
 2939 0488 12       		.uleb128 0x12
 2940 0489 7D070000 		.4byte	.LASF55
 2941 048d 01       		.byte	0x1
 2942 048e 2E05     		.2byte	0x52e
 2943 0490 00000000 		.4byte	.LFB51
 2944 0494 5C000000 		.4byte	.LFE51-.LFB51
 2945 0498 01       		.uleb128 0x1
 2946 0499 9C       		.byte	0x9c
 2947 049a EA040000 		.4byte	0x4ea
 2948 049e 0F       		.uleb128 0xf
 2949 049f 86040000 		.4byte	.LASF51
 2950 04a3 01       		.byte	0x1
 2951 04a4 2E05     		.2byte	0x52e
 2952 04a6 81000000 		.4byte	0x81
 2953 04aa 02       		.uleb128 0x2
 2954 04ab 91       		.byte	0x91
 2955 04ac 6C       		.sleb128 -20
 2956 04ad 0F       		.uleb128 0xf
 2957 04ae CB050000 		.4byte	.LASF56
 2958 04b2 01       		.byte	0x1
 2959 04b3 2E05     		.2byte	0x52e
 2960 04b5 81000000 		.4byte	0x81
 2961 04b9 02       		.uleb128 0x2
 2962 04ba 91       		.byte	0x91
 2963 04bb 68       		.sleb128 -24
 2964 04bc 0F       		.uleb128 0xf
 2965 04bd CF030000 		.4byte	.LASF57
 2966 04c1 01       		.byte	0x1
 2967 04c2 2E05     		.2byte	0x52e
 2968 04c4 81000000 		.4byte	0x81
 2969 04c8 02       		.uleb128 0x2
 2970 04c9 91       		.byte	0x91
 2971 04ca 64       		.sleb128 -28
 2972 04cb 0C       		.uleb128 0xc
 2973 04cc CE000000 		.4byte	.LASF42
 2974 04d0 01       		.byte	0x1
ARM GAS  C:\Users\mitchell\AppData\Local\Temp\cc5pMFOa.s 			page 94


 2975 04d1 3005     		.2byte	0x530
 2976 04d3 81000000 		.4byte	0x81
 2977 04d7 02       		.uleb128 0x2
 2978 04d8 91       		.byte	0x91
 2979 04d9 74       		.sleb128 -12
 2980 04da 0C       		.uleb128 0xc
 2981 04db A9070000 		.4byte	.LASF45
 2982 04df 01       		.byte	0x1
 2983 04e0 3105     		.2byte	0x531
 2984 04e2 81000000 		.4byte	0x81
 2985 04e6 02       		.uleb128 0x2
 2986 04e7 91       		.byte	0x91
 2987 04e8 70       		.sleb128 -16
 2988 04e9 00       		.byte	0
 2989 04ea 0B       		.uleb128 0xb
 2990 04eb FD030000 		.4byte	.LASF58
 2991 04ef 01       		.byte	0x1
 2992 04f0 5205     		.2byte	0x552
 2993 04f2 00000000 		.4byte	.LFB52
 2994 04f6 D4000000 		.4byte	.LFE52-.LFB52
 2995 04fa 01       		.uleb128 0x1
 2996 04fb 9C       		.byte	0x9c
 2997 04fc 4C050000 		.4byte	0x54c
 2998 0500 0F       		.uleb128 0xf
 2999 0501 7C030000 		.4byte	.LASF28
 3000 0505 01       		.byte	0x1
 3001 0506 5205     		.2byte	0x552
 3002 0508 81000000 		.4byte	0x81
 3003 050c 02       		.uleb128 0x2
 3004 050d 91       		.byte	0x91
 3005 050e 5C       		.sleb128 -36
 3006 050f 0C       		.uleb128 0xc
 3007 0510 21060000 		.4byte	.LASF30
 3008 0514 01       		.byte	0x1
 3009 0515 5405     		.2byte	0x554
 3010 0517 6B000000 		.4byte	0x6b
 3011 051b 02       		.uleb128 0x2
 3012 051c 91       		.byte	0x91
 3013 051d 6F       		.sleb128 -17
 3014 051e 0C       		.uleb128 0xc
 3015 051f F5000000 		.4byte	.LASF44
 3016 0523 01       		.byte	0x1
 3017 0524 5505     		.2byte	0x555
 3018 0526 6B000000 		.4byte	0x6b
 3019 052a 02       		.uleb128 0x2
 3020 052b 91       		.byte	0x91
 3021 052c 63       		.sleb128 -29
 3022 052d 0C       		.uleb128 0xc
 3023 052e 50020000 		.4byte	.LASF21
 3024 0532 01       		.byte	0x1
 3025 0533 5605     		.2byte	0x556
 3026 0535 81000000 		.4byte	0x81
 3027 0539 02       		.uleb128 0x2
 3028 053a 91       		.byte	0x91
 3029 053b 64       		.sleb128 -28
 3030 053c 0C       		.uleb128 0xc
 3031 053d 33020000 		.4byte	.LASF59
ARM GAS  C:\Users\mitchell\AppData\Local\Temp\cc5pMFOa.s 			page 95


 3032 0541 01       		.byte	0x1
 3033 0542 5705     		.2byte	0x557
 3034 0544 81000000 		.4byte	0x81
 3035 0548 02       		.uleb128 0x2
 3036 0549 91       		.byte	0x91
 3037 054a 68       		.sleb128 -24
 3038 054b 00       		.byte	0
 3039 054c 0B       		.uleb128 0xb
 3040 054d 83010000 		.4byte	.LASF60
 3041 0551 01       		.byte	0x1
 3042 0552 0F06     		.2byte	0x60f
 3043 0554 00000000 		.4byte	.LFB53
 3044 0558 70000000 		.4byte	.LFE53-.LFB53
 3045 055c 01       		.uleb128 0x1
 3046 055d 9C       		.byte	0x9c
 3047 055e 81050000 		.4byte	0x581
 3048 0562 0F       		.uleb128 0xf
 3049 0563 7C030000 		.4byte	.LASF28
 3050 0567 01       		.byte	0x1
 3051 0568 0F06     		.2byte	0x60f
 3052 056a 81000000 		.4byte	0x81
 3053 056e 02       		.uleb128 0x2
 3054 056f 91       		.byte	0x91
 3055 0570 6C       		.sleb128 -20
 3056 0571 0C       		.uleb128 0xc
 3057 0572 50020000 		.4byte	.LASF21
 3058 0576 01       		.byte	0x1
 3059 0577 1106     		.2byte	0x611
 3060 0579 81000000 		.4byte	0x81
 3061 057d 02       		.uleb128 0x2
 3062 057e 91       		.byte	0x91
 3063 057f 74       		.sleb128 -12
 3064 0580 00       		.byte	0
 3065 0581 12       		.uleb128 0x12
 3066 0582 62010000 		.4byte	.LASF61
 3067 0586 01       		.byte	0x1
 3068 0587 6906     		.2byte	0x669
 3069 0589 00000000 		.4byte	.LFB54
 3070 058d 80000000 		.4byte	.LFE54-.LFB54
 3071 0591 01       		.uleb128 0x1
 3072 0592 9C       		.byte	0x9c
 3073 0593 C5050000 		.4byte	0x5c5
 3074 0597 0F       		.uleb128 0xf
 3075 0598 CB050000 		.4byte	.LASF56
 3076 059c 01       		.byte	0x1
 3077 059d 6906     		.2byte	0x669
 3078 059f 81000000 		.4byte	0x81
 3079 05a3 02       		.uleb128 0x2
 3080 05a4 91       		.byte	0x91
 3081 05a5 64       		.sleb128 -28
 3082 05a6 0F       		.uleb128 0xf
 3083 05a7 CF030000 		.4byte	.LASF57
 3084 05ab 01       		.byte	0x1
 3085 05ac 6906     		.2byte	0x669
 3086 05ae 81000000 		.4byte	0x81
 3087 05b2 02       		.uleb128 0x2
 3088 05b3 91       		.byte	0x91
ARM GAS  C:\Users\mitchell\AppData\Local\Temp\cc5pMFOa.s 			page 96


 3089 05b4 60       		.sleb128 -32
 3090 05b5 0C       		.uleb128 0xc
 3091 05b6 50020000 		.4byte	.LASF21
 3092 05ba 01       		.byte	0x1
 3093 05bb 6B06     		.2byte	0x66b
 3094 05bd 81000000 		.4byte	0x81
 3095 05c1 02       		.uleb128 0x2
 3096 05c2 91       		.byte	0x91
 3097 05c3 6C       		.sleb128 -20
 3098 05c4 00       		.byte	0
 3099 05c5 12       		.uleb128 0x12
 3100 05c6 08030000 		.4byte	.LASF62
 3101 05ca 01       		.byte	0x1
 3102 05cb 8C06     		.2byte	0x68c
 3103 05cd 00000000 		.4byte	.LFB55
 3104 05d1 30000000 		.4byte	.LFE55-.LFB55
 3105 05d5 01       		.uleb128 0x1
 3106 05d6 9C       		.byte	0x9c
 3107 05d7 FA050000 		.4byte	0x5fa
 3108 05db 0F       		.uleb128 0xf
 3109 05dc C8000000 		.4byte	.LASF63
 3110 05e0 01       		.byte	0x1
 3111 05e1 8C06     		.2byte	0x68c
 3112 05e3 81000000 		.4byte	0x81
 3113 05e7 02       		.uleb128 0x2
 3114 05e8 91       		.byte	0x91
 3115 05e9 6C       		.sleb128 -20
 3116 05ea 0C       		.uleb128 0xc
 3117 05eb 50020000 		.4byte	.LASF21
 3118 05ef 01       		.byte	0x1
 3119 05f0 8E06     		.2byte	0x68e
 3120 05f2 81000000 		.4byte	0x81
 3121 05f6 02       		.uleb128 0x2
 3122 05f7 91       		.byte	0x91
 3123 05f8 74       		.sleb128 -12
 3124 05f9 00       		.byte	0
 3125 05fa 10       		.uleb128 0x10
 3126 05fb F5060000 		.4byte	.LASF65
 3127 05ff 01       		.byte	0x1
 3128 0600 B006     		.2byte	0x6b0
 3129 0602 81000000 		.4byte	0x81
 3130 0606 00000000 		.4byte	.LFB56
 3131 060a 2C000000 		.4byte	.LFE56-.LFB56
 3132 060e 01       		.uleb128 0x1
 3133 060f 9C       		.byte	0x9c
 3134 0610 11       		.uleb128 0x11
 3135 0611 83030000 		.4byte	.LASF66
 3136 0615 01       		.byte	0x1
 3137 0616 CC06     		.2byte	0x6cc
 3138 0618 81000000 		.4byte	0x81
 3139 061c 00000000 		.4byte	.LFB57
 3140 0620 44000000 		.4byte	.LFE57-.LFB57
 3141 0624 01       		.uleb128 0x1
 3142 0625 9C       		.byte	0x9c
 3143 0626 67060000 		.4byte	0x667
 3144 062a 0F       		.uleb128 0xf
 3145 062b 29000000 		.4byte	.LASF67
ARM GAS  C:\Users\mitchell\AppData\Local\Temp\cc5pMFOa.s 			page 97


 3146 062f 01       		.byte	0x1
 3147 0630 CC06     		.2byte	0x6cc
 3148 0632 D0000000 		.4byte	0xd0
 3149 0636 02       		.uleb128 0x2
 3150 0637 91       		.byte	0x91
 3151 0638 6C       		.sleb128 -20
 3152 0639 0F       		.uleb128 0xf
 3153 063a DA020000 		.4byte	.LASF68
 3154 063e 01       		.byte	0x1
 3155 063f CC06     		.2byte	0x6cc
 3156 0641 81000000 		.4byte	0x81
 3157 0645 02       		.uleb128 0x2
 3158 0646 91       		.byte	0x91
 3159 0647 68       		.sleb128 -24
 3160 0648 0C       		.uleb128 0xc
 3161 0649 C9060000 		.4byte	.LASF69
 3162 064d 01       		.byte	0x1
 3163 064e CE06     		.2byte	0x6ce
 3164 0650 81000000 		.4byte	0x81
 3165 0654 02       		.uleb128 0x2
 3166 0655 91       		.byte	0x91
 3167 0656 74       		.sleb128 -12
 3168 0657 0C       		.uleb128 0xc
 3169 0658 E0040000 		.4byte	.LASF70
 3170 065c 01       		.byte	0x1
 3171 065d CF06     		.2byte	0x6cf
 3172 065f 6B000000 		.4byte	0x6b
 3173 0663 02       		.uleb128 0x2
 3174 0664 91       		.byte	0x91
 3175 0665 73       		.sleb128 -13
 3176 0666 00       		.byte	0
 3177 0667 12       		.uleb128 0x12
 3178 0668 32040000 		.4byte	.LASF71
 3179 066c 01       		.byte	0x1
 3180 066d F706     		.2byte	0x6f7
 3181 066f 00000000 		.4byte	.LFB58
 3182 0673 68000000 		.4byte	.LFE58-.LFB58
 3183 0677 01       		.uleb128 0x1
 3184 0678 9C       		.byte	0x9c
 3185 0679 C9060000 		.4byte	0x6c9
 3186 067d 0F       		.uleb128 0xf
 3187 067e 29000000 		.4byte	.LASF67
 3188 0682 01       		.byte	0x1
 3189 0683 F706     		.2byte	0x6f7
 3190 0685 CA000000 		.4byte	0xca
 3191 0689 02       		.uleb128 0x2
 3192 068a 91       		.byte	0x91
 3193 068b 6C       		.sleb128 -20
 3194 068c 0F       		.uleb128 0xf
 3195 068d DA020000 		.4byte	.LASF68
 3196 0691 01       		.byte	0x1
 3197 0692 F706     		.2byte	0x6f7
 3198 0694 81000000 		.4byte	0x81
 3199 0698 02       		.uleb128 0x2
 3200 0699 91       		.byte	0x91
 3201 069a 68       		.sleb128 -24
 3202 069b 0F       		.uleb128 0xf
ARM GAS  C:\Users\mitchell\AppData\Local\Temp\cc5pMFOa.s 			page 98


 3203 069c AF020000 		.4byte	.LASF38
 3204 06a0 01       		.byte	0x1
 3205 06a1 F706     		.2byte	0x6f7
 3206 06a3 81000000 		.4byte	0x81
 3207 06a7 02       		.uleb128 0x2
 3208 06a8 91       		.byte	0x91
 3209 06a9 64       		.sleb128 -28
 3210 06aa 0C       		.uleb128 0xc
 3211 06ab C9060000 		.4byte	.LASF69
 3212 06af 01       		.byte	0x1
 3213 06b0 F906     		.2byte	0x6f9
 3214 06b2 81000000 		.4byte	0x81
 3215 06b6 02       		.uleb128 0x2
 3216 06b7 91       		.byte	0x91
 3217 06b8 74       		.sleb128 -12
 3218 06b9 0C       		.uleb128 0xc
 3219 06ba E0040000 		.4byte	.LASF70
 3220 06be 01       		.byte	0x1
 3221 06bf FA06     		.2byte	0x6fa
 3222 06c1 6B000000 		.4byte	0x6b
 3223 06c5 02       		.uleb128 0x2
 3224 06c6 91       		.byte	0x91
 3225 06c7 73       		.sleb128 -13
 3226 06c8 00       		.byte	0
 3227 06c9 11       		.uleb128 0x11
 3228 06ca 34060000 		.4byte	.LASF72
 3229 06ce 01       		.byte	0x1
 3230 06cf 2907     		.2byte	0x729
 3231 06d1 81000000 		.4byte	0x81
 3232 06d5 00000000 		.4byte	.LFB59
 3233 06d9 12000000 		.4byte	.LFE59-.LFB59
 3234 06dd 01       		.uleb128 0x1
 3235 06de 9C       		.byte	0x9c
 3236 06df F3060000 		.4byte	0x6f3
 3237 06e3 0F       		.uleb128 0xf
 3238 06e4 7C030000 		.4byte	.LASF28
 3239 06e8 01       		.byte	0x1
 3240 06e9 2907     		.2byte	0x729
 3241 06eb 81000000 		.4byte	0x81
 3242 06ef 02       		.uleb128 0x2
 3243 06f0 91       		.byte	0x91
 3244 06f1 74       		.sleb128 -12
 3245 06f2 00       		.byte	0
 3246 06f3 11       		.uleb128 0x11
 3247 06f4 17080000 		.4byte	.LASF73
 3248 06f8 01       		.byte	0x1
 3249 06f9 6807     		.2byte	0x768
 3250 06fb 81000000 		.4byte	0x81
 3251 06ff 00000000 		.4byte	.LFB60
 3252 0703 12000000 		.4byte	.LFE60-.LFB60
 3253 0707 01       		.uleb128 0x1
 3254 0708 9C       		.byte	0x9c
 3255 0709 1D070000 		.4byte	0x71d
 3256 070d 0F       		.uleb128 0xf
 3257 070e 7C030000 		.4byte	.LASF28
 3258 0712 01       		.byte	0x1
 3259 0713 6807     		.2byte	0x768
ARM GAS  C:\Users\mitchell\AppData\Local\Temp\cc5pMFOa.s 			page 99


 3260 0715 81000000 		.4byte	0x81
 3261 0719 02       		.uleb128 0x2
 3262 071a 91       		.byte	0x91
 3263 071b 74       		.sleb128 -12
 3264 071c 00       		.byte	0
 3265 071d 11       		.uleb128 0x11
 3266 071e 3F070000 		.4byte	.LASF74
 3267 0722 01       		.byte	0x1
 3268 0723 A607     		.2byte	0x7a6
 3269 0725 81000000 		.4byte	0x81
 3270 0729 00000000 		.4byte	.LFB61
 3271 072d 1C000000 		.4byte	.LFE61-.LFB61
 3272 0731 01       		.uleb128 0x1
 3273 0732 9C       		.byte	0x9c
 3274 0733 47070000 		.4byte	0x747
 3275 0737 0F       		.uleb128 0xf
 3276 0738 7C030000 		.4byte	.LASF28
 3277 073c 01       		.byte	0x1
 3278 073d A607     		.2byte	0x7a6
 3279 073f 81000000 		.4byte	0x81
 3280 0743 02       		.uleb128 0x2
 3281 0744 91       		.byte	0x91
 3282 0745 74       		.sleb128 -12
 3283 0746 00       		.byte	0
 3284 0747 10       		.uleb128 0x10
 3285 0748 11000000 		.4byte	.LASF75
 3286 074c 01       		.byte	0x1
 3287 074d 1808     		.2byte	0x818
 3288 074f 81000000 		.4byte	0x81
 3289 0753 00000000 		.4byte	.LFB62
 3290 0757 20000000 		.4byte	.LFE62-.LFB62
 3291 075b 01       		.uleb128 0x1
 3292 075c 9C       		.byte	0x9c
 3293 075d 12       		.uleb128 0x12
 3294 075e DA030000 		.4byte	.LASF76
 3295 0762 01       		.byte	0x1
 3296 0763 C808     		.2byte	0x8c8
 3297 0765 00000000 		.4byte	.LFB63
 3298 0769 20000000 		.4byte	.LFE63-.LFB63
 3299 076d 01       		.uleb128 0x1
 3300 076e 9C       		.byte	0x9c
 3301 076f 92070000 		.4byte	0x792
 3302 0773 0F       		.uleb128 0xf
 3303 0774 7C030000 		.4byte	.LASF28
 3304 0778 01       		.byte	0x1
 3305 0779 C808     		.2byte	0x8c8
 3306 077b 81000000 		.4byte	0x81
 3307 077f 02       		.uleb128 0x2
 3308 0780 91       		.byte	0x91
 3309 0781 74       		.sleb128 -12
 3310 0782 0F       		.uleb128 0xf
 3311 0783 28060000 		.4byte	.LASF49
 3312 0787 01       		.byte	0x1
 3313 0788 C808     		.2byte	0x8c8
 3314 078a 81000000 		.4byte	0x81
 3315 078e 02       		.uleb128 0x2
 3316 078f 91       		.byte	0x91
ARM GAS  C:\Users\mitchell\AppData\Local\Temp\cc5pMFOa.s 			page 100


 3317 0790 70       		.sleb128 -16
 3318 0791 00       		.byte	0
 3319 0792 12       		.uleb128 0x12
 3320 0793 5F080000 		.4byte	.LASF77
 3321 0797 01       		.byte	0x1
 3322 0798 E508     		.2byte	0x8e5
 3323 079a 00000000 		.4byte	.LFB64
 3324 079e 9C000000 		.4byte	.LFE64-.LFB64
 3325 07a2 01       		.uleb128 0x1
 3326 07a3 9C       		.byte	0x9c
 3327 07a4 12080000 		.4byte	0x812
 3328 07a8 0F       		.uleb128 0xf
 3329 07a9 45020000 		.4byte	.LASF78
 3330 07ad 01       		.byte	0x1
 3331 07ae E508     		.2byte	0x8e5
 3332 07b0 81000000 		.4byte	0x81
 3333 07b4 02       		.uleb128 0x2
 3334 07b5 91       		.byte	0x91
 3335 07b6 5C       		.sleb128 -36
 3336 07b7 0F       		.uleb128 0xf
 3337 07b8 E7040000 		.4byte	.LASF79
 3338 07bc 01       		.byte	0x1
 3339 07bd E508     		.2byte	0x8e5
 3340 07bf CA000000 		.4byte	0xca
 3341 07c3 02       		.uleb128 0x2
 3342 07c4 91       		.byte	0x91
 3343 07c5 58       		.sleb128 -40
 3344 07c6 0C       		.uleb128 0xc
 3345 07c7 E3020000 		.4byte	.LASF80
 3346 07cb 01       		.byte	0x1
 3347 07cc E708     		.2byte	0x8e7
 3348 07ce 81000000 		.4byte	0x81
 3349 07d2 02       		.uleb128 0x2
 3350 07d3 91       		.byte	0x91
 3351 07d4 74       		.sleb128 -12
 3352 07d5 0C       		.uleb128 0xc
 3353 07d6 A9060000 		.4byte	.LASF81
 3354 07da 01       		.byte	0x1
 3355 07db E808     		.2byte	0x8e8
 3356 07dd 81000000 		.4byte	0x81
 3357 07e1 02       		.uleb128 0x2
 3358 07e2 91       		.byte	0x91
 3359 07e3 70       		.sleb128 -16
 3360 07e4 0C       		.uleb128 0xc
 3361 07e5 B5020000 		.4byte	.LASF32
 3362 07e9 01       		.byte	0x1
 3363 07ea E908     		.2byte	0x8e9
 3364 07ec 81000000 		.4byte	0x81
 3365 07f0 02       		.uleb128 0x2
 3366 07f1 91       		.byte	0x91
 3367 07f2 64       		.sleb128 -28
 3368 07f3 0C       		.uleb128 0xc
 3369 07f4 6C060000 		.4byte	.LASF31
 3370 07f8 01       		.byte	0x1
 3371 07f9 EA08     		.2byte	0x8ea
 3372 07fb 81000000 		.4byte	0x81
 3373 07ff 02       		.uleb128 0x2
ARM GAS  C:\Users\mitchell\AppData\Local\Temp\cc5pMFOa.s 			page 101


 3374 0800 91       		.byte	0x91
 3375 0801 68       		.sleb128 -24
 3376 0802 0C       		.uleb128 0xc
 3377 0803 D0060000 		.4byte	.LASF82
 3378 0807 01       		.byte	0x1
 3379 0808 EB08     		.2byte	0x8eb
 3380 080a 81000000 		.4byte	0x81
 3381 080e 02       		.uleb128 0x2
 3382 080f 91       		.byte	0x91
 3383 0810 6C       		.sleb128 -20
 3384 0811 00       		.byte	0
 3385 0812 13       		.uleb128 0x13
 3386 0813 67000000 		.4byte	.LASF83
 3387 0817 01       		.byte	0x1
 3388 0818 2C       		.byte	0x2c
 3389 0819 AD000000 		.4byte	0xad
 3390 081d 05       		.uleb128 0x5
 3391 081e 03       		.byte	0x3
 3392 081f 00000000 		.4byte	CapSense_1_csdStatusVar
 3393 0823 13       		.uleb128 0x13
 3394 0824 52030000 		.4byte	.LASF84
 3395 0828 01       		.byte	0x1
 3396 0829 2D       		.byte	0x2d
 3397 082a AD000000 		.4byte	0xad
 3398 082e 05       		.uleb128 0x5
 3399 082f 03       		.byte	0x3
 3400 0830 00000000 		.4byte	CapSense_1_sensorIndex
 3401 0834 14       		.uleb128 0x14
 3402 0835 76000000 		.4byte	0x76
 3403 0839 44080000 		.4byte	0x844
 3404 083d 15       		.uleb128 0x15
 3405 083e C3000000 		.4byte	0xc3
 3406 0842 04       		.byte	0x4
 3407 0843 00       		.byte	0
 3408 0844 13       		.uleb128 0x13
 3409 0845 EF040000 		.4byte	.LASF85
 3410 0849 01       		.byte	0x1
 3411 084a 30       		.byte	0x30
 3412 084b 34080000 		.4byte	0x834
 3413 084f 05       		.uleb128 0x5
 3414 0850 03       		.byte	0x3
 3415 0851 00000000 		.4byte	CapSense_1_sensorRaw
 3416 0855 14       		.uleb128 0x14
 3417 0856 6B000000 		.4byte	0x6b
 3418 085a 65080000 		.4byte	0x865
 3419 085e 15       		.uleb128 0x15
 3420 085f C3000000 		.4byte	0xc3
 3421 0863 04       		.byte	0x4
 3422 0864 00       		.byte	0
 3423 0865 13       		.uleb128 0x13
 3424 0866 5C070000 		.4byte	.LASF86
 3425 086a 01       		.byte	0x1
 3426 086b 3A       		.byte	0x3a
 3427 086c 55080000 		.4byte	0x855
 3428 0870 05       		.uleb128 0x5
 3429 0871 03       		.byte	0x3
 3430 0872 00000000 		.4byte	CapSense_1_unscannedSnsDriveMode
ARM GAS  C:\Users\mitchell\AppData\Local\Temp\cc5pMFOa.s 			page 102


 3431 0876 14       		.uleb128 0x14
 3432 0877 6B000000 		.4byte	0x6b
 3433 087b 86080000 		.4byte	0x886
 3434 087f 15       		.uleb128 0x15
 3435 0880 C3000000 		.4byte	0xc3
 3436 0884 00       		.byte	0
 3437 0885 00       		.byte	0
 3438 0886 13       		.uleb128 0x13
 3439 0887 90040000 		.4byte	.LASF87
 3440 088b 01       		.byte	0x1
 3441 088c 3D       		.byte	0x3d
 3442 088d 76080000 		.4byte	0x876
 3443 0891 05       		.uleb128 0x5
 3444 0892 03       		.byte	0x3
 3445 0893 00000000 		.4byte	CapSense_1_sensorEnableMaskBackup
 3446 0897 13       		.uleb128 0x13
 3447 0898 16040000 		.4byte	.LASF88
 3448 089c 01       		.byte	0x1
 3449 089d 40       		.byte	0x40
 3450 089e 76080000 		.4byte	0x876
 3451 08a2 05       		.uleb128 0x5
 3452 08a3 03       		.byte	0x3
 3453 08a4 00000000 		.4byte	CapSense_1_sensorEnableMask
 3454 08a8 13       		.uleb128 0x13
 3455 08a9 2F000000 		.4byte	.LASF89
 3456 08ad 01       		.byte	0x1
 3457 08ae 63       		.byte	0x63
 3458 08af B9080000 		.4byte	0x8b9
 3459 08b3 05       		.uleb128 0x5
 3460 08b4 03       		.byte	0x3
 3461 08b5 00000000 		.4byte	CapSense_1_modulationIDAC
 3462 08b9 08       		.uleb128 0x8
 3463 08ba 55080000 		.4byte	0x855
 3464 08be 14       		.uleb128 0x14
 3465 08bf 81000000 		.4byte	0x81
 3466 08c3 CE080000 		.4byte	0x8ce
 3467 08c7 15       		.uleb128 0x15
 3468 08c8 C3000000 		.4byte	0xc3
 3469 08cc 00       		.byte	0
 3470 08cd 00       		.byte	0
 3471 08ce 13       		.uleb128 0x13
 3472 08cf 7D060000 		.4byte	.LASF90
 3473 08d3 01       		.byte	0x1
 3474 08d4 66       		.byte	0x66
 3475 08d5 DF080000 		.4byte	0x8df
 3476 08d9 05       		.uleb128 0x5
 3477 08da 03       		.byte	0x3
 3478 08db 00000000 		.4byte	CapSense_1_widgetResolution
 3479 08df 08       		.uleb128 0x8
 3480 08e0 BE080000 		.4byte	0x8be
 3481 08e4 13       		.uleb128 0x13
 3482 08e5 3B010000 		.4byte	.LASF91
 3483 08e9 01       		.byte	0x1
 3484 08ea 6A       		.byte	0x6a
 3485 08eb D6000000 		.4byte	0xd6
 3486 08ef 05       		.uleb128 0x5
 3487 08f0 03       		.byte	0x3
ARM GAS  C:\Users\mitchell\AppData\Local\Temp\cc5pMFOa.s 			page 103


 3488 08f1 00000000 		.4byte	CapSense_1_senseClkDividerVal
 3489 08f5 13       		.uleb128 0x13
 3490 08f6 A9000000 		.4byte	.LASF92
 3491 08fa 01       		.byte	0x1
 3492 08fb 6B       		.byte	0x6b
 3493 08fc D6000000 		.4byte	0xd6
 3494 0900 05       		.uleb128 0x5
 3495 0901 03       		.byte	0x3
 3496 0902 00000000 		.4byte	CapSense_1_sampleClkDividerVal
 3497 0906 13       		.uleb128 0x13
 3498 0907 C8040000 		.4byte	.LASF93
 3499 090b 01       		.byte	0x1
 3500 090c 6D       		.byte	0x6d
 3501 090d 17090000 		.4byte	0x917
 3502 0911 05       		.uleb128 0x5
 3503 0912 03       		.byte	0x3
 3504 0913 00000000 		.4byte	CapSense_1_widgetNumber
 3505 0917 08       		.uleb128 0x8
 3506 0918 55080000 		.4byte	0x855
 3507 091c 14       		.uleb128 0x14
 3508 091d 2C090000 		.4byte	0x92c
 3509 0921 2C090000 		.4byte	0x92c
 3510 0925 15       		.uleb128 0x15
 3511 0926 C3000000 		.4byte	0xc3
 3512 092a 04       		.byte	0x4
 3513 092b 00       		.byte	0
 3514 092c 07       		.uleb128 0x7
 3515 092d 04       		.byte	0x4
 3516 092e 32090000 		.4byte	0x932
 3517 0932 06       		.uleb128 0x6
 3518 0933 48000000 		.4byte	0x48
 3519 0937 13       		.uleb128 0x13
 3520 0938 2A070000 		.4byte	.LASF94
 3521 093c 01       		.byte	0x1
 3522 093d 73       		.byte	0x73
 3523 093e 48090000 		.4byte	0x948
 3524 0942 05       		.uleb128 0x5
 3525 0943 03       		.byte	0x3
 3526 0944 00000000 		.4byte	CapSense_1_prtSelTbl
 3527 0948 08       		.uleb128 0x8
 3528 0949 1C090000 		.4byte	0x91c
 3529 094d 13       		.uleb128 0x13
 3530 094e 49000000 		.4byte	.LASF95
 3531 0952 01       		.byte	0x1
 3532 0953 86       		.byte	0x86
 3533 0954 5E090000 		.4byte	0x95e
 3534 0958 05       		.uleb128 0x5
 3535 0959 03       		.byte	0x3
 3536 095a 00000000 		.4byte	CapSense_1_prtCfgTbl
 3537 095e 08       		.uleb128 0x8
 3538 095f 1C090000 		.4byte	0x91c
 3539 0963 13       		.uleb128 0x13
 3540 0964 27010000 		.4byte	.LASF96
 3541 0968 01       		.byte	0x1
 3542 0969 99       		.byte	0x99
 3543 096a 74090000 		.4byte	0x974
 3544 096e 05       		.uleb128 0x5
ARM GAS  C:\Users\mitchell\AppData\Local\Temp\cc5pMFOa.s 			page 104


 3545 096f 03       		.byte	0x3
 3546 0970 00000000 		.4byte	CapSense_1_prtDRTbl
 3547 0974 08       		.uleb128 0x8
 3548 0975 1C090000 		.4byte	0x91c
 3549 0979 13       		.uleb128 0x13
 3550 097a 36050000 		.4byte	.LASF97
 3551 097e 01       		.byte	0x1
 3552 097f 43       		.byte	0x43
 3553 0980 1C090000 		.4byte	0x91c
 3554 0984 05       		.uleb128 0x5
 3555 0985 03       		.byte	0x3
 3556 0986 00000000 		.4byte	CapSense_1_pcTable
 3557 098a 13       		.uleb128 0x13
 3558 098b 04050000 		.4byte	.LASF98
 3559 098f 01       		.byte	0x1
 3560 0990 4B       		.byte	0x4b
 3561 0991 9B090000 		.4byte	0x99b
 3562 0995 05       		.uleb128 0x5
 3563 0996 03       		.byte	0x3
 3564 0997 00000000 		.4byte	CapSense_1_portTable
 3565 099b 08       		.uleb128 0x8
 3566 099c 55080000 		.4byte	0x855
 3567 09a0 14       		.uleb128 0x14
 3568 09a1 81000000 		.4byte	0x81
 3569 09a5 B0090000 		.4byte	0x9b0
 3570 09a9 15       		.uleb128 0x15
 3571 09aa C3000000 		.4byte	0xc3
 3572 09ae 04       		.byte	0x4
 3573 09af 00       		.byte	0
 3574 09b0 13       		.uleb128 0x13
 3575 09b1 71040000 		.4byte	.LASF99
 3576 09b5 01       		.byte	0x1
 3577 09b6 53       		.byte	0x53
 3578 09b7 C1090000 		.4byte	0x9c1
 3579 09bb 05       		.uleb128 0x5
 3580 09bc 03       		.byte	0x3
 3581 09bd 00000000 		.4byte	CapSense_1_maskTable
 3582 09c1 08       		.uleb128 0x8
 3583 09c2 A0090000 		.4byte	0x9a0
 3584 09c6 13       		.uleb128 0x13
 3585 09c7 F1020000 		.4byte	.LASF100
 3586 09cb 01       		.byte	0x1
 3587 09cc 5B       		.byte	0x5b
 3588 09cd D7090000 		.4byte	0x9d7
 3589 09d1 05       		.uleb128 0x5
 3590 09d2 03       		.byte	0x3
 3591 09d3 00000000 		.4byte	CapSense_1_pinShiftTbl
 3592 09d7 08       		.uleb128 0x8
 3593 09d8 55080000 		.4byte	0x855
 3594 09dc 16       		.uleb128 0x16
 3595 09dd 79020000 		.4byte	.LASF101
 3596 09e1 03       		.byte	0x3
 3597 09e2 3A01     		.2byte	0x13a
 3598 09e4 E8090000 		.4byte	0x9e8
 3599 09e8 08       		.uleb128 0x8
 3600 09e9 76080000 		.4byte	0x876
 3601 09ed 16       		.uleb128 0x16
ARM GAS  C:\Users\mitchell\AppData\Local\Temp\cc5pMFOa.s 			page 105


 3602 09ee B4030000 		.4byte	.LASF102
 3603 09f2 03       		.byte	0x3
 3604 09f3 3B01     		.2byte	0x13b
 3605 09f5 F9090000 		.4byte	0x9f9
 3606 09f9 08       		.uleb128 0x8
 3607 09fa 76080000 		.4byte	0x876
 3608 09fe 13       		.uleb128 0x13
 3609 09ff DA050000 		.4byte	.LASF103
 3610 0a03 01       		.byte	0x1
 3611 0a04 36       		.byte	0x36
 3612 0a05 6B000000 		.4byte	0x6b
 3613 0a09 05       		.uleb128 0x5
 3614 0a0a 03       		.byte	0x3
 3615 0a0b 00000000 		.4byte	CapSense_1_csdTrim1
 3616 0a0f 00       		.byte	0
 3617              		.section	.debug_abbrev,"",%progbits
 3618              	.Ldebug_abbrev0:
 3619 0000 01       		.uleb128 0x1
 3620 0001 11       		.uleb128 0x11
 3621 0002 01       		.byte	0x1
 3622 0003 25       		.uleb128 0x25
 3623 0004 0E       		.uleb128 0xe
 3624 0005 13       		.uleb128 0x13
 3625 0006 0B       		.uleb128 0xb
 3626 0007 03       		.uleb128 0x3
 3627 0008 0E       		.uleb128 0xe
 3628 0009 1B       		.uleb128 0x1b
 3629 000a 0E       		.uleb128 0xe
 3630 000b 55       		.uleb128 0x55
 3631 000c 17       		.uleb128 0x17
 3632 000d 11       		.uleb128 0x11
 3633 000e 01       		.uleb128 0x1
 3634 000f 10       		.uleb128 0x10
 3635 0010 17       		.uleb128 0x17
 3636 0011 00       		.byte	0
 3637 0012 00       		.byte	0
 3638 0013 02       		.uleb128 0x2
 3639 0014 24       		.uleb128 0x24
 3640 0015 00       		.byte	0
 3641 0016 0B       		.uleb128 0xb
 3642 0017 0B       		.uleb128 0xb
 3643 0018 3E       		.uleb128 0x3e
 3644 0019 0B       		.uleb128 0xb
 3645 001a 03       		.uleb128 0x3
 3646 001b 0E       		.uleb128 0xe
 3647 001c 00       		.byte	0
 3648 001d 00       		.byte	0
 3649 001e 03       		.uleb128 0x3
 3650 001f 24       		.uleb128 0x24
 3651 0020 00       		.byte	0
 3652 0021 0B       		.uleb128 0xb
 3653 0022 0B       		.uleb128 0xb
 3654 0023 3E       		.uleb128 0x3e
 3655 0024 0B       		.uleb128 0xb
 3656 0025 03       		.uleb128 0x3
 3657 0026 08       		.uleb128 0x8
 3658 0027 00       		.byte	0
ARM GAS  C:\Users\mitchell\AppData\Local\Temp\cc5pMFOa.s 			page 106


 3659 0028 00       		.byte	0
 3660 0029 04       		.uleb128 0x4
 3661 002a 16       		.uleb128 0x16
 3662 002b 00       		.byte	0
 3663 002c 03       		.uleb128 0x3
 3664 002d 0E       		.uleb128 0xe
 3665 002e 3A       		.uleb128 0x3a
 3666 002f 0B       		.uleb128 0xb
 3667 0030 3B       		.uleb128 0x3b
 3668 0031 0B       		.uleb128 0xb
 3669 0032 49       		.uleb128 0x49
 3670 0033 13       		.uleb128 0x13
 3671 0034 00       		.byte	0
 3672 0035 00       		.byte	0
 3673 0036 05       		.uleb128 0x5
 3674 0037 16       		.uleb128 0x16
 3675 0038 00       		.byte	0
 3676 0039 03       		.uleb128 0x3
 3677 003a 0E       		.uleb128 0xe
 3678 003b 3A       		.uleb128 0x3a
 3679 003c 0B       		.uleb128 0xb
 3680 003d 3B       		.uleb128 0x3b
 3681 003e 05       		.uleb128 0x5
 3682 003f 49       		.uleb128 0x49
 3683 0040 13       		.uleb128 0x13
 3684 0041 00       		.byte	0
 3685 0042 00       		.byte	0
 3686 0043 06       		.uleb128 0x6
 3687 0044 35       		.uleb128 0x35
 3688 0045 00       		.byte	0
 3689 0046 49       		.uleb128 0x49
 3690 0047 13       		.uleb128 0x13
 3691 0048 00       		.byte	0
 3692 0049 00       		.byte	0
 3693 004a 07       		.uleb128 0x7
 3694 004b 0F       		.uleb128 0xf
 3695 004c 00       		.byte	0
 3696 004d 0B       		.uleb128 0xb
 3697 004e 0B       		.uleb128 0xb
 3698 004f 49       		.uleb128 0x49
 3699 0050 13       		.uleb128 0x13
 3700 0051 00       		.byte	0
 3701 0052 00       		.byte	0
 3702 0053 08       		.uleb128 0x8
 3703 0054 26       		.uleb128 0x26
 3704 0055 00       		.byte	0
 3705 0056 49       		.uleb128 0x49
 3706 0057 13       		.uleb128 0x13
 3707 0058 00       		.byte	0
 3708 0059 00       		.byte	0
 3709 005a 09       		.uleb128 0x9
 3710 005b 2E       		.uleb128 0x2e
 3711 005c 01       		.byte	0x1
 3712 005d 3F       		.uleb128 0x3f
 3713 005e 19       		.uleb128 0x19
 3714 005f 03       		.uleb128 0x3
 3715 0060 0E       		.uleb128 0xe
ARM GAS  C:\Users\mitchell\AppData\Local\Temp\cc5pMFOa.s 			page 107


 3716 0061 3A       		.uleb128 0x3a
 3717 0062 0B       		.uleb128 0xb
 3718 0063 3B       		.uleb128 0x3b
 3719 0064 0B       		.uleb128 0xb
 3720 0065 27       		.uleb128 0x27
 3721 0066 19       		.uleb128 0x19
 3722 0067 11       		.uleb128 0x11
 3723 0068 01       		.uleb128 0x1
 3724 0069 12       		.uleb128 0x12
 3725 006a 06       		.uleb128 0x6
 3726 006b 40       		.uleb128 0x40
 3727 006c 18       		.uleb128 0x18
 3728 006d 9642     		.uleb128 0x2116
 3729 006f 19       		.uleb128 0x19
 3730 0070 01       		.uleb128 0x1
 3731 0071 13       		.uleb128 0x13
 3732 0072 00       		.byte	0
 3733 0073 00       		.byte	0
 3734 0074 0A       		.uleb128 0xa
 3735 0075 34       		.uleb128 0x34
 3736 0076 00       		.byte	0
 3737 0077 03       		.uleb128 0x3
 3738 0078 0E       		.uleb128 0xe
 3739 0079 3A       		.uleb128 0x3a
 3740 007a 0B       		.uleb128 0xb
 3741 007b 3B       		.uleb128 0x3b
 3742 007c 0B       		.uleb128 0xb
 3743 007d 49       		.uleb128 0x49
 3744 007e 13       		.uleb128 0x13
 3745 007f 02       		.uleb128 0x2
 3746 0080 18       		.uleb128 0x18
 3747 0081 00       		.byte	0
 3748 0082 00       		.byte	0
 3749 0083 0B       		.uleb128 0xb
 3750 0084 2E       		.uleb128 0x2e
 3751 0085 01       		.byte	0x1
 3752 0086 3F       		.uleb128 0x3f
 3753 0087 19       		.uleb128 0x19
 3754 0088 03       		.uleb128 0x3
 3755 0089 0E       		.uleb128 0xe
 3756 008a 3A       		.uleb128 0x3a
 3757 008b 0B       		.uleb128 0xb
 3758 008c 3B       		.uleb128 0x3b
 3759 008d 05       		.uleb128 0x5
 3760 008e 27       		.uleb128 0x27
 3761 008f 19       		.uleb128 0x19
 3762 0090 11       		.uleb128 0x11
 3763 0091 01       		.uleb128 0x1
 3764 0092 12       		.uleb128 0x12
 3765 0093 06       		.uleb128 0x6
 3766 0094 40       		.uleb128 0x40
 3767 0095 18       		.uleb128 0x18
 3768 0096 9642     		.uleb128 0x2116
 3769 0098 19       		.uleb128 0x19
 3770 0099 01       		.uleb128 0x1
 3771 009a 13       		.uleb128 0x13
 3772 009b 00       		.byte	0
ARM GAS  C:\Users\mitchell\AppData\Local\Temp\cc5pMFOa.s 			page 108


 3773 009c 00       		.byte	0
 3774 009d 0C       		.uleb128 0xc
 3775 009e 34       		.uleb128 0x34
 3776 009f 00       		.byte	0
 3777 00a0 03       		.uleb128 0x3
 3778 00a1 0E       		.uleb128 0xe
 3779 00a2 3A       		.uleb128 0x3a
 3780 00a3 0B       		.uleb128 0xb
 3781 00a4 3B       		.uleb128 0x3b
 3782 00a5 05       		.uleb128 0x5
 3783 00a6 49       		.uleb128 0x49
 3784 00a7 13       		.uleb128 0x13
 3785 00a8 02       		.uleb128 0x2
 3786 00a9 18       		.uleb128 0x18
 3787 00aa 00       		.byte	0
 3788 00ab 00       		.byte	0
 3789 00ac 0D       		.uleb128 0xd
 3790 00ad 2E       		.uleb128 0x2e
 3791 00ae 00       		.byte	0
 3792 00af 3F       		.uleb128 0x3f
 3793 00b0 19       		.uleb128 0x19
 3794 00b1 03       		.uleb128 0x3
 3795 00b2 0E       		.uleb128 0xe
 3796 00b3 3A       		.uleb128 0x3a
 3797 00b4 0B       		.uleb128 0xb
 3798 00b5 3B       		.uleb128 0x3b
 3799 00b6 05       		.uleb128 0x5
 3800 00b7 27       		.uleb128 0x27
 3801 00b8 19       		.uleb128 0x19
 3802 00b9 11       		.uleb128 0x11
 3803 00ba 01       		.uleb128 0x1
 3804 00bb 12       		.uleb128 0x12
 3805 00bc 06       		.uleb128 0x6
 3806 00bd 40       		.uleb128 0x40
 3807 00be 18       		.uleb128 0x18
 3808 00bf 9642     		.uleb128 0x2116
 3809 00c1 19       		.uleb128 0x19
 3810 00c2 00       		.byte	0
 3811 00c3 00       		.byte	0
 3812 00c4 0E       		.uleb128 0xe
 3813 00c5 2E       		.uleb128 0x2e
 3814 00c6 01       		.byte	0x1
 3815 00c7 3F       		.uleb128 0x3f
 3816 00c8 19       		.uleb128 0x19
 3817 00c9 03       		.uleb128 0x3
 3818 00ca 0E       		.uleb128 0xe
 3819 00cb 3A       		.uleb128 0x3a
 3820 00cc 0B       		.uleb128 0xb
 3821 00cd 3B       		.uleb128 0x3b
 3822 00ce 05       		.uleb128 0x5
 3823 00cf 27       		.uleb128 0x27
 3824 00d0 19       		.uleb128 0x19
 3825 00d1 49       		.uleb128 0x49
 3826 00d2 13       		.uleb128 0x13
 3827 00d3 11       		.uleb128 0x11
 3828 00d4 01       		.uleb128 0x1
 3829 00d5 12       		.uleb128 0x12
ARM GAS  C:\Users\mitchell\AppData\Local\Temp\cc5pMFOa.s 			page 109


 3830 00d6 06       		.uleb128 0x6
 3831 00d7 40       		.uleb128 0x40
 3832 00d8 18       		.uleb128 0x18
 3833 00d9 9642     		.uleb128 0x2116
 3834 00db 19       		.uleb128 0x19
 3835 00dc 01       		.uleb128 0x1
 3836 00dd 13       		.uleb128 0x13
 3837 00de 00       		.byte	0
 3838 00df 00       		.byte	0
 3839 00e0 0F       		.uleb128 0xf
 3840 00e1 05       		.uleb128 0x5
 3841 00e2 00       		.byte	0
 3842 00e3 03       		.uleb128 0x3
 3843 00e4 0E       		.uleb128 0xe
 3844 00e5 3A       		.uleb128 0x3a
 3845 00e6 0B       		.uleb128 0xb
 3846 00e7 3B       		.uleb128 0x3b
 3847 00e8 05       		.uleb128 0x5
 3848 00e9 49       		.uleb128 0x49
 3849 00ea 13       		.uleb128 0x13
 3850 00eb 02       		.uleb128 0x2
 3851 00ec 18       		.uleb128 0x18
 3852 00ed 00       		.byte	0
 3853 00ee 00       		.byte	0
 3854 00ef 10       		.uleb128 0x10
 3855 00f0 2E       		.uleb128 0x2e
 3856 00f1 00       		.byte	0
 3857 00f2 3F       		.uleb128 0x3f
 3858 00f3 19       		.uleb128 0x19
 3859 00f4 03       		.uleb128 0x3
 3860 00f5 0E       		.uleb128 0xe
 3861 00f6 3A       		.uleb128 0x3a
 3862 00f7 0B       		.uleb128 0xb
 3863 00f8 3B       		.uleb128 0x3b
 3864 00f9 05       		.uleb128 0x5
 3865 00fa 27       		.uleb128 0x27
 3866 00fb 19       		.uleb128 0x19
 3867 00fc 49       		.uleb128 0x49
 3868 00fd 13       		.uleb128 0x13
 3869 00fe 11       		.uleb128 0x11
 3870 00ff 01       		.uleb128 0x1
 3871 0100 12       		.uleb128 0x12
 3872 0101 06       		.uleb128 0x6
 3873 0102 40       		.uleb128 0x40
 3874 0103 18       		.uleb128 0x18
 3875 0104 9742     		.uleb128 0x2117
 3876 0106 19       		.uleb128 0x19
 3877 0107 00       		.byte	0
 3878 0108 00       		.byte	0
 3879 0109 11       		.uleb128 0x11
 3880 010a 2E       		.uleb128 0x2e
 3881 010b 01       		.byte	0x1
 3882 010c 3F       		.uleb128 0x3f
 3883 010d 19       		.uleb128 0x19
 3884 010e 03       		.uleb128 0x3
 3885 010f 0E       		.uleb128 0xe
 3886 0110 3A       		.uleb128 0x3a
ARM GAS  C:\Users\mitchell\AppData\Local\Temp\cc5pMFOa.s 			page 110


 3887 0111 0B       		.uleb128 0xb
 3888 0112 3B       		.uleb128 0x3b
 3889 0113 05       		.uleb128 0x5
 3890 0114 27       		.uleb128 0x27
 3891 0115 19       		.uleb128 0x19
 3892 0116 49       		.uleb128 0x49
 3893 0117 13       		.uleb128 0x13
 3894 0118 11       		.uleb128 0x11
 3895 0119 01       		.uleb128 0x1
 3896 011a 12       		.uleb128 0x12
 3897 011b 06       		.uleb128 0x6
 3898 011c 40       		.uleb128 0x40
 3899 011d 18       		.uleb128 0x18
 3900 011e 9742     		.uleb128 0x2117
 3901 0120 19       		.uleb128 0x19
 3902 0121 01       		.uleb128 0x1
 3903 0122 13       		.uleb128 0x13
 3904 0123 00       		.byte	0
 3905 0124 00       		.byte	0
 3906 0125 12       		.uleb128 0x12
 3907 0126 2E       		.uleb128 0x2e
 3908 0127 01       		.byte	0x1
 3909 0128 3F       		.uleb128 0x3f
 3910 0129 19       		.uleb128 0x19
 3911 012a 03       		.uleb128 0x3
 3912 012b 0E       		.uleb128 0xe
 3913 012c 3A       		.uleb128 0x3a
 3914 012d 0B       		.uleb128 0xb
 3915 012e 3B       		.uleb128 0x3b
 3916 012f 05       		.uleb128 0x5
 3917 0130 27       		.uleb128 0x27
 3918 0131 19       		.uleb128 0x19
 3919 0132 11       		.uleb128 0x11
 3920 0133 01       		.uleb128 0x1
 3921 0134 12       		.uleb128 0x12
 3922 0135 06       		.uleb128 0x6
 3923 0136 40       		.uleb128 0x40
 3924 0137 18       		.uleb128 0x18
 3925 0138 9742     		.uleb128 0x2117
 3926 013a 19       		.uleb128 0x19
 3927 013b 01       		.uleb128 0x1
 3928 013c 13       		.uleb128 0x13
 3929 013d 00       		.byte	0
 3930 013e 00       		.byte	0
 3931 013f 13       		.uleb128 0x13
 3932 0140 34       		.uleb128 0x34
 3933 0141 00       		.byte	0
 3934 0142 03       		.uleb128 0x3
 3935 0143 0E       		.uleb128 0xe
 3936 0144 3A       		.uleb128 0x3a
 3937 0145 0B       		.uleb128 0xb
 3938 0146 3B       		.uleb128 0x3b
 3939 0147 0B       		.uleb128 0xb
 3940 0148 49       		.uleb128 0x49
 3941 0149 13       		.uleb128 0x13
 3942 014a 3F       		.uleb128 0x3f
 3943 014b 19       		.uleb128 0x19
ARM GAS  C:\Users\mitchell\AppData\Local\Temp\cc5pMFOa.s 			page 111


 3944 014c 02       		.uleb128 0x2
 3945 014d 18       		.uleb128 0x18
 3946 014e 00       		.byte	0
 3947 014f 00       		.byte	0
 3948 0150 14       		.uleb128 0x14
 3949 0151 01       		.uleb128 0x1
 3950 0152 01       		.byte	0x1
 3951 0153 49       		.uleb128 0x49
 3952 0154 13       		.uleb128 0x13
 3953 0155 01       		.uleb128 0x1
 3954 0156 13       		.uleb128 0x13
 3955 0157 00       		.byte	0
 3956 0158 00       		.byte	0
 3957 0159 15       		.uleb128 0x15
 3958 015a 21       		.uleb128 0x21
 3959 015b 00       		.byte	0
 3960 015c 49       		.uleb128 0x49
 3961 015d 13       		.uleb128 0x13
 3962 015e 2F       		.uleb128 0x2f
 3963 015f 0B       		.uleb128 0xb
 3964 0160 00       		.byte	0
 3965 0161 00       		.byte	0
 3966 0162 16       		.uleb128 0x16
 3967 0163 34       		.uleb128 0x34
 3968 0164 00       		.byte	0
 3969 0165 03       		.uleb128 0x3
 3970 0166 0E       		.uleb128 0xe
 3971 0167 3A       		.uleb128 0x3a
 3972 0168 0B       		.uleb128 0xb
 3973 0169 3B       		.uleb128 0x3b
 3974 016a 05       		.uleb128 0x5
 3975 016b 49       		.uleb128 0x49
 3976 016c 13       		.uleb128 0x13
 3977 016d 3F       		.uleb128 0x3f
 3978 016e 19       		.uleb128 0x19
 3979 016f 3C       		.uleb128 0x3c
 3980 0170 19       		.uleb128 0x19
 3981 0171 00       		.byte	0
 3982 0172 00       		.byte	0
 3983 0173 00       		.byte	0
 3984              		.section	.debug_aranges,"",%progbits
 3985 0000 14010000 		.4byte	0x114
 3986 0004 0200     		.2byte	0x2
 3987 0006 00000000 		.4byte	.Ldebug_info0
 3988 000a 04       		.byte	0x4
 3989 000b 00       		.byte	0
 3990 000c 0000     		.2byte	0
 3991 000e 0000     		.2byte	0
 3992 0010 00000000 		.4byte	.LFB33
 3993 0014 3C000000 		.4byte	.LFE33-.LFB33
 3994 0018 00000000 		.4byte	.LFB34
 3995 001c CC000000 		.4byte	.LFE34-.LFB34
 3996 0020 00000000 		.4byte	.LFB35
 3997 0024 50000000 		.4byte	.LFE35-.LFB35
 3998 0028 00000000 		.4byte	.LFB36
 3999 002c 34000000 		.4byte	.LFE36-.LFB36
 4000 0030 00000000 		.4byte	.LFB37
ARM GAS  C:\Users\mitchell\AppData\Local\Temp\cc5pMFOa.s 			page 112


 4001 0034 2C000000 		.4byte	.LFE37-.LFB37
 4002 0038 00000000 		.4byte	.LFB38
 4003 003c 48000000 		.4byte	.LFE38-.LFB38
 4004 0040 00000000 		.4byte	.LFB39
 4005 0044 34000000 		.4byte	.LFE39-.LFB39
 4006 0048 00000000 		.4byte	.LFB40
 4007 004c DC000000 		.4byte	.LFE40-.LFB40
 4008 0050 00000000 		.4byte	.LFB41
 4009 0054 58000000 		.4byte	.LFE41-.LFB41
 4010 0058 00000000 		.4byte	.LFB42
 4011 005c 1C000000 		.4byte	.LFE42-.LFB42
 4012 0060 00000000 		.4byte	.LFB43
 4013 0064 1C000000 		.4byte	.LFE43-.LFB43
 4014 0068 00000000 		.4byte	.LFB44
 4015 006c 24000000 		.4byte	.LFE44-.LFB44
 4016 0070 00000000 		.4byte	.LFB45
 4017 0074 18000000 		.4byte	.LFE45-.LFB45
 4018 0078 00000000 		.4byte	.LFB46
 4019 007c 26000000 		.4byte	.LFE46-.LFB46
 4020 0080 00000000 		.4byte	.LFB47
 4021 0084 CC000000 		.4byte	.LFE47-.LFB47
 4022 0088 00000000 		.4byte	.LFB48
 4023 008c 20010000 		.4byte	.LFE48-.LFB48
 4024 0090 00000000 		.4byte	.LFB49
 4025 0094 6C000000 		.4byte	.LFE49-.LFB49
 4026 0098 00000000 		.4byte	.LFB50
 4027 009c 38000000 		.4byte	.LFE50-.LFB50
 4028 00a0 00000000 		.4byte	.LFB51
 4029 00a4 5C000000 		.4byte	.LFE51-.LFB51
 4030 00a8 00000000 		.4byte	.LFB52
 4031 00ac D4000000 		.4byte	.LFE52-.LFB52
 4032 00b0 00000000 		.4byte	.LFB53
 4033 00b4 70000000 		.4byte	.LFE53-.LFB53
 4034 00b8 00000000 		.4byte	.LFB54
 4035 00bc 80000000 		.4byte	.LFE54-.LFB54
 4036 00c0 00000000 		.4byte	.LFB55
 4037 00c4 30000000 		.4byte	.LFE55-.LFB55
 4038 00c8 00000000 		.4byte	.LFB56
 4039 00cc 2C000000 		.4byte	.LFE56-.LFB56
 4040 00d0 00000000 		.4byte	.LFB57
 4041 00d4 44000000 		.4byte	.LFE57-.LFB57
 4042 00d8 00000000 		.4byte	.LFB58
 4043 00dc 68000000 		.4byte	.LFE58-.LFB58
 4044 00e0 00000000 		.4byte	.LFB59
 4045 00e4 12000000 		.4byte	.LFE59-.LFB59
 4046 00e8 00000000 		.4byte	.LFB60
 4047 00ec 12000000 		.4byte	.LFE60-.LFB60
 4048 00f0 00000000 		.4byte	.LFB61
 4049 00f4 1C000000 		.4byte	.LFE61-.LFB61
 4050 00f8 00000000 		.4byte	.LFB62
 4051 00fc 20000000 		.4byte	.LFE62-.LFB62
 4052 0100 00000000 		.4byte	.LFB63
 4053 0104 20000000 		.4byte	.LFE63-.LFB63
 4054 0108 00000000 		.4byte	.LFB64
 4055 010c 9C000000 		.4byte	.LFE64-.LFB64
 4056 0110 00000000 		.4byte	0
 4057 0114 00000000 		.4byte	0
ARM GAS  C:\Users\mitchell\AppData\Local\Temp\cc5pMFOa.s 			page 113


 4058              		.section	.debug_ranges,"",%progbits
 4059              	.Ldebug_ranges0:
 4060 0000 00000000 		.4byte	.LFB33
 4061 0004 3C000000 		.4byte	.LFE33
 4062 0008 00000000 		.4byte	.LFB34
 4063 000c CC000000 		.4byte	.LFE34
 4064 0010 00000000 		.4byte	.LFB35
 4065 0014 50000000 		.4byte	.LFE35
 4066 0018 00000000 		.4byte	.LFB36
 4067 001c 34000000 		.4byte	.LFE36
 4068 0020 00000000 		.4byte	.LFB37
 4069 0024 2C000000 		.4byte	.LFE37
 4070 0028 00000000 		.4byte	.LFB38
 4071 002c 48000000 		.4byte	.LFE38
 4072 0030 00000000 		.4byte	.LFB39
 4073 0034 34000000 		.4byte	.LFE39
 4074 0038 00000000 		.4byte	.LFB40
 4075 003c DC000000 		.4byte	.LFE40
 4076 0040 00000000 		.4byte	.LFB41
 4077 0044 58000000 		.4byte	.LFE41
 4078 0048 00000000 		.4byte	.LFB42
 4079 004c 1C000000 		.4byte	.LFE42
 4080 0050 00000000 		.4byte	.LFB43
 4081 0054 1C000000 		.4byte	.LFE43
 4082 0058 00000000 		.4byte	.LFB44
 4083 005c 24000000 		.4byte	.LFE44
 4084 0060 00000000 		.4byte	.LFB45
 4085 0064 18000000 		.4byte	.LFE45
 4086 0068 00000000 		.4byte	.LFB46
 4087 006c 26000000 		.4byte	.LFE46
 4088 0070 00000000 		.4byte	.LFB47
 4089 0074 CC000000 		.4byte	.LFE47
 4090 0078 00000000 		.4byte	.LFB48
 4091 007c 20010000 		.4byte	.LFE48
 4092 0080 00000000 		.4byte	.LFB49
 4093 0084 6C000000 		.4byte	.LFE49
 4094 0088 00000000 		.4byte	.LFB50
 4095 008c 38000000 		.4byte	.LFE50
 4096 0090 00000000 		.4byte	.LFB51
 4097 0094 5C000000 		.4byte	.LFE51
 4098 0098 00000000 		.4byte	.LFB52
 4099 009c D4000000 		.4byte	.LFE52
 4100 00a0 00000000 		.4byte	.LFB53
 4101 00a4 70000000 		.4byte	.LFE53
 4102 00a8 00000000 		.4byte	.LFB54
 4103 00ac 80000000 		.4byte	.LFE54
 4104 00b0 00000000 		.4byte	.LFB55
 4105 00b4 30000000 		.4byte	.LFE55
 4106 00b8 00000000 		.4byte	.LFB56
 4107 00bc 2C000000 		.4byte	.LFE56
 4108 00c0 00000000 		.4byte	.LFB57
 4109 00c4 44000000 		.4byte	.LFE57
 4110 00c8 00000000 		.4byte	.LFB58
 4111 00cc 68000000 		.4byte	.LFE58
 4112 00d0 00000000 		.4byte	.LFB59
 4113 00d4 12000000 		.4byte	.LFE59
 4114 00d8 00000000 		.4byte	.LFB60
ARM GAS  C:\Users\mitchell\AppData\Local\Temp\cc5pMFOa.s 			page 114


 4115 00dc 12000000 		.4byte	.LFE60
 4116 00e0 00000000 		.4byte	.LFB61
 4117 00e4 1C000000 		.4byte	.LFE61
 4118 00e8 00000000 		.4byte	.LFB62
 4119 00ec 20000000 		.4byte	.LFE62
 4120 00f0 00000000 		.4byte	.LFB63
 4121 00f4 20000000 		.4byte	.LFE63
 4122 00f8 00000000 		.4byte	.LFB64
 4123 00fc 9C000000 		.4byte	.LFE64
 4124 0100 00000000 		.4byte	0
 4125 0104 00000000 		.4byte	0
 4126              		.section	.debug_line,"",%progbits
 4127              	.Ldebug_line0:
 4128 0000 08040000 		.section	.debug_str,"MS",%progbits,1
 4128      02005E00 
 4128      00000201 
 4128      FB0E0D00 
 4128      01010101 
 4129              	.LASF20:
 4130 0000 63757253 		.ascii	"curSensor\000"
 4130      656E736F 
 4130      7200
 4131              	.LASF10:
 4132 000a 75696E74 		.ascii	"uint16\000"
 4132      313600
 4133              	.LASF75:
 4134 0011 43617053 		.ascii	"CapSense_1_GetIDACRange\000"
 4134      656E7365 
 4134      5F315F47 
 4134      65744944 
 4134      41435261 
 4135              	.LASF67:
 4136 0029 7461626C 		.ascii	"table\000"
 4136      6500
 4137              	.LASF89:
 4138 002f 43617053 		.ascii	"CapSense_1_modulationIDAC\000"
 4138      656E7365 
 4138      5F315F6D 
 4138      6F64756C 
 4138      6174696F 
 4139              	.LASF95:
 4140 0049 43617053 		.ascii	"CapSense_1_prtCfgTbl\000"
 4140      656E7365 
 4140      5F315F70 
 4140      72744366 
 4140      6754626C 
 4141              	.LASF27:
 4142 005e 736E7349 		.ascii	"snsIndex\000"
 4142      6E646578 
 4142      00
 4143              	.LASF83:
 4144 0067 43617053 		.ascii	"CapSense_1_csdStatusVar\000"
 4144      656E7365 
 4144      5F315F63 
 4144      73645374 
 4144      61747573 
 4145              	.LASF24:
ARM GAS  C:\Users\mitchell\AppData\Local\Temp\cc5pMFOa.s 			page 115


 4146 007f 43617053 		.ascii	"CapSense_1_initVar\000"
 4146      656E7365 
 4146      5F315F69 
 4146      6E697456 
 4146      617200
 4147              	.LASF7:
 4148 0092 6C6F6E67 		.ascii	"long long unsigned int\000"
 4148      206C6F6E 
 4148      6720756E 
 4148      7369676E 
 4148      65642069 
 4149              	.LASF92:
 4150 00a9 43617053 		.ascii	"CapSense_1_sampleClkDividerVal\000"
 4150      656E7365 
 4150      5F315F73 
 4150      616D706C 
 4150      65436C6B 
 4151              	.LASF63:
 4152 00c8 64656C61 		.ascii	"delay\000"
 4152      7900
 4153              	.LASF42:
 4154 00ce 70696E4D 		.ascii	"pinModeShift\000"
 4154      6F646553 
 4154      68696674 
 4154      00
 4155              	.LASF6:
 4156 00db 6C6F6E67 		.ascii	"long long int\000"
 4156      206C6F6E 
 4156      6720696E 
 4156      7400
 4157              	.LASF0:
 4158 00e9 7369676E 		.ascii	"signed char\000"
 4158      65642063 
 4158      68617200 
 4159              	.LASF44:
 4160 00f5 696E7465 		.ascii	"interruptState\000"
 4160      72727570 
 4160      74537461 
 4160      746500
 4161              	.LASF54:
 4162 0104 43617053 		.ascii	"CapSense_1_RestoreDriveModeAllPins\000"
 4162      656E7365 
 4162      5F315F52 
 4162      6573746F 
 4162      72654472 
 4163              	.LASF96:
 4164 0127 43617053 		.ascii	"CapSense_1_prtDRTbl\000"
 4164      656E7365 
 4164      5F315F70 
 4164      72744452 
 4164      54626C00 
 4165              	.LASF91:
 4166 013b 43617053 		.ascii	"CapSense_1_senseClkDividerVal\000"
 4166      656E7365 
 4166      5F315F73 
 4166      656E7365 
 4166      436C6B44 
ARM GAS  C:\Users\mitchell\AppData\Local\Temp\cc5pMFOa.s 			page 116


 4167              	.LASF4:
 4168 0159 6C6F6E67 		.ascii	"long int\000"
 4168      20696E74 
 4168      00
 4169              	.LASF61:
 4170 0162 43617053 		.ascii	"CapSense_1_EnableShieldElectrode\000"
 4170      656E7365 
 4170      5F315F45 
 4170      6E61626C 
 4170      65536869 
 4171              	.LASF60:
 4172 0183 43617053 		.ascii	"CapSense_1_PostScan\000"
 4172      656E7365 
 4172      5F315F50 
 4172      6F737453 
 4172      63616E00 
 4173              	.LASF9:
 4174 0197 75696E74 		.ascii	"uint8\000"
 4174      3800
 4175              	.LASF106:
 4176 019d 433A5C55 		.ascii	"C:\\Users\\mitchell\\Documents\\fsae\\E-Throttle\\E"
 4176      73657273 
 4176      5C6D6974 
 4176      6368656C 
 4176      6C5C446F 
 4177 01ca 2D546872 		.ascii	"-Throttle\\ExampleProject1\\Lab Solutions\\Lab 3 Ca"
 4177      6F74746C 
 4177      655C4578 
 4177      616D706C 
 4177      6550726F 
 4178 01fa 7053656E 		.ascii	"pSense UART.cydsn\000"
 4178      73652055 
 4178      4152542E 
 4178      63796473 
 4178      6E00
 4179              	.LASF48:
 4180 020c 696E6163 		.ascii	"inactiveConnect\000"
 4180      74697665 
 4180      436F6E6E 
 4180      65637400 
 4181              	.LASF13:
 4182 021c 646F7562 		.ascii	"double\000"
 4182      6C6500
 4183              	.LASF18:
 4184 0223 43617053 		.ascii	"CapSense_1_Init\000"
 4184      656E7365 
 4184      5F315F49 
 4184      6E697400 
 4185              	.LASF59:
 4186 0233 636F756E 		.ascii	"counterResolution\000"
 4186      74657252 
 4186      65736F6C 
 4186      7574696F 
 4186      6E00
 4187              	.LASF78:
 4188 0245 77696467 		.ascii	"widgetsNum\000"
 4188      6574734E 
ARM GAS  C:\Users\mitchell\AppData\Local\Temp\cc5pMFOa.s 			page 117


 4188      756D00
 4189              	.LASF21:
 4190 0250 6E657752 		.ascii	"newRegValue\000"
 4190      65675661 
 4190      6C756500 
 4191              	.LASF11:
 4192 025c 75696E74 		.ascii	"uint32\000"
 4192      333200
 4193              	.LASF26:
 4194 0263 43617053 		.ascii	"CapSense_1_ScanSensor\000"
 4194      656E7365 
 4194      5F315F53 
 4194      63616E53 
 4194      656E736F 
 4195              	.LASF101:
 4196 0279 43617053 		.ascii	"CapSense_1_rawDataIndex\000"
 4196      656E7365 
 4196      5F315F72 
 4196      61774461 
 4196      7461496E 
 4197              	.LASF36:
 4198 0291 43617053 		.ascii	"CapSense_1_ReadSensorRaw\000"
 4198      656E7365 
 4198      5F315F52 
 4198      65616453 
 4198      656E736F 
 4199              	.LASF46:
 4200 02aa 706F7274 		.ascii	"port\000"
 4200      00
 4201              	.LASF38:
 4202 02af 76616C75 		.ascii	"value\000"
 4202      6500
 4203              	.LASF32:
 4204 02b5 6C617374 		.ascii	"lastSensor\000"
 4204      53656E73 
 4204      6F7200
 4205              	.LASF52:
 4206 02c0 7072744E 		.ascii	"prtNumberTmp\000"
 4206      756D6265 
 4206      72546D70 
 4206      00
 4207              	.LASF8:
 4208 02cd 756E7369 		.ascii	"unsigned int\000"
 4208      676E6564 
 4208      20696E74 
 4208      00
 4209              	.LASF68:
 4210 02da 706F7369 		.ascii	"position\000"
 4210      74696F6E 
 4210      00
 4211              	.LASF80:
 4212 02e3 63757272 		.ascii	"currentWidget\000"
 4212      656E7457 
 4212      69646765 
 4212      7400
 4213              	.LASF100:
 4214 02f1 43617053 		.ascii	"CapSense_1_pinShiftTbl\000"
ARM GAS  C:\Users\mitchell\AppData\Local\Temp\cc5pMFOa.s 			page 118


 4214      656E7365 
 4214      5F315F70 
 4214      696E5368 
 4214      69667454 
 4215              	.LASF62:
 4216 0308 43617053 		.ascii	"CapSense_1_SetShieldDelay\000"
 4216      656E7365 
 4216      5F315F53 
 4216      65745368 
 4216      69656C64 
 4217              	.LASF34:
 4218 0322 43617053 		.ascii	"CapSense_1_ScanEnabledWidgets\000"
 4218      656E7365 
 4218      5F315F53 
 4218      63616E45 
 4218      6E61626C 
 4219              	.LASF5:
 4220 0340 6C6F6E67 		.ascii	"long unsigned int\000"
 4220      20756E73 
 4220      69676E65 
 4220      6420696E 
 4220      7400
 4221              	.LASF84:
 4222 0352 43617053 		.ascii	"CapSense_1_sensorIndex\000"
 4222      656E7365 
 4222      5F315F73 
 4222      656E736F 
 4222      72496E64 
 4223              	.LASF3:
 4224 0369 73686F72 		.ascii	"short unsigned int\000"
 4224      7420756E 
 4224      7369676E 
 4224      65642069 
 4224      6E7400
 4225              	.LASF28:
 4226 037c 73656E73 		.ascii	"sensor\000"
 4226      6F7200
 4227              	.LASF66:
 4228 0383 43617053 		.ascii	"CapSense_1_GetBitValue\000"
 4228      656E7365 
 4228      5F315F47 
 4228      65744269 
 4228      7456616C 
 4229              	.LASF19:
 4230 039a 43617053 		.ascii	"CapSense_1_CsdHwBlockInit\000"
 4230      656E7365 
 4230      5F315F43 
 4230      73644877 
 4230      426C6F63 
 4231              	.LASF102:
 4232 03b4 43617053 		.ascii	"CapSense_1_numberOfSensors\000"
 4232      656E7365 
 4232      5F315F6E 
 4232      756D6265 
 4232      724F6653 
 4233              	.LASF57:
 4234 03cf 706F7274 		.ascii	"portNumber\000"
ARM GAS  C:\Users\mitchell\AppData\Local\Temp\cc5pMFOa.s 			page 119


 4234      4E756D62 
 4234      657200
 4235              	.LASF76:
 4236 03da 43617053 		.ascii	"CapSense_1_SetUnscannedSensorState\000"
 4236      656E7365 
 4236      5F315F53 
 4236      6574556E 
 4236      7363616E 
 4237              	.LASF58:
 4238 03fd 43617053 		.ascii	"CapSense_1_PreScan\000"
 4238      656E7365 
 4238      5F315F50 
 4238      72655363 
 4238      616E00
 4239              	.LASF16:
 4240 0410 72656733 		.ascii	"reg32\000"
 4240      3200
 4241              	.LASF88:
 4242 0416 43617053 		.ascii	"CapSense_1_sensorEnableMask\000"
 4242      656E7365 
 4242      5F315F73 
 4242      656E736F 
 4242      72456E61 
 4243              	.LASF71:
 4244 0432 43617053 		.ascii	"CapSense_1_SetBitValue\000"
 4244      656E7365 
 4244      5F315F53 
 4244      65744269 
 4244      7456616C 
 4245              	.LASF50:
 4246 0449 43617053 		.ascii	"CapSense_1_SetDriveModeAllPins\000"
 4246      656E7365 
 4246      5F315F53 
 4246      65744472 
 4246      6976654D 
 4247              	.LASF17:
 4248 0468 73697A65 		.ascii	"sizetype\000"
 4248      74797065 
 4248      00
 4249              	.LASF99:
 4250 0471 43617053 		.ascii	"CapSense_1_maskTable\000"
 4250      656E7365 
 4250      5F315F6D 
 4250      61736B54 
 4250      61626C65 
 4251              	.LASF51:
 4252 0486 64726976 		.ascii	"driveMode\000"
 4252      654D6F64 
 4252      6500
 4253              	.LASF87:
 4254 0490 43617053 		.ascii	"CapSense_1_sensorEnableMaskBackup\000"
 4254      656E7365 
 4254      5F315F73 
 4254      656E736F 
 4254      72456E61 
 4255              	.LASF29:
 4256 04b2 43617053 		.ascii	"CapSense_1_ScanWidget\000"
ARM GAS  C:\Users\mitchell\AppData\Local\Temp\cc5pMFOa.s 			page 120


 4256      656E7365 
 4256      5F315F53 
 4256      63616E57 
 4256      69646765 
 4257              	.LASF93:
 4258 04c8 43617053 		.ascii	"CapSense_1_widgetNumber\000"
 4258      656E7365 
 4258      5F315F77 
 4258      69646765 
 4258      744E756D 
 4259              	.LASF70:
 4260 04e0 656E4D61 		.ascii	"enMask\000"
 4260      736B00
 4261              	.LASF79:
 4262 04e7 64617461 		.ascii	"dataPtr\000"
 4262      50747200 
 4263              	.LASF85:
 4264 04ef 43617053 		.ascii	"CapSense_1_sensorRaw\000"
 4264      656E7365 
 4264      5F315F73 
 4264      656E736F 
 4264      72526177 
 4265              	.LASF98:
 4266 0504 43617053 		.ascii	"CapSense_1_portTable\000"
 4266      656E7365 
 4266      5F315F70 
 4266      6F727454 
 4266      61626C65 
 4267              	.LASF39:
 4268 0519 43617053 		.ascii	"CapSense_1_GetScanResolution\000"
 4268      656E7365 
 4268      5F315F47 
 4268      65745363 
 4268      616E5265 
 4269              	.LASF97:
 4270 0536 43617053 		.ascii	"CapSense_1_pcTable\000"
 4270      656E7365 
 4270      5F315F70 
 4270      63546162 
 4270      6C6500
 4271              	.LASF12:
 4272 0549 666C6F61 		.ascii	"float\000"
 4272      7400
 4273              	.LASF104:
 4274 054f 474E5520 		.ascii	"GNU C 4.8.4 20140526 (release) [ARM/embedded-4_8-br"
 4274      4320342E 
 4274      382E3420 
 4274      32303134 
 4274      30353236 
 4275 0582 616E6368 		.ascii	"anch revision 211358] -mcpu=cortex-m0 -mthumb -g -O"
 4275      20726576 
 4275      6973696F 
 4275      6E203231 
 4275      31333538 
 4276 05b5 30202D66 		.ascii	"0 -ffunction-sections\000"
 4276      66756E63 
 4276      74696F6E 
ARM GAS  C:\Users\mitchell\AppData\Local\Temp\cc5pMFOa.s 			page 121


 4276      2D736563 
 4276      74696F6E 
 4277              	.LASF56:
 4278 05cb 70696E4E 		.ascii	"pinNumber\000"
 4278      756D6265 
 4278      7200
 4279              	.LASF15:
 4280 05d5 72656738 		.ascii	"reg8\000"
 4280      00
 4281              	.LASF103:
 4282 05da 43617053 		.ascii	"CapSense_1_csdTrim1\000"
 4282      656E7365 
 4282      5F315F63 
 4282      73645472 
 4282      696D3100 
 4283              	.LASF1:
 4284 05ee 756E7369 		.ascii	"unsigned char\000"
 4284      676E6564 
 4284      20636861 
 4284      7200
 4285              	.LASF43:
 4286 05fc 70696E48 		.ascii	"pinHSIOMShift\000"
 4286      53494F4D 
 4286      53686966 
 4286      7400
 4287              	.LASF53:
 4288 060a 70696E4E 		.ascii	"pinNumberTmp\000"
 4288      756D6265 
 4288      72546D70 
 4288      00
 4289              	.LASF2:
 4290 0617 73686F72 		.ascii	"short int\000"
 4290      7420696E 
 4290      7400
 4291              	.LASF30:
 4292 0621 77696467 		.ascii	"widget\000"
 4292      657400
 4293              	.LASF49:
 4294 0628 73656E73 		.ascii	"sensorState\000"
 4294      6F725374 
 4294      61746500 
 4295              	.LASF72:
 4296 0634 43617053 		.ascii	"CapSense_1_GetSenseClkDivider\000"
 4296      656E7365 
 4296      5F315F47 
 4296      65745365 
 4296      6E736543 
 4297              	.LASF35:
 4298 0652 43617053 		.ascii	"CapSense_1_FindNextSensor\000"
 4298      656E7365 
 4298      5F315F46 
 4298      696E644E 
 4298      65787453 
 4299              	.LASF31:
 4300 066c 73656E73 		.ascii	"sensorsPerWidget\000"
 4300      6F727350 
 4300      65725769 
ARM GAS  C:\Users\mitchell\AppData\Local\Temp\cc5pMFOa.s 			page 122


 4300      64676574 
 4300      00
 4301              	.LASF90:
 4302 067d 43617053 		.ascii	"CapSense_1_widgetResolution\000"
 4302      656E7365 
 4302      5F315F77 
 4302      69646765 
 4302      74526573 
 4303              	.LASF14:
 4304 0699 63686172 		.ascii	"char\000"
 4304      00
 4305              	.LASF25:
 4306 069e 656E6162 		.ascii	"enableFlag\000"
 4306      6C65466C 
 4306      616700
 4307              	.LASF81:
 4308 06a9 63757272 		.ascii	"currentSensor\000"
 4308      656E7453 
 4308      656E736F 
 4308      7200
 4309              	.LASF64:
 4310 06b7 43617053 		.ascii	"CapSense_1_IsBusy\000"
 4310      656E7365 
 4310      5F315F49 
 4310      73427573 
 4310      7900
 4311              	.LASF69:
 4312 06c9 6F666673 		.ascii	"offset\000"
 4312      657400
 4313              	.LASF82:
 4314 06d0 6D617850 		.ascii	"maxPerWidget\000"
 4314      65725769 
 4314      64676574 
 4314      00
 4315              	.LASF41:
 4316 06dd 43617053 		.ascii	"CapSense_1_EnableSensor\000"
 4316      656E7365 
 4316      5F315F45 
 4316      6E61626C 
 4316      6553656E 
 4317              	.LASF65:
 4318 06f5 43617053 		.ascii	"CapSense_1_ReadCurrentScanningSensor\000"
 4318      656E7365 
 4318      5F315F52 
 4318      65616443 
 4318      75727265 
 4319              	.LASF33:
 4320 071a 43617053 		.ascii	"CapSense_1_Stop\000"
 4320      656E7365 
 4320      5F315F53 
 4320      746F7000 
 4321              	.LASF94:
 4322 072a 43617053 		.ascii	"CapSense_1_prtSelTbl\000"
 4322      656E7365 
 4322      5F315F70 
 4322      72745365 
 4322      6C54626C 
ARM GAS  C:\Users\mitchell\AppData\Local\Temp\cc5pMFOa.s 			page 123


 4323              	.LASF74:
 4324 073f 43617053 		.ascii	"CapSense_1_GetModulationIDAC\000"
 4324      656E7365 
 4324      5F315F47 
 4324      65744D6F 
 4324      64756C61 
 4325              	.LASF86:
 4326 075c 43617053 		.ascii	"CapSense_1_unscannedSnsDriveMode\000"
 4326      656E7365 
 4326      5F315F75 
 4326      6E736361 
 4326      6E6E6564 
 4327              	.LASF55:
 4328 077d 43617053 		.ascii	"CapSense_1_SetPinDriveMode\000"
 4328      656E7365 
 4328      5F315F53 
 4328      65745069 
 4328      6E447269 
 4329              	.LASF23:
 4330 0798 43617053 		.ascii	"CapSense_1_Start\000"
 4330      656E7365 
 4330      5F315F53 
 4330      74617274 
 4330      00
 4331              	.LASF45:
 4332 07a9 6E657752 		.ascii	"newRegisterValue\000"
 4332      65676973 
 4332      74657256 
 4332      616C7565 
 4332      00
 4333              	.LASF37:
 4334 07ba 43617053 		.ascii	"CapSense_1_WriteSensorRaw\000"
 4334      656E7365 
 4334      5F315F57 
 4334      72697465 
 4334      53656E73 
 4335              	.LASF22:
 4336 07d4 43617053 		.ascii	"CapSense_1_Enable\000"
 4336      656E7365 
 4336      5F315F45 
 4336      6E61626C 
 4336      6500
 4337              	.LASF40:
 4338 07e6 43617053 		.ascii	"CapSense_1_ClearSensors\000"
 4338      656E7365 
 4338      5F315F43 
 4338      6C656172 
 4338      53656E73 
 4339              	.LASF47:
 4340 07fe 43617053 		.ascii	"CapSense_1_DisableSensor\000"
 4340      656E7365 
 4340      5F315F44 
 4340      69736162 
 4340      6C655365 
 4341              	.LASF73:
 4342 0817 43617053 		.ascii	"CapSense_1_GetModulatorClkDivider\000"
 4342      656E7365 
ARM GAS  C:\Users\mitchell\AppData\Local\Temp\cc5pMFOa.s 			page 124


 4342      5F315F47 
 4342      65744D6F 
 4342      64756C61 
 4343              	.LASF105:
 4344 0839 2E5C4765 		.ascii	".\\Generated_Source\\PSoC4\\CapSense_1.c\000"
 4344      6E657261 
 4344      7465645F 
 4344      536F7572 
 4344      63655C50 
 4345              	.LASF77:
 4346 085f 43617053 		.ascii	"CapSense_1_NormalizeWidgets\000"
 4346      656E7365 
 4346      5F315F4E 
 4346      6F726D61 
 4346      6C697A65 
 4347              		.ident	"GCC: (GNU Tools for ARM Embedded Processors) 4.8.4 20140526 (release) [ARM/embedded-4_8-br
