ARM GAS  C:\Users\mitchell\AppData\Local\Temp\cc5pMFOa.s 			page 1


   1              		.cpu cortex-m0
   2              		.fpu softvfp
   3              		.eabi_attribute 20, 1
   4              		.eabi_attribute 21, 1
   5              		.eabi_attribute 23, 3
   6              		.eabi_attribute 24, 1
   7              		.eabi_attribute 25, 1
   8              		.eabi_attribute 26, 1
   9              		.eabi_attribute 30, 6
  10              		.eabi_attribute 34, 0
  11              		.eabi_attribute 18, 4
  12              		.code	16
  13              		.file	"CapSense_1.c"
  14              		.text
  15              	.Ltext0:
  16              		.cfi_sections	.debug_frame
  17              		.global	CapSense_1_csdStatusVar
  18              		.bss
  19              		.type	CapSense_1_csdStatusVar, %object
  20              		.size	CapSense_1_csdStatusVar, 1
  21              	CapSense_1_csdStatusVar:
  22 0000 00       		.space	1
  23              		.global	CapSense_1_sensorIndex
  24              		.type	CapSense_1_sensorIndex, %object
  25              		.size	CapSense_1_sensorIndex, 1
  26              	CapSense_1_sensorIndex:
  27 0001 00       		.space	1
  28              		.global	CapSense_1_sensorRaw
  29 0002 0000     		.align	2
  30              		.type	CapSense_1_sensorRaw, %object
  31              		.size	CapSense_1_sensorRaw, 10
  32              	CapSense_1_sensorRaw:
  33 0004 00000000 		.space	10
  33      00000000 
  33      0000
  34              		.comm	CapSense_1_csdTrim1,1,1
  35              		.comm	CapSense_1_unscannedSnsDriveMode,5,4
  36              		.comm	CapSense_1_sensorEnableMaskBackup,1,4
  37              		.global	CapSense_1_sensorEnableMask
  38              		.data
  39              		.align	2
  40              		.type	CapSense_1_sensorEnableMask, %object
  41              		.size	CapSense_1_sensorEnableMask, 1
  42              	CapSense_1_sensorEnableMask:
  43 0000 1F       		.byte	31
  44              		.global	CapSense_1_pcTable
  45 0001 000000   		.align	2
  46              		.type	CapSense_1_pcTable, %object
  47              		.size	CapSense_1_pcTable, 20
  48              	CapSense_1_pcTable:
  49 0004 08010440 		.word	1074004232
  50 0008 08010440 		.word	1074004232
  51 000c 08010440 		.word	1074004232
  52 0010 08010440 		.word	1074004232
  53 0014 08010440 		.word	1074004232
  54              		.global	CapSense_1_portTable
  55              		.section	.rodata
ARM GAS  C:\Users\mitchell\AppData\Local\Temp\cc5pMFOa.s 			page 2


  56              		.align	2
  57              		.type	CapSense_1_portTable, %object
  58              		.size	CapSense_1_portTable, 5
  59              	CapSense_1_portTable:
  60 0000 01       		.byte	1
  61 0001 01       		.byte	1
  62 0002 01       		.byte	1
  63 0003 01       		.byte	1
  64 0004 01       		.byte	1
  65              		.global	CapSense_1_maskTable
  66 0005 000000   		.align	2
  67              		.type	CapSense_1_maskTable, %object
  68              		.size	CapSense_1_maskTable, 20
  69              	CapSense_1_maskTable:
  70 0008 02000000 		.word	2
  71 000c 04000000 		.word	4
  72 0010 08000000 		.word	8
  73 0014 10000000 		.word	16
  74 0018 20000000 		.word	32
  75              		.global	CapSense_1_pinShiftTbl
  76              		.align	2
  77              		.type	CapSense_1_pinShiftTbl, %object
  78              		.size	CapSense_1_pinShiftTbl, 5
  79              	CapSense_1_pinShiftTbl:
  80 001c 01       		.byte	1
  81 001d 02       		.byte	2
  82 001e 03       		.byte	3
  83 001f 04       		.byte	4
  84 0020 05       		.byte	5
  85              		.global	CapSense_1_modulationIDAC
  86 0021 000000   		.align	2
  87              		.type	CapSense_1_modulationIDAC, %object
  88              		.size	CapSense_1_modulationIDAC, 5
  89              	CapSense_1_modulationIDAC:
  90 0024 3C       		.byte	60
  91 0025 78       		.byte	120
  92 0026 78       		.byte	120
  93 0027 78       		.byte	120
  94 0028 78       		.byte	120
  95              		.global	CapSense_1_widgetResolution
  96 0029 000000   		.align	2
  97              		.type	CapSense_1_widgetResolution, %object
  98              		.size	CapSense_1_widgetResolution, 4
  99              	CapSense_1_widgetResolution:
 100 002c 0000FF0F 		.word	268369920
 101              		.global	CapSense_1_senseClkDividerVal
 102              		.type	CapSense_1_senseClkDividerVal, %object
 103              		.size	CapSense_1_senseClkDividerVal, 1
 104              	CapSense_1_senseClkDividerVal:
 105 0030 01       		.byte	1
 106              		.global	CapSense_1_sampleClkDividerVal
 107              		.type	CapSense_1_sampleClkDividerVal, %object
 108              		.size	CapSense_1_sampleClkDividerVal, 1
 109              	CapSense_1_sampleClkDividerVal:
 110 0031 0C       		.byte	12
 111              		.global	CapSense_1_widgetNumber
 112 0032 0000     		.align	2
ARM GAS  C:\Users\mitchell\AppData\Local\Temp\cc5pMFOa.s 			page 3


 113              		.type	CapSense_1_widgetNumber, %object
 114              		.size	CapSense_1_widgetNumber, 5
 115              	CapSense_1_widgetNumber:
 116 0034 00000000 		.space	5
 116      00
 117              		.global	CapSense_1_prtSelTbl
 118 0039 000000   		.align	2
 119              		.type	CapSense_1_prtSelTbl, %object
 120              		.size	CapSense_1_prtSelTbl, 20
 121              	CapSense_1_prtSelTbl:
 122 003c 00000140 		.word	1073807360
 123 0040 04000140 		.word	1073807364
 124 0044 08000140 		.word	1073807368
 125 0048 0C000140 		.word	1073807372
 126 004c 10000140 		.word	1073807376
 127              		.global	CapSense_1_prtCfgTbl
 128              		.align	2
 129              		.type	CapSense_1_prtCfgTbl, %object
 130              		.size	CapSense_1_prtCfgTbl, 20
 131              	CapSense_1_prtCfgTbl:
 132 0050 08000440 		.word	1074003976
 133 0054 08010440 		.word	1074004232
 134 0058 08020440 		.word	1074004488
 135 005c 08030440 		.word	1074004744
 136 0060 08040440 		.word	1074005000
 137              		.global	CapSense_1_prtDRTbl
 138              		.align	2
 139              		.type	CapSense_1_prtDRTbl, %object
 140              		.size	CapSense_1_prtDRTbl, 20
 141              	CapSense_1_prtDRTbl:
 142 0064 00000440 		.word	1074003968
 143 0068 00010440 		.word	1074004224
 144 006c 00020440 		.word	1074004480
 145 0070 00030440 		.word	1074004736
 146 0074 00040440 		.word	1074004992
 147              		.section	.text.CapSense_1_Init,"ax",%progbits
 148              		.align	2
 149              		.global	CapSense_1_Init
 150              		.code	16
 151              		.thumb_func
 152              		.type	CapSense_1_Init, %function
 153              	CapSense_1_Init:
 154              	.LFB33:
 155              		.file 1 ".\\Generated_Source\\PSoC4\\CapSense_1.c"
   1:.\Generated_Source\PSoC4/CapSense_1.c **** /*******************************************************************************
   2:.\Generated_Source\PSoC4/CapSense_1.c **** * File Name: CapSense_1.c
   3:.\Generated_Source\PSoC4/CapSense_1.c **** * Version 2.20
   4:.\Generated_Source\PSoC4/CapSense_1.c **** *
   5:.\Generated_Source\PSoC4/CapSense_1.c **** * Description:
   6:.\Generated_Source\PSoC4/CapSense_1.c **** *  This file provides the source code for scanning APIs for the CapSense CSD 
   7:.\Generated_Source\PSoC4/CapSense_1.c **** *  component.
   8:.\Generated_Source\PSoC4/CapSense_1.c **** *
   9:.\Generated_Source\PSoC4/CapSense_1.c **** * Note:
  10:.\Generated_Source\PSoC4/CapSense_1.c **** *
  11:.\Generated_Source\PSoC4/CapSense_1.c **** ********************************************************************************
  12:.\Generated_Source\PSoC4/CapSense_1.c **** * Copyright 2014, Cypress Semiconductor Corporation.  All rights reserved.
  13:.\Generated_Source\PSoC4/CapSense_1.c **** * You may use this file only in accordance with the license, terms, conditions,
ARM GAS  C:\Users\mitchell\AppData\Local\Temp\cc5pMFOa.s 			page 4


  14:.\Generated_Source\PSoC4/CapSense_1.c **** * disclaimers, and limitations in the end user license agreement accompanying
  15:.\Generated_Source\PSoC4/CapSense_1.c **** * the software package with which this file was provided.
  16:.\Generated_Source\PSoC4/CapSense_1.c **** *******************************************************************************/
  17:.\Generated_Source\PSoC4/CapSense_1.c **** 
  18:.\Generated_Source\PSoC4/CapSense_1.c **** #include "CapSense_1.h"
  19:.\Generated_Source\PSoC4/CapSense_1.c **** #include "CapSense_1_PVT.h"
  20:.\Generated_Source\PSoC4/CapSense_1.c **** #include "cypins.h"
  21:.\Generated_Source\PSoC4/CapSense_1.c **** 
  22:.\Generated_Source\PSoC4/CapSense_1.c **** #if(0u != CapSense_1_CSHL_API_GENERATE)
  23:.\Generated_Source\PSoC4/CapSense_1.c **** 	#include "CapSense_1_CSHL.h"
  24:.\Generated_Source\PSoC4/CapSense_1.c **** #endif /* (0u != CapSense_1_CSHL_API_GENERATE) */
  25:.\Generated_Source\PSoC4/CapSense_1.c **** 
  26:.\Generated_Source\PSoC4/CapSense_1.c **** /* This definition is intended to prevent unexpected linker error. 
  27:.\Generated_Source\PSoC4/CapSense_1.c ****    For more details please see the IAR Technical Note 49981 */
  28:.\Generated_Source\PSoC4/CapSense_1.c **** #if defined(__ICCARM__)
  29:.\Generated_Source\PSoC4/CapSense_1.c **** 	extern void CapSense_1_EnableSensor(uint32 sensor);
  30:.\Generated_Source\PSoC4/CapSense_1.c **** 	extern void CapSense_1_DisableSensor(uint32 sensor);
  31:.\Generated_Source\PSoC4/CapSense_1.c **** #endif /* (__ICCARM__) */	
  32:.\Generated_Source\PSoC4/CapSense_1.c **** 
  33:.\Generated_Source\PSoC4/CapSense_1.c **** /* SmartSense functions */
  34:.\Generated_Source\PSoC4/CapSense_1.c **** #if (CapSense_1_TUNING_METHOD == CapSense_1__TUNING_AUTO)
  35:.\Generated_Source\PSoC4/CapSense_1.c ****     uint8 CapSense_1_lowLevelTuningDone = 0u;
  36:.\Generated_Source\PSoC4/CapSense_1.c **** 	uint8 scanSpeedTbl[((CapSense_1_TOTAL_SENSOR_COUNT - 1u) / 8u) + 1u];
  37:.\Generated_Source\PSoC4/CapSense_1.c **** #endif /* (CapSense_1_TUNING_METHOD == CapSense_1__TUNING_AUTO) */
  38:.\Generated_Source\PSoC4/CapSense_1.c **** 
  39:.\Generated_Source\PSoC4/CapSense_1.c **** #if(CapSense_1_PRS_OPTIONS != CapSense_1__PRS_NONE)
  40:.\Generated_Source\PSoC4/CapSense_1.c **** 	uint8 CapSense_1_prescalersTuningDone = 0u;
  41:.\Generated_Source\PSoC4/CapSense_1.c **** #endif /* (CapSense_1_PRS_OPTIONS == CapSense_1__PRS_NONE) */
  42:.\Generated_Source\PSoC4/CapSense_1.c ****             
  43:.\Generated_Source\PSoC4/CapSense_1.c **** /* Global software variables */
  44:.\Generated_Source\PSoC4/CapSense_1.c **** volatile uint8 CapSense_1_csdStatusVar = 0u;   /* CapSense CSD status, variable */
  45:.\Generated_Source\PSoC4/CapSense_1.c **** volatile uint8 CapSense_1_sensorIndex = 0u;    /* Index of scannig sensor */
  46:.\Generated_Source\PSoC4/CapSense_1.c **** 
  47:.\Generated_Source\PSoC4/CapSense_1.c **** /* Global array of Raw Counts */
  48:.\Generated_Source\PSoC4/CapSense_1.c **** uint16 CapSense_1_sensorRaw[CapSense_1_TOTAL_SENSOR_COUNT] = {0u};
  49:.\Generated_Source\PSoC4/CapSense_1.c **** 
  50:.\Generated_Source\PSoC4/CapSense_1.c **** /* Backup variables for trim registers*/
  51:.\Generated_Source\PSoC4/CapSense_1.c **** #if (CapSense_1_IDAC1_POLARITY == CapSense_1__IDAC_SINK)
  52:.\Generated_Source\PSoC4/CapSense_1.c **** 	uint8 CapSense_1_csdTrim2;   
  53:.\Generated_Source\PSoC4/CapSense_1.c **** #else
  54:.\Generated_Source\PSoC4/CapSense_1.c ****     uint8 CapSense_1_csdTrim1;	
  55:.\Generated_Source\PSoC4/CapSense_1.c **** #endif /* (CapSense_1_IDAC1_POLARITY == CapSense_1__IDAC_SINK) */
  56:.\Generated_Source\PSoC4/CapSense_1.c **** 
  57:.\Generated_Source\PSoC4/CapSense_1.c **** /* Global array of un-scanned sensors state */
  58:.\Generated_Source\PSoC4/CapSense_1.c **** uint8 CapSense_1_unscannedSnsDriveMode[CapSense_1_TOTAL_SENSOR_COUNT];
  59:.\Generated_Source\PSoC4/CapSense_1.c **** 
  60:.\Generated_Source\PSoC4/CapSense_1.c **** /* Backup array for CapSense_1_sensorEnableMask */
  61:.\Generated_Source\PSoC4/CapSense_1.c **** uint8 CapSense_1_sensorEnableMaskBackup[(((CapSense_1_TOTAL_SENSOR_COUNT - 1u) / 8u) + 1u)];
  62:.\Generated_Source\PSoC4/CapSense_1.c **** 
  63:.\Generated_Source\PSoC4/CapSense_1.c **** /* Configured constants and arrays by Customizer */
  64:.\Generated_Source\PSoC4/CapSense_1.c **** uint8 CapSense_1_sensorEnableMask[(((CapSense_1_TOTAL_SENSOR_COUNT - 1u) / 8u) + 1u)] = {
  65:.\Generated_Source\PSoC4/CapSense_1.c **** 0x1Fu, };
  66:.\Generated_Source\PSoC4/CapSense_1.c **** 
  67:.\Generated_Source\PSoC4/CapSense_1.c **** reg32 * CapSense_1_pcTable[] = {
  68:.\Generated_Source\PSoC4/CapSense_1.c ****     (reg32 *)CapSense_1_Sns__LinearSlider0_e0__LS__PC, 
  69:.\Generated_Source\PSoC4/CapSense_1.c ****     (reg32 *)CapSense_1_Sns__LinearSlider0_e1__LS__PC, 
  70:.\Generated_Source\PSoC4/CapSense_1.c ****     (reg32 *)CapSense_1_Sns__LinearSlider0_e2__LS__PC, 
ARM GAS  C:\Users\mitchell\AppData\Local\Temp\cc5pMFOa.s 			page 5


  71:.\Generated_Source\PSoC4/CapSense_1.c ****     (reg32 *)CapSense_1_Sns__LinearSlider0_e3__LS__PC, 
  72:.\Generated_Source\PSoC4/CapSense_1.c ****     (reg32 *)CapSense_1_Sns__LinearSlider0_e4__LS__PC, 
  73:.\Generated_Source\PSoC4/CapSense_1.c **** };
  74:.\Generated_Source\PSoC4/CapSense_1.c **** 
  75:.\Generated_Source\PSoC4/CapSense_1.c **** const uint8 CapSense_1_portTable[] = {
  76:.\Generated_Source\PSoC4/CapSense_1.c ****     CapSense_1_Sns__LinearSlider0_e0__LS__PORT, 
  77:.\Generated_Source\PSoC4/CapSense_1.c ****     CapSense_1_Sns__LinearSlider0_e1__LS__PORT, 
  78:.\Generated_Source\PSoC4/CapSense_1.c ****     CapSense_1_Sns__LinearSlider0_e2__LS__PORT, 
  79:.\Generated_Source\PSoC4/CapSense_1.c ****     CapSense_1_Sns__LinearSlider0_e3__LS__PORT, 
  80:.\Generated_Source\PSoC4/CapSense_1.c ****     CapSense_1_Sns__LinearSlider0_e4__LS__PORT, 
  81:.\Generated_Source\PSoC4/CapSense_1.c **** };
  82:.\Generated_Source\PSoC4/CapSense_1.c **** 
  83:.\Generated_Source\PSoC4/CapSense_1.c **** const uint32 CapSense_1_maskTable[] = {
  84:.\Generated_Source\PSoC4/CapSense_1.c ****     CapSense_1_Sns__LinearSlider0_e0__LS__MASK, 
  85:.\Generated_Source\PSoC4/CapSense_1.c ****     CapSense_1_Sns__LinearSlider0_e1__LS__MASK, 
  86:.\Generated_Source\PSoC4/CapSense_1.c ****     CapSense_1_Sns__LinearSlider0_e2__LS__MASK, 
  87:.\Generated_Source\PSoC4/CapSense_1.c ****     CapSense_1_Sns__LinearSlider0_e3__LS__MASK, 
  88:.\Generated_Source\PSoC4/CapSense_1.c ****     CapSense_1_Sns__LinearSlider0_e4__LS__MASK, 
  89:.\Generated_Source\PSoC4/CapSense_1.c **** };
  90:.\Generated_Source\PSoC4/CapSense_1.c **** 
  91:.\Generated_Source\PSoC4/CapSense_1.c **** const uint8 CapSense_1_pinShiftTbl[] = {
  92:.\Generated_Source\PSoC4/CapSense_1.c ****     (uint8) CapSense_1_Sns__LinearSlider0_e0__LS__SHIFT, 
  93:.\Generated_Source\PSoC4/CapSense_1.c ****     (uint8) CapSense_1_Sns__LinearSlider0_e1__LS__SHIFT, 
  94:.\Generated_Source\PSoC4/CapSense_1.c ****     (uint8) CapSense_1_Sns__LinearSlider0_e2__LS__SHIFT, 
  95:.\Generated_Source\PSoC4/CapSense_1.c ****     (uint8) CapSense_1_Sns__LinearSlider0_e3__LS__SHIFT, 
  96:.\Generated_Source\PSoC4/CapSense_1.c ****     (uint8) CapSense_1_Sns__LinearSlider0_e4__LS__SHIFT, 
  97:.\Generated_Source\PSoC4/CapSense_1.c **** };
  98:.\Generated_Source\PSoC4/CapSense_1.c **** 
  99:.\Generated_Source\PSoC4/CapSense_1.c **** const uint8 CapSense_1_modulationIDAC[CapSense_1_TOTAL_SENSOR_COUNT] = {
 100:.\Generated_Source\PSoC4/CapSense_1.c ****     60u, 120u, 120u, 120u, 120u, 
 101:.\Generated_Source\PSoC4/CapSense_1.c **** };
 102:.\Generated_Source\PSoC4/CapSense_1.c **** const uint32 CapSense_1_widgetResolution[CapSense_1_RESOLUTIONS_TBL_SIZE] = {
 103:.\Generated_Source\PSoC4/CapSense_1.c ****     CapSense_1_RESOLUTION_12_BITS,
 104:.\Generated_Source\PSoC4/CapSense_1.c **** };
 105:.\Generated_Source\PSoC4/CapSense_1.c **** 
 106:.\Generated_Source\PSoC4/CapSense_1.c **** const uint8 CapSense_1_senseClkDividerVal = 1u;
 107:.\Generated_Source\PSoC4/CapSense_1.c **** const uint8 CapSense_1_sampleClkDividerVal = 12u;
 108:.\Generated_Source\PSoC4/CapSense_1.c **** 
 109:.\Generated_Source\PSoC4/CapSense_1.c **** const uint8 CapSense_1_widgetNumber[CapSense_1_TOTAL_SENSOR_COUNT] = {
 110:.\Generated_Source\PSoC4/CapSense_1.c ****     0u, 0u, 0u, 0u, 0u, /* LinearSlider0__LS */
 111:.\Generated_Source\PSoC4/CapSense_1.c **** };
 112:.\Generated_Source\PSoC4/CapSense_1.c **** 
 113:.\Generated_Source\PSoC4/CapSense_1.c **** 
 114:.\Generated_Source\PSoC4/CapSense_1.c **** 
 115:.\Generated_Source\PSoC4/CapSense_1.c **** reg32* const CapSense_1_prtSelTbl[] = {
 116:.\Generated_Source\PSoC4/CapSense_1.c **** /* CY_PSOC4_4000 is default*/
 117:.\Generated_Source\PSoC4/CapSense_1.c **** 	((reg32 *) CYREG_HSIOM_PORT_SEL0),
 118:.\Generated_Source\PSoC4/CapSense_1.c **** 	((reg32 *) CYREG_HSIOM_PORT_SEL1),
 119:.\Generated_Source\PSoC4/CapSense_1.c **** 	((reg32 *) CYREG_HSIOM_PORT_SEL2),
 120:.\Generated_Source\PSoC4/CapSense_1.c **** 	((reg32 *) CYREG_HSIOM_PORT_SEL3),
 121:.\Generated_Source\PSoC4/CapSense_1.c **** #if (CapSense_1_CFG_REG_TBL_SIZE == 5u)
 122:.\Generated_Source\PSoC4/CapSense_1.c **** 	((reg32 *) CYREG_HSIOM_PORT_SEL4)
 123:.\Generated_Source\PSoC4/CapSense_1.c **** #elif(CapSense_1_CFG_REG_TBL_SIZE == 6u)
 124:.\Generated_Source\PSoC4/CapSense_1.c **** 	((reg32 *) CYREG_HSIOM_PORT_SEL4),
 125:.\Generated_Source\PSoC4/CapSense_1.c **** 	((reg32 *) CYREG_HSIOM_PORT_SEL5)
 126:.\Generated_Source\PSoC4/CapSense_1.c **** #elif(CapSense_1_CFG_REG_TBL_SIZE == 8u)
 127:.\Generated_Source\PSoC4/CapSense_1.c **** 	((reg32 *) CYREG_HSIOM_PORT_SEL4),
ARM GAS  C:\Users\mitchell\AppData\Local\Temp\cc5pMFOa.s 			page 6


 128:.\Generated_Source\PSoC4/CapSense_1.c **** 	((reg32 *) CYREG_HSIOM_PORT_SEL5),
 129:.\Generated_Source\PSoC4/CapSense_1.c **** 	((reg32 *) CYREG_HSIOM_PORT_SEL6),
 130:.\Generated_Source\PSoC4/CapSense_1.c **** 	((reg32 *) CYREG_HSIOM_PORT_SEL7)
 131:.\Generated_Source\PSoC4/CapSense_1.c **** #endif /* (CY_PSOC4_4200) */
 132:.\Generated_Source\PSoC4/CapSense_1.c **** };
 133:.\Generated_Source\PSoC4/CapSense_1.c **** 
 134:.\Generated_Source\PSoC4/CapSense_1.c **** reg32* const CapSense_1_prtCfgTbl[] = {
 135:.\Generated_Source\PSoC4/CapSense_1.c **** /* CY_PSOC4_4000 is default*/
 136:.\Generated_Source\PSoC4/CapSense_1.c **** 	((reg32 *) CYREG_PRT0_PC),
 137:.\Generated_Source\PSoC4/CapSense_1.c **** 	((reg32 *) CYREG_PRT1_PC),
 138:.\Generated_Source\PSoC4/CapSense_1.c **** 	((reg32 *) CYREG_PRT2_PC),
 139:.\Generated_Source\PSoC4/CapSense_1.c **** 	((reg32 *) CYREG_PRT3_PC),
 140:.\Generated_Source\PSoC4/CapSense_1.c **** #if (CapSense_1_CFG_REG_TBL_SIZE == 5u)
 141:.\Generated_Source\PSoC4/CapSense_1.c **** 	((reg32 *) CYREG_PRT4_PC)
 142:.\Generated_Source\PSoC4/CapSense_1.c **** #elif(CapSense_1_CFG_REG_TBL_SIZE == 6u)
 143:.\Generated_Source\PSoC4/CapSense_1.c **** 	((reg32 *) CYREG_PRT4_PC),
 144:.\Generated_Source\PSoC4/CapSense_1.c **** 	((reg32 *) CYREG_PRT5_PC)
 145:.\Generated_Source\PSoC4/CapSense_1.c **** #elif(CapSense_1_CFG_REG_TBL_SIZE == 8u)
 146:.\Generated_Source\PSoC4/CapSense_1.c **** 	((reg32 *) CYREG_PRT4_PC),
 147:.\Generated_Source\PSoC4/CapSense_1.c **** 	((reg32 *) CYREG_PRT5_PC),
 148:.\Generated_Source\PSoC4/CapSense_1.c **** 	((reg32 *) CYREG_PRT6_PC),
 149:.\Generated_Source\PSoC4/CapSense_1.c **** 	((reg32 *) CYREG_PRT7_PC)
 150:.\Generated_Source\PSoC4/CapSense_1.c **** #endif /* (CY_PSOC4_4200) */	
 151:.\Generated_Source\PSoC4/CapSense_1.c **** };
 152:.\Generated_Source\PSoC4/CapSense_1.c **** 
 153:.\Generated_Source\PSoC4/CapSense_1.c **** reg32* const CapSense_1_prtDRTbl[] = {
 154:.\Generated_Source\PSoC4/CapSense_1.c **** /* CY_PSOC4_4000 is default*/
 155:.\Generated_Source\PSoC4/CapSense_1.c **** 	((reg32 *) CYREG_PRT0_DR),
 156:.\Generated_Source\PSoC4/CapSense_1.c **** 	((reg32 *) CYREG_PRT1_DR),
 157:.\Generated_Source\PSoC4/CapSense_1.c **** 	((reg32 *) CYREG_PRT2_DR),
 158:.\Generated_Source\PSoC4/CapSense_1.c **** 	((reg32 *) CYREG_PRT3_DR),
 159:.\Generated_Source\PSoC4/CapSense_1.c **** #if (CapSense_1_CFG_REG_TBL_SIZE == 5u)
 160:.\Generated_Source\PSoC4/CapSense_1.c **** 	((reg32 *) CYREG_PRT4_DR)
 161:.\Generated_Source\PSoC4/CapSense_1.c **** #elif(CapSense_1_CFG_REG_TBL_SIZE == 6u)
 162:.\Generated_Source\PSoC4/CapSense_1.c **** 	((reg32 *) CYREG_PRT4_DR),
 163:.\Generated_Source\PSoC4/CapSense_1.c **** 	((reg32 *) CYREG_PRT5_DR),
 164:.\Generated_Source\PSoC4/CapSense_1.c **** #elif(CapSense_1_CFG_REG_TBL_SIZE == 8u)
 165:.\Generated_Source\PSoC4/CapSense_1.c **** 	((reg32 *) CYREG_PRT4_DR),
 166:.\Generated_Source\PSoC4/CapSense_1.c **** 	((reg32 *) CYREG_PRT5_DR),
 167:.\Generated_Source\PSoC4/CapSense_1.c **** 	((reg32 *) CYREG_PRT6_DR),
 168:.\Generated_Source\PSoC4/CapSense_1.c **** 	((reg32 *) CYREG_PRT7_DR),
 169:.\Generated_Source\PSoC4/CapSense_1.c **** #endif /* (CY_PSOC4_4200) */	
 170:.\Generated_Source\PSoC4/CapSense_1.c **** };
 171:.\Generated_Source\PSoC4/CapSense_1.c ****     
 172:.\Generated_Source\PSoC4/CapSense_1.c **** 
 173:.\Generated_Source\PSoC4/CapSense_1.c **** /*******************************************************************************
 174:.\Generated_Source\PSoC4/CapSense_1.c **** * Function Name: CapSense_1_Init
 175:.\Generated_Source\PSoC4/CapSense_1.c **** ********************************************************************************
 176:.\Generated_Source\PSoC4/CapSense_1.c **** *
 177:.\Generated_Source\PSoC4/CapSense_1.c **** * Summary:
 178:.\Generated_Source\PSoC4/CapSense_1.c **** *  API initializes default CapSense configuration provided by the customizer that defines 
 179:.\Generated_Source\PSoC4/CapSense_1.c **** *  the mode of component operations and resets all the sensors to an inactive state.
 180:.\Generated_Source\PSoC4/CapSense_1.c **** *
 181:.\Generated_Source\PSoC4/CapSense_1.c **** * Parameters:
 182:.\Generated_Source\PSoC4/CapSense_1.c **** *  None
 183:.\Generated_Source\PSoC4/CapSense_1.c **** *
 184:.\Generated_Source\PSoC4/CapSense_1.c **** * Return:
ARM GAS  C:\Users\mitchell\AppData\Local\Temp\cc5pMFOa.s 			page 7


 185:.\Generated_Source\PSoC4/CapSense_1.c **** *  None
 186:.\Generated_Source\PSoC4/CapSense_1.c **** *
 187:.\Generated_Source\PSoC4/CapSense_1.c **** * Global Variables:
 188:.\Generated_Source\PSoC4/CapSense_1.c **** *  CapSense_1_immunityIndex - defines immunity level.
 189:.\Generated_Source\PSoC4/CapSense_1.c **** *
 190:.\Generated_Source\PSoC4/CapSense_1.c **** * Side Effects:
 191:.\Generated_Source\PSoC4/CapSense_1.c **** *  None
 192:.\Generated_Source\PSoC4/CapSense_1.c **** * 
 193:.\Generated_Source\PSoC4/CapSense_1.c **** *******************************************************************************/
 194:.\Generated_Source\PSoC4/CapSense_1.c **** void CapSense_1_Init(void)
 195:.\Generated_Source\PSoC4/CapSense_1.c **** {   
 156              		.loc 1 195 0
 157              		.cfi_startproc
 158 0000 80B5     		push	{r7, lr}
 159              		.cfi_def_cfa_offset 8
 160              		.cfi_offset 7, -8
 161              		.cfi_offset 14, -4
 162 0002 82B0     		sub	sp, sp, #8
 163              		.cfi_def_cfa_offset 16
 164 0004 00AF     		add	r7, sp, #0
 165              		.cfi_def_cfa_register 7
 196:.\Generated_Source\PSoC4/CapSense_1.c **** 	uint32 curSensor;
 197:.\Generated_Source\PSoC4/CapSense_1.c **** 	
 198:.\Generated_Source\PSoC4/CapSense_1.c **** 	#if(CapSense_1_IS_SHIELD_ENABLE)
 199:.\Generated_Source\PSoC4/CapSense_1.c **** 		
 200:.\Generated_Source\PSoC4/CapSense_1.c **** 		#if((CapSense_1_CSH_TANK_PREGARGE_OPTION == CapSense_1__CAPPRIOBUF) || (0u != CapSense_1_CSH_TANK
 201:.\Generated_Source\PSoC4/CapSense_1.c **** 			uint32 newRegValue;
 202:.\Generated_Source\PSoC4/CapSense_1.c **** 			
 203:.\Generated_Source\PSoC4/CapSense_1.c **** 			newRegValue = CapSense_1_CTANK_CONNECTION_REG;
 204:.\Generated_Source\PSoC4/CapSense_1.c **** 	        newRegValue &= ~(CapSense_1_CSD_CTANK_CONNECTION_MASK);
 205:.\Generated_Source\PSoC4/CapSense_1.c **** 			newRegValue |= CapSense_1_CSD_CTANK_TO_AMUXBUS_B;
 206:.\Generated_Source\PSoC4/CapSense_1.c **** 	        CapSense_1_CTANK_CONNECTION_REG = newRegValue;
 207:.\Generated_Source\PSoC4/CapSense_1.c **** 			
 208:.\Generated_Source\PSoC4/CapSense_1.c **** 			#if(CapSense_1_CSH_TANK_PREGARGE_OPTION == CapSense_1__CAPPRIOBUF)
 209:.\Generated_Source\PSoC4/CapSense_1.c **** 				newRegValue = CapSense_1_CTANK_PORT_PC_REG;
 210:.\Generated_Source\PSoC4/CapSense_1.c **** 		        newRegValue &= ~(CapSense_1_CSD_CTANK_PC_MASK);
 211:.\Generated_Source\PSoC4/CapSense_1.c **** 				newRegValue |= CapSense_1_CTANK_PC_STRONG_MODE;
 212:.\Generated_Source\PSoC4/CapSense_1.c **** 		        CapSense_1_CTANK_PORT_PC_REG = newRegValue;
 213:.\Generated_Source\PSoC4/CapSense_1.c **** 				
 214:.\Generated_Source\PSoC4/CapSense_1.c **** 				newRegValue = CapSense_1_CTANK_PORT_DR_REG;
 215:.\Generated_Source\PSoC4/CapSense_1.c **** 		        newRegValue &= ~(CapSense_1_CTANK_DR_MASK);
 216:.\Generated_Source\PSoC4/CapSense_1.c **** 				newRegValue |= CapSense_1_CTANK_DR_CONFIG;
 217:.\Generated_Source\PSoC4/CapSense_1.c **** 		        CapSense_1_CTANK_PORT_DR_REG = newRegValue;
 218:.\Generated_Source\PSoC4/CapSense_1.c **** 			#endif /* (CapSense_1_CSH_TANK_PREGARGE_OPTION == CapSense_1__CAPPRIOBUF) */
 219:.\Generated_Source\PSoC4/CapSense_1.c **** 	        
 220:.\Generated_Source\PSoC4/CapSense_1.c **** 		#endif /* ((CapSense_1_CSH_TANK_PREGARGE_OPTION == CapSense_1__CAPPRIOBUF) || (CapSense_1_CSH_TAN
 221:.\Generated_Source\PSoC4/CapSense_1.c **** 		
 222:.\Generated_Source\PSoC4/CapSense_1.c **** 		CapSense_1_EnableShieldElectrode((uint32)CapSense_1_SHIELD_PIN_NUMBER, (uint32)CapSense_1_SHIELD_
 223:.\Generated_Source\PSoC4/CapSense_1.c **** 		
 224:.\Generated_Source\PSoC4/CapSense_1.c **** 	#endif /* (CapSense_1_IS_SHIELD_ENABLE) */
 225:.\Generated_Source\PSoC4/CapSense_1.c **** 	
 226:.\Generated_Source\PSoC4/CapSense_1.c **** 	for(curSensor = 0u; curSensor < CapSense_1_TOTAL_SENSOR_COUNT; curSensor++)
 166              		.loc 1 226 0
 167 0006 0023     		mov	r3, #0
 168 0008 7B60     		str	r3, [r7, #4]
 169 000a 07E0     		b	.L2
 170              	.L3:
ARM GAS  C:\Users\mitchell\AppData\Local\Temp\cc5pMFOa.s 			page 8


 227:.\Generated_Source\PSoC4/CapSense_1.c **** 	{
 228:.\Generated_Source\PSoC4/CapSense_1.c **** 		CapSense_1_unscannedSnsDriveMode[curSensor] = CapSense_1_CONNECT_INACTIVE_SNS;
 171              		.loc 1 228 0 discriminator 2
 172 000c 0A4A     		ldr	r2, .L4
 173 000e 7B68     		ldr	r3, [r7, #4]
 174 0010 D318     		add	r3, r2, r3
 175 0012 0022     		mov	r2, #0
 176 0014 1A70     		strb	r2, [r3]
 226:.\Generated_Source\PSoC4/CapSense_1.c **** 	for(curSensor = 0u; curSensor < CapSense_1_TOTAL_SENSOR_COUNT; curSensor++)
 177              		.loc 1 226 0 discriminator 2
 178 0016 7B68     		ldr	r3, [r7, #4]
 179 0018 0133     		add	r3, r3, #1
 180 001a 7B60     		str	r3, [r7, #4]
 181              	.L2:
 226:.\Generated_Source\PSoC4/CapSense_1.c **** 	for(curSensor = 0u; curSensor < CapSense_1_TOTAL_SENSOR_COUNT; curSensor++)
 182              		.loc 1 226 0 is_stmt 0 discriminator 1
 183 001c 7B68     		ldr	r3, [r7, #4]
 184 001e 042B     		cmp	r3, #4
 185 0020 F4D9     		bls	.L3
 229:.\Generated_Source\PSoC4/CapSense_1.c **** 	}
 230:.\Generated_Source\PSoC4/CapSense_1.c ****     
 231:.\Generated_Source\PSoC4/CapSense_1.c **** 	CapSense_1_CsdHwBlockInit();
 186              		.loc 1 231 0 is_stmt 1
 187 0022 FFF7FEFF 		bl	CapSense_1_CsdHwBlockInit
 232:.\Generated_Source\PSoC4/CapSense_1.c ****     CapSense_1_SetShieldDelay(CapSense_1_SHIELD_DELAY );
 188              		.loc 1 232 0
 189 0026 0020     		mov	r0, #0
 190 0028 FFF7FEFF 		bl	CapSense_1_SetShieldDelay
 233:.\Generated_Source\PSoC4/CapSense_1.c **** 	
 234:.\Generated_Source\PSoC4/CapSense_1.c **** 	/* Clear all sensors */
 235:.\Generated_Source\PSoC4/CapSense_1.c ****     CapSense_1_ClearSensors();
 191              		.loc 1 235 0
 192 002c FFF7FEFF 		bl	CapSense_1_ClearSensors
 236:.\Generated_Source\PSoC4/CapSense_1.c **** }
 193              		.loc 1 236 0
 194 0030 BD46     		mov	sp, r7
 195 0032 02B0     		add	sp, sp, #8
 196              		@ sp needed
 197 0034 80BD     		pop	{r7, pc}
 198              	.L5:
 199 0036 C046     		.align	2
 200              	.L4:
 201 0038 00000000 		.word	CapSense_1_unscannedSnsDriveMode
 202              		.cfi_endproc
 203              	.LFE33:
 204              		.size	CapSense_1_Init, .-CapSense_1_Init
 205              		.section	.text.CapSense_1_CsdHwBlockInit,"ax",%progbits
 206              		.align	2
 207              		.global	CapSense_1_CsdHwBlockInit
 208              		.code	16
 209              		.thumb_func
 210              		.type	CapSense_1_CsdHwBlockInit, %function
 211              	CapSense_1_CsdHwBlockInit:
 212              	.LFB34:
 237:.\Generated_Source\PSoC4/CapSense_1.c **** 
 238:.\Generated_Source\PSoC4/CapSense_1.c **** /*******************************************************************************
 239:.\Generated_Source\PSoC4/CapSense_1.c **** * Function Name: CapSense_1_CsdHwBlockInit
ARM GAS  C:\Users\mitchell\AppData\Local\Temp\cc5pMFOa.s 			page 9


 240:.\Generated_Source\PSoC4/CapSense_1.c **** ********************************************************************************
 241:.\Generated_Source\PSoC4/CapSense_1.c **** *
 242:.\Generated_Source\PSoC4/CapSense_1.c **** * Summary:
 243:.\Generated_Source\PSoC4/CapSense_1.c **** *  Initialises the hardware parameters of the CSD block 
 244:.\Generated_Source\PSoC4/CapSense_1.c **** *
 245:.\Generated_Source\PSoC4/CapSense_1.c **** * Parameters:
 246:.\Generated_Source\PSoC4/CapSense_1.c **** *  None
 247:.\Generated_Source\PSoC4/CapSense_1.c **** *
 248:.\Generated_Source\PSoC4/CapSense_1.c **** * Return:
 249:.\Generated_Source\PSoC4/CapSense_1.c **** *  None
 250:.\Generated_Source\PSoC4/CapSense_1.c **** *
 251:.\Generated_Source\PSoC4/CapSense_1.c **** * Global Variables:
 252:.\Generated_Source\PSoC4/CapSense_1.c **** *  CapSense_1_csdTrim1 - Contains IDAC trim register value for Sourcing Mode.
 253:.\Generated_Source\PSoC4/CapSense_1.c **** *  CapSense_1_csdTrim2 - Contains IDAC trim register value for Sinking Mode.
 254:.\Generated_Source\PSoC4/CapSense_1.c **** *
 255:.\Generated_Source\PSoC4/CapSense_1.c **** * Side Effects:
 256:.\Generated_Source\PSoC4/CapSense_1.c **** *  None
 257:.\Generated_Source\PSoC4/CapSense_1.c **** * 
 258:.\Generated_Source\PSoC4/CapSense_1.c **** *******************************************************************************/
 259:.\Generated_Source\PSoC4/CapSense_1.c **** void CapSense_1_CsdHwBlockInit(void)
 260:.\Generated_Source\PSoC4/CapSense_1.c **** {
 213              		.loc 1 260 0
 214              		.cfi_startproc
 215 0000 80B5     		push	{r7, lr}
 216              		.cfi_def_cfa_offset 8
 217              		.cfi_offset 7, -8
 218              		.cfi_offset 14, -4
 219 0002 82B0     		sub	sp, sp, #8
 220              		.cfi_def_cfa_offset 16
 221 0004 00AF     		add	r7, sp, #0
 222              		.cfi_def_cfa_register 7
 261:.\Generated_Source\PSoC4/CapSense_1.c **** 	uint32 newRegValue;
 262:.\Generated_Source\PSoC4/CapSense_1.c **** 	
 263:.\Generated_Source\PSoC4/CapSense_1.c **** 	    /* Set trim registers for CSD Mode */
 264:.\Generated_Source\PSoC4/CapSense_1.c ****     #if (CapSense_1_IDAC1_POLARITY == CapSense_1__IDAC_SINK)
 265:.\Generated_Source\PSoC4/CapSense_1.c **** 		/* iDAC1 Sinking Mode */ 
 266:.\Generated_Source\PSoC4/CapSense_1.c **** 		CapSense_1_csdTrim2 = (uint8)CapSense_1_CSD_TRIM2_REG;
 267:.\Generated_Source\PSoC4/CapSense_1.c **** 		newRegValue = CapSense_1_csdTrim2;
 268:.\Generated_Source\PSoC4/CapSense_1.c **** 		newRegValue &= CapSense_1_CSD_IDAC1_TRIM_MASK;
 269:.\Generated_Source\PSoC4/CapSense_1.c **** 		newRegValue |= (uint32)((uint32)CapSense_1_SFLASH_CSD_TRIM2_REG & (uint32)CapSense_1_CSFLASH_TRIM
 270:.\Generated_Source\PSoC4/CapSense_1.c **** 		
 271:.\Generated_Source\PSoC4/CapSense_1.c **** 		#if (CapSense_1_IDAC_CNT == 2u)
 272:.\Generated_Source\PSoC4/CapSense_1.c **** 		    /* iDAC2 Sinking Mode */ 
 273:.\Generated_Source\PSoC4/CapSense_1.c **** 			newRegValue &= CapSense_1_CSD_IDAC2_TRIM_MASK;
 274:.\Generated_Source\PSoC4/CapSense_1.c **** 			newRegValue |= (uint32)((uint32)CapSense_1_SFLASH_CSD_TRIM2_REG & (uint32)CapSense_1_CSFLASH_TRI
 275:.\Generated_Source\PSoC4/CapSense_1.c **** 		#endif /* (CapSense_1_IDAC_CNT == 2u) */
 276:.\Generated_Source\PSoC4/CapSense_1.c **** 		CapSense_1_CSD_TRIM2_REG = newRegValue;
 277:.\Generated_Source\PSoC4/CapSense_1.c ****     #else   
 278:.\Generated_Source\PSoC4/CapSense_1.c **** 		/* iDAC1 Sourcing Mode */ 
 279:.\Generated_Source\PSoC4/CapSense_1.c **** 		CapSense_1_csdTrim1 = (uint8)CapSense_1_CSD_TRIM1_REG;
 223              		.loc 1 279 0
 224 0006 274B     		ldr	r3, .L7
 225 0008 1B68     		ldr	r3, [r3]
 226 000a DAB2     		uxtb	r2, r3
 227 000c 264B     		ldr	r3, .L7+4
 228 000e 1A70     		strb	r2, [r3]
 280:.\Generated_Source\PSoC4/CapSense_1.c **** 		newRegValue = CapSense_1_csdTrim1;
ARM GAS  C:\Users\mitchell\AppData\Local\Temp\cc5pMFOa.s 			page 10


 229              		.loc 1 280 0
 230 0010 254B     		ldr	r3, .L7+4
 231 0012 1B78     		ldrb	r3, [r3]
 232 0014 7B60     		str	r3, [r7, #4]
 281:.\Generated_Source\PSoC4/CapSense_1.c **** 		newRegValue &= CapSense_1_CSD_IDAC1_TRIM_MASK;
 233              		.loc 1 281 0
 234 0016 7B68     		ldr	r3, [r7, #4]
 235 0018 0F22     		mov	r2, #15
 236 001a 9343     		bic	r3, r2
 237 001c 7B60     		str	r3, [r7, #4]
 282:.\Generated_Source\PSoC4/CapSense_1.c **** 		newRegValue |= (uint32)((uint32)CapSense_1_SFLASH_CSD_TRIM1_REG & (uint32)CapSense_1_CSFLASH_TRIM
 238              		.loc 1 282 0
 239 001e 234B     		ldr	r3, .L7+8
 240 0020 1B78     		ldrb	r3, [r3]
 241 0022 DBB2     		uxtb	r3, r3
 242 0024 1A1C     		mov	r2, r3
 243 0026 0F23     		mov	r3, #15
 244 0028 1340     		and	r3, r2
 245 002a 7A68     		ldr	r2, [r7, #4]
 246 002c 1343     		orr	r3, r2
 247 002e 7B60     		str	r3, [r7, #4]
 283:.\Generated_Source\PSoC4/CapSense_1.c **** 		#if (CapSense_1_IDAC_CNT == 2u)
 284:.\Generated_Source\PSoC4/CapSense_1.c **** 		     /* iDAC2 Sourcing Mode */ 
 285:.\Generated_Source\PSoC4/CapSense_1.c **** 			newRegValue &= CapSense_1_CSD_IDAC2_TRIM_MASK;
 286:.\Generated_Source\PSoC4/CapSense_1.c **** 			newRegValue |= (uint32)((uint32)CapSense_1_SFLASH_CSD_TRIM1_REG & (uint32)CapSense_1_CSFLASH_TRI
 287:.\Generated_Source\PSoC4/CapSense_1.c **** 		#endif		
 288:.\Generated_Source\PSoC4/CapSense_1.c **** 		CapSense_1_CSD_TRIM1_REG = newRegValue;
 248              		.loc 1 288 0
 249 0030 1C4B     		ldr	r3, .L7
 250 0032 7A68     		ldr	r2, [r7, #4]
 251 0034 1A60     		str	r2, [r3]
 289:.\Generated_Source\PSoC4/CapSense_1.c ****     #endif /* (CapSense_1_IDAC1_POLARITY == CapSense_1__IDAC_SINK) */
 290:.\Generated_Source\PSoC4/CapSense_1.c **** 	
 291:.\Generated_Source\PSoC4/CapSense_1.c **** 	/* Configure CSD and IDAC */
 292:.\Generated_Source\PSoC4/CapSense_1.c **** 	#if (CapSense_1_IDAC_CNT > 1u)
 293:.\Generated_Source\PSoC4/CapSense_1.c **** 		CapSense_1_CSD_IDAC_REG = CapSense_1_DEFAULT_CSD_IDAC_CONFIG;
 294:.\Generated_Source\PSoC4/CapSense_1.c **** 		CapSense_1_CSD_CFG_REG = CapSense_1_DEFAULT_CSD_CONFIG;
 295:.\Generated_Source\PSoC4/CapSense_1.c **** 	#else
 296:.\Generated_Source\PSoC4/CapSense_1.c **** 		CapSense_1_CSD_IDAC_REG &= ~(CapSense_1_CSD_IDAC1_MODE_MASK  | CapSense_1_CSD_IDAC1_DATA_MASK);
 252              		.loc 1 296 0
 253 0036 1E4B     		ldr	r3, .L7+12
 254 0038 1D4A     		ldr	r2, .L7+12
 255 003a 1268     		ldr	r2, [r2]
 256 003c 920A     		lsr	r2, r2, #10
 257 003e 9202     		lsl	r2, r2, #10
 258 0040 1A60     		str	r2, [r3]
 297:.\Generated_Source\PSoC4/CapSense_1.c **** 		CapSense_1_CSD_IDAC_REG |= CapSense_1_DEFAULT_CSD_IDAC_CONFIG;
 259              		.loc 1 297 0
 260 0042 1B4B     		ldr	r3, .L7+12
 261 0044 1A4A     		ldr	r2, .L7+12
 262 0046 1268     		ldr	r2, [r2]
 263 0048 8021     		mov	r1, #128
 264 004a 8900     		lsl	r1, r1, #2
 265 004c 0A43     		orr	r2, r1
 266 004e 1A60     		str	r2, [r3]
 298:.\Generated_Source\PSoC4/CapSense_1.c **** 		
 299:.\Generated_Source\PSoC4/CapSense_1.c **** 		CapSense_1_CSD_CFG_REG &= ~(CapSense_1_CSD_CONFIG_MASK);
ARM GAS  C:\Users\mitchell\AppData\Local\Temp\cc5pMFOa.s 			page 11


 267              		.loc 1 299 0
 268 0050 184B     		ldr	r3, .L7+16
 269 0052 184A     		ldr	r2, .L7+16
 270 0054 1168     		ldr	r1, [r2]
 271 0056 184A     		ldr	r2, .L7+20
 272 0058 0A40     		and	r2, r1
 273 005a 1A60     		str	r2, [r3]
 300:.\Generated_Source\PSoC4/CapSense_1.c **** 		CapSense_1_CSD_CFG_REG |= (CapSense_1_DEFAULT_CSD_CONFIG);
 274              		.loc 1 300 0
 275 005c 154B     		ldr	r3, .L7+16
 276 005e 154A     		ldr	r2, .L7+16
 277 0060 1268     		ldr	r2, [r2]
 278 0062 1649     		ldr	r1, .L7+24
 279 0064 0A43     		orr	r2, r1
 280 0066 1A60     		str	r2, [r3]
 301:.\Generated_Source\PSoC4/CapSense_1.c **** 	#endif /* (CapSense_1_IDAC_CNT > 1u) */
 302:.\Generated_Source\PSoC4/CapSense_1.c **** 	
 303:.\Generated_Source\PSoC4/CapSense_1.c **** 	
 304:.\Generated_Source\PSoC4/CapSense_1.c **** 	/* Connect Cmod to AMUX bus */ 
 305:.\Generated_Source\PSoC4/CapSense_1.c **** 	newRegValue = CapSense_1_CMOD_CONNECTION_REG; 
 281              		.loc 1 305 0
 282 0068 154B     		ldr	r3, .L7+28
 283 006a 1B68     		ldr	r3, [r3]
 284 006c 7B60     		str	r3, [r7, #4]
 306:.\Generated_Source\PSoC4/CapSense_1.c ****     newRegValue &= ~(CapSense_1_CSD_CMOD_CONNECTION_MASK);
 285              		.loc 1 306 0
 286 006e 7A68     		ldr	r2, [r7, #4]
 287 0070 144B     		ldr	r3, .L7+32
 288 0072 1340     		and	r3, r2
 289 0074 7B60     		str	r3, [r7, #4]
 307:.\Generated_Source\PSoC4/CapSense_1.c ****     newRegValue |= CapSense_1_CSD_CMOD_TO_AMUXBUS_A;
 290              		.loc 1 307 0
 291 0076 7B68     		ldr	r3, [r7, #4]
 292 0078 C022     		mov	r2, #192
 293 007a D200     		lsl	r2, r2, #3
 294 007c 1343     		orr	r3, r2
 295 007e 7B60     		str	r3, [r7, #4]
 308:.\Generated_Source\PSoC4/CapSense_1.c ****     CapSense_1_CMOD_CONNECTION_REG = newRegValue;
 296              		.loc 1 308 0
 297 0080 0F4B     		ldr	r3, .L7+28
 298 0082 7A68     		ldr	r2, [r7, #4]
 299 0084 1A60     		str	r2, [r3]
 309:.\Generated_Source\PSoC4/CapSense_1.c **** 	
 310:.\Generated_Source\PSoC4/CapSense_1.c **** 	/* Configure Dead Band PWM if it is enabled */
 311:.\Generated_Source\PSoC4/CapSense_1.c **** 	#if(CapSense_1_CSD_4B_PWM_MODE != CapSense_1__PWM_OFF)
 312:.\Generated_Source\PSoC4/CapSense_1.c **** 		CapSense_1_CSD_4B_PWM_REG = CapSense_1_DEFAULT_CSD_4B_PWM_CONFIG;
 313:.\Generated_Source\PSoC4/CapSense_1.c **** 	#endif /* (CapSense_1_CSD_4B_PWM_MODE != CapSense_1__PWM_OFF) */
 314:.\Generated_Source\PSoC4/CapSense_1.c **** 
 315:.\Generated_Source\PSoC4/CapSense_1.c **** 	/* Setup ISR */
 316:.\Generated_Source\PSoC4/CapSense_1.c **** 	CyIntDisable(CapSense_1_ISR_NUMBER);
 300              		.loc 1 316 0
 301 0086 0F20     		mov	r0, #15
 302 0088 FFF7FEFF 		bl	CyIntDisable
 317:.\Generated_Source\PSoC4/CapSense_1.c **** 	#if !defined(CY_EXTERNAL_INTERRUPT_CONFIG)		
 318:.\Generated_Source\PSoC4/CapSense_1.c **** 	    (void)CyIntSetVector(CapSense_1_ISR_NUMBER, &CapSense_1_ISR);
 303              		.loc 1 318 0
 304 008c 0E4B     		ldr	r3, .L7+36
ARM GAS  C:\Users\mitchell\AppData\Local\Temp\cc5pMFOa.s 			page 12


 305 008e 0F20     		mov	r0, #15
 306 0090 191C     		mov	r1, r3
 307 0092 FFF7FEFF 		bl	CyIntSetVector
 319:.\Generated_Source\PSoC4/CapSense_1.c **** 	    CyIntSetPriority(CapSense_1_ISR_NUMBER, CapSense_1_ISR_PRIORITY);
 308              		.loc 1 319 0
 309 0096 0F20     		mov	r0, #15
 310 0098 0321     		mov	r1, #3
 311 009a FFF7FEFF 		bl	CyIntSetPriority
 320:.\Generated_Source\PSoC4/CapSense_1.c **** 	#endif /* (CY_EXTERNAL_INTERRUPT_CONFIG) */
 321:.\Generated_Source\PSoC4/CapSense_1.c **** }
 312              		.loc 1 321 0
 313 009e BD46     		mov	sp, r7
 314 00a0 02B0     		add	sp, sp, #8
 315              		@ sp needed
 316 00a2 80BD     		pop	{r7, pc}
 317              	.L8:
 318              		.align	2
 319              	.L7:
 320 00a4 00FF0840 		.word	1074331392
 321 00a8 00000000 		.word	CapSense_1_csdTrim1
 322 00ac 62F1FF0F 		.word	268431714
 323 00b0 08000840 		.word	1074266120
 324 00b4 04000840 		.word	1074266116
 325 00b8 37D75EFE 		.word	-27338953
 326 00bc 0008A001 		.word	27265024
 327 00c0 10000140 		.word	1073807376
 328 00c4 FFF0FFFF 		.word	-3841
 329 00c8 00000000 		.word	CapSense_1_ISR
 330              		.cfi_endproc
 331              	.LFE34:
 332              		.size	CapSense_1_CsdHwBlockInit, .-CapSense_1_CsdHwBlockInit
 333              		.section	.text.CapSense_1_Enable,"ax",%progbits
 334              		.align	2
 335              		.global	CapSense_1_Enable
 336              		.code	16
 337              		.thumb_func
 338              		.type	CapSense_1_Enable, %function
 339              	CapSense_1_Enable:
 340              	.LFB35:
 322:.\Generated_Source\PSoC4/CapSense_1.c **** 
 323:.\Generated_Source\PSoC4/CapSense_1.c **** 
 324:.\Generated_Source\PSoC4/CapSense_1.c **** /*******************************************************************************
 325:.\Generated_Source\PSoC4/CapSense_1.c **** * Function Name: CapSense_1_Enable
 326:.\Generated_Source\PSoC4/CapSense_1.c **** ********************************************************************************
 327:.\Generated_Source\PSoC4/CapSense_1.c **** *
 328:.\Generated_Source\PSoC4/CapSense_1.c **** * Summary:
 329:.\Generated_Source\PSoC4/CapSense_1.c **** *  Enables the CSD block and related resources to an active mode.
 330:.\Generated_Source\PSoC4/CapSense_1.c **** *
 331:.\Generated_Source\PSoC4/CapSense_1.c **** * Parameters:
 332:.\Generated_Source\PSoC4/CapSense_1.c **** *  None
 333:.\Generated_Source\PSoC4/CapSense_1.c **** *
 334:.\Generated_Source\PSoC4/CapSense_1.c **** * Return:
 335:.\Generated_Source\PSoC4/CapSense_1.c **** *  None
 336:.\Generated_Source\PSoC4/CapSense_1.c **** *
 337:.\Generated_Source\PSoC4/CapSense_1.c **** * Global Variables:
 338:.\Generated_Source\PSoC4/CapSense_1.c **** *  None.
 339:.\Generated_Source\PSoC4/CapSense_1.c **** *
ARM GAS  C:\Users\mitchell\AppData\Local\Temp\cc5pMFOa.s 			page 13


 340:.\Generated_Source\PSoC4/CapSense_1.c **** * Side Effects:
 341:.\Generated_Source\PSoC4/CapSense_1.c **** *  None
 342:.\Generated_Source\PSoC4/CapSense_1.c **** * 
 343:.\Generated_Source\PSoC4/CapSense_1.c **** *******************************************************************************/
 344:.\Generated_Source\PSoC4/CapSense_1.c **** void CapSense_1_Enable(void)
 345:.\Generated_Source\PSoC4/CapSense_1.c **** {
 341              		.loc 1 345 0
 342              		.cfi_startproc
 343 0000 80B5     		push	{r7, lr}
 344              		.cfi_def_cfa_offset 8
 345              		.cfi_offset 7, -8
 346              		.cfi_offset 14, -4
 347 0002 82B0     		sub	sp, sp, #8
 348              		.cfi_def_cfa_offset 16
 349 0004 00AF     		add	r7, sp, #0
 350              		.cfi_def_cfa_register 7
 346:.\Generated_Source\PSoC4/CapSense_1.c ****     uint32 newRegValue;
 347:.\Generated_Source\PSoC4/CapSense_1.c ****     
 348:.\Generated_Source\PSoC4/CapSense_1.c ****     /* Enable Clocks */
 349:.\Generated_Source\PSoC4/CapSense_1.c **** 	CapSense_1_SenseClk_Stop();
 351              		.loc 1 349 0
 352 0006 FFF7FEFF 		bl	CapSense_1_SenseClk_Stop
 350:.\Generated_Source\PSoC4/CapSense_1.c **** 	CapSense_1_SampleClk_Stop();
 353              		.loc 1 350 0
 354 000a FFF7FEFF 		bl	CapSense_1_SampleClk_Stop
 351:.\Generated_Source\PSoC4/CapSense_1.c **** 	
 352:.\Generated_Source\PSoC4/CapSense_1.c **** 	CapSense_1_SampleClk_SetDividerValue((uint16)CapSense_1_INITIAL_CLK_DIVIDER);
 355              		.loc 1 352 0
 356 000e 0020     		mov	r0, #0
 357 0010 0021     		mov	r1, #0
 358 0012 FFF7FEFF 		bl	CapSense_1_SampleClk_SetFractionalDividerRegister
 353:.\Generated_Source\PSoC4/CapSense_1.c **** 	CapSense_1_SenseClk_SetDividerValue((uint16)CapSense_1_INITIAL_CLK_DIVIDER);
 359              		.loc 1 353 0
 360 0016 0020     		mov	r0, #0
 361 0018 0021     		mov	r1, #0
 362 001a FFF7FEFF 		bl	CapSense_1_SenseClk_SetFractionalDividerRegister
 354:.\Generated_Source\PSoC4/CapSense_1.c **** 	
 355:.\Generated_Source\PSoC4/CapSense_1.c **** 	#if (0u == CapSense_1_IS_M0S8PERI_BLOCK)
 356:.\Generated_Source\PSoC4/CapSense_1.c **** 		CapSense_1_SenseClk_Start();
 363              		.loc 1 356 0
 364 001e FFF7FEFF 		bl	CapSense_1_SenseClk_Start
 357:.\Generated_Source\PSoC4/CapSense_1.c **** 		CapSense_1_SampleClk_Start();
 365              		.loc 1 357 0
 366 0022 FFF7FEFF 		bl	CapSense_1_SampleClk_Start
 358:.\Generated_Source\PSoC4/CapSense_1.c **** 	#else
 359:.\Generated_Source\PSoC4/CapSense_1.c **** 		CapSense_1_SampleClk_Start();
 360:.\Generated_Source\PSoC4/CapSense_1.c **** 		CapSense_1_SenseClk_StartEx(CapSense_1_SampleClk__DIV_ID);
 361:.\Generated_Source\PSoC4/CapSense_1.c **** 	#endif /* (0u == CapSense_1_IS_M0S8PERI_BLOCK) */
 362:.\Generated_Source\PSoC4/CapSense_1.c **** 	
 363:.\Generated_Source\PSoC4/CapSense_1.c **** 	/* Enable the CSD block */
 364:.\Generated_Source\PSoC4/CapSense_1.c ****     newRegValue = CapSense_1_CSD_CFG_REG;
 367              		.loc 1 364 0
 368 0026 084B     		ldr	r3, .L10
 369 0028 1B68     		ldr	r3, [r3]
 370 002a 7B60     		str	r3, [r7, #4]
 365:.\Generated_Source\PSoC4/CapSense_1.c ****     newRegValue |= (CapSense_1_CSD_CFG_ENABLE | CapSense_1_CSD_CFG_SENSE_COMP_EN 
 371              		.loc 1 365 0
ARM GAS  C:\Users\mitchell\AppData\Local\Temp\cc5pMFOa.s 			page 14


 372 002c 7B68     		ldr	r3, [r7, #4]
 373 002e 074A     		ldr	r2, .L10+4
 374 0030 1343     		orr	r3, r2
 375 0032 7B60     		str	r3, [r7, #4]
 366:.\Generated_Source\PSoC4/CapSense_1.c ****                                                    | CapSense_1_CSD_CFG_SENSE_EN);    
 367:.\Generated_Source\PSoC4/CapSense_1.c ****     CapSense_1_CSD_CFG_REG = newRegValue;
 376              		.loc 1 367 0
 377 0034 044B     		ldr	r3, .L10
 378 0036 7A68     		ldr	r2, [r7, #4]
 379 0038 1A60     		str	r2, [r3]
 368:.\Generated_Source\PSoC4/CapSense_1.c **** 
 369:.\Generated_Source\PSoC4/CapSense_1.c ****     /* Enable interrupt */
 370:.\Generated_Source\PSoC4/CapSense_1.c ****     CyIntEnable(CapSense_1_ISR_NUMBER);
 380              		.loc 1 370 0
 381 003a 0F20     		mov	r0, #15
 382 003c FFF7FEFF 		bl	CyIntEnable
 371:.\Generated_Source\PSoC4/CapSense_1.c **** }
 383              		.loc 1 371 0
 384 0040 BD46     		mov	sp, r7
 385 0042 02B0     		add	sp, sp, #8
 386              		@ sp needed
 387 0044 80BD     		pop	{r7, pc}
 388              	.L11:
 389 0046 C046     		.align	2
 390              	.L10:
 391 0048 04000840 		.word	1074266116
 392 004c 00100880 		.word	-2146955264
 393              		.cfi_endproc
 394              	.LFE35:
 395              		.size	CapSense_1_Enable, .-CapSense_1_Enable
 396              		.section	.text.CapSense_1_Start,"ax",%progbits
 397              		.align	2
 398              		.global	CapSense_1_Start
 399              		.code	16
 400              		.thumb_func
 401              		.type	CapSense_1_Start, %function
 402              	CapSense_1_Start:
 403              	.LFB36:
 372:.\Generated_Source\PSoC4/CapSense_1.c **** 
 373:.\Generated_Source\PSoC4/CapSense_1.c **** 
 374:.\Generated_Source\PSoC4/CapSense_1.c **** /*******************************************************************************
 375:.\Generated_Source\PSoC4/CapSense_1.c **** * Function Name: CapSense_1_Start
 376:.\Generated_Source\PSoC4/CapSense_1.c **** ********************************************************************************
 377:.\Generated_Source\PSoC4/CapSense_1.c **** *
 378:.\Generated_Source\PSoC4/CapSense_1.c **** * Summary:
 379:.\Generated_Source\PSoC4/CapSense_1.c **** *  This is the preferred method to begin the component operation. CapSense_Start() 
 380:.\Generated_Source\PSoC4/CapSense_1.c **** *  calls the CapSense_Init() function, and then calls the CapSense_Enable() 
 381:.\Generated_Source\PSoC4/CapSense_1.c **** *  function. Initializes the registers and starts the CSD method of the CapSense 
 382:.\Generated_Source\PSoC4/CapSense_1.c **** *  component. Resets all the sensors to an inactive state. Enables interrupts for 
 383:.\Generated_Source\PSoC4/CapSense_1.c **** *  sensors scanning. When the SmartSense tuning mode is selected, the tuning procedure
 384:.\Generated_Source\PSoC4/CapSense_1.c **** *  is applied for all the sensors. The CapSense_Start() routine must be called before 
 385:.\Generated_Source\PSoC4/CapSense_1.c **** *  any other API routines.
 386:.\Generated_Source\PSoC4/CapSense_1.c **** *
 387:.\Generated_Source\PSoC4/CapSense_1.c **** * Parameters:
 388:.\Generated_Source\PSoC4/CapSense_1.c **** *  None
 389:.\Generated_Source\PSoC4/CapSense_1.c **** *
 390:.\Generated_Source\PSoC4/CapSense_1.c **** * Return:
ARM GAS  C:\Users\mitchell\AppData\Local\Temp\cc5pMFOa.s 			page 15


 391:.\Generated_Source\PSoC4/CapSense_1.c **** *  None
 392:.\Generated_Source\PSoC4/CapSense_1.c **** *
 393:.\Generated_Source\PSoC4/CapSense_1.c **** * Global Variables:
 394:.\Generated_Source\PSoC4/CapSense_1.c **** *   CapSense_1_initVar - used to check the initial configuration, 
 395:.\Generated_Source\PSoC4/CapSense_1.c **** *   modified on the first function call.
 396:.\Generated_Source\PSoC4/CapSense_1.c **** *  CapSense_1_lowLevelTuningDone - Used to notify the Tuner GUI that 
 397:.\Generated_Source\PSoC4/CapSense_1.c **** *   tuning of the scanning parameters is done. 
 398:.\Generated_Source\PSoC4/CapSense_1.c **** *
 399:.\Generated_Source\PSoC4/CapSense_1.c **** * Side Effects:
 400:.\Generated_Source\PSoC4/CapSense_1.c **** *  None
 401:.\Generated_Source\PSoC4/CapSense_1.c **** * 
 402:.\Generated_Source\PSoC4/CapSense_1.c **** *******************************************************************************/
 403:.\Generated_Source\PSoC4/CapSense_1.c **** void CapSense_1_Start(void)
 404:.\Generated_Source\PSoC4/CapSense_1.c **** {
 404              		.loc 1 404 0
 405              		.cfi_startproc
 406 0000 80B5     		push	{r7, lr}
 407              		.cfi_def_cfa_offset 8
 408              		.cfi_offset 7, -8
 409              		.cfi_offset 14, -4
 410 0002 00AF     		add	r7, sp, #0
 411              		.cfi_def_cfa_register 7
 405:.\Generated_Source\PSoC4/CapSense_1.c **** 
 406:.\Generated_Source\PSoC4/CapSense_1.c **** 	static uint8 CapSense_1_initVar = 0u;
 407:.\Generated_Source\PSoC4/CapSense_1.c **** 
 408:.\Generated_Source\PSoC4/CapSense_1.c **** 	#if((0u != CapSense_1_AUTOCALIBRATION_ENABLE) && (CapSense_1_TUNING_METHOD != CapSense_1__TUNING_A
 409:.\Generated_Source\PSoC4/CapSense_1.c **** 		uint32 curSensor;
 410:.\Generated_Source\PSoC4/CapSense_1.c **** 		uint32 rawLevel;
 411:.\Generated_Source\PSoC4/CapSense_1.c **** 		uint32 widget;
 412:.\Generated_Source\PSoC4/CapSense_1.c ****     #endif /* ((0u != CapSense_1_AUTOCALIBRATION_ENABLE) && (CapSense_1_TUNING_METHOD != CapSense_1
 413:.\Generated_Source\PSoC4/CapSense_1.c **** 	
 414:.\Generated_Source\PSoC4/CapSense_1.c ****     if (CapSense_1_initVar == 0u)
 412              		.loc 1 414 0
 413 0004 094B     		ldr	r3, .L14
 414 0006 1B78     		ldrb	r3, [r3]
 415 0008 002B     		cmp	r3, #0
 416 000a 04D1     		bne	.L13
 415:.\Generated_Source\PSoC4/CapSense_1.c ****     {
 416:.\Generated_Source\PSoC4/CapSense_1.c ****         CapSense_1_Init();
 417              		.loc 1 416 0
 418 000c FFF7FEFF 		bl	CapSense_1_Init
 417:.\Generated_Source\PSoC4/CapSense_1.c ****         CapSense_1_initVar = 1u;
 419              		.loc 1 417 0
 420 0010 064B     		ldr	r3, .L14
 421 0012 0122     		mov	r2, #1
 422 0014 1A70     		strb	r2, [r3]
 423              	.L13:
 418:.\Generated_Source\PSoC4/CapSense_1.c ****     }
 419:.\Generated_Source\PSoC4/CapSense_1.c ****     CapSense_1_Enable();
 424              		.loc 1 419 0
 425 0016 FFF7FEFF 		bl	CapSense_1_Enable
 420:.\Generated_Source\PSoC4/CapSense_1.c **** 	
 421:.\Generated_Source\PSoC4/CapSense_1.c ****     /* AutoTunning start */
 422:.\Generated_Source\PSoC4/CapSense_1.c ****     #if(CapSense_1_TUNING_METHOD == CapSense_1__TUNING_AUTO)
 423:.\Generated_Source\PSoC4/CapSense_1.c **** 		#if(0u != CapSense_1_CSHL_API_GENERATE)
 424:.\Generated_Source\PSoC4/CapSense_1.c **** 	        CapSense_1_AutoTune();
 425:.\Generated_Source\PSoC4/CapSense_1.c **** 	        CapSense_1_lowLevelTuningDone = 1u;
ARM GAS  C:\Users\mitchell\AppData\Local\Temp\cc5pMFOa.s 			page 16


 426:.\Generated_Source\PSoC4/CapSense_1.c **** 		#endif /* (0u != CapSense_1_CSHL_API_GENERATE) */
 427:.\Generated_Source\PSoC4/CapSense_1.c **** 	#else
 428:.\Generated_Source\PSoC4/CapSense_1.c **** 		#if(0u != CapSense_1_AUTOCALIBRATION_ENABLE)
 429:.\Generated_Source\PSoC4/CapSense_1.c **** 			
 430:.\Generated_Source\PSoC4/CapSense_1.c **** 			#if(CapSense_1_IDAC_CNT > 1u)
 431:.\Generated_Source\PSoC4/CapSense_1.c **** 				CapSense_1_CSD_IDAC_REG &= ~(CapSense_1_CSD_IDAC2_MODE_MASK);	
 432:.\Generated_Source\PSoC4/CapSense_1.c **** 			#endif /* (CapSense_1_IDAC_CNT > 1u) */
 433:.\Generated_Source\PSoC4/CapSense_1.c **** 			
 434:.\Generated_Source\PSoC4/CapSense_1.c **** 			for(curSensor = 0u; curSensor < CapSense_1_TOTAL_SCANSLOT_COUNT; curSensor++)
 435:.\Generated_Source\PSoC4/CapSense_1.c **** 			{
 436:.\Generated_Source\PSoC4/CapSense_1.c **** 				widget = CapSense_1_widgetNumber[curSensor];
 437:.\Generated_Source\PSoC4/CapSense_1.c **** 				rawLevel = CapSense_1_widgetResolution[widget] >> CapSense_1_RESOLUTION_OFFSET;
 438:.\Generated_Source\PSoC4/CapSense_1.c **** 				
 439:.\Generated_Source\PSoC4/CapSense_1.c **** 				/* Calibration level should be equal to 85% from scanning resolution */
 440:.\Generated_Source\PSoC4/CapSense_1.c **** 				rawLevel = (rawLevel * 85u) / 100u;
 441:.\Generated_Source\PSoC4/CapSense_1.c **** 				
 442:.\Generated_Source\PSoC4/CapSense_1.c **** 				CapSense_1_CalibrateSensor(curSensor, rawLevel, CapSense_1_modulationIDAC);
 443:.\Generated_Source\PSoC4/CapSense_1.c **** 			}
 444:.\Generated_Source\PSoC4/CapSense_1.c **** 
 445:.\Generated_Source\PSoC4/CapSense_1.c **** 			#if(0u != CapSense_1_TOTAL_CENTROIDS_COUNT) 
 446:.\Generated_Source\PSoC4/CapSense_1.c **** 				CapSense_1_NormalizeWidgets(CapSense_1_END_OF_WIDGETS_INDEX, CapSense_1_modulationIDAC);
 447:.\Generated_Source\PSoC4/CapSense_1.c **** 			#endif /* (0u != CapSense_1_TOTAL_CENTROIDS_COUNT)  */
 448:.\Generated_Source\PSoC4/CapSense_1.c **** 
 449:.\Generated_Source\PSoC4/CapSense_1.c **** 			#if(CapSense_1_IDAC_CNT > 1u)
 450:.\Generated_Source\PSoC4/CapSense_1.c **** 				for(curSensor = 0u; curSensor < CapSense_1_TOTAL_SCANSLOT_COUNT; curSensor++)
 451:.\Generated_Source\PSoC4/CapSense_1.c **** 			    {
 452:.\Generated_Source\PSoC4/CapSense_1.c **** 					CapSense_1_compensationIDAC[curSensor] = CapSense_1_modulationIDAC[curSensor] / 2u;
 453:.\Generated_Source\PSoC4/CapSense_1.c **** 					CapSense_1_modulationIDAC[curSensor] = (CapSense_1_modulationIDAC[curSensor] + 1u) / 2u;
 454:.\Generated_Source\PSoC4/CapSense_1.c **** 			    }
 455:.\Generated_Source\PSoC4/CapSense_1.c **** 				CapSense_1_CSD_IDAC_REG |= CapSense_1_CSD_IDAC2_MODE_FIXED;
 456:.\Generated_Source\PSoC4/CapSense_1.c **** 			#endif /* (CapSense_1_IDAC_CNT > 1u) */
 457:.\Generated_Source\PSoC4/CapSense_1.c **** 			
 458:.\Generated_Source\PSoC4/CapSense_1.c ****         #endif /* (0u != CapSense_1_AUTOCALIBRATION_ENABLE) */ 
 459:.\Generated_Source\PSoC4/CapSense_1.c **** 					
 460:.\Generated_Source\PSoC4/CapSense_1.c ****     #endif /* ((CapSense_1_TUNING_METHOD == CapSense_1__TUNING_AUTO) */	
 461:.\Generated_Source\PSoC4/CapSense_1.c **** 	
 462:.\Generated_Source\PSoC4/CapSense_1.c **** 	/* Initialize Advanced Centroid */
 463:.\Generated_Source\PSoC4/CapSense_1.c **** 	#if(CapSense_1_TOTAL_TRACKPAD_GESTURES_COUNT > 0u)
 464:.\Generated_Source\PSoC4/CapSense_1.c **** 		CapSense_1_AdvancedCentroidInit();
 465:.\Generated_Source\PSoC4/CapSense_1.c **** 	#endif /* (CapSense_1_TOTAL_TRACKPAD_GESTURES_COUNT > 0u) */
 466:.\Generated_Source\PSoC4/CapSense_1.c **** 	
 467:.\Generated_Source\PSoC4/CapSense_1.c **** 	/* Connect sense comparator input to AMUXA */
 468:.\Generated_Source\PSoC4/CapSense_1.c **** 	CapSense_1_CSD_CFG_REG |= CapSense_1_CSD_CFG_SENSE_INSEL;
 426              		.loc 1 468 0
 427 001a 054B     		ldr	r3, .L14+4
 428 001c 044A     		ldr	r2, .L14+4
 429 001e 1268     		ldr	r2, [r2]
 430 0020 8021     		mov	r1, #128
 431 0022 C903     		lsl	r1, r1, #15
 432 0024 0A43     		orr	r2, r1
 433 0026 1A60     		str	r2, [r3]
 469:.\Generated_Source\PSoC4/CapSense_1.c **** }
 434              		.loc 1 469 0
 435 0028 BD46     		mov	sp, r7
 436              		@ sp needed
 437 002a 80BD     		pop	{r7, pc}
 438              	.L15:
ARM GAS  C:\Users\mitchell\AppData\Local\Temp\cc5pMFOa.s 			page 17


 439              		.align	2
 440              	.L14:
 441 002c 0E000000 		.word	CapSense_1_initVar.5202
 442 0030 04000840 		.word	1074266116
 443              		.cfi_endproc
 444              	.LFE36:
 445              		.size	CapSense_1_Start, .-CapSense_1_Start
 446              		.section	.text.CapSense_1_Stop,"ax",%progbits
 447              		.align	2
 448              		.global	CapSense_1_Stop
 449              		.code	16
 450              		.thumb_func
 451              		.type	CapSense_1_Stop, %function
 452              	CapSense_1_Stop:
 453              	.LFB37:
 470:.\Generated_Source\PSoC4/CapSense_1.c **** 
 471:.\Generated_Source\PSoC4/CapSense_1.c **** 
 472:.\Generated_Source\PSoC4/CapSense_1.c **** /*******************************************************************************
 473:.\Generated_Source\PSoC4/CapSense_1.c **** * Function Name: CapSense_1_Stop
 474:.\Generated_Source\PSoC4/CapSense_1.c **** ********************************************************************************
 475:.\Generated_Source\PSoC4/CapSense_1.c **** *
 476:.\Generated_Source\PSoC4/CapSense_1.c **** * Summary:
 477:.\Generated_Source\PSoC4/CapSense_1.c **** *  Stops the sensor scanning, disables component interrupts, and resets all the 
 478:.\Generated_Source\PSoC4/CapSense_1.c **** *  sensors to an inactive state. Disables the Active mode power template bits for
 479:.\Generated_Source\PSoC4/CapSense_1.c **** *  the subcomponents used within CapSense.
 480:.\Generated_Source\PSoC4/CapSense_1.c **** *
 481:.\Generated_Source\PSoC4/CapSense_1.c **** * Parameters:
 482:.\Generated_Source\PSoC4/CapSense_1.c **** *  None
 483:.\Generated_Source\PSoC4/CapSense_1.c **** *
 484:.\Generated_Source\PSoC4/CapSense_1.c **** * Return:
 485:.\Generated_Source\PSoC4/CapSense_1.c **** *  None
 486:.\Generated_Source\PSoC4/CapSense_1.c **** *
 487:.\Generated_Source\PSoC4/CapSense_1.c **** * Global Variables:
 488:.\Generated_Source\PSoC4/CapSense_1.c **** *  CapSense_1_csdTrim1 - Contains the IDAC trim register value for the Sourcing Mode.
 489:.\Generated_Source\PSoC4/CapSense_1.c **** *  CapSense_1_csdTrim2 - Contains the IDAC trim register value for vSinking Mode.
 490:.\Generated_Source\PSoC4/CapSense_1.c **** *
 491:.\Generated_Source\PSoC4/CapSense_1.c **** * Side Effects:
 492:.\Generated_Source\PSoC4/CapSense_1.c **** *  This function should be called after scans are completed.
 493:.\Generated_Source\PSoC4/CapSense_1.c **** *
 494:.\Generated_Source\PSoC4/CapSense_1.c **** *******************************************************************************/
 495:.\Generated_Source\PSoC4/CapSense_1.c **** void CapSense_1_Stop(void)
 496:.\Generated_Source\PSoC4/CapSense_1.c **** {
 454              		.loc 1 496 0
 455              		.cfi_startproc
 456 0000 80B5     		push	{r7, lr}
 457              		.cfi_def_cfa_offset 8
 458              		.cfi_offset 7, -8
 459              		.cfi_offset 14, -4
 460 0002 00AF     		add	r7, sp, #0
 461              		.cfi_def_cfa_register 7
 497:.\Generated_Source\PSoC4/CapSense_1.c ****     /* Disable interrupt */
 498:.\Generated_Source\PSoC4/CapSense_1.c ****     CyIntDisable(CapSense_1_ISR_NUMBER);
 462              		.loc 1 498 0
 463 0004 0F20     		mov	r0, #15
 464 0006 FFF7FEFF 		bl	CyIntDisable
 499:.\Generated_Source\PSoC4/CapSense_1.c **** 	
 500:.\Generated_Source\PSoC4/CapSense_1.c **** 	CapSense_1_CSD_CFG_REG &= ~(CapSense_1_CSD_CFG_SENSE_COMP_EN | CapSense_1_CSD_CFG_SENSE_EN);
ARM GAS  C:\Users\mitchell\AppData\Local\Temp\cc5pMFOa.s 			page 18


 465              		.loc 1 500 0
 466 000a 064B     		ldr	r3, .L17
 467 000c 054A     		ldr	r2, .L17
 468 000e 1168     		ldr	r1, [r2]
 469 0010 054A     		ldr	r2, .L17+4
 470 0012 0A40     		and	r2, r1
 471 0014 1A60     		str	r2, [r3]
 501:.\Generated_Source\PSoC4/CapSense_1.c **** 	
 502:.\Generated_Source\PSoC4/CapSense_1.c **** 	#if(CapSense_1_IDAC_CNT == 2u)
 503:.\Generated_Source\PSoC4/CapSense_1.c **** 		CapSense_1_CSD_CFG_REG &= ~(CapSense_1_CSD_CFG_ENABLE);
 504:.\Generated_Source\PSoC4/CapSense_1.c **** 	#endif /* (CapSense_1_IDAC_CNT == 2u) */
 505:.\Generated_Source\PSoC4/CapSense_1.c **** 
 506:.\Generated_Source\PSoC4/CapSense_1.c ****     /* Disable the Clocks */
 507:.\Generated_Source\PSoC4/CapSense_1.c ****     CapSense_1_SenseClk_Stop();
 472              		.loc 1 507 0
 473 0016 FFF7FEFF 		bl	CapSense_1_SenseClk_Stop
 508:.\Generated_Source\PSoC4/CapSense_1.c ****     CapSense_1_SampleClk_Stop();
 474              		.loc 1 508 0
 475 001a FFF7FEFF 		bl	CapSense_1_SampleClk_Stop
 509:.\Generated_Source\PSoC4/CapSense_1.c **** }
 476              		.loc 1 509 0
 477 001e BD46     		mov	sp, r7
 478              		@ sp needed
 479 0020 80BD     		pop	{r7, pc}
 480              	.L18:
 481 0022 C046     		.align	2
 482              	.L17:
 483 0024 04000840 		.word	1074266116
 484 0028 FFEFF7FF 		.word	-528385
 485              		.cfi_endproc
 486              	.LFE37:
 487              		.size	CapSense_1_Stop, .-CapSense_1_Stop
 488              		.section	.text.CapSense_1_FindNextSensor,"ax",%progbits
 489              		.align	2
 490              		.global	CapSense_1_FindNextSensor
 491              		.code	16
 492              		.thumb_func
 493              		.type	CapSense_1_FindNextSensor, %function
 494              	CapSense_1_FindNextSensor:
 495              	.LFB38:
 510:.\Generated_Source\PSoC4/CapSense_1.c **** 
 511:.\Generated_Source\PSoC4/CapSense_1.c **** 
 512:.\Generated_Source\PSoC4/CapSense_1.c **** /*******************************************************************************
 513:.\Generated_Source\PSoC4/CapSense_1.c **** * Function Name: CapSense_1_FindNextSensor
 514:.\Generated_Source\PSoC4/CapSense_1.c **** ********************************************************************************
 515:.\Generated_Source\PSoC4/CapSense_1.c **** *
 516:.\Generated_Source\PSoC4/CapSense_1.c **** * Summary:
 517:.\Generated_Source\PSoC4/CapSense_1.c **** *  Finds the next sensor to scan. 
 518:.\Generated_Source\PSoC4/CapSense_1.c **** *
 519:.\Generated_Source\PSoC4/CapSense_1.c **** * Parameters:
 520:.\Generated_Source\PSoC4/CapSense_1.c **** *  snsIndex:  Current index of sensor.
 521:.\Generated_Source\PSoC4/CapSense_1.c **** *
 522:.\Generated_Source\PSoC4/CapSense_1.c **** * Return:
 523:.\Generated_Source\PSoC4/CapSense_1.c **** *  Returns the next sensor index to scan.
 524:.\Generated_Source\PSoC4/CapSense_1.c **** *
 525:.\Generated_Source\PSoC4/CapSense_1.c **** * Global Variables:
 526:.\Generated_Source\PSoC4/CapSense_1.c **** *  CapSense_1_sensorEnableMask[] - used to store bit masks of the enabled sensors.
ARM GAS  C:\Users\mitchell\AppData\Local\Temp\cc5pMFOa.s 			page 19


 527:.\Generated_Source\PSoC4/CapSense_1.c **** *
 528:.\Generated_Source\PSoC4/CapSense_1.c **** * Side Effects:
 529:.\Generated_Source\PSoC4/CapSense_1.c **** *  This function affects the  current scanning and should not
 530:.\Generated_Source\PSoC4/CapSense_1.c **** *  be used outside the component.
 531:.\Generated_Source\PSoC4/CapSense_1.c **** *
 532:.\Generated_Source\PSoC4/CapSense_1.c **** *******************************************************************************/
 533:.\Generated_Source\PSoC4/CapSense_1.c **** uint8 CapSense_1_FindNextSensor(uint8 snsIndex)
 534:.\Generated_Source\PSoC4/CapSense_1.c **** {
 496              		.loc 1 534 0
 497              		.cfi_startproc
 498 0000 80B5     		push	{r7, lr}
 499              		.cfi_def_cfa_offset 8
 500              		.cfi_offset 7, -8
 501              		.cfi_offset 14, -4
 502 0002 84B0     		sub	sp, sp, #16
 503              		.cfi_def_cfa_offset 24
 504 0004 00AF     		add	r7, sp, #0
 505              		.cfi_def_cfa_register 7
 506 0006 021C     		mov	r2, r0
 507 0008 FB1D     		add	r3, r7, #7
 508 000a 1A70     		strb	r2, [r3]
 509              	.L22:
 535:.\Generated_Source\PSoC4/CapSense_1.c ****     uint32 enableFlag;
 536:.\Generated_Source\PSoC4/CapSense_1.c ****     
 537:.\Generated_Source\PSoC4/CapSense_1.c ****     /* Check if sensor enabled */
 538:.\Generated_Source\PSoC4/CapSense_1.c ****     do
 539:.\Generated_Source\PSoC4/CapSense_1.c ****     {
 540:.\Generated_Source\PSoC4/CapSense_1.c ****         /* Proceed with next sensor */
 541:.\Generated_Source\PSoC4/CapSense_1.c ****         snsIndex++;
 510              		.loc 1 541 0
 511 000c FB1D     		add	r3, r7, #7
 512 000e 1A78     		ldrb	r2, [r3]
 513 0010 FB1D     		add	r3, r7, #7
 514 0012 0132     		add	r2, r2, #1
 515 0014 1A70     		strb	r2, [r3]
 542:.\Generated_Source\PSoC4/CapSense_1.c ****         if(snsIndex == CapSense_1_TOTAL_SENSOR_COUNT)
 516              		.loc 1 542 0
 517 0016 FB1D     		add	r3, r7, #7
 518 0018 1B78     		ldrb	r3, [r3]
 519 001a 052B     		cmp	r3, #5
 520 001c 00D1     		bne	.L20
 543:.\Generated_Source\PSoC4/CapSense_1.c ****         {
 544:.\Generated_Source\PSoC4/CapSense_1.c ****             break;
 521              		.loc 1 544 0
 522 001e 0BE0     		b	.L21
 523              	.L20:
 545:.\Generated_Source\PSoC4/CapSense_1.c ****         }
 546:.\Generated_Source\PSoC4/CapSense_1.c ****         enableFlag = CapSense_1_GetBitValue(CapSense_1_sensorEnableMask, (uint32)snsIndex);
 524              		.loc 1 546 0
 525 0020 FB1D     		add	r3, r7, #7
 526 0022 1B78     		ldrb	r3, [r3]
 527 0024 074A     		ldr	r2, .L24
 528 0026 101C     		mov	r0, r2
 529 0028 191C     		mov	r1, r3
 530 002a FFF7FEFF 		bl	CapSense_1_GetBitValue
 531 002e 031C     		mov	r3, r0
 532 0030 FB60     		str	r3, [r7, #12]
ARM GAS  C:\Users\mitchell\AppData\Local\Temp\cc5pMFOa.s 			page 20


 547:.\Generated_Source\PSoC4/CapSense_1.c ****     }    
 548:.\Generated_Source\PSoC4/CapSense_1.c ****     while(enableFlag == 0u);
 533              		.loc 1 548 0
 534 0032 FB68     		ldr	r3, [r7, #12]
 535 0034 002B     		cmp	r3, #0
 536 0036 E9D0     		beq	.L22
 537              	.L21:
 549:.\Generated_Source\PSoC4/CapSense_1.c ****     
 550:.\Generated_Source\PSoC4/CapSense_1.c ****     return ((uint8)snsIndex);
 538              		.loc 1 550 0
 539 0038 FB1D     		add	r3, r7, #7
 540 003a 1B78     		ldrb	r3, [r3]
 551:.\Generated_Source\PSoC4/CapSense_1.c **** }
 541              		.loc 1 551 0
 542 003c 181C     		mov	r0, r3
 543 003e BD46     		mov	sp, r7
 544 0040 04B0     		add	sp, sp, #16
 545              		@ sp needed
 546 0042 80BD     		pop	{r7, pc}
 547              	.L25:
 548              		.align	2
 549              	.L24:
 550 0044 00000000 		.word	CapSense_1_sensorEnableMask
 551              		.cfi_endproc
 552              	.LFE38:
 553              		.size	CapSense_1_FindNextSensor, .-CapSense_1_FindNextSensor
 554              		.section	.text.CapSense_1_ScanSensor,"ax",%progbits
 555              		.align	2
 556              		.global	CapSense_1_ScanSensor
 557              		.code	16
 558              		.thumb_func
 559              		.type	CapSense_1_ScanSensor, %function
 560              	CapSense_1_ScanSensor:
 561              	.LFB39:
 552:.\Generated_Source\PSoC4/CapSense_1.c **** 
 553:.\Generated_Source\PSoC4/CapSense_1.c **** 
 554:.\Generated_Source\PSoC4/CapSense_1.c **** /*******************************************************************************
 555:.\Generated_Source\PSoC4/CapSense_1.c **** * Function Name: CapSense_1_ScanSensor
 556:.\Generated_Source\PSoC4/CapSense_1.c **** ********************************************************************************
 557:.\Generated_Source\PSoC4/CapSense_1.c **** *
 558:.\Generated_Source\PSoC4/CapSense_1.c **** * Summary:
 559:.\Generated_Source\PSoC4/CapSense_1.c **** *  Sets the scan settings and starts scanning a sensor. After scanning is complete,
 560:.\Generated_Source\PSoC4/CapSense_1.c **** *  the ISR copies the measured sensor raw data to the global raw sensor array. 
 561:.\Generated_Source\PSoC4/CapSense_1.c **** *  Use of the ISR ensures this function is non-blocking. 
 562:.\Generated_Source\PSoC4/CapSense_1.c **** *  Each sensor has a unique number within the sensor array. 
 563:.\Generated_Source\PSoC4/CapSense_1.c **** *  This number is assigned by the CapSense customizer in sequence.
 564:.\Generated_Source\PSoC4/CapSense_1.c **** *
 565:.\Generated_Source\PSoC4/CapSense_1.c **** * Parameters:
 566:.\Generated_Source\PSoC4/CapSense_1.c **** *  sensor:  Sensor number.
 567:.\Generated_Source\PSoC4/CapSense_1.c **** *
 568:.\Generated_Source\PSoC4/CapSense_1.c **** * Return:
 569:.\Generated_Source\PSoC4/CapSense_1.c **** *  None
 570:.\Generated_Source\PSoC4/CapSense_1.c **** *
 571:.\Generated_Source\PSoC4/CapSense_1.c **** * Global Variables:
 572:.\Generated_Source\PSoC4/CapSense_1.c **** *  CapSense_1_csdStatusVar - used to provide the status and mode of the scanning process. 
 573:.\Generated_Source\PSoC4/CapSense_1.c **** *  Sets the busy status(scan in progress) and mode of scan as single scan.
 574:.\Generated_Source\PSoC4/CapSense_1.c **** *  CapSense_1_sensorIndex - used to store a sensor scanning sensor number.
ARM GAS  C:\Users\mitchell\AppData\Local\Temp\cc5pMFOa.s 			page 21


 575:.\Generated_Source\PSoC4/CapSense_1.c **** *  Sets to the provided sensor argument.
 576:.\Generated_Source\PSoC4/CapSense_1.c **** *
 577:.\Generated_Source\PSoC4/CapSense_1.c **** * Side Effects:
 578:.\Generated_Source\PSoC4/CapSense_1.c **** *  None
 579:.\Generated_Source\PSoC4/CapSense_1.c **** * 
 580:.\Generated_Source\PSoC4/CapSense_1.c **** *******************************************************************************/
 581:.\Generated_Source\PSoC4/CapSense_1.c **** void CapSense_1_ScanSensor(uint32 sensor)
 582:.\Generated_Source\PSoC4/CapSense_1.c **** {
 562              		.loc 1 582 0
 563              		.cfi_startproc
 564 0000 80B5     		push	{r7, lr}
 565              		.cfi_def_cfa_offset 8
 566              		.cfi_offset 7, -8
 567              		.cfi_offset 14, -4
 568 0002 82B0     		sub	sp, sp, #8
 569              		.cfi_def_cfa_offset 16
 570 0004 00AF     		add	r7, sp, #0
 571              		.cfi_def_cfa_register 7
 572 0006 7860     		str	r0, [r7, #4]
 583:.\Generated_Source\PSoC4/CapSense_1.c ****     /* Clears status/control variable and set sensorIndex */
 584:.\Generated_Source\PSoC4/CapSense_1.c ****     CapSense_1_csdStatusVar = 0u;
 573              		.loc 1 584 0
 574 0008 084B     		ldr	r3, .L27
 575 000a 0022     		mov	r2, #0
 576 000c 1A70     		strb	r2, [r3]
 585:.\Generated_Source\PSoC4/CapSense_1.c ****     CapSense_1_sensorIndex = (uint8)sensor;
 577              		.loc 1 585 0
 578 000e 7B68     		ldr	r3, [r7, #4]
 579 0010 DAB2     		uxtb	r2, r3
 580 0012 074B     		ldr	r3, .L27+4
 581 0014 1A70     		strb	r2, [r3]
 586:.\Generated_Source\PSoC4/CapSense_1.c ****     
 587:.\Generated_Source\PSoC4/CapSense_1.c ****     /* Start of sensor scan */
 588:.\Generated_Source\PSoC4/CapSense_1.c ****     CapSense_1_csdStatusVar = (CapSense_1_SW_STS_BUSY | CapSense_1_SW_CTRL_SINGLE_SCAN);
 582              		.loc 1 588 0
 583 0016 054B     		ldr	r3, .L27
 584 0018 8122     		mov	r2, #129
 585 001a 1A70     		strb	r2, [r3]
 589:.\Generated_Source\PSoC4/CapSense_1.c ****     CapSense_1_PreScan(sensor);
 586              		.loc 1 589 0
 587 001c 7B68     		ldr	r3, [r7, #4]
 588 001e 181C     		mov	r0, r3
 589 0020 FFF7FEFF 		bl	CapSense_1_PreScan
 590:.\Generated_Source\PSoC4/CapSense_1.c **** }
 590              		.loc 1 590 0
 591 0024 BD46     		mov	sp, r7
 592 0026 02B0     		add	sp, sp, #8
 593              		@ sp needed
 594 0028 80BD     		pop	{r7, pc}
 595              	.L28:
 596 002a C046     		.align	2
 597              	.L27:
 598 002c 00000000 		.word	CapSense_1_csdStatusVar
 599 0030 00000000 		.word	CapSense_1_sensorIndex
 600              		.cfi_endproc
 601              	.LFE39:
 602              		.size	CapSense_1_ScanSensor, .-CapSense_1_ScanSensor
ARM GAS  C:\Users\mitchell\AppData\Local\Temp\cc5pMFOa.s 			page 22


 603              		.section	.text.CapSense_1_ScanWidget,"ax",%progbits
 604              		.align	2
 605              		.global	CapSense_1_ScanWidget
 606              		.code	16
 607              		.thumb_func
 608              		.type	CapSense_1_ScanWidget, %function
 609              	CapSense_1_ScanWidget:
 610              	.LFB40:
 591:.\Generated_Source\PSoC4/CapSense_1.c **** 
 592:.\Generated_Source\PSoC4/CapSense_1.c **** 
 593:.\Generated_Source\PSoC4/CapSense_1.c **** #if(0u != CapSense_1_CSHL_API_GENERATE)
 594:.\Generated_Source\PSoC4/CapSense_1.c **** /*******************************************************************************
 595:.\Generated_Source\PSoC4/CapSense_1.c **** * Function Name: CapSense_1_ScanWidget
 596:.\Generated_Source\PSoC4/CapSense_1.c **** ********************************************************************************
 597:.\Generated_Source\PSoC4/CapSense_1.c **** *
 598:.\Generated_Source\PSoC4/CapSense_1.c **** * Summary:
 599:.\Generated_Source\PSoC4/CapSense_1.c **** *  Sets the scan settings and starts scanning a widget.
 600:.\Generated_Source\PSoC4/CapSense_1.c **** *
 601:.\Generated_Source\PSoC4/CapSense_1.c **** * Parameters:
 602:.\Generated_Source\PSoC4/CapSense_1.c **** *  uint32 widget: Widget number.
 603:.\Generated_Source\PSoC4/CapSense_1.c **** *
 604:.\Generated_Source\PSoC4/CapSense_1.c **** * Return:
 605:.\Generated_Source\PSoC4/CapSense_1.c **** *  None
 606:.\Generated_Source\PSoC4/CapSense_1.c **** *
 607:.\Generated_Source\PSoC4/CapSense_1.c **** * Global Variables:
 608:.\Generated_Source\PSoC4/CapSense_1.c **** *  CapSense_1_csdStatusVar - used to provide the status and mode of the scanning process. 
 609:.\Generated_Source\PSoC4/CapSense_1.c **** *  Sets the busy status(scan in progress) and clears the single scan mode.
 610:.\Generated_Source\PSoC4/CapSense_1.c **** *  CapSense_1_sensorIndex - used to store a sensor scanning sensor number.
 611:.\Generated_Source\PSoC4/CapSense_1.c **** *  Sets to 0xFF and provided to function CapSense_1_FindNextSensor or
 612:.\Generated_Source\PSoC4/CapSense_1.c **** *  CapSense_1_sensorEnableMask[] - used to store bit masks of the enabled sensors.
 613:.\Generated_Source\PSoC4/CapSense_1.c **** *  CapSense_1_sensorEnableMaskBackup[] - used to backup bit masks of the enabled
 614:.\Generated_Source\PSoC4/CapSense_1.c **** *   sensors.
 615:.\Generated_Source\PSoC4/CapSense_1.c **** *
 616:.\Generated_Source\PSoC4/CapSense_1.c **** * Side Effects:
 617:.\Generated_Source\PSoC4/CapSense_1.c **** *  None
 618:.\Generated_Source\PSoC4/CapSense_1.c **** * 
 619:.\Generated_Source\PSoC4/CapSense_1.c **** *******************************************************************************/
 620:.\Generated_Source\PSoC4/CapSense_1.c **** void CapSense_1_ScanWidget(uint32 widget)
 621:.\Generated_Source\PSoC4/CapSense_1.c **** {
 611              		.loc 1 621 0
 612              		.cfi_startproc
 613 0000 80B5     		push	{r7, lr}
 614              		.cfi_def_cfa_offset 8
 615              		.cfi_offset 7, -8
 616              		.cfi_offset 14, -4
 617 0002 86B0     		sub	sp, sp, #24
 618              		.cfi_def_cfa_offset 32
 619 0004 00AF     		add	r7, sp, #0
 620              		.cfi_def_cfa_register 7
 621 0006 7860     		str	r0, [r7, #4]
 622:.\Generated_Source\PSoC4/CapSense_1.c ****     uint32 sensorsPerWidget;
 623:.\Generated_Source\PSoC4/CapSense_1.c ****     uint32 lastSensor;
 624:.\Generated_Source\PSoC4/CapSense_1.c ****     uint32 snsIndex;
 625:.\Generated_Source\PSoC4/CapSense_1.c **** 
 626:.\Generated_Source\PSoC4/CapSense_1.c **** 	/* Get first sensor in widget */
 627:.\Generated_Source\PSoC4/CapSense_1.c **** 	CapSense_1_sensorIndex = CapSense_1_rawDataIndex[widget];
 622              		.loc 1 627 0
ARM GAS  C:\Users\mitchell\AppData\Local\Temp\cc5pMFOa.s 			page 23


 623 0008 2E4A     		ldr	r2, .L38
 624 000a 7B68     		ldr	r3, [r7, #4]
 625 000c D318     		add	r3, r2, r3
 626 000e 1A78     		ldrb	r2, [r3]
 627 0010 2D4B     		ldr	r3, .L38+4
 628 0012 1A70     		strb	r2, [r3]
 628:.\Generated_Source\PSoC4/CapSense_1.c **** 	
 629:.\Generated_Source\PSoC4/CapSense_1.c **** 	/* Get number of sensors in widget */
 630:.\Generated_Source\PSoC4/CapSense_1.c **** 	sensorsPerWidget = CapSense_1_numberOfSensors[widget];
 629              		.loc 1 630 0
 630 0014 2D4A     		ldr	r2, .L38+8
 631 0016 7B68     		ldr	r3, [r7, #4]
 632 0018 D318     		add	r3, r2, r3
 633 001a 1B78     		ldrb	r3, [r3]
 634 001c 7B61     		str	r3, [r7, #20]
 631:.\Generated_Source\PSoC4/CapSense_1.c **** 	
 632:.\Generated_Source\PSoC4/CapSense_1.c **** 	/* Check if generic Sensor */
 633:.\Generated_Source\PSoC4/CapSense_1.c **** 	if(sensorsPerWidget == 0u)
 635              		.loc 1 633 0
 636 001e 7B69     		ldr	r3, [r7, #20]
 637 0020 002B     		cmp	r3, #0
 638 0022 01D1     		bne	.L30
 634:.\Generated_Source\PSoC4/CapSense_1.c **** 	{
 635:.\Generated_Source\PSoC4/CapSense_1.c **** 		sensorsPerWidget = 1u;
 639              		.loc 1 635 0
 640 0024 0123     		mov	r3, #1
 641 0026 7B61     		str	r3, [r7, #20]
 642              	.L30:
 636:.\Generated_Source\PSoC4/CapSense_1.c **** 	}
 637:.\Generated_Source\PSoC4/CapSense_1.c **** 	
 638:.\Generated_Source\PSoC4/CapSense_1.c **** 	/* Get last sensor in widget */
 639:.\Generated_Source\PSoC4/CapSense_1.c **** 	lastSensor = (CapSense_1_rawDataIndex[widget] + sensorsPerWidget) - 1u;
 643              		.loc 1 639 0
 644 0028 264A     		ldr	r2, .L38
 645 002a 7B68     		ldr	r3, [r7, #4]
 646 002c D318     		add	r3, r2, r3
 647 002e 1B78     		ldrb	r3, [r3]
 648 0030 1A1C     		mov	r2, r3
 649 0032 7B69     		ldr	r3, [r7, #20]
 650 0034 D318     		add	r3, r2, r3
 651 0036 013B     		sub	r3, r3, #1
 652 0038 FB60     		str	r3, [r7, #12]
 640:.\Generated_Source\PSoC4/CapSense_1.c **** 
 641:.\Generated_Source\PSoC4/CapSense_1.c **** 	/* Backup sensorEnableMask array */
 642:.\Generated_Source\PSoC4/CapSense_1.c **** 	for(snsIndex = 0u; snsIndex < CapSense_1_TOTAL_SENSOR_MASK; snsIndex++)
 653              		.loc 1 642 0
 654 003a 0023     		mov	r3, #0
 655 003c 3B61     		str	r3, [r7, #16]
 656 003e 0AE0     		b	.L31
 657              	.L32:
 643:.\Generated_Source\PSoC4/CapSense_1.c **** 	{
 644:.\Generated_Source\PSoC4/CapSense_1.c **** 		/* Backup sensorEnableMask array */
 645:.\Generated_Source\PSoC4/CapSense_1.c **** 		CapSense_1_sensorEnableMaskBackup[snsIndex] = CapSense_1_sensorEnableMask[snsIndex];
 658              		.loc 1 645 0 discriminator 2
 659 0040 234A     		ldr	r2, .L38+12
 660 0042 3B69     		ldr	r3, [r7, #16]
 661 0044 D318     		add	r3, r2, r3
ARM GAS  C:\Users\mitchell\AppData\Local\Temp\cc5pMFOa.s 			page 24


 662 0046 1A78     		ldrb	r2, [r3]
 663 0048 2249     		ldr	r1, .L38+16
 664 004a 3B69     		ldr	r3, [r7, #16]
 665 004c CB18     		add	r3, r1, r3
 666 004e 1A70     		strb	r2, [r3]
 642:.\Generated_Source\PSoC4/CapSense_1.c **** 	for(snsIndex = 0u; snsIndex < CapSense_1_TOTAL_SENSOR_MASK; snsIndex++)
 667              		.loc 1 642 0 discriminator 2
 668 0050 3B69     		ldr	r3, [r7, #16]
 669 0052 0133     		add	r3, r3, #1
 670 0054 3B61     		str	r3, [r7, #16]
 671              	.L31:
 642:.\Generated_Source\PSoC4/CapSense_1.c **** 	for(snsIndex = 0u; snsIndex < CapSense_1_TOTAL_SENSOR_MASK; snsIndex++)
 672              		.loc 1 642 0 is_stmt 0 discriminator 1
 673 0056 3B69     		ldr	r3, [r7, #16]
 674 0058 002B     		cmp	r3, #0
 675 005a F1D0     		beq	.L32
 646:.\Generated_Source\PSoC4/CapSense_1.c **** 	}
 647:.\Generated_Source\PSoC4/CapSense_1.c **** 
 648:.\Generated_Source\PSoC4/CapSense_1.c **** 	/* Update sensorEnableMask to scan the sensors that belong to widget */
 649:.\Generated_Source\PSoC4/CapSense_1.c **** 	for(snsIndex = 0u; snsIndex < CapSense_1_TOTAL_SENSOR_COUNT; snsIndex++)
 676              		.loc 1 649 0 is_stmt 1
 677 005c 0023     		mov	r3, #0
 678 005e 3B61     		str	r3, [r7, #16]
 679 0060 1CE0     		b	.L33
 680              	.L36:
 650:.\Generated_Source\PSoC4/CapSense_1.c **** 	{
 651:.\Generated_Source\PSoC4/CapSense_1.c **** 		/* Update sensorEnableMask array bits to scan the widget only */ 
 652:.\Generated_Source\PSoC4/CapSense_1.c **** 	    if((snsIndex >= CapSense_1_sensorIndex) && (snsIndex <= lastSensor))
 681              		.loc 1 652 0
 682 0062 194B     		ldr	r3, .L38+4
 683 0064 1B78     		ldrb	r3, [r3]
 684 0066 DBB2     		uxtb	r3, r3
 685 0068 1A1C     		mov	r2, r3
 686 006a 3B69     		ldr	r3, [r7, #16]
 687 006c 9A42     		cmp	r2, r3
 688 006e 0BD8     		bhi	.L34
 689              		.loc 1 652 0 is_stmt 0 discriminator 1
 690 0070 3A69     		ldr	r2, [r7, #16]
 691 0072 FB68     		ldr	r3, [r7, #12]
 692 0074 9A42     		cmp	r2, r3
 693 0076 07D8     		bhi	.L34
 653:.\Generated_Source\PSoC4/CapSense_1.c **** 		{
 654:.\Generated_Source\PSoC4/CapSense_1.c **** 		    /* Set sensor bit to scan */
 655:.\Generated_Source\PSoC4/CapSense_1.c **** 			CapSense_1_SetBitValue(CapSense_1_sensorEnableMask, snsIndex, 1u);
 694              		.loc 1 655 0 is_stmt 1
 695 0078 154A     		ldr	r2, .L38+12
 696 007a 3B69     		ldr	r3, [r7, #16]
 697 007c 101C     		mov	r0, r2
 698 007e 191C     		mov	r1, r3
 699 0080 0122     		mov	r2, #1
 700 0082 FFF7FEFF 		bl	CapSense_1_SetBitValue
 701 0086 06E0     		b	.L35
 702              	.L34:
 656:.\Generated_Source\PSoC4/CapSense_1.c **** 		}
 657:.\Generated_Source\PSoC4/CapSense_1.c **** 		else
 658:.\Generated_Source\PSoC4/CapSense_1.c **** 		{
 659:.\Generated_Source\PSoC4/CapSense_1.c **** 		    /* Reset sensor bit to do not scan */
ARM GAS  C:\Users\mitchell\AppData\Local\Temp\cc5pMFOa.s 			page 25


 660:.\Generated_Source\PSoC4/CapSense_1.c **** 		    CapSense_1_SetBitValue(CapSense_1_sensorEnableMask, snsIndex, 0u);
 703              		.loc 1 660 0
 704 0088 114A     		ldr	r2, .L38+12
 705 008a 3B69     		ldr	r3, [r7, #16]
 706 008c 101C     		mov	r0, r2
 707 008e 191C     		mov	r1, r3
 708 0090 0022     		mov	r2, #0
 709 0092 FFF7FEFF 		bl	CapSense_1_SetBitValue
 710              	.L35:
 649:.\Generated_Source\PSoC4/CapSense_1.c **** 	for(snsIndex = 0u; snsIndex < CapSense_1_TOTAL_SENSOR_COUNT; snsIndex++)
 711              		.loc 1 649 0
 712 0096 3B69     		ldr	r3, [r7, #16]
 713 0098 0133     		add	r3, r3, #1
 714 009a 3B61     		str	r3, [r7, #16]
 715              	.L33:
 649:.\Generated_Source\PSoC4/CapSense_1.c **** 	for(snsIndex = 0u; snsIndex < CapSense_1_TOTAL_SENSOR_COUNT; snsIndex++)
 716              		.loc 1 649 0 is_stmt 0 discriminator 1
 717 009c 3B69     		ldr	r3, [r7, #16]
 718 009e 042B     		cmp	r3, #4
 719 00a0 DFD9     		bls	.L36
 661:.\Generated_Source\PSoC4/CapSense_1.c **** 		}
 662:.\Generated_Source\PSoC4/CapSense_1.c **** 	}
 663:.\Generated_Source\PSoC4/CapSense_1.c **** 
 664:.\Generated_Source\PSoC4/CapSense_1.c ****     /* Check end of scan condition */
 665:.\Generated_Source\PSoC4/CapSense_1.c ****     if(CapSense_1_sensorIndex < CapSense_1_TOTAL_SENSOR_COUNT)
 720              		.loc 1 665 0 is_stmt 1
 721 00a2 094B     		ldr	r3, .L38+4
 722 00a4 1B78     		ldrb	r3, [r3]
 723 00a6 DBB2     		uxtb	r3, r3
 724 00a8 042B     		cmp	r3, #4
 725 00aa 08D8     		bhi	.L29
 666:.\Generated_Source\PSoC4/CapSense_1.c ****     {
 667:.\Generated_Source\PSoC4/CapSense_1.c **** 		/* Set widget busy bit in status/control variable*/ 
 668:.\Generated_Source\PSoC4/CapSense_1.c **** 		CapSense_1_csdStatusVar = (CapSense_1_SW_STS_BUSY | CapSense_1_SW_CTRL_WIDGET_SCAN);
 726              		.loc 1 668 0
 727 00ac 0A4B     		ldr	r3, .L38+20
 728 00ae 4122     		mov	r2, #65
 729 00b0 1A70     		strb	r2, [r3]
 669:.\Generated_Source\PSoC4/CapSense_1.c **** 		/* Scan first sensor of widget*/ 
 670:.\Generated_Source\PSoC4/CapSense_1.c ****         CapSense_1_PreScan((uint32)CapSense_1_sensorIndex);
 730              		.loc 1 670 0
 731 00b2 054B     		ldr	r3, .L38+4
 732 00b4 1B78     		ldrb	r3, [r3]
 733 00b6 DBB2     		uxtb	r3, r3
 734 00b8 181C     		mov	r0, r3
 735 00ba FFF7FEFF 		bl	CapSense_1_PreScan
 736              	.L29:
 671:.\Generated_Source\PSoC4/CapSense_1.c ****     }
 672:.\Generated_Source\PSoC4/CapSense_1.c **** }
 737              		.loc 1 672 0
 738 00be BD46     		mov	sp, r7
 739 00c0 06B0     		add	sp, sp, #24
 740              		@ sp needed
 741 00c2 80BD     		pop	{r7, pc}
 742              	.L39:
 743              		.align	2
 744              	.L38:
ARM GAS  C:\Users\mitchell\AppData\Local\Temp\cc5pMFOa.s 			page 26


 745 00c4 00000000 		.word	CapSense_1_rawDataIndex
 746 00c8 00000000 		.word	CapSense_1_sensorIndex
 747 00cc 00000000 		.word	CapSense_1_numberOfSensors
 748 00d0 00000000 		.word	CapSense_1_sensorEnableMask
 749 00d4 00000000 		.word	CapSense_1_sensorEnableMaskBackup
 750 00d8 00000000 		.word	CapSense_1_csdStatusVar
 751              		.cfi_endproc
 752              	.LFE40:
 753              		.size	CapSense_1_ScanWidget, .-CapSense_1_ScanWidget
 754              		.section	.text.CapSense_1_ScanEnabledWidgets,"ax",%progbits
 755              		.align	2
 756              		.global	CapSense_1_ScanEnabledWidgets
 757              		.code	16
 758              		.thumb_func
 759              		.type	CapSense_1_ScanEnabledWidgets, %function
 760              	CapSense_1_ScanEnabledWidgets:
 761              	.LFB41:
 673:.\Generated_Source\PSoC4/CapSense_1.c **** #endif /* (0u != CapSense_1_CSHL_API_GENERATE) */
 674:.\Generated_Source\PSoC4/CapSense_1.c **** 
 675:.\Generated_Source\PSoC4/CapSense_1.c **** 
 676:.\Generated_Source\PSoC4/CapSense_1.c **** /*******************************************************************************
 677:.\Generated_Source\PSoC4/CapSense_1.c **** * Function Name: CapSense_1_ScanEnableWidgets
 678:.\Generated_Source\PSoC4/CapSense_1.c **** ********************************************************************************
 679:.\Generated_Source\PSoC4/CapSense_1.c **** *
 680:.\Generated_Source\PSoC4/CapSense_1.c **** * Summary:
 681:.\Generated_Source\PSoC4/CapSense_1.c **** *  This is the preferred method to scan all of the enabled widgets. 
 682:.\Generated_Source\PSoC4/CapSense_1.c **** *  The API starts scanning a sensor within the enabled widgets. 
 683:.\Generated_Source\PSoC4/CapSense_1.c **** *  The ISR continues scanning the sensors until all the enabled widgets are scanned. 
 684:.\Generated_Source\PSoC4/CapSense_1.c **** *  Use of the ISR ensures this function is non-blocking.
 685:.\Generated_Source\PSoC4/CapSense_1.c **** *  All the widgets are enabled by default except proximity widgets. 
 686:.\Generated_Source\PSoC4/CapSense_1.c **** *  The proximity widgets must be manually enabled as their long scan time 
 687:.\Generated_Source\PSoC4/CapSense_1.c **** *  is incompatible with a fast response required of other widget types.
 688:.\Generated_Source\PSoC4/CapSense_1.c **** *
 689:.\Generated_Source\PSoC4/CapSense_1.c **** * Parameters:
 690:.\Generated_Source\PSoC4/CapSense_1.c **** *  None
 691:.\Generated_Source\PSoC4/CapSense_1.c **** *
 692:.\Generated_Source\PSoC4/CapSense_1.c **** * Return:
 693:.\Generated_Source\PSoC4/CapSense_1.c **** *  None
 694:.\Generated_Source\PSoC4/CapSense_1.c **** *
 695:.\Generated_Source\PSoC4/CapSense_1.c **** * Global Variables:
 696:.\Generated_Source\PSoC4/CapSense_1.c **** *  CapSense_1_csdStatusVar - used to provide the status and mode of the scanning process. 
 697:.\Generated_Source\PSoC4/CapSense_1.c **** *  Sets the busy status(scan in progress) and clears the single scan mode.
 698:.\Generated_Source\PSoC4/CapSense_1.c **** *  CapSense_1_sensorIndex - used to store a sensor scanning sensor number.
 699:.\Generated_Source\PSoC4/CapSense_1.c **** *  Sets to 0xFF and provided to function CapSense_1_FindNextSensor or
 700:.\Generated_Source\PSoC4/CapSense_1.c **** *
 701:.\Generated_Source\PSoC4/CapSense_1.c **** * Side Effects:
 702:.\Generated_Source\PSoC4/CapSense_1.c **** *  None
 703:.\Generated_Source\PSoC4/CapSense_1.c **** * 
 704:.\Generated_Source\PSoC4/CapSense_1.c **** *******************************************************************************/
 705:.\Generated_Source\PSoC4/CapSense_1.c **** void CapSense_1_ScanEnabledWidgets(void)
 706:.\Generated_Source\PSoC4/CapSense_1.c **** {
 762              		.loc 1 706 0
 763              		.cfi_startproc
 764 0000 80B5     		push	{r7, lr}
 765              		.cfi_def_cfa_offset 8
 766              		.cfi_offset 7, -8
 767              		.cfi_offset 14, -4
ARM GAS  C:\Users\mitchell\AppData\Local\Temp\cc5pMFOa.s 			page 27


 768 0002 00AF     		add	r7, sp, #0
 769              		.cfi_def_cfa_register 7
 707:.\Generated_Source\PSoC4/CapSense_1.c ****     /* Clears status/control variable and set sensorIndex */
 708:.\Generated_Source\PSoC4/CapSense_1.c ****     CapSense_1_csdStatusVar = 0u;
 770              		.loc 1 708 0
 771 0004 124B     		ldr	r3, .L42
 772 0006 0022     		mov	r2, #0
 773 0008 1A70     		strb	r2, [r3]
 709:.\Generated_Source\PSoC4/CapSense_1.c ****     CapSense_1_sensorIndex = 0xFFu;
 774              		.loc 1 709 0
 775 000a 124B     		ldr	r3, .L42+4
 776 000c FF22     		mov	r2, #255
 777 000e 1A70     		strb	r2, [r3]
 710:.\Generated_Source\PSoC4/CapSense_1.c ****     
 711:.\Generated_Source\PSoC4/CapSense_1.c ****     /* Find next sensor */
 712:.\Generated_Source\PSoC4/CapSense_1.c ****     CapSense_1_sensorIndex = (uint8)CapSense_1_FindNextSensor(CapSense_1_sensorIndex);
 778              		.loc 1 712 0
 779 0010 104B     		ldr	r3, .L42+4
 780 0012 1B78     		ldrb	r3, [r3]
 781 0014 DBB2     		uxtb	r3, r3
 782 0016 181C     		mov	r0, r3
 783 0018 FFF7FEFF 		bl	CapSense_1_FindNextSensor
 784 001c 031C     		mov	r3, r0
 785 001e 1A1C     		mov	r2, r3
 786 0020 0C4B     		ldr	r3, .L42+4
 787 0022 1A70     		strb	r2, [r3]
 713:.\Generated_Source\PSoC4/CapSense_1.c **** 
 714:.\Generated_Source\PSoC4/CapSense_1.c ****     /* Check end of scan condition */
 715:.\Generated_Source\PSoC4/CapSense_1.c ****     if(CapSense_1_sensorIndex < CapSense_1_TOTAL_SENSOR_COUNT)
 788              		.loc 1 715 0
 789 0024 0B4B     		ldr	r3, .L42+4
 790 0026 1B78     		ldrb	r3, [r3]
 791 0028 DBB2     		uxtb	r3, r3
 792 002a 042B     		cmp	r3, #4
 793 002c 0DD8     		bhi	.L40
 716:.\Generated_Source\PSoC4/CapSense_1.c ****     {
 717:.\Generated_Source\PSoC4/CapSense_1.c ****         CapSense_1_csdStatusVar |= CapSense_1_SW_STS_BUSY;
 794              		.loc 1 717 0
 795 002e 084B     		ldr	r3, .L42
 796 0030 1B78     		ldrb	r3, [r3]
 797 0032 DBB2     		uxtb	r3, r3
 798 0034 0122     		mov	r2, #1
 799 0036 1343     		orr	r3, r2
 800 0038 DAB2     		uxtb	r2, r3
 801 003a 054B     		ldr	r3, .L42
 802 003c 1A70     		strb	r2, [r3]
 718:.\Generated_Source\PSoC4/CapSense_1.c ****         CapSense_1_PreScan((uint32)CapSense_1_sensorIndex);
 803              		.loc 1 718 0
 804 003e 054B     		ldr	r3, .L42+4
 805 0040 1B78     		ldrb	r3, [r3]
 806 0042 DBB2     		uxtb	r3, r3
 807 0044 181C     		mov	r0, r3
 808 0046 FFF7FEFF 		bl	CapSense_1_PreScan
 809              	.L40:
 719:.\Generated_Source\PSoC4/CapSense_1.c ****     }
 720:.\Generated_Source\PSoC4/CapSense_1.c **** }
 810              		.loc 1 720 0
ARM GAS  C:\Users\mitchell\AppData\Local\Temp\cc5pMFOa.s 			page 28


 811 004a BD46     		mov	sp, r7
 812              		@ sp needed
 813 004c 80BD     		pop	{r7, pc}
 814              	.L43:
 815 004e C046     		.align	2
 816              	.L42:
 817 0050 00000000 		.word	CapSense_1_csdStatusVar
 818 0054 00000000 		.word	CapSense_1_sensorIndex
 819              		.cfi_endproc
 820              	.LFE41:
 821              		.size	CapSense_1_ScanEnabledWidgets, .-CapSense_1_ScanEnabledWidgets
 822              		.section	.text.CapSense_1_IsBusy,"ax",%progbits
 823              		.align	2
 824              		.global	CapSense_1_IsBusy
 825              		.code	16
 826              		.thumb_func
 827              		.type	CapSense_1_IsBusy, %function
 828              	CapSense_1_IsBusy:
 829              	.LFB42:
 721:.\Generated_Source\PSoC4/CapSense_1.c **** 
 722:.\Generated_Source\PSoC4/CapSense_1.c **** 
 723:.\Generated_Source\PSoC4/CapSense_1.c **** /*******************************************************************************
 724:.\Generated_Source\PSoC4/CapSense_1.c **** * Function Name: CapSense_1_IsBusy
 725:.\Generated_Source\PSoC4/CapSense_1.c **** ********************************************************************************
 726:.\Generated_Source\PSoC4/CapSense_1.c **** *
 727:.\Generated_Source\PSoC4/CapSense_1.c **** * Summary:
 728:.\Generated_Source\PSoC4/CapSense_1.c **** *  Returns the state of the CapSense component. 1 means that scanning in 
 729:.\Generated_Source\PSoC4/CapSense_1.c **** *  progress and 0 means that scanning is complete.
 730:.\Generated_Source\PSoC4/CapSense_1.c **** *
 731:.\Generated_Source\PSoC4/CapSense_1.c **** * Parameters:
 732:.\Generated_Source\PSoC4/CapSense_1.c **** *  None
 733:.\Generated_Source\PSoC4/CapSense_1.c **** *
 734:.\Generated_Source\PSoC4/CapSense_1.c **** * Return:
 735:.\Generated_Source\PSoC4/CapSense_1.c **** *  Returns the state of scanning. 1 - scanning in progress, 0 - scanning 
 736:.\Generated_Source\PSoC4/CapSense_1.c **** *  completed.
 737:.\Generated_Source\PSoC4/CapSense_1.c **** *
 738:.\Generated_Source\PSoC4/CapSense_1.c **** * Global Variables:
 739:.\Generated_Source\PSoC4/CapSense_1.c **** *  CapSense_1_csdStatusVar - used to provide the status and mode of the scanning process. 
 740:.\Generated_Source\PSoC4/CapSense_1.c **** *  Checks the busy status.
 741:.\Generated_Source\PSoC4/CapSense_1.c **** *
 742:.\Generated_Source\PSoC4/CapSense_1.c **** * Side Effects:
 743:.\Generated_Source\PSoC4/CapSense_1.c **** *  None
 744:.\Generated_Source\PSoC4/CapSense_1.c **** * 
 745:.\Generated_Source\PSoC4/CapSense_1.c **** *******************************************************************************/
 746:.\Generated_Source\PSoC4/CapSense_1.c **** uint32 CapSense_1_IsBusy(void)
 747:.\Generated_Source\PSoC4/CapSense_1.c **** {
 830              		.loc 1 747 0
 831              		.cfi_startproc
 832 0000 80B5     		push	{r7, lr}
 833              		.cfi_def_cfa_offset 8
 834              		.cfi_offset 7, -8
 835              		.cfi_offset 14, -4
 836 0002 00AF     		add	r7, sp, #0
 837              		.cfi_def_cfa_register 7
 748:.\Generated_Source\PSoC4/CapSense_1.c ****     return ((uint32)((0u != (CapSense_1_csdStatusVar & CapSense_1_SW_STS_BUSY)) ? 1u : 0u));
 838              		.loc 1 748 0
 839 0004 044B     		ldr	r3, .L46
ARM GAS  C:\Users\mitchell\AppData\Local\Temp\cc5pMFOa.s 			page 29


 840 0006 1B78     		ldrb	r3, [r3]
 841 0008 DBB2     		uxtb	r3, r3
 842 000a 1A1C     		mov	r2, r3
 843 000c 0123     		mov	r3, #1
 844 000e 1340     		and	r3, r2
 749:.\Generated_Source\PSoC4/CapSense_1.c **** }
 845              		.loc 1 749 0
 846 0010 181C     		mov	r0, r3
 847 0012 BD46     		mov	sp, r7
 848              		@ sp needed
 849 0014 80BD     		pop	{r7, pc}
 850              	.L47:
 851 0016 C046     		.align	2
 852              	.L46:
 853 0018 00000000 		.word	CapSense_1_csdStatusVar
 854              		.cfi_endproc
 855              	.LFE42:
 856              		.size	CapSense_1_IsBusy, .-CapSense_1_IsBusy
 857              		.section	.text.CapSense_1_ReadSensorRaw,"ax",%progbits
 858              		.align	2
 859              		.global	CapSense_1_ReadSensorRaw
 860              		.code	16
 861              		.thumb_func
 862              		.type	CapSense_1_ReadSensorRaw, %function
 863              	CapSense_1_ReadSensorRaw:
 864              	.LFB43:
 750:.\Generated_Source\PSoC4/CapSense_1.c **** 
 751:.\Generated_Source\PSoC4/CapSense_1.c **** 
 752:.\Generated_Source\PSoC4/CapSense_1.c **** /*******************************************************************************
 753:.\Generated_Source\PSoC4/CapSense_1.c **** * Function Name: CapSense_1_ReadSensorRaw
 754:.\Generated_Source\PSoC4/CapSense_1.c **** ********************************************************************************
 755:.\Generated_Source\PSoC4/CapSense_1.c **** *
 756:.\Generated_Source\PSoC4/CapSense_1.c **** * Summary:
 757:.\Generated_Source\PSoC4/CapSense_1.c **** *  Returns sensor raw data from the global CapSense_sensorRaw[ ] array. 
 758:.\Generated_Source\PSoC4/CapSense_1.c **** *  Each scan sensor has a unique number within the sensor array. 
 759:.\Generated_Source\PSoC4/CapSense_1.c **** *  This number is assigned by the CapSense customizer in sequence. 
 760:.\Generated_Source\PSoC4/CapSense_1.c **** *  Raw data can be used to perform calculations outside of the CapSense 
 761:.\Generated_Source\PSoC4/CapSense_1.c **** *  provided framework.
 762:.\Generated_Source\PSoC4/CapSense_1.c **** *
 763:.\Generated_Source\PSoC4/CapSense_1.c **** * Parameters:
 764:.\Generated_Source\PSoC4/CapSense_1.c **** *  sensor:  Sensor number.
 765:.\Generated_Source\PSoC4/CapSense_1.c **** *
 766:.\Generated_Source\PSoC4/CapSense_1.c **** * Return:
 767:.\Generated_Source\PSoC4/CapSense_1.c **** *  Returns the current raw data value for a defined sensor number.
 768:.\Generated_Source\PSoC4/CapSense_1.c **** *
 769:.\Generated_Source\PSoC4/CapSense_1.c **** * Global Variables:
 770:.\Generated_Source\PSoC4/CapSense_1.c **** *  CapSense_1_sensorRaw[] - used to store sensors raw data.
 771:.\Generated_Source\PSoC4/CapSense_1.c **** *
 772:.\Generated_Source\PSoC4/CapSense_1.c **** * Side Effects: 
 773:.\Generated_Source\PSoC4/CapSense_1.c **** *  None
 774:.\Generated_Source\PSoC4/CapSense_1.c **** *
 775:.\Generated_Source\PSoC4/CapSense_1.c **** *******************************************************************************/
 776:.\Generated_Source\PSoC4/CapSense_1.c **** uint16 CapSense_1_ReadSensorRaw(uint32 sensor)
 777:.\Generated_Source\PSoC4/CapSense_1.c **** {
 865              		.loc 1 777 0
 866              		.cfi_startproc
 867 0000 80B5     		push	{r7, lr}
ARM GAS  C:\Users\mitchell\AppData\Local\Temp\cc5pMFOa.s 			page 30


 868              		.cfi_def_cfa_offset 8
 869              		.cfi_offset 7, -8
 870              		.cfi_offset 14, -4
 871 0002 82B0     		sub	sp, sp, #8
 872              		.cfi_def_cfa_offset 16
 873 0004 00AF     		add	r7, sp, #0
 874              		.cfi_def_cfa_register 7
 875 0006 7860     		str	r0, [r7, #4]
 778:.\Generated_Source\PSoC4/CapSense_1.c ****     return CapSense_1_sensorRaw[sensor];
 876              		.loc 1 778 0
 877 0008 034B     		ldr	r3, .L50
 878 000a 7A68     		ldr	r2, [r7, #4]
 879 000c 5200     		lsl	r2, r2, #1
 880 000e D35A     		ldrh	r3, [r2, r3]
 779:.\Generated_Source\PSoC4/CapSense_1.c **** }
 881              		.loc 1 779 0
 882 0010 181C     		mov	r0, r3
 883 0012 BD46     		mov	sp, r7
 884 0014 02B0     		add	sp, sp, #8
 885              		@ sp needed
 886 0016 80BD     		pop	{r7, pc}
 887              	.L51:
 888              		.align	2
 889              	.L50:
 890 0018 00000000 		.word	CapSense_1_sensorRaw
 891              		.cfi_endproc
 892              	.LFE43:
 893              		.size	CapSense_1_ReadSensorRaw, .-CapSense_1_ReadSensorRaw
 894              		.section	.text.CapSense_1_WriteSensorRaw,"ax",%progbits
 895              		.align	2
 896              		.global	CapSense_1_WriteSensorRaw
 897              		.code	16
 898              		.thumb_func
 899              		.type	CapSense_1_WriteSensorRaw, %function
 900              	CapSense_1_WriteSensorRaw:
 901              	.LFB44:
 780:.\Generated_Source\PSoC4/CapSense_1.c **** 
 781:.\Generated_Source\PSoC4/CapSense_1.c **** 
 782:.\Generated_Source\PSoC4/CapSense_1.c **** /*******************************************************************************
 783:.\Generated_Source\PSoC4/CapSense_1.c **** * Function Name: CapSense_1_WriteSensorRaw
 784:.\Generated_Source\PSoC4/CapSense_1.c **** ********************************************************************************
 785:.\Generated_Source\PSoC4/CapSense_1.c **** *
 786:.\Generated_Source\PSoC4/CapSense_1.c **** * Summary:
 787:.\Generated_Source\PSoC4/CapSense_1.c **** *  This API writes the raw count value passed as an argument to the sensor Raw count array.
 788:.\Generated_Source\PSoC4/CapSense_1.c **** *
 789:.\Generated_Source\PSoC4/CapSense_1.c **** * Parameters:
 790:.\Generated_Source\PSoC4/CapSense_1.c **** *  sensor:  Sensor number.
 791:.\Generated_Source\PSoC4/CapSense_1.c **** *  value: Raw count value.
 792:.\Generated_Source\PSoC4/CapSense_1.c **** *
 793:.\Generated_Source\PSoC4/CapSense_1.c **** * Global Variables:
 794:.\Generated_Source\PSoC4/CapSense_1.c **** *  CapSense_1_sensorRaw[] - used to store sensors raw data.
 795:.\Generated_Source\PSoC4/CapSense_1.c **** *
 796:.\Generated_Source\PSoC4/CapSense_1.c **** * Return:
 797:.\Generated_Source\PSoC4/CapSense_1.c **** *  None
 798:.\Generated_Source\PSoC4/CapSense_1.c **** *
 799:.\Generated_Source\PSoC4/CapSense_1.c **** * Side Effects: 
 800:.\Generated_Source\PSoC4/CapSense_1.c **** *  None
ARM GAS  C:\Users\mitchell\AppData\Local\Temp\cc5pMFOa.s 			page 31


 801:.\Generated_Source\PSoC4/CapSense_1.c **** *
 802:.\Generated_Source\PSoC4/CapSense_1.c **** *******************************************************************************/
 803:.\Generated_Source\PSoC4/CapSense_1.c **** void CapSense_1_WriteSensorRaw(uint32 sensor, uint16 value)
 804:.\Generated_Source\PSoC4/CapSense_1.c **** {
 902              		.loc 1 804 0
 903              		.cfi_startproc
 904 0000 80B5     		push	{r7, lr}
 905              		.cfi_def_cfa_offset 8
 906              		.cfi_offset 7, -8
 907              		.cfi_offset 14, -4
 908 0002 82B0     		sub	sp, sp, #8
 909              		.cfi_def_cfa_offset 16
 910 0004 00AF     		add	r7, sp, #0
 911              		.cfi_def_cfa_register 7
 912 0006 7860     		str	r0, [r7, #4]
 913 0008 0A1C     		mov	r2, r1
 914 000a BB1C     		add	r3, r7, #2
 915 000c 1A80     		strh	r2, [r3]
 805:.\Generated_Source\PSoC4/CapSense_1.c **** 	CapSense_1_sensorRaw[sensor] = value;
 916              		.loc 1 805 0
 917 000e 044B     		ldr	r3, .L53
 918 0010 7A68     		ldr	r2, [r7, #4]
 919 0012 5200     		lsl	r2, r2, #1
 920 0014 B91C     		add	r1, r7, #2
 921 0016 0988     		ldrh	r1, [r1]
 922 0018 D152     		strh	r1, [r2, r3]
 806:.\Generated_Source\PSoC4/CapSense_1.c **** }
 923              		.loc 1 806 0
 924 001a BD46     		mov	sp, r7
 925 001c 02B0     		add	sp, sp, #8
 926              		@ sp needed
 927 001e 80BD     		pop	{r7, pc}
 928              	.L54:
 929              		.align	2
 930              	.L53:
 931 0020 00000000 		.word	CapSense_1_sensorRaw
 932              		.cfi_endproc
 933              	.LFE44:
 934              		.size	CapSense_1_WriteSensorRaw, .-CapSense_1_WriteSensorRaw
 935              		.section	.text.CapSense_1_GetScanResolution,"ax",%progbits
 936              		.align	2
 937              		.global	CapSense_1_GetScanResolution
 938              		.code	16
 939              		.thumb_func
 940              		.type	CapSense_1_GetScanResolution, %function
 941              	CapSense_1_GetScanResolution:
 942              	.LFB45:
 807:.\Generated_Source\PSoC4/CapSense_1.c **** 
 808:.\Generated_Source\PSoC4/CapSense_1.c **** 
 809:.\Generated_Source\PSoC4/CapSense_1.c **** #if (CapSense_1_TUNING_METHOD != CapSense_1__TUNING_NONE)
 810:.\Generated_Source\PSoC4/CapSense_1.c **** 	/*******************************************************************************
 811:.\Generated_Source\PSoC4/CapSense_1.c **** 	* Function Name: CapSense_1_SetScanResolution
 812:.\Generated_Source\PSoC4/CapSense_1.c **** 	********************************************************************************
 813:.\Generated_Source\PSoC4/CapSense_1.c **** 	*
 814:.\Generated_Source\PSoC4/CapSense_1.c **** 	* Summary:
 815:.\Generated_Source\PSoC4/CapSense_1.c **** 	*  Sets a value of the sensor scan resolution for a widget. 
 816:.\Generated_Source\PSoC4/CapSense_1.c **** 	*  The MIN resolution can be set 8-bit. The MAX Resolution can be set 16 bit.
ARM GAS  C:\Users\mitchell\AppData\Local\Temp\cc5pMFOa.s 			page 32


 817:.\Generated_Source\PSoC4/CapSense_1.c **** 	*  This function is not available for the tuning mode "None".
 818:.\Generated_Source\PSoC4/CapSense_1.c **** 	*
 819:.\Generated_Source\PSoC4/CapSense_1.c **** 	* Parameters:
 820:.\Generated_Source\PSoC4/CapSense_1.c **** 	*  widget:     Widget index.
 821:.\Generated_Source\PSoC4/CapSense_1.c **** 	*  resolution: Represents the resolution value. The following defines which are available in the
 822:.\Generated_Source\PSoC4/CapSense_1.c **** 	*			   CapSense_1.h file should be used:
 823:.\Generated_Source\PSoC4/CapSense_1.c **** 	*			   CapSense_1_RESOLUTION_6_BITS
 824:.\Generated_Source\PSoC4/CapSense_1.c **** 	*			   CapSense_1_RESOLUTION_7_BITS
 825:.\Generated_Source\PSoC4/CapSense_1.c **** 	*			   CapSense_1_RESOLUTION_8_BITS
 826:.\Generated_Source\PSoC4/CapSense_1.c **** 	*			   CapSense_1_RESOLUTION_9_BITS
 827:.\Generated_Source\PSoC4/CapSense_1.c **** 	*			   CapSense_1_RESOLUTION_10_BITS
 828:.\Generated_Source\PSoC4/CapSense_1.c **** 	*			   CapSense_1_RESOLUTION_11_BITS
 829:.\Generated_Source\PSoC4/CapSense_1.c **** 	*			   CapSense_1_RESOLUTION_12_BITS
 830:.\Generated_Source\PSoC4/CapSense_1.c **** 	*			   CapSense_1_RESOLUTION_13_BITS
 831:.\Generated_Source\PSoC4/CapSense_1.c **** 	*			   CapSense_1_RESOLUTION_14_BITS
 832:.\Generated_Source\PSoC4/CapSense_1.c **** 	*			   CapSense_1_RESOLUTION_15_BITS
 833:.\Generated_Source\PSoC4/CapSense_1.c **** 	*			   CapSense_1_RESOLUTION_16_BITS
 834:.\Generated_Source\PSoC4/CapSense_1.c **** 	*
 835:.\Generated_Source\PSoC4/CapSense_1.c **** 	* Return:
 836:.\Generated_Source\PSoC4/CapSense_1.c **** 	*  None
 837:.\Generated_Source\PSoC4/CapSense_1.c **** 	*
 838:.\Generated_Source\PSoC4/CapSense_1.c **** 	* Global Variables:
 839:.\Generated_Source\PSoC4/CapSense_1.c **** 	*  CapSense_1_widgetResolution[] - used to store scan resolution of each widget.
 840:.\Generated_Source\PSoC4/CapSense_1.c **** 	*
 841:.\Generated_Source\PSoC4/CapSense_1.c **** 	* Side Effects: 
 842:.\Generated_Source\PSoC4/CapSense_1.c **** 	*  None
 843:.\Generated_Source\PSoC4/CapSense_1.c **** 	*
 844:.\Generated_Source\PSoC4/CapSense_1.c **** 	*******************************************************************************/
 845:.\Generated_Source\PSoC4/CapSense_1.c **** 	void CapSense_1_SetScanResolution(uint32 widget, uint32 resolution)
 846:.\Generated_Source\PSoC4/CapSense_1.c **** 	{ 
 847:.\Generated_Source\PSoC4/CapSense_1.c ****         CapSense_1_widgetResolution[widget] = resolution;
 848:.\Generated_Source\PSoC4/CapSense_1.c **** 	}
 849:.\Generated_Source\PSoC4/CapSense_1.c **** #endif /* (CapSense_1_TUNING_METHOD != CapSense_1__TUNING_NONE) */
 850:.\Generated_Source\PSoC4/CapSense_1.c **** 
 851:.\Generated_Source\PSoC4/CapSense_1.c **** 
 852:.\Generated_Source\PSoC4/CapSense_1.c **** /*******************************************************************************
 853:.\Generated_Source\PSoC4/CapSense_1.c **** * Function Name: CapSense_1_GetScanResolution
 854:.\Generated_Source\PSoC4/CapSense_1.c **** ********************************************************************************
 855:.\Generated_Source\PSoC4/CapSense_1.c **** *
 856:.\Generated_Source\PSoC4/CapSense_1.c **** * Summary:
 857:.\Generated_Source\PSoC4/CapSense_1.c **** *  Returns the resolution value for the appropriate sensor.
 858:.\Generated_Source\PSoC4/CapSense_1.c **** *  This function is not available for tuning mode "None".
 859:.\Generated_Source\PSoC4/CapSense_1.c **** *
 860:.\Generated_Source\PSoC4/CapSense_1.c **** * Parameters:
 861:.\Generated_Source\PSoC4/CapSense_1.c **** *  widget:     Widget index.
 862:.\Generated_Source\PSoC4/CapSense_1.c **** *
 863:.\Generated_Source\PSoC4/CapSense_1.c **** * Return:
 864:.\Generated_Source\PSoC4/CapSense_1.c **** *  resolution: Returns the resolution value for the appropriate sensor. 
 865:.\Generated_Source\PSoC4/CapSense_1.c **** *              The resolution values are defined in the CapSense_1.h file 
 866:.\Generated_Source\PSoC4/CapSense_1.c **** *              The defines are encountered below:
 867:.\Generated_Source\PSoC4/CapSense_1.c **** *			   CapSense_1_RESOLUTION_6_BITS
 868:.\Generated_Source\PSoC4/CapSense_1.c **** *			   CapSense_1_RESOLUTION_7_BITS
 869:.\Generated_Source\PSoC4/CapSense_1.c **** *			   CapSense_1_RESOLUTION_8_BITS
 870:.\Generated_Source\PSoC4/CapSense_1.c **** *			   CapSense_1_RESOLUTION_9_BITS
 871:.\Generated_Source\PSoC4/CapSense_1.c **** *			   CapSense_1_RESOLUTION_10_BITS
 872:.\Generated_Source\PSoC4/CapSense_1.c **** *			   CapSense_1_RESOLUTION_11_BITS
 873:.\Generated_Source\PSoC4/CapSense_1.c **** *			   CapSense_1_RESOLUTION_12_BITS
ARM GAS  C:\Users\mitchell\AppData\Local\Temp\cc5pMFOa.s 			page 33


 874:.\Generated_Source\PSoC4/CapSense_1.c **** *			   CapSense_1_RESOLUTION_13_BITS
 875:.\Generated_Source\PSoC4/CapSense_1.c **** *			   CapSense_1_RESOLUTION_14_BITS
 876:.\Generated_Source\PSoC4/CapSense_1.c **** *			   CapSense_1_RESOLUTION_15_BITS
 877:.\Generated_Source\PSoC4/CapSense_1.c **** *			   CapSense_1_RESOLUTION_16_BITS
 878:.\Generated_Source\PSoC4/CapSense_1.c **** *
 879:.\Generated_Source\PSoC4/CapSense_1.c **** * Global Variables:
 880:.\Generated_Source\PSoC4/CapSense_1.c **** *  CapSense_1_widgetResolution[] - used to store scan resolution of every widget.
 881:.\Generated_Source\PSoC4/CapSense_1.c **** *
 882:.\Generated_Source\PSoC4/CapSense_1.c **** * Side Effects: 
 883:.\Generated_Source\PSoC4/CapSense_1.c **** *  None
 884:.\Generated_Source\PSoC4/CapSense_1.c **** *
 885:.\Generated_Source\PSoC4/CapSense_1.c **** *******************************************************************************/
 886:.\Generated_Source\PSoC4/CapSense_1.c **** uint32 CapSense_1_GetScanResolution(uint32 widget)
 887:.\Generated_Source\PSoC4/CapSense_1.c **** {
 943              		.loc 1 887 0
 944              		.cfi_startproc
 945 0000 80B5     		push	{r7, lr}
 946              		.cfi_def_cfa_offset 8
 947              		.cfi_offset 7, -8
 948              		.cfi_offset 14, -4
 949 0002 82B0     		sub	sp, sp, #8
 950              		.cfi_def_cfa_offset 16
 951 0004 00AF     		add	r7, sp, #0
 952              		.cfi_def_cfa_register 7
 953 0006 7860     		str	r0, [r7, #4]
 888:.\Generated_Source\PSoC4/CapSense_1.c **** 	return(CapSense_1_widgetResolution[widget]);
 954              		.loc 1 888 0
 955 0008 024B     		ldr	r3, .L57
 889:.\Generated_Source\PSoC4/CapSense_1.c **** }
 956              		.loc 1 889 0
 957 000a 181C     		mov	r0, r3
 958 000c BD46     		mov	sp, r7
 959 000e 02B0     		add	sp, sp, #8
 960              		@ sp needed
 961 0010 80BD     		pop	{r7, pc}
 962              	.L58:
 963 0012 C046     		.align	2
 964              	.L57:
 965 0014 0000FF0F 		.word	268369920
 966              		.cfi_endproc
 967              	.LFE45:
 968              		.size	CapSense_1_GetScanResolution, .-CapSense_1_GetScanResolution
 969              		.section	.text.CapSense_1_ClearSensors,"ax",%progbits
 970              		.align	2
 971              		.global	CapSense_1_ClearSensors
 972              		.code	16
 973              		.thumb_func
 974              		.type	CapSense_1_ClearSensors, %function
 975              	CapSense_1_ClearSensors:
 976              	.LFB46:
 890:.\Generated_Source\PSoC4/CapSense_1.c **** 
 891:.\Generated_Source\PSoC4/CapSense_1.c **** 
 892:.\Generated_Source\PSoC4/CapSense_1.c **** /*******************************************************************************
 893:.\Generated_Source\PSoC4/CapSense_1.c **** * Function Name: CapSense_1_ClearSensors
 894:.\Generated_Source\PSoC4/CapSense_1.c **** ********************************************************************************
 895:.\Generated_Source\PSoC4/CapSense_1.c **** *
 896:.\Generated_Source\PSoC4/CapSense_1.c **** * Summary:
ARM GAS  C:\Users\mitchell\AppData\Local\Temp\cc5pMFOa.s 			page 34


 897:.\Generated_Source\PSoC4/CapSense_1.c **** *  Resets all the sensors to the non-sampling state by sequentially disconnecting
 898:.\Generated_Source\PSoC4/CapSense_1.c **** *  all the sensors from Analog MUX Bus and putting them to an inactive state.
 899:.\Generated_Source\PSoC4/CapSense_1.c **** *
 900:.\Generated_Source\PSoC4/CapSense_1.c **** * Parameters:
 901:.\Generated_Source\PSoC4/CapSense_1.c **** *  None
 902:.\Generated_Source\PSoC4/CapSense_1.c **** *
 903:.\Generated_Source\PSoC4/CapSense_1.c **** * Return:
 904:.\Generated_Source\PSoC4/CapSense_1.c **** *  None
 905:.\Generated_Source\PSoC4/CapSense_1.c **** *
 906:.\Generated_Source\PSoC4/CapSense_1.c **** * Global Variables:
 907:.\Generated_Source\PSoC4/CapSense_1.c **** *  None
 908:.\Generated_Source\PSoC4/CapSense_1.c **** *
 909:.\Generated_Source\PSoC4/CapSense_1.c **** * Side Effects: 
 910:.\Generated_Source\PSoC4/CapSense_1.c **** *  None
 911:.\Generated_Source\PSoC4/CapSense_1.c **** *
 912:.\Generated_Source\PSoC4/CapSense_1.c **** *******************************************************************************/
 913:.\Generated_Source\PSoC4/CapSense_1.c **** void CapSense_1_ClearSensors(void)
 914:.\Generated_Source\PSoC4/CapSense_1.c **** {
 977              		.loc 1 914 0
 978              		.cfi_startproc
 979 0000 80B5     		push	{r7, lr}
 980              		.cfi_def_cfa_offset 8
 981              		.cfi_offset 7, -8
 982              		.cfi_offset 14, -4
 983 0002 82B0     		sub	sp, sp, #8
 984              		.cfi_def_cfa_offset 16
 985 0004 00AF     		add	r7, sp, #0
 986              		.cfi_def_cfa_register 7
 915:.\Generated_Source\PSoC4/CapSense_1.c **** 	uint32 snsIndex;
 916:.\Generated_Source\PSoC4/CapSense_1.c **** 	
 917:.\Generated_Source\PSoC4/CapSense_1.c ****     for (snsIndex = 0u; snsIndex < CapSense_1_TOTAL_SENSOR_COUNT; snsIndex++)
 987              		.loc 1 917 0
 988 0006 0023     		mov	r3, #0
 989 0008 7B60     		str	r3, [r7, #4]
 990 000a 06E0     		b	.L60
 991              	.L61:
 918:.\Generated_Source\PSoC4/CapSense_1.c ****     {
 919:.\Generated_Source\PSoC4/CapSense_1.c ****         CapSense_1_DisableScanSlot(snsIndex);
 992              		.loc 1 919 0 discriminator 2
 993 000c 7B68     		ldr	r3, [r7, #4]
 994 000e 181C     		mov	r0, r3
 995 0010 FFF7FEFF 		bl	CapSense_1_DisableSensor
 917:.\Generated_Source\PSoC4/CapSense_1.c ****     for (snsIndex = 0u; snsIndex < CapSense_1_TOTAL_SENSOR_COUNT; snsIndex++)
 996              		.loc 1 917 0 discriminator 2
 997 0014 7B68     		ldr	r3, [r7, #4]
 998 0016 0133     		add	r3, r3, #1
 999 0018 7B60     		str	r3, [r7, #4]
 1000              	.L60:
 917:.\Generated_Source\PSoC4/CapSense_1.c ****     for (snsIndex = 0u; snsIndex < CapSense_1_TOTAL_SENSOR_COUNT; snsIndex++)
 1001              		.loc 1 917 0 is_stmt 0 discriminator 1
 1002 001a 7B68     		ldr	r3, [r7, #4]
 1003 001c 042B     		cmp	r3, #4
 1004 001e F5D9     		bls	.L61
 920:.\Generated_Source\PSoC4/CapSense_1.c ****     }
 921:.\Generated_Source\PSoC4/CapSense_1.c **** }
 1005              		.loc 1 921 0 is_stmt 1
 1006 0020 BD46     		mov	sp, r7
ARM GAS  C:\Users\mitchell\AppData\Local\Temp\cc5pMFOa.s 			page 35


 1007 0022 02B0     		add	sp, sp, #8
 1008              		@ sp needed
 1009 0024 80BD     		pop	{r7, pc}
 1010              		.cfi_endproc
 1011              	.LFE46:
 1012              		.size	CapSense_1_ClearSensors, .-CapSense_1_ClearSensors
 1013 0026 C046     		.section	.text.CapSense_1_EnableSensor,"ax",%progbits
 1014              		.align	2
 1015              		.global	CapSense_1_EnableSensor
 1016              		.code	16
 1017              		.thumb_func
 1018              		.type	CapSense_1_EnableSensor, %function
 1019              	CapSense_1_EnableSensor:
 1020              	.LFB47:
 922:.\Generated_Source\PSoC4/CapSense_1.c **** 
 923:.\Generated_Source\PSoC4/CapSense_1.c **** 
 924:.\Generated_Source\PSoC4/CapSense_1.c **** #if (CapSense_1_IS_COMPLEX_SCANSLOTS)
 925:.\Generated_Source\PSoC4/CapSense_1.c ****     /*******************************************************************************
 926:.\Generated_Source\PSoC4/CapSense_1.c ****     * Function Name: CapSense_1_EnableScanSlot
 927:.\Generated_Source\PSoC4/CapSense_1.c ****     ********************************************************************************
 928:.\Generated_Source\PSoC4/CapSense_1.c ****     *
 929:.\Generated_Source\PSoC4/CapSense_1.c ****     * Summary:
 930:.\Generated_Source\PSoC4/CapSense_1.c ****     *  Configures the selected slot to measure during the next measurement 
 931:.\Generated_Source\PSoC4/CapSense_1.c ****     *  cycle. The corresponding pin/pins are set to Analog High-Z mode and 
 932:.\Generated_Source\PSoC4/CapSense_1.c ****     *  connected to the Analog Mux Bus. This also enables the comparator function.
 933:.\Generated_Source\PSoC4/CapSense_1.c ****     *
 934:.\Generated_Source\PSoC4/CapSense_1.c ****     * Parameters:
 935:.\Generated_Source\PSoC4/CapSense_1.c ****     *  slot:  Slot number.
 936:.\Generated_Source\PSoC4/CapSense_1.c ****     *
 937:.\Generated_Source\PSoC4/CapSense_1.c ****     * Return:
 938:.\Generated_Source\PSoC4/CapSense_1.c ****     *  None
 939:.\Generated_Source\PSoC4/CapSense_1.c ****     *
 940:.\Generated_Source\PSoC4/CapSense_1.c ****     * Global Constants:
 941:.\Generated_Source\PSoC4/CapSense_1.c ****     *  CapSense_1_portTable[]  - used to store the port number that pin 
 942:.\Generated_Source\PSoC4/CapSense_1.c ****     *  belongs to for each sensor.
 943:.\Generated_Source\PSoC4/CapSense_1.c ****     *  CapSense_1_maskTable[]  - used to store the pin within the port for 
 944:.\Generated_Source\PSoC4/CapSense_1.c ****     *  each sensor.
 945:.\Generated_Source\PSoC4/CapSense_1.c ****     *  CapSense_1_indexTable[] - used to store indexes of complex sensors.
 946:.\Generated_Source\PSoC4/CapSense_1.c ****     *  The offset and position in this array are stored in a port and mask table for 
 947:.\Generated_Source\PSoC4/CapSense_1.c ****     *  complex sensors.
 948:.\Generated_Source\PSoC4/CapSense_1.c ****     *  Bit 7 (msb) is used to define the sensor type: single or complex.
 949:.\Generated_Source\PSoC4/CapSense_1.c ****     *
 950:.\Generated_Source\PSoC4/CapSense_1.c **** 	* Side Effects: 
 951:.\Generated_Source\PSoC4/CapSense_1.c **** 	*  None
 952:.\Generated_Source\PSoC4/CapSense_1.c **** 	*
 953:.\Generated_Source\PSoC4/CapSense_1.c ****     *******************************************************************************/
 954:.\Generated_Source\PSoC4/CapSense_1.c ****     void CapSense_1_EnableScanSlot(uint32 slot)
 955:.\Generated_Source\PSoC4/CapSense_1.c ****     {
 956:.\Generated_Source\PSoC4/CapSense_1.c ****         uint8 j;
 957:.\Generated_Source\PSoC4/CapSense_1.c ****         uint8 snsNumber;
 958:.\Generated_Source\PSoC4/CapSense_1.c ****         const uint8 *index;
 959:.\Generated_Source\PSoC4/CapSense_1.c ****         /* Read sensor type: single or complex */
 960:.\Generated_Source\PSoC4/CapSense_1.c ****         uint8 snsType = CapSense_1_portTable[slot];
 961:.\Generated_Source\PSoC4/CapSense_1.c **** 
 962:.\Generated_Source\PSoC4/CapSense_1.c ****         /* Check if sensor is complex */
 963:.\Generated_Source\PSoC4/CapSense_1.c ****         if ((snsType & CapSense_1_COMPLEX_SS_FLAG) == 0u)
 964:.\Generated_Source\PSoC4/CapSense_1.c ****         {
ARM GAS  C:\Users\mitchell\AppData\Local\Temp\cc5pMFOa.s 			page 36


 965:.\Generated_Source\PSoC4/CapSense_1.c ****             /* Enable sensor (single) */
 966:.\Generated_Source\PSoC4/CapSense_1.c ****             CapSense_1_EnableSensor(slot);
 967:.\Generated_Source\PSoC4/CapSense_1.c ****         }
 968:.\Generated_Source\PSoC4/CapSense_1.c ****         else
 969:.\Generated_Source\PSoC4/CapSense_1.c ****         {
 970:.\Generated_Source\PSoC4/CapSense_1.c ****             /* Enable complex sensor */
 971:.\Generated_Source\PSoC4/CapSense_1.c ****             snsType &= ~CapSense_1_COMPLEX_SS_FLAG;
 972:.\Generated_Source\PSoC4/CapSense_1.c ****             index = &CapSense_1_indexTable[snsType];
 973:.\Generated_Source\PSoC4/CapSense_1.c ****             snsNumber = CapSense_1_maskTable[slot];
 974:.\Generated_Source\PSoC4/CapSense_1.c ****                         
 975:.\Generated_Source\PSoC4/CapSense_1.c ****             for (j = 0u; j < snsNumber; j++)
 976:.\Generated_Source\PSoC4/CapSense_1.c ****             {
 977:.\Generated_Source\PSoC4/CapSense_1.c ****                 CapSense_1_EnableSensor(index[j]);
 978:.\Generated_Source\PSoC4/CapSense_1.c ****             }
 979:.\Generated_Source\PSoC4/CapSense_1.c ****         }
 980:.\Generated_Source\PSoC4/CapSense_1.c ****     }
 981:.\Generated_Source\PSoC4/CapSense_1.c ****     
 982:.\Generated_Source\PSoC4/CapSense_1.c ****     
 983:.\Generated_Source\PSoC4/CapSense_1.c ****     /*******************************************************************************
 984:.\Generated_Source\PSoC4/CapSense_1.c ****     * Function Name: CapSense_1_DisableScanSlot
 985:.\Generated_Source\PSoC4/CapSense_1.c ****     ********************************************************************************
 986:.\Generated_Source\PSoC4/CapSense_1.c ****     *
 987:.\Generated_Source\PSoC4/CapSense_1.c ****     * Summary:
 988:.\Generated_Source\PSoC4/CapSense_1.c ****     *  Disables the selected slot. The corresponding pin/pins is/are disconnected 
 989:.\Generated_Source\PSoC4/CapSense_1.c ****     *  from the Analog Mux Bus and connected to GND, High_Z or Shield electrode.
 990:.\Generated_Source\PSoC4/CapSense_1.c ****     *
 991:.\Generated_Source\PSoC4/CapSense_1.c ****     * Parameters:
 992:.\Generated_Source\PSoC4/CapSense_1.c ****     *  slot:  Slot number.
 993:.\Generated_Source\PSoC4/CapSense_1.c ****     *
 994:.\Generated_Source\PSoC4/CapSense_1.c ****     * Return:
 995:.\Generated_Source\PSoC4/CapSense_1.c ****     *  None
 996:.\Generated_Source\PSoC4/CapSense_1.c ****     *
 997:.\Generated_Source\PSoC4/CapSense_1.c ****     * Global Variables:
 998:.\Generated_Source\PSoC4/CapSense_1.c ****     *  CapSense_1_portTable[]  - used to store the port number that pin 
 999:.\Generated_Source\PSoC4/CapSense_1.c ****     *  belongs to for each sensor.
1000:.\Generated_Source\PSoC4/CapSense_1.c ****     *  CapSense_1_maskTable[]  - used to store the pin within the port for 
1001:.\Generated_Source\PSoC4/CapSense_1.c ****     *  each sensor.
1002:.\Generated_Source\PSoC4/CapSense_1.c ****     *  CapSense_1_indexTable[] - used to store indexes of complex sensors.
1003:.\Generated_Source\PSoC4/CapSense_1.c ****     *  The offset and position in this array are stored in a port and mask table for 
1004:.\Generated_Source\PSoC4/CapSense_1.c ****     *  complex sensors.
1005:.\Generated_Source\PSoC4/CapSense_1.c ****     *  7bit(msb) is used to define the sensor type: single or complex.
1006:.\Generated_Source\PSoC4/CapSense_1.c ****     *
1007:.\Generated_Source\PSoC4/CapSense_1.c **** 	* Side Effects: 
1008:.\Generated_Source\PSoC4/CapSense_1.c **** 	*  None
1009:.\Generated_Source\PSoC4/CapSense_1.c **** 	*
1010:.\Generated_Source\PSoC4/CapSense_1.c ****     *******************************************************************************/
1011:.\Generated_Source\PSoC4/CapSense_1.c ****     void CapSense_1_DisableScanSlot(uint32 slot)
1012:.\Generated_Source\PSoC4/CapSense_1.c ****     {
1013:.\Generated_Source\PSoC4/CapSense_1.c ****         uint8 j;
1014:.\Generated_Source\PSoC4/CapSense_1.c ****         uint8 snsNumber;
1015:.\Generated_Source\PSoC4/CapSense_1.c ****         const uint8 *index;
1016:.\Generated_Source\PSoC4/CapSense_1.c **** 
1017:.\Generated_Source\PSoC4/CapSense_1.c ****         /* Read sensor type: single or complex */
1018:.\Generated_Source\PSoC4/CapSense_1.c ****         uint8 snsType = CapSense_1_portTable[slot];
1019:.\Generated_Source\PSoC4/CapSense_1.c ****         
1020:.\Generated_Source\PSoC4/CapSense_1.c ****         /* Check if sensor is complex */
1021:.\Generated_Source\PSoC4/CapSense_1.c ****         if ((snsType & CapSense_1_COMPLEX_SS_FLAG) == 0u)
ARM GAS  C:\Users\mitchell\AppData\Local\Temp\cc5pMFOa.s 			page 37


1022:.\Generated_Source\PSoC4/CapSense_1.c ****         {
1023:.\Generated_Source\PSoC4/CapSense_1.c ****             /* Disable sensor (single) */
1024:.\Generated_Source\PSoC4/CapSense_1.c ****             CapSense_1_DisableSensor(slot);
1025:.\Generated_Source\PSoC4/CapSense_1.c ****         }
1026:.\Generated_Source\PSoC4/CapSense_1.c ****         else
1027:.\Generated_Source\PSoC4/CapSense_1.c ****         {
1028:.\Generated_Source\PSoC4/CapSense_1.c ****             /* Disable complex sensor */
1029:.\Generated_Source\PSoC4/CapSense_1.c ****             snsType &= ~CapSense_1_COMPLEX_SS_FLAG;
1030:.\Generated_Source\PSoC4/CapSense_1.c ****             index = &CapSense_1_indexTable[snsType];
1031:.\Generated_Source\PSoC4/CapSense_1.c ****             snsNumber = CapSense_1_maskTable[slot];
1032:.\Generated_Source\PSoC4/CapSense_1.c ****                         
1033:.\Generated_Source\PSoC4/CapSense_1.c ****             for (j=0; j < snsNumber; j++)
1034:.\Generated_Source\PSoC4/CapSense_1.c ****             {
1035:.\Generated_Source\PSoC4/CapSense_1.c ****                 CapSense_1_DisableSensor(index[j]);
1036:.\Generated_Source\PSoC4/CapSense_1.c ****             }
1037:.\Generated_Source\PSoC4/CapSense_1.c ****         } 
1038:.\Generated_Source\PSoC4/CapSense_1.c ****     }
1039:.\Generated_Source\PSoC4/CapSense_1.c **** #endif  /* CapSense_1_IS_COMPLEX_SCANSLOTS */
1040:.\Generated_Source\PSoC4/CapSense_1.c **** 
1041:.\Generated_Source\PSoC4/CapSense_1.c **** 
1042:.\Generated_Source\PSoC4/CapSense_1.c **** /*******************************************************************************
1043:.\Generated_Source\PSoC4/CapSense_1.c **** * Function Name: CapSense_1_EnableSensor
1044:.\Generated_Source\PSoC4/CapSense_1.c **** ********************************************************************************
1045:.\Generated_Source\PSoC4/CapSense_1.c **** *
1046:.\Generated_Source\PSoC4/CapSense_1.c **** * Summary:
1047:.\Generated_Source\PSoC4/CapSense_1.c **** *  Configures the selected sensor to measure during the next measurement cycle.
1048:.\Generated_Source\PSoC4/CapSense_1.c **** *  The corresponding pins are set to Analog High-Z mode and connected to the
1049:.\Generated_Source\PSoC4/CapSense_1.c **** *  Analog Mux Bus. This also enables the comparator function.
1050:.\Generated_Source\PSoC4/CapSense_1.c **** *
1051:.\Generated_Source\PSoC4/CapSense_1.c **** * Parameters:
1052:.\Generated_Source\PSoC4/CapSense_1.c **** *  sensor:  Sensor number.
1053:.\Generated_Source\PSoC4/CapSense_1.c **** *
1054:.\Generated_Source\PSoC4/CapSense_1.c **** * Return:
1055:.\Generated_Source\PSoC4/CapSense_1.c **** *  None
1056:.\Generated_Source\PSoC4/CapSense_1.c **** *
1057:.\Generated_Source\PSoC4/CapSense_1.c **** * Global Variables:
1058:.\Generated_Source\PSoC4/CapSense_1.c **** *  CapSense_1_portTable[] - used to store the port number that pin 
1059:.\Generated_Source\PSoC4/CapSense_1.c **** *  belongs to for each sensor.
1060:.\Generated_Source\PSoC4/CapSense_1.c **** *  CapSense_1_pinShiftTbl[] - used to store position of pin that 
1061:.\Generated_Source\PSoC4/CapSense_1.c **** *  configured as sensor in port. 
1062:.\Generated_Source\PSoC4/CapSense_1.c **** *  CapSense_1_prtSelTbl[] - Contains pointers to the HSIOM 
1063:.\Generated_Source\PSoC4/CapSense_1.c **** *  registers for each port. 
1064:.\Generated_Source\PSoC4/CapSense_1.c **** *  CapSense_1_PrtCfgTb[] - Contains pointers to the port config 
1065:.\Generated_Source\PSoC4/CapSense_1.c **** *  registers for each port.
1066:.\Generated_Source\PSoC4/CapSense_1.c **** *
1067:.\Generated_Source\PSoC4/CapSense_1.c **** * Side Effects: 
1068:.\Generated_Source\PSoC4/CapSense_1.c **** *  None
1069:.\Generated_Source\PSoC4/CapSense_1.c **** *
1070:.\Generated_Source\PSoC4/CapSense_1.c **** *******************************************************************************/
1071:.\Generated_Source\PSoC4/CapSense_1.c **** void CapSense_1_EnableSensor(uint32 sensor)
1072:.\Generated_Source\PSoC4/CapSense_1.c **** {
 1021              		.loc 1 1072 0
 1022              		.cfi_startproc
 1023 0000 90B5     		push	{r4, r7, lr}
 1024              		.cfi_def_cfa_offset 12
 1025              		.cfi_offset 4, -12
 1026              		.cfi_offset 7, -8
ARM GAS  C:\Users\mitchell\AppData\Local\Temp\cc5pMFOa.s 			page 38


 1027              		.cfi_offset 14, -4
 1028 0002 87B0     		sub	sp, sp, #28
 1029              		.cfi_def_cfa_offset 40
 1030 0004 00AF     		add	r7, sp, #0
 1031              		.cfi_def_cfa_register 7
 1032 0006 7860     		str	r0, [r7, #4]
1073:.\Generated_Source\PSoC4/CapSense_1.c **** 	uint8  pinModeShift;
1074:.\Generated_Source\PSoC4/CapSense_1.c ****     uint8  pinHSIOMShift;
1075:.\Generated_Source\PSoC4/CapSense_1.c **** 	uint8 interruptState;
1076:.\Generated_Source\PSoC4/CapSense_1.c **** 	uint32 newRegisterValue;
1077:.\Generated_Source\PSoC4/CapSense_1.c ****     uint32 port;
1078:.\Generated_Source\PSoC4/CapSense_1.c **** 	
1079:.\Generated_Source\PSoC4/CapSense_1.c **** 	port = (uint32) CapSense_1_portTable[sensor];
 1033              		.loc 1 1079 0
 1034 0008 2C4A     		ldr	r2, .L63
 1035 000a 7B68     		ldr	r3, [r7, #4]
 1036 000c D318     		add	r3, r2, r3
 1037 000e 1B78     		ldrb	r3, [r3]
 1038 0010 7B61     		str	r3, [r7, #20]
1080:.\Generated_Source\PSoC4/CapSense_1.c ****     pinModeShift = CapSense_1_pinShiftTbl[sensor]  * CapSense_1_PC_PIN_CFG_SIZE;
 1039              		.loc 1 1080 0
 1040 0012 2B4A     		ldr	r2, .L63+4
 1041 0014 7B68     		ldr	r3, [r7, #4]
 1042 0016 D318     		add	r3, r2, r3
 1043 0018 1B78     		ldrb	r3, [r3]
 1044 001a 391C     		mov	r1, r7
 1045 001c 1331     		add	r1, r1, #19
 1046 001e 1A1C     		add	r2, r3, #0
 1047 0020 9218     		add	r2, r2, r2
 1048 0022 D318     		add	r3, r2, r3
 1049 0024 0B70     		strb	r3, [r1]
1081:.\Generated_Source\PSoC4/CapSense_1.c ****     pinHSIOMShift = CapSense_1_pinShiftTbl[sensor] * CapSense_1_HSIOM_PIN_CFG_SIZE;
 1050              		.loc 1 1081 0
 1051 0026 264A     		ldr	r2, .L63+4
 1052 0028 7B68     		ldr	r3, [r7, #4]
 1053 002a D318     		add	r3, r2, r3
 1054 002c 1A78     		ldrb	r2, [r3]
 1055 002e 3B1C     		mov	r3, r7
 1056 0030 1233     		add	r3, r3, #18
 1057 0032 9200     		lsl	r2, r2, #2
 1058 0034 1A70     		strb	r2, [r3]
1082:.\Generated_Source\PSoC4/CapSense_1.c **** 
1083:.\Generated_Source\PSoC4/CapSense_1.c **** 	interruptState = CyEnterCriticalSection();
 1059              		.loc 1 1083 0
 1060 0036 3C1C     		mov	r4, r7
 1061 0038 1134     		add	r4, r4, #17
 1062 003a FFF7FEFF 		bl	CyEnterCriticalSection
 1063 003e 031C     		mov	r3, r0
 1064 0040 2370     		strb	r3, [r4]
1084:.\Generated_Source\PSoC4/CapSense_1.c **** 	
1085:.\Generated_Source\PSoC4/CapSense_1.c **** 	newRegisterValue = *CapSense_1_prtSelTbl[port];
 1065              		.loc 1 1085 0
 1066 0042 204B     		ldr	r3, .L63+8
 1067 0044 7A69     		ldr	r2, [r7, #20]
 1068 0046 9200     		lsl	r2, r2, #2
 1069 0048 D358     		ldr	r3, [r2, r3]
 1070 004a 1B68     		ldr	r3, [r3]
ARM GAS  C:\Users\mitchell\AppData\Local\Temp\cc5pMFOa.s 			page 39


 1071 004c FB60     		str	r3, [r7, #12]
1086:.\Generated_Source\PSoC4/CapSense_1.c **** 	newRegisterValue &= ~(CapSense_1_CSD_HSIOM_MASK << pinHSIOMShift);
 1072              		.loc 1 1086 0
 1073 004e 3B1C     		mov	r3, r7
 1074 0050 1233     		add	r3, r3, #18
 1075 0052 1B78     		ldrb	r3, [r3]
 1076 0054 0F22     		mov	r2, #15
 1077 0056 111C     		mov	r1, r2
 1078 0058 9940     		lsl	r1, r1, r3
 1079 005a 0B1C     		mov	r3, r1
 1080 005c DA43     		mvn	r2, r3
 1081 005e FB68     		ldr	r3, [r7, #12]
 1082 0060 1340     		and	r3, r2
 1083 0062 FB60     		str	r3, [r7, #12]
1087:.\Generated_Source\PSoC4/CapSense_1.c **** 	newRegisterValue |= (uint32)((uint32)CapSense_1_CSD_SENSE_PORT_MODE << pinHSIOMShift);
 1084              		.loc 1 1087 0
 1085 0064 3B1C     		mov	r3, r7
 1086 0066 1233     		add	r3, r3, #18
 1087 0068 1B78     		ldrb	r3, [r3]
 1088 006a 0422     		mov	r2, #4
 1089 006c 141C     		mov	r4, r2
 1090 006e 9C40     		lsl	r4, r4, r3
 1091 0070 231C     		mov	r3, r4
 1092 0072 FA68     		ldr	r2, [r7, #12]
 1093 0074 1343     		orr	r3, r2
 1094 0076 FB60     		str	r3, [r7, #12]
1088:.\Generated_Source\PSoC4/CapSense_1.c ****    
1089:.\Generated_Source\PSoC4/CapSense_1.c ****     *CapSense_1_prtCfgTbl[port] &= (uint32)~((uint32)CapSense_1_CSD_PIN_MODE_MASK << pinModeShift);
 1095              		.loc 1 1089 0
 1096 0078 134B     		ldr	r3, .L63+12
 1097 007a 7A69     		ldr	r2, [r7, #20]
 1098 007c 9200     		lsl	r2, r2, #2
 1099 007e D358     		ldr	r3, [r2, r3]
 1100 0080 114A     		ldr	r2, .L63+12
 1101 0082 7969     		ldr	r1, [r7, #20]
 1102 0084 8900     		lsl	r1, r1, #2
 1103 0086 8A58     		ldr	r2, [r1, r2]
 1104 0088 1268     		ldr	r2, [r2]
 1105 008a 391C     		mov	r1, r7
 1106 008c 1331     		add	r1, r1, #19
 1107 008e 0978     		ldrb	r1, [r1]
 1108 0090 0720     		mov	r0, #7
 1109 0092 041C     		mov	r4, r0
 1110 0094 8C40     		lsl	r4, r4, r1
 1111 0096 211C     		mov	r1, r4
 1112 0098 C943     		mvn	r1, r1
 1113 009a 0A40     		and	r2, r1
 1114 009c 1A60     		str	r2, [r3]
1090:.\Generated_Source\PSoC4/CapSense_1.c ****     *CapSense_1_prtSelTbl[port] = newRegisterValue;
 1115              		.loc 1 1090 0
 1116 009e 094B     		ldr	r3, .L63+8
 1117 00a0 7A69     		ldr	r2, [r7, #20]
 1118 00a2 9200     		lsl	r2, r2, #2
 1119 00a4 D358     		ldr	r3, [r2, r3]
 1120 00a6 FA68     		ldr	r2, [r7, #12]
 1121 00a8 1A60     		str	r2, [r3]
1091:.\Generated_Source\PSoC4/CapSense_1.c **** 	
ARM GAS  C:\Users\mitchell\AppData\Local\Temp\cc5pMFOa.s 			page 40


1092:.\Generated_Source\PSoC4/CapSense_1.c **** 	CyExitCriticalSection(interruptState);
 1122              		.loc 1 1092 0
 1123 00aa 3B1C     		mov	r3, r7
 1124 00ac 1133     		add	r3, r3, #17
 1125 00ae 1B78     		ldrb	r3, [r3]
 1126 00b0 181C     		mov	r0, r3
 1127 00b2 FFF7FEFF 		bl	CyExitCriticalSection
1093:.\Generated_Source\PSoC4/CapSense_1.c **** }
 1128              		.loc 1 1093 0
 1129 00b6 BD46     		mov	sp, r7
 1130 00b8 07B0     		add	sp, sp, #28
 1131              		@ sp needed
 1132 00ba 90BD     		pop	{r4, r7, pc}
 1133              	.L64:
 1134              		.align	2
 1135              	.L63:
 1136 00bc 00000000 		.word	CapSense_1_portTable
 1137 00c0 00000000 		.word	CapSense_1_pinShiftTbl
 1138 00c4 00000000 		.word	CapSense_1_prtSelTbl
 1139 00c8 00000000 		.word	CapSense_1_prtCfgTbl
 1140              		.cfi_endproc
 1141              	.LFE47:
 1142              		.size	CapSense_1_EnableSensor, .-CapSense_1_EnableSensor
 1143              		.section	.text.CapSense_1_DisableSensor,"ax",%progbits
 1144              		.align	2
 1145              		.global	CapSense_1_DisableSensor
 1146              		.code	16
 1147              		.thumb_func
 1148              		.type	CapSense_1_DisableSensor, %function
 1149              	CapSense_1_DisableSensor:
 1150              	.LFB48:
1094:.\Generated_Source\PSoC4/CapSense_1.c **** 
1095:.\Generated_Source\PSoC4/CapSense_1.c **** 
1096:.\Generated_Source\PSoC4/CapSense_1.c **** /*******************************************************************************
1097:.\Generated_Source\PSoC4/CapSense_1.c **** * Function Name: CapSense_1_DisableSensor
1098:.\Generated_Source\PSoC4/CapSense_1.c **** ********************************************************************************
1099:.\Generated_Source\PSoC4/CapSense_1.c **** *
1100:.\Generated_Source\PSoC4/CapSense_1.c **** * Summary:
1101:.\Generated_Source\PSoC4/CapSense_1.c **** *  Disables the selected sensor. The corresponding pin is disconnected from the
1102:.\Generated_Source\PSoC4/CapSense_1.c **** *  Analog Mux Bus and connected to GND, High_Z or Shield electrode.
1103:.\Generated_Source\PSoC4/CapSense_1.c **** *
1104:.\Generated_Source\PSoC4/CapSense_1.c **** * Parameters:
1105:.\Generated_Source\PSoC4/CapSense_1.c **** *  sensor:  Sensor number
1106:.\Generated_Source\PSoC4/CapSense_1.c **** *
1107:.\Generated_Source\PSoC4/CapSense_1.c **** * Return:
1108:.\Generated_Source\PSoC4/CapSense_1.c **** *  None
1109:.\Generated_Source\PSoC4/CapSense_1.c **** *
1110:.\Generated_Source\PSoC4/CapSense_1.c **** * Global Variables:
1111:.\Generated_Source\PSoC4/CapSense_1.c **** *  CapSense_1_portTable[] - used to store the port number that pin 
1112:.\Generated_Source\PSoC4/CapSense_1.c **** *  belongs to for each sensor.
1113:.\Generated_Source\PSoC4/CapSense_1.c **** *  CapSense_1_pinShiftTbl[] - used to store position of pin that 
1114:.\Generated_Source\PSoC4/CapSense_1.c **** *  configured as a sensor in the port. 
1115:.\Generated_Source\PSoC4/CapSense_1.c **** *  CapSense_1_prtSelTbl[] - Contains pointers to the HSIOM 
1116:.\Generated_Source\PSoC4/CapSense_1.c **** *  registers for each port. 
1117:.\Generated_Source\PSoC4/CapSense_1.c **** *  CapSense_1_PrtCfgTb[] - Contains pointers to the port config 
1118:.\Generated_Source\PSoC4/CapSense_1.c **** *  registers for each port.
1119:.\Generated_Source\PSoC4/CapSense_1.c **** *
ARM GAS  C:\Users\mitchell\AppData\Local\Temp\cc5pMFOa.s 			page 41


1120:.\Generated_Source\PSoC4/CapSense_1.c **** * Side Effects: 
1121:.\Generated_Source\PSoC4/CapSense_1.c **** *  None
1122:.\Generated_Source\PSoC4/CapSense_1.c **** *
1123:.\Generated_Source\PSoC4/CapSense_1.c **** *******************************************************************************/
1124:.\Generated_Source\PSoC4/CapSense_1.c **** void CapSense_1_DisableSensor(uint32 sensor)
1125:.\Generated_Source\PSoC4/CapSense_1.c **** {
 1151              		.loc 1 1125 0
 1152              		.cfi_startproc
 1153 0000 90B5     		push	{r4, r7, lr}
 1154              		.cfi_def_cfa_offset 12
 1155              		.cfi_offset 4, -12
 1156              		.cfi_offset 7, -8
 1157              		.cfi_offset 14, -4
 1158 0002 89B0     		sub	sp, sp, #36
 1159              		.cfi_def_cfa_offset 48
 1160 0004 00AF     		add	r7, sp, #0
 1161              		.cfi_def_cfa_register 7
 1162 0006 7860     		str	r0, [r7, #4]
1126:.\Generated_Source\PSoC4/CapSense_1.c ****     uint8 interruptState;
1127:.\Generated_Source\PSoC4/CapSense_1.c **** 	uint32 newRegisterValue;
1128:.\Generated_Source\PSoC4/CapSense_1.c **** 	
1129:.\Generated_Source\PSoC4/CapSense_1.c ****     uint32 port = (uint32) CapSense_1_portTable[sensor];
 1163              		.loc 1 1129 0
 1164 0008 3F4A     		ldr	r2, .L68
 1165 000a 7B68     		ldr	r3, [r7, #4]
 1166 000c D318     		add	r3, r2, r3
 1167 000e 1B78     		ldrb	r3, [r3]
 1168 0010 7B61     		str	r3, [r7, #20]
1130:.\Generated_Source\PSoC4/CapSense_1.c ****     uint8  pinHSIOMShift = CapSense_1_pinShiftTbl[sensor] * CapSense_1_HSIOM_PIN_CFG_SIZE;
 1169              		.loc 1 1130 0
 1170 0012 3E4A     		ldr	r2, .L68+4
 1171 0014 7B68     		ldr	r3, [r7, #4]
 1172 0016 D318     		add	r3, r2, r3
 1173 0018 1A78     		ldrb	r2, [r3]
 1174 001a 3B1C     		mov	r3, r7
 1175 001c 1333     		add	r3, r3, #19
 1176 001e 9200     		lsl	r2, r2, #2
 1177 0020 1A70     		strb	r2, [r3]
1131:.\Generated_Source\PSoC4/CapSense_1.c ****     uint8  pinModeShift = CapSense_1_pinShiftTbl[sensor]  * CapSense_1_PC_PIN_CFG_SIZE;
 1178              		.loc 1 1131 0
 1179 0022 3A4A     		ldr	r2, .L68+4
 1180 0024 7B68     		ldr	r3, [r7, #4]
 1181 0026 D318     		add	r3, r2, r3
 1182 0028 1B78     		ldrb	r3, [r3]
 1183 002a 391C     		mov	r1, r7
 1184 002c 1231     		add	r1, r1, #18
 1185 002e 1A1C     		add	r2, r3, #0
 1186 0030 9218     		add	r2, r2, r2
 1187 0032 D318     		add	r3, r2, r3
 1188 0034 0B70     		strb	r3, [r1]
1132:.\Generated_Source\PSoC4/CapSense_1.c **** 
1133:.\Generated_Source\PSoC4/CapSense_1.c **** 	uint32 inactiveConnect = CapSense_1_SNS_HIZANALOG_CONNECT;
 1189              		.loc 1 1133 0
 1190 0036 0023     		mov	r3, #0
 1191 0038 FB61     		str	r3, [r7, #28]
1134:.\Generated_Source\PSoC4/CapSense_1.c **** 	uint32 sensorState = CapSense_1_unscannedSnsDriveMode[sensor];
 1192              		.loc 1 1134 0
ARM GAS  C:\Users\mitchell\AppData\Local\Temp\cc5pMFOa.s 			page 42


 1193 003a 354A     		ldr	r2, .L68+8
 1194 003c 7B68     		ldr	r3, [r7, #4]
 1195 003e D318     		add	r3, r2, r3
 1196 0040 1B78     		ldrb	r3, [r3]
 1197 0042 BB61     		str	r3, [r7, #24]
1135:.\Generated_Source\PSoC4/CapSense_1.c **** 
1136:.\Generated_Source\PSoC4/CapSense_1.c ****     *CapSense_1_prtSelTbl[port] &= ~(CapSense_1_CSD_HSIOM_MASK << pinHSIOMShift);
 1198              		.loc 1 1136 0
 1199 0044 334B     		ldr	r3, .L68+12
 1200 0046 7A69     		ldr	r2, [r7, #20]
 1201 0048 9200     		lsl	r2, r2, #2
 1202 004a D358     		ldr	r3, [r2, r3]
 1203 004c 314A     		ldr	r2, .L68+12
 1204 004e 7969     		ldr	r1, [r7, #20]
 1205 0050 8900     		lsl	r1, r1, #2
 1206 0052 8A58     		ldr	r2, [r1, r2]
 1207 0054 1268     		ldr	r2, [r2]
 1208 0056 391C     		mov	r1, r7
 1209 0058 1331     		add	r1, r1, #19
 1210 005a 0978     		ldrb	r1, [r1]
 1211 005c 0F20     		mov	r0, #15
 1212 005e 041C     		mov	r4, r0
 1213 0060 8C40     		lsl	r4, r4, r1
 1214 0062 211C     		mov	r1, r4
 1215 0064 C943     		mvn	r1, r1
 1216 0066 0A40     		and	r2, r1
 1217 0068 1A60     		str	r2, [r3]
1137:.\Generated_Source\PSoC4/CapSense_1.c **** 
1138:.\Generated_Source\PSoC4/CapSense_1.c **** 	#if(CapSense_1_IS_SHIELD_ENABLE != 0)
1139:.\Generated_Source\PSoC4/CapSense_1.c **** 	if(sensorState != (uint32)CapSense_1__SHIELD)
1140:.\Generated_Source\PSoC4/CapSense_1.c **** 	{
1141:.\Generated_Source\PSoC4/CapSense_1.c **** 	#else
1142:.\Generated_Source\PSoC4/CapSense_1.c **** 	    /* Connected to Ground if shield is disabled */
1143:.\Generated_Source\PSoC4/CapSense_1.c **** 	    if(sensorState == (uint32)CapSense_1__SHIELD)
 1218              		.loc 1 1143 0
 1219 006a BB69     		ldr	r3, [r7, #24]
 1220 006c 022B     		cmp	r3, #2
 1221 006e 01D1     		bne	.L66
1144:.\Generated_Source\PSoC4/CapSense_1.c **** 		{
1145:.\Generated_Source\PSoC4/CapSense_1.c **** 			sensorState = (uint32)CapSense_1__GROUND;
 1222              		.loc 1 1145 0
 1223 0070 0023     		mov	r3, #0
 1224 0072 BB61     		str	r3, [r7, #24]
 1225              	.L66:
1146:.\Generated_Source\PSoC4/CapSense_1.c **** 		}
1147:.\Generated_Source\PSoC4/CapSense_1.c **** 	#endif /* (CapSense_1_IS_SHIELD_ENABLE) */
1148:.\Generated_Source\PSoC4/CapSense_1.c **** 	    if(sensorState != (uint32)CapSense_1__HIZ_ANALOG)
 1226              		.loc 1 1148 0
 1227 0074 BB69     		ldr	r3, [r7, #24]
 1228 0076 012B     		cmp	r3, #1
 1229 0078 01D0     		beq	.L67
1149:.\Generated_Source\PSoC4/CapSense_1.c **** 		{   
1150:.\Generated_Source\PSoC4/CapSense_1.c **** 		    /* Connected to Ground */
1151:.\Generated_Source\PSoC4/CapSense_1.c **** 		    inactiveConnect = (uint32)CapSense_1_SNS_GROUND_CONNECT;
 1230              		.loc 1 1151 0
 1231 007a 0623     		mov	r3, #6
 1232 007c FB61     		str	r3, [r7, #28]
ARM GAS  C:\Users\mitchell\AppData\Local\Temp\cc5pMFOa.s 			page 43


 1233              	.L67:
1152:.\Generated_Source\PSoC4/CapSense_1.c **** 		}
1153:.\Generated_Source\PSoC4/CapSense_1.c **** 		
1154:.\Generated_Source\PSoC4/CapSense_1.c ****         interruptState = CyEnterCriticalSection();
 1234              		.loc 1 1154 0
 1235 007e 3C1C     		mov	r4, r7
 1236 0080 1134     		add	r4, r4, #17
 1237 0082 FFF7FEFF 		bl	CyEnterCriticalSection
 1238 0086 031C     		mov	r3, r0
 1239 0088 2370     		strb	r3, [r4]
1155:.\Generated_Source\PSoC4/CapSense_1.c **** 
1156:.\Generated_Source\PSoC4/CapSense_1.c ****         /* Set drive mode */
1157:.\Generated_Source\PSoC4/CapSense_1.c ****     	newRegisterValue = *CapSense_1_prtCfgTbl[port];
 1240              		.loc 1 1157 0
 1241 008a 234B     		ldr	r3, .L68+16
 1242 008c 7A69     		ldr	r2, [r7, #20]
 1243 008e 9200     		lsl	r2, r2, #2
 1244 0090 D358     		ldr	r3, [r2, r3]
 1245 0092 1B68     		ldr	r3, [r3]
 1246 0094 FB60     		str	r3, [r7, #12]
1158:.\Generated_Source\PSoC4/CapSense_1.c ****     	newRegisterValue &= ~(CapSense_1_CSD_PIN_MODE_MASK << pinModeShift);
 1247              		.loc 1 1158 0
 1248 0096 3B1C     		mov	r3, r7
 1249 0098 1233     		add	r3, r3, #18
 1250 009a 1B78     		ldrb	r3, [r3]
 1251 009c 0722     		mov	r2, #7
 1252 009e 111C     		mov	r1, r2
 1253 00a0 9940     		lsl	r1, r1, r3
 1254 00a2 0B1C     		mov	r3, r1
 1255 00a4 DA43     		mvn	r2, r3
 1256 00a6 FB68     		ldr	r3, [r7, #12]
 1257 00a8 1340     		and	r3, r2
 1258 00aa FB60     		str	r3, [r7, #12]
1159:.\Generated_Source\PSoC4/CapSense_1.c ****     	newRegisterValue |=  (uint32)(inactiveConnect << pinModeShift);
 1259              		.loc 1 1159 0
 1260 00ac 3B1C     		mov	r3, r7
 1261 00ae 1233     		add	r3, r3, #18
 1262 00b0 1B78     		ldrb	r3, [r3]
 1263 00b2 FA69     		ldr	r2, [r7, #28]
 1264 00b4 141C     		mov	r4, r2
 1265 00b6 9C40     		lsl	r4, r4, r3
 1266 00b8 231C     		mov	r3, r4
 1267 00ba FA68     		ldr	r2, [r7, #12]
 1268 00bc 1343     		orr	r3, r2
 1269 00be FB60     		str	r3, [r7, #12]
1160:.\Generated_Source\PSoC4/CapSense_1.c ****         *CapSense_1_prtCfgTbl[port] =  newRegisterValue;
 1270              		.loc 1 1160 0
 1271 00c0 154B     		ldr	r3, .L68+16
 1272 00c2 7A69     		ldr	r2, [r7, #20]
 1273 00c4 9200     		lsl	r2, r2, #2
 1274 00c6 D358     		ldr	r3, [r2, r3]
 1275 00c8 FA68     		ldr	r2, [r7, #12]
 1276 00ca 1A60     		str	r2, [r3]
1161:.\Generated_Source\PSoC4/CapSense_1.c ****         
1162:.\Generated_Source\PSoC4/CapSense_1.c ****         CyExitCriticalSection(interruptState);
 1277              		.loc 1 1162 0
 1278 00cc 3B1C     		mov	r3, r7
ARM GAS  C:\Users\mitchell\AppData\Local\Temp\cc5pMFOa.s 			page 44


 1279 00ce 1133     		add	r3, r3, #17
 1280 00d0 1B78     		ldrb	r3, [r3]
 1281 00d2 181C     		mov	r0, r3
 1282 00d4 FFF7FEFF 		bl	CyExitCriticalSection
1163:.\Generated_Source\PSoC4/CapSense_1.c **** 
1164:.\Generated_Source\PSoC4/CapSense_1.c ****     	*CapSense_1_prtDRTbl[port]  &=  (uint32)~(uint32)((uint32)1u << CapSense_1_pinShiftTbl[sensor]
 1283              		.loc 1 1164 0
 1284 00d8 104B     		ldr	r3, .L68+20
 1285 00da 7A69     		ldr	r2, [r7, #20]
 1286 00dc 9200     		lsl	r2, r2, #2
 1287 00de D358     		ldr	r3, [r2, r3]
 1288 00e0 0E4A     		ldr	r2, .L68+20
 1289 00e2 7969     		ldr	r1, [r7, #20]
 1290 00e4 8900     		lsl	r1, r1, #2
 1291 00e6 8A58     		ldr	r2, [r1, r2]
 1292 00e8 1268     		ldr	r2, [r2]
 1293 00ea 0848     		ldr	r0, .L68+4
 1294 00ec 7968     		ldr	r1, [r7, #4]
 1295 00ee 4118     		add	r1, r0, r1
 1296 00f0 0978     		ldrb	r1, [r1]
 1297 00f2 0120     		mov	r0, #1
 1298 00f4 041C     		mov	r4, r0
 1299 00f6 8C40     		lsl	r4, r4, r1
 1300 00f8 211C     		mov	r1, r4
 1301 00fa C943     		mvn	r1, r1
 1302 00fc 0A40     		and	r2, r1
 1303 00fe 1A60     		str	r2, [r3]
1165:.\Generated_Source\PSoC4/CapSense_1.c **** 	#if(CapSense_1_IS_SHIELD_ENABLE != 0)
1166:.\Generated_Source\PSoC4/CapSense_1.c **** 	}
1167:.\Generated_Source\PSoC4/CapSense_1.c **** 	else
1168:.\Generated_Source\PSoC4/CapSense_1.c **** 	{
1169:.\Generated_Source\PSoC4/CapSense_1.c **** 		/* Connect to Shield */
1170:.\Generated_Source\PSoC4/CapSense_1.c **** 		*CapSense_1_prtSelTbl[port] |= (CapSense_1_CSD_SHIELD_PORT_MODE << pinHSIOMShift);
1171:.\Generated_Source\PSoC4/CapSense_1.c **** 	}
1172:.\Generated_Source\PSoC4/CapSense_1.c **** 	#endif /* (CapSense_1_IS_SHIELD_ENABLE) */
1173:.\Generated_Source\PSoC4/CapSense_1.c **** }
 1304              		.loc 1 1173 0
 1305 0100 BD46     		mov	sp, r7
 1306 0102 09B0     		add	sp, sp, #36
 1307              		@ sp needed
 1308 0104 90BD     		pop	{r4, r7, pc}
 1309              	.L69:
 1310 0106 C046     		.align	2
 1311              	.L68:
 1312 0108 00000000 		.word	CapSense_1_portTable
 1313 010c 00000000 		.word	CapSense_1_pinShiftTbl
 1314 0110 00000000 		.word	CapSense_1_unscannedSnsDriveMode
 1315 0114 00000000 		.word	CapSense_1_prtSelTbl
 1316 0118 00000000 		.word	CapSense_1_prtCfgTbl
 1317 011c 00000000 		.word	CapSense_1_prtDRTbl
 1318              		.cfi_endproc
 1319              	.LFE48:
 1320              		.size	CapSense_1_DisableSensor, .-CapSense_1_DisableSensor
 1321              		.section	.text.CapSense_1_SetDriveModeAllPins,"ax",%progbits
 1322              		.align	2
 1323              		.global	CapSense_1_SetDriveModeAllPins
 1324              		.code	16
ARM GAS  C:\Users\mitchell\AppData\Local\Temp\cc5pMFOa.s 			page 45


 1325              		.thumb_func
 1326              		.type	CapSense_1_SetDriveModeAllPins, %function
 1327              	CapSense_1_SetDriveModeAllPins:
 1328              	.LFB49:
1174:.\Generated_Source\PSoC4/CapSense_1.c **** 
1175:.\Generated_Source\PSoC4/CapSense_1.c **** 
1176:.\Generated_Source\PSoC4/CapSense_1.c **** /*******************************************************************************
1177:.\Generated_Source\PSoC4/CapSense_1.c **** * Function Name: CapSense_1_SetDriveModeAllPins
1178:.\Generated_Source\PSoC4/CapSense_1.c **** ********************************************************************************
1179:.\Generated_Source\PSoC4/CapSense_1.c **** *
1180:.\Generated_Source\PSoC4/CapSense_1.c **** * Summary:
1181:.\Generated_Source\PSoC4/CapSense_1.c **** * This API sets the drive mode of port pins used by the CapSense
1182:.\Generated_Source\PSoC4/CapSense_1.c **** * component (sensors, guard, shield, shield tank and Cmod) to drive the 
1183:.\Generated_Source\PSoC4/CapSense_1.c **** * mode specified by the argument.
1184:.\Generated_Source\PSoC4/CapSense_1.c **** *
1185:.\Generated_Source\PSoC4/CapSense_1.c **** * Parameters:
1186:.\Generated_Source\PSoC4/CapSense_1.c **** *  driveMode:  Drive mode definition.
1187:.\Generated_Source\PSoC4/CapSense_1.c **** *
1188:.\Generated_Source\PSoC4/CapSense_1.c **** * Return:
1189:.\Generated_Source\PSoC4/CapSense_1.c **** *  None
1190:.\Generated_Source\PSoC4/CapSense_1.c **** *
1191:.\Generated_Source\PSoC4/CapSense_1.c **** * Global Variables:
1192:.\Generated_Source\PSoC4/CapSense_1.c **** *  CapSense_1_portTable[] - used to store the port number that pin 
1193:.\Generated_Source\PSoC4/CapSense_1.c **** *  belongs to for each sensor.
1194:.\Generated_Source\PSoC4/CapSense_1.c **** *  CapSense_1_pinShiftTbl[] - used to store position of pin that 
1195:.\Generated_Source\PSoC4/CapSense_1.c **** *  configured as a sensor in the port. 
1196:.\Generated_Source\PSoC4/CapSense_1.c **** *
1197:.\Generated_Source\PSoC4/CapSense_1.c **** * Side Effects: 
1198:.\Generated_Source\PSoC4/CapSense_1.c **** *  This API shall be called only after CapSense component is stopped.
1199:.\Generated_Source\PSoC4/CapSense_1.c **** *
1200:.\Generated_Source\PSoC4/CapSense_1.c **** *******************************************************************************/
1201:.\Generated_Source\PSoC4/CapSense_1.c **** void CapSense_1_SetDriveModeAllPins(uint32 driveMode)
1202:.\Generated_Source\PSoC4/CapSense_1.c **** {
 1329              		.loc 1 1202 0
 1330              		.cfi_startproc
 1331 0000 80B5     		push	{r7, lr}
 1332              		.cfi_def_cfa_offset 8
 1333              		.cfi_offset 7, -8
 1334              		.cfi_offset 14, -4
 1335 0002 86B0     		sub	sp, sp, #24
 1336              		.cfi_def_cfa_offset 32
 1337 0004 00AF     		add	r7, sp, #0
 1338              		.cfi_def_cfa_register 7
 1339 0006 7860     		str	r0, [r7, #4]
1203:.\Generated_Source\PSoC4/CapSense_1.c **** 	uint8 curSensor;
1204:.\Generated_Source\PSoC4/CapSense_1.c **** 	#if (CapSense_1_IS_COMPLEX_SCANSLOTS)
1205:.\Generated_Source\PSoC4/CapSense_1.c **** 		uint8 snsNumber;
1206:.\Generated_Source\PSoC4/CapSense_1.c **** 		uint8 snsType;
1207:.\Generated_Source\PSoC4/CapSense_1.c **** 	#endif  /* CapSense_1_IS_COMPLEX_SCANSLOTS */
1208:.\Generated_Source\PSoC4/CapSense_1.c **** 	uint32 prtNumberTmp;
1209:.\Generated_Source\PSoC4/CapSense_1.c **** 	uint32 pinNumberTmp;
1210:.\Generated_Source\PSoC4/CapSense_1.c **** 
1211:.\Generated_Source\PSoC4/CapSense_1.c **** 	for(curSensor = 0u; curSensor < CapSense_1_TOTAL_SENSOR_COUNT; curSensor++)
 1340              		.loc 1 1211 0
 1341 0008 3B1C     		mov	r3, r7
 1342 000a 1733     		add	r3, r3, #23
 1343 000c 0022     		mov	r2, #0
ARM GAS  C:\Users\mitchell\AppData\Local\Temp\cc5pMFOa.s 			page 46


 1344 000e 1A70     		strb	r2, [r3]
 1345 0010 1AE0     		b	.L71
 1346              	.L72:
1212:.\Generated_Source\PSoC4/CapSense_1.c **** 	{	
1213:.\Generated_Source\PSoC4/CapSense_1.c **** 		#if (CapSense_1_IS_COMPLEX_SCANSLOTS)
1214:.\Generated_Source\PSoC4/CapSense_1.c **** 			/* Read sensor type: single or complex */
1215:.\Generated_Source\PSoC4/CapSense_1.c **** 			snsType = CapSense_1_portTable[curSensor];
1216:.\Generated_Source\PSoC4/CapSense_1.c **** 		
1217:.\Generated_Source\PSoC4/CapSense_1.c **** 			/* Check if sensor is complex */
1218:.\Generated_Source\PSoC4/CapSense_1.c **** 			if ((snsType & CapSense_1_COMPLEX_SS_FLAG) == 0u)
1219:.\Generated_Source\PSoC4/CapSense_1.c **** 			{
1220:.\Generated_Source\PSoC4/CapSense_1.c **** 				/* The sensor is not complex */
1221:.\Generated_Source\PSoC4/CapSense_1.c **** 				snsNumber = curSensor;
1222:.\Generated_Source\PSoC4/CapSense_1.c **** 			}
1223:.\Generated_Source\PSoC4/CapSense_1.c **** 			else
1224:.\Generated_Source\PSoC4/CapSense_1.c **** 			{
1225:.\Generated_Source\PSoC4/CapSense_1.c **** 				/* Get dedicated sensor ID of the complex sensor */
1226:.\Generated_Source\PSoC4/CapSense_1.c **** 				snsType &= ~CapSense_1_COMPLEX_SS_FLAG;
1227:.\Generated_Source\PSoC4/CapSense_1.c **** 				snsNumber = CapSense_1_indexTable[snsType];
1228:.\Generated_Source\PSoC4/CapSense_1.c **** 			}
1229:.\Generated_Source\PSoC4/CapSense_1.c **** 
1230:.\Generated_Source\PSoC4/CapSense_1.c **** 			prtNumberTmp = CapSense_1_portTable[snsNumber];
1231:.\Generated_Source\PSoC4/CapSense_1.c **** 			pinNumberTmp = CapSense_1_pinShiftTbl[snsNumber];
1232:.\Generated_Source\PSoC4/CapSense_1.c **** 		#else
1233:.\Generated_Source\PSoC4/CapSense_1.c **** 			prtNumberTmp = CapSense_1_portTable[curSensor];
 1347              		.loc 1 1233 0 discriminator 2
 1348 0012 3B1C     		mov	r3, r7
 1349 0014 1733     		add	r3, r3, #23
 1350 0016 1B78     		ldrb	r3, [r3]
 1351 0018 124A     		ldr	r2, .L73
 1352 001a D35C     		ldrb	r3, [r2, r3]
 1353 001c 3B61     		str	r3, [r7, #16]
1234:.\Generated_Source\PSoC4/CapSense_1.c **** 			pinNumberTmp = CapSense_1_pinShiftTbl[curSensor];
 1354              		.loc 1 1234 0 discriminator 2
 1355 001e 3B1C     		mov	r3, r7
 1356 0020 1733     		add	r3, r3, #23
 1357 0022 1B78     		ldrb	r3, [r3]
 1358 0024 104A     		ldr	r2, .L73+4
 1359 0026 D35C     		ldrb	r3, [r2, r3]
 1360 0028 FB60     		str	r3, [r7, #12]
1235:.\Generated_Source\PSoC4/CapSense_1.c **** 		#endif  /* CapSense_1_IS_COMPLEX_SCANSLOTS */
1236:.\Generated_Source\PSoC4/CapSense_1.c **** 	
1237:.\Generated_Source\PSoC4/CapSense_1.c **** 		CapSense_1_SetPinDriveMode(driveMode, pinNumberTmp, prtNumberTmp);
 1361              		.loc 1 1237 0 discriminator 2
 1362 002a 7968     		ldr	r1, [r7, #4]
 1363 002c FA68     		ldr	r2, [r7, #12]
 1364 002e 3B69     		ldr	r3, [r7, #16]
 1365 0030 081C     		mov	r0, r1
 1366 0032 111C     		mov	r1, r2
 1367 0034 1A1C     		mov	r2, r3
 1368 0036 FFF7FEFF 		bl	CapSense_1_SetPinDriveMode
1211:.\Generated_Source\PSoC4/CapSense_1.c **** 	for(curSensor = 0u; curSensor < CapSense_1_TOTAL_SENSOR_COUNT; curSensor++)
 1369              		.loc 1 1211 0 discriminator 2
 1370 003a 3B1C     		mov	r3, r7
 1371 003c 1733     		add	r3, r3, #23
 1372 003e 1A78     		ldrb	r2, [r3]
 1373 0040 3B1C     		mov	r3, r7
ARM GAS  C:\Users\mitchell\AppData\Local\Temp\cc5pMFOa.s 			page 47


 1374 0042 1733     		add	r3, r3, #23
 1375 0044 0132     		add	r2, r2, #1
 1376 0046 1A70     		strb	r2, [r3]
 1377              	.L71:
1211:.\Generated_Source\PSoC4/CapSense_1.c **** 	for(curSensor = 0u; curSensor < CapSense_1_TOTAL_SENSOR_COUNT; curSensor++)
 1378              		.loc 1 1211 0 is_stmt 0 discriminator 1
 1379 0048 3B1C     		mov	r3, r7
 1380 004a 1733     		add	r3, r3, #23
 1381 004c 1B78     		ldrb	r3, [r3]
 1382 004e 042B     		cmp	r3, #4
 1383 0050 DFD9     		bls	.L72
1238:.\Generated_Source\PSoC4/CapSense_1.c **** 	}
1239:.\Generated_Source\PSoC4/CapSense_1.c **** 	
1240:.\Generated_Source\PSoC4/CapSense_1.c **** 	CapSense_1_SetPinDriveMode(driveMode, (uint32)CapSense_1_CMOD_PIN_NUMBER, (uint32)CapSense_1_CMOD_
 1384              		.loc 1 1240 0 is_stmt 1
 1385 0052 7B68     		ldr	r3, [r7, #4]
 1386 0054 181C     		mov	r0, r3
 1387 0056 0221     		mov	r1, #2
 1388 0058 0422     		mov	r2, #4
 1389 005a FFF7FEFF 		bl	CapSense_1_SetPinDriveMode
1241:.\Generated_Source\PSoC4/CapSense_1.c **** 	
1242:.\Generated_Source\PSoC4/CapSense_1.c **** 	#if(0u != CapSense_1_CSH_TANK_ENABLE)
1243:.\Generated_Source\PSoC4/CapSense_1.c **** 		CapSense_1_SetPinDriveMode(driveMode, (uint32)CapSense_1_CTANK_PIN_NUMBER, (uint32)CapSense_1_CTA
1244:.\Generated_Source\PSoC4/CapSense_1.c **** 	#endif /* (0u != CapSense_1_CSH_TANK_ENABLE) */	
1245:.\Generated_Source\PSoC4/CapSense_1.c **** 	
1246:.\Generated_Source\PSoC4/CapSense_1.c **** 	#if(0u != CapSense_1_IS_SHIELD_ENABLE)
1247:.\Generated_Source\PSoC4/CapSense_1.c **** 		CapSense_1_SetPinDriveMode(driveMode, (uint32)CapSense_1_SHIELD_PIN_NUMBER, (uint32)CapSense_1_SH
1248:.\Generated_Source\PSoC4/CapSense_1.c **** 	#endif /* (0u != CapSense_1_IS_SHIELD_ENABLE) */	
1249:.\Generated_Source\PSoC4/CapSense_1.c **** }
 1390              		.loc 1 1249 0
 1391 005e BD46     		mov	sp, r7
 1392 0060 06B0     		add	sp, sp, #24
 1393              		@ sp needed
 1394 0062 80BD     		pop	{r7, pc}
 1395              	.L74:
 1396              		.align	2
 1397              	.L73:
 1398 0064 00000000 		.word	CapSense_1_portTable
 1399 0068 00000000 		.word	CapSense_1_pinShiftTbl
 1400              		.cfi_endproc
 1401              	.LFE49:
 1402              		.size	CapSense_1_SetDriveModeAllPins, .-CapSense_1_SetDriveModeAllPins
 1403              		.section	.text.CapSense_1_RestoreDriveModeAllPins,"ax",%progbits
 1404              		.align	2
 1405              		.global	CapSense_1_RestoreDriveModeAllPins
 1406              		.code	16
 1407              		.thumb_func
 1408              		.type	CapSense_1_RestoreDriveModeAllPins, %function
 1409              	CapSense_1_RestoreDriveModeAllPins:
 1410              	.LFB50:
1250:.\Generated_Source\PSoC4/CapSense_1.c **** 
1251:.\Generated_Source\PSoC4/CapSense_1.c **** 
1252:.\Generated_Source\PSoC4/CapSense_1.c **** /*******************************************************************************
1253:.\Generated_Source\PSoC4/CapSense_1.c **** * Function Name: CapSense_1_RestoreDriveModeAllPins
1254:.\Generated_Source\PSoC4/CapSense_1.c **** ********************************************************************************
1255:.\Generated_Source\PSoC4/CapSense_1.c **** *
1256:.\Generated_Source\PSoC4/CapSense_1.c **** * Summary:
ARM GAS  C:\Users\mitchell\AppData\Local\Temp\cc5pMFOa.s 			page 48


1257:.\Generated_Source\PSoC4/CapSense_1.c **** *  This API restores the drive for all the CapSense port pins to the original
1258:.\Generated_Source\PSoC4/CapSense_1.c **** *  state.
1259:.\Generated_Source\PSoC4/CapSense_1.c **** *
1260:.\Generated_Source\PSoC4/CapSense_1.c **** * Parameters:
1261:.\Generated_Source\PSoC4/CapSense_1.c **** *  None
1262:.\Generated_Source\PSoC4/CapSense_1.c **** *
1263:.\Generated_Source\PSoC4/CapSense_1.c **** * Return:
1264:.\Generated_Source\PSoC4/CapSense_1.c **** *  None
1265:.\Generated_Source\PSoC4/CapSense_1.c **** *
1266:.\Generated_Source\PSoC4/CapSense_1.c **** * Global Variables:
1267:.\Generated_Source\PSoC4/CapSense_1.c **** *  CapSense_1_prtSelTbl[] - Contains pointers to the HSIOM 
1268:.\Generated_Source\PSoC4/CapSense_1.c **** *  registers for each port. 
1269:.\Generated_Source\PSoC4/CapSense_1.c **** *
1270:.\Generated_Source\PSoC4/CapSense_1.c **** * Side Effects: 
1271:.\Generated_Source\PSoC4/CapSense_1.c **** *  This API is called only after the CapSense component is stopped.
1272:.\Generated_Source\PSoC4/CapSense_1.c **** *
1273:.\Generated_Source\PSoC4/CapSense_1.c **** *******************************************************************************/
1274:.\Generated_Source\PSoC4/CapSense_1.c **** void CapSense_1_RestoreDriveModeAllPins(void)
1275:.\Generated_Source\PSoC4/CapSense_1.c **** {
 1411              		.loc 1 1275 0
 1412              		.cfi_startproc
 1413 0000 80B5     		push	{r7, lr}
 1414              		.cfi_def_cfa_offset 8
 1415              		.cfi_offset 7, -8
 1416              		.cfi_offset 14, -4
 1417 0002 82B0     		sub	sp, sp, #8
 1418              		.cfi_def_cfa_offset 16
 1419 0004 00AF     		add	r7, sp, #0
 1420              		.cfi_def_cfa_register 7
1276:.\Generated_Source\PSoC4/CapSense_1.c **** 	uint32 newRegisterValue;
1277:.\Generated_Source\PSoC4/CapSense_1.c **** 	
1278:.\Generated_Source\PSoC4/CapSense_1.c **** 	CapSense_1_SetDriveModeAllPins(CY_SYS_PINS_DM_ALG_HIZ);
 1421              		.loc 1 1278 0
 1422 0006 0020     		mov	r0, #0
 1423 0008 FFF7FEFF 		bl	CapSense_1_SetDriveModeAllPins
1279:.\Generated_Source\PSoC4/CapSense_1.c **** 	
1280:.\Generated_Source\PSoC4/CapSense_1.c **** 	newRegisterValue = CapSense_1_CMOD_CONNECTION_REG; 
 1424              		.loc 1 1280 0
 1425 000c 084B     		ldr	r3, .L76
 1426 000e 1B68     		ldr	r3, [r3]
 1427 0010 7B60     		str	r3, [r7, #4]
1281:.\Generated_Source\PSoC4/CapSense_1.c ****     newRegisterValue &= ~(CapSense_1_CSD_CMOD_CONNECTION_MASK);
 1428              		.loc 1 1281 0
 1429 0012 7A68     		ldr	r2, [r7, #4]
 1430 0014 074B     		ldr	r3, .L76+4
 1431 0016 1340     		and	r3, r2
 1432 0018 7B60     		str	r3, [r7, #4]
1282:.\Generated_Source\PSoC4/CapSense_1.c ****     newRegisterValue |= CapSense_1_CSD_CMOD_TO_AMUXBUS_A;
 1433              		.loc 1 1282 0
 1434 001a 7B68     		ldr	r3, [r7, #4]
 1435 001c C022     		mov	r2, #192
 1436 001e D200     		lsl	r2, r2, #3
 1437 0020 1343     		orr	r3, r2
 1438 0022 7B60     		str	r3, [r7, #4]
1283:.\Generated_Source\PSoC4/CapSense_1.c ****     CapSense_1_CMOD_CONNECTION_REG = newRegisterValue;
 1439              		.loc 1 1283 0
 1440 0024 024B     		ldr	r3, .L76
ARM GAS  C:\Users\mitchell\AppData\Local\Temp\cc5pMFOa.s 			page 49


 1441 0026 7A68     		ldr	r2, [r7, #4]
 1442 0028 1A60     		str	r2, [r3]
1284:.\Generated_Source\PSoC4/CapSense_1.c **** 	
1285:.\Generated_Source\PSoC4/CapSense_1.c **** 	#if(0u != CapSense_1_CSH_TANK_ENABLE)
1286:.\Generated_Source\PSoC4/CapSense_1.c **** 		newRegisterValue = CapSense_1_CTANK_CONNECTION_REG;
1287:.\Generated_Source\PSoC4/CapSense_1.c ****         newRegisterValue &= ~(CapSense_1_CSD_CTANK_CONNECTION_MASK);
1288:.\Generated_Source\PSoC4/CapSense_1.c **** 		newRegisterValue |= CapSense_1_CSD_CTANK_TO_AMUXBUS_B;
1289:.\Generated_Source\PSoC4/CapSense_1.c ****         CapSense_1_CTANK_CONNECTION_REG = newRegisterValue;
1290:.\Generated_Source\PSoC4/CapSense_1.c **** 	#endif/* (0u != CapSense_1_CSH_TANK_ENABLE) */
1291:.\Generated_Source\PSoC4/CapSense_1.c **** 	
1292:.\Generated_Source\PSoC4/CapSense_1.c **** 	#if(0u != CapSense_1_IS_SHIELD_ENABLE)
1293:.\Generated_Source\PSoC4/CapSense_1.c **** 		newRegisterValue = *CapSense_1_prtSelTbl[CapSense_1_SHIELD_PORT_NUMBER];
1294:.\Generated_Source\PSoC4/CapSense_1.c ****         newRegisterValue &= ~(CapSense_1_CSD_HSIOM_MASK << ((uint32)CapSense_1_SHIELD_PIN_NUMBER * 
1295:.\Generated_Source\PSoC4/CapSense_1.c ****         newRegisterValue |= (CapSense_1_CSD_SHIELD_PORT_MODE << ((uint32)CapSense_1_SHIELD_PIN_NUMB
1296:.\Generated_Source\PSoC4/CapSense_1.c ****         *CapSense_1_prtSelTbl[CapSense_1_SHIELD_PORT_NUMBER] = newRegisterValue;
1297:.\Generated_Source\PSoC4/CapSense_1.c **** 	#endif /* (0u != CapSense_1_IS_SHIELD_ENABLE) */	
1298:.\Generated_Source\PSoC4/CapSense_1.c **** }
 1443              		.loc 1 1298 0
 1444 002a BD46     		mov	sp, r7
 1445 002c 02B0     		add	sp, sp, #8
 1446              		@ sp needed
 1447 002e 80BD     		pop	{r7, pc}
 1448              	.L77:
 1449              		.align	2
 1450              	.L76:
 1451 0030 10000140 		.word	1073807376
 1452 0034 FFF0FFFF 		.word	-3841
 1453              		.cfi_endproc
 1454              	.LFE50:
 1455              		.size	CapSense_1_RestoreDriveModeAllPins, .-CapSense_1_RestoreDriveModeAllPins
 1456              		.section	.text.CapSense_1_SetPinDriveMode,"ax",%progbits
 1457              		.align	2
 1458              		.global	CapSense_1_SetPinDriveMode
 1459              		.code	16
 1460              		.thumb_func
 1461              		.type	CapSense_1_SetPinDriveMode, %function
 1462              	CapSense_1_SetPinDriveMode:
 1463              	.LFB51:
1299:.\Generated_Source\PSoC4/CapSense_1.c **** 
1300:.\Generated_Source\PSoC4/CapSense_1.c **** 
1301:.\Generated_Source\PSoC4/CapSense_1.c **** /*******************************************************************************
1302:.\Generated_Source\PSoC4/CapSense_1.c **** * Function Name: CapSense_1_SetPinDriveMode
1303:.\Generated_Source\PSoC4/CapSense_1.c **** ********************************************************************************
1304:.\Generated_Source\PSoC4/CapSense_1.c **** *
1305:.\Generated_Source\PSoC4/CapSense_1.c **** * Summary:
1306:.\Generated_Source\PSoC4/CapSense_1.c **** * This API sets the drive mode for the appropriate port/pin.
1307:.\Generated_Source\PSoC4/CapSense_1.c **** *
1308:.\Generated_Source\PSoC4/CapSense_1.c **** * Parameters:
1309:.\Generated_Source\PSoC4/CapSense_1.c **** *  driveMode:  Drive mode definition.
1310:.\Generated_Source\PSoC4/CapSense_1.c **** *  portNumber: contains port number (0, 1, 2).
1311:.\Generated_Source\PSoC4/CapSense_1.c **** *  pinNumber: contains pin number (0, 1, 2, ... , 7).
1312:.\Generated_Source\PSoC4/CapSense_1.c **** *
1313:.\Generated_Source\PSoC4/CapSense_1.c **** * Return:
1314:.\Generated_Source\PSoC4/CapSense_1.c **** *  None
1315:.\Generated_Source\PSoC4/CapSense_1.c **** *
1316:.\Generated_Source\PSoC4/CapSense_1.c **** * Global Variables:
1317:.\Generated_Source\PSoC4/CapSense_1.c **** *  CapSense_1_prtSelTbl[] - Contains pointers to the HSIOM 
ARM GAS  C:\Users\mitchell\AppData\Local\Temp\cc5pMFOa.s 			page 50


1318:.\Generated_Source\PSoC4/CapSense_1.c **** *  registers for each port. 
1319:.\Generated_Source\PSoC4/CapSense_1.c **** *  CapSense_1_prtCfgTb[] - Contains pointers to the port config 
1320:.\Generated_Source\PSoC4/CapSense_1.c **** *  registers for each port.
1321:.\Generated_Source\PSoC4/CapSense_1.c **** *
1322:.\Generated_Source\PSoC4/CapSense_1.c **** * Side Effects: 
1323:.\Generated_Source\PSoC4/CapSense_1.c **** *  This API is called only after CapSense component is stopped.
1324:.\Generated_Source\PSoC4/CapSense_1.c **** *
1325:.\Generated_Source\PSoC4/CapSense_1.c **** *******************************************************************************/
1326:.\Generated_Source\PSoC4/CapSense_1.c **** void CapSense_1_SetPinDriveMode(uint32 driveMode, uint32 pinNumber, uint32 portNumber)
1327:.\Generated_Source\PSoC4/CapSense_1.c **** {	
 1464              		.loc 1 1327 0
 1465              		.cfi_startproc
 1466 0000 80B5     		push	{r7, lr}
 1467              		.cfi_def_cfa_offset 8
 1468              		.cfi_offset 7, -8
 1469              		.cfi_offset 14, -4
 1470 0002 86B0     		sub	sp, sp, #24
 1471              		.cfi_def_cfa_offset 32
 1472 0004 00AF     		add	r7, sp, #0
 1473              		.cfi_def_cfa_register 7
 1474 0006 F860     		str	r0, [r7, #12]
 1475 0008 B960     		str	r1, [r7, #8]
 1476 000a 7A60     		str	r2, [r7, #4]
1328:.\Generated_Source\PSoC4/CapSense_1.c **** 	uint32  pinModeShift;
1329:.\Generated_Source\PSoC4/CapSense_1.c **** 	uint32 newRegisterValue;
1330:.\Generated_Source\PSoC4/CapSense_1.c **** 	
1331:.\Generated_Source\PSoC4/CapSense_1.c **** 	pinModeShift  = pinNumber * CapSense_1_PC_PIN_CFG_SIZE;
 1477              		.loc 1 1331 0
 1478 000c BA68     		ldr	r2, [r7, #8]
 1479 000e 131C     		mov	r3, r2
 1480 0010 5B00     		lsl	r3, r3, #1
 1481 0012 9B18     		add	r3, r3, r2
 1482 0014 7B61     		str	r3, [r7, #20]
1332:.\Generated_Source\PSoC4/CapSense_1.c **** 	
1333:.\Generated_Source\PSoC4/CapSense_1.c **** 	newRegisterValue = *CapSense_1_prtCfgTbl[portNumber];
 1483              		.loc 1 1333 0
 1484 0016 104B     		ldr	r3, .L79
 1485 0018 7A68     		ldr	r2, [r7, #4]
 1486 001a 9200     		lsl	r2, r2, #2
 1487 001c D358     		ldr	r3, [r2, r3]
 1488 001e 1B68     		ldr	r3, [r3]
 1489 0020 3B61     		str	r3, [r7, #16]
1334:.\Generated_Source\PSoC4/CapSense_1.c **** 	newRegisterValue &= ~(CapSense_1_CSD_PIN_MODE_MASK << pinModeShift);
 1490              		.loc 1 1334 0
 1491 0022 7B69     		ldr	r3, [r7, #20]
 1492 0024 0722     		mov	r2, #7
 1493 0026 111C     		mov	r1, r2
 1494 0028 9940     		lsl	r1, r1, r3
 1495 002a 0B1C     		mov	r3, r1
 1496 002c DA43     		mvn	r2, r3
 1497 002e 3B69     		ldr	r3, [r7, #16]
 1498 0030 1340     		and	r3, r2
 1499 0032 3B61     		str	r3, [r7, #16]
1335:.\Generated_Source\PSoC4/CapSense_1.c **** 	newRegisterValue |=  (uint32)((uint32)driveMode << pinModeShift);
 1500              		.loc 1 1335 0
 1501 0034 7B69     		ldr	r3, [r7, #20]
 1502 0036 FA68     		ldr	r2, [r7, #12]
ARM GAS  C:\Users\mitchell\AppData\Local\Temp\cc5pMFOa.s 			page 51


 1503 0038 111C     		mov	r1, r2
 1504 003a 9940     		lsl	r1, r1, r3
 1505 003c 0B1C     		mov	r3, r1
 1506 003e 3A69     		ldr	r2, [r7, #16]
 1507 0040 1343     		orr	r3, r2
 1508 0042 3B61     		str	r3, [r7, #16]
1336:.\Generated_Source\PSoC4/CapSense_1.c ****     *CapSense_1_prtCfgTbl[portNumber] =  newRegisterValue;
 1509              		.loc 1 1336 0
 1510 0044 044B     		ldr	r3, .L79
 1511 0046 7A68     		ldr	r2, [r7, #4]
 1512 0048 9200     		lsl	r2, r2, #2
 1513 004a D358     		ldr	r3, [r2, r3]
 1514 004c 3A69     		ldr	r2, [r7, #16]
 1515 004e 1A60     		str	r2, [r3]
1337:.\Generated_Source\PSoC4/CapSense_1.c **** }
 1516              		.loc 1 1337 0
 1517 0050 BD46     		mov	sp, r7
 1518 0052 06B0     		add	sp, sp, #24
 1519              		@ sp needed
 1520 0054 80BD     		pop	{r7, pc}
 1521              	.L80:
 1522 0056 C046     		.align	2
 1523              	.L79:
 1524 0058 00000000 		.word	CapSense_1_prtCfgTbl
 1525              		.cfi_endproc
 1526              	.LFE51:
 1527              		.size	CapSense_1_SetPinDriveMode, .-CapSense_1_SetPinDriveMode
 1528              		.section	.text.CapSense_1_PreScan,"ax",%progbits
 1529              		.align	2
 1530              		.global	CapSense_1_PreScan
 1531              		.code	16
 1532              		.thumb_func
 1533              		.type	CapSense_1_PreScan, %function
 1534              	CapSense_1_PreScan:
 1535              	.LFB52:
1338:.\Generated_Source\PSoC4/CapSense_1.c **** 
1339:.\Generated_Source\PSoC4/CapSense_1.c **** 
1340:.\Generated_Source\PSoC4/CapSense_1.c **** /*******************************************************************************
1341:.\Generated_Source\PSoC4/CapSense_1.c **** * Function Name: CapSense_1_PreScan
1342:.\Generated_Source\PSoC4/CapSense_1.c **** ********************************************************************************
1343:.\Generated_Source\PSoC4/CapSense_1.c **** *
1344:.\Generated_Source\PSoC4/CapSense_1.c **** * Summary:
1345:.\Generated_Source\PSoC4/CapSense_1.c **** *  Sets required settings, enables a sensor, removes Vref from AMUX and starts the 
1346:.\Generated_Source\PSoC4/CapSense_1.c **** *  scanning process of the sensor.
1347:.\Generated_Source\PSoC4/CapSense_1.c **** *
1348:.\Generated_Source\PSoC4/CapSense_1.c **** * Parameters:
1349:.\Generated_Source\PSoC4/CapSense_1.c **** *  sensor:  Sensor number.
1350:.\Generated_Source\PSoC4/CapSense_1.c **** *
1351:.\Generated_Source\PSoC4/CapSense_1.c **** * Return:
1352:.\Generated_Source\PSoC4/CapSense_1.c **** *  None
1353:.\Generated_Source\PSoC4/CapSense_1.c **** *
1354:.\Generated_Source\PSoC4/CapSense_1.c **** * Global Variables:
1355:.\Generated_Source\PSoC4/CapSense_1.c **** * CapSense_1_widgetNumber[] - This array contains numbers of widgets for each sensor.
1356:.\Generated_Source\PSoC4/CapSense_1.c **** * CapSense_1_widgetResolution[] - Contains the widget resolution.
1357:.\Generated_Source\PSoC4/CapSense_1.c **** *
1358:.\Generated_Source\PSoC4/CapSense_1.c **** * Side Effects: 
1359:.\Generated_Source\PSoC4/CapSense_1.c **** *  None
ARM GAS  C:\Users\mitchell\AppData\Local\Temp\cc5pMFOa.s 			page 52


1360:.\Generated_Source\PSoC4/CapSense_1.c **** *
1361:.\Generated_Source\PSoC4/CapSense_1.c **** *******************************************************************************/
1362:.\Generated_Source\PSoC4/CapSense_1.c **** void CapSense_1_PreScan(uint32 sensor)
1363:.\Generated_Source\PSoC4/CapSense_1.c **** {
 1536              		.loc 1 1363 0
 1537              		.cfi_startproc
 1538 0000 90B5     		push	{r4, r7, lr}
 1539              		.cfi_def_cfa_offset 12
 1540              		.cfi_offset 4, -12
 1541              		.cfi_offset 7, -8
 1542              		.cfi_offset 14, -4
 1543 0002 87B0     		sub	sp, sp, #28
 1544              		.cfi_def_cfa_offset 40
 1545 0004 00AF     		add	r7, sp, #0
 1546              		.cfi_def_cfa_register 7
 1547 0006 7860     		str	r0, [r7, #4]
1364:.\Generated_Source\PSoC4/CapSense_1.c ****     uint8 widget;
1365:.\Generated_Source\PSoC4/CapSense_1.c ****     uint8 interruptState;
1366:.\Generated_Source\PSoC4/CapSense_1.c **** 	uint32 newRegValue;
1367:.\Generated_Source\PSoC4/CapSense_1.c **** 	uint32 counterResolution;
1368:.\Generated_Source\PSoC4/CapSense_1.c **** 	
1369:.\Generated_Source\PSoC4/CapSense_1.c **** 	#if(CapSense_1_PRS_OPTIONS == CapSense_1__PRS_AUTO)
1370:.\Generated_Source\PSoC4/CapSense_1.c **** 		uint8 senseClkDivMath;
1371:.\Generated_Source\PSoC4/CapSense_1.c **** 		uint8 sampleClkDivMath;
1372:.\Generated_Source\PSoC4/CapSense_1.c **** 	#endif /* (CapSense_1_PRS_OPTIONS == CapSense_1__PRS_AUTO) */	
1373:.\Generated_Source\PSoC4/CapSense_1.c **** 	
1374:.\Generated_Source\PSoC4/CapSense_1.c **** 	#if ((CapSense_1_TUNING_METHOD == CapSense_1__TUNING_AUTO) &&\
1375:.\Generated_Source\PSoC4/CapSense_1.c **** 		 (0 != CapSense_1_IS_OVERSAMPLING_EN))
1376:.\Generated_Source\PSoC4/CapSense_1.c **** 		uint32 oversamplingFactor;
1377:.\Generated_Source\PSoC4/CapSense_1.c **** 	#endif /* ((CapSense_1_TUNING_METHOD == CapSense_1__TUNING_AUTO) &&\
1378:.\Generated_Source\PSoC4/CapSense_1.c **** 	           (0 != CapSense_1_IS_OVERSAMPLING_EN)) */
1379:.\Generated_Source\PSoC4/CapSense_1.c **** 
1380:.\Generated_Source\PSoC4/CapSense_1.c ****     /* Define widget sensor belongs to */
1381:.\Generated_Source\PSoC4/CapSense_1.c ****     widget = CapSense_1_widgetNumber[sensor];
 1548              		.loc 1 1381 0
 1549 0008 3B1C     		mov	r3, r7
 1550 000a 1733     		add	r3, r3, #23
 1551 000c 2949     		ldr	r1, .L82
 1552 000e 7A68     		ldr	r2, [r7, #4]
 1553 0010 8A18     		add	r2, r1, r2
 1554 0012 1278     		ldrb	r2, [r2]
 1555 0014 1A70     		strb	r2, [r3]
1382:.\Generated_Source\PSoC4/CapSense_1.c **** 
1383:.\Generated_Source\PSoC4/CapSense_1.c **** 	/* Recalculate Counter Resolution to MSB 16 bits */
1384:.\Generated_Source\PSoC4/CapSense_1.c **** 	counterResolution = CapSense_1_widgetResolution[widget];
 1556              		.loc 1 1384 0
 1557 0016 284B     		ldr	r3, .L82+4
 1558 0018 3B61     		str	r3, [r7, #16]
1385:.\Generated_Source\PSoC4/CapSense_1.c **** 	
1386:.\Generated_Source\PSoC4/CapSense_1.c **** 	#if ((CapSense_1_TUNING_METHOD == CapSense_1__TUNING_AUTO) &&\
1387:.\Generated_Source\PSoC4/CapSense_1.c **** 		 (0 != CapSense_1_IS_OVERSAMPLING_EN))
1388:.\Generated_Source\PSoC4/CapSense_1.c **** 	    oversamplingFactor = CapSense_1_GetBitValue(scanSpeedTbl, sensor);
1389:.\Generated_Source\PSoC4/CapSense_1.c **** 
1390:.\Generated_Source\PSoC4/CapSense_1.c **** 		if(counterResolution < CapSense_1_RESOLUTION_16_BITS)
1391:.\Generated_Source\PSoC4/CapSense_1.c **** 		{
1392:.\Generated_Source\PSoC4/CapSense_1.c **** 			counterResolution <<= oversamplingFactor;
1393:.\Generated_Source\PSoC4/CapSense_1.c **** 			counterResolution |= (uint32)(CapSense_1_RESOLUTION_8_BITS);
ARM GAS  C:\Users\mitchell\AppData\Local\Temp\cc5pMFOa.s 			page 53


1394:.\Generated_Source\PSoC4/CapSense_1.c **** 		}
1395:.\Generated_Source\PSoC4/CapSense_1.c **** 	#endif /* ((CapSense_1_TUNING_METHOD == CapSense_1__TUNING_AUTO) &&\
1396:.\Generated_Source\PSoC4/CapSense_1.c **** 	           (0 != CapSense_1_IS_OVERSAMPLING_EN)) */
1397:.\Generated_Source\PSoC4/CapSense_1.c **** 	
1398:.\Generated_Source\PSoC4/CapSense_1.c **** 	#if (0u != CapSense_1_IS_M0S8PERI_BLOCK)
1399:.\Generated_Source\PSoC4/CapSense_1.c **** 		CapSense_1_SenseClk_Stop();
1400:.\Generated_Source\PSoC4/CapSense_1.c **** 		CapSense_1_SampleClk_Stop();
1401:.\Generated_Source\PSoC4/CapSense_1.c **** 	#endif /* (0u != CapSense_1_IS_M0S8PERI_BLOCK) */
1402:.\Generated_Source\PSoC4/CapSense_1.c **** 
1403:.\Generated_Source\PSoC4/CapSense_1.c **** 	#if (0u != CapSense_1_MULTIPLE_FREQUENCY_SET)
1404:.\Generated_Source\PSoC4/CapSense_1.c **** 		CapSense_1_SampleClk_SetDividerValue((uint16)CapSense_1_sampleClkDividerVal[sensor]);
1405:.\Generated_Source\PSoC4/CapSense_1.c **** 		CapSense_1_SenseClk_SetDividerValue((uint16)CapSense_1_senseClkDividerVal[sensor]);
1406:.\Generated_Source\PSoC4/CapSense_1.c **** 	#else
1407:.\Generated_Source\PSoC4/CapSense_1.c **** 		CapSense_1_SampleClk_SetDividerValue((uint16)CapSense_1_sampleClkDividerVal);
 1559              		.loc 1 1407 0
 1560 001a 0C23     		mov	r3, #12
 1561 001c 013B     		sub	r3, r3, #1
 1562 001e 9BB2     		uxth	r3, r3
 1563 0020 181C     		mov	r0, r3
 1564 0022 0021     		mov	r1, #0
 1565 0024 FFF7FEFF 		bl	CapSense_1_SampleClk_SetFractionalDividerRegister
1408:.\Generated_Source\PSoC4/CapSense_1.c **** 		CapSense_1_SenseClk_SetDividerValue((uint16)CapSense_1_senseClkDividerVal);
 1566              		.loc 1 1408 0
 1567 0028 0123     		mov	r3, #1
 1568 002a 013B     		sub	r3, r3, #1
 1569 002c 9BB2     		uxth	r3, r3
 1570 002e 181C     		mov	r0, r3
 1571 0030 0021     		mov	r1, #0
 1572 0032 FFF7FEFF 		bl	CapSense_1_SenseClk_SetFractionalDividerRegister
1409:.\Generated_Source\PSoC4/CapSense_1.c **** 	#endif /* (0u != CapSense_1_MULTIPLE_FREQUENCY_SET) */
1410:.\Generated_Source\PSoC4/CapSense_1.c **** 
1411:.\Generated_Source\PSoC4/CapSense_1.c **** 	#if (0u != CapSense_1_IS_M0S8PERI_BLOCK)
1412:.\Generated_Source\PSoC4/CapSense_1.c **** 		CapSense_1_SampleClk_Start();
1413:.\Generated_Source\PSoC4/CapSense_1.c **** 		CapSense_1_SenseClk_StartEx(CapSense_1_SampleClk__DIV_ID);
1414:.\Generated_Source\PSoC4/CapSense_1.c **** 		
1415:.\Generated_Source\PSoC4/CapSense_1.c **** 		#if(CapSense_1_PRS_OPTIONS == CapSense_1__PRS_NONE)
1416:.\Generated_Source\PSoC4/CapSense_1.c **** 			CyIntDisable(CapSense_1_ISR_NUMBER);
1417:.\Generated_Source\PSoC4/CapSense_1.c **** 			CapSense_1_CSD_CNT_REG = CapSense_1_ONE_CYCLE;
1418:.\Generated_Source\PSoC4/CapSense_1.c **** 			while(0u != (CapSense_1_CSD_CNT_REG & CapSense_1_RESOLUTION_16_BITS))
1419:.\Generated_Source\PSoC4/CapSense_1.c **** 			{
1420:.\Generated_Source\PSoC4/CapSense_1.c **** 			/* Wait until scanning is complete */ 
1421:.\Generated_Source\PSoC4/CapSense_1.c **** 			}
1422:.\Generated_Source\PSoC4/CapSense_1.c **** 			CapSense_1_CSD_INTR_REG = 1u;
1423:.\Generated_Source\PSoC4/CapSense_1.c **** 			CyIntClearPending(CapSense_1_ISR_NUMBER);
1424:.\Generated_Source\PSoC4/CapSense_1.c **** 			CyIntEnable(CapSense_1_ISR_NUMBER); 
1425:.\Generated_Source\PSoC4/CapSense_1.c **** 		#endif /* CapSense_1_PRS_OPTIONS == CapSense_1__PRS_NONE */
1426:.\Generated_Source\PSoC4/CapSense_1.c **** 	#endif /* (0u != CapSense_1_IS_M0S8PERI_BLOCK) */
1427:.\Generated_Source\PSoC4/CapSense_1.c **** 
1428:.\Generated_Source\PSoC4/CapSense_1.c **** #if(CapSense_1_PRS_OPTIONS != CapSense_1__PRS_NONE)
1429:.\Generated_Source\PSoC4/CapSense_1.c **** 
1430:.\Generated_Source\PSoC4/CapSense_1.c **** 	#if(CapSense_1_TUNING_METHOD == CapSense_1__TUNING_AUTO)
1431:.\Generated_Source\PSoC4/CapSense_1.c **** 		if(CapSense_1_prescalersTuningDone != 0u)
1432:.\Generated_Source\PSoC4/CapSense_1.c **** 		{
1433:.\Generated_Source\PSoC4/CapSense_1.c **** 	#endif /* (CapSense_1_TUNING_METHOD == CapSense_1__TUNING_AUTO) */
1434:.\Generated_Source\PSoC4/CapSense_1.c **** 			
1435:.\Generated_Source\PSoC4/CapSense_1.c **** 			CyIntDisable(CapSense_1_ISR_NUMBER);
1436:.\Generated_Source\PSoC4/CapSense_1.c **** 			
ARM GAS  C:\Users\mitchell\AppData\Local\Temp\cc5pMFOa.s 			page 54


1437:.\Generated_Source\PSoC4/CapSense_1.c **** 			newRegValue = CapSense_1_CSD_CFG_REG;
1438:.\Generated_Source\PSoC4/CapSense_1.c **** 			newRegValue |= CapSense_1_CSD_CFG_PRS_SELECT;
1439:.\Generated_Source\PSoC4/CapSense_1.c **** 			
1440:.\Generated_Source\PSoC4/CapSense_1.c **** 			#if(CapSense_1_PRS_OPTIONS == CapSense_1__PRS_AUTO)
1441:.\Generated_Source\PSoC4/CapSense_1.c **** 				
1442:.\Generated_Source\PSoC4/CapSense_1.c **** 				newRegValue &= ~(CapSense_1_PRS_MODE_MASK);
1443:.\Generated_Source\PSoC4/CapSense_1.c **** 				
1444:.\Generated_Source\PSoC4/CapSense_1.c **** 				#if (0u != CapSense_1_MULTIPLE_FREQUENCY_SET)
1445:.\Generated_Source\PSoC4/CapSense_1.c **** 					senseClkDivMath = CapSense_1_senseClkDividerVal[sensor];
1446:.\Generated_Source\PSoC4/CapSense_1.c **** 					sampleClkDivMath = CapSense_1_sampleClkDividerVal[sensor];
1447:.\Generated_Source\PSoC4/CapSense_1.c **** 				#else
1448:.\Generated_Source\PSoC4/CapSense_1.c **** 					senseClkDivMath = CapSense_1_senseClkDividerVal;
1449:.\Generated_Source\PSoC4/CapSense_1.c **** 					sampleClkDivMath = CapSense_1_sampleClkDividerVal;
1450:.\Generated_Source\PSoC4/CapSense_1.c **** 				#endif /* ( CapSense_1_MULTIPLE_FREQUENCY_SET) */
1451:.\Generated_Source\PSoC4/CapSense_1.c **** 				
1452:.\Generated_Source\PSoC4/CapSense_1.c **** 				#if(0u == CapSense_1_IS_M0S8PERI_BLOCK)
1453:.\Generated_Source\PSoC4/CapSense_1.c **** 					senseClkDivMath *= sampleClkDivMath;
1454:.\Generated_Source\PSoC4/CapSense_1.c **** 				#endif /* (0u == CapSense_1_IS_M0S8PERI_BLOCK) */	
1455:.\Generated_Source\PSoC4/CapSense_1.c **** 				
1456:.\Generated_Source\PSoC4/CapSense_1.c **** 				if((senseClkDivMath * CapSense_1_RESOLUTION_12_BITS) <
1457:.\Generated_Source\PSoC4/CapSense_1.c **** 				   (sampleClkDivMath * CapSense_1_widgetResolution[widget]))
1458:.\Generated_Source\PSoC4/CapSense_1.c **** 				{
1459:.\Generated_Source\PSoC4/CapSense_1.c **** 					newRegValue |= CapSense_1_CSD_PRS_12_BIT;
1460:.\Generated_Source\PSoC4/CapSense_1.c **** 				}
1461:.\Generated_Source\PSoC4/CapSense_1.c **** 			#endif /* (CapSense_1_PRS_OPTIONS == CapSense_1__PRS_AUTO) */
1462:.\Generated_Source\PSoC4/CapSense_1.c **** 			
1463:.\Generated_Source\PSoC4/CapSense_1.c **** 			CapSense_1_CSD_CFG_REG = newRegValue;
1464:.\Generated_Source\PSoC4/CapSense_1.c **** 			
1465:.\Generated_Source\PSoC4/CapSense_1.c **** 			CyIntEnable(CapSense_1_ISR_NUMBER);
1466:.\Generated_Source\PSoC4/CapSense_1.c **** 			
1467:.\Generated_Source\PSoC4/CapSense_1.c **** 	#if(CapSense_1_TUNING_METHOD == CapSense_1__TUNING_AUTO)	
1468:.\Generated_Source\PSoC4/CapSense_1.c **** 		}
1469:.\Generated_Source\PSoC4/CapSense_1.c **** 	#endif /* (CapSense_1_PRS_OPTIONS != CapSense_1__PRS_NONE) */
1470:.\Generated_Source\PSoC4/CapSense_1.c **** 
1471:.\Generated_Source\PSoC4/CapSense_1.c **** #endif /* (CapSense_1_PRS_OPTIONS == CapSense_1__PRS_NONE) */
1472:.\Generated_Source\PSoC4/CapSense_1.c **** 	
1473:.\Generated_Source\PSoC4/CapSense_1.c **** 	/* Set Idac Value */
1474:.\Generated_Source\PSoC4/CapSense_1.c **** 	CyIntDisable(CapSense_1_ISR_NUMBER);
 1573              		.loc 1 1474 0
 1574 0036 0F20     		mov	r0, #15
 1575 0038 FFF7FEFF 		bl	CyIntDisable
1475:.\Generated_Source\PSoC4/CapSense_1.c ****     newRegValue = CapSense_1_CSD_IDAC_REG;
 1576              		.loc 1 1475 0
 1577 003c 1F4B     		ldr	r3, .L82+8
 1578 003e 1B68     		ldr	r3, [r3]
 1579 0040 FB60     		str	r3, [r7, #12]
1476:.\Generated_Source\PSoC4/CapSense_1.c ****  
1477:.\Generated_Source\PSoC4/CapSense_1.c **** #if (CapSense_1_IDAC_CNT == 1u)    
1478:.\Generated_Source\PSoC4/CapSense_1.c **** 	newRegValue &= ~(CapSense_1_CSD_IDAC1_DATA_MASK);
 1580              		.loc 1 1478 0
 1581 0042 FB68     		ldr	r3, [r7, #12]
 1582 0044 FF22     		mov	r2, #255
 1583 0046 9343     		bic	r3, r2
 1584 0048 FB60     		str	r3, [r7, #12]
1479:.\Generated_Source\PSoC4/CapSense_1.c **** 	newRegValue |= CapSense_1_modulationIDAC[sensor];
 1585              		.loc 1 1479 0
 1586 004a 1D4A     		ldr	r2, .L82+12
ARM GAS  C:\Users\mitchell\AppData\Local\Temp\cc5pMFOa.s 			page 55


 1587 004c 7B68     		ldr	r3, [r7, #4]
 1588 004e D318     		add	r3, r2, r3
 1589 0050 1B78     		ldrb	r3, [r3]
 1590 0052 FA68     		ldr	r2, [r7, #12]
 1591 0054 1343     		orr	r3, r2
 1592 0056 FB60     		str	r3, [r7, #12]
1480:.\Generated_Source\PSoC4/CapSense_1.c **** #else
1481:.\Generated_Source\PSoC4/CapSense_1.c **** 	newRegValue &= ~(CapSense_1_CSD_IDAC1_DATA_MASK | CapSense_1_CSD_IDAC2_DATA_MASK);
1482:.\Generated_Source\PSoC4/CapSense_1.c **** 	newRegValue |= (CapSense_1_modulationIDAC[sensor] | 
1483:.\Generated_Source\PSoC4/CapSense_1.c **** 							(uint32)((uint32)CapSense_1_compensationIDAC[sensor] <<
1484:.\Generated_Source\PSoC4/CapSense_1.c **** 							CapSense_1_CSD_IDAC2_DATA_OFFSET));                               
1485:.\Generated_Source\PSoC4/CapSense_1.c **** #endif /* (CapSense_1_IDAC_CNT == 1u) */
1486:.\Generated_Source\PSoC4/CapSense_1.c **** 	
1487:.\Generated_Source\PSoC4/CapSense_1.c **** 	CapSense_1_CSD_IDAC_REG = newRegValue;
 1593              		.loc 1 1487 0
 1594 0058 184B     		ldr	r3, .L82+8
 1595 005a FA68     		ldr	r2, [r7, #12]
 1596 005c 1A60     		str	r2, [r3]
1488:.\Generated_Source\PSoC4/CapSense_1.c **** 
1489:.\Generated_Source\PSoC4/CapSense_1.c **** #if(CapSense_1_CMOD_PREGARGE_OPTION == CapSense_1__CAPPRIOBUF)
1490:.\Generated_Source\PSoC4/CapSense_1.c **** 	newRegValue = CapSense_1_CMOD_CONNECTION_REG;
1491:.\Generated_Source\PSoC4/CapSense_1.c **** 	newRegValue &= ~(CapSense_1_CSD_CMOD_CONNECTION_MASK);
1492:.\Generated_Source\PSoC4/CapSense_1.c **** 	newRegValue |= CapSense_1_CSD_CMOD_TO_AMUXBUS_A;
1493:.\Generated_Source\PSoC4/CapSense_1.c **** 	CapSense_1_CMOD_CONNECTION_REG = newRegValue;
1494:.\Generated_Source\PSoC4/CapSense_1.c **** 	
1495:.\Generated_Source\PSoC4/CapSense_1.c **** 	newRegValue = CapSense_1_CMOD_PORT_PC_REG;
1496:.\Generated_Source\PSoC4/CapSense_1.c **** 	newRegValue &= ~(CapSense_1_CSD_CMOD_PC_MASK);
1497:.\Generated_Source\PSoC4/CapSense_1.c **** 	newRegValue |= CapSense_1_CMOD_PC_HIGH_Z_MODE;
1498:.\Generated_Source\PSoC4/CapSense_1.c **** 	CapSense_1_CMOD_PORT_PC_REG = newRegValue;
1499:.\Generated_Source\PSoC4/CapSense_1.c **** #endif /* (CapSense_1_CMOD_PREGARGE_OPTION == CapSense_1__CAPPRIOBUF) */
1500:.\Generated_Source\PSoC4/CapSense_1.c **** 
1501:.\Generated_Source\PSoC4/CapSense_1.c ****     /* Disconnect Vref Buffer from AMUX */
1502:.\Generated_Source\PSoC4/CapSense_1.c **** 	newRegValue = CapSense_1_CSD_CFG_REG;
 1597              		.loc 1 1502 0
 1598 005e 194B     		ldr	r3, .L82+16
 1599 0060 1B68     		ldr	r3, [r3]
 1600 0062 FB60     		str	r3, [r7, #12]
1503:.\Generated_Source\PSoC4/CapSense_1.c **** 	newRegValue &= ~(CapSense_1_PRECHARGE_CONFIG_MASK);
 1601              		.loc 1 1503 0
 1602 0064 FA68     		ldr	r2, [r7, #12]
 1603 0066 184B     		ldr	r3, .L82+20
 1604 0068 1340     		and	r3, r2
 1605 006a FB60     		str	r3, [r7, #12]
1504:.\Generated_Source\PSoC4/CapSense_1.c **** 	newRegValue |= CapSense_1_CTANK_PRECHARGE_CONFIG;
 1606              		.loc 1 1504 0
 1607 006c FB68     		ldr	r3, [r7, #12]
 1608 006e 174A     		ldr	r2, .L82+24
 1609 0070 1343     		orr	r3, r2
 1610 0072 FB60     		str	r3, [r7, #12]
1505:.\Generated_Source\PSoC4/CapSense_1.c **** 	
1506:.\Generated_Source\PSoC4/CapSense_1.c **** 	CyIntEnable(CapSense_1_ISR_NUMBER);
 1611              		.loc 1 1506 0
 1612 0074 0F20     		mov	r0, #15
 1613 0076 FFF7FEFF 		bl	CyIntEnable
1507:.\Generated_Source\PSoC4/CapSense_1.c **** 	
1508:.\Generated_Source\PSoC4/CapSense_1.c ****     /* Enable Sensor */
1509:.\Generated_Source\PSoC4/CapSense_1.c ****     CapSense_1_EnableScanSlot(sensor);
ARM GAS  C:\Users\mitchell\AppData\Local\Temp\cc5pMFOa.s 			page 56


 1614              		.loc 1 1509 0
 1615 007a 7B68     		ldr	r3, [r7, #4]
 1616 007c 181C     		mov	r0, r3
 1617 007e FFF7FEFF 		bl	CapSense_1_EnableSensor
1510:.\Generated_Source\PSoC4/CapSense_1.c ****     
1511:.\Generated_Source\PSoC4/CapSense_1.c **** 	interruptState = CyEnterCriticalSection();
 1618              		.loc 1 1511 0
 1619 0082 3C1C     		mov	r4, r7
 1620 0084 0B34     		add	r4, r4, #11
 1621 0086 FFF7FEFF 		bl	CyEnterCriticalSection
 1622 008a 031C     		mov	r3, r0
 1623 008c 2370     		strb	r3, [r4]
1512:.\Generated_Source\PSoC4/CapSense_1.c **** 	CapSense_1_CSD_CFG_REG = newRegValue;
 1624              		.loc 1 1512 0
 1625 008e 0D4B     		ldr	r3, .L82+16
 1626 0090 FA68     		ldr	r2, [r7, #12]
 1627 0092 1A60     		str	r2, [r3]
1513:.\Generated_Source\PSoC4/CapSense_1.c **** 	
1514:.\Generated_Source\PSoC4/CapSense_1.c **** 	/* `#START CapSense_1_PreSettlingDelay_Debug` */
1515:.\Generated_Source\PSoC4/CapSense_1.c **** 
1516:.\Generated_Source\PSoC4/CapSense_1.c **** 	/* `#END` */
1517:.\Generated_Source\PSoC4/CapSense_1.c **** 	
1518:.\Generated_Source\PSoC4/CapSense_1.c **** 	CyDelayCycles(CapSense_1_GLITCH_ELIMINATION_CYCLES);
 1628              		.loc 1 1518 0
 1629 0094 0020     		mov	r0, #0
 1630 0096 FFF7FEFF 		bl	CyDelayCycles
1519:.\Generated_Source\PSoC4/CapSense_1.c **** 	
1520:.\Generated_Source\PSoC4/CapSense_1.c **** 	/* `#START CapSense_1_PreScan_Debug` */
1521:.\Generated_Source\PSoC4/CapSense_1.c **** 
1522:.\Generated_Source\PSoC4/CapSense_1.c **** 	/* `#END` */
1523:.\Generated_Source\PSoC4/CapSense_1.c **** 	
1524:.\Generated_Source\PSoC4/CapSense_1.c ****     CapSense_1_CSD_CNT_REG = counterResolution;
 1631              		.loc 1 1524 0
 1632 009a 0D4B     		ldr	r3, .L82+28
 1633 009c 3A69     		ldr	r2, [r7, #16]
 1634 009e 1A60     		str	r2, [r3]
1525:.\Generated_Source\PSoC4/CapSense_1.c ****     CyExitCriticalSection(interruptState);
 1635              		.loc 1 1525 0
 1636 00a0 3B1C     		mov	r3, r7
 1637 00a2 0B33     		add	r3, r3, #11
 1638 00a4 1B78     		ldrb	r3, [r3]
 1639 00a6 181C     		mov	r0, r3
 1640 00a8 FFF7FEFF 		bl	CyExitCriticalSection
1526:.\Generated_Source\PSoC4/CapSense_1.c **** }
 1641              		.loc 1 1526 0
 1642 00ac BD46     		mov	sp, r7
 1643 00ae 07B0     		add	sp, sp, #28
 1644              		@ sp needed
 1645 00b0 90BD     		pop	{r4, r7, pc}
 1646              	.L83:
 1647 00b2 C046     		.align	2
 1648              	.L82:
 1649 00b4 00000000 		.word	CapSense_1_widgetNumber
 1650 00b8 0000FF0F 		.word	268369920
 1651 00bc 08000840 		.word	1074266120
 1652 00c0 00000000 		.word	CapSense_1_modulationIDAC
 1653 00c4 04000840 		.word	1074266116
ARM GAS  C:\Users\mitchell\AppData\Local\Temp\cc5pMFOa.s 			page 57


 1654 00c8 FF1FDFFF 		.word	-2154497
 1655 00cc 20E02000 		.word	2154528
 1656 00d0 0C000840 		.word	1074266124
 1657              		.cfi_endproc
 1658              	.LFE52:
 1659              		.size	CapSense_1_PreScan, .-CapSense_1_PreScan
 1660              		.section	.text.CapSense_1_PostScan,"ax",%progbits
 1661              		.align	2
 1662              		.global	CapSense_1_PostScan
 1663              		.code	16
 1664              		.thumb_func
 1665              		.type	CapSense_1_PostScan, %function
 1666              	CapSense_1_PostScan:
 1667              	.LFB53:
1527:.\Generated_Source\PSoC4/CapSense_1.c **** 
1528:.\Generated_Source\PSoC4/CapSense_1.c **** 
1529:.\Generated_Source\PSoC4/CapSense_1.c **** /*******************************************************************************
1530:.\Generated_Source\PSoC4/CapSense_1.c **** * Function Name: CapSense_1_PostScan
1531:.\Generated_Source\PSoC4/CapSense_1.c **** ********************************************************************************
1532:.\Generated_Source\PSoC4/CapSense_1.c **** *
1533:.\Generated_Source\PSoC4/CapSense_1.c **** * Summary:
1534:.\Generated_Source\PSoC4/CapSense_1.c **** *  Stores the results of measurement in the CapSense_1_sensorRaw[] array,
1535:.\Generated_Source\PSoC4/CapSense_1.c **** *  sets the scanning sensor in the non-sampling state, turns off Idac(Current Source IDAC),
1536:.\Generated_Source\PSoC4/CapSense_1.c **** *  disconnects the IDAC(Sink mode), and applies Vref on AMUX.
1537:.\Generated_Source\PSoC4/CapSense_1.c **** *
1538:.\Generated_Source\PSoC4/CapSense_1.c **** * Parameters:
1539:.\Generated_Source\PSoC4/CapSense_1.c **** *  sensor:  Sensor number.
1540:.\Generated_Source\PSoC4/CapSense_1.c **** *
1541:.\Generated_Source\PSoC4/CapSense_1.c **** * Return:
1542:.\Generated_Source\PSoC4/CapSense_1.c **** *  None
1543:.\Generated_Source\PSoC4/CapSense_1.c **** *
1544:.\Generated_Source\PSoC4/CapSense_1.c **** * Global Variables:
1545:.\Generated_Source\PSoC4/CapSense_1.c **** *  CapSense_1_sensorRaw[] - used to store sensors raw data.
1546:.\Generated_Source\PSoC4/CapSense_1.c **** *
1547:.\Generated_Source\PSoC4/CapSense_1.c **** * Side Effects: 
1548:.\Generated_Source\PSoC4/CapSense_1.c **** *  None
1549:.\Generated_Source\PSoC4/CapSense_1.c **** *
1550:.\Generated_Source\PSoC4/CapSense_1.c **** *******************************************************************************/
1551:.\Generated_Source\PSoC4/CapSense_1.c **** void CapSense_1_PostScan(uint32 sensor)
1552:.\Generated_Source\PSoC4/CapSense_1.c **** {	
 1668              		.loc 1 1552 0
 1669              		.cfi_startproc
 1670 0000 80B5     		push	{r7, lr}
 1671              		.cfi_def_cfa_offset 8
 1672              		.cfi_offset 7, -8
 1673              		.cfi_offset 14, -4
 1674 0002 84B0     		sub	sp, sp, #16
 1675              		.cfi_def_cfa_offset 24
 1676 0004 00AF     		add	r7, sp, #0
 1677              		.cfi_def_cfa_register 7
 1678 0006 7860     		str	r0, [r7, #4]
1553:.\Generated_Source\PSoC4/CapSense_1.c **** 	uint32 newRegValue;
1554:.\Generated_Source\PSoC4/CapSense_1.c **** #if ((CapSense_1_TUNING_METHOD == CapSense_1__TUNING_AUTO) &&\
1555:.\Generated_Source\PSoC4/CapSense_1.c **** 	 (0 != CapSense_1_IS_OVERSAMPLING_EN))
1556:.\Generated_Source\PSoC4/CapSense_1.c ****     uint32 oversamplingFactor;
1557:.\Generated_Source\PSoC4/CapSense_1.c ****     uint32 widget;
1558:.\Generated_Source\PSoC4/CapSense_1.c **** #endif /* ((CapSense_1_TUNING_METHOD == CapSense_1__TUNING_AUTO) &&\
ARM GAS  C:\Users\mitchell\AppData\Local\Temp\cc5pMFOa.s 			page 58


1559:.\Generated_Source\PSoC4/CapSense_1.c **** 		   (0 != CapSense_1_IS_OVERSAMPLING_EN)) */	
1560:.\Generated_Source\PSoC4/CapSense_1.c **** 
1561:.\Generated_Source\PSoC4/CapSense_1.c **** 	/* `#START CapSense_1_PostScan_Debug` */
1562:.\Generated_Source\PSoC4/CapSense_1.c **** 
1563:.\Generated_Source\PSoC4/CapSense_1.c **** 	/* `#END` */
1564:.\Generated_Source\PSoC4/CapSense_1.c **** 
1565:.\Generated_Source\PSoC4/CapSense_1.c **** 
1566:.\Generated_Source\PSoC4/CapSense_1.c ****     /* Read SlotResult from Raw Counter */
1567:.\Generated_Source\PSoC4/CapSense_1.c ****     CapSense_1_sensorRaw[sensor]  = (uint16)CapSense_1_CSD_CNT_REG;
 1679              		.loc 1 1567 0
 1680 0008 144B     		ldr	r3, .L85
 1681 000a 1B68     		ldr	r3, [r3]
 1682 000c 99B2     		uxth	r1, r3
 1683 000e 144B     		ldr	r3, .L85+4
 1684 0010 7A68     		ldr	r2, [r7, #4]
 1685 0012 5200     		lsl	r2, r2, #1
 1686 0014 D152     		strh	r1, [r2, r3]
1568:.\Generated_Source\PSoC4/CapSense_1.c **** 	
1569:.\Generated_Source\PSoC4/CapSense_1.c **** #if ((CapSense_1_TUNING_METHOD == CapSense_1__TUNING_AUTO) &&\
1570:.\Generated_Source\PSoC4/CapSense_1.c **** 	 (0 != CapSense_1_IS_OVERSAMPLING_EN))
1571:.\Generated_Source\PSoC4/CapSense_1.c **** 	widget = CapSense_1_widgetNumber[sensor];
1572:.\Generated_Source\PSoC4/CapSense_1.c **** 	if(CapSense_1_widgetResolution[widget] < CapSense_1_RESOLUTION_16_BITS)
1573:.\Generated_Source\PSoC4/CapSense_1.c **** 	{
1574:.\Generated_Source\PSoC4/CapSense_1.c **** 		oversamplingFactor = CapSense_1_GetBitValue(scanSpeedTbl, sensor);
1575:.\Generated_Source\PSoC4/CapSense_1.c **** 		CapSense_1_sensorRaw[sensor] >>= oversamplingFactor;
1576:.\Generated_Source\PSoC4/CapSense_1.c **** 	}
1577:.\Generated_Source\PSoC4/CapSense_1.c **** #endif /* ((CapSense_1_TUNING_METHOD == CapSense_1__TUNING_AUTO) &&\
1578:.\Generated_Source\PSoC4/CapSense_1.c **** 		   (0 != CapSense_1_IS_OVERSAMPLING_EN)) */
1579:.\Generated_Source\PSoC4/CapSense_1.c **** 
1580:.\Generated_Source\PSoC4/CapSense_1.c ****     /* Disable Sensor */
1581:.\Generated_Source\PSoC4/CapSense_1.c ****     CapSense_1_DisableScanSlot(sensor);
 1687              		.loc 1 1581 0
 1688 0016 7B68     		ldr	r3, [r7, #4]
 1689 0018 181C     		mov	r0, r3
 1690 001a FFF7FEFF 		bl	CapSense_1_DisableSensor
1582:.\Generated_Source\PSoC4/CapSense_1.c **** 
1583:.\Generated_Source\PSoC4/CapSense_1.c **** 	CyIntDisable(CapSense_1_ISR_NUMBER);
 1691              		.loc 1 1583 0
 1692 001e 0F20     		mov	r0, #15
 1693 0020 FFF7FEFF 		bl	CyIntDisable
1584:.\Generated_Source\PSoC4/CapSense_1.c **** 	
1585:.\Generated_Source\PSoC4/CapSense_1.c **** #if(CapSense_1_CMOD_PREGARGE_OPTION == CapSense_1__CAPPRIOBUF)
1586:.\Generated_Source\PSoC4/CapSense_1.c **** 	newRegValue = CapSense_1_CMOD_CONNECTION_REG;
1587:.\Generated_Source\PSoC4/CapSense_1.c **** 	newRegValue &= ~(CapSense_1_CSD_CMOD_CONNECTION_MASK);
1588:.\Generated_Source\PSoC4/CapSense_1.c **** 	newRegValue |= CapSense_1_CSD_CMOD_TO_AMUXBUS_B;
1589:.\Generated_Source\PSoC4/CapSense_1.c **** 	CapSense_1_CMOD_CONNECTION_REG = newRegValue;
1590:.\Generated_Source\PSoC4/CapSense_1.c **** 	
1591:.\Generated_Source\PSoC4/CapSense_1.c **** 	newRegValue = CapSense_1_CMOD_PORT_PC_REG;
1592:.\Generated_Source\PSoC4/CapSense_1.c **** 	newRegValue &= ~(CapSense_1_CSD_CMOD_PC_MASK);
1593:.\Generated_Source\PSoC4/CapSense_1.c **** 	newRegValue |= CapSense_1_CMOD_PC_STRONG_MODE;
1594:.\Generated_Source\PSoC4/CapSense_1.c **** 	CapSense_1_CMOD_PORT_PC_REG = newRegValue;
1595:.\Generated_Source\PSoC4/CapSense_1.c **** 		
1596:.\Generated_Source\PSoC4/CapSense_1.c **** 	newRegValue = CapSense_1_CMOD_PORT_DR_REG;
1597:.\Generated_Source\PSoC4/CapSense_1.c ****     newRegValue &= ~(CapSense_1_CMOD_DR_MASK);
1598:.\Generated_Source\PSoC4/CapSense_1.c **** 	newRegValue |= CapSense_1_CMOD_DR_CONFIG;
1599:.\Generated_Source\PSoC4/CapSense_1.c ****     CapSense_1_CMOD_PORT_DR_REG = newRegValue;    
1600:.\Generated_Source\PSoC4/CapSense_1.c **** #endif /* (CapSense_1_CMOD_PREGARGE_OPTION == CapSense_1__CAPPRIOBUF) */
ARM GAS  C:\Users\mitchell\AppData\Local\Temp\cc5pMFOa.s 			page 59


1601:.\Generated_Source\PSoC4/CapSense_1.c **** 	
1602:.\Generated_Source\PSoC4/CapSense_1.c **** 	/* Connect Vref Buffer to AMUX bus  */
1603:.\Generated_Source\PSoC4/CapSense_1.c **** 	newRegValue = CapSense_1_CSD_CFG_REG;
 1694              		.loc 1 1603 0
 1695 0024 0F4B     		ldr	r3, .L85+8
 1696 0026 1B68     		ldr	r3, [r3]
 1697 0028 FB60     		str	r3, [r7, #12]
1604:.\Generated_Source\PSoC4/CapSense_1.c **** 	newRegValue &= ~(CapSense_1_PRECHARGE_CONFIG_MASK);
 1698              		.loc 1 1604 0
 1699 002a FA68     		ldr	r2, [r7, #12]
 1700 002c 0E4B     		ldr	r3, .L85+12
 1701 002e 1340     		and	r3, r2
 1702 0030 FB60     		str	r3, [r7, #12]
1605:.\Generated_Source\PSoC4/CapSense_1.c **** 	newRegValue |= CapSense_1_CMOD_PRECHARGE_CONFIG;
 1703              		.loc 1 1605 0
 1704 0032 FB68     		ldr	r3, [r7, #12]
 1705 0034 A022     		mov	r2, #160
 1706 0036 1202     		lsl	r2, r2, #8
 1707 0038 1343     		orr	r3, r2
 1708 003a FB60     		str	r3, [r7, #12]
1606:.\Generated_Source\PSoC4/CapSense_1.c **** 	CapSense_1_CSD_CFG_REG = newRegValue;
 1709              		.loc 1 1606 0
 1710 003c 094B     		ldr	r3, .L85+8
 1711 003e FA68     		ldr	r2, [r7, #12]
 1712 0040 1A60     		str	r2, [r3]
1607:.\Generated_Source\PSoC4/CapSense_1.c **** 
1608:.\Generated_Source\PSoC4/CapSense_1.c **** 	/* Set Idac Value = 0 */
1609:.\Generated_Source\PSoC4/CapSense_1.c **** #if (CapSense_1_IDAC_CNT == 1u)   
1610:.\Generated_Source\PSoC4/CapSense_1.c **** 	CapSense_1_CSD_IDAC_REG &= ~(CapSense_1_CSD_IDAC1_DATA_MASK);
 1713              		.loc 1 1610 0
 1714 0042 0A4B     		ldr	r3, .L85+16
 1715 0044 094A     		ldr	r2, .L85+16
 1716 0046 1268     		ldr	r2, [r2]
 1717 0048 FF21     		mov	r1, #255
 1718 004a 8A43     		bic	r2, r1
 1719 004c 1A60     		str	r2, [r3]
1611:.\Generated_Source\PSoC4/CapSense_1.c **** #else
1612:.\Generated_Source\PSoC4/CapSense_1.c **** 	CapSense_1_CSD_IDAC_REG &= ~(CapSense_1_CSD_IDAC1_DATA_MASK | CapSense_1_CSD_IDAC2_DATA_MASK);    
1613:.\Generated_Source\PSoC4/CapSense_1.c **** #endif /* (CapSense_1_IDAC_CNT == 1u) */
1614:.\Generated_Source\PSoC4/CapSense_1.c **** 
1615:.\Generated_Source\PSoC4/CapSense_1.c **** 	CyIntEnable(CapSense_1_ISR_NUMBER);
 1720              		.loc 1 1615 0
 1721 004e 0F20     		mov	r0, #15
 1722 0050 FFF7FEFF 		bl	CyIntEnable
1616:.\Generated_Source\PSoC4/CapSense_1.c **** }
 1723              		.loc 1 1616 0
 1724 0054 BD46     		mov	sp, r7
 1725 0056 04B0     		add	sp, sp, #16
 1726              		@ sp needed
 1727 0058 80BD     		pop	{r7, pc}
 1728              	.L86:
 1729 005a C046     		.align	2
 1730              	.L85:
 1731 005c 0C000840 		.word	1074266124
 1732 0060 00000000 		.word	CapSense_1_sensorRaw
 1733 0064 04000840 		.word	1074266116
 1734 0068 FF1FDFFF 		.word	-2154497
ARM GAS  C:\Users\mitchell\AppData\Local\Temp\cc5pMFOa.s 			page 60


 1735 006c 08000840 		.word	1074266120
 1736              		.cfi_endproc
 1737              	.LFE53:
 1738              		.size	CapSense_1_PostScan, .-CapSense_1_PostScan
 1739              		.section	.text.CapSense_1_EnableShieldElectrode,"ax",%progbits
 1740              		.align	2
 1741              		.global	CapSense_1_EnableShieldElectrode
 1742              		.code	16
 1743              		.thumb_func
 1744              		.type	CapSense_1_EnableShieldElectrode, %function
 1745              	CapSense_1_EnableShieldElectrode:
 1746              	.LFB54:
1617:.\Generated_Source\PSoC4/CapSense_1.c **** 
1618:.\Generated_Source\PSoC4/CapSense_1.c **** 
1619:.\Generated_Source\PSoC4/CapSense_1.c **** /*******************************************************************************
1620:.\Generated_Source\PSoC4/CapSense_1.c **** * Function Name: CapSense_1_EnableShieldElectrode
1621:.\Generated_Source\PSoC4/CapSense_1.c **** ********************************************************************************
1622:.\Generated_Source\PSoC4/CapSense_1.c **** *
1623:.\Generated_Source\PSoC4/CapSense_1.c **** * Summary:
1624:.\Generated_Source\PSoC4/CapSense_1.c **** *  This API enables or disables the shield electrode on a specified port pin.
1625:.\Generated_Source\PSoC4/CapSense_1.c **** *
1626:.\Generated_Source\PSoC4/CapSense_1.c **** * Parameters:
1627:.\Generated_Source\PSoC4/CapSense_1.c **** *  portNumber: contains the shield electrode port number (0, 1, 2).
1628:.\Generated_Source\PSoC4/CapSense_1.c **** *  pinNumber: contains the shield electrode pin number (0, 1, 2, ... , 7).
1629:.\Generated_Source\PSoC4/CapSense_1.c **** *
1630:.\Generated_Source\PSoC4/CapSense_1.c **** * Return:
1631:.\Generated_Source\PSoC4/CapSense_1.c **** *  None
1632:.\Generated_Source\PSoC4/CapSense_1.c **** *
1633:.\Generated_Source\PSoC4/CapSense_1.c **** * Global Variables:
1634:.\Generated_Source\PSoC4/CapSense_1.c **** *  CapSense_1_prtCfgTbl[] - Contains pointers to the port config registers for each port.
1635:.\Generated_Source\PSoC4/CapSense_1.c **** *  CapSense_1_prtSelTbl[] - Contains pointers to the HSIOM registers for each port.
1636:.\Generated_Source\PSoC4/CapSense_1.c **** *
1637:.\Generated_Source\PSoC4/CapSense_1.c **** * Side Effects: 
1638:.\Generated_Source\PSoC4/CapSense_1.c **** *  None
1639:.\Generated_Source\PSoC4/CapSense_1.c **** *
1640:.\Generated_Source\PSoC4/CapSense_1.c **** *******************************************************************************/
1641:.\Generated_Source\PSoC4/CapSense_1.c **** void CapSense_1_EnableShieldElectrode(uint32 pinNumber, uint32 portNumber)
1642:.\Generated_Source\PSoC4/CapSense_1.c **** {
 1747              		.loc 1 1642 0
 1748              		.cfi_startproc
 1749 0000 90B5     		push	{r4, r7, lr}
 1750              		.cfi_def_cfa_offset 12
 1751              		.cfi_offset 4, -12
 1752              		.cfi_offset 7, -8
 1753              		.cfi_offset 14, -4
 1754 0002 85B0     		sub	sp, sp, #20
 1755              		.cfi_def_cfa_offset 32
 1756 0004 00AF     		add	r7, sp, #0
 1757              		.cfi_def_cfa_register 7
 1758 0006 7860     		str	r0, [r7, #4]
 1759 0008 3960     		str	r1, [r7]
1643:.\Generated_Source\PSoC4/CapSense_1.c **** 	uint32 newRegValue;
1644:.\Generated_Source\PSoC4/CapSense_1.c **** 	
1645:.\Generated_Source\PSoC4/CapSense_1.c **** 	*CapSense_1_prtCfgTbl[portNumber] &= ~(CapSense_1_CSD_PIN_MODE_MASK << (pinNumber * CapSense_1_PC_
 1760              		.loc 1 1645 0
 1761 000a 1B4B     		ldr	r3, .L88
 1762 000c 3A68     		ldr	r2, [r7]
ARM GAS  C:\Users\mitchell\AppData\Local\Temp\cc5pMFOa.s 			page 61


 1763 000e 9200     		lsl	r2, r2, #2
 1764 0010 D258     		ldr	r2, [r2, r3]
 1765 0012 194B     		ldr	r3, .L88
 1766 0014 3968     		ldr	r1, [r7]
 1767 0016 8900     		lsl	r1, r1, #2
 1768 0018 CB58     		ldr	r3, [r1, r3]
 1769 001a 1868     		ldr	r0, [r3]
 1770 001c 7968     		ldr	r1, [r7, #4]
 1771 001e 0B1C     		mov	r3, r1
 1772 0020 5B00     		lsl	r3, r3, #1
 1773 0022 5B18     		add	r3, r3, r1
 1774 0024 0721     		mov	r1, #7
 1775 0026 0C1C     		mov	r4, r1
 1776 0028 9C40     		lsl	r4, r4, r3
 1777 002a 231C     		mov	r3, r4
 1778 002c DB43     		mvn	r3, r3
 1779 002e 0340     		and	r3, r0
 1780 0030 1360     		str	r3, [r2]
1646:.\Generated_Source\PSoC4/CapSense_1.c **** 	newRegValue = *CapSense_1_prtSelTbl[portNumber];
 1781              		.loc 1 1646 0
 1782 0032 124B     		ldr	r3, .L88+4
 1783 0034 3A68     		ldr	r2, [r7]
 1784 0036 9200     		lsl	r2, r2, #2
 1785 0038 D358     		ldr	r3, [r2, r3]
 1786 003a 1B68     		ldr	r3, [r3]
 1787 003c FB60     		str	r3, [r7, #12]
1647:.\Generated_Source\PSoC4/CapSense_1.c ****     newRegValue &= ~(CapSense_1_CSD_HSIOM_MASK << (pinNumber * CapSense_1_HSIOM_PIN_CFG_SIZE));
 1788              		.loc 1 1647 0
 1789 003e 7B68     		ldr	r3, [r7, #4]
 1790 0040 9B00     		lsl	r3, r3, #2
 1791 0042 0F22     		mov	r2, #15
 1792 0044 111C     		mov	r1, r2
 1793 0046 9940     		lsl	r1, r1, r3
 1794 0048 0B1C     		mov	r3, r1
 1795 004a DA43     		mvn	r2, r3
 1796 004c FB68     		ldr	r3, [r7, #12]
 1797 004e 1340     		and	r3, r2
 1798 0050 FB60     		str	r3, [r7, #12]
1648:.\Generated_Source\PSoC4/CapSense_1.c ****     newRegValue |= (CapSense_1_CSD_SHIELD_PORT_MODE << (pinNumber * CapSense_1_HSIOM_PIN_CFG_SIZE))
 1799              		.loc 1 1648 0
 1800 0052 7B68     		ldr	r3, [r7, #4]
 1801 0054 9B00     		lsl	r3, r3, #2
 1802 0056 0522     		mov	r2, #5
 1803 0058 141C     		mov	r4, r2
 1804 005a 9C40     		lsl	r4, r4, r3
 1805 005c 231C     		mov	r3, r4
 1806 005e FA68     		ldr	r2, [r7, #12]
 1807 0060 1343     		orr	r3, r2
 1808 0062 FB60     		str	r3, [r7, #12]
1649:.\Generated_Source\PSoC4/CapSense_1.c ****     *CapSense_1_prtSelTbl[portNumber] = newRegValue;
 1809              		.loc 1 1649 0
 1810 0064 054B     		ldr	r3, .L88+4
 1811 0066 3A68     		ldr	r2, [r7]
 1812 0068 9200     		lsl	r2, r2, #2
 1813 006a D358     		ldr	r3, [r2, r3]
 1814 006c FA68     		ldr	r2, [r7, #12]
 1815 006e 1A60     		str	r2, [r3]
ARM GAS  C:\Users\mitchell\AppData\Local\Temp\cc5pMFOa.s 			page 62


1650:.\Generated_Source\PSoC4/CapSense_1.c **** }
 1816              		.loc 1 1650 0
 1817 0070 BD46     		mov	sp, r7
 1818 0072 05B0     		add	sp, sp, #20
 1819              		@ sp needed
 1820 0074 90BD     		pop	{r4, r7, pc}
 1821              	.L89:
 1822 0076 C046     		.align	2
 1823              	.L88:
 1824 0078 00000000 		.word	CapSense_1_prtCfgTbl
 1825 007c 00000000 		.word	CapSense_1_prtSelTbl
 1826              		.cfi_endproc
 1827              	.LFE54:
 1828              		.size	CapSense_1_EnableShieldElectrode, .-CapSense_1_EnableShieldElectrode
 1829              		.section	.text.CapSense_1_SetShieldDelay,"ax",%progbits
 1830              		.align	2
 1831              		.global	CapSense_1_SetShieldDelay
 1832              		.code	16
 1833              		.thumb_func
 1834              		.type	CapSense_1_SetShieldDelay, %function
 1835              	CapSense_1_SetShieldDelay:
 1836              	.LFB55:
1651:.\Generated_Source\PSoC4/CapSense_1.c **** 
1652:.\Generated_Source\PSoC4/CapSense_1.c **** 
1653:.\Generated_Source\PSoC4/CapSense_1.c **** /*******************************************************************************
1654:.\Generated_Source\PSoC4/CapSense_1.c **** * Function Name: CapSense_1_SetShieldDelay
1655:.\Generated_Source\PSoC4/CapSense_1.c **** ********************************************************************************
1656:.\Generated_Source\PSoC4/CapSense_1.c **** *
1657:.\Generated_Source\PSoC4/CapSense_1.c **** * Summary:
1658:.\Generated_Source\PSoC4/CapSense_1.c **** *  This API sets a shield delay.
1659:.\Generated_Source\PSoC4/CapSense_1.c **** *
1660:.\Generated_Source\PSoC4/CapSense_1.c **** * Parameters:
1661:.\Generated_Source\PSoC4/CapSense_1.c **** *  delay:  shield delay value:
1662:.\Generated_Source\PSoC4/CapSense_1.c **** *                               0 - no delay
1663:.\Generated_Source\PSoC4/CapSense_1.c **** *                               1 - 1 cycle delay
1664:.\Generated_Source\PSoC4/CapSense_1.c **** *                               2 - 2 cycles delay
1665:.\Generated_Source\PSoC4/CapSense_1.c **** *
1666:.\Generated_Source\PSoC4/CapSense_1.c **** * Return:
1667:.\Generated_Source\PSoC4/CapSense_1.c **** *  None
1668:.\Generated_Source\PSoC4/CapSense_1.c **** *
1669:.\Generated_Source\PSoC4/CapSense_1.c **** * Global Variables:
1670:.\Generated_Source\PSoC4/CapSense_1.c **** *  None
1671:.\Generated_Source\PSoC4/CapSense_1.c **** *
1672:.\Generated_Source\PSoC4/CapSense_1.c **** * Side Effects: 
1673:.\Generated_Source\PSoC4/CapSense_1.c **** *  None
1674:.\Generated_Source\PSoC4/CapSense_1.c **** *
1675:.\Generated_Source\PSoC4/CapSense_1.c **** *******************************************************************************/
1676:.\Generated_Source\PSoC4/CapSense_1.c **** void CapSense_1_SetShieldDelay(uint32 delay)
1677:.\Generated_Source\PSoC4/CapSense_1.c **** {
 1837              		.loc 1 1677 0
 1838              		.cfi_startproc
 1839 0000 80B5     		push	{r7, lr}
 1840              		.cfi_def_cfa_offset 8
 1841              		.cfi_offset 7, -8
 1842              		.cfi_offset 14, -4
 1843 0002 84B0     		sub	sp, sp, #16
 1844              		.cfi_def_cfa_offset 24
ARM GAS  C:\Users\mitchell\AppData\Local\Temp\cc5pMFOa.s 			page 63


 1845 0004 00AF     		add	r7, sp, #0
 1846              		.cfi_def_cfa_register 7
 1847 0006 7860     		str	r0, [r7, #4]
1678:.\Generated_Source\PSoC4/CapSense_1.c ****     uint32 newRegValue;
1679:.\Generated_Source\PSoC4/CapSense_1.c ****     
1680:.\Generated_Source\PSoC4/CapSense_1.c ****     delay &= 0x03u;
 1848              		.loc 1 1680 0
 1849 0008 7A68     		ldr	r2, [r7, #4]
 1850 000a 0323     		mov	r3, #3
 1851 000c 1340     		and	r3, r2
 1852 000e 7B60     		str	r3, [r7, #4]
1681:.\Generated_Source\PSoC4/CapSense_1.c ****     
1682:.\Generated_Source\PSoC4/CapSense_1.c ****     newRegValue = CapSense_1_CSD_CFG_REG;
 1853              		.loc 1 1682 0
 1854 0010 064B     		ldr	r3, .L91
 1855 0012 1B68     		ldr	r3, [r3]
 1856 0014 FB60     		str	r3, [r7, #12]
1683:.\Generated_Source\PSoC4/CapSense_1.c ****     newRegValue &= (uint32)(~(uint32)CapSense_1_SHIELD_DELAY);    
1684:.\Generated_Source\PSoC4/CapSense_1.c ****     newRegValue |= (delay << CapSense_1_CSD_CFG_SHIELD_DELAY_POS);    
 1857              		.loc 1 1684 0
 1858 0016 7B68     		ldr	r3, [r7, #4]
 1859 0018 5B02     		lsl	r3, r3, #9
 1860 001a FA68     		ldr	r2, [r7, #12]
 1861 001c 1343     		orr	r3, r2
 1862 001e FB60     		str	r3, [r7, #12]
1685:.\Generated_Source\PSoC4/CapSense_1.c ****     CapSense_1_CSD_CFG_REG = newRegValue;
 1863              		.loc 1 1685 0
 1864 0020 024B     		ldr	r3, .L91
 1865 0022 FA68     		ldr	r2, [r7, #12]
 1866 0024 1A60     		str	r2, [r3]
1686:.\Generated_Source\PSoC4/CapSense_1.c **** }
 1867              		.loc 1 1686 0
 1868 0026 BD46     		mov	sp, r7
 1869 0028 04B0     		add	sp, sp, #16
 1870              		@ sp needed
 1871 002a 80BD     		pop	{r7, pc}
 1872              	.L92:
 1873              		.align	2
 1874              	.L91:
 1875 002c 04000840 		.word	1074266116
 1876              		.cfi_endproc
 1877              	.LFE55:
 1878              		.size	CapSense_1_SetShieldDelay, .-CapSense_1_SetShieldDelay
 1879              		.section	.text.CapSense_1_ReadCurrentScanningSensor,"ax",%progbits
 1880              		.align	2
 1881              		.global	CapSense_1_ReadCurrentScanningSensor
 1882              		.code	16
 1883              		.thumb_func
 1884              		.type	CapSense_1_ReadCurrentScanningSensor, %function
 1885              	CapSense_1_ReadCurrentScanningSensor:
 1886              	.LFB56:
1687:.\Generated_Source\PSoC4/CapSense_1.c **** 
1688:.\Generated_Source\PSoC4/CapSense_1.c **** 
1689:.\Generated_Source\PSoC4/CapSense_1.c **** /*******************************************************************************
1690:.\Generated_Source\PSoC4/CapSense_1.c **** * Function Name: CapSense_1_ReadCurrentScanningSensor
1691:.\Generated_Source\PSoC4/CapSense_1.c **** ********************************************************************************
1692:.\Generated_Source\PSoC4/CapSense_1.c **** *
ARM GAS  C:\Users\mitchell\AppData\Local\Temp\cc5pMFOa.s 			page 64


1693:.\Generated_Source\PSoC4/CapSense_1.c **** * Summary:
1694:.\Generated_Source\PSoC4/CapSense_1.c **** *  This API returns scanning sensor number when sensor scan is in progress. 
1695:.\Generated_Source\PSoC4/CapSense_1.c **** *  When sensor scan is completed the API returns 
1696:.\Generated_Source\PSoC4/CapSense_1.c **** *  $INSTANCE_NAME`_NOT_SENSOR (0xFFFFFFFF) (when no sensor is scanned).
1697:.\Generated_Source\PSoC4/CapSense_1.c **** *
1698:.\Generated_Source\PSoC4/CapSense_1.c **** * Parameters:
1699:.\Generated_Source\PSoC4/CapSense_1.c **** *	None.
1700:.\Generated_Source\PSoC4/CapSense_1.c **** *
1701:.\Generated_Source\PSoC4/CapSense_1.c **** * Return:
1702:.\Generated_Source\PSoC4/CapSense_1.c **** *  Returns Sensor number if sensor is being scanned and 
1703:.\Generated_Source\PSoC4/CapSense_1.c **** *  $INSTANCE_NAME`_NOT_SENSOR (0xFFFFFFFF) if scanning is complete.
1704:.\Generated_Source\PSoC4/CapSense_1.c **** *
1705:.\Generated_Source\PSoC4/CapSense_1.c **** * Global Variables:
1706:.\Generated_Source\PSoC4/CapSense_1.c **** *  CapSense_1_sensorIndex - the sensor number is being scanned.
1707:.\Generated_Source\PSoC4/CapSense_1.c **** *
1708:.\Generated_Source\PSoC4/CapSense_1.c **** * Side Effects: 
1709:.\Generated_Source\PSoC4/CapSense_1.c **** *  None
1710:.\Generated_Source\PSoC4/CapSense_1.c **** *
1711:.\Generated_Source\PSoC4/CapSense_1.c **** *******************************************************************************/
1712:.\Generated_Source\PSoC4/CapSense_1.c **** uint32 CapSense_1_ReadCurrentScanningSensor(void)
1713:.\Generated_Source\PSoC4/CapSense_1.c **** {
 1887              		.loc 1 1713 0
 1888              		.cfi_startproc
 1889 0000 80B5     		push	{r7, lr}
 1890              		.cfi_def_cfa_offset 8
 1891              		.cfi_offset 7, -8
 1892              		.cfi_offset 14, -4
 1893 0002 00AF     		add	r7, sp, #0
 1894              		.cfi_def_cfa_register 7
1714:.\Generated_Source\PSoC4/CapSense_1.c ****     return ((uint32)(( 0u != (CapSense_1_csdStatusVar & CapSense_1_SW_STS_BUSY)) ? 
 1895              		.loc 1 1714 0
 1896 0004 074B     		ldr	r3, .L97
 1897 0006 1B78     		ldrb	r3, [r3]
 1898 0008 DBB2     		uxtb	r3, r3
 1899 000a 1A1C     		mov	r2, r3
 1900 000c 0123     		mov	r3, #1
 1901 000e 1340     		and	r3, r2
 1902 0010 03D0     		beq	.L94
 1903              		.loc 1 1714 0 is_stmt 0 discriminator 1
 1904 0012 054B     		ldr	r3, .L97+4
 1905 0014 1B78     		ldrb	r3, [r3]
 1906 0016 DBB2     		uxtb	r3, r3
 1907 0018 01E0     		b	.L95
 1908              	.L94:
 1909              		.loc 1 1714 0 discriminator 2
 1910 001a 0123     		mov	r3, #1
 1911 001c 5B42     		neg	r3, r3
 1912              	.L95:
1715:.\Generated_Source\PSoC4/CapSense_1.c ****                      CapSense_1_sensorIndex : CapSense_1_NOT_SENSOR));
1716:.\Generated_Source\PSoC4/CapSense_1.c **** }
 1913              		.loc 1 1716 0 is_stmt 1 discriminator 3
 1914 001e 181C     		mov	r0, r3
 1915 0020 BD46     		mov	sp, r7
 1916              		@ sp needed
 1917 0022 80BD     		pop	{r7, pc}
 1918              	.L98:
 1919              		.align	2
ARM GAS  C:\Users\mitchell\AppData\Local\Temp\cc5pMFOa.s 			page 65


 1920              	.L97:
 1921 0024 00000000 		.word	CapSense_1_csdStatusVar
 1922 0028 00000000 		.word	CapSense_1_sensorIndex
 1923              		.cfi_endproc
 1924              	.LFE56:
 1925              		.size	CapSense_1_ReadCurrentScanningSensor, .-CapSense_1_ReadCurrentScanningSensor
 1926              		.section	.text.CapSense_1_GetBitValue,"ax",%progbits
 1927              		.align	2
 1928              		.global	CapSense_1_GetBitValue
 1929              		.code	16
 1930              		.thumb_func
 1931              		.type	CapSense_1_GetBitValue, %function
 1932              	CapSense_1_GetBitValue:
 1933              	.LFB57:
1717:.\Generated_Source\PSoC4/CapSense_1.c **** 
1718:.\Generated_Source\PSoC4/CapSense_1.c **** 
1719:.\Generated_Source\PSoC4/CapSense_1.c **** /*******************************************************************************
1720:.\Generated_Source\PSoC4/CapSense_1.c **** * Function Name: CapSense_1_GetBitValue
1721:.\Generated_Source\PSoC4/CapSense_1.c **** ********************************************************************************
1722:.\Generated_Source\PSoC4/CapSense_1.c **** *
1723:.\Generated_Source\PSoC4/CapSense_1.c **** * Summary:
1724:.\Generated_Source\PSoC4/CapSense_1.c **** *  The API returns a bit status of the bit in the table array which contains the masks.
1725:.\Generated_Source\PSoC4/CapSense_1.c **** * 
1726:.\Generated_Source\PSoC4/CapSense_1.c **** * Parameters:
1727:.\Generated_Source\PSoC4/CapSense_1.c **** *  table[] - array with bit masks.
1728:.\Generated_Source\PSoC4/CapSense_1.c **** *  position - position of bit in the table[] array.
1729:.\Generated_Source\PSoC4/CapSense_1.c **** *
1730:.\Generated_Source\PSoC4/CapSense_1.c **** * Return:
1731:.\Generated_Source\PSoC4/CapSense_1.c **** *  0 - bit is not set; 1 - bit is set.
1732:.\Generated_Source\PSoC4/CapSense_1.c **** *
1733:.\Generated_Source\PSoC4/CapSense_1.c **** * Global Variables:
1734:.\Generated_Source\PSoC4/CapSense_1.c **** *  None
1735:.\Generated_Source\PSoC4/CapSense_1.c **** *
1736:.\Generated_Source\PSoC4/CapSense_1.c **** * Side Effects:
1737:.\Generated_Source\PSoC4/CapSense_1.c **** *  None
1738:.\Generated_Source\PSoC4/CapSense_1.c **** *
1739:.\Generated_Source\PSoC4/CapSense_1.c **** *******************************************************************************/
1740:.\Generated_Source\PSoC4/CapSense_1.c **** uint32 CapSense_1_GetBitValue(const uint8 table[], uint32 position)
1741:.\Generated_Source\PSoC4/CapSense_1.c **** {
 1934              		.loc 1 1741 0
 1935              		.cfi_startproc
 1936 0000 80B5     		push	{r7, lr}
 1937              		.cfi_def_cfa_offset 8
 1938              		.cfi_offset 7, -8
 1939              		.cfi_offset 14, -4
 1940 0002 84B0     		sub	sp, sp, #16
 1941              		.cfi_def_cfa_offset 24
 1942 0004 00AF     		add	r7, sp, #0
 1943              		.cfi_def_cfa_register 7
 1944 0006 7860     		str	r0, [r7, #4]
 1945 0008 3960     		str	r1, [r7]
1742:.\Generated_Source\PSoC4/CapSense_1.c ****     uint32 offset;
1743:.\Generated_Source\PSoC4/CapSense_1.c **** 	uint8 enMask;
1744:.\Generated_Source\PSoC4/CapSense_1.c **** 	
1745:.\Generated_Source\PSoC4/CapSense_1.c **** 	/* position is divided by 8 to calculate the element of the 
1746:.\Generated_Source\PSoC4/CapSense_1.c **** 	   table[] array that contains the enable bit 
1747:.\Generated_Source\PSoC4/CapSense_1.c **** 	   for an appropriate sensor.
ARM GAS  C:\Users\mitchell\AppData\Local\Temp\cc5pMFOa.s 			page 66


1748:.\Generated_Source\PSoC4/CapSense_1.c **** 	*/
1749:.\Generated_Source\PSoC4/CapSense_1.c **** 	offset = (position >> 3u);
 1946              		.loc 1 1749 0
 1947 000a 3B68     		ldr	r3, [r7]
 1948 000c DB08     		lsr	r3, r3, #3
 1949 000e FB60     		str	r3, [r7, #12]
1750:.\Generated_Source\PSoC4/CapSense_1.c **** 	
1751:.\Generated_Source\PSoC4/CapSense_1.c **** 	/* The enMask calculation for the appropriate sensor. Operation (position & 0x07u) 
1752:.\Generated_Source\PSoC4/CapSense_1.c **** 	   intends to calculate the enable bit offset for the 8-bit element of the 
1753:.\Generated_Source\PSoC4/CapSense_1.c **** 	   table[] array.
1754:.\Generated_Source\PSoC4/CapSense_1.c **** 	*/
1755:.\Generated_Source\PSoC4/CapSense_1.c **** 	enMask = 0x01u << (position & 0x07u);
 1950              		.loc 1 1755 0
 1951 0010 3A68     		ldr	r2, [r7]
 1952 0012 0723     		mov	r3, #7
 1953 0014 1340     		and	r3, r2
 1954 0016 0122     		mov	r2, #1
 1955 0018 9A40     		lsl	r2, r2, r3
 1956 001a 3B1C     		mov	r3, r7
 1957 001c 0B33     		add	r3, r3, #11
 1958 001e 1A70     		strb	r2, [r3]
1756:.\Generated_Source\PSoC4/CapSense_1.c ****     
1757:.\Generated_Source\PSoC4/CapSense_1.c ****     return ((0u !=(table[offset] & enMask)) ? 1Lu : 0Lu);
 1959              		.loc 1 1757 0
 1960 0020 7A68     		ldr	r2, [r7, #4]
 1961 0022 FB68     		ldr	r3, [r7, #12]
 1962 0024 D318     		add	r3, r2, r3
 1963 0026 1B78     		ldrb	r3, [r3]
 1964 0028 3A1C     		mov	r2, r7
 1965 002a 0B32     		add	r2, r2, #11
 1966 002c 1278     		ldrb	r2, [r2]
 1967 002e 1340     		and	r3, r2
 1968 0030 DBB2     		uxtb	r3, r3
 1969 0032 002B     		cmp	r3, #0
 1970 0034 01D0     		beq	.L100
 1971              		.loc 1 1757 0 is_stmt 0 discriminator 1
 1972 0036 0123     		mov	r3, #1
 1973 0038 00E0     		b	.L101
 1974              	.L100:
 1975              		.loc 1 1757 0 discriminator 2
 1976 003a 0023     		mov	r3, #0
 1977              	.L101:
1758:.\Generated_Source\PSoC4/CapSense_1.c **** }
 1978              		.loc 1 1758 0 is_stmt 1 discriminator 3
 1979 003c 181C     		mov	r0, r3
 1980 003e BD46     		mov	sp, r7
 1981 0040 04B0     		add	sp, sp, #16
 1982              		@ sp needed
 1983 0042 80BD     		pop	{r7, pc}
 1984              		.cfi_endproc
 1985              	.LFE57:
 1986              		.size	CapSense_1_GetBitValue, .-CapSense_1_GetBitValue
 1987              		.section	.text.CapSense_1_SetBitValue,"ax",%progbits
 1988              		.align	2
 1989              		.global	CapSense_1_SetBitValue
 1990              		.code	16
 1991              		.thumb_func
ARM GAS  C:\Users\mitchell\AppData\Local\Temp\cc5pMFOa.s 			page 67


 1992              		.type	CapSense_1_SetBitValue, %function
 1993              	CapSense_1_SetBitValue:
 1994              	.LFB58:
1759:.\Generated_Source\PSoC4/CapSense_1.c **** 
1760:.\Generated_Source\PSoC4/CapSense_1.c **** 
1761:.\Generated_Source\PSoC4/CapSense_1.c **** /*******************************************************************************
1762:.\Generated_Source\PSoC4/CapSense_1.c **** * Function Name: CapSense_1_SetBitValue
1763:.\Generated_Source\PSoC4/CapSense_1.c **** ********************************************************************************
1764:.\Generated_Source\PSoC4/CapSense_1.c **** *
1765:.\Generated_Source\PSoC4/CapSense_1.c **** * Summary:
1766:.\Generated_Source\PSoC4/CapSense_1.c **** *  The API sets a bit status of the bit in the table array which contains masks.
1767:.\Generated_Source\PSoC4/CapSense_1.c **** * 
1768:.\Generated_Source\PSoC4/CapSense_1.c **** * Parameters:
1769:.\Generated_Source\PSoC4/CapSense_1.c **** *  table[] - array with bit masks.
1770:.\Generated_Source\PSoC4/CapSense_1.c **** *  position - position of bit in the table[] array.
1771:.\Generated_Source\PSoC4/CapSense_1.c **** *  value: 0 - bit is not set; 1 - bit is set.
1772:.\Generated_Source\PSoC4/CapSense_1.c **** *
1773:.\Generated_Source\PSoC4/CapSense_1.c **** * Return:
1774:.\Generated_Source\PSoC4/CapSense_1.c **** *  None
1775:.\Generated_Source\PSoC4/CapSense_1.c **** *
1776:.\Generated_Source\PSoC4/CapSense_1.c **** * Global Variables:
1777:.\Generated_Source\PSoC4/CapSense_1.c **** *  None
1778:.\Generated_Source\PSoC4/CapSense_1.c **** *
1779:.\Generated_Source\PSoC4/CapSense_1.c **** * Side Effects:
1780:.\Generated_Source\PSoC4/CapSense_1.c **** *  None
1781:.\Generated_Source\PSoC4/CapSense_1.c **** *
1782:.\Generated_Source\PSoC4/CapSense_1.c **** *******************************************************************************/
1783:.\Generated_Source\PSoC4/CapSense_1.c **** void CapSense_1_SetBitValue(uint8 table[], uint32 position, uint32 value)
1784:.\Generated_Source\PSoC4/CapSense_1.c **** {
 1995              		.loc 1 1784 0
 1996              		.cfi_startproc
 1997 0000 80B5     		push	{r7, lr}
 1998              		.cfi_def_cfa_offset 8
 1999              		.cfi_offset 7, -8
 2000              		.cfi_offset 14, -4
 2001 0002 86B0     		sub	sp, sp, #24
 2002              		.cfi_def_cfa_offset 32
 2003 0004 00AF     		add	r7, sp, #0
 2004              		.cfi_def_cfa_register 7
 2005 0006 F860     		str	r0, [r7, #12]
 2006 0008 B960     		str	r1, [r7, #8]
 2007 000a 7A60     		str	r2, [r7, #4]
1785:.\Generated_Source\PSoC4/CapSense_1.c ****     uint32 offset;
1786:.\Generated_Source\PSoC4/CapSense_1.c **** 	uint8 enMask;
1787:.\Generated_Source\PSoC4/CapSense_1.c **** 	
1788:.\Generated_Source\PSoC4/CapSense_1.c **** 	/* position is divided by 8 to calculate the element of the 
1789:.\Generated_Source\PSoC4/CapSense_1.c **** 	   table[] array that contains the enable bit 
1790:.\Generated_Source\PSoC4/CapSense_1.c **** 	   for an appropriate sensor.
1791:.\Generated_Source\PSoC4/CapSense_1.c **** 	*/
1792:.\Generated_Source\PSoC4/CapSense_1.c **** 	offset = (position >> 3u);
 2008              		.loc 1 1792 0
 2009 000c BB68     		ldr	r3, [r7, #8]
 2010 000e DB08     		lsr	r3, r3, #3
 2011 0010 7B61     		str	r3, [r7, #20]
1793:.\Generated_Source\PSoC4/CapSense_1.c **** 	
1794:.\Generated_Source\PSoC4/CapSense_1.c **** 	/* The enMask calculation for the appropriate sensor. Operation (position & 0x07u) 
1795:.\Generated_Source\PSoC4/CapSense_1.c **** 	   intends to calculate the enable bit offset for the 8-bit element of the 
ARM GAS  C:\Users\mitchell\AppData\Local\Temp\cc5pMFOa.s 			page 68


1796:.\Generated_Source\PSoC4/CapSense_1.c **** 	   table[] array.
1797:.\Generated_Source\PSoC4/CapSense_1.c **** 	*/
1798:.\Generated_Source\PSoC4/CapSense_1.c **** 	enMask = 0x01u << (position & 0x07u);
 2012              		.loc 1 1798 0
 2013 0012 BA68     		ldr	r2, [r7, #8]
 2014 0014 0723     		mov	r3, #7
 2015 0016 1340     		and	r3, r2
 2016 0018 0122     		mov	r2, #1
 2017 001a 9A40     		lsl	r2, r2, r3
 2018 001c 3B1C     		mov	r3, r7
 2019 001e 1333     		add	r3, r3, #19
 2020 0020 1A70     		strb	r2, [r3]
1799:.\Generated_Source\PSoC4/CapSense_1.c **** 	
1800:.\Generated_Source\PSoC4/CapSense_1.c **** 	if(0u != value)
 2021              		.loc 1 1800 0
 2022 0022 7B68     		ldr	r3, [r7, #4]
 2023 0024 002B     		cmp	r3, #0
 2024 0026 0DD0     		beq	.L104
1801:.\Generated_Source\PSoC4/CapSense_1.c **** 	{
1802:.\Generated_Source\PSoC4/CapSense_1.c **** 		table[offset] |= enMask;
 2025              		.loc 1 1802 0
 2026 0028 FA68     		ldr	r2, [r7, #12]
 2027 002a 7B69     		ldr	r3, [r7, #20]
 2028 002c D318     		add	r3, r2, r3
 2029 002e F968     		ldr	r1, [r7, #12]
 2030 0030 7A69     		ldr	r2, [r7, #20]
 2031 0032 8A18     		add	r2, r1, r2
 2032 0034 1178     		ldrb	r1, [r2]
 2033 0036 3A1C     		mov	r2, r7
 2034 0038 1332     		add	r2, r2, #19
 2035 003a 1278     		ldrb	r2, [r2]
 2036 003c 0A43     		orr	r2, r1
 2037 003e D2B2     		uxtb	r2, r2
 2038 0040 1A70     		strb	r2, [r3]
 2039 0042 0EE0     		b	.L103
 2040              	.L104:
1803:.\Generated_Source\PSoC4/CapSense_1.c **** 	}
1804:.\Generated_Source\PSoC4/CapSense_1.c **** 	else
1805:.\Generated_Source\PSoC4/CapSense_1.c **** 	{
1806:.\Generated_Source\PSoC4/CapSense_1.c **** 		table[offset] &= (uint8)~(enMask);
 2041              		.loc 1 1806 0
 2042 0044 FA68     		ldr	r2, [r7, #12]
 2043 0046 7B69     		ldr	r3, [r7, #20]
 2044 0048 D318     		add	r3, r2, r3
 2045 004a F968     		ldr	r1, [r7, #12]
 2046 004c 7A69     		ldr	r2, [r7, #20]
 2047 004e 8A18     		add	r2, r1, r2
 2048 0050 1278     		ldrb	r2, [r2]
 2049 0052 391C     		mov	r1, r7
 2050 0054 1331     		add	r1, r1, #19
 2051 0056 0978     		ldrb	r1, [r1]
 2052 0058 C943     		mvn	r1, r1
 2053 005a C9B2     		uxtb	r1, r1
 2054 005c 0A40     		and	r2, r1
 2055 005e D2B2     		uxtb	r2, r2
 2056 0060 1A70     		strb	r2, [r3]
 2057              	.L103:
ARM GAS  C:\Users\mitchell\AppData\Local\Temp\cc5pMFOa.s 			page 69


1807:.\Generated_Source\PSoC4/CapSense_1.c **** 	}
1808:.\Generated_Source\PSoC4/CapSense_1.c **** }
 2058              		.loc 1 1808 0
 2059 0062 BD46     		mov	sp, r7
 2060 0064 06B0     		add	sp, sp, #24
 2061              		@ sp needed
 2062 0066 80BD     		pop	{r7, pc}
 2063              		.cfi_endproc
 2064              	.LFE58:
 2065              		.size	CapSense_1_SetBitValue, .-CapSense_1_SetBitValue
 2066              		.section	.text.CapSense_1_GetSenseClkDivider,"ax",%progbits
 2067              		.align	2
 2068              		.global	CapSense_1_GetSenseClkDivider
 2069              		.code	16
 2070              		.thumb_func
 2071              		.type	CapSense_1_GetSenseClkDivider, %function
 2072              	CapSense_1_GetSenseClkDivider:
 2073              	.LFB59:
1809:.\Generated_Source\PSoC4/CapSense_1.c **** 
1810:.\Generated_Source\PSoC4/CapSense_1.c **** 
1811:.\Generated_Source\PSoC4/CapSense_1.c **** 
1812:.\Generated_Source\PSoC4/CapSense_1.c **** /*******************************************************************************
1813:.\Generated_Source\PSoC4/CapSense_1.c **** * Function Name: CapSense_1_GetSenseClkDivider
1814:.\Generated_Source\PSoC4/CapSense_1.c **** ********************************************************************************
1815:.\Generated_Source\PSoC4/CapSense_1.c **** *
1816:.\Generated_Source\PSoC4/CapSense_1.c **** * Summary:
1817:.\Generated_Source\PSoC4/CapSense_1.c **** *  This API returns a value of the sense clock divider for the  sensor.
1818:.\Generated_Source\PSoC4/CapSense_1.c **** *
1819:.\Generated_Source\PSoC4/CapSense_1.c **** * Parameters:
1820:.\Generated_Source\PSoC4/CapSense_1.c **** *  sensor: sensor index. The index value can be 
1821:.\Generated_Source\PSoC4/CapSense_1.c **** *  from 0 to (CapSense_1_TOTAL_SENSOR_COUNT-1).
1822:.\Generated_Source\PSoC4/CapSense_1.c **** *
1823:.\Generated_Source\PSoC4/CapSense_1.c **** * Return:
1824:.\Generated_Source\PSoC4/CapSense_1.c **** *  This API returns the sense clock divider of the sensor. 
1825:.\Generated_Source\PSoC4/CapSense_1.c **** *
1826:.\Generated_Source\PSoC4/CapSense_1.c **** * Global Variables:
1827:.\Generated_Source\PSoC4/CapSense_1.c **** *  CapSense_1_senseClkDividerVal[] - stores the sense clock divider values.
1828:.\Generated_Source\PSoC4/CapSense_1.c **** * 
1829:.\Generated_Source\PSoC4/CapSense_1.c **** * Side Effects:
1830:.\Generated_Source\PSoC4/CapSense_1.c **** *  None
1831:.\Generated_Source\PSoC4/CapSense_1.c **** *
1832:.\Generated_Source\PSoC4/CapSense_1.c **** *******************************************************************************/
1833:.\Generated_Source\PSoC4/CapSense_1.c **** uint32 CapSense_1_GetSenseClkDivider(uint32 sensor)
1834:.\Generated_Source\PSoC4/CapSense_1.c **** {
 2074              		.loc 1 1834 0
 2075              		.cfi_startproc
 2076 0000 80B5     		push	{r7, lr}
 2077              		.cfi_def_cfa_offset 8
 2078              		.cfi_offset 7, -8
 2079              		.cfi_offset 14, -4
 2080 0002 82B0     		sub	sp, sp, #8
 2081              		.cfi_def_cfa_offset 16
 2082 0004 00AF     		add	r7, sp, #0
 2083              		.cfi_def_cfa_register 7
 2084 0006 7860     		str	r0, [r7, #4]
1835:.\Generated_Source\PSoC4/CapSense_1.c **** 	#if(0u != CapSense_1_MULTIPLE_FREQUENCY_SET)
1836:.\Generated_Source\PSoC4/CapSense_1.c **** 		return((uint32)CapSense_1_senseClkDividerVal[sensor]);
ARM GAS  C:\Users\mitchell\AppData\Local\Temp\cc5pMFOa.s 			page 70


1837:.\Generated_Source\PSoC4/CapSense_1.c **** 	#else
1838:.\Generated_Source\PSoC4/CapSense_1.c **** 		return((uint32)CapSense_1_senseClkDividerVal);
 2085              		.loc 1 1838 0
 2086 0008 0123     		mov	r3, #1
1839:.\Generated_Source\PSoC4/CapSense_1.c **** 	#endif /* (0u != CapSense_1_MULTIPLE_FREQUENCY_SET) */
1840:.\Generated_Source\PSoC4/CapSense_1.c **** }
 2087              		.loc 1 1840 0
 2088 000a 181C     		mov	r0, r3
 2089 000c BD46     		mov	sp, r7
 2090 000e 02B0     		add	sp, sp, #8
 2091              		@ sp needed
 2092 0010 80BD     		pop	{r7, pc}
 2093              		.cfi_endproc
 2094              	.LFE59:
 2095              		.size	CapSense_1_GetSenseClkDivider, .-CapSense_1_GetSenseClkDivider
 2096 0012 C046     		.section	.text.CapSense_1_GetModulatorClkDivider,"ax",%progbits
 2097              		.align	2
 2098              		.global	CapSense_1_GetModulatorClkDivider
 2099              		.code	16
 2100              		.thumb_func
 2101              		.type	CapSense_1_GetModulatorClkDivider, %function
 2102              	CapSense_1_GetModulatorClkDivider:
 2103              	.LFB60:
1841:.\Generated_Source\PSoC4/CapSense_1.c **** 
1842:.\Generated_Source\PSoC4/CapSense_1.c **** #if (CapSense_1_TUNING_METHOD != CapSense_1__TUNING_NONE)
1843:.\Generated_Source\PSoC4/CapSense_1.c **** 	/*******************************************************************************
1844:.\Generated_Source\PSoC4/CapSense_1.c **** 	* Function Name: CapSense_1_SetSenseClkDivider
1845:.\Generated_Source\PSoC4/CapSense_1.c **** 	********************************************************************************
1846:.\Generated_Source\PSoC4/CapSense_1.c **** 	*
1847:.\Generated_Source\PSoC4/CapSense_1.c **** 	* Summary:
1848:.\Generated_Source\PSoC4/CapSense_1.c **** 	*  This API sets a value of the sense clock divider for the  sensor. 
1849:.\Generated_Source\PSoC4/CapSense_1.c **** 	*
1850:.\Generated_Source\PSoC4/CapSense_1.c **** 	* Parameters:
1851:.\Generated_Source\PSoC4/CapSense_1.c **** 	*  sensor:  Sensor index.
1852:.\Generated_Source\PSoC4/CapSense_1.c **** 	*  senseClk: represents the sense clock value.
1853:.\Generated_Source\PSoC4/CapSense_1.c **** 	*
1854:.\Generated_Source\PSoC4/CapSense_1.c **** 	* Return:
1855:.\Generated_Source\PSoC4/CapSense_1.c **** 	*  None.
1856:.\Generated_Source\PSoC4/CapSense_1.c **** 	*
1857:.\Generated_Source\PSoC4/CapSense_1.c **** 	* Global Variables:
1858:.\Generated_Source\PSoC4/CapSense_1.c **** 	*  CapSense_1_senseClkDividerVal[] - stores the sense clock divider values.
1859:.\Generated_Source\PSoC4/CapSense_1.c **** 	* 
1860:.\Generated_Source\PSoC4/CapSense_1.c **** 	* Side Effects:
1861:.\Generated_Source\PSoC4/CapSense_1.c **** 	*  None
1862:.\Generated_Source\PSoC4/CapSense_1.c **** 	*
1863:.\Generated_Source\PSoC4/CapSense_1.c **** 	*******************************************************************************/
1864:.\Generated_Source\PSoC4/CapSense_1.c **** 	void CapSense_1_SetSenseClkDivider(uint32 sensor, uint32 senseClk)
1865:.\Generated_Source\PSoC4/CapSense_1.c **** 	{
1866:.\Generated_Source\PSoC4/CapSense_1.c **** 		#if(0u != CapSense_1_MULTIPLE_FREQUENCY_SET)
1867:.\Generated_Source\PSoC4/CapSense_1.c **** 			CapSense_1_senseClkDividerVal[sensor] = (uint8)senseClk;
1868:.\Generated_Source\PSoC4/CapSense_1.c **** 		#else
1869:.\Generated_Source\PSoC4/CapSense_1.c **** 			CapSense_1_senseClkDividerVal = (uint8)senseClk;
1870:.\Generated_Source\PSoC4/CapSense_1.c **** 		#endif /* (0u != CapSense_1_MULTIPLE_FREQUENCY_SET) */
1871:.\Generated_Source\PSoC4/CapSense_1.c **** 	}
1872:.\Generated_Source\PSoC4/CapSense_1.c **** #endif /* (CapSense_1_TUNING_METHOD != CapSense_1__TUNING_NONE) */
1873:.\Generated_Source\PSoC4/CapSense_1.c **** 
1874:.\Generated_Source\PSoC4/CapSense_1.c **** 
ARM GAS  C:\Users\mitchell\AppData\Local\Temp\cc5pMFOa.s 			page 71


1875:.\Generated_Source\PSoC4/CapSense_1.c **** /*******************************************************************************
1876:.\Generated_Source\PSoC4/CapSense_1.c **** * Function Name: CapSense_1_GetModulatorClkDivider
1877:.\Generated_Source\PSoC4/CapSense_1.c **** ********************************************************************************
1878:.\Generated_Source\PSoC4/CapSense_1.c **** *
1879:.\Generated_Source\PSoC4/CapSense_1.c **** * Summary:
1880:.\Generated_Source\PSoC4/CapSense_1.c **** *  This API returns a value of the modulator sample clock divider for the  sensor.
1881:.\Generated_Source\PSoC4/CapSense_1.c **** *
1882:.\Generated_Source\PSoC4/CapSense_1.c **** * Parameters:
1883:.\Generated_Source\PSoC4/CapSense_1.c **** *  sensor: sensor index. The value of index can be 
1884:.\Generated_Source\PSoC4/CapSense_1.c **** *  from 0 to (CapSense_1_TOTAL_SENSOR_COUNT-1).
1885:.\Generated_Source\PSoC4/CapSense_1.c **** *
1886:.\Generated_Source\PSoC4/CapSense_1.c **** * Return:
1887:.\Generated_Source\PSoC4/CapSense_1.c **** *  This API returns the modulator sample clock divider for the  sensor.
1888:.\Generated_Source\PSoC4/CapSense_1.c **** *
1889:.\Generated_Source\PSoC4/CapSense_1.c **** * Global Variables:
1890:.\Generated_Source\PSoC4/CapSense_1.c **** *  CapSense_1_sampleClkDividerVal[] - stores the modulator sample divider values.
1891:.\Generated_Source\PSoC4/CapSense_1.c **** * 
1892:.\Generated_Source\PSoC4/CapSense_1.c **** * Side Effects:
1893:.\Generated_Source\PSoC4/CapSense_1.c **** *  None
1894:.\Generated_Source\PSoC4/CapSense_1.c **** *
1895:.\Generated_Source\PSoC4/CapSense_1.c **** *******************************************************************************/
1896:.\Generated_Source\PSoC4/CapSense_1.c **** uint32 CapSense_1_GetModulatorClkDivider(uint32 sensor)
1897:.\Generated_Source\PSoC4/CapSense_1.c **** {
 2104              		.loc 1 1897 0
 2105              		.cfi_startproc
 2106 0000 80B5     		push	{r7, lr}
 2107              		.cfi_def_cfa_offset 8
 2108              		.cfi_offset 7, -8
 2109              		.cfi_offset 14, -4
 2110 0002 82B0     		sub	sp, sp, #8
 2111              		.cfi_def_cfa_offset 16
 2112 0004 00AF     		add	r7, sp, #0
 2113              		.cfi_def_cfa_register 7
 2114 0006 7860     		str	r0, [r7, #4]
1898:.\Generated_Source\PSoC4/CapSense_1.c **** 	#if(0u != CapSense_1_MULTIPLE_FREQUENCY_SET)
1899:.\Generated_Source\PSoC4/CapSense_1.c **** 		return((uint32)CapSense_1_sampleClkDividerVal[sensor]);
1900:.\Generated_Source\PSoC4/CapSense_1.c **** 	#else
1901:.\Generated_Source\PSoC4/CapSense_1.c **** 		return((uint32)CapSense_1_sampleClkDividerVal);
 2115              		.loc 1 1901 0
 2116 0008 0C23     		mov	r3, #12
1902:.\Generated_Source\PSoC4/CapSense_1.c **** 	#endif /* (0u != CapSense_1_MULTIPLE_FREQUENCY_SET) */
1903:.\Generated_Source\PSoC4/CapSense_1.c **** }
 2117              		.loc 1 1903 0
 2118 000a 181C     		mov	r0, r3
 2119 000c BD46     		mov	sp, r7
 2120 000e 02B0     		add	sp, sp, #8
 2121              		@ sp needed
 2122 0010 80BD     		pop	{r7, pc}
 2123              		.cfi_endproc
 2124              	.LFE60:
 2125              		.size	CapSense_1_GetModulatorClkDivider, .-CapSense_1_GetModulatorClkDivider
 2126 0012 C046     		.section	.text.CapSense_1_GetModulationIDAC,"ax",%progbits
 2127              		.align	2
 2128              		.global	CapSense_1_GetModulationIDAC
 2129              		.code	16
 2130              		.thumb_func
 2131              		.type	CapSense_1_GetModulationIDAC, %function
ARM GAS  C:\Users\mitchell\AppData\Local\Temp\cc5pMFOa.s 			page 72


 2132              	CapSense_1_GetModulationIDAC:
 2133              	.LFB61:
1904:.\Generated_Source\PSoC4/CapSense_1.c **** 
1905:.\Generated_Source\PSoC4/CapSense_1.c **** #if (CapSense_1_TUNING_METHOD != CapSense_1__TUNING_NONE)
1906:.\Generated_Source\PSoC4/CapSense_1.c **** 	/*******************************************************************************
1907:.\Generated_Source\PSoC4/CapSense_1.c **** 	* Function Name: CapSense_1_SetModulatorClkDivider
1908:.\Generated_Source\PSoC4/CapSense_1.c **** 	********************************************************************************
1909:.\Generated_Source\PSoC4/CapSense_1.c **** 	*
1910:.\Generated_Source\PSoC4/CapSense_1.c **** 	* Summary:
1911:.\Generated_Source\PSoC4/CapSense_1.c **** 	*  This API sets a value of the modulator sample clock divider for the  sensor.
1912:.\Generated_Source\PSoC4/CapSense_1.c **** 	*
1913:.\Generated_Source\PSoC4/CapSense_1.c **** 	* Parameters:
1914:.\Generated_Source\PSoC4/CapSense_1.c **** 	*  sensor:  Sensor index.
1915:.\Generated_Source\PSoC4/CapSense_1.c **** 	*  modulatorClk: represents the modulator sample clock value.
1916:.\Generated_Source\PSoC4/CapSense_1.c **** 	*
1917:.\Generated_Source\PSoC4/CapSense_1.c **** 	* Return:
1918:.\Generated_Source\PSoC4/CapSense_1.c **** 	*  None.
1919:.\Generated_Source\PSoC4/CapSense_1.c **** 	*
1920:.\Generated_Source\PSoC4/CapSense_1.c **** 	* Global Variables:
1921:.\Generated_Source\PSoC4/CapSense_1.c **** 	*  CapSense_1_sampleClkDividerVal[] - stores the modulator sample divider values.
1922:.\Generated_Source\PSoC4/CapSense_1.c **** 	* 
1923:.\Generated_Source\PSoC4/CapSense_1.c **** 	* Side Effects:
1924:.\Generated_Source\PSoC4/CapSense_1.c **** 	*  None
1925:.\Generated_Source\PSoC4/CapSense_1.c **** 	*
1926:.\Generated_Source\PSoC4/CapSense_1.c **** 	*******************************************************************************/
1927:.\Generated_Source\PSoC4/CapSense_1.c **** 	void CapSense_1_SetModulatorClkDivider(uint32 sensor, uint32 modulatorClk)
1928:.\Generated_Source\PSoC4/CapSense_1.c **** 	{
1929:.\Generated_Source\PSoC4/CapSense_1.c **** 		#if(0u != CapSense_1_MULTIPLE_FREQUENCY_SET)
1930:.\Generated_Source\PSoC4/CapSense_1.c **** 			CapSense_1_sampleClkDividerVal[sensor] = (uint8)modulatorClk;
1931:.\Generated_Source\PSoC4/CapSense_1.c **** 		#else
1932:.\Generated_Source\PSoC4/CapSense_1.c **** 			CapSense_1_sampleClkDividerVal = (uint8)modulatorClk;
1933:.\Generated_Source\PSoC4/CapSense_1.c **** 		#endif /* (0u != CapSense_1_MULTIPLE_FREQUENCY_SET) */
1934:.\Generated_Source\PSoC4/CapSense_1.c **** 	}
1935:.\Generated_Source\PSoC4/CapSense_1.c **** #endif /* (CapSense_1_TUNING_METHOD != CapSense_1__TUNING_NONE) */
1936:.\Generated_Source\PSoC4/CapSense_1.c **** 
1937:.\Generated_Source\PSoC4/CapSense_1.c **** /*******************************************************************************
1938:.\Generated_Source\PSoC4/CapSense_1.c **** * Function Name: CapSense_1_GetModulationIDAC
1939:.\Generated_Source\PSoC4/CapSense_1.c **** ********************************************************************************
1940:.\Generated_Source\PSoC4/CapSense_1.c **** *
1941:.\Generated_Source\PSoC4/CapSense_1.c **** * Summary:
1942:.\Generated_Source\PSoC4/CapSense_1.c **** *  This API returns a value of the modulation IDAC for the  sensor.
1943:.\Generated_Source\PSoC4/CapSense_1.c **** *
1944:.\Generated_Source\PSoC4/CapSense_1.c **** * Parameters:
1945:.\Generated_Source\PSoC4/CapSense_1.c **** *  sensor: sensor index. The index value can be 
1946:.\Generated_Source\PSoC4/CapSense_1.c **** *  from 0 to (CapSense_1_TOTAL_SENSOR_COUNT-1).
1947:.\Generated_Source\PSoC4/CapSense_1.c **** *
1948:.\Generated_Source\PSoC4/CapSense_1.c **** * Return:
1949:.\Generated_Source\PSoC4/CapSense_1.c **** *  This API returns the modulation IDAC of the sensor. 
1950:.\Generated_Source\PSoC4/CapSense_1.c **** *
1951:.\Generated_Source\PSoC4/CapSense_1.c **** * Global Variables:
1952:.\Generated_Source\PSoC4/CapSense_1.c **** *  CapSense_1_modulationIDAC[] - stores modulation IDAC values.
1953:.\Generated_Source\PSoC4/CapSense_1.c **** * 
1954:.\Generated_Source\PSoC4/CapSense_1.c **** * Side Effects:
1955:.\Generated_Source\PSoC4/CapSense_1.c **** *  None
1956:.\Generated_Source\PSoC4/CapSense_1.c **** *
1957:.\Generated_Source\PSoC4/CapSense_1.c **** *******************************************************************************/
1958:.\Generated_Source\PSoC4/CapSense_1.c **** uint32 CapSense_1_GetModulationIDAC(uint32 sensor)
ARM GAS  C:\Users\mitchell\AppData\Local\Temp\cc5pMFOa.s 			page 73


1959:.\Generated_Source\PSoC4/CapSense_1.c **** {
 2134              		.loc 1 1959 0
 2135              		.cfi_startproc
 2136 0000 80B5     		push	{r7, lr}
 2137              		.cfi_def_cfa_offset 8
 2138              		.cfi_offset 7, -8
 2139              		.cfi_offset 14, -4
 2140 0002 82B0     		sub	sp, sp, #8
 2141              		.cfi_def_cfa_offset 16
 2142 0004 00AF     		add	r7, sp, #0
 2143              		.cfi_def_cfa_register 7
 2144 0006 7860     		str	r0, [r7, #4]
1960:.\Generated_Source\PSoC4/CapSense_1.c **** 		return((uint32)CapSense_1_modulationIDAC[sensor]);
 2145              		.loc 1 1960 0
 2146 0008 034A     		ldr	r2, .L112
 2147 000a 7B68     		ldr	r3, [r7, #4]
 2148 000c D318     		add	r3, r2, r3
 2149 000e 1B78     		ldrb	r3, [r3]
1961:.\Generated_Source\PSoC4/CapSense_1.c **** }
 2150              		.loc 1 1961 0
 2151 0010 181C     		mov	r0, r3
 2152 0012 BD46     		mov	sp, r7
 2153 0014 02B0     		add	sp, sp, #8
 2154              		@ sp needed
 2155 0016 80BD     		pop	{r7, pc}
 2156              	.L113:
 2157              		.align	2
 2158              	.L112:
 2159 0018 00000000 		.word	CapSense_1_modulationIDAC
 2160              		.cfi_endproc
 2161              	.LFE61:
 2162              		.size	CapSense_1_GetModulationIDAC, .-CapSense_1_GetModulationIDAC
 2163              		.section	.text.CapSense_1_GetIDACRange,"ax",%progbits
 2164              		.align	2
 2165              		.global	CapSense_1_GetIDACRange
 2166              		.code	16
 2167              		.thumb_func
 2168              		.type	CapSense_1_GetIDACRange, %function
 2169              	CapSense_1_GetIDACRange:
 2170              	.LFB62:
1962:.\Generated_Source\PSoC4/CapSense_1.c **** 
1963:.\Generated_Source\PSoC4/CapSense_1.c **** #if (CapSense_1_TUNING_METHOD != CapSense_1__TUNING_NONE)
1964:.\Generated_Source\PSoC4/CapSense_1.c **** 	/*******************************************************************************
1965:.\Generated_Source\PSoC4/CapSense_1.c **** 	* Function Name: CapSense_1_SetModulationIDAC
1966:.\Generated_Source\PSoC4/CapSense_1.c **** 	********************************************************************************
1967:.\Generated_Source\PSoC4/CapSense_1.c **** 	*
1968:.\Generated_Source\PSoC4/CapSense_1.c **** 	* Summary:
1969:.\Generated_Source\PSoC4/CapSense_1.c **** 	*  This API sets a value of the modulation IDAC for the  sensor.
1970:.\Generated_Source\PSoC4/CapSense_1.c **** 	*
1971:.\Generated_Source\PSoC4/CapSense_1.c **** 	* Parameters:
1972:.\Generated_Source\PSoC4/CapSense_1.c **** 	*  sensor:  Sensor index.
1973:.\Generated_Source\PSoC4/CapSense_1.c **** 	*  compIdacValue: represents the modulation IDAC data register value.
1974:.\Generated_Source\PSoC4/CapSense_1.c **** 	*
1975:.\Generated_Source\PSoC4/CapSense_1.c **** 	* Return:
1976:.\Generated_Source\PSoC4/CapSense_1.c **** 	*  None.
1977:.\Generated_Source\PSoC4/CapSense_1.c **** 	*
1978:.\Generated_Source\PSoC4/CapSense_1.c **** 	* Global Variables:
ARM GAS  C:\Users\mitchell\AppData\Local\Temp\cc5pMFOa.s 			page 74


1979:.\Generated_Source\PSoC4/CapSense_1.c **** 	*  CapSense_1_modulationIDAC[] - array with modulation IDAC values
1980:.\Generated_Source\PSoC4/CapSense_1.c **** 	* 
1981:.\Generated_Source\PSoC4/CapSense_1.c **** 	* Side Effects:
1982:.\Generated_Source\PSoC4/CapSense_1.c **** 	*  None
1983:.\Generated_Source\PSoC4/CapSense_1.c **** 	*
1984:.\Generated_Source\PSoC4/CapSense_1.c **** 	*******************************************************************************/
1985:.\Generated_Source\PSoC4/CapSense_1.c **** 	void CapSense_1_SetModulationIDAC(uint32 sensor, uint32 modIdacValue)
1986:.\Generated_Source\PSoC4/CapSense_1.c **** 	{
