ARM GAS  C:\Users\mitchell\AppData\Local\Temp\cclgfPsa.s 			page 1


   1              		.cpu cortex-m0
   2              		.fpu softvfp
   3              		.eabi_attribute 20, 1
   4              		.eabi_attribute 21, 1
   5              		.eabi_attribute 23, 3
   6              		.eabi_attribute 24, 1
   7              		.eabi_attribute 25, 1
   8              		.eabi_attribute 26, 1
   9              		.eabi_attribute 30, 6
  10              		.eabi_attribute 34, 0
  11              		.eabi_attribute 18, 4
  12              		.code	16
  13              		.file	"main.c"
  14              		.text
  15              	.Ltext0:
  16              		.cfi_sections	.debug_frame
  17              		.section	.text.main,"ax",%progbits
  18              		.align	2
  19              		.global	main
  20              		.code	16
  21              		.thumb_func
  22              		.type	main, %function
  23              	main:
  24              	.LFB33:
  25              		.file 1 ".\\main.c"
   1:.\main.c      **** #include <device.h>
   2:.\main.c      **** #include <LED_RGB.h>
   3:.\main.c      **** 
   4:.\main.c      **** void main()
   5:.\main.c      **** {
  26              		.loc 1 5 0
  27              		.cfi_startproc
  28 0000 90B5     		push	{r4, r7, lr}
  29              		.cfi_def_cfa_offset 12
  30              		.cfi_offset 4, -12
  31              		.cfi_offset 7, -8
  32              		.cfi_offset 14, -4
  33 0002 83B0     		sub	sp, sp, #12
  34              		.cfi_def_cfa_offset 24
  35 0004 00AF     		add	r7, sp, #0
  36              		.cfi_def_cfa_register 7
   6:.\main.c      ****     /* Place your initialization/startup code here (e.g. MyInst_Start()) */
   7:.\main.c      ****     uint16 CapSensePosition;
   8:.\main.c      ****     LED_RGB_Start();
  37              		.loc 1 8 0
  38 0006 FFF7FEFF 		bl	LED_RGB_Start
   9:.\main.c      ****     CyGlobalIntEnable;
  39              		.loc 1 9 0
  40              	@ 9 ".\main.c" 1
  41 000a 62B6     		CPSIE   i
  42              	@ 0 "" 2
  10:.\main.c      ****     CapSense_1_Start();
  43              		.loc 1 10 0
  44              		.code	16
  45 000c FFF7FEFF 		bl	CapSense_1_Start
  11:.\main.c      ****     CapSense_1_InitializeAllBaselines();
  46              		.loc 1 11 0
ARM GAS  C:\Users\mitchell\AppData\Local\Temp\cclgfPsa.s 			page 2


  47 0010 FFF7FEFF 		bl	CapSense_1_InitializeAllBaselines
  12:.\main.c      ****     UART_1_Start();
  48              		.loc 1 12 0
  49 0014 FFF7FEFF 		bl	UART_1_Start
  50              	.L3:
  13:.\main.c      ****      
  14:.\main.c      ****     /* CyGlobalIntEnable; */ /* Uncomment this line to enable global interrupts. */
  15:.\main.c      ****     for(;;)
  16:.\main.c      ****     {
  17:.\main.c      ****         /* Place your application code here. */
  18:.\main.c      ****         CapSense_1_UpdateEnabledBaselines();
  51              		.loc 1 18 0
  52 0018 FFF7FEFF 		bl	CapSense_1_UpdateEnabledBaselines
  19:.\main.c      ****         CapSense_1_ScanEnabledWidgets();
  53              		.loc 1 19 0
  54 001c FFF7FEFF 		bl	CapSense_1_ScanEnabledWidgets
  20:.\main.c      ****         while(CapSense_1_IsBusy() != 0);
  55              		.loc 1 20 0
  56 0020 C046     		mov	r8, r8
  57              	.L2:
  58              		.loc 1 20 0 is_stmt 0 discriminator 1
  59 0022 FFF7FEFF 		bl	CapSense_1_IsBusy
  60 0026 031C     		mov	r3, r0
  61 0028 002B     		cmp	r3, #0
  62 002a FAD1     		bne	.L2
  21:.\main.c      ****         CapSensePosition = CapSense_1_GetCentroidPos(CapSense_1_LINEARSLIDER0__LS);
  63              		.loc 1 21 0 is_stmt 1
  64 002c BC1D     		add	r4, r7, #6
  65 002e 0020     		mov	r0, #0
  66 0030 FFF7FEFF 		bl	CapSense_1_GetCentroidPos
  67 0034 031C     		mov	r3, r0
  68 0036 2380     		strh	r3, [r4]
  22:.\main.c      ****         LED_RGB_SetColorCircle(255 * CapSensePosition);
  69              		.loc 1 22 0
  70 0038 BB1D     		add	r3, r7, #6
  71 003a 1B88     		ldrh	r3, [r3]
  72 003c 1A1C     		add	r2, r3, #0
  73 003e 1202     		lsl	r2, r2, #8
  74 0040 D31A     		sub	r3, r2, r3
  75 0042 9BB2     		uxth	r3, r3
  76 0044 181C     		mov	r0, r3
  77 0046 FFF7FEFF 		bl	LED_RGB_SetColorCircle
  23:.\main.c      ****         UART_1_UartPutChar(CapSensePosition);
  78              		.loc 1 23 0
  79 004a BB1D     		add	r3, r7, #6
  80 004c 1B88     		ldrh	r3, [r3]
  81 004e 181C     		mov	r0, r3
  82 0050 FFF7FEFF 		bl	UART_1_SpiUartWriteTxData
  24:.\main.c      ****         CyDelay(10);
  83              		.loc 1 24 0
  84 0054 0A20     		mov	r0, #10
  85 0056 FFF7FEFF 		bl	CyDelay
  25:.\main.c      ****     }
  86              		.loc 1 25 0
  87 005a DDE7     		b	.L3
  88              		.cfi_endproc
  89              	.LFE33:
ARM GAS  C:\Users\mitchell\AppData\Local\Temp\cclgfPsa.s 			page 3


  90              		.size	main, .-main
  91              		.text
  92              	.Letext0:
  93              		.file 2 "Generated_Source\\PSoC4/cytypes.h"