ARM GAS  C:\Users\mitchell\AppData\Local\Temp\ccWE89b8.s 			page 1


   1              		.cpu cortex-m0
   2              		.fpu softvfp
   3              		.eabi_attribute 20, 1
   4              		.eabi_attribute 21, 1
   5              		.eabi_attribute 23, 3
   6              		.eabi_attribute 24, 1
   7              		.eabi_attribute 25, 1
   8              		.eabi_attribute 26, 1
   9              		.eabi_attribute 30, 6
  10              		.eabi_attribute 34, 0
  11              		.eabi_attribute 18, 4
  12              		.code	16
  13              		.file	"UART_1_SPI_UART.c"
  14              		.text
  15              	.Ltext0:
  16              		.cfi_sections	.debug_frame
  17              		.section	.text.UART_1_SpiUartWriteTxData,"ax",%progbits
  18              		.align	2
  19              		.global	UART_1_SpiUartWriteTxData
  20              		.code	16
  21              		.thumb_func
  22              		.type	UART_1_SpiUartWriteTxData, %function
  23              	UART_1_SpiUartWriteTxData:
  24              	.LFB0:
  25              		.file 1 ".\\Generated_Source\\PSoC4\\UART_1_SPI_UART.c"
   1:.\Generated_Source\PSoC4/UART_1_SPI_UART.c **** /*******************************************************************************
   2:.\Generated_Source\PSoC4/UART_1_SPI_UART.c **** * File Name: UART_1_SPI_UART.c
   3:.\Generated_Source\PSoC4/UART_1_SPI_UART.c **** * Version 3.0
   4:.\Generated_Source\PSoC4/UART_1_SPI_UART.c **** *
   5:.\Generated_Source\PSoC4/UART_1_SPI_UART.c **** * Description:
   6:.\Generated_Source\PSoC4/UART_1_SPI_UART.c **** *  This file provides the source code to the API for the SCB Component in
   7:.\Generated_Source\PSoC4/UART_1_SPI_UART.c **** *  SPI and UART modes.
   8:.\Generated_Source\PSoC4/UART_1_SPI_UART.c **** *
   9:.\Generated_Source\PSoC4/UART_1_SPI_UART.c **** * Note:
  10:.\Generated_Source\PSoC4/UART_1_SPI_UART.c **** *
  11:.\Generated_Source\PSoC4/UART_1_SPI_UART.c **** *******************************************************************************
  12:.\Generated_Source\PSoC4/UART_1_SPI_UART.c **** * Copyright 2013-2015, Cypress Semiconductor Corporation.  All rights reserved.
  13:.\Generated_Source\PSoC4/UART_1_SPI_UART.c **** * You may use this file only in accordance with the license, terms, conditions,
  14:.\Generated_Source\PSoC4/UART_1_SPI_UART.c **** * disclaimers, and limitations in the end user license agreement accompanying
  15:.\Generated_Source\PSoC4/UART_1_SPI_UART.c **** * the software package with which this file was provided.
  16:.\Generated_Source\PSoC4/UART_1_SPI_UART.c **** *******************************************************************************/
  17:.\Generated_Source\PSoC4/UART_1_SPI_UART.c **** 
  18:.\Generated_Source\PSoC4/UART_1_SPI_UART.c **** #include "UART_1_PVT.h"
  19:.\Generated_Source\PSoC4/UART_1_SPI_UART.c **** #include "UART_1_SPI_UART_PVT.h"
  20:.\Generated_Source\PSoC4/UART_1_SPI_UART.c **** 
  21:.\Generated_Source\PSoC4/UART_1_SPI_UART.c **** /***************************************
  22:.\Generated_Source\PSoC4/UART_1_SPI_UART.c **** *        SPI/UART Private Vars
  23:.\Generated_Source\PSoC4/UART_1_SPI_UART.c **** ***************************************/
  24:.\Generated_Source\PSoC4/UART_1_SPI_UART.c **** 
  25:.\Generated_Source\PSoC4/UART_1_SPI_UART.c **** #if(UART_1_INTERNAL_RX_SW_BUFFER_CONST)
  26:.\Generated_Source\PSoC4/UART_1_SPI_UART.c ****     volatile uint32 UART_1_rxBufferHead;
  27:.\Generated_Source\PSoC4/UART_1_SPI_UART.c ****     volatile uint32 UART_1_rxBufferTail;
  28:.\Generated_Source\PSoC4/UART_1_SPI_UART.c ****     volatile uint8  UART_1_rxBufferOverflow;
  29:.\Generated_Source\PSoC4/UART_1_SPI_UART.c **** #endif /* (UART_1_INTERNAL_RX_SW_BUFFER_CONST) */
  30:.\Generated_Source\PSoC4/UART_1_SPI_UART.c **** 
  31:.\Generated_Source\PSoC4/UART_1_SPI_UART.c **** #if(UART_1_INTERNAL_TX_SW_BUFFER_CONST)
  32:.\Generated_Source\PSoC4/UART_1_SPI_UART.c ****     volatile uint32 UART_1_txBufferHead;
ARM GAS  C:\Users\mitchell\AppData\Local\Temp\ccWE89b8.s 			page 2


  33:.\Generated_Source\PSoC4/UART_1_SPI_UART.c ****     volatile uint32 UART_1_txBufferTail;
  34:.\Generated_Source\PSoC4/UART_1_SPI_UART.c **** #endif /* (UART_1_INTERNAL_TX_SW_BUFFER_CONST) */
  35:.\Generated_Source\PSoC4/UART_1_SPI_UART.c **** 
  36:.\Generated_Source\PSoC4/UART_1_SPI_UART.c **** #if(UART_1_INTERNAL_RX_SW_BUFFER)
  37:.\Generated_Source\PSoC4/UART_1_SPI_UART.c ****     /* Add one element to the buffer to receive full packet. One byte in receive buffer is always e
  38:.\Generated_Source\PSoC4/UART_1_SPI_UART.c ****     volatile uint8 UART_1_rxBufferInternal[UART_1_INTERNAL_RX_BUFFER_SIZE];
  39:.\Generated_Source\PSoC4/UART_1_SPI_UART.c **** #endif /* (UART_1_INTERNAL_RX_SW_BUFFER) */
  40:.\Generated_Source\PSoC4/UART_1_SPI_UART.c **** 
  41:.\Generated_Source\PSoC4/UART_1_SPI_UART.c **** #if(UART_1_INTERNAL_TX_SW_BUFFER)
  42:.\Generated_Source\PSoC4/UART_1_SPI_UART.c ****     volatile uint8 UART_1_txBufferInternal[UART_1_TX_BUFFER_SIZE];
  43:.\Generated_Source\PSoC4/UART_1_SPI_UART.c **** #endif /* (UART_1_INTERNAL_TX_SW_BUFFER) */
  44:.\Generated_Source\PSoC4/UART_1_SPI_UART.c **** 
  45:.\Generated_Source\PSoC4/UART_1_SPI_UART.c **** 
  46:.\Generated_Source\PSoC4/UART_1_SPI_UART.c **** #if(UART_1_RX_DIRECTION)
  47:.\Generated_Source\PSoC4/UART_1_SPI_UART.c ****     /*******************************************************************************
  48:.\Generated_Source\PSoC4/UART_1_SPI_UART.c ****     * Function Name: UART_1_SpiUartReadRxData
  49:.\Generated_Source\PSoC4/UART_1_SPI_UART.c ****     ********************************************************************************
  50:.\Generated_Source\PSoC4/UART_1_SPI_UART.c ****     *
  51:.\Generated_Source\PSoC4/UART_1_SPI_UART.c ****     * Summary:
  52:.\Generated_Source\PSoC4/UART_1_SPI_UART.c ****     *  Retrieves the next data element from the receive buffer.
  53:.\Generated_Source\PSoC4/UART_1_SPI_UART.c ****     *   - RX software buffer is disabled: Returns data element retrieved from
  54:.\Generated_Source\PSoC4/UART_1_SPI_UART.c ****     *     RX FIFO. Undefined data will be returned if the RX FIFO is empty.
  55:.\Generated_Source\PSoC4/UART_1_SPI_UART.c ****     *   - RX software buffer is enabled: Returns data element from the software
  56:.\Generated_Source\PSoC4/UART_1_SPI_UART.c ****     *     receive buffer. Zero value is returned if the software receive buffer
  57:.\Generated_Source\PSoC4/UART_1_SPI_UART.c ****     *     is empty.
  58:.\Generated_Source\PSoC4/UART_1_SPI_UART.c ****     *
  59:.\Generated_Source\PSoC4/UART_1_SPI_UART.c ****     * Parameters:
  60:.\Generated_Source\PSoC4/UART_1_SPI_UART.c ****     *  None
  61:.\Generated_Source\PSoC4/UART_1_SPI_UART.c ****     *
  62:.\Generated_Source\PSoC4/UART_1_SPI_UART.c ****     * Return:
  63:.\Generated_Source\PSoC4/UART_1_SPI_UART.c ****     *  Next data element from the receive buffer.
  64:.\Generated_Source\PSoC4/UART_1_SPI_UART.c ****     *
  65:.\Generated_Source\PSoC4/UART_1_SPI_UART.c ****     * Global Variables:
  66:.\Generated_Source\PSoC4/UART_1_SPI_UART.c ****     *  Look into UART_1_SpiInit for description.
  67:.\Generated_Source\PSoC4/UART_1_SPI_UART.c ****     *
  68:.\Generated_Source\PSoC4/UART_1_SPI_UART.c ****     *******************************************************************************/
  69:.\Generated_Source\PSoC4/UART_1_SPI_UART.c ****     uint32 UART_1_SpiUartReadRxData(void)
  70:.\Generated_Source\PSoC4/UART_1_SPI_UART.c ****     {
  71:.\Generated_Source\PSoC4/UART_1_SPI_UART.c ****         uint32 rxData = 0u;
  72:.\Generated_Source\PSoC4/UART_1_SPI_UART.c **** 
  73:.\Generated_Source\PSoC4/UART_1_SPI_UART.c ****     #if (UART_1_INTERNAL_RX_SW_BUFFER_CONST)
  74:.\Generated_Source\PSoC4/UART_1_SPI_UART.c ****         uint32 locTail;
  75:.\Generated_Source\PSoC4/UART_1_SPI_UART.c ****     #endif /* (UART_1_INTERNAL_RX_SW_BUFFER_CONST) */
  76:.\Generated_Source\PSoC4/UART_1_SPI_UART.c **** 
  77:.\Generated_Source\PSoC4/UART_1_SPI_UART.c ****         #if (UART_1_CHECK_RX_SW_BUFFER)
  78:.\Generated_Source\PSoC4/UART_1_SPI_UART.c ****         {
  79:.\Generated_Source\PSoC4/UART_1_SPI_UART.c ****             if (UART_1_rxBufferHead != UART_1_rxBufferTail)
  80:.\Generated_Source\PSoC4/UART_1_SPI_UART.c ****             {
  81:.\Generated_Source\PSoC4/UART_1_SPI_UART.c ****                 /* There is data in RX software buffer */
  82:.\Generated_Source\PSoC4/UART_1_SPI_UART.c **** 
  83:.\Generated_Source\PSoC4/UART_1_SPI_UART.c ****                 /* Calculate index to read from */
  84:.\Generated_Source\PSoC4/UART_1_SPI_UART.c ****                 locTail = (UART_1_rxBufferTail + 1u);
  85:.\Generated_Source\PSoC4/UART_1_SPI_UART.c **** 
  86:.\Generated_Source\PSoC4/UART_1_SPI_UART.c ****                 if (UART_1_INTERNAL_RX_BUFFER_SIZE == locTail)
  87:.\Generated_Source\PSoC4/UART_1_SPI_UART.c ****                 {
  88:.\Generated_Source\PSoC4/UART_1_SPI_UART.c ****                     locTail = 0u;
  89:.\Generated_Source\PSoC4/UART_1_SPI_UART.c ****                 }
ARM GAS  C:\Users\mitchell\AppData\Local\Temp\ccWE89b8.s 			page 3


  90:.\Generated_Source\PSoC4/UART_1_SPI_UART.c **** 
  91:.\Generated_Source\PSoC4/UART_1_SPI_UART.c ****                 /* Get data from RX software buffer */
  92:.\Generated_Source\PSoC4/UART_1_SPI_UART.c ****                 rxData = UART_1_GetWordFromRxBuffer(locTail);
  93:.\Generated_Source\PSoC4/UART_1_SPI_UART.c **** 
  94:.\Generated_Source\PSoC4/UART_1_SPI_UART.c ****                 /* Change index in the buffer */
  95:.\Generated_Source\PSoC4/UART_1_SPI_UART.c ****                 UART_1_rxBufferTail = locTail;
  96:.\Generated_Source\PSoC4/UART_1_SPI_UART.c **** 
  97:.\Generated_Source\PSoC4/UART_1_SPI_UART.c ****                 #if (UART_1_CHECK_UART_RTS_CONTROL_FLOW)
  98:.\Generated_Source\PSoC4/UART_1_SPI_UART.c ****                 {
  99:.\Generated_Source\PSoC4/UART_1_SPI_UART.c ****                     /* Check if RX Not Empty is disabled in the interrupt */
 100:.\Generated_Source\PSoC4/UART_1_SPI_UART.c ****                     if (0u == (UART_1_INTR_RX_MASK_REG & UART_1_INTR_RX_NOT_EMPTY))
 101:.\Generated_Source\PSoC4/UART_1_SPI_UART.c ****                     {
 102:.\Generated_Source\PSoC4/UART_1_SPI_UART.c ****                         /* Enable RX Not Empty interrupt source to continue
 103:.\Generated_Source\PSoC4/UART_1_SPI_UART.c ****                         * receiving data into software buffer.
 104:.\Generated_Source\PSoC4/UART_1_SPI_UART.c ****                         */
 105:.\Generated_Source\PSoC4/UART_1_SPI_UART.c ****                         UART_1_INTR_RX_MASK_REG |= UART_1_INTR_RX_NOT_EMPTY;
 106:.\Generated_Source\PSoC4/UART_1_SPI_UART.c ****                     }
 107:.\Generated_Source\PSoC4/UART_1_SPI_UART.c ****                 }
 108:.\Generated_Source\PSoC4/UART_1_SPI_UART.c ****                 #endif
 109:.\Generated_Source\PSoC4/UART_1_SPI_UART.c **** 
 110:.\Generated_Source\PSoC4/UART_1_SPI_UART.c ****             }
 111:.\Generated_Source\PSoC4/UART_1_SPI_UART.c ****         }
 112:.\Generated_Source\PSoC4/UART_1_SPI_UART.c ****         #else
 113:.\Generated_Source\PSoC4/UART_1_SPI_UART.c ****         {
 114:.\Generated_Source\PSoC4/UART_1_SPI_UART.c ****             /* Read data from RX FIFO */
 115:.\Generated_Source\PSoC4/UART_1_SPI_UART.c ****             rxData = UART_1_RX_FIFO_RD_REG;
 116:.\Generated_Source\PSoC4/UART_1_SPI_UART.c ****         }
 117:.\Generated_Source\PSoC4/UART_1_SPI_UART.c ****         #endif
 118:.\Generated_Source\PSoC4/UART_1_SPI_UART.c **** 
 119:.\Generated_Source\PSoC4/UART_1_SPI_UART.c ****         return (rxData);
 120:.\Generated_Source\PSoC4/UART_1_SPI_UART.c ****     }
 121:.\Generated_Source\PSoC4/UART_1_SPI_UART.c **** 
 122:.\Generated_Source\PSoC4/UART_1_SPI_UART.c **** 
 123:.\Generated_Source\PSoC4/UART_1_SPI_UART.c ****     /*******************************************************************************
 124:.\Generated_Source\PSoC4/UART_1_SPI_UART.c ****     * Function Name: UART_1_SpiUartGetRxBufferSize
 125:.\Generated_Source\PSoC4/UART_1_SPI_UART.c ****     ********************************************************************************
 126:.\Generated_Source\PSoC4/UART_1_SPI_UART.c ****     *
 127:.\Generated_Source\PSoC4/UART_1_SPI_UART.c ****     * Summary:
 128:.\Generated_Source\PSoC4/UART_1_SPI_UART.c ****     *  Returns the number of received data elements in the receive buffer.
 129:.\Generated_Source\PSoC4/UART_1_SPI_UART.c ****     *   - RX software buffer disabled: returns the number of used entries in
 130:.\Generated_Source\PSoC4/UART_1_SPI_UART.c ****     *     RX FIFO.
 131:.\Generated_Source\PSoC4/UART_1_SPI_UART.c ****     *   - RX software buffer enabled: returns the number of elements which were
 132:.\Generated_Source\PSoC4/UART_1_SPI_UART.c ****     *     placed in the receive buffer. This does not include the hardware RX FIFO.
 133:.\Generated_Source\PSoC4/UART_1_SPI_UART.c ****     *
 134:.\Generated_Source\PSoC4/UART_1_SPI_UART.c ****     * Parameters:
 135:.\Generated_Source\PSoC4/UART_1_SPI_UART.c ****     *  None
 136:.\Generated_Source\PSoC4/UART_1_SPI_UART.c ****     *
 137:.\Generated_Source\PSoC4/UART_1_SPI_UART.c ****     * Return:
 138:.\Generated_Source\PSoC4/UART_1_SPI_UART.c ****     *  Number of received data elements
 139:.\Generated_Source\PSoC4/UART_1_SPI_UART.c ****     *
 140:.\Generated_Source\PSoC4/UART_1_SPI_UART.c ****     *******************************************************************************/
 141:.\Generated_Source\PSoC4/UART_1_SPI_UART.c ****     uint32 UART_1_SpiUartGetRxBufferSize(void)
 142:.\Generated_Source\PSoC4/UART_1_SPI_UART.c ****     {
 143:.\Generated_Source\PSoC4/UART_1_SPI_UART.c ****         uint32 size;
 144:.\Generated_Source\PSoC4/UART_1_SPI_UART.c ****     #if (UART_1_INTERNAL_RX_SW_BUFFER_CONST)
 145:.\Generated_Source\PSoC4/UART_1_SPI_UART.c ****         uint32 locHead;
 146:.\Generated_Source\PSoC4/UART_1_SPI_UART.c ****     #endif /* (UART_1_INTERNAL_RX_SW_BUFFER_CONST) */
ARM GAS  C:\Users\mitchell\AppData\Local\Temp\ccWE89b8.s 			page 4


 147:.\Generated_Source\PSoC4/UART_1_SPI_UART.c **** 
 148:.\Generated_Source\PSoC4/UART_1_SPI_UART.c ****         #if (UART_1_CHECK_RX_SW_BUFFER)
 149:.\Generated_Source\PSoC4/UART_1_SPI_UART.c ****         {
 150:.\Generated_Source\PSoC4/UART_1_SPI_UART.c ****             locHead = UART_1_rxBufferHead;
 151:.\Generated_Source\PSoC4/UART_1_SPI_UART.c **** 
 152:.\Generated_Source\PSoC4/UART_1_SPI_UART.c ****             if(locHead >= UART_1_rxBufferTail)
 153:.\Generated_Source\PSoC4/UART_1_SPI_UART.c ****             {
 154:.\Generated_Source\PSoC4/UART_1_SPI_UART.c ****                 size = (locHead - UART_1_rxBufferTail);
 155:.\Generated_Source\PSoC4/UART_1_SPI_UART.c ****             }
 156:.\Generated_Source\PSoC4/UART_1_SPI_UART.c ****             else
 157:.\Generated_Source\PSoC4/UART_1_SPI_UART.c ****             {
 158:.\Generated_Source\PSoC4/UART_1_SPI_UART.c ****                 size = (locHead + (UART_1_INTERNAL_RX_BUFFER_SIZE - UART_1_rxBufferTail));
 159:.\Generated_Source\PSoC4/UART_1_SPI_UART.c ****             }
 160:.\Generated_Source\PSoC4/UART_1_SPI_UART.c ****         }
 161:.\Generated_Source\PSoC4/UART_1_SPI_UART.c ****         #else
 162:.\Generated_Source\PSoC4/UART_1_SPI_UART.c ****         {
 163:.\Generated_Source\PSoC4/UART_1_SPI_UART.c ****             size = UART_1_GET_RX_FIFO_ENTRIES;
 164:.\Generated_Source\PSoC4/UART_1_SPI_UART.c ****         }
 165:.\Generated_Source\PSoC4/UART_1_SPI_UART.c ****         #endif
 166:.\Generated_Source\PSoC4/UART_1_SPI_UART.c **** 
 167:.\Generated_Source\PSoC4/UART_1_SPI_UART.c ****         return (size);
 168:.\Generated_Source\PSoC4/UART_1_SPI_UART.c ****     }
 169:.\Generated_Source\PSoC4/UART_1_SPI_UART.c **** 
 170:.\Generated_Source\PSoC4/UART_1_SPI_UART.c **** 
 171:.\Generated_Source\PSoC4/UART_1_SPI_UART.c ****     /*******************************************************************************
 172:.\Generated_Source\PSoC4/UART_1_SPI_UART.c ****     * Function Name: UART_1_SpiUartClearRxBuffer
 173:.\Generated_Source\PSoC4/UART_1_SPI_UART.c ****     ********************************************************************************
 174:.\Generated_Source\PSoC4/UART_1_SPI_UART.c ****     *
 175:.\Generated_Source\PSoC4/UART_1_SPI_UART.c ****     * Summary:
 176:.\Generated_Source\PSoC4/UART_1_SPI_UART.c ****     *  Clears the receive buffer and RX FIFO.
 177:.\Generated_Source\PSoC4/UART_1_SPI_UART.c ****     *
 178:.\Generated_Source\PSoC4/UART_1_SPI_UART.c ****     * Parameters:
 179:.\Generated_Source\PSoC4/UART_1_SPI_UART.c ****     *  None
 180:.\Generated_Source\PSoC4/UART_1_SPI_UART.c ****     *
 181:.\Generated_Source\PSoC4/UART_1_SPI_UART.c ****     * Return:
 182:.\Generated_Source\PSoC4/UART_1_SPI_UART.c ****     *  None
 183:.\Generated_Source\PSoC4/UART_1_SPI_UART.c ****     *
 184:.\Generated_Source\PSoC4/UART_1_SPI_UART.c ****     *******************************************************************************/
 185:.\Generated_Source\PSoC4/UART_1_SPI_UART.c ****     void UART_1_SpiUartClearRxBuffer(void)
 186:.\Generated_Source\PSoC4/UART_1_SPI_UART.c ****     {
 187:.\Generated_Source\PSoC4/UART_1_SPI_UART.c ****         #if (UART_1_CHECK_RX_SW_BUFFER)
 188:.\Generated_Source\PSoC4/UART_1_SPI_UART.c ****         {
 189:.\Generated_Source\PSoC4/UART_1_SPI_UART.c ****             /* Lock from component interruption */
 190:.\Generated_Source\PSoC4/UART_1_SPI_UART.c ****             UART_1_DisableInt();
 191:.\Generated_Source\PSoC4/UART_1_SPI_UART.c **** 
 192:.\Generated_Source\PSoC4/UART_1_SPI_UART.c ****             /* Flush RX software buffer */
 193:.\Generated_Source\PSoC4/UART_1_SPI_UART.c ****             UART_1_rxBufferHead = UART_1_rxBufferTail;
 194:.\Generated_Source\PSoC4/UART_1_SPI_UART.c ****             UART_1_rxBufferOverflow = 0u;
 195:.\Generated_Source\PSoC4/UART_1_SPI_UART.c **** 
 196:.\Generated_Source\PSoC4/UART_1_SPI_UART.c ****             UART_1_CLEAR_RX_FIFO;
 197:.\Generated_Source\PSoC4/UART_1_SPI_UART.c ****             UART_1_ClearRxInterruptSource(UART_1_INTR_RX_ALL);
 198:.\Generated_Source\PSoC4/UART_1_SPI_UART.c **** 
 199:.\Generated_Source\PSoC4/UART_1_SPI_UART.c ****             #if (UART_1_CHECK_UART_RTS_CONTROL_FLOW)
 200:.\Generated_Source\PSoC4/UART_1_SPI_UART.c ****             {
 201:.\Generated_Source\PSoC4/UART_1_SPI_UART.c ****                 /* Enable RX Not Empty interrupt source to continue receiving
 202:.\Generated_Source\PSoC4/UART_1_SPI_UART.c ****                 * data into software buffer.
 203:.\Generated_Source\PSoC4/UART_1_SPI_UART.c ****                 */
ARM GAS  C:\Users\mitchell\AppData\Local\Temp\ccWE89b8.s 			page 5


 204:.\Generated_Source\PSoC4/UART_1_SPI_UART.c ****                 UART_1_INTR_RX_MASK_REG |= UART_1_INTR_RX_NOT_EMPTY;
 205:.\Generated_Source\PSoC4/UART_1_SPI_UART.c ****             }
 206:.\Generated_Source\PSoC4/UART_1_SPI_UART.c ****             #endif
 207:.\Generated_Source\PSoC4/UART_1_SPI_UART.c **** 
 208:.\Generated_Source\PSoC4/UART_1_SPI_UART.c ****             /* Release lock */
 209:.\Generated_Source\PSoC4/UART_1_SPI_UART.c ****             UART_1_EnableInt();
 210:.\Generated_Source\PSoC4/UART_1_SPI_UART.c ****         }
 211:.\Generated_Source\PSoC4/UART_1_SPI_UART.c ****         #else
 212:.\Generated_Source\PSoC4/UART_1_SPI_UART.c ****         {
 213:.\Generated_Source\PSoC4/UART_1_SPI_UART.c ****             UART_1_CLEAR_RX_FIFO;
 214:.\Generated_Source\PSoC4/UART_1_SPI_UART.c ****         }
 215:.\Generated_Source\PSoC4/UART_1_SPI_UART.c ****         #endif
 216:.\Generated_Source\PSoC4/UART_1_SPI_UART.c ****     }
 217:.\Generated_Source\PSoC4/UART_1_SPI_UART.c **** 
 218:.\Generated_Source\PSoC4/UART_1_SPI_UART.c **** #endif /* (UART_1_RX_DIRECTION) */
 219:.\Generated_Source\PSoC4/UART_1_SPI_UART.c **** 
 220:.\Generated_Source\PSoC4/UART_1_SPI_UART.c **** 
 221:.\Generated_Source\PSoC4/UART_1_SPI_UART.c **** #if(UART_1_TX_DIRECTION)
 222:.\Generated_Source\PSoC4/UART_1_SPI_UART.c ****     /*******************************************************************************
 223:.\Generated_Source\PSoC4/UART_1_SPI_UART.c ****     * Function Name: UART_1_SpiUartWriteTxData
 224:.\Generated_Source\PSoC4/UART_1_SPI_UART.c ****     ********************************************************************************
 225:.\Generated_Source\PSoC4/UART_1_SPI_UART.c ****     *
 226:.\Generated_Source\PSoC4/UART_1_SPI_UART.c ****     * Summary:
 227:.\Generated_Source\PSoC4/UART_1_SPI_UART.c ****     *  Places a data entry into the transmit buffer to be sent at the next available
 228:.\Generated_Source\PSoC4/UART_1_SPI_UART.c ****     *  bus time.
 229:.\Generated_Source\PSoC4/UART_1_SPI_UART.c ****     *  This function is blocking and waits until there is space available to put the
 230:.\Generated_Source\PSoC4/UART_1_SPI_UART.c ****     *  requested data in the transmit buffer.
 231:.\Generated_Source\PSoC4/UART_1_SPI_UART.c ****     *
 232:.\Generated_Source\PSoC4/UART_1_SPI_UART.c ****     * Parameters:
 233:.\Generated_Source\PSoC4/UART_1_SPI_UART.c ****     *  txDataByte: the data to be transmitted.
 234:.\Generated_Source\PSoC4/UART_1_SPI_UART.c ****     *
 235:.\Generated_Source\PSoC4/UART_1_SPI_UART.c ****     * Return:
 236:.\Generated_Source\PSoC4/UART_1_SPI_UART.c ****     *  None
 237:.\Generated_Source\PSoC4/UART_1_SPI_UART.c ****     *
 238:.\Generated_Source\PSoC4/UART_1_SPI_UART.c ****     *******************************************************************************/
 239:.\Generated_Source\PSoC4/UART_1_SPI_UART.c ****     void UART_1_SpiUartWriteTxData(uint32 txData)
 240:.\Generated_Source\PSoC4/UART_1_SPI_UART.c ****     {
  26              		.loc 1 240 0
  27              		.cfi_startproc
  28 0000 80B5     		push	{r7, lr}
  29              		.cfi_def_cfa_offset 8
  30              		.cfi_offset 7, -8
  31              		.cfi_offset 14, -4
  32 0002 82B0     		sub	sp, sp, #8
  33              		.cfi_def_cfa_offset 16
  34 0004 00AF     		add	r7, sp, #0
  35              		.cfi_def_cfa_register 7
  36 0006 7860     		str	r0, [r7, #4]
 241:.\Generated_Source\PSoC4/UART_1_SPI_UART.c ****     #if (UART_1_INTERNAL_TX_SW_BUFFER_CONST)
 242:.\Generated_Source\PSoC4/UART_1_SPI_UART.c ****         uint32 locHead;
 243:.\Generated_Source\PSoC4/UART_1_SPI_UART.c ****     #endif /* (UART_1_INTERNAL_TX_SW_BUFFER_CONST) */
 244:.\Generated_Source\PSoC4/UART_1_SPI_UART.c **** 
 245:.\Generated_Source\PSoC4/UART_1_SPI_UART.c ****         #if (UART_1_CHECK_TX_SW_BUFFER)
 246:.\Generated_Source\PSoC4/UART_1_SPI_UART.c ****         {
 247:.\Generated_Source\PSoC4/UART_1_SPI_UART.c ****             /* Put data directly into the TX FIFO */
 248:.\Generated_Source\PSoC4/UART_1_SPI_UART.c ****             if ((UART_1_txBufferHead == UART_1_txBufferTail) &&
 249:.\Generated_Source\PSoC4/UART_1_SPI_UART.c ****                 (UART_1_SPI_UART_FIFO_SIZE != UART_1_GET_TX_FIFO_ENTRIES))
ARM GAS  C:\Users\mitchell\AppData\Local\Temp\ccWE89b8.s 			page 6


 250:.\Generated_Source\PSoC4/UART_1_SPI_UART.c ****             {
 251:.\Generated_Source\PSoC4/UART_1_SPI_UART.c ****                 /* TX software buffer is empty: put data directly in TX FIFO */
 252:.\Generated_Source\PSoC4/UART_1_SPI_UART.c ****                 UART_1_TX_FIFO_WR_REG = txData;
 253:.\Generated_Source\PSoC4/UART_1_SPI_UART.c ****             }
 254:.\Generated_Source\PSoC4/UART_1_SPI_UART.c ****             /* Put data into TX software buffer */
 255:.\Generated_Source\PSoC4/UART_1_SPI_UART.c ****             else
 256:.\Generated_Source\PSoC4/UART_1_SPI_UART.c ****             {
 257:.\Generated_Source\PSoC4/UART_1_SPI_UART.c ****                 /* Head index to put data */
 258:.\Generated_Source\PSoC4/UART_1_SPI_UART.c ****                 locHead = (UART_1_txBufferHead + 1u);
 259:.\Generated_Source\PSoC4/UART_1_SPI_UART.c **** 
 260:.\Generated_Source\PSoC4/UART_1_SPI_UART.c ****                 /* Adjust TX software buffer index */
 261:.\Generated_Source\PSoC4/UART_1_SPI_UART.c ****                 if (UART_1_TX_BUFFER_SIZE == locHead)
 262:.\Generated_Source\PSoC4/UART_1_SPI_UART.c ****                 {
 263:.\Generated_Source\PSoC4/UART_1_SPI_UART.c ****                     locHead = 0u;
 264:.\Generated_Source\PSoC4/UART_1_SPI_UART.c ****                 }
 265:.\Generated_Source\PSoC4/UART_1_SPI_UART.c **** 
 266:.\Generated_Source\PSoC4/UART_1_SPI_UART.c ****                 /* Wait for space in TX software buffer */
 267:.\Generated_Source\PSoC4/UART_1_SPI_UART.c ****                 while (locHead == UART_1_txBufferTail)
 268:.\Generated_Source\PSoC4/UART_1_SPI_UART.c ****                 {
 269:.\Generated_Source\PSoC4/UART_1_SPI_UART.c ****                 }
 270:.\Generated_Source\PSoC4/UART_1_SPI_UART.c **** 
 271:.\Generated_Source\PSoC4/UART_1_SPI_UART.c ****                 /* TX software buffer has at least one room */
 272:.\Generated_Source\PSoC4/UART_1_SPI_UART.c **** 
 273:.\Generated_Source\PSoC4/UART_1_SPI_UART.c ****                 /* Clear old status of INTR_TX_NOT_FULL. It sets at the end of transfer when TX FIF
 274:.\Generated_Source\PSoC4/UART_1_SPI_UART.c ****                 UART_1_ClearTxInterruptSource(UART_1_INTR_TX_NOT_FULL);
 275:.\Generated_Source\PSoC4/UART_1_SPI_UART.c **** 
 276:.\Generated_Source\PSoC4/UART_1_SPI_UART.c ****                 UART_1_PutWordInTxBuffer(locHead, txData);
 277:.\Generated_Source\PSoC4/UART_1_SPI_UART.c **** 
 278:.\Generated_Source\PSoC4/UART_1_SPI_UART.c ****                 UART_1_txBufferHead = locHead;
 279:.\Generated_Source\PSoC4/UART_1_SPI_UART.c **** 
 280:.\Generated_Source\PSoC4/UART_1_SPI_UART.c ****                 /* Check if TX Not Full is disabled in interrupt */
 281:.\Generated_Source\PSoC4/UART_1_SPI_UART.c ****                 if (0u == (UART_1_INTR_TX_MASK_REG & UART_1_INTR_TX_NOT_FULL))
 282:.\Generated_Source\PSoC4/UART_1_SPI_UART.c ****                 {
 283:.\Generated_Source\PSoC4/UART_1_SPI_UART.c ****                     /* Enable TX Not Full interrupt source to transmit from software buffer */
 284:.\Generated_Source\PSoC4/UART_1_SPI_UART.c ****                     UART_1_INTR_TX_MASK_REG |= (uint32) UART_1_INTR_TX_NOT_FULL;
 285:.\Generated_Source\PSoC4/UART_1_SPI_UART.c ****                 }
 286:.\Generated_Source\PSoC4/UART_1_SPI_UART.c ****             }
 287:.\Generated_Source\PSoC4/UART_1_SPI_UART.c ****         }
 288:.\Generated_Source\PSoC4/UART_1_SPI_UART.c ****         #else
 289:.\Generated_Source\PSoC4/UART_1_SPI_UART.c ****         {
 290:.\Generated_Source\PSoC4/UART_1_SPI_UART.c ****             /* Wait until TX FIFO has space to put data element */
 291:.\Generated_Source\PSoC4/UART_1_SPI_UART.c ****             while (UART_1_SPI_UART_FIFO_SIZE == UART_1_GET_TX_FIFO_ENTRIES)
  37              		.loc 1 291 0
  38 0008 C046     		mov	r8, r8
  39              	.L2:
  40              		.loc 1 291 0 is_stmt 0 discriminator 1
  41 000a 064B     		ldr	r3, .L3
  42 000c 1A68     		ldr	r2, [r3]
  43 000e 0F23     		mov	r3, #15
  44 0010 1340     		and	r3, r2
  45 0012 082B     		cmp	r3, #8
  46 0014 F9D0     		beq	.L2
 292:.\Generated_Source\PSoC4/UART_1_SPI_UART.c ****             {
 293:.\Generated_Source\PSoC4/UART_1_SPI_UART.c ****             }
 294:.\Generated_Source\PSoC4/UART_1_SPI_UART.c **** 
 295:.\Generated_Source\PSoC4/UART_1_SPI_UART.c ****             UART_1_TX_FIFO_WR_REG = txData;
  47              		.loc 1 295 0 is_stmt 1
ARM GAS  C:\Users\mitchell\AppData\Local\Temp\ccWE89b8.s 			page 7


  48 0016 044B     		ldr	r3, .L3+4
  49 0018 7A68     		ldr	r2, [r7, #4]
  50 001a 1A60     		str	r2, [r3]
 296:.\Generated_Source\PSoC4/UART_1_SPI_UART.c ****         }
 297:.\Generated_Source\PSoC4/UART_1_SPI_UART.c ****         #endif
 298:.\Generated_Source\PSoC4/UART_1_SPI_UART.c ****     }
  51              		.loc 1 298 0
  52 001c BD46     		mov	sp, r7
  53 001e 02B0     		add	sp, sp, #8
  54              		@ sp needed
  55 0020 80BD     		pop	{r7, pc}
  56              	.L4:
  57 0022 C046     		.align	2
  58              	.L3:
  59 0024 08020640 		.word	1074135560
  60 0028 40020640 		.word	1074135616
  61              		.cfi_endproc
  62              	.LFE0:
  63              		.size	UART_1_SpiUartWriteTxData, .-UART_1_SpiUartWriteTxData
  64              		.section	.text.UART_1_SpiUartPutArray,"ax",%progbits
  65              		.align	2
  66              		.global	UART_1_SpiUartPutArray
  67              		.code	16
  68              		.thumb_func
  69              		.type	UART_1_SpiUartPutArray, %function
  70              	UART_1_SpiUartPutArray:
  71              	.LFB1:
 299:.\Generated_Source\PSoC4/UART_1_SPI_UART.c **** 
 300:.\Generated_Source\PSoC4/UART_1_SPI_UART.c **** 
 301:.\Generated_Source\PSoC4/UART_1_SPI_UART.c ****     /*******************************************************************************
 302:.\Generated_Source\PSoC4/UART_1_SPI_UART.c ****     * Function Name: UART_1_SpiUartPutArray
 303:.\Generated_Source\PSoC4/UART_1_SPI_UART.c ****     ********************************************************************************
 304:.\Generated_Source\PSoC4/UART_1_SPI_UART.c ****     *
 305:.\Generated_Source\PSoC4/UART_1_SPI_UART.c ****     * Summary:
 306:.\Generated_Source\PSoC4/UART_1_SPI_UART.c ****     *  Places an array of data into the transmit buffer to be sent.
 307:.\Generated_Source\PSoC4/UART_1_SPI_UART.c ****     *  This function is blocking and waits until there is a space available to put
 308:.\Generated_Source\PSoC4/UART_1_SPI_UART.c ****     *  all the requested data in the transmit buffer. The array size can be greater
 309:.\Generated_Source\PSoC4/UART_1_SPI_UART.c ****     *  than transmit buffer size.
 310:.\Generated_Source\PSoC4/UART_1_SPI_UART.c ****     *
 311:.\Generated_Source\PSoC4/UART_1_SPI_UART.c ****     * Parameters:
 312:.\Generated_Source\PSoC4/UART_1_SPI_UART.c ****     *  wrBuf:  pointer to an array with data to be placed in transmit buffer.
 313:.\Generated_Source\PSoC4/UART_1_SPI_UART.c ****     *  count:  number of data elements to be placed in the transmit buffer.
 314:.\Generated_Source\PSoC4/UART_1_SPI_UART.c ****     *
 315:.\Generated_Source\PSoC4/UART_1_SPI_UART.c ****     * Return:
 316:.\Generated_Source\PSoC4/UART_1_SPI_UART.c ****     *  None
 317:.\Generated_Source\PSoC4/UART_1_SPI_UART.c ****     *
 318:.\Generated_Source\PSoC4/UART_1_SPI_UART.c ****     *******************************************************************************/
 319:.\Generated_Source\PSoC4/UART_1_SPI_UART.c ****     void UART_1_SpiUartPutArray(const uint8 wrBuf[], uint32 count)
 320:.\Generated_Source\PSoC4/UART_1_SPI_UART.c ****     {
  72              		.loc 1 320 0
  73              		.cfi_startproc
  74 0000 80B5     		push	{r7, lr}
  75              		.cfi_def_cfa_offset 8
  76              		.cfi_offset 7, -8
  77              		.cfi_offset 14, -4
  78 0002 84B0     		sub	sp, sp, #16
  79              		.cfi_def_cfa_offset 24
ARM GAS  C:\Users\mitchell\AppData\Local\Temp\ccWE89b8.s 			page 8


  80 0004 00AF     		add	r7, sp, #0
  81              		.cfi_def_cfa_register 7
  82 0006 7860     		str	r0, [r7, #4]
  83 0008 3960     		str	r1, [r7]
 321:.\Generated_Source\PSoC4/UART_1_SPI_UART.c ****         uint32 i;
 322:.\Generated_Source\PSoC4/UART_1_SPI_UART.c **** 
 323:.\Generated_Source\PSoC4/UART_1_SPI_UART.c ****         for (i=0u; i < count; i++)
  84              		.loc 1 323 0
  85 000a 0023     		mov	r3, #0
  86 000c FB60     		str	r3, [r7, #12]
  87 000e 09E0     		b	.L6
  88              	.L7:
 324:.\Generated_Source\PSoC4/UART_1_SPI_UART.c ****         {
 325:.\Generated_Source\PSoC4/UART_1_SPI_UART.c ****             UART_1_SpiUartWriteTxData((uint32) wrBuf[i]);
  89              		.loc 1 325 0 discriminator 2
  90 0010 7A68     		ldr	r2, [r7, #4]
  91 0012 FB68     		ldr	r3, [r7, #12]
  92 0014 D318     		add	r3, r2, r3
  93 0016 1B78     		ldrb	r3, [r3]
  94 0018 181C     		mov	r0, r3
  95 001a FFF7FEFF 		bl	UART_1_SpiUartWriteTxData
 323:.\Generated_Source\PSoC4/UART_1_SPI_UART.c ****         for (i=0u; i < count; i++)
  96              		.loc 1 323 0 discriminator 2
  97 001e FB68     		ldr	r3, [r7, #12]
  98 0020 0133     		add	r3, r3, #1
  99 0022 FB60     		str	r3, [r7, #12]
 100              	.L6:
 323:.\Generated_Source\PSoC4/UART_1_SPI_UART.c ****         for (i=0u; i < count; i++)
 101              		.loc 1 323 0 is_stmt 0 discriminator 1
 102 0024 FA68     		ldr	r2, [r7, #12]
 103 0026 3B68     		ldr	r3, [r7]
 104 0028 9A42     		cmp	r2, r3
 105 002a F1D3     		bcc	.L7
 326:.\Generated_Source\PSoC4/UART_1_SPI_UART.c ****         }
 327:.\Generated_Source\PSoC4/UART_1_SPI_UART.c ****     }
 106              		.loc 1 327 0 is_stmt 1
 107 002c BD46     		mov	sp, r7
 108 002e 04B0     		add	sp, sp, #16
 109              		@ sp needed
 110 0030 80BD     		pop	{r7, pc}
 111              		.cfi_endproc
 112              	.LFE1:
 113              		.size	UART_1_SpiUartPutArray, .-UART_1_SpiUartPutArray
 114 0032 C046     		.section	.text.UART_1_SpiUartGetTxBufferSize,"ax",%progbits
 115              		.align	2
 116              		.global	UART_1_SpiUartGetTxBufferSize
 117              		.code	16
 118              		.thumb_func
 119              		.type	UART_1_SpiUartGetTxBufferSize, %function
 120              	UART_1_SpiUartGetTxBufferSize:
 121              	.LFB2:
 328:.\Generated_Source\PSoC4/UART_1_SPI_UART.c **** 
 329:.\Generated_Source\PSoC4/UART_1_SPI_UART.c **** 
 330:.\Generated_Source\PSoC4/UART_1_SPI_UART.c ****     /*******************************************************************************
 331:.\Generated_Source\PSoC4/UART_1_SPI_UART.c ****     * Function Name: UART_1_SpiUartGetTxBufferSize
 332:.\Generated_Source\PSoC4/UART_1_SPI_UART.c ****     ********************************************************************************
 333:.\Generated_Source\PSoC4/UART_1_SPI_UART.c ****     *
ARM GAS  C:\Users\mitchell\AppData\Local\Temp\ccWE89b8.s 			page 9


 334:.\Generated_Source\PSoC4/UART_1_SPI_UART.c ****     * Summary:
 335:.\Generated_Source\PSoC4/UART_1_SPI_UART.c ****     * Returns the number of elements currently in the transmit buffer.
 336:.\Generated_Source\PSoC4/UART_1_SPI_UART.c ****     *  - TX software buffer is disabled: returns the number of used entries in
 337:.\Generated_Source\PSoC4/UART_1_SPI_UART.c ****     *    TX FIFO.
 338:.\Generated_Source\PSoC4/UART_1_SPI_UART.c ****     *  - TX software buffer is enabled: returns the number of elements currently
 339:.\Generated_Source\PSoC4/UART_1_SPI_UART.c ****     *    used in the transmit buffer. This number does not include used entries in
 340:.\Generated_Source\PSoC4/UART_1_SPI_UART.c ****     *    the TX FIFO. The transmit buffer size is zero until the TX FIFO is
 341:.\Generated_Source\PSoC4/UART_1_SPI_UART.c ****     *    not full.
 342:.\Generated_Source\PSoC4/UART_1_SPI_UART.c ****     *
 343:.\Generated_Source\PSoC4/UART_1_SPI_UART.c ****     * Parameters:
 344:.\Generated_Source\PSoC4/UART_1_SPI_UART.c ****     *  None
 345:.\Generated_Source\PSoC4/UART_1_SPI_UART.c ****     *
 346:.\Generated_Source\PSoC4/UART_1_SPI_UART.c ****     * Return:
 347:.\Generated_Source\PSoC4/UART_1_SPI_UART.c ****     *  Number of data elements ready to transmit.
 348:.\Generated_Source\PSoC4/UART_1_SPI_UART.c ****     *
 349:.\Generated_Source\PSoC4/UART_1_SPI_UART.c ****     *******************************************************************************/
 350:.\Generated_Source\PSoC4/UART_1_SPI_UART.c ****     uint32 UART_1_SpiUartGetTxBufferSize(void)
 351:.\Generated_Source\PSoC4/UART_1_SPI_UART.c ****     {
 122              		.loc 1 351 0
 123              		.cfi_startproc
 124 0000 80B5     		push	{r7, lr}
 125              		.cfi_def_cfa_offset 8
 126              		.cfi_offset 7, -8
 127              		.cfi_offset 14, -4
 128 0002 82B0     		sub	sp, sp, #8
 129              		.cfi_def_cfa_offset 16
 130 0004 00AF     		add	r7, sp, #0
 131              		.cfi_def_cfa_register 7
 352:.\Generated_Source\PSoC4/UART_1_SPI_UART.c ****         uint32 size;
 353:.\Generated_Source\PSoC4/UART_1_SPI_UART.c ****     #if (UART_1_INTERNAL_TX_SW_BUFFER_CONST)
 354:.\Generated_Source\PSoC4/UART_1_SPI_UART.c ****         uint32 locTail;
 355:.\Generated_Source\PSoC4/UART_1_SPI_UART.c ****     #endif /* (UART_1_INTERNAL_TX_SW_BUFFER_CONST) */
 356:.\Generated_Source\PSoC4/UART_1_SPI_UART.c **** 
 357:.\Generated_Source\PSoC4/UART_1_SPI_UART.c ****         #if (UART_1_CHECK_TX_SW_BUFFER)
 358:.\Generated_Source\PSoC4/UART_1_SPI_UART.c ****         {
 359:.\Generated_Source\PSoC4/UART_1_SPI_UART.c ****             /* Get current Tail index */
 360:.\Generated_Source\PSoC4/UART_1_SPI_UART.c ****             locTail = UART_1_txBufferTail;
 361:.\Generated_Source\PSoC4/UART_1_SPI_UART.c **** 
 362:.\Generated_Source\PSoC4/UART_1_SPI_UART.c ****             if (UART_1_txBufferHead >= locTail)
 363:.\Generated_Source\PSoC4/UART_1_SPI_UART.c ****             {
 364:.\Generated_Source\PSoC4/UART_1_SPI_UART.c ****                 size = (UART_1_txBufferHead - locTail);
 365:.\Generated_Source\PSoC4/UART_1_SPI_UART.c ****             }
 366:.\Generated_Source\PSoC4/UART_1_SPI_UART.c ****             else
 367:.\Generated_Source\PSoC4/UART_1_SPI_UART.c ****             {
 368:.\Generated_Source\PSoC4/UART_1_SPI_UART.c ****                 size = (UART_1_txBufferHead + (UART_1_TX_BUFFER_SIZE - locTail));
 369:.\Generated_Source\PSoC4/UART_1_SPI_UART.c ****             }
 370:.\Generated_Source\PSoC4/UART_1_SPI_UART.c ****         }
 371:.\Generated_Source\PSoC4/UART_1_SPI_UART.c ****         #else
 372:.\Generated_Source\PSoC4/UART_1_SPI_UART.c ****         {
 373:.\Generated_Source\PSoC4/UART_1_SPI_UART.c ****             size = UART_1_GET_TX_FIFO_ENTRIES;
 132              		.loc 1 373 0
 133 0006 054B     		ldr	r3, .L10
 134 0008 1A68     		ldr	r2, [r3]
 135 000a 0F23     		mov	r3, #15
 136 000c 1340     		and	r3, r2
 137 000e 7B60     		str	r3, [r7, #4]
 374:.\Generated_Source\PSoC4/UART_1_SPI_UART.c ****         }
ARM GAS  C:\Users\mitchell\AppData\Local\Temp\ccWE89b8.s 			page 10


 375:.\Generated_Source\PSoC4/UART_1_SPI_UART.c ****         #endif
 376:.\Generated_Source\PSoC4/UART_1_SPI_UART.c **** 
 377:.\Generated_Source\PSoC4/UART_1_SPI_UART.c ****         return (size);
 138              		.loc 1 377 0
 139 0010 7B68     		ldr	r3, [r7, #4]
 378:.\Generated_Source\PSoC4/UART_1_SPI_UART.c ****     }
 140              		.loc 1 378 0
 141 0012 181C     		mov	r0, r3
 142 0014 BD46     		mov	sp, r7
 143 0016 02B0     		add	sp, sp, #8
 144              		@ sp needed
 145 0018 80BD     		pop	{r7, pc}
 146              	.L11:
 147 001a C046     		.align	2
 148              	.L10:
 149 001c 08020640 		.word	1074135560
 150              		.cfi_endproc
 151              	.LFE2:
 152              		.size	UART_1_SpiUartGetTxBufferSize, .-UART_1_SpiUartGetTxBufferSize
 153              		.section	.text.UART_1_SpiUartClearTxBuffer,"ax",%progbits
 154              		.align	2
 155              		.global	UART_1_SpiUartClearTxBuffer
 156              		.code	16
 157              		.thumb_func
 158              		.type	UART_1_SpiUartClearTxBuffer, %function
 159              	UART_1_SpiUartClearTxBuffer:
 160              	.LFB3:
 379:.\Generated_Source\PSoC4/UART_1_SPI_UART.c **** 
 380:.\Generated_Source\PSoC4/UART_1_SPI_UART.c **** 
 381:.\Generated_Source\PSoC4/UART_1_SPI_UART.c ****     /*******************************************************************************
 382:.\Generated_Source\PSoC4/UART_1_SPI_UART.c ****     * Function Name: UART_1_SpiUartClearTxBuffer
 383:.\Generated_Source\PSoC4/UART_1_SPI_UART.c ****     ********************************************************************************
 384:.\Generated_Source\PSoC4/UART_1_SPI_UART.c ****     *
 385:.\Generated_Source\PSoC4/UART_1_SPI_UART.c ****     * Summary:
 386:.\Generated_Source\PSoC4/UART_1_SPI_UART.c ****     *  Clears the transmit buffer and TX FIFO.
 387:.\Generated_Source\PSoC4/UART_1_SPI_UART.c ****     *
 388:.\Generated_Source\PSoC4/UART_1_SPI_UART.c ****     * Parameters:
 389:.\Generated_Source\PSoC4/UART_1_SPI_UART.c ****     *  None
 390:.\Generated_Source\PSoC4/UART_1_SPI_UART.c ****     *
 391:.\Generated_Source\PSoC4/UART_1_SPI_UART.c ****     * Return:
 392:.\Generated_Source\PSoC4/UART_1_SPI_UART.c ****     *  None
 393:.\Generated_Source\PSoC4/UART_1_SPI_UART.c ****     *
 394:.\Generated_Source\PSoC4/UART_1_SPI_UART.c ****     *******************************************************************************/
 395:.\Generated_Source\PSoC4/UART_1_SPI_UART.c ****     void UART_1_SpiUartClearTxBuffer(void)
 396:.\Generated_Source\PSoC4/UART_1_SPI_UART.c ****     {
 161              		.loc 1 396 0
 162              		.cfi_startproc
 163 0000 80B5     		push	{r7, lr}
 164              		.cfi_def_cfa_offset 8
 165              		.cfi_offset 7, -8
 166              		.cfi_offset 14, -4
 167 0002 00AF     		add	r7, sp, #0
 168              		.cfi_def_cfa_register 7
 397:.\Generated_Source\PSoC4/UART_1_SPI_UART.c ****         #if (UART_1_CHECK_TX_SW_BUFFER)
 398:.\Generated_Source\PSoC4/UART_1_SPI_UART.c ****         {
 399:.\Generated_Source\PSoC4/UART_1_SPI_UART.c ****             /* Lock from component interruption */
 400:.\Generated_Source\PSoC4/UART_1_SPI_UART.c ****             UART_1_DisableInt();
ARM GAS  C:\Users\mitchell\AppData\Local\Temp\ccWE89b8.s 			page 11


 401:.\Generated_Source\PSoC4/UART_1_SPI_UART.c **** 
 402:.\Generated_Source\PSoC4/UART_1_SPI_UART.c ****             /* Flush TX software buffer */
 403:.\Generated_Source\PSoC4/UART_1_SPI_UART.c ****             UART_1_txBufferHead = UART_1_txBufferTail;
 404:.\Generated_Source\PSoC4/UART_1_SPI_UART.c **** 
 405:.\Generated_Source\PSoC4/UART_1_SPI_UART.c ****             UART_1_INTR_TX_MASK_REG &= (uint32) ~UART_1_INTR_TX_NOT_FULL;
 406:.\Generated_Source\PSoC4/UART_1_SPI_UART.c ****             UART_1_CLEAR_TX_FIFO;
 407:.\Generated_Source\PSoC4/UART_1_SPI_UART.c ****             UART_1_ClearTxInterruptSource(UART_1_INTR_TX_ALL);
 408:.\Generated_Source\PSoC4/UART_1_SPI_UART.c **** 
 409:.\Generated_Source\PSoC4/UART_1_SPI_UART.c ****             /* Release lock */
 410:.\Generated_Source\PSoC4/UART_1_SPI_UART.c ****             UART_1_EnableInt();
 411:.\Generated_Source\PSoC4/UART_1_SPI_UART.c ****         }
 412:.\Generated_Source\PSoC4/UART_1_SPI_UART.c ****         #else
 413:.\Generated_Source\PSoC4/UART_1_SPI_UART.c ****         {
 414:.\Generated_Source\PSoC4/UART_1_SPI_UART.c ****             UART_1_CLEAR_TX_FIFO;
 169              		.loc 1 414 0
 170 0004 074B     		ldr	r3, .L13
 171 0006 074A     		ldr	r2, .L13
 172 0008 1268     		ldr	r2, [r2]
 173 000a 8021     		mov	r1, #128
 174 000c 4902     		lsl	r1, r1, #9
 175 000e 0A43     		orr	r2, r1
 176 0010 1A60     		str	r2, [r3]
 177 0012 044B     		ldr	r3, .L13
 178 0014 034A     		ldr	r2, .L13
 179 0016 1168     		ldr	r1, [r2]
 180 0018 034A     		ldr	r2, .L13+4
 181 001a 0A40     		and	r2, r1
 182 001c 1A60     		str	r2, [r3]
 415:.\Generated_Source\PSoC4/UART_1_SPI_UART.c ****         }
 416:.\Generated_Source\PSoC4/UART_1_SPI_UART.c ****         #endif
 417:.\Generated_Source\PSoC4/UART_1_SPI_UART.c ****     }
 183              		.loc 1 417 0
 184 001e BD46     		mov	sp, r7
 185              		@ sp needed
 186 0020 80BD     		pop	{r7, pc}
 187              	.L14:
 188 0022 C046     		.align	2
 189              	.L13:
 190 0024 04020640 		.word	1074135556
 191 0028 FFFFFEFF 		.word	-65537
 192              		.cfi_endproc
 193              	.LFE3:
 194              		.size	UART_1_SpiUartClearTxBuffer, .-UART_1_SpiUartClearTxBuffer
 195              		.section	.text.UART_1_SpiUartDisableIntRx,"ax",%progbits
 196              		.align	2
 197              		.global	UART_1_SpiUartDisableIntRx
 198              		.code	16
 199              		.thumb_func
 200              		.type	UART_1_SpiUartDisableIntRx, %function
 201              	UART_1_SpiUartDisableIntRx:
 202              	.LFB4:
 418:.\Generated_Source\PSoC4/UART_1_SPI_UART.c **** 
 419:.\Generated_Source\PSoC4/UART_1_SPI_UART.c **** #endif /* (UART_1_TX_DIRECTION) */
 420:.\Generated_Source\PSoC4/UART_1_SPI_UART.c **** 
 421:.\Generated_Source\PSoC4/UART_1_SPI_UART.c **** 
 422:.\Generated_Source\PSoC4/UART_1_SPI_UART.c **** /*******************************************************************************
 423:.\Generated_Source\PSoC4/UART_1_SPI_UART.c **** * Function Name: UART_1_SpiUartDisableIntRx
ARM GAS  C:\Users\mitchell\AppData\Local\Temp\ccWE89b8.s 			page 12


 424:.\Generated_Source\PSoC4/UART_1_SPI_UART.c **** ********************************************************************************
 425:.\Generated_Source\PSoC4/UART_1_SPI_UART.c **** *
 426:.\Generated_Source\PSoC4/UART_1_SPI_UART.c **** * Summary:
 427:.\Generated_Source\PSoC4/UART_1_SPI_UART.c **** *  Disables the RX interrupt sources.
 428:.\Generated_Source\PSoC4/UART_1_SPI_UART.c **** *
 429:.\Generated_Source\PSoC4/UART_1_SPI_UART.c **** * Parameters:
 430:.\Generated_Source\PSoC4/UART_1_SPI_UART.c **** *  None
 431:.\Generated_Source\PSoC4/UART_1_SPI_UART.c **** *
 432:.\Generated_Source\PSoC4/UART_1_SPI_UART.c **** * Return:
 433:.\Generated_Source\PSoC4/UART_1_SPI_UART.c **** *  Returns the RX interrupt sources enabled before the function call.
 434:.\Generated_Source\PSoC4/UART_1_SPI_UART.c **** *
 435:.\Generated_Source\PSoC4/UART_1_SPI_UART.c **** *******************************************************************************/
 436:.\Generated_Source\PSoC4/UART_1_SPI_UART.c **** uint32 UART_1_SpiUartDisableIntRx(void)
 437:.\Generated_Source\PSoC4/UART_1_SPI_UART.c **** {
 203              		.loc 1 437 0
 204              		.cfi_startproc
 205 0000 80B5     		push	{r7, lr}
 206              		.cfi_def_cfa_offset 8
 207              		.cfi_offset 7, -8
 208              		.cfi_offset 14, -4
 209 0002 82B0     		sub	sp, sp, #8
 210              		.cfi_def_cfa_offset 16
 211 0004 00AF     		add	r7, sp, #0
 212              		.cfi_def_cfa_register 7
 438:.\Generated_Source\PSoC4/UART_1_SPI_UART.c ****     uint32 intSource;
 439:.\Generated_Source\PSoC4/UART_1_SPI_UART.c **** 
 440:.\Generated_Source\PSoC4/UART_1_SPI_UART.c ****     intSource = UART_1_GetRxInterruptMode();
 213              		.loc 1 440 0
 214 0006 054B     		ldr	r3, .L17
 215 0008 1B68     		ldr	r3, [r3]
 216 000a 7B60     		str	r3, [r7, #4]
 441:.\Generated_Source\PSoC4/UART_1_SPI_UART.c **** 
 442:.\Generated_Source\PSoC4/UART_1_SPI_UART.c ****     UART_1_SetRxInterruptMode(UART_1_NO_INTR_SOURCES);
 217              		.loc 1 442 0
 218 000c 034B     		ldr	r3, .L17
 219 000e 0022     		mov	r2, #0
 220 0010 1A60     		str	r2, [r3]
 443:.\Generated_Source\PSoC4/UART_1_SPI_UART.c **** 
 444:.\Generated_Source\PSoC4/UART_1_SPI_UART.c ****     return (intSource);
 221              		.loc 1 444 0
 222 0012 7B68     		ldr	r3, [r7, #4]
 445:.\Generated_Source\PSoC4/UART_1_SPI_UART.c **** }
 223              		.loc 1 445 0
 224 0014 181C     		mov	r0, r3
 225 0016 BD46     		mov	sp, r7
 226 0018 02B0     		add	sp, sp, #8
 227              		@ sp needed
 228 001a 80BD     		pop	{r7, pc}
 229              	.L18:
 230              		.align	2
 231              	.L17:
 232 001c C80F0640 		.word	1074139080
 233              		.cfi_endproc
 234              	.LFE4:
 235              		.size	UART_1_SpiUartDisableIntRx, .-UART_1_SpiUartDisableIntRx
 236              		.section	.text.UART_1_SpiUartDisableIntTx,"ax",%progbits
 237              		.align	2
ARM GAS  C:\Users\mitchell\AppData\Local\Temp\ccWE89b8.s 			page 13


 238              		.global	UART_1_SpiUartDisableIntTx
 239              		.code	16
 240              		.thumb_func
 241              		.type	UART_1_SpiUartDisableIntTx, %function
 242              	UART_1_SpiUartDisableIntTx:
 243              	.LFB5:
 446:.\Generated_Source\PSoC4/UART_1_SPI_UART.c **** 
 447:.\Generated_Source\PSoC4/UART_1_SPI_UART.c **** 
 448:.\Generated_Source\PSoC4/UART_1_SPI_UART.c **** /*******************************************************************************
 449:.\Generated_Source\PSoC4/UART_1_SPI_UART.c **** * Function Name: UART_1_SpiUartDisableIntTx
 450:.\Generated_Source\PSoC4/UART_1_SPI_UART.c **** ********************************************************************************
 451:.\Generated_Source\PSoC4/UART_1_SPI_UART.c **** *
 452:.\Generated_Source\PSoC4/UART_1_SPI_UART.c **** * Summary:
 453:.\Generated_Source\PSoC4/UART_1_SPI_UART.c **** *  Disables TX interrupt sources.
 454:.\Generated_Source\PSoC4/UART_1_SPI_UART.c **** *
 455:.\Generated_Source\PSoC4/UART_1_SPI_UART.c **** * Parameters:
 456:.\Generated_Source\PSoC4/UART_1_SPI_UART.c **** *  None
 457:.\Generated_Source\PSoC4/UART_1_SPI_UART.c **** *
 458:.\Generated_Source\PSoC4/UART_1_SPI_UART.c **** * Return:
 459:.\Generated_Source\PSoC4/UART_1_SPI_UART.c **** *  Returns TX interrupt sources enabled before function call.
 460:.\Generated_Source\PSoC4/UART_1_SPI_UART.c **** *
 461:.\Generated_Source\PSoC4/UART_1_SPI_UART.c **** *******************************************************************************/
 462:.\Generated_Source\PSoC4/UART_1_SPI_UART.c **** uint32 UART_1_SpiUartDisableIntTx(void)
 463:.\Generated_Source\PSoC4/UART_1_SPI_UART.c **** {
 244              		.loc 1 463 0
 245              		.cfi_startproc
 246 0000 80B5     		push	{r7, lr}
 247              		.cfi_def_cfa_offset 8
 248              		.cfi_offset 7, -8
 249              		.cfi_offset 14, -4
 250 0002 82B0     		sub	sp, sp, #8
 251              		.cfi_def_cfa_offset 16
 252 0004 00AF     		add	r7, sp, #0
 253              		.cfi_def_cfa_register 7
 464:.\Generated_Source\PSoC4/UART_1_SPI_UART.c ****     uint32 intSourceMask;
 465:.\Generated_Source\PSoC4/UART_1_SPI_UART.c **** 
 466:.\Generated_Source\PSoC4/UART_1_SPI_UART.c ****     intSourceMask = UART_1_GetTxInterruptMode();
 254              		.loc 1 466 0
 255 0006 054B     		ldr	r3, .L21
 256 0008 1B68     		ldr	r3, [r3]
 257 000a 7B60     		str	r3, [r7, #4]
 467:.\Generated_Source\PSoC4/UART_1_SPI_UART.c **** 
 468:.\Generated_Source\PSoC4/UART_1_SPI_UART.c ****     UART_1_SetTxInterruptMode(UART_1_NO_INTR_SOURCES);
 258              		.loc 1 468 0
 259 000c 034B     		ldr	r3, .L21
 260 000e 0022     		mov	r2, #0
 261 0010 1A60     		str	r2, [r3]
 469:.\Generated_Source\PSoC4/UART_1_SPI_UART.c **** 
 470:.\Generated_Source\PSoC4/UART_1_SPI_UART.c ****     return (intSourceMask);
 262              		.loc 1 470 0
 263 0012 7B68     		ldr	r3, [r7, #4]
 471:.\Generated_Source\PSoC4/UART_1_SPI_UART.c **** }
 264              		.loc 1 471 0
 265 0014 181C     		mov	r0, r3
 266 0016 BD46     		mov	sp, r7
 267 0018 02B0     		add	sp, sp, #8
 268              		@ sp needed
ARM GAS  C:\Users\mitchell\AppData\Local\Temp\ccWE89b8.s 			page 14


 269 001a 80BD     		pop	{r7, pc}
 270              	.L22:
 271              		.align	2
 272              	.L21:
 273 001c 880F0640 		.word	1074139016
 274              		.cfi_endproc
 275              	.LFE5:
 276              		.size	UART_1_SpiUartDisableIntTx, .-UART_1_SpiUartDisableIntTx
 277              		.text
 278              	.Letext0:
 279              		.file 2 "Generated_Source\\PSoC4/cytypes.h"