ARM GAS  C:\Users\mitchell\AppData\Local\Temp\ccojHx63.s 			page 1


   1              		.syntax unified
   2              		.cpu cortex-m3
   3              		.fpu softvfp
   4              		.eabi_attribute 20, 1
   5              		.eabi_attribute 21, 1
   6              		.eabi_attribute 23, 3
   7              		.eabi_attribute 24, 1
   8              		.eabi_attribute 25, 1
   9              		.eabi_attribute 26, 1
  10              		.eabi_attribute 30, 1
  11              		.eabi_attribute 34, 1
  12              		.eabi_attribute 18, 4
  13              		.thumb
  14              		.file	"main.c"
  15              		.text
  16              	.Ltext0:
  17              		.cfi_sections	.debug_frame
  18              		.section	.text.main,"ax",%progbits
  19              		.align	2
  20              		.global	main
  21              		.thumb
  22              		.thumb_func
  23              		.type	main, %function
  24              	main:
  25              	.LFB63:
  26              		.file 1 ".\\main.c"
   1:.\main.c      **** /* ========================================
   2:.\main.c      ****  *
   3:.\main.c      ****  * Copyright YOUR COMPANY, THE YEAR
   4:.\main.c      ****  * All Rights Reserved
   5:.\main.c      ****  * UNPUBLISHED, LICENSED SOFTWARE.
   6:.\main.c      ****  *
   7:.\main.c      ****  * CONFIDENTIAL AND PROPRIETARY INFORMATION
   8:.\main.c      ****  * WHICH IS THE PROPERTY OF your company.
   9:.\main.c      ****  *
  10:.\main.c      ****  * ========================================
  11:.\main.c      **** */
  12:.\main.c      **** #include <project.h>
  13:.\main.c      **** #include "communication.h"
  14:.\main.c      **** 
  15:.\main.c      **** int main()
  16:.\main.c      **** {
  27              		.loc 1 16 0
  28              		.cfi_startproc
  29              		@ args = 0, pretend = 0, frame = 0
  30              		@ frame_needed = 0, uses_anonymous_args = 0
  31 0000 38B5     		push	{r3, r4, r5, lr}
  32              		.cfi_def_cfa_offset 16
  33              		.cfi_offset 3, -16
  34              		.cfi_offset 4, -12
  35              		.cfi_offset 5, -8
  36              		.cfi_offset 14, -4
  17:.\main.c      ****     CyGlobalIntEnable; /* Enable global interrupts. */
  37              		.loc 1 17 0
  38              	@ 17 ".\main.c" 1
  39 0002 62B6     		CPSIE   i
  40              	@ 0 "" 2
ARM GAS  C:\Users\mitchell\AppData\Local\Temp\ccojHx63.s 			page 2


  18:.\main.c      ****     UART_Start();
  41              		.loc 1 18 0
  42              		.thumb
  43 0004 FFF7FEFF 		bl	UART_Start
  44              	.LVL0:
  45              	.L3:
  46              	.LBB2:
  19:.\main.c      **** 
  20:.\main.c      ****     /* Place your initialization/startup code here (e.g. MyInst_Start()) */
  21:.\main.c      **** 
  22:.\main.c      ****     for(;;)
  23:.\main.c      ****     {
  24:.\main.c      ****         Timer_1_WriteCounter(Timer_1_ReadPeriod());
  47              		.loc 1 24 0 discriminator 1
  48 0008 FFF7FEFF 		bl	Timer_1_ReadPeriod
  49              	.LVL1:
  50 000c FFF7FEFF 		bl	Timer_1_WriteCounter
  51              	.LVL2:
  25:.\main.c      ****         Timer_1_Start();
  52              		.loc 1 25 0 discriminator 1
  53 0010 FFF7FEFF 		bl	Timer_1_Start
  54              	.LVL3:
  26:.\main.c      ****         //Timer_1_Init();
  27:.\main.c      ****         int count = Timer_1_ReadCounter();
  55              		.loc 1 27 0 discriminator 1
  56 0014 FFF7FEFF 		bl	Timer_1_ReadCounter
  57              	.LVL4:
  58 0018 0446     		mov	r4, r0
  59              	.LVL5:
  28:.\main.c      ****         int start = count;
  29:.\main.c      ****         //output_pad();
  30:.\main.c      ****         //output_int(count);
  31:.\main.c      ****         
  32:.\main.c      ****         CyDelay(1000);
  60              		.loc 1 32 0 discriminator 1
  61 001a 4FF47A70 		mov	r0, #1000
  62              	.LVL6:
  63 001e FFF7FEFF 		bl	CyDelay
  64              	.LVL7:
  33:.\main.c      ****         
  34:.\main.c      ****         count = Timer_1_ReadCounter();
  65              		.loc 1 34 0 discriminator 1
  66 0022 FFF7FEFF 		bl	Timer_1_ReadCounter
  67              	.LVL8:
  68 0026 0546     		mov	r5, r0
  69              	.LVL9:
  35:.\main.c      ****         int stop = count;
  36:.\main.c      ****         //output_pad();
  37:.\main.c      ****         //output_int(count);
  38:.\main.c      ****         output_pad();
  70              		.loc 1 38 0 discriminator 1
  71 0028 FFF7FEFF 		bl	output_pad
  72              	.LVL10:
  39:.\main.c      ****         output_int((start - stop) / 32);
  73              		.loc 1 39 0 discriminator 1
  74 002c 601B     		subs	r0, r4, r5
  75 002e 00D5     		bpl	.L2
ARM GAS  C:\Users\mitchell\AppData\Local\Temp\ccojHx63.s 			page 3


  76 0030 1F30     		adds	r0, r0, #31
  77              	.L2:
  78 0032 4011     		asrs	r0, r0, #5
  79 0034 FFF7FEFF 		bl	output_int
  80              	.LVL11:
  40:.\main.c      ****         //output_pad();
  41:.\main.c      ****         //output_int(999999999);
  42:.\main.c      ****         Timer_1_Stop();
  81              		.loc 1 42 0 discriminator 1
  82 0038 FFF7FEFF 		bl	Timer_1_Stop
  83              	.LVL12:
  84              	.LBE2:
  43:.\main.c      ****     }
  85              		.loc 1 43 0 discriminator 1
  86 003c E4E7     		b	.L3
  87              		.cfi_endproc
  88              	.LFE63:
  89              		.size	main, .-main
  90 003e 00BF     		.text
  91              	.Letext0:
  92              		.file 2 "c:\\program files (x86)\\cypress\\psoc creator\\3.3\\psoc creator\\import\\gnu\\arm\\4.9.
  93              		.file 3 "c:\\program files (x86)\\cypress\\psoc creator\\3.3\\psoc creator\\import\\gnu\\arm\\4.9.
  94              		.file 4 "Generated_Source\\PSoC5/cytypes.h"
  95              		.file 5 "Generated_Source\\PSoC5/Timer_1.h"
  96              		.file 6 "Generated_Source\\PSoC5/CyLib.h"
  97              		.file 7 ".\\communication.h"
  98              		.file 8 "Generated_Source\\PSoC5/UART.h"
  99              		.file 9 "Generated_Source\\PSoC5/core_cm3.h"