ARM GAS  C:\Users\mitchell\AppData\Local\Temp\ccpcPoc8.s 			page 1


   1              		.syntax unified
   2              		.cpu cortex-m3
   3              		.fpu softvfp
   4              		.eabi_attribute 20, 1
   5              		.eabi_attribute 21, 1
   6              		.eabi_attribute 23, 3
   7              		.eabi_attribute 24, 1
   8              		.eabi_attribute 25, 1
   9              		.eabi_attribute 26, 1
  10              		.eabi_attribute 30, 1
  11              		.eabi_attribute 34, 1
  12              		.eabi_attribute 18, 4
  13              		.thumb
  14              		.file	"APPS_ADC_IntClock.c"
  15              		.text
  16              	.Ltext0:
  17              		.cfi_sections	.debug_frame
  18              		.section	.text.APPS_ADC_IntClock_Start,"ax",%progbits
  19              		.align	2
  20              		.global	APPS_ADC_IntClock_Start
  21              		.thumb
  22              		.thumb_func
  23              		.type	APPS_ADC_IntClock_Start, %function
  24              	APPS_ADC_IntClock_Start:
  25              	.LFB0:
  26              		.file 1 ".\\Generated_Source\\PSoC5\\APPS_ADC_IntClock.c"
   1:.\Generated_Source\PSoC5/APPS_ADC_IntClock.c **** /*******************************************************************************
   2:.\Generated_Source\PSoC5/APPS_ADC_IntClock.c **** * File Name: APPS_ADC_IntClock.c
   3:.\Generated_Source\PSoC5/APPS_ADC_IntClock.c **** * Version 2.20
   4:.\Generated_Source\PSoC5/APPS_ADC_IntClock.c **** *
   5:.\Generated_Source\PSoC5/APPS_ADC_IntClock.c **** *  Description:
   6:.\Generated_Source\PSoC5/APPS_ADC_IntClock.c **** *   This file provides the source code to the API for the clock component.
   7:.\Generated_Source\PSoC5/APPS_ADC_IntClock.c **** *
   8:.\Generated_Source\PSoC5/APPS_ADC_IntClock.c **** *  Note:
   9:.\Generated_Source\PSoC5/APPS_ADC_IntClock.c **** *
  10:.\Generated_Source\PSoC5/APPS_ADC_IntClock.c **** ********************************************************************************
  11:.\Generated_Source\PSoC5/APPS_ADC_IntClock.c **** * Copyright 2008-2012, Cypress Semiconductor Corporation.  All rights reserved.
  12:.\Generated_Source\PSoC5/APPS_ADC_IntClock.c **** * You may use this file only in accordance with the license, terms, conditions, 
  13:.\Generated_Source\PSoC5/APPS_ADC_IntClock.c **** * disclaimers, and limitations in the end user license agreement accompanying 
  14:.\Generated_Source\PSoC5/APPS_ADC_IntClock.c **** * the software package with which this file was provided.
  15:.\Generated_Source\PSoC5/APPS_ADC_IntClock.c **** *******************************************************************************/
  16:.\Generated_Source\PSoC5/APPS_ADC_IntClock.c **** 
  17:.\Generated_Source\PSoC5/APPS_ADC_IntClock.c **** #include <cydevice_trm.h>
  18:.\Generated_Source\PSoC5/APPS_ADC_IntClock.c **** #include "APPS_ADC_IntClock.h"
  19:.\Generated_Source\PSoC5/APPS_ADC_IntClock.c **** 
  20:.\Generated_Source\PSoC5/APPS_ADC_IntClock.c **** /* Clock Distribution registers. */
  21:.\Generated_Source\PSoC5/APPS_ADC_IntClock.c **** #define CLK_DIST_LD              (* (reg8 *) CYREG_CLKDIST_LD)
  22:.\Generated_Source\PSoC5/APPS_ADC_IntClock.c **** #define CLK_DIST_BCFG2           (* (reg8 *) CYREG_CLKDIST_BCFG2)
  23:.\Generated_Source\PSoC5/APPS_ADC_IntClock.c **** #define BCFG2_MASK               (0x80u)
  24:.\Generated_Source\PSoC5/APPS_ADC_IntClock.c **** #define CLK_DIST_DMASK           (* (reg8 *) CYREG_CLKDIST_DMASK)
  25:.\Generated_Source\PSoC5/APPS_ADC_IntClock.c **** #define CLK_DIST_AMASK           (* (reg8 *) CYREG_CLKDIST_AMASK)
  26:.\Generated_Source\PSoC5/APPS_ADC_IntClock.c **** 
  27:.\Generated_Source\PSoC5/APPS_ADC_IntClock.c **** #define HAS_CLKDIST_LD_DISABLE   (CY_PSOC3 || CY_PSOC5LP)
  28:.\Generated_Source\PSoC5/APPS_ADC_IntClock.c **** 
  29:.\Generated_Source\PSoC5/APPS_ADC_IntClock.c **** 
  30:.\Generated_Source\PSoC5/APPS_ADC_IntClock.c **** /*******************************************************************************
  31:.\Generated_Source\PSoC5/APPS_ADC_IntClock.c **** * Function Name: APPS_ADC_IntClock_Start
ARM GAS  C:\Users\mitchell\AppData\Local\Temp\ccpcPoc8.s 			page 2


  32:.\Generated_Source\PSoC5/APPS_ADC_IntClock.c **** ********************************************************************************
  33:.\Generated_Source\PSoC5/APPS_ADC_IntClock.c **** *
  34:.\Generated_Source\PSoC5/APPS_ADC_IntClock.c **** * Summary:
  35:.\Generated_Source\PSoC5/APPS_ADC_IntClock.c **** *  Starts the clock. Note that on startup, clocks may be already running if the
  36:.\Generated_Source\PSoC5/APPS_ADC_IntClock.c **** *  "Start on Reset" option is enabled in the DWR.
  37:.\Generated_Source\PSoC5/APPS_ADC_IntClock.c **** *
  38:.\Generated_Source\PSoC5/APPS_ADC_IntClock.c **** * Parameters:
  39:.\Generated_Source\PSoC5/APPS_ADC_IntClock.c **** *  None
  40:.\Generated_Source\PSoC5/APPS_ADC_IntClock.c **** *
  41:.\Generated_Source\PSoC5/APPS_ADC_IntClock.c **** * Returns:
  42:.\Generated_Source\PSoC5/APPS_ADC_IntClock.c **** *  None
  43:.\Generated_Source\PSoC5/APPS_ADC_IntClock.c **** *
  44:.\Generated_Source\PSoC5/APPS_ADC_IntClock.c **** *******************************************************************************/
  45:.\Generated_Source\PSoC5/APPS_ADC_IntClock.c **** void APPS_ADC_IntClock_Start(void) 
  46:.\Generated_Source\PSoC5/APPS_ADC_IntClock.c **** {
  27              		.loc 1 46 0
  28              		.cfi_startproc
  29              		@ args = 0, pretend = 0, frame = 0
  30              		@ frame_needed = 0, uses_anonymous_args = 0
  31              		@ link register save eliminated.
  47:.\Generated_Source\PSoC5/APPS_ADC_IntClock.c ****     /* Set the bit to enable the clock. */
  48:.\Generated_Source\PSoC5/APPS_ADC_IntClock.c ****     APPS_ADC_IntClock_CLKEN |= APPS_ADC_IntClock_CLKEN_MASK;
  32              		.loc 1 48 0
  33 0000 054B     		ldr	r3, .L2
  34 0002 1A78     		ldrb	r2, [r3]	@ zero_extendqisi2
  35 0004 42F00102 		orr	r2, r2, #1
  36 0008 1A70     		strb	r2, [r3]
  49:.\Generated_Source\PSoC5/APPS_ADC_IntClock.c **** 	APPS_ADC_IntClock_CLKSTBY |= APPS_ADC_IntClock_CLKSTBY_MASK;
  37              		.loc 1 49 0
  38 000a 1033     		adds	r3, r3, #16
  39 000c 1A78     		ldrb	r2, [r3]	@ zero_extendqisi2
  40 000e 42F00102 		orr	r2, r2, #1
  41 0012 1A70     		strb	r2, [r3]
  42 0014 7047     		bx	lr
  43              	.L3:
  44 0016 00BF     		.align	2
  45              	.L2:
  46 0018 A2430040 		.word	1073759138
  47              		.cfi_endproc
  48              	.LFE0:
  49              		.size	APPS_ADC_IntClock_Start, .-APPS_ADC_IntClock_Start
  50              		.section	.text.APPS_ADC_IntClock_Stop,"ax",%progbits
  51              		.align	2
  52              		.global	APPS_ADC_IntClock_Stop
  53              		.thumb
  54              		.thumb_func
  55              		.type	APPS_ADC_IntClock_Stop, %function
  56              	APPS_ADC_IntClock_Stop:
  57              	.LFB1:
  50:.\Generated_Source\PSoC5/APPS_ADC_IntClock.c **** }
  51:.\Generated_Source\PSoC5/APPS_ADC_IntClock.c **** 
  52:.\Generated_Source\PSoC5/APPS_ADC_IntClock.c **** 
  53:.\Generated_Source\PSoC5/APPS_ADC_IntClock.c **** /*******************************************************************************
  54:.\Generated_Source\PSoC5/APPS_ADC_IntClock.c **** * Function Name: APPS_ADC_IntClock_Stop
  55:.\Generated_Source\PSoC5/APPS_ADC_IntClock.c **** ********************************************************************************
  56:.\Generated_Source\PSoC5/APPS_ADC_IntClock.c **** *
  57:.\Generated_Source\PSoC5/APPS_ADC_IntClock.c **** * Summary:
ARM GAS  C:\Users\mitchell\AppData\Local\Temp\ccpcPoc8.s 			page 3


  58:.\Generated_Source\PSoC5/APPS_ADC_IntClock.c **** *  Stops the clock and returns immediately. This API does not require the
  59:.\Generated_Source\PSoC5/APPS_ADC_IntClock.c **** *  source clock to be running but may return before the hardware is actually
  60:.\Generated_Source\PSoC5/APPS_ADC_IntClock.c **** *  disabled. If the settings of the clock are changed after calling this
  61:.\Generated_Source\PSoC5/APPS_ADC_IntClock.c **** *  function, the clock may glitch when it is started. To avoid the clock
  62:.\Generated_Source\PSoC5/APPS_ADC_IntClock.c **** *  glitch, use the StopBlock function.
  63:.\Generated_Source\PSoC5/APPS_ADC_IntClock.c **** *
  64:.\Generated_Source\PSoC5/APPS_ADC_IntClock.c **** * Parameters:
  65:.\Generated_Source\PSoC5/APPS_ADC_IntClock.c **** *  None
  66:.\Generated_Source\PSoC5/APPS_ADC_IntClock.c **** *
  67:.\Generated_Source\PSoC5/APPS_ADC_IntClock.c **** * Returns:
  68:.\Generated_Source\PSoC5/APPS_ADC_IntClock.c **** *  None
  69:.\Generated_Source\PSoC5/APPS_ADC_IntClock.c **** *
  70:.\Generated_Source\PSoC5/APPS_ADC_IntClock.c **** *******************************************************************************/
  71:.\Generated_Source\PSoC5/APPS_ADC_IntClock.c **** void APPS_ADC_IntClock_Stop(void) 
  72:.\Generated_Source\PSoC5/APPS_ADC_IntClock.c **** {
  58              		.loc 1 72 0
  59              		.cfi_startproc
  60              		@ args = 0, pretend = 0, frame = 0
  61              		@ frame_needed = 0, uses_anonymous_args = 0
  62              		@ link register save eliminated.
  73:.\Generated_Source\PSoC5/APPS_ADC_IntClock.c ****     /* Clear the bit to disable the clock. */
  74:.\Generated_Source\PSoC5/APPS_ADC_IntClock.c ****     APPS_ADC_IntClock_CLKEN &= (uint8)(~APPS_ADC_IntClock_CLKEN_MASK);
  63              		.loc 1 74 0
  64 0000 054B     		ldr	r3, .L5
  65 0002 1A78     		ldrb	r2, [r3]	@ zero_extendqisi2
  66 0004 02F0FE02 		and	r2, r2, #254
  67 0008 1A70     		strb	r2, [r3]
  75:.\Generated_Source\PSoC5/APPS_ADC_IntClock.c **** 	APPS_ADC_IntClock_CLKSTBY &= (uint8)(~APPS_ADC_IntClock_CLKSTBY_MASK);
  68              		.loc 1 75 0
  69 000a 1033     		adds	r3, r3, #16
  70 000c 1A78     		ldrb	r2, [r3]	@ zero_extendqisi2
  71 000e 02F0FE02 		and	r2, r2, #254
  72 0012 1A70     		strb	r2, [r3]
  73 0014 7047     		bx	lr
  74              	.L6:
  75 0016 00BF     		.align	2
  76              	.L5:
  77 0018 A2430040 		.word	1073759138
  78              		.cfi_endproc
  79              	.LFE1:
  80              		.size	APPS_ADC_IntClock_Stop, .-APPS_ADC_IntClock_Stop
  81              		.section	.text.APPS_ADC_IntClock_StopBlock,"ax",%progbits
  82              		.align	2
  83              		.global	APPS_ADC_IntClock_StopBlock
  84              		.thumb
  85              		.thumb_func
  86              		.type	APPS_ADC_IntClock_StopBlock, %function
  87              	APPS_ADC_IntClock_StopBlock:
  88              	.LFB2:
  76:.\Generated_Source\PSoC5/APPS_ADC_IntClock.c **** }
  77:.\Generated_Source\PSoC5/APPS_ADC_IntClock.c **** 
  78:.\Generated_Source\PSoC5/APPS_ADC_IntClock.c **** 
  79:.\Generated_Source\PSoC5/APPS_ADC_IntClock.c **** #if(CY_PSOC3 || CY_PSOC5LP)
  80:.\Generated_Source\PSoC5/APPS_ADC_IntClock.c **** 
  81:.\Generated_Source\PSoC5/APPS_ADC_IntClock.c **** 
  82:.\Generated_Source\PSoC5/APPS_ADC_IntClock.c **** /*******************************************************************************
  83:.\Generated_Source\PSoC5/APPS_ADC_IntClock.c **** * Function Name: APPS_ADC_IntClock_StopBlock
ARM GAS  C:\Users\mitchell\AppData\Local\Temp\ccpcPoc8.s 			page 4


  84:.\Generated_Source\PSoC5/APPS_ADC_IntClock.c **** ********************************************************************************
  85:.\Generated_Source\PSoC5/APPS_ADC_IntClock.c **** *
  86:.\Generated_Source\PSoC5/APPS_ADC_IntClock.c **** * Summary:
  87:.\Generated_Source\PSoC5/APPS_ADC_IntClock.c **** *  Stops the clock and waits for the hardware to actually be disabled before
  88:.\Generated_Source\PSoC5/APPS_ADC_IntClock.c **** *  returning. This ensures that the clock is never truncated (high part of the
  89:.\Generated_Source\PSoC5/APPS_ADC_IntClock.c **** *  cycle will terminate before the clock is disabled and the API returns).
  90:.\Generated_Source\PSoC5/APPS_ADC_IntClock.c **** *  Note that the source clock must be running or this API will never return as
  91:.\Generated_Source\PSoC5/APPS_ADC_IntClock.c **** *  a stopped clock cannot be disabled.
  92:.\Generated_Source\PSoC5/APPS_ADC_IntClock.c **** *
  93:.\Generated_Source\PSoC5/APPS_ADC_IntClock.c **** * Parameters:
  94:.\Generated_Source\PSoC5/APPS_ADC_IntClock.c **** *  None
  95:.\Generated_Source\PSoC5/APPS_ADC_IntClock.c **** *
  96:.\Generated_Source\PSoC5/APPS_ADC_IntClock.c **** * Returns:
  97:.\Generated_Source\PSoC5/APPS_ADC_IntClock.c **** *  None
  98:.\Generated_Source\PSoC5/APPS_ADC_IntClock.c **** *
  99:.\Generated_Source\PSoC5/APPS_ADC_IntClock.c **** *******************************************************************************/
 100:.\Generated_Source\PSoC5/APPS_ADC_IntClock.c **** void APPS_ADC_IntClock_StopBlock(void) 
 101:.\Generated_Source\PSoC5/APPS_ADC_IntClock.c **** {
  89              		.loc 1 101 0
  90              		.cfi_startproc
  91              		@ args = 0, pretend = 0, frame = 0
  92              		@ frame_needed = 0, uses_anonymous_args = 0
  93              		@ link register save eliminated.
 102:.\Generated_Source\PSoC5/APPS_ADC_IntClock.c ****     if ((APPS_ADC_IntClock_CLKEN & APPS_ADC_IntClock_CLKEN_MASK) != 0u)
  94              		.loc 1 102 0
  95 0000 174B     		ldr	r3, .L11
  96 0002 1B78     		ldrb	r3, [r3]	@ zero_extendqisi2
  97 0004 13F0010F 		tst	r3, #1
  98 0008 28D0     		beq	.L7
  99              	.LBB2:
 103:.\Generated_Source\PSoC5/APPS_ADC_IntClock.c ****     {
 104:.\Generated_Source\PSoC5/APPS_ADC_IntClock.c **** #if HAS_CLKDIST_LD_DISABLE
 105:.\Generated_Source\PSoC5/APPS_ADC_IntClock.c ****         uint16 oldDivider;
 106:.\Generated_Source\PSoC5/APPS_ADC_IntClock.c **** 
 107:.\Generated_Source\PSoC5/APPS_ADC_IntClock.c ****         CLK_DIST_LD = 0u;
 100              		.loc 1 107 0
 101 000a 164B     		ldr	r3, .L11+4
 102 000c 0022     		movs	r2, #0
 103 000e 1A70     		strb	r2, [r3]
 108:.\Generated_Source\PSoC5/APPS_ADC_IntClock.c **** 
 109:.\Generated_Source\PSoC5/APPS_ADC_IntClock.c ****         /* Clear all the mask bits except ours. */
 110:.\Generated_Source\PSoC5/APPS_ADC_IntClock.c **** #if defined(APPS_ADC_IntClock__CFG3)
 111:.\Generated_Source\PSoC5/APPS_ADC_IntClock.c ****         CLK_DIST_AMASK = APPS_ADC_IntClock_CLKEN_MASK;
 112:.\Generated_Source\PSoC5/APPS_ADC_IntClock.c ****         CLK_DIST_DMASK = 0x00u;
 113:.\Generated_Source\PSoC5/APPS_ADC_IntClock.c **** #else
 114:.\Generated_Source\PSoC5/APPS_ADC_IntClock.c ****         CLK_DIST_DMASK = APPS_ADC_IntClock_CLKEN_MASK;
 104              		.loc 1 114 0
 105 0010 0120     		movs	r0, #1
 106 0012 1549     		ldr	r1, .L11+8
 107 0014 0870     		strb	r0, [r1]
 115:.\Generated_Source\PSoC5/APPS_ADC_IntClock.c ****         CLK_DIST_AMASK = 0x00u;
 108              		.loc 1 115 0
 109 0016 0431     		adds	r1, r1, #4
 110 0018 0A70     		strb	r2, [r1]
 116:.\Generated_Source\PSoC5/APPS_ADC_IntClock.c **** #endif /* APPS_ADC_IntClock__CFG3 */
 117:.\Generated_Source\PSoC5/APPS_ADC_IntClock.c **** 
 118:.\Generated_Source\PSoC5/APPS_ADC_IntClock.c ****         /* Clear mask of bus clock. */
ARM GAS  C:\Users\mitchell\AppData\Local\Temp\ccpcPoc8.s 			page 5


 119:.\Generated_Source\PSoC5/APPS_ADC_IntClock.c ****         CLK_DIST_BCFG2 &= (uint8)(~BCFG2_MASK);
 111              		.loc 1 119 0
 112 001a 144A     		ldr	r2, .L11+12
 113 001c 1178     		ldrb	r1, [r2]	@ zero_extendqisi2
 114 001e 01F07F01 		and	r1, r1, #127
 115 0022 1170     		strb	r1, [r2]
 120:.\Generated_Source\PSoC5/APPS_ADC_IntClock.c **** 
 121:.\Generated_Source\PSoC5/APPS_ADC_IntClock.c ****         oldDivider = CY_GET_REG16(APPS_ADC_IntClock_DIV_PTR);
 116              		.loc 1 121 0
 117 0024 7832     		adds	r2, r2, #120
 118 0026 1188     		ldrh	r1, [r2]
 119 0028 89B2     		uxth	r1, r1
 120              	.LVL0:
 122:.\Generated_Source\PSoC5/APPS_ADC_IntClock.c ****         CY_SET_REG16(CYREG_CLKDIST_WRK0, oldDivider);
 121              		.loc 1 122 0
 122 002a 7E3A     		subs	r2, r2, #126
 123 002c 1180     		strh	r1, [r2]	@ movhi
 123:.\Generated_Source\PSoC5/APPS_ADC_IntClock.c ****         CLK_DIST_LD = CYCLK_LD_DISABLE | CYCLK_LD_SYNC_EN | CYCLK_LD_LOAD;
 124              		.loc 1 123 0
 125 002e 0722     		movs	r2, #7
 126 0030 1A70     		strb	r2, [r3]
 124:.\Generated_Source\PSoC5/APPS_ADC_IntClock.c **** 
 125:.\Generated_Source\PSoC5/APPS_ADC_IntClock.c ****         /* Wait for clock to be disabled */
 126:.\Generated_Source\PSoC5/APPS_ADC_IntClock.c ****         while ((CLK_DIST_LD & CYCLK_LD_LOAD) != 0u) { }
 127              		.loc 1 126 0
 128 0032 1A46     		mov	r2, r3
 129              	.L9:
 130              		.loc 1 126 0 is_stmt 0 discriminator 1
 131 0034 1378     		ldrb	r3, [r2]	@ zero_extendqisi2
 132 0036 13F0010F 		tst	r3, #1
 133 003a FBD1     		bne	.L9
 127:.\Generated_Source\PSoC5/APPS_ADC_IntClock.c **** #endif /* HAS_CLKDIST_LD_DISABLE */
 128:.\Generated_Source\PSoC5/APPS_ADC_IntClock.c **** 
 129:.\Generated_Source\PSoC5/APPS_ADC_IntClock.c ****         /* Clear the bit to disable the clock. */
 130:.\Generated_Source\PSoC5/APPS_ADC_IntClock.c ****         APPS_ADC_IntClock_CLKEN &= (uint8)(~APPS_ADC_IntClock_CLKEN_MASK);
 134              		.loc 1 130 0 is_stmt 1
 135 003c 084B     		ldr	r3, .L11
 136 003e 1A78     		ldrb	r2, [r3]	@ zero_extendqisi2
 137 0040 02F0FE02 		and	r2, r2, #254
 138 0044 1A70     		strb	r2, [r3]
 131:.\Generated_Source\PSoC5/APPS_ADC_IntClock.c ****         APPS_ADC_IntClock_CLKSTBY &= (uint8)(~APPS_ADC_IntClock_CLKSTBY_MASK);
 139              		.loc 1 131 0
 140 0046 1033     		adds	r3, r3, #16
 141 0048 1A78     		ldrb	r2, [r3]	@ zero_extendqisi2
 142 004a 02F0FE02 		and	r2, r2, #254
 143 004e 1A70     		strb	r2, [r3]
 132:.\Generated_Source\PSoC5/APPS_ADC_IntClock.c **** 
 133:.\Generated_Source\PSoC5/APPS_ADC_IntClock.c **** #if HAS_CLKDIST_LD_DISABLE
 134:.\Generated_Source\PSoC5/APPS_ADC_IntClock.c ****         /* Clear the disable bit */
 135:.\Generated_Source\PSoC5/APPS_ADC_IntClock.c ****         CLK_DIST_LD = 0x00u;
 144              		.loc 1 135 0
 145 0050 0022     		movs	r2, #0
 146 0052 A3F2B133 		subw	r3, r3, #945
 147 0056 1A70     		strb	r2, [r3]
 136:.\Generated_Source\PSoC5/APPS_ADC_IntClock.c ****         CY_SET_REG16(APPS_ADC_IntClock_DIV_PTR, oldDivider);
 148              		.loc 1 136 0
 149 0058 7F33     		adds	r3, r3, #127
ARM GAS  C:\Users\mitchell\AppData\Local\Temp\ccpcPoc8.s 			page 6


 150 005a 1980     		strh	r1, [r3]	@ movhi
 151              	.LVL1:
 152              	.L7:
 153 005c 7047     		bx	lr
 154              	.L12:
 155 005e 00BF     		.align	2
 156              	.L11:
 157 0060 A2430040 		.word	1073759138
 158 0064 01400040 		.word	1073758209
 159 0068 10400040 		.word	1073758224
 160 006c 08400040 		.word	1073758216
 161              	.LBE2:
 162              		.cfi_endproc
 163              	.LFE2:
 164              		.size	APPS_ADC_IntClock_StopBlock, .-APPS_ADC_IntClock_StopBlock
 165              		.section	.text.APPS_ADC_IntClock_StandbyPower,"ax",%progbits
 166              		.align	2
 167              		.global	APPS_ADC_IntClock_StandbyPower
 168              		.thumb
 169              		.thumb_func
 170              		.type	APPS_ADC_IntClock_StandbyPower, %function
 171              	APPS_ADC_IntClock_StandbyPower:
 172              	.LFB3:
 137:.\Generated_Source\PSoC5/APPS_ADC_IntClock.c **** #endif /* HAS_CLKDIST_LD_DISABLE */
 138:.\Generated_Source\PSoC5/APPS_ADC_IntClock.c ****     }
 139:.\Generated_Source\PSoC5/APPS_ADC_IntClock.c **** }
 140:.\Generated_Source\PSoC5/APPS_ADC_IntClock.c **** #endif /* (CY_PSOC3 || CY_PSOC5LP) */
 141:.\Generated_Source\PSoC5/APPS_ADC_IntClock.c **** 
 142:.\Generated_Source\PSoC5/APPS_ADC_IntClock.c **** 
 143:.\Generated_Source\PSoC5/APPS_ADC_IntClock.c **** /*******************************************************************************
 144:.\Generated_Source\PSoC5/APPS_ADC_IntClock.c **** * Function Name: APPS_ADC_IntClock_StandbyPower
 145:.\Generated_Source\PSoC5/APPS_ADC_IntClock.c **** ********************************************************************************
 146:.\Generated_Source\PSoC5/APPS_ADC_IntClock.c **** *
 147:.\Generated_Source\PSoC5/APPS_ADC_IntClock.c **** * Summary:
 148:.\Generated_Source\PSoC5/APPS_ADC_IntClock.c **** *  Sets whether the clock is active in standby mode.
 149:.\Generated_Source\PSoC5/APPS_ADC_IntClock.c **** *
 150:.\Generated_Source\PSoC5/APPS_ADC_IntClock.c **** * Parameters:
 151:.\Generated_Source\PSoC5/APPS_ADC_IntClock.c **** *  state:  0 to disable clock during standby, nonzero to enable.
 152:.\Generated_Source\PSoC5/APPS_ADC_IntClock.c **** *
 153:.\Generated_Source\PSoC5/APPS_ADC_IntClock.c **** * Returns:
 154:.\Generated_Source\PSoC5/APPS_ADC_IntClock.c **** *  None
 155:.\Generated_Source\PSoC5/APPS_ADC_IntClock.c **** *
 156:.\Generated_Source\PSoC5/APPS_ADC_IntClock.c **** *******************************************************************************/
 157:.\Generated_Source\PSoC5/APPS_ADC_IntClock.c **** void APPS_ADC_IntClock_StandbyPower(uint8 state) 
 158:.\Generated_Source\PSoC5/APPS_ADC_IntClock.c **** {
 173              		.loc 1 158 0
 174              		.cfi_startproc
 175              		@ args = 0, pretend = 0, frame = 0
 176              		@ frame_needed = 0, uses_anonymous_args = 0
 177              		@ link register save eliminated.
 178              	.LVL2:
 159:.\Generated_Source\PSoC5/APPS_ADC_IntClock.c ****     if(state == 0u)
 179              		.loc 1 159 0
 180 0000 28B9     		cbnz	r0, .L14
 160:.\Generated_Source\PSoC5/APPS_ADC_IntClock.c ****     {
 161:.\Generated_Source\PSoC5/APPS_ADC_IntClock.c ****         APPS_ADC_IntClock_CLKSTBY &= (uint8)(~APPS_ADC_IntClock_CLKSTBY_MASK);
 181              		.loc 1 161 0
ARM GAS  C:\Users\mitchell\AppData\Local\Temp\ccpcPoc8.s 			page 7


 182 0002 064B     		ldr	r3, .L16
 183 0004 1A78     		ldrb	r2, [r3]	@ zero_extendqisi2
 184 0006 02F0FE02 		and	r2, r2, #254
 185 000a 1A70     		strb	r2, [r3]
 186 000c 7047     		bx	lr
 187              	.L14:
 162:.\Generated_Source\PSoC5/APPS_ADC_IntClock.c ****     }
 163:.\Generated_Source\PSoC5/APPS_ADC_IntClock.c ****     else
 164:.\Generated_Source\PSoC5/APPS_ADC_IntClock.c ****     {
 165:.\Generated_Source\PSoC5/APPS_ADC_IntClock.c ****         APPS_ADC_IntClock_CLKSTBY |= APPS_ADC_IntClock_CLKSTBY_MASK;
 188              		.loc 1 165 0
 189 000e 034B     		ldr	r3, .L16
 190 0010 1A78     		ldrb	r2, [r3]	@ zero_extendqisi2
 191 0012 42F00102 		orr	r2, r2, #1
 192 0016 1A70     		strb	r2, [r3]
 193 0018 7047     		bx	lr
 194              	.L17:
 195 001a 00BF     		.align	2
 196              	.L16:
 197 001c B2430040 		.word	1073759154
 198              		.cfi_endproc
 199              	.LFE3:
 200              		.size	APPS_ADC_IntClock_StandbyPower, .-APPS_ADC_IntClock_StandbyPower
 201              		.section	.text.APPS_ADC_IntClock_GetDividerRegister,"ax",%progbits
 202              		.align	2
 203              		.global	APPS_ADC_IntClock_GetDividerRegister
 204              		.thumb
 205              		.thumb_func
 206              		.type	APPS_ADC_IntClock_GetDividerRegister, %function
 207              	APPS_ADC_IntClock_GetDividerRegister:
 208              	.LFB5:
 166:.\Generated_Source\PSoC5/APPS_ADC_IntClock.c ****     }
 167:.\Generated_Source\PSoC5/APPS_ADC_IntClock.c **** }
 168:.\Generated_Source\PSoC5/APPS_ADC_IntClock.c **** 
 169:.\Generated_Source\PSoC5/APPS_ADC_IntClock.c **** 
 170:.\Generated_Source\PSoC5/APPS_ADC_IntClock.c **** /*******************************************************************************
 171:.\Generated_Source\PSoC5/APPS_ADC_IntClock.c **** * Function Name: APPS_ADC_IntClock_SetDividerRegister
 172:.\Generated_Source\PSoC5/APPS_ADC_IntClock.c **** ********************************************************************************
 173:.\Generated_Source\PSoC5/APPS_ADC_IntClock.c **** *
 174:.\Generated_Source\PSoC5/APPS_ADC_IntClock.c **** * Summary:
 175:.\Generated_Source\PSoC5/APPS_ADC_IntClock.c **** *  Modifies the clock divider and, thus, the frequency. When the clock divider
 176:.\Generated_Source\PSoC5/APPS_ADC_IntClock.c **** *  register is set to zero or changed from zero, the clock will be temporarily
 177:.\Generated_Source\PSoC5/APPS_ADC_IntClock.c **** *  disabled in order to change the SSS mode bit. If the clock is enabled when
 178:.\Generated_Source\PSoC5/APPS_ADC_IntClock.c **** *  SetDividerRegister is called, then the source clock must be running.
 179:.\Generated_Source\PSoC5/APPS_ADC_IntClock.c **** *
 180:.\Generated_Source\PSoC5/APPS_ADC_IntClock.c **** * Parameters:
 181:.\Generated_Source\PSoC5/APPS_ADC_IntClock.c **** *  clkDivider:  Divider register value (0-65,535). This value is NOT the
 182:.\Generated_Source\PSoC5/APPS_ADC_IntClock.c **** *    divider; the clock hardware divides by clkDivider plus one. For example,
 183:.\Generated_Source\PSoC5/APPS_ADC_IntClock.c **** *    to divide the clock by 2, this parameter should be set to 1.
 184:.\Generated_Source\PSoC5/APPS_ADC_IntClock.c **** *  restart:  If nonzero, restarts the clock divider: the current clock cycle
 185:.\Generated_Source\PSoC5/APPS_ADC_IntClock.c **** *   will be truncated and the new divide value will take effect immediately. If
 186:.\Generated_Source\PSoC5/APPS_ADC_IntClock.c **** *   zero, the new divide value will take effect at the end of the current clock
 187:.\Generated_Source\PSoC5/APPS_ADC_IntClock.c **** *   cycle.
 188:.\Generated_Source\PSoC5/APPS_ADC_IntClock.c **** *
 189:.\Generated_Source\PSoC5/APPS_ADC_IntClock.c **** * Returns:
 190:.\Generated_Source\PSoC5/APPS_ADC_IntClock.c **** *  None
 191:.\Generated_Source\PSoC5/APPS_ADC_IntClock.c **** *
ARM GAS  C:\Users\mitchell\AppData\Local\Temp\ccpcPoc8.s 			page 8


 192:.\Generated_Source\PSoC5/APPS_ADC_IntClock.c **** *******************************************************************************/
 193:.\Generated_Source\PSoC5/APPS_ADC_IntClock.c **** void APPS_ADC_IntClock_SetDividerRegister(uint16 clkDivider, uint8 restart)
 194:.\Generated_Source\PSoC5/APPS_ADC_IntClock.c ****                                 
 195:.\Generated_Source\PSoC5/APPS_ADC_IntClock.c **** {
 196:.\Generated_Source\PSoC5/APPS_ADC_IntClock.c ****     uint8 enabled;
 197:.\Generated_Source\PSoC5/APPS_ADC_IntClock.c **** 
 198:.\Generated_Source\PSoC5/APPS_ADC_IntClock.c ****     uint8 currSrc = APPS_ADC_IntClock_GetSourceRegister();
 199:.\Generated_Source\PSoC5/APPS_ADC_IntClock.c ****     uint16 oldDivider = APPS_ADC_IntClock_GetDividerRegister();
 200:.\Generated_Source\PSoC5/APPS_ADC_IntClock.c **** 
 201:.\Generated_Source\PSoC5/APPS_ADC_IntClock.c ****     if (clkDivider != oldDivider)
 202:.\Generated_Source\PSoC5/APPS_ADC_IntClock.c ****     {
 203:.\Generated_Source\PSoC5/APPS_ADC_IntClock.c ****         enabled = APPS_ADC_IntClock_CLKEN & APPS_ADC_IntClock_CLKEN_MASK;
 204:.\Generated_Source\PSoC5/APPS_ADC_IntClock.c **** 
 205:.\Generated_Source\PSoC5/APPS_ADC_IntClock.c ****         if ((currSrc == (uint8)CYCLK_SRC_SEL_CLK_SYNC_D) && ((oldDivider == 0u) || (clkDivider == 0
 206:.\Generated_Source\PSoC5/APPS_ADC_IntClock.c ****         {
 207:.\Generated_Source\PSoC5/APPS_ADC_IntClock.c ****             /* Moving to/from SSS requires correct ordering to prevent halting the clock    */
 208:.\Generated_Source\PSoC5/APPS_ADC_IntClock.c ****             if (oldDivider == 0u)
 209:.\Generated_Source\PSoC5/APPS_ADC_IntClock.c ****             {
 210:.\Generated_Source\PSoC5/APPS_ADC_IntClock.c ****                 /* Moving away from SSS, set the divider first so when SSS is cleared we    */
 211:.\Generated_Source\PSoC5/APPS_ADC_IntClock.c ****                 /* don't halt the clock.  Using the shadow load isn't required as the       */
 212:.\Generated_Source\PSoC5/APPS_ADC_IntClock.c ****                 /* divider is ignored while SSS is set.                                     */
 213:.\Generated_Source\PSoC5/APPS_ADC_IntClock.c ****                 CY_SET_REG16(APPS_ADC_IntClock_DIV_PTR, clkDivider);
 214:.\Generated_Source\PSoC5/APPS_ADC_IntClock.c ****                 APPS_ADC_IntClock_MOD_SRC &= (uint8)(~CYCLK_SSS);
 215:.\Generated_Source\PSoC5/APPS_ADC_IntClock.c ****             }
 216:.\Generated_Source\PSoC5/APPS_ADC_IntClock.c ****             else
 217:.\Generated_Source\PSoC5/APPS_ADC_IntClock.c ****             {
 218:.\Generated_Source\PSoC5/APPS_ADC_IntClock.c ****                 /* Moving to SSS, set SSS which then ignores the divider and we can set     */
 219:.\Generated_Source\PSoC5/APPS_ADC_IntClock.c ****                 /* it without bothering with the shadow load.                               */
 220:.\Generated_Source\PSoC5/APPS_ADC_IntClock.c ****                 APPS_ADC_IntClock_MOD_SRC |= CYCLK_SSS;
 221:.\Generated_Source\PSoC5/APPS_ADC_IntClock.c ****                 CY_SET_REG16(APPS_ADC_IntClock_DIV_PTR, clkDivider);
 222:.\Generated_Source\PSoC5/APPS_ADC_IntClock.c ****             }
 223:.\Generated_Source\PSoC5/APPS_ADC_IntClock.c ****         }
 224:.\Generated_Source\PSoC5/APPS_ADC_IntClock.c ****         else
 225:.\Generated_Source\PSoC5/APPS_ADC_IntClock.c ****         {
 226:.\Generated_Source\PSoC5/APPS_ADC_IntClock.c **** 			
 227:.\Generated_Source\PSoC5/APPS_ADC_IntClock.c ****             if (enabled != 0u)
 228:.\Generated_Source\PSoC5/APPS_ADC_IntClock.c ****             {
 229:.\Generated_Source\PSoC5/APPS_ADC_IntClock.c ****                 CLK_DIST_LD = 0x00u;
 230:.\Generated_Source\PSoC5/APPS_ADC_IntClock.c **** 
 231:.\Generated_Source\PSoC5/APPS_ADC_IntClock.c ****                 /* Clear all the mask bits except ours. */
 232:.\Generated_Source\PSoC5/APPS_ADC_IntClock.c **** #if defined(APPS_ADC_IntClock__CFG3)
 233:.\Generated_Source\PSoC5/APPS_ADC_IntClock.c ****                 CLK_DIST_AMASK = APPS_ADC_IntClock_CLKEN_MASK;
 234:.\Generated_Source\PSoC5/APPS_ADC_IntClock.c ****                 CLK_DIST_DMASK = 0x00u;
 235:.\Generated_Source\PSoC5/APPS_ADC_IntClock.c **** #else
 236:.\Generated_Source\PSoC5/APPS_ADC_IntClock.c ****                 CLK_DIST_DMASK = APPS_ADC_IntClock_CLKEN_MASK;
 237:.\Generated_Source\PSoC5/APPS_ADC_IntClock.c ****                 CLK_DIST_AMASK = 0x00u;
 238:.\Generated_Source\PSoC5/APPS_ADC_IntClock.c **** #endif /* APPS_ADC_IntClock__CFG3 */
 239:.\Generated_Source\PSoC5/APPS_ADC_IntClock.c ****                 /* Clear mask of bus clock. */
 240:.\Generated_Source\PSoC5/APPS_ADC_IntClock.c ****                 CLK_DIST_BCFG2 &= (uint8)(~BCFG2_MASK);
 241:.\Generated_Source\PSoC5/APPS_ADC_IntClock.c **** 
 242:.\Generated_Source\PSoC5/APPS_ADC_IntClock.c ****                 /* If clock is currently enabled, disable it if async or going from N-to-1*/
 243:.\Generated_Source\PSoC5/APPS_ADC_IntClock.c ****                 if (((APPS_ADC_IntClock_MOD_SRC & CYCLK_SYNC) == 0u) || (clkDivider == 0u))
 244:.\Generated_Source\PSoC5/APPS_ADC_IntClock.c ****                 {
 245:.\Generated_Source\PSoC5/APPS_ADC_IntClock.c **** #if HAS_CLKDIST_LD_DISABLE
 246:.\Generated_Source\PSoC5/APPS_ADC_IntClock.c ****                     CY_SET_REG16(CYREG_CLKDIST_WRK0, oldDivider);
 247:.\Generated_Source\PSoC5/APPS_ADC_IntClock.c ****                     CLK_DIST_LD = CYCLK_LD_DISABLE|CYCLK_LD_SYNC_EN|CYCLK_LD_LOAD;
 248:.\Generated_Source\PSoC5/APPS_ADC_IntClock.c **** 
ARM GAS  C:\Users\mitchell\AppData\Local\Temp\ccpcPoc8.s 			page 9


 249:.\Generated_Source\PSoC5/APPS_ADC_IntClock.c ****                     /* Wait for clock to be disabled */
 250:.\Generated_Source\PSoC5/APPS_ADC_IntClock.c ****                     while ((CLK_DIST_LD & CYCLK_LD_LOAD) != 0u) { }
 251:.\Generated_Source\PSoC5/APPS_ADC_IntClock.c **** #endif /* HAS_CLKDIST_LD_DISABLE */
 252:.\Generated_Source\PSoC5/APPS_ADC_IntClock.c **** 
 253:.\Generated_Source\PSoC5/APPS_ADC_IntClock.c ****                     APPS_ADC_IntClock_CLKEN &= (uint8)(~APPS_ADC_IntClock_CLKEN_MASK);
 254:.\Generated_Source\PSoC5/APPS_ADC_IntClock.c **** 
 255:.\Generated_Source\PSoC5/APPS_ADC_IntClock.c **** #if HAS_CLKDIST_LD_DISABLE
 256:.\Generated_Source\PSoC5/APPS_ADC_IntClock.c ****                     /* Clear the disable bit */
 257:.\Generated_Source\PSoC5/APPS_ADC_IntClock.c ****                     CLK_DIST_LD = 0x00u;
 258:.\Generated_Source\PSoC5/APPS_ADC_IntClock.c **** #endif /* HAS_CLKDIST_LD_DISABLE */
 259:.\Generated_Source\PSoC5/APPS_ADC_IntClock.c ****                 }
 260:.\Generated_Source\PSoC5/APPS_ADC_IntClock.c ****             }
 261:.\Generated_Source\PSoC5/APPS_ADC_IntClock.c **** 
 262:.\Generated_Source\PSoC5/APPS_ADC_IntClock.c ****             /* Load divide value. */
 263:.\Generated_Source\PSoC5/APPS_ADC_IntClock.c ****             if ((APPS_ADC_IntClock_CLKEN & APPS_ADC_IntClock_CLKEN_MASK) != 0u)
 264:.\Generated_Source\PSoC5/APPS_ADC_IntClock.c ****             {
 265:.\Generated_Source\PSoC5/APPS_ADC_IntClock.c ****                 /* If the clock is still enabled, use the shadow registers */
 266:.\Generated_Source\PSoC5/APPS_ADC_IntClock.c ****                 CY_SET_REG16(CYREG_CLKDIST_WRK0, clkDivider);
 267:.\Generated_Source\PSoC5/APPS_ADC_IntClock.c **** 
 268:.\Generated_Source\PSoC5/APPS_ADC_IntClock.c ****                 CLK_DIST_LD = (CYCLK_LD_LOAD | ((restart != 0u) ? CYCLK_LD_SYNC_EN : 0x00u));
 269:.\Generated_Source\PSoC5/APPS_ADC_IntClock.c ****                 while ((CLK_DIST_LD & CYCLK_LD_LOAD) != 0u) { }
 270:.\Generated_Source\PSoC5/APPS_ADC_IntClock.c ****             }
 271:.\Generated_Source\PSoC5/APPS_ADC_IntClock.c ****             else
 272:.\Generated_Source\PSoC5/APPS_ADC_IntClock.c ****             {
 273:.\Generated_Source\PSoC5/APPS_ADC_IntClock.c ****                 /* If the clock is disabled, set the divider directly */
 274:.\Generated_Source\PSoC5/APPS_ADC_IntClock.c ****                 CY_SET_REG16(APPS_ADC_IntClock_DIV_PTR, clkDivider);
 275:.\Generated_Source\PSoC5/APPS_ADC_IntClock.c **** 				APPS_ADC_IntClock_CLKEN |= enabled;
 276:.\Generated_Source\PSoC5/APPS_ADC_IntClock.c ****             }
 277:.\Generated_Source\PSoC5/APPS_ADC_IntClock.c ****         }
 278:.\Generated_Source\PSoC5/APPS_ADC_IntClock.c ****     }
 279:.\Generated_Source\PSoC5/APPS_ADC_IntClock.c **** }
 280:.\Generated_Source\PSoC5/APPS_ADC_IntClock.c **** 
 281:.\Generated_Source\PSoC5/APPS_ADC_IntClock.c **** 
 282:.\Generated_Source\PSoC5/APPS_ADC_IntClock.c **** /*******************************************************************************
 283:.\Generated_Source\PSoC5/APPS_ADC_IntClock.c **** * Function Name: APPS_ADC_IntClock_GetDividerRegister
 284:.\Generated_Source\PSoC5/APPS_ADC_IntClock.c **** ********************************************************************************
 285:.\Generated_Source\PSoC5/APPS_ADC_IntClock.c **** *
 286:.\Generated_Source\PSoC5/APPS_ADC_IntClock.c **** * Summary:
 287:.\Generated_Source\PSoC5/APPS_ADC_IntClock.c **** *  Gets the clock divider register value.
 288:.\Generated_Source\PSoC5/APPS_ADC_IntClock.c **** *
 289:.\Generated_Source\PSoC5/APPS_ADC_IntClock.c **** * Parameters:
 290:.\Generated_Source\PSoC5/APPS_ADC_IntClock.c **** *  None
 291:.\Generated_Source\PSoC5/APPS_ADC_IntClock.c **** *
 292:.\Generated_Source\PSoC5/APPS_ADC_IntClock.c **** * Returns:
 293:.\Generated_Source\PSoC5/APPS_ADC_IntClock.c **** *  Divide value of the clock minus 1. For example, if the clock is set to
 294:.\Generated_Source\PSoC5/APPS_ADC_IntClock.c **** *  divide by 2, the return value will be 1.
 295:.\Generated_Source\PSoC5/APPS_ADC_IntClock.c **** *
 296:.\Generated_Source\PSoC5/APPS_ADC_IntClock.c **** *******************************************************************************/
 297:.\Generated_Source\PSoC5/APPS_ADC_IntClock.c **** uint16 APPS_ADC_IntClock_GetDividerRegister(void) 
 298:.\Generated_Source\PSoC5/APPS_ADC_IntClock.c **** {
 209              		.loc 1 298 0
 210              		.cfi_startproc
 211              		@ args = 0, pretend = 0, frame = 0
 212              		@ frame_needed = 0, uses_anonymous_args = 0
 213              		@ link register save eliminated.
 299:.\Generated_Source\PSoC5/APPS_ADC_IntClock.c ****     return CY_GET_REG16(APPS_ADC_IntClock_DIV_PTR);
 214              		.loc 1 299 0
ARM GAS  C:\Users\mitchell\AppData\Local\Temp\ccpcPoc8.s 			page 10


 215 0000 014B     		ldr	r3, .L19
 216 0002 1888     		ldrh	r0, [r3]
 300:.\Generated_Source\PSoC5/APPS_ADC_IntClock.c **** }
 217              		.loc 1 300 0
 218 0004 80B2     		uxth	r0, r0
 219 0006 7047     		bx	lr
 220              	.L20:
 221              		.align	2
 222              	.L19:
 223 0008 80400040 		.word	1073758336
 224              		.cfi_endproc
 225              	.LFE5:
 226              		.size	APPS_ADC_IntClock_GetDividerRegister, .-APPS_ADC_IntClock_GetDividerRegister
 227              		.section	.text.APPS_ADC_IntClock_SetModeRegister,"ax",%progbits
 228              		.align	2
 229              		.global	APPS_ADC_IntClock_SetModeRegister
 230              		.thumb
 231              		.thumb_func
 232              		.type	APPS_ADC_IntClock_SetModeRegister, %function
 233              	APPS_ADC_IntClock_SetModeRegister:
 234              	.LFB6:
 301:.\Generated_Source\PSoC5/APPS_ADC_IntClock.c **** 
 302:.\Generated_Source\PSoC5/APPS_ADC_IntClock.c **** 
 303:.\Generated_Source\PSoC5/APPS_ADC_IntClock.c **** /*******************************************************************************
 304:.\Generated_Source\PSoC5/APPS_ADC_IntClock.c **** * Function Name: APPS_ADC_IntClock_SetModeRegister
 305:.\Generated_Source\PSoC5/APPS_ADC_IntClock.c **** ********************************************************************************
 306:.\Generated_Source\PSoC5/APPS_ADC_IntClock.c **** *
 307:.\Generated_Source\PSoC5/APPS_ADC_IntClock.c **** * Summary:
 308:.\Generated_Source\PSoC5/APPS_ADC_IntClock.c **** *  Sets flags that control the operating mode of the clock. This function only
 309:.\Generated_Source\PSoC5/APPS_ADC_IntClock.c **** *  changes flags from 0 to 1; flags that are already 1 will remain unchanged.
 310:.\Generated_Source\PSoC5/APPS_ADC_IntClock.c **** *  To clear flags, use the ClearModeRegister function. The clock must be
 311:.\Generated_Source\PSoC5/APPS_ADC_IntClock.c **** *  disabled before changing the mode.
 312:.\Generated_Source\PSoC5/APPS_ADC_IntClock.c **** *
 313:.\Generated_Source\PSoC5/APPS_ADC_IntClock.c **** * Parameters:
 314:.\Generated_Source\PSoC5/APPS_ADC_IntClock.c **** *  clkMode: Bit mask containing the bits to set. For PSoC 3 and PSoC 5,
 315:.\Generated_Source\PSoC5/APPS_ADC_IntClock.c **** *   clkMode should be a set of the following optional bits or'ed together.
 316:.\Generated_Source\PSoC5/APPS_ADC_IntClock.c **** *   - CYCLK_EARLY Enable early phase mode. Rising edge of output clock will
 317:.\Generated_Source\PSoC5/APPS_ADC_IntClock.c **** *                 occur when the divider count reaches half of the divide
 318:.\Generated_Source\PSoC5/APPS_ADC_IntClock.c **** *                 value.
 319:.\Generated_Source\PSoC5/APPS_ADC_IntClock.c **** *   - CYCLK_DUTY  Enable 50% duty cycle output. When enabled, the output clock
 320:.\Generated_Source\PSoC5/APPS_ADC_IntClock.c **** *                 is asserted for approximately half of its period. When
 321:.\Generated_Source\PSoC5/APPS_ADC_IntClock.c **** *                 disabled, the output clock is asserted for one period of the
 322:.\Generated_Source\PSoC5/APPS_ADC_IntClock.c **** *                 source clock.
 323:.\Generated_Source\PSoC5/APPS_ADC_IntClock.c **** *   - CYCLK_SYNC  Enable output synchronization to master clock. This should
 324:.\Generated_Source\PSoC5/APPS_ADC_IntClock.c **** *                 be enabled for all synchronous clocks.
 325:.\Generated_Source\PSoC5/APPS_ADC_IntClock.c **** *   See the Technical Reference Manual for details about setting the mode of
 326:.\Generated_Source\PSoC5/APPS_ADC_IntClock.c **** *   the clock. Specifically, see the CLKDIST.DCFG.CFG2 register.
 327:.\Generated_Source\PSoC5/APPS_ADC_IntClock.c **** *
 328:.\Generated_Source\PSoC5/APPS_ADC_IntClock.c **** * Returns:
 329:.\Generated_Source\PSoC5/APPS_ADC_IntClock.c **** *  None
 330:.\Generated_Source\PSoC5/APPS_ADC_IntClock.c **** *
 331:.\Generated_Source\PSoC5/APPS_ADC_IntClock.c **** *******************************************************************************/
 332:.\Generated_Source\PSoC5/APPS_ADC_IntClock.c **** void APPS_ADC_IntClock_SetModeRegister(uint8 modeBitMask) 
 333:.\Generated_Source\PSoC5/APPS_ADC_IntClock.c **** {
 235              		.loc 1 333 0
 236              		.cfi_startproc
 237              		@ args = 0, pretend = 0, frame = 0
ARM GAS  C:\Users\mitchell\AppData\Local\Temp\ccpcPoc8.s 			page 11


 238              		@ frame_needed = 0, uses_anonymous_args = 0
 239              		@ link register save eliminated.
 240              	.LVL3:
 334:.\Generated_Source\PSoC5/APPS_ADC_IntClock.c ****     APPS_ADC_IntClock_MOD_SRC |= modeBitMask & (uint8)APPS_ADC_IntClock_MODE_MASK;
 241              		.loc 1 334 0
 242 0000 034B     		ldr	r3, .L22
 243 0002 1A78     		ldrb	r2, [r3]	@ zero_extendqisi2
 244 0004 00F0F800 		and	r0, r0, #248
 245              	.LVL4:
 246 0008 0243     		orrs	r2, r2, r0
 247 000a 1A70     		strb	r2, [r3]
 248 000c 7047     		bx	lr
 249              	.L23:
 250 000e 00BF     		.align	2
 251              	.L22:
 252 0010 82400040 		.word	1073758338
 253              		.cfi_endproc
 254              	.LFE6:
 255              		.size	APPS_ADC_IntClock_SetModeRegister, .-APPS_ADC_IntClock_SetModeRegister
 256              		.section	.text.APPS_ADC_IntClock_ClearModeRegister,"ax",%progbits
 257              		.align	2
 258              		.global	APPS_ADC_IntClock_ClearModeRegister
 259              		.thumb
 260              		.thumb_func
 261              		.type	APPS_ADC_IntClock_ClearModeRegister, %function
 262              	APPS_ADC_IntClock_ClearModeRegister:
 263              	.LFB7:
 335:.\Generated_Source\PSoC5/APPS_ADC_IntClock.c **** }
 336:.\Generated_Source\PSoC5/APPS_ADC_IntClock.c **** 
 337:.\Generated_Source\PSoC5/APPS_ADC_IntClock.c **** 
 338:.\Generated_Source\PSoC5/APPS_ADC_IntClock.c **** /*******************************************************************************
 339:.\Generated_Source\PSoC5/APPS_ADC_IntClock.c **** * Function Name: APPS_ADC_IntClock_ClearModeRegister
 340:.\Generated_Source\PSoC5/APPS_ADC_IntClock.c **** ********************************************************************************
 341:.\Generated_Source\PSoC5/APPS_ADC_IntClock.c **** *
 342:.\Generated_Source\PSoC5/APPS_ADC_IntClock.c **** * Summary:
 343:.\Generated_Source\PSoC5/APPS_ADC_IntClock.c **** *  Clears flags that control the operating mode of the clock. This function
 344:.\Generated_Source\PSoC5/APPS_ADC_IntClock.c **** *  only changes flags from 1 to 0; flags that are already 0 will remain
 345:.\Generated_Source\PSoC5/APPS_ADC_IntClock.c **** *  unchanged. To set flags, use the SetModeRegister function. The clock must be
 346:.\Generated_Source\PSoC5/APPS_ADC_IntClock.c **** *  disabled before changing the mode.
 347:.\Generated_Source\PSoC5/APPS_ADC_IntClock.c **** *
 348:.\Generated_Source\PSoC5/APPS_ADC_IntClock.c **** * Parameters:
 349:.\Generated_Source\PSoC5/APPS_ADC_IntClock.c **** *  clkMode: Bit mask containing the bits to clear. For PSoC 3 and PSoC 5,
 350:.\Generated_Source\PSoC5/APPS_ADC_IntClock.c **** *   clkMode should be a set of the following optional bits or'ed together.
 351:.\Generated_Source\PSoC5/APPS_ADC_IntClock.c **** *   - CYCLK_EARLY Enable early phase mode. Rising edge of output clock will
 352:.\Generated_Source\PSoC5/APPS_ADC_IntClock.c **** *                 occur when the divider count reaches half of the divide
 353:.\Generated_Source\PSoC5/APPS_ADC_IntClock.c **** *                 value.
 354:.\Generated_Source\PSoC5/APPS_ADC_IntClock.c **** *   - CYCLK_DUTY  Enable 50% duty cycle output. When enabled, the output clock
 355:.\Generated_Source\PSoC5/APPS_ADC_IntClock.c **** *                 is asserted for approximately half of its period. When
 356:.\Generated_Source\PSoC5/APPS_ADC_IntClock.c **** *                 disabled, the output clock is asserted for one period of the
 357:.\Generated_Source\PSoC5/APPS_ADC_IntClock.c **** *                 source clock.
 358:.\Generated_Source\PSoC5/APPS_ADC_IntClock.c **** *   - CYCLK_SYNC  Enable output synchronization to master clock. This should
 359:.\Generated_Source\PSoC5/APPS_ADC_IntClock.c **** *                 be enabled for all synchronous clocks.
 360:.\Generated_Source\PSoC5/APPS_ADC_IntClock.c **** *   See the Technical Reference Manual for details about setting the mode of
 361:.\Generated_Source\PSoC5/APPS_ADC_IntClock.c **** *   the clock. Specifically, see the CLKDIST.DCFG.CFG2 register.
 362:.\Generated_Source\PSoC5/APPS_ADC_IntClock.c **** *
 363:.\Generated_Source\PSoC5/APPS_ADC_IntClock.c **** * Returns:
 364:.\Generated_Source\PSoC5/APPS_ADC_IntClock.c **** *  None
ARM GAS  C:\Users\mitchell\AppData\Local\Temp\ccpcPoc8.s 			page 12


 365:.\Generated_Source\PSoC5/APPS_ADC_IntClock.c **** *
 366:.\Generated_Source\PSoC5/APPS_ADC_IntClock.c **** *******************************************************************************/
 367:.\Generated_Source\PSoC5/APPS_ADC_IntClock.c **** void APPS_ADC_IntClock_ClearModeRegister(uint8 modeBitMask) 
 368:.\Generated_Source\PSoC5/APPS_ADC_IntClock.c **** {
 264              		.loc 1 368 0
 265              		.cfi_startproc
 266              		@ args = 0, pretend = 0, frame = 0
 267              		@ frame_needed = 0, uses_anonymous_args = 0
 268              		@ link register save eliminated.
 269              	.LVL5:
 369:.\Generated_Source\PSoC5/APPS_ADC_IntClock.c ****     APPS_ADC_IntClock_MOD_SRC &= (uint8)(~modeBitMask) | (uint8)(~(uint8)(APPS_ADC_IntClock_MODE_MA
 270              		.loc 1 369 0
 271 0000 044B     		ldr	r3, .L25
 272 0002 1A78     		ldrb	r2, [r3]	@ zero_extendqisi2
 273 0004 C043     		mvns	r0, r0
 274              	.LVL6:
 275 0006 C1B2     		uxtb	r1, r0
 276 0008 41F00701 		orr	r1, r1, #7
 277 000c 0A40     		ands	r2, r2, r1
 278 000e 1A70     		strb	r2, [r3]
 279 0010 7047     		bx	lr
 280              	.L26:
 281 0012 00BF     		.align	2
 282              	.L25:
 283 0014 82400040 		.word	1073758338
 284              		.cfi_endproc
 285              	.LFE7:
 286              		.size	APPS_ADC_IntClock_ClearModeRegister, .-APPS_ADC_IntClock_ClearModeRegister
 287              		.section	.text.APPS_ADC_IntClock_GetModeRegister,"ax",%progbits
 288              		.align	2
 289              		.global	APPS_ADC_IntClock_GetModeRegister
 290              		.thumb
 291              		.thumb_func
 292              		.type	APPS_ADC_IntClock_GetModeRegister, %function
 293              	APPS_ADC_IntClock_GetModeRegister:
 294              	.LFB8:
 370:.\Generated_Source\PSoC5/APPS_ADC_IntClock.c **** }
 371:.\Generated_Source\PSoC5/APPS_ADC_IntClock.c **** 
 372:.\Generated_Source\PSoC5/APPS_ADC_IntClock.c **** 
 373:.\Generated_Source\PSoC5/APPS_ADC_IntClock.c **** /*******************************************************************************
 374:.\Generated_Source\PSoC5/APPS_ADC_IntClock.c **** * Function Name: APPS_ADC_IntClock_GetModeRegister
 375:.\Generated_Source\PSoC5/APPS_ADC_IntClock.c **** ********************************************************************************
 376:.\Generated_Source\PSoC5/APPS_ADC_IntClock.c **** *
 377:.\Generated_Source\PSoC5/APPS_ADC_IntClock.c **** * Summary:
 378:.\Generated_Source\PSoC5/APPS_ADC_IntClock.c **** *  Gets the clock mode register value.
 379:.\Generated_Source\PSoC5/APPS_ADC_IntClock.c **** *
 380:.\Generated_Source\PSoC5/APPS_ADC_IntClock.c **** * Parameters:
 381:.\Generated_Source\PSoC5/APPS_ADC_IntClock.c **** *  None
 382:.\Generated_Source\PSoC5/APPS_ADC_IntClock.c **** *
 383:.\Generated_Source\PSoC5/APPS_ADC_IntClock.c **** * Returns:
 384:.\Generated_Source\PSoC5/APPS_ADC_IntClock.c **** *  Bit mask representing the enabled mode bits. See the SetModeRegister and
 385:.\Generated_Source\PSoC5/APPS_ADC_IntClock.c **** *  ClearModeRegister descriptions for details about the mode bits.
 386:.\Generated_Source\PSoC5/APPS_ADC_IntClock.c **** *
 387:.\Generated_Source\PSoC5/APPS_ADC_IntClock.c **** *******************************************************************************/
 388:.\Generated_Source\PSoC5/APPS_ADC_IntClock.c **** uint8 APPS_ADC_IntClock_GetModeRegister(void) 
 389:.\Generated_Source\PSoC5/APPS_ADC_IntClock.c **** {
 295              		.loc 1 389 0
ARM GAS  C:\Users\mitchell\AppData\Local\Temp\ccpcPoc8.s 			page 13


 296              		.cfi_startproc
 297              		@ args = 0, pretend = 0, frame = 0
 298              		@ frame_needed = 0, uses_anonymous_args = 0
 299              		@ link register save eliminated.
 390:.\Generated_Source\PSoC5/APPS_ADC_IntClock.c ****     return APPS_ADC_IntClock_MOD_SRC & (uint8)(APPS_ADC_IntClock_MODE_MASK);
 300              		.loc 1 390 0
 301 0000 024B     		ldr	r3, .L28
 302 0002 1878     		ldrb	r0, [r3]	@ zero_extendqisi2
 391:.\Generated_Source\PSoC5/APPS_ADC_IntClock.c **** }
 303              		.loc 1 391 0
 304 0004 00F0F800 		and	r0, r0, #248
 305 0008 7047     		bx	lr
 306              	.L29:
 307 000a 00BF     		.align	2
 308              	.L28:
 309 000c 82400040 		.word	1073758338
 310              		.cfi_endproc
 311              	.LFE8:
 312              		.size	APPS_ADC_IntClock_GetModeRegister, .-APPS_ADC_IntClock_GetModeRegister
 313              		.section	.text.APPS_ADC_IntClock_GetSourceRegister,"ax",%progbits
 314              		.align	2
 315              		.global	APPS_ADC_IntClock_GetSourceRegister
 316              		.thumb
 317              		.thumb_func
 318              		.type	APPS_ADC_IntClock_GetSourceRegister, %function
 319              	APPS_ADC_IntClock_GetSourceRegister:
 320              	.LFB10:
 392:.\Generated_Source\PSoC5/APPS_ADC_IntClock.c **** 
 393:.\Generated_Source\PSoC5/APPS_ADC_IntClock.c **** 
 394:.\Generated_Source\PSoC5/APPS_ADC_IntClock.c **** /*******************************************************************************
 395:.\Generated_Source\PSoC5/APPS_ADC_IntClock.c **** * Function Name: APPS_ADC_IntClock_SetSourceRegister
 396:.\Generated_Source\PSoC5/APPS_ADC_IntClock.c **** ********************************************************************************
 397:.\Generated_Source\PSoC5/APPS_ADC_IntClock.c **** *
 398:.\Generated_Source\PSoC5/APPS_ADC_IntClock.c **** * Summary:
 399:.\Generated_Source\PSoC5/APPS_ADC_IntClock.c **** *  Sets the input source of the clock. The clock must be disabled before
 400:.\Generated_Source\PSoC5/APPS_ADC_IntClock.c **** *  changing the source. The old and new clock sources must be running.
 401:.\Generated_Source\PSoC5/APPS_ADC_IntClock.c **** *
 402:.\Generated_Source\PSoC5/APPS_ADC_IntClock.c **** * Parameters:
 403:.\Generated_Source\PSoC5/APPS_ADC_IntClock.c **** *  clkSource:  For PSoC 3 and PSoC 5 devices, clkSource should be one of the
 404:.\Generated_Source\PSoC5/APPS_ADC_IntClock.c **** *   following input sources:
 405:.\Generated_Source\PSoC5/APPS_ADC_IntClock.c **** *   - CYCLK_SRC_SEL_SYNC_DIG
 406:.\Generated_Source\PSoC5/APPS_ADC_IntClock.c **** *   - CYCLK_SRC_SEL_IMO
 407:.\Generated_Source\PSoC5/APPS_ADC_IntClock.c **** *   - CYCLK_SRC_SEL_XTALM
 408:.\Generated_Source\PSoC5/APPS_ADC_IntClock.c **** *   - CYCLK_SRC_SEL_ILO
 409:.\Generated_Source\PSoC5/APPS_ADC_IntClock.c **** *   - CYCLK_SRC_SEL_PLL
 410:.\Generated_Source\PSoC5/APPS_ADC_IntClock.c **** *   - CYCLK_SRC_SEL_XTALK
 411:.\Generated_Source\PSoC5/APPS_ADC_IntClock.c **** *   - CYCLK_SRC_SEL_DSI_G
 412:.\Generated_Source\PSoC5/APPS_ADC_IntClock.c **** *   - CYCLK_SRC_SEL_DSI_D/CYCLK_SRC_SEL_DSI_A
 413:.\Generated_Source\PSoC5/APPS_ADC_IntClock.c **** *   See the Technical Reference Manual for details on clock sources.
 414:.\Generated_Source\PSoC5/APPS_ADC_IntClock.c **** *
 415:.\Generated_Source\PSoC5/APPS_ADC_IntClock.c **** * Returns:
 416:.\Generated_Source\PSoC5/APPS_ADC_IntClock.c **** *  None
 417:.\Generated_Source\PSoC5/APPS_ADC_IntClock.c **** *
 418:.\Generated_Source\PSoC5/APPS_ADC_IntClock.c **** *******************************************************************************/
 419:.\Generated_Source\PSoC5/APPS_ADC_IntClock.c **** void APPS_ADC_IntClock_SetSourceRegister(uint8 clkSource) 
 420:.\Generated_Source\PSoC5/APPS_ADC_IntClock.c **** {
 421:.\Generated_Source\PSoC5/APPS_ADC_IntClock.c ****     uint16 currDiv = APPS_ADC_IntClock_GetDividerRegister();
ARM GAS  C:\Users\mitchell\AppData\Local\Temp\ccpcPoc8.s 			page 14


 422:.\Generated_Source\PSoC5/APPS_ADC_IntClock.c ****     uint8 oldSrc = APPS_ADC_IntClock_GetSourceRegister();
 423:.\Generated_Source\PSoC5/APPS_ADC_IntClock.c **** 
 424:.\Generated_Source\PSoC5/APPS_ADC_IntClock.c ****     if (((oldSrc != ((uint8)CYCLK_SRC_SEL_CLK_SYNC_D)) && 
 425:.\Generated_Source\PSoC5/APPS_ADC_IntClock.c ****         (clkSource == ((uint8)CYCLK_SRC_SEL_CLK_SYNC_D))) && (currDiv == 0u))
 426:.\Generated_Source\PSoC5/APPS_ADC_IntClock.c ****     {
 427:.\Generated_Source\PSoC5/APPS_ADC_IntClock.c ****         /* Switching to Master and divider is 1, set SSS, which will output master, */
 428:.\Generated_Source\PSoC5/APPS_ADC_IntClock.c ****         /* then set the source so we are consistent.                                */
 429:.\Generated_Source\PSoC5/APPS_ADC_IntClock.c ****         APPS_ADC_IntClock_MOD_SRC |= CYCLK_SSS;
 430:.\Generated_Source\PSoC5/APPS_ADC_IntClock.c ****         APPS_ADC_IntClock_MOD_SRC =
 431:.\Generated_Source\PSoC5/APPS_ADC_IntClock.c ****             (APPS_ADC_IntClock_MOD_SRC & (uint8)(~APPS_ADC_IntClock_SRC_SEL_MSK)) | clkSource;
 432:.\Generated_Source\PSoC5/APPS_ADC_IntClock.c ****     }
 433:.\Generated_Source\PSoC5/APPS_ADC_IntClock.c ****     else if (((oldSrc == ((uint8)CYCLK_SRC_SEL_CLK_SYNC_D)) && 
 434:.\Generated_Source\PSoC5/APPS_ADC_IntClock.c ****             (clkSource != ((uint8)CYCLK_SRC_SEL_CLK_SYNC_D))) && (currDiv == 0u))
 435:.\Generated_Source\PSoC5/APPS_ADC_IntClock.c ****     {
 436:.\Generated_Source\PSoC5/APPS_ADC_IntClock.c ****         /* Switching from Master to not and divider is 1, set source, so we don't   */
 437:.\Generated_Source\PSoC5/APPS_ADC_IntClock.c ****         /* lock when we clear SSS.                                                  */
 438:.\Generated_Source\PSoC5/APPS_ADC_IntClock.c ****         APPS_ADC_IntClock_MOD_SRC =
 439:.\Generated_Source\PSoC5/APPS_ADC_IntClock.c ****             (APPS_ADC_IntClock_MOD_SRC & (uint8)(~APPS_ADC_IntClock_SRC_SEL_MSK)) | clkSource;
 440:.\Generated_Source\PSoC5/APPS_ADC_IntClock.c ****         APPS_ADC_IntClock_MOD_SRC &= (uint8)(~CYCLK_SSS);
 441:.\Generated_Source\PSoC5/APPS_ADC_IntClock.c ****     }
 442:.\Generated_Source\PSoC5/APPS_ADC_IntClock.c ****     else
 443:.\Generated_Source\PSoC5/APPS_ADC_IntClock.c ****     {
 444:.\Generated_Source\PSoC5/APPS_ADC_IntClock.c ****         APPS_ADC_IntClock_MOD_SRC =
 445:.\Generated_Source\PSoC5/APPS_ADC_IntClock.c ****             (APPS_ADC_IntClock_MOD_SRC & (uint8)(~APPS_ADC_IntClock_SRC_SEL_MSK)) | clkSource;
 446:.\Generated_Source\PSoC5/APPS_ADC_IntClock.c ****     }
 447:.\Generated_Source\PSoC5/APPS_ADC_IntClock.c **** }
 448:.\Generated_Source\PSoC5/APPS_ADC_IntClock.c **** 
 449:.\Generated_Source\PSoC5/APPS_ADC_IntClock.c **** 
 450:.\Generated_Source\PSoC5/APPS_ADC_IntClock.c **** /*******************************************************************************
 451:.\Generated_Source\PSoC5/APPS_ADC_IntClock.c **** * Function Name: APPS_ADC_IntClock_GetSourceRegister
 452:.\Generated_Source\PSoC5/APPS_ADC_IntClock.c **** ********************************************************************************
 453:.\Generated_Source\PSoC5/APPS_ADC_IntClock.c **** *
 454:.\Generated_Source\PSoC5/APPS_ADC_IntClock.c **** * Summary:
 455:.\Generated_Source\PSoC5/APPS_ADC_IntClock.c **** *  Gets the input source of the clock.
 456:.\Generated_Source\PSoC5/APPS_ADC_IntClock.c **** *
 457:.\Generated_Source\PSoC5/APPS_ADC_IntClock.c **** * Parameters:
 458:.\Generated_Source\PSoC5/APPS_ADC_IntClock.c **** *  None
 459:.\Generated_Source\PSoC5/APPS_ADC_IntClock.c **** *
 460:.\Generated_Source\PSoC5/APPS_ADC_IntClock.c **** * Returns:
 461:.\Generated_Source\PSoC5/APPS_ADC_IntClock.c **** *  The input source of the clock. See SetSourceRegister for details.
 462:.\Generated_Source\PSoC5/APPS_ADC_IntClock.c **** *
 463:.\Generated_Source\PSoC5/APPS_ADC_IntClock.c **** *******************************************************************************/
 464:.\Generated_Source\PSoC5/APPS_ADC_IntClock.c **** uint8 APPS_ADC_IntClock_GetSourceRegister(void) 
 465:.\Generated_Source\PSoC5/APPS_ADC_IntClock.c **** {
 321              		.loc 1 465 0
 322              		.cfi_startproc
 323              		@ args = 0, pretend = 0, frame = 0
 324              		@ frame_needed = 0, uses_anonymous_args = 0
 325              		@ link register save eliminated.
 466:.\Generated_Source\PSoC5/APPS_ADC_IntClock.c ****     return APPS_ADC_IntClock_MOD_SRC & APPS_ADC_IntClock_SRC_SEL_MSK;
 326              		.loc 1 466 0
 327 0000 024B     		ldr	r3, .L31
 328 0002 1878     		ldrb	r0, [r3]	@ zero_extendqisi2
 467:.\Generated_Source\PSoC5/APPS_ADC_IntClock.c **** }
 329              		.loc 1 467 0
 330 0004 00F00700 		and	r0, r0, #7
 331 0008 7047     		bx	lr
ARM GAS  C:\Users\mitchell\AppData\Local\Temp\ccpcPoc8.s 			page 15


 332              	.L32:
 333 000a 00BF     		.align	2
 334              	.L31:
 335 000c 82400040 		.word	1073758338
 336              		.cfi_endproc
 337              	.LFE10:
 338              		.size	APPS_ADC_IntClock_GetSourceRegister, .-APPS_ADC_IntClock_GetSourceRegister
 339              		.section	.text.APPS_ADC_IntClock_SetDividerRegister,"ax",%progbits
 340              		.align	2
 341              		.global	APPS_ADC_IntClock_SetDividerRegister
 342              		.thumb
 343              		.thumb_func
 344              		.type	APPS_ADC_IntClock_SetDividerRegister, %function
 345              	APPS_ADC_IntClock_SetDividerRegister:
 346              	.LFB4:
 195:.\Generated_Source\PSoC5/APPS_ADC_IntClock.c **** {
 347              		.loc 1 195 0
 348              		.cfi_startproc
 349              		@ args = 0, pretend = 0, frame = 0
 350              		@ frame_needed = 0, uses_anonymous_args = 0
 351              	.LVL7:
 352 0000 70B5     		push	{r4, r5, r6, lr}
 353              		.cfi_def_cfa_offset 16
 354              		.cfi_offset 4, -16
 355              		.cfi_offset 5, -12
 356              		.cfi_offset 6, -8
 357              		.cfi_offset 14, -4
 358 0002 0446     		mov	r4, r0
 359 0004 0E46     		mov	r6, r1
 198:.\Generated_Source\PSoC5/APPS_ADC_IntClock.c ****     uint8 currSrc = APPS_ADC_IntClock_GetSourceRegister();
 360              		.loc 1 198 0
 361 0006 FFF7FEFF 		bl	APPS_ADC_IntClock_GetSourceRegister
 362              	.LVL8:
 363 000a 0546     		mov	r5, r0
 364              	.LVL9:
 199:.\Generated_Source\PSoC5/APPS_ADC_IntClock.c ****     uint16 oldDivider = APPS_ADC_IntClock_GetDividerRegister();
 365              		.loc 1 199 0
 366 000c FFF7FEFF 		bl	APPS_ADC_IntClock_GetDividerRegister
 367              	.LVL10:
 368 0010 0346     		mov	r3, r0
 369              	.LVL11:
 201:.\Generated_Source\PSoC5/APPS_ADC_IntClock.c ****     if (clkDivider != oldDivider)
 370              		.loc 1 201 0
 371 0012 8442     		cmp	r4, r0
 372 0014 58D0     		beq	.L33
 203:.\Generated_Source\PSoC5/APPS_ADC_IntClock.c ****         enabled = APPS_ADC_IntClock_CLKEN & APPS_ADC_IntClock_CLKEN_MASK;
 373              		.loc 1 203 0
 374 0016 2D4A     		ldr	r2, .L47
 375 0018 1278     		ldrb	r2, [r2]	@ zero_extendqisi2
 376 001a 02F00101 		and	r1, r2, #1
 377              	.LVL12:
 205:.\Generated_Source\PSoC5/APPS_ADC_IntClock.c ****         if ((currSrc == (uint8)CYCLK_SRC_SEL_CLK_SYNC_D) && ((oldDivider == 0u) || (clkDivider == 0
 378              		.loc 1 205 0
 379 001e 95B9     		cbnz	r5, .L35
 205:.\Generated_Source\PSoC5/APPS_ADC_IntClock.c ****         if ((currSrc == (uint8)CYCLK_SRC_SEL_CLK_SYNC_D) && ((oldDivider == 0u) || (clkDivider == 0
 380              		.loc 1 205 0 is_stmt 0 discriminator 1
 381 0020 00B1     		cbz	r0, .L36
ARM GAS  C:\Users\mitchell\AppData\Local\Temp\ccpcPoc8.s 			page 16


 382 0022 84B9     		cbnz	r4, .L35
 383              	.L36:
 208:.\Generated_Source\PSoC5/APPS_ADC_IntClock.c ****             if (oldDivider == 0u)
 384              		.loc 1 208 0 is_stmt 1
 385 0024 3BB9     		cbnz	r3, .L37
 213:.\Generated_Source\PSoC5/APPS_ADC_IntClock.c ****                 CY_SET_REG16(APPS_ADC_IntClock_DIV_PTR, clkDivider);
 386              		.loc 1 213 0
 387 0026 2A4B     		ldr	r3, .L47+4
 388 0028 1C80     		strh	r4, [r3]	@ movhi
 214:.\Generated_Source\PSoC5/APPS_ADC_IntClock.c ****                 APPS_ADC_IntClock_MOD_SRC &= (uint8)(~CYCLK_SSS);
 389              		.loc 1 214 0
 390 002a 0233     		adds	r3, r3, #2
 391 002c 1A78     		ldrb	r2, [r3]	@ zero_extendqisi2
 392 002e 02F0BF02 		and	r2, r2, #191
 393 0032 1A70     		strb	r2, [r3]
 394 0034 70BD     		pop	{r4, r5, r6, pc}
 395              	.LVL13:
 396              	.L37:
 220:.\Generated_Source\PSoC5/APPS_ADC_IntClock.c ****                 APPS_ADC_IntClock_MOD_SRC |= CYCLK_SSS;
 397              		.loc 1 220 0
 398 0036 274B     		ldr	r3, .L47+8
 399 0038 1A78     		ldrb	r2, [r3]	@ zero_extendqisi2
 400 003a 42F04002 		orr	r2, r2, #64
 401 003e 1A70     		strb	r2, [r3]
 221:.\Generated_Source\PSoC5/APPS_ADC_IntClock.c ****                 CY_SET_REG16(APPS_ADC_IntClock_DIV_PTR, clkDivider);
 402              		.loc 1 221 0
 403 0040 023B     		subs	r3, r3, #2
 404 0042 1C80     		strh	r4, [r3]	@ movhi
 405 0044 70BD     		pop	{r4, r5, r6, pc}
 406              	.LVL14:
 407              	.L35:
 227:.\Generated_Source\PSoC5/APPS_ADC_IntClock.c ****             if (enabled != 0u)
 408              		.loc 1 227 0
 409 0046 29B3     		cbz	r1, .L38
 229:.\Generated_Source\PSoC5/APPS_ADC_IntClock.c ****                 CLK_DIST_LD = 0x00u;
 410              		.loc 1 229 0
 411 0048 0022     		movs	r2, #0
 412 004a 2348     		ldr	r0, .L47+12
 413              	.LVL15:
 414 004c 0270     		strb	r2, [r0]
 236:.\Generated_Source\PSoC5/APPS_ADC_IntClock.c ****                 CLK_DIST_DMASK = APPS_ADC_IntClock_CLKEN_MASK;
 415              		.loc 1 236 0
 416 004e 0125     		movs	r5, #1
 417              	.LVL16:
 418 0050 0F30     		adds	r0, r0, #15
 419 0052 0570     		strb	r5, [r0]
 237:.\Generated_Source\PSoC5/APPS_ADC_IntClock.c ****                 CLK_DIST_AMASK = 0x00u;
 420              		.loc 1 237 0
 421 0054 0430     		adds	r0, r0, #4
 422 0056 0270     		strb	r2, [r0]
 240:.\Generated_Source\PSoC5/APPS_ADC_IntClock.c ****                 CLK_DIST_BCFG2 &= (uint8)(~BCFG2_MASK);
 423              		.loc 1 240 0
 424 0058 204A     		ldr	r2, .L47+16
 425 005a 1078     		ldrb	r0, [r2]	@ zero_extendqisi2
 426 005c 00F07F00 		and	r0, r0, #127
 427 0060 1070     		strb	r0, [r2]
 243:.\Generated_Source\PSoC5/APPS_ADC_IntClock.c ****                 if (((APPS_ADC_IntClock_MOD_SRC & CYCLK_SYNC) == 0u) || (clkDivider == 0u))
ARM GAS  C:\Users\mitchell\AppData\Local\Temp\ccpcPoc8.s 			page 17


 428              		.loc 1 243 0
 429 0062 7A32     		adds	r2, r2, #122
 430 0064 1278     		ldrb	r2, [r2]	@ zero_extendqisi2
 431 0066 12F0080F 		tst	r2, #8
 432 006a 00D0     		beq	.L39
 243:.\Generated_Source\PSoC5/APPS_ADC_IntClock.c ****                 if (((APPS_ADC_IntClock_MOD_SRC & CYCLK_SYNC) == 0u) || (clkDivider == 0u))
 433              		.loc 1 243 0 is_stmt 0 discriminator 1
 434 006c 94B9     		cbnz	r4, .L38
 435              	.L39:
 246:.\Generated_Source\PSoC5/APPS_ADC_IntClock.c ****                     CY_SET_REG16(CYREG_CLKDIST_WRK0, oldDivider);
 436              		.loc 1 246 0 is_stmt 1
 437 006e 1C4A     		ldr	r2, .L47+20
 438 0070 1380     		strh	r3, [r2]	@ movhi
 247:.\Generated_Source\PSoC5/APPS_ADC_IntClock.c ****                     CLK_DIST_LD = CYCLK_LD_DISABLE|CYCLK_LD_SYNC_EN|CYCLK_LD_LOAD;
 439              		.loc 1 247 0
 440 0072 0722     		movs	r2, #7
 441 0074 184B     		ldr	r3, .L47+12
 442              	.LVL17:
 443 0076 1A70     		strb	r2, [r3]
 250:.\Generated_Source\PSoC5/APPS_ADC_IntClock.c ****                     while ((CLK_DIST_LD & CYCLK_LD_LOAD) != 0u) { }
 444              		.loc 1 250 0
 445 0078 1A46     		mov	r2, r3
 446              	.L40:
 250:.\Generated_Source\PSoC5/APPS_ADC_IntClock.c ****                     while ((CLK_DIST_LD & CYCLK_LD_LOAD) != 0u) { }
 447              		.loc 1 250 0 is_stmt 0 discriminator 1
 448 007a 1378     		ldrb	r3, [r2]	@ zero_extendqisi2
 449 007c 13F0010F 		tst	r3, #1
 450 0080 FBD1     		bne	.L40
 253:.\Generated_Source\PSoC5/APPS_ADC_IntClock.c ****                     APPS_ADC_IntClock_CLKEN &= (uint8)(~APPS_ADC_IntClock_CLKEN_MASK);
 451              		.loc 1 253 0 is_stmt 1
 452 0082 124B     		ldr	r3, .L47
 453 0084 1A78     		ldrb	r2, [r3]	@ zero_extendqisi2
 454 0086 02F0FE02 		and	r2, r2, #254
 455 008a 1A70     		strb	r2, [r3]
 257:.\Generated_Source\PSoC5/APPS_ADC_IntClock.c ****                     CLK_DIST_LD = 0x00u;
 456              		.loc 1 257 0
 457 008c 0022     		movs	r2, #0
 458 008e A3F2A133 		subw	r3, r3, #929
 459 0092 1A70     		strb	r2, [r3]
 460              	.L38:
 263:.\Generated_Source\PSoC5/APPS_ADC_IntClock.c ****             if ((APPS_ADC_IntClock_CLKEN & APPS_ADC_IntClock_CLKEN_MASK) != 0u)
 461              		.loc 1 263 0
 462 0094 0D4B     		ldr	r3, .L47
 463 0096 1B78     		ldrb	r3, [r3]	@ zero_extendqisi2
 464 0098 13F0010F 		tst	r3, #1
 465 009c 0DD0     		beq	.L41
 266:.\Generated_Source\PSoC5/APPS_ADC_IntClock.c ****                 CY_SET_REG16(CYREG_CLKDIST_WRK0, clkDivider);
 466              		.loc 1 266 0
 467 009e 104B     		ldr	r3, .L47+20
 468 00a0 1C80     		strh	r4, [r3]	@ movhi
 268:.\Generated_Source\PSoC5/APPS_ADC_IntClock.c ****                 CLK_DIST_LD = (CYCLK_LD_LOAD | ((restart != 0u) ? CYCLK_LD_SYNC_EN : 0x00u));
 469              		.loc 1 268 0
 470 00a2 0EB1     		cbz	r6, .L44
 471 00a4 0322     		movs	r2, #3
 472 00a6 00E0     		b	.L42
 473              	.L44:
 474 00a8 0122     		movs	r2, #1
ARM GAS  C:\Users\mitchell\AppData\Local\Temp\ccpcPoc8.s 			page 18


 475              	.L42:
 268:.\Generated_Source\PSoC5/APPS_ADC_IntClock.c ****                 CLK_DIST_LD = (CYCLK_LD_LOAD | ((restart != 0u) ? CYCLK_LD_SYNC_EN : 0x00u));
 476              		.loc 1 268 0 is_stmt 0 discriminator 3
 477 00aa 0B4B     		ldr	r3, .L47+12
 478 00ac 1A70     		strb	r2, [r3]
 269:.\Generated_Source\PSoC5/APPS_ADC_IntClock.c ****                 while ((CLK_DIST_LD & CYCLK_LD_LOAD) != 0u) { }
 479              		.loc 1 269 0 is_stmt 1 discriminator 3
 480 00ae 1A46     		mov	r2, r3
 481              	.L43:
 269:.\Generated_Source\PSoC5/APPS_ADC_IntClock.c ****                 while ((CLK_DIST_LD & CYCLK_LD_LOAD) != 0u) { }
 482              		.loc 1 269 0 is_stmt 0 discriminator 1
 483 00b0 1378     		ldrb	r3, [r2]	@ zero_extendqisi2
 484 00b2 13F0010F 		tst	r3, #1
 485 00b6 FBD1     		bne	.L43
 486 00b8 70BD     		pop	{r4, r5, r6, pc}
 487              	.L41:
 274:.\Generated_Source\PSoC5/APPS_ADC_IntClock.c ****                 CY_SET_REG16(APPS_ADC_IntClock_DIV_PTR, clkDivider);
 488              		.loc 1 274 0 is_stmt 1
 489 00ba 054B     		ldr	r3, .L47+4
 490 00bc 1C80     		strh	r4, [r3]	@ movhi
 275:.\Generated_Source\PSoC5/APPS_ADC_IntClock.c **** 				APPS_ADC_IntClock_CLKEN |= enabled;
 491              		.loc 1 275 0
 492 00be 03F22233 		addw	r3, r3, #802
 493 00c2 1A78     		ldrb	r2, [r3]	@ zero_extendqisi2
 494 00c4 1143     		orrs	r1, r1, r2
 495              	.LVL18:
 496 00c6 1970     		strb	r1, [r3]
 497              	.L33:
 498 00c8 70BD     		pop	{r4, r5, r6, pc}
 499              	.L48:
 500 00ca 00BF     		.align	2
 501              	.L47:
 502 00cc A2430040 		.word	1073759138
 503 00d0 80400040 		.word	1073758336
 504 00d4 82400040 		.word	1073758338
 505 00d8 01400040 		.word	1073758209
 506 00dc 08400040 		.word	1073758216
 507 00e0 02400040 		.word	1073758210
 508              		.cfi_endproc
 509              	.LFE4:
 510              		.size	APPS_ADC_IntClock_SetDividerRegister, .-APPS_ADC_IntClock_SetDividerRegister
 511              		.section	.text.APPS_ADC_IntClock_SetSourceRegister,"ax",%progbits
 512              		.align	2
 513              		.global	APPS_ADC_IntClock_SetSourceRegister
 514              		.thumb
 515              		.thumb_func
 516              		.type	APPS_ADC_IntClock_SetSourceRegister, %function
 517              	APPS_ADC_IntClock_SetSourceRegister:
 518              	.LFB9:
 420:.\Generated_Source\PSoC5/APPS_ADC_IntClock.c **** {
 519              		.loc 1 420 0
 520              		.cfi_startproc
 521              		@ args = 0, pretend = 0, frame = 0
 522              		@ frame_needed = 0, uses_anonymous_args = 0
 523              	.LVL19:
 524 0000 38B5     		push	{r3, r4, r5, lr}
 525              		.cfi_def_cfa_offset 16
ARM GAS  C:\Users\mitchell\AppData\Local\Temp\ccpcPoc8.s 			page 19


 526              		.cfi_offset 3, -16
 527              		.cfi_offset 4, -12
 528              		.cfi_offset 5, -8
 529              		.cfi_offset 14, -4
 530 0002 0446     		mov	r4, r0
 421:.\Generated_Source\PSoC5/APPS_ADC_IntClock.c ****     uint16 currDiv = APPS_ADC_IntClock_GetDividerRegister();
 531              		.loc 1 421 0
 532 0004 FFF7FEFF 		bl	APPS_ADC_IntClock_GetDividerRegister
 533              	.LVL20:
 534 0008 0546     		mov	r5, r0
 535              	.LVL21:
 422:.\Generated_Source\PSoC5/APPS_ADC_IntClock.c ****     uint8 oldSrc = APPS_ADC_IntClock_GetSourceRegister();
 536              		.loc 1 422 0
 537 000a FFF7FEFF 		bl	APPS_ADC_IntClock_GetSourceRegister
 538              	.LVL22:
 424:.\Generated_Source\PSoC5/APPS_ADC_IntClock.c ****     if (((oldSrc != ((uint8)CYCLK_SRC_SEL_CLK_SYNC_D)) && 
 539              		.loc 1 424 0
 540 000e 0346     		mov	r3, r0
 541 0010 60B1     		cbz	r0, .L50
 424:.\Generated_Source\PSoC5/APPS_ADC_IntClock.c ****     if (((oldSrc != ((uint8)CYCLK_SRC_SEL_CLK_SYNC_D)) && 
 542              		.loc 1 424 0 is_stmt 0 discriminator 1
 543 0012 5CB9     		cbnz	r4, .L50
 425:.\Generated_Source\PSoC5/APPS_ADC_IntClock.c ****         (clkSource == ((uint8)CYCLK_SRC_SEL_CLK_SYNC_D))) && (currDiv == 0u))
 544              		.loc 1 425 0 is_stmt 1
 545 0014 55B9     		cbnz	r5, .L50
 429:.\Generated_Source\PSoC5/APPS_ADC_IntClock.c ****         APPS_ADC_IntClock_MOD_SRC |= CYCLK_SSS;
 546              		.loc 1 429 0
 547 0016 104B     		ldr	r3, .L53
 548 0018 1A78     		ldrb	r2, [r3]	@ zero_extendqisi2
 549 001a 42F04002 		orr	r2, r2, #64
 550 001e 1A70     		strb	r2, [r3]
 431:.\Generated_Source\PSoC5/APPS_ADC_IntClock.c ****             (APPS_ADC_IntClock_MOD_SRC & (uint8)(~APPS_ADC_IntClock_SRC_SEL_MSK)) | clkSource;
 551              		.loc 1 431 0
 552 0020 1A78     		ldrb	r2, [r3]	@ zero_extendqisi2
 430:.\Generated_Source\PSoC5/APPS_ADC_IntClock.c ****         APPS_ADC_IntClock_MOD_SRC =
 553              		.loc 1 430 0
 554 0022 02F0F802 		and	r2, r2, #248
 555 0026 1443     		orrs	r4, r4, r2
 556 0028 1C70     		strb	r4, [r3]
 557 002a 38BD     		pop	{r3, r4, r5, pc}
 558              	.LVL23:
 559              	.L50:
 433:.\Generated_Source\PSoC5/APPS_ADC_IntClock.c ****     else if (((oldSrc == ((uint8)CYCLK_SRC_SEL_CLK_SYNC_D)) && 
 560              		.loc 1 433 0
 561 002c 63B9     		cbnz	r3, .L52
 433:.\Generated_Source\PSoC5/APPS_ADC_IntClock.c ****     else if (((oldSrc == ((uint8)CYCLK_SRC_SEL_CLK_SYNC_D)) && 
 562              		.loc 1 433 0 is_stmt 0 discriminator 1
 563 002e 5CB1     		cbz	r4, .L52
 434:.\Generated_Source\PSoC5/APPS_ADC_IntClock.c ****             (clkSource != ((uint8)CYCLK_SRC_SEL_CLK_SYNC_D))) && (currDiv == 0u))
 564              		.loc 1 434 0 is_stmt 1
 565 0030 55B9     		cbnz	r5, .L52
 439:.\Generated_Source\PSoC5/APPS_ADC_IntClock.c ****             (APPS_ADC_IntClock_MOD_SRC & (uint8)(~APPS_ADC_IntClock_SRC_SEL_MSK)) | clkSource;
 566              		.loc 1 439 0
 567 0032 094B     		ldr	r3, .L53
 568 0034 1A78     		ldrb	r2, [r3]	@ zero_extendqisi2
 438:.\Generated_Source\PSoC5/APPS_ADC_IntClock.c ****         APPS_ADC_IntClock_MOD_SRC =
 569              		.loc 1 438 0
ARM GAS  C:\Users\mitchell\AppData\Local\Temp\ccpcPoc8.s 			page 20


 570 0036 02F0F802 		and	r2, r2, #248
 571 003a 1443     		orrs	r4, r4, r2
 572 003c 1C70     		strb	r4, [r3]
 440:.\Generated_Source\PSoC5/APPS_ADC_IntClock.c ****         APPS_ADC_IntClock_MOD_SRC &= (uint8)(~CYCLK_SSS);
 573              		.loc 1 440 0
 574 003e 1A78     		ldrb	r2, [r3]	@ zero_extendqisi2
 575 0040 02F0BF02 		and	r2, r2, #191
 576 0044 1A70     		strb	r2, [r3]
 577 0046 38BD     		pop	{r3, r4, r5, pc}
 578              	.LVL24:
 579              	.L52:
 445:.\Generated_Source\PSoC5/APPS_ADC_IntClock.c ****             (APPS_ADC_IntClock_MOD_SRC & (uint8)(~APPS_ADC_IntClock_SRC_SEL_MSK)) | clkSource;
 580              		.loc 1 445 0
 581 0048 034B     		ldr	r3, .L53
 582 004a 1A78     		ldrb	r2, [r3]	@ zero_extendqisi2
 444:.\Generated_Source\PSoC5/APPS_ADC_IntClock.c ****         APPS_ADC_IntClock_MOD_SRC =
 583              		.loc 1 444 0
 584 004c 02F0F802 		and	r2, r2, #248
 585 0050 1443     		orrs	r4, r4, r2
 586 0052 1C70     		strb	r4, [r3]
 587 0054 38BD     		pop	{r3, r4, r5, pc}
 588              	.LVL25:
 589              	.L54:
 590 0056 00BF     		.align	2
 591              	.L53:
 592 0058 82400040 		.word	1073758338
 593              		.cfi_endproc
 594              	.LFE9:
 595              		.size	APPS_ADC_IntClock_SetSourceRegister, .-APPS_ADC_IntClock_SetSourceRegister
 596              		.text
 597              	.Letext0:
 598              		.file 2 "Generated_Source\\PSoC5/cytypes.h"